(lp1
ccopy_reg
_reconstructor
p2
(c__main__
KBproperty
p3
c__builtin__
object
p4
NtRp5
(dp6
S'comment'
p7
S'Source of the  value.'
p8
sS'domain'
p9
S'Place '
p10
sS'instances_count'
p11
S'1'
sS'label'
p12
S'average depth quote'
p13
sS'range'
p14
S'string '
p15
sS'prop_uri'
p16
S"'http://dbpedia.org/ontology/averageDepthQuote'"
p17
sS'annotations'
p18
(dp19
S'bag_of_words'
p20
(lp21
S'Place'
p22
aS'average'
p23
aS'depth'
p24
aS'quote'
p25
aS'string'
p26
aS'Source'
p27
aS'of'
p28
aS'the'
p29
aS'value'
p30
aS'.'
asS'chunk_seq'
p31
(lp32
S'B-NP'
p33
aS'I-NP'
p34
aS'I-NP'
p35
aS'I-NP'
p36
aS'I-NP'
p37
aS'E-NP'
p38
aS'S-PP'
p39
aS'B-NP'
p40
aS'E-NP'
p41
aS'O'
asS'dep_seq'
p42
(lp43
(lp44
S'nn'
p45
aS'6'
aS'1'
aa(lp46
S'amod'
p47
aS'6'
aS'2'
aa(lp48
S'nn'
p49
aS'6'
aS'3'
aa(lp50
S'nn'
p51
aS'6'
aS'4'
aa(lp52
S'nn'
p53
aS'6'
aS'5'
aa(lp54
S'root'
p55
aS'0'
aS'6'
aa(lp56
S'det'
p57
aS'9'
aS'8'
aa(lp58
S'prep_of'
p59
aS'6'
aS'9'
aasS'srls'
p60
(lp61
sS'pos_seq'
p62
(lp63
S'NN'
p64
aS'JJ'
p65
aS'NN'
p66
aS'NN'
p67
aS'NN'
p68
aS'NN'
p69
aS'IN'
p70
aS'DT'
p71
aS'NN'
p72
aS'.'
asS'ner_seq'
p73
(lp74
S'O'
aS'O'
aS'O'
aS'O'
aS'O'
aS'O'
aS'O'
aS'O'
aS'O'
aS'O'
assbag5
ag5
ag5
ag5
ag5
ag5
ag5
ag5
ag5
ag5
a.