ccopy_reg
_reconstructor
p1
(c__main__
KBproperty
p2
c__builtin__
object
p3
NtRp4
(dp5
S'comment'
p6
S'fuel capacity \\xce\\xbc\\xc2\\xb3'
p7
sS'domain'
p8
S'Automobile '
p9
sS'instances_count'
p10
S'11'
p11
sS'label'
p12
g7
sS'range'
p13
S'double '
p14
sS'prop_uri'
p15
S"'http://dbpedia.org/ontology/fuelCapacity'"
p16
sS'annotations'
p17
(dp18
S'bag_of_words'
p19
(lp20
S'Automobile'
p21
aS'fuel'
p22
aS'Capacity'
p23
aS'double'
p24
aS'fuel'
p25
aS'capacity'
p26
aS'\\'
aS'xce'
p27
aS'\\'
aS'xbc'
p28
aS'\\'
aS'xc2'
p29
aS'\\'
aS'xb3'
p30
asS'chunk_seq'
p31
(lp32
S'B-NP'
p33
aS'I-NP'
p34
aS'E-NP'
p35
aS'B-NP'
p36
aS'I-NP'
p37
aS'E-NP'
p38
aS'O'
aS'O'
aS'O'
aS'O'
aS'O'
aS'O'
aS'O'
aS'O'
asS'dep_seq'
p39
(lp40
(lp41
S'nn'
p42
aS'3'
aS'1'
aa(lp43
S'nn'
p44
aS'3'
aS'2'
aa(lp45
S'dep'
p46
aS'6'
aS'3'
aa(lp47
S'amod'
p48
aS'6'
aS'4'
aa(lp49
S'nn'
p50
aS'6'
aS'5'
aa(lp51
S'root'
p52
aS'0'
aS'6'
aa(lp53
S'dep'
p54
aS'6'
aS'7'
aa(lp55
S'discourse'
p56
aS'6'
aS'8'
aa(lp57
S'dep'
p58
aS'8'
aS'9'
aa(lp59
S'dep'
p60
aS'8'
aS'10'
p61
aa(lp62
S'dep'
p63
aS'8'
aS'11'
p64
aa(lp65
S'dep'
p66
aS'8'
aS'12'
p67
aa(lp68
S'dep'
p69
aS'8'
aS'13'
p70
aa(lp71
S'dep'
p72
aS'8'
aS'14'
p73
aasS'srls'
p74
(lp75
sS'pos_seq'
p76
(lp77
S'NN'
p78
aS'NN'
p79
aS'NN'
p80
aS'JJ'
p81
aS'NN'
p82
aS'NN'
p83
aS'FW'
p84
aS'FW'
p85
aS'FW'
p86
aS'FW'
p87
aS'FW'
p88
aS'FW'
p89
aS'FW'
p90
aS'FW'
p91
asS'ner_seq'
p92
(lp93
S'O'
aS'O'
aS'O'
aS'O'
aS'O'
aS'O'
aS'O'
aS'O'
aS'O'
aS'O'
aS'O'
aS'O'
aS'O'
aS'O'
assb.