ccopy_reg
_reconstructor
p1
(c__main__
KBproperty
p2
c__builtin__
object
p3
NtRp4
(dp5
S'comment'
p6
S''
sS'domain'
p7
S'Former Municipality '
p8
sS'instances_count'
p9
S'0'
sS'label'
p10
S'absorbed by'
p11
sS'range'
p12
S'Municipality '
p13
sS'prop_uri'
p14
S"'http://dbpedia.org/ontology/municipalityAbsorbedBy'"
p15
sS'annotations'
p16
(dp17
S'bag_of_words'
p18
(lp19
S'Former'
p20
aS'Municipality'
p21
aS'absorbed'
p22
aS'by'
p23
aS'Municipality'
p24
asS'chunk_seq'
p25
(lp26
S'B-NP'
p27
aS'E-NP'
p28
aS'S-VP'
p29
aS'S-PP'
p30
aS'S-NP'
p31
asS'dep_seq'
p32
(lp33
(lp34
S'nn'
p35
aS'2'
aS'1'
aa(lp36
S'root'
p37
aS'0'
aS'2'
aa(lp38
S'partmod'
p39
aS'2'
aS'3'
aa(lp40
S'agent'
p41
aS'3'
aS'5'
aasS'srls'
p42
(lp43
(dp44
S'A1'
p45
S'Former Municipality'
p46
sS'A0'
p47
S'by Municipality'
p48
sS'V'
g22
sasS'pos_seq'
p49
(lp50
S'NNP'
p51
aS'NNP'
p52
aS'VBN'
p53
aS'IN'
p54
aS'NNP'
p55
asS'ner_seq'
p56
(lp57
S'O'
aS'O'
aS'O'
aS'O'
aS'O'
assb.