ccopy_reg
_reconstructor
p1
(c__main__
KBproperty
p2
c__builtin__
object
p3
NtRp4
(dp5
S'comment'
p6
S''
sS'domain'
p7
S''
sS'instances_count'
p8
S'2'
sS'label'
p9
S'r8-length-m'
p10
sS'range'
p11
S''
sS'prop_uri'
p12
S"'http://dbpedia.org/property/r8LengthM'"
p13
sS'annotations'
p14
(dp15
S'bag_of_words'
p16
(lp17
S'r8'
p18
aS'-'
aS'length'
p19
aS'-'
aS'm'
asS'chunk_seq'
p20
(lp21
S'S-NP'
p22
aS'O'
aS'S-NP'
p23
aS'O'
aS'O'
asS'dep_seq'
p24
(lp25
(lp26
S'dep'
p27
aS'3'
aS'1'
aa(lp28
S'root'
p29
aS'0'
aS'3'
aa(lp30
S'dep'
p31
aS'3'
aS'5'
aasS'srls'
p32
(lp33
sS'pos_seq'
p34
(lp35
S'SYM'
p36
aS':'
aS'NN'
p37
aS':'
aS'NN'
p38
asS'ner_seq'
p39
(lp40
S'O'
aS'O'
aS'O'
aS'O'
aS'O'
assb.