ccopy_reg
_reconstructor
p1
(c__main__
KBproperty
p2
c__builtin__
object
p3
NtRp4
(dp5
S'comment'
p6
S''
sS'domain'
p7
S'Fictional Character '
p8
sS'instances_count'
p9
S'5331'
p10
sS'label'
p11
S'portrayer'
p12
sS'range'
p13
S''
sS'prop_uri'
p14
S"'http://dbpedia.org/ontology/portrayer'"
p15
sS'annotations'
p16
(dp17
S'bag_of_words'
p18
(lp19
S'Fictional'
p20
aS'Character'
p21
aS'portrayer'
p22
asS'chunk_seq'
p23
(lp24
S'B-NP'
p25
aS'E-NP'
p26
aS'S-ADJP'
p27
asS'dep_seq'
p28
(lp29
(lp30
S'amod'
p31
aS'2'
aS'1'
aa(lp32
S'root'
p33
aS'0'
aS'2'
aa(lp34
S'punct'
p35
aS'2'
aS'3'
aasS'srls'
p36
(lp37
sS'pos_seq'
p38
(lp39
S'JJ'
p40
aS'NN'
p41
aS'.'
asS'ner_seq'
p42
(lp43
S'O'
aS'O'
aS'O'
assb.