ccopy_reg
_reconstructor
p1
(c__main__
KBproperty
p2
c__builtin__
object
p3
NtRp4
(dp5
S'comment'
p6
S''
sS'domain'
p7
S''
sS'instances_count'
p8
S'79'
p9
sS'label'
p10
S'highest m'
p11
sS'range'
p12
S''
sS'prop_uri'
p13
S"'http://dbpedia.org/property/highestM'"
p14
sS'annotations'
p15
(dp16
S'bag_of_words'
p17
(lp18
S'highest'
p19
aS'm'
asS'chunk_seq'
p20
(lp21
S'B-NP'
p22
aS'E-NP'
p23
asS'dep_seq'
p24
(lp25
(lp26
S'root'
p27
aS'0'
aS'1'
aa(lp28
S'punct'
p29
aS'1'
aS'2'
aasS'srls'
p30
(lp31
sS'pos_seq'
p32
(lp33
S'JJS'
p34
aS'.'
asS'ner_seq'
p35
(lp36
S'O'
aS'O'
assb.