ccopy_reg
_reconstructor
p1
(c__main__
KBproperty
p2
c__builtin__
object
p3
NtRp4
(dp5
S'comment'
p6
S'Department for Education UK number of a school in England or Wales'
p7
sS'domain'
p8
S'School '
p9
sS'instances_count'
p10
S'1'
sS'label'
p11
S'DfE'
p12
sS'range'
p13
S''
sS'prop_uri'
p14
S"'http://dbpedia.org/ontology/dfE'"
p15
sS'annotations'
p16
(dp17
S'bag_of_words'
p18
(lp19
S'School'
p20
aS'DfE'
p21
aS'Department'
p22
aS'for'
p23
aS'Education'
p24
aS'UK'
p25
aS'number'
p26
aS'of'
p27
aS'a'
aS'school'
p28
aS'in'
p29
aS'England'
p30
aS'or'
p31
aS'Wales'
p32
asS'chunk_seq'
p33
(lp34
S'B-NP'
p35
aS'I-NP'
p36
aS'E-NP'
p37
aS'S-PP'
p38
aS'B-NP'
p39
aS'I-NP'
p40
aS'E-NP'
p41
aS'S-PP'
p42
aS'B-NP'
p43
aS'E-NP'
p44
aS'S-PP'
p45
aS'B-NP'
p46
aS'I-NP'
p47
aS'E-NP'
p48
asS'dep_seq'
p49
(lp50
(lp51
S'nn'
p52
aS'3'
aS'1'
aa(lp53
S'nn'
p54
aS'3'
aS'2'
aa(lp55
S'root'
p56
aS'0'
aS'3'
aa(lp57
S'nn'
p58
aS'7'
aS'5'
aa(lp59
S'nn'
p60
aS'7'
aS'6'
aa(lp61
S'prep_for'
p62
aS'3'
aS'7'
aa(lp63
S'det'
p64
aS'10'
p65
aS'9'
aa(lp66
S'prep_of'
p67
aS'7'
aS'10'
p68
aa(lp69
S'prep_in'
p70
aS'10'
p71
aS'12'
p72
aa(lp73
S'conj_or'
p74
aS'12'
p75
aS'14'
p76
aasS'srls'
p77
(lp78
sS'pos_seq'
p79
(lp80
S'NNP'
p81
aS'NNP'
p82
aS'NNP'
p83
aS'IN'
p84
aS'NNP'
p85
aS'NNP'
p86
aS'NN'
p87
aS'IN'
p88
aS'DT'
p89
aS'NN'
p90
aS'IN'
p91
aS'NNP'
p92
aS'CC'
p93
aS'NNP'
p94
asS'ner_seq'
p95
(lp96
S'O'
aS'B-ORG'
p97
aS'I-ORG'
p98
aS'I-ORG'
p99
aS'I-ORG'
p100
aS'E-ORG'
p101
aS'O'
aS'O'
aS'O'
aS'O'
aS'O'
aS'S-LOC'
p102
aS'O'
aS'S-LOC'
p103
assb.