ccopy_reg
_reconstructor
p1
(c__main__
KBproperty
p2
c__builtin__
object
p3
NtRp4
(dp5
S'comment'
p6
S'escape velocity kmh'
p7
sS'domain'
p8
S'Planet '
p9
sS'instances_count'
p10
S'301'
p11
sS'label'
p12
g7
sS'range'
p13
S'double '
p14
sS'prop_uri'
p15
S"'http://dbpedia.org/ontology/escapeVelocity'"
p16
sS'annotations'
p17
(dp18
S'bag_of_words'
p19
(lp20
S'Planet'
p21
aS'escape'
p22
aS'Velocity'
p23
aS'double'
p24
aS'escape'
p25
aS'velocity'
p26
aS'kmh'
p27
asS'chunk_seq'
p28
(lp29
S'B-NP'
p30
aS'I-NP'
p31
aS'I-NP'
p32
aS'I-NP'
p33
aS'I-NP'
p34
aS'E-NP'
p35
aS'O'
asS'dep_seq'
p36
(lp37
(lp38
S'nn'
p39
aS'3'
aS'1'
aa(lp40
S'nn'
p41
aS'3'
aS'2'
aa(lp42
S'dep'
p43
aS'6'
aS'3'
aa(lp44
S'amod'
p45
aS'6'
aS'4'
aa(lp46
S'nn'
p47
aS'6'
aS'5'
aa(lp48
S'root'
p49
aS'0'
aS'6'
aa(lp50
S'punct'
p51
aS'6'
aS'7'
aasS'srls'
p52
(lp53
(dp54
S'A1'
p55
S'Velocity double escape velocity kmh'
p56
sS'A0'
p57
g21
sS'V'
g22
sasS'pos_seq'
p58
(lp59
S'NN'
p60
aS'NN'
p61
aS'NN'
p62
aS'JJ'
p63
aS'NN'
p64
aS'NN'
p65
aS'.'
asS'ner_seq'
p66
(lp67
S'O'
aS'O'
aS'O'
aS'O'
aS'O'
aS'O'
aS'O'
assb.