ccopy_reg
_reconstructor
p1
(c__main__
KBproperty
p2
c__builtin__
object
p3
NtRp4
(dp5
S'comment'
p6
S'Year of reopening the architectural structure.'
p7
sS'domain'
p8
S'Architectural Structure '
p9
sS'instances_count'
p10
S'129'
p11
sS'label'
p12
S'reopening year'
p13
sS'range'
p14
S'g Year '
p15
sS'prop_uri'
p16
S"'http://dbpedia.org/ontology/reopeningYear'"
p17
sS'annotations'
p18
(dp19
S'bag_of_words'
p20
(lp21
S'Architectural'
p22
aS'Structure'
p23
aS'reopening'
p24
aS'year'
p25
aS'g'
aS'Year'
p26
aS'Year'
p27
aS'of'
p28
aS'reopening'
p29
aS'the'
p30
aS'architectural'
p31
aS'structure'
p32
aS'.'
asS'chunk_seq'
p33
(lp34
S'B-NP'
p35
aS'E-NP'
p36
aS'S-VP'
p37
aS'B-NP'
p38
aS'I-NP'
p39
aS'I-NP'
p40
aS'E-NP'
p41
aS'S-PP'
p42
aS'S-VP'
p43
aS'B-NP'
p44
aS'I-NP'
p45
aS'E-NP'
p46
aS'O'
asS'dep_seq'
p47
(lp48
(lp49
S'amod'
p50
aS'2'
aS'1'
aa(lp51
S'root'
p52
aS'0'
aS'2'
aa(lp53
S'partmod'
p54
aS'2'
aS'3'
aa(lp55
S'nn'
p56
aS'7'
aS'4'
aa(lp57
S'nn'
p58
aS'7'
aS'5'
aa(lp59
S'nn'
p60
aS'7'
aS'6'
aa(lp61
S'tmod'
p62
aS'3'
aS'7'
aa(lp63
S'prepc_of'
p64
aS'2'
aS'9'
aa(lp65
S'det'
p66
aS'12'
p67
aS'10'
p68
aa(lp69
S'amod'
p70
aS'12'
p71
aS'11'
p72
aa(lp73
S'dobj'
p74
aS'9'
aS'12'
p75
aasS'srls'
p76
(lp77
(dp78
S'A0'
p79
S'Architectural Structure'
p80
sS'AM-TMP'
p81
S'year g Year Year'
p82
sS'V'
g24
sa(dp83
S'A1'
p84
S'the architectural structure'
p85
sS'V'
g29
sasS'pos_seq'
p86
(lp87
S'JJ'
p88
aS'NN'
p89
aS'VBG'
p90
aS'NN'
p91
aS'NN'
p92
aS'NN'
p93
aS'NN'
p94
aS'IN'
p95
aS'VBG'
p96
aS'DT'
p97
aS'JJ'
p98
aS'NN'
p99
aS'.'
asS'ner_seq'
p100
(lp101
S'O'
aS'O'
aS'O'
aS'O'
aS'O'
aS'O'
aS'O'
aS'O'
aS'O'
aS'O'
aS'O'
aS'O'
aS'O'
assb.