ccopy_reg
_reconstructor
p1
(c__main__
KBproperty
p2
c__builtin__
object
p3
NtRp4
(dp5
S'comment'
p6
S"Indicates a Food's effect on a person's blood glucose blood sugar level. Typically ranges between 50 and 100 where 100 represents the standard an equivalent amount of pure glucose"
p7
sS'domain'
p8
S'Food '
p9
sS'instances_count'
p10
S'3'
sS'label'
p11
S'glycemic index'
p12
sS'range'
p13
S'integer '
p14
sS'prop_uri'
p15
S"'http://dbpedia.org/ontology/glycemicIndex'"
p16
sS'annotations'
p17
(dp18
S'bag_of_words'
p19
(lp20
S'Food'
p21
aS'glycemic'
p22
aS'index'
p23
aS'integer'
p24
aS'Indicates'
p25
aS'a'
aS'Food'
p26
aS"'s"
p27
aS'effect'
p28
aS'on'
p29
aS'a'
aS'person'
p30
aS"'s"
p31
aS'blood'
p32
aS'glucose'
p33
aS'blood'
p34
aS'sugar'
p35
aS'level'
p36
aS'.'
aS'Typically'
p37
aS'ranges'
p38
aS'between'
p39
aS'50'
p40
aS'and'
p41
aS'100'
p42
aS'where'
p43
aS'100'
p44
aS'represents'
p45
aS'the'
p46
aS'standard'
p47
aS'an'
p48
aS'equivalent'
p49
aS'amount'
p50
aS'of'
p51
aS'pure'
p52
aS'glucose'
p53
asS'chunk_seq'
p54
(lp55
S'B-NP'
p56
aS'I-NP'
p57
aS'E-NP'
p58
aS'S-NP'
p59
aS'S-VP'
p60
aS'B-NP'
p61
aS'E-NP'
p62
aS'B-NP'
p63
aS'E-NP'
p64
aS'S-PP'
p65
aS'B-NP'
p66
aS'E-NP'
p67
aS'B-NP'
p68
aS'I-NP'
p69
aS'I-NP'
p70
aS'I-NP'
p71
aS'I-NP'
p72
aS'E-NP'
p73
aS'O'
aS'S-ADVP'
p74
aS'S-VP'
p75
aS'S-PP'
p76
aS'B-NP'
p77
aS'I-NP'
p78
aS'E-NP'
p79
aS'S-ADVP'
p80
aS'S-NP'
p81
aS'S-VP'
p82
aS'B-NP'
p83
aS'E-NP'
p84
aS'B-NP'
p85
aS'I-NP'
p86
aS'E-NP'
p87
aS'S-PP'
p88
aS'B-NP'
p89
aS'E-NP'
p90
asS'dep_seq'
p91
(lp92
(lp93
S'nn'
p94
aS'4'
aS'1'
aa(lp95
S'nn'
p96
aS'4'
aS'2'
aa(lp97
S'nn'
p98
aS'4'
aS'3'
aa(lp99
S'dep'
p100
aS'33'
p101
aS'4'
aa(lp102
S'dep'
p103
aS'33'
p104
aS'5'
aa(lp105
S'det'
p106
aS'7'
aS'6'
aa(lp107
S'poss'
p108
aS'9'
aS'7'
aa(lp109
S'dep'
p110
aS'33'
p111
aS'9'
aa(lp112
S'det'
p113
aS'12'
p114
aS'11'
p115
aa(lp116
S'poss'
p117
aS'18'
p118
aS'12'
p119
aa(lp120
S'nn'
p121
aS'18'
p122
aS'14'
p123
aa(lp124
S'nn'
p125
aS'18'
p126
aS'15'
p127
aa(lp128
S'nn'
p129
aS'18'
p130
aS'16'
p131
aa(lp132
S'nn'
p133
aS'18'
p134
aS'17'
p135
aa(lp136
S'prep_on'
p137
aS'9'
aS'18'
p138
aa(lp139
S'advmod'
p140
aS'33'
p141
aS'20'
p142
aa(lp143
S'dep'
p144
aS'33'
p145
aS'21'
p146
aa(lp147
S'dep'
p148
aS'33'
p149
aS'22'
p150
aa(lp151
S'dep'
p152
aS'33'
p153
aS'23'
p154
aa(lp155
S'conj_and'
p156
aS'23'
p157
aS'25'
p158
aa(lp159
S'advmod'
p160
aS'33'
p161
aS'26'
p162
aa(lp163
S'dep'
p164
aS'33'
p165
aS'27'
p166
aa(lp167
S'dep'
p168
aS'33'
p169
aS'28'
p170
aa(lp171
S'det'
p172
aS'30'
p173
aS'29'
p174
aa(lp175
S'dep'
p176
aS'33'
p177
aS'30'
p178
aa(lp179
S'det'
p180
aS'33'
p181
aS'31'
p182
aa(lp183
S'amod'
p184
aS'33'
p185
aS'32'
p186
aa(lp187
S'root'
p188
aS'0'
aS'33'
p189
aa(lp190
S'amod'
p191
aS'36'
p192
aS'35'
p193
aa(lp194
S'prep_of'
p195
aS'33'
p196
aS'36'
p197
aasS'srls'
p198
(lp199
(dp200
S'A1'
p201
S"a Food 's effect on a person 's blood glucose blood sugar level . Typically ranges between 50 and 100 where 100 represents the standard an equivalent amount of pure glucose"
p202
sS'A0'
p203
S'Food glycemic index integer'
p204
sS'V'
g25
sa(dp205
S'A1'
p206
S"a Food 's effect on a person 's blood glucose blood sugar level"
p207
sS'AM-TMP'
p208
S'Typically  between 50 and 100 where 100 represents the standard an equivalent amount of pure glucose'
p209
sS'V'
g38
sa(dp210
S'A1'
p211
S'the standard an equivalent amount of pure glucose'
p212
sS'AM-LOC'
p213
S'Typically ranges between 50 and 100'
p214
sS'V'
g45
sS'A0'
p215
g44
sasS'pos_seq'
p216
(lp217
S'NN'
p218
aS'NN'
p219
aS'NN'
p220
aS'NN'
p221
aS'VBZ'
p222
aS'DT'
p223
aS'NNP'
p224
aS'POS'
p225
aS'NN'
p226
aS'IN'
p227
aS'DT'
p228
aS'NN'
p229
aS'POS'
p230
aS'NN'
p231
aS'NN'
p232
aS'NN'
p233
aS'NN'
p234
aS'NN'
p235
aS'.'
aS'RB'
p236
aS'VBZ'
p237
aS'IN'
p238
aS'CD'
p239
aS'CC'
p240
aS'CD'
p241
aS'WRB'
p242
aS'CD'
p243
aS'VBZ'
p244
aS'DT'
p245
aS'NN'
p246
aS'DT'
p247
aS'JJ'
p248
aS'NN'
p249
aS'IN'
p250
aS'JJ'
p251
aS'NN'
p252
asS'ner_seq'
p253
(lp254
S'O'
aS'O'
aS'O'
aS'O'
aS'O'
aS'O'
aS'O'
aS'O'
aS'O'
aS'O'
aS'O'
aS'O'
aS'O'
aS'O'
aS'O'
aS'O'
aS'O'
aS'O'
aS'O'
aS'O'
aS'O'
aS'O'
aS'O'
aS'O'
aS'O'
aS'O'
aS'O'
aS'O'
aS'O'
aS'O'
aS'O'
aS'O'
aS'O'
aS'O'
aS'O'
aS'O'
assb.