ccopy_reg
_reconstructor
p1
(c__main__
KBproperty
p2
c__builtin__
object
p3
NtRp4
(dp5
S'comment'
p6
S''
sS'domain'
p7
S'Canal '
p8
sS'instances_count'
p9
S'204'
p10
sS'label'
p11
S'has junction with'
p12
sS'range'
p13
S'Canal '
p14
sS'prop_uri'
p15
S"'http://dbpedia.org/ontology/hasJunctionWith'"
p16
sS'annotations'
p17
(dp18
S'bag_of_words'
p19
(lp20
S'Canal'
p21
aS'has'
p22
aS'junction'
p23
aS'with'
p24
aS'Canal'
p25
asS'chunk_seq'
p26
(lp27
S'S-NP'
p28
aS'S-VP'
p29
aS'S-NP'
p30
aS'S-PP'
p31
aS'S-NP'
p32
asS'dep_seq'
p33
(lp34
(lp35
S'nsubj'
p36
aS'2'
aS'1'
aa(lp37
S'root'
p38
aS'0'
aS'2'
aa(lp39
S'dobj'
p40
aS'2'
aS'3'
aa(lp41
S'prep_with'
p42
aS'3'
aS'5'
aasS'srls'
p43
(lp44
(dp45
S'A1'
p46
S'Canal  junction with Canal'
p47
sS'V'
g22
sasS'pos_seq'
p48
(lp49
S'NNP'
p50
aS'VBZ'
p51
aS'NN'
p52
aS'IN'
p53
aS'NNP'
p54
asS'ner_seq'
p55
(lp56
S'O'
aS'O'
aS'O'
aS'O'
aS'O'
assb.