ccopy_reg
_reconstructor
p1
(c__main__
KBproperty
p2
c__builtin__
object
p3
NtRp4
(dp5
S'comment'
p6
S''
sS'domain'
p7
S''
sS'instances_count'
p8
S'0'
sS'label'
p9
S'manager years start year'
p10
sS'range'
p11
S'g Year '
p12
sS'prop_uri'
p13
S"'http://dbpedia.org/ontology/managerYearsStartYear'"
p14
sS'annotations'
p15
(dp16
S'bag_of_words'
p17
(lp18
S'manager'
p19
aS'years'
p20
aS'start'
p21
aS'year'
p22
aS'g'
aS'Year'
p23
asS'chunk_seq'
p24
(lp25
S'B-NP'
p26
aS'E-NP'
p27
aS'S-VP'
p28
aS'B-NP'
p29
aS'I-NP'
p30
aS'E-NP'
p31
asS'dep_seq'
p32
(lp33
(lp34
S'nn'
p35
aS'2'
aS'1'
aa(lp36
S'root'
p37
aS'0'
aS'2'
aa(lp38
S'dep'
p39
aS'2'
aS'3'
aa(lp40
S'nn'
p41
aS'6'
aS'4'
aa(lp42
S'nn'
p43
aS'6'
aS'5'
aa(lp44
S'tmod'
p45
aS'3'
aS'6'
aasS'srls'
p46
(lp47
(dp48
S'A1'
p49
S'manager years'
p50
sS'AM-TMP'
p51
S'year g Year'
p52
sS'V'
g21
sasS'pos_seq'
p53
(lp54
S'NN'
p55
aS'NNS'
p56
aS'VBP'
p57
aS'NN'
p58
aS'NN'
p59
aS'NN'
p60
asS'ner_seq'
p61
(lp62
S'O'
aS'O'
aS'O'
aS'O'
aS'O'
aS'O'
assb.