ccopy_reg
_reconstructor
p1
(c__main__
KBproperty
p2
c__builtin__
object
p3
NtRp4
(dp5
S'comment'
p6
S''
sS'domain'
p7
S'Place '
p8
sS'instances_count'
p9
S'0'
sS'label'
p10
S'foresterDistrict'
p11
sS'range'
p12
S''
sS'prop_uri'
p13
S"'http://dbpedia.org/ontology/foresterDistrict'"
p14
sS'annotations'
p15
(dp16
S'bag_of_words'
p17
(lp18
S'Place'
p19
aS'foresterDistrict'
p20
asS'chunk_seq'
p21
(lp22
S'S-NP'
p23
aS'S-ADJP'
p24
asS'dep_seq'
p25
(lp26
(lp27
S'root'
p28
aS'0'
aS'1'
aa(lp29
S'dep'
p30
aS'1'
aS'2'
aasS'srls'
p31
(lp32
sS'pos_seq'
p33
(lp34
S'NN'
p35
aS'.'
asS'ner_seq'
p36
(lp37
S'O'
aS'O'
assb.