ccopy_reg
_reconstructor
p1
(c__main__
KBproperty
p2
c__builtin__
object
p3
NtRp4
(dp5
S'comment'
p6
S'Designates the category of people commemorated by a monument'
p7
sS'domain'
p8
S'Monument '
p9
sS'instances_count'
p10
S'0'
sS'label'
p11
S'group commemorated'
p12
sS'range'
p13
S'string '
p14
sS'prop_uri'
p15
S"'http://dbpedia.org/ontology/groupCommemorated'"
p16
sS'annotations'
p17
(dp18
S'bag_of_words'
p19
(lp20
S'Monument'
p21
aS'group'
p22
aS'commemorated'
p23
aS'string'
p24
aS'Designates'
p25
aS'the'
p26
aS'category'
p27
aS'of'
p28
aS'people'
p29
aS'commemorated'
p30
aS'by'
p31
aS'a'
aS'monument'
p32
asS'chunk_seq'
p33
(lp34
S'B-NP'
p35
aS'E-NP'
p36
aS'S-VP'
p37
aS'S-NP'
p38
aS'S-VP'
p39
aS'B-NP'
p40
aS'E-NP'
p41
aS'S-PP'
p42
aS'S-NP'
p43
aS'S-VP'
p44
aS'S-PP'
p45
aS'B-NP'
p46
aS'E-NP'
p47
asS'dep_seq'
p48
(lp49
(lp50
S'nn'
p51
aS'2'
aS'1'
aa(lp52
S'nsubj'
p53
aS'3'
aS'2'
aa(lp54
S'root'
p55
aS'0'
aS'3'
aa(lp56
S'nsubj'
p57
aS'5'
aS'4'
aa(lp58
S'ccomp'
p59
aS'3'
aS'5'
aa(lp60
S'det'
p61
aS'7'
aS'6'
aa(lp62
S'dobj'
p63
aS'5'
aS'7'
aa(lp64
S'prep_of'
p65
aS'7'
aS'9'
aa(lp66
S'partmod'
p67
aS'9'
aS'10'
p68
aa(lp69
S'det'
p70
aS'13'
p71
aS'12'
p72
aa(lp73
S'agent'
p74
aS'10'
p75
aS'13'
p76
aasS'srls'
p77
(lp78
(dp79
S'A1'
p80
S'string Designates the category of people commemorated by a monument'
p81
sS'A0'
p82
S'Monument group'
p83
sS'V'
g23
sa(dp84
S'A1'
p85
S'the category of people commemorated by a monument'
p86
sS'A0'
p87
S'Monument group commemorated string'
p88
sS'V'
g25
sa(dp89
S'A1'
p90
g29
sS'A0'
p91
S'by a monument'
p92
sS'V'
g30
sasS'pos_seq'
p93
(lp94
S'NN'
p95
aS'NN'
p96
aS'VBD'
p97
aS'NN'
p98
aS'VBZ'
p99
aS'DT'
p100
aS'NN'
p101
aS'IN'
p102
aS'NNS'
p103
aS'VBN'
p104
aS'IN'
p105
aS'DT'
p106
aS'NN'
p107
asS'ner_seq'
p108
(lp109
S'O'
aS'O'
aS'O'
aS'O'
aS'O'
aS'O'
aS'O'
aS'O'
aS'O'
aS'O'
aS'O'
aS'O'
aS'O'
assb.