ccopy_reg
_reconstructor
p1
(c__main__
KBproperty
p2
c__builtin__
object
p3
NtRp4
(dp5
S'comment'
p6
S'Land Registry code designating a parcel of land'
p7
sS'domain'
p8
S'Place '
p9
sS'instances_count'
p10
S'0'
sS'label'
p11
S'code land registry'
p12
sS'range'
p13
S'string '
p14
sS'prop_uri'
p15
S"'http://dbpedia.org/ontology/codeLandRegistry'"
p16
sS'annotations'
p17
(dp18
S'bag_of_words'
p19
(lp20
S'Place'
p21
aS'code'
p22
aS'land'
p23
aS'registry'
p24
aS'string'
p25
aS'Land'
p26
aS'Registry'
p27
aS'code'
p28
aS'designating'
p29
aS'a'
aS'parcel'
p30
aS'of'
p31
aS'land'
p32
asS'chunk_seq'
p33
(lp34
S'B-NP'
p35
aS'I-NP'
p36
aS'I-NP'
p37
aS'I-NP'
p38
aS'I-NP'
p39
aS'I-NP'
p40
aS'I-NP'
p41
aS'E-NP'
p42
aS'S-VP'
p43
aS'B-NP'
p44
aS'E-NP'
p45
aS'S-PP'
p46
aS'S-NP'
p47
asS'dep_seq'
p48
(lp49
(lp50
S'nn'
p51
aS'8'
aS'1'
aa(lp52
S'nn'
p53
aS'8'
aS'2'
aa(lp54
S'nn'
p55
aS'8'
aS'3'
aa(lp56
S'nn'
p57
aS'8'
aS'4'
aa(lp58
S'nn'
p59
aS'8'
aS'5'
aa(lp60
S'nn'
p61
aS'8'
aS'6'
aa(lp62
S'nn'
p63
aS'8'
aS'7'
aa(lp64
S'root'
p65
aS'0'
aS'8'
aa(lp66
S'partmod'
p67
aS'8'
aS'9'
aa(lp68
S'det'
p69
aS'11'
p70
aS'10'
p71
aa(lp72
S'dobj'
p73
aS'9'
aS'11'
p74
aa(lp75
S'prep_of'
p76
aS'11'
p77
aS'13'
p78
aasS'srls'
p79
(lp80
(dp81
S'A1'
p82
S'a parcel of land'
p83
sS'A0'
p84
S'Place code land registry string Land Registry code'
p85
sS'V'
g29
sasS'pos_seq'
p86
(lp87
S'NN'
p88
aS'NN'
p89
aS'NN'
p90
aS'NN'
p91
aS'NN'
p92
aS'NNP'
p93
aS'NNP'
p94
aS'NN'
p95
aS'VBG'
p96
aS'DT'
p97
aS'NN'
p98
aS'IN'
p99
aS'NN'
p100
asS'ner_seq'
p101
(lp102
S'O'
aS'O'
aS'O'
aS'O'
aS'O'
aS'B-ORG'
p103
aS'E-ORG'
p104
aS'O'
aS'O'
aS'O'
aS'O'
aS'O'
aS'O'
assb.