ccopy_reg
_reconstructor
p1
(c__main__
KBproperty
p2
c__builtin__
object
p3
NtRp4
(dp5
S'comment'
p6
S''
sS'domain'
p7
S'Mean Of Transportation '
p8
sS'instances_count'
p9
S'8523'
p10
sS'label'
p11
S'related mean of transportation'
p12
sS'range'
p13
S'Mean Of Transportation '
p14
sS'prop_uri'
p15
S"'http://dbpedia.org/ontology/relatedMeanOfTransportation'"
p16
sS'annotations'
p17
(dp18
S'bag_of_words'
p19
(lp20
S'Mean'
p21
aS'Of'
p22
aS'Transportation'
p23
aS'related'
p24
aS'mean'
p25
aS'of'
p26
aS'transportation'
p27
aS'Mean'
p28
aS'Of'
p29
aS'Transportation'
p30
asS'chunk_seq'
p31
(lp32
S'S-NP'
p33
aS'S-PP'
p34
aS'S-NP'
p35
aS'B-NP'
p36
aS'E-NP'
p37
aS'S-PP'
p38
aS'S-NP'
p39
aS'S-NP'
p40
aS'S-PP'
p41
aS'S-NP'
p42
asS'dep_seq'
p43
(lp44
(lp45
S'root'
p46
aS'0'
aS'1'
aa(lp47
S'prep_of'
p48
aS'1'
aS'3'
aa(lp49
S'amod'
p50
aS'5'
aS'4'
aa(lp51
S'dep'
p52
aS'1'
aS'5'
aa(lp53
S'prep_of'
p54
aS'5'
aS'7'
aa(lp55
S'dep'
p56
aS'5'
aS'8'
aa(lp57
S'prep_of'
p58
aS'8'
aS'10'
p59
aasS'srls'
p60
(lp61
(dp62
S'A1'
p63
g23
sS'V'
g24
sasS'pos_seq'
p64
(lp65
S'NNP'
p66
aS'IN'
p67
aS'NNP'
p68
aS'JJ'
p69
aS'NN'
p70
aS'IN'
p71
aS'NN'
p72
aS'NNP'
p73
aS'IN'
p74
aS'NN'
p75
asS'ner_seq'
p76
(lp77
S'O'
aS'O'
aS'O'
aS'O'
aS'O'
aS'O'
aS'O'
aS'B-ORG'
p78
aS'I-ORG'
p79
aS'E-ORG'
p80
assb.