ccopy_reg
_reconstructor
p1
(c__main__
KBproperty
p2
c__builtin__
object
p3
NtRp4
(dp5
S'comment'
p6
S'JSTOR number short for Journal Storage is a United States-based online system number for archiving academic journals.'
p7
sS'domain'
p8
S'Academic Journal '
p9
sS'instances_count'
p10
S'451'
p11
sS'label'
p12
S'JSTOR'
p13
sS'range'
p14
S'string '
p15
sS'prop_uri'
p16
S"'http://dbpedia.org/ontology/jstor'"
p17
sS'annotations'
p18
(dp19
S'bag_of_words'
p20
(lp21
S'Academic'
p22
aS'Journal'
p23
aS'JSTOR'
p24
aS'string'
p25
aS'JSTOR'
p26
aS'number'
p27
aS'short'
p28
aS'for'
p29
aS'Journal'
p30
aS'Storage'
p31
aS'is'
p32
aS'a'
aS'United'
p33
aS'States-based'
p34
aS'online'
p35
aS'system'
p36
aS'number'
p37
aS'for'
p38
aS'archiving'
p39
aS'academic'
p40
aS'journals'
p41
aS'.'
asS'chunk_seq'
p42
(lp43
S'B-NP'
p44
aS'I-NP'
p45
aS'I-NP'
p46
aS'I-NP'
p47
aS'I-NP'
p48
aS'E-NP'
p49
aS'S-ADJP'
p50
aS'S-PP'
p51
aS'B-NP'
p52
aS'E-NP'
p53
aS'S-VP'
p54
aS'B-NP'
p55
aS'I-NP'
p56
aS'I-NP'
p57
aS'I-NP'
p58
aS'I-NP'
p59
aS'E-NP'
p60
aS'S-PP'
p61
aS'B-NP'
p62
aS'I-NP'
p63
aS'E-NP'
p64
aS'O'
asS'dep_seq'
p65
(lp66
(lp67
S'nn'
p68
aS'6'
aS'1'
aa(lp69
S'nn'
p70
aS'6'
aS'2'
aa(lp71
S'nn'
p72
aS'6'
aS'3'
aa(lp73
S'nn'
p74
aS'6'
aS'4'
aa(lp75
S'nn'
p76
aS'6'
aS'5'
aa(lp77
S'nsubj'
p78
aS'17'
p79
aS'6'
aa(lp80
S'amod'
p81
aS'6'
aS'7'
aa(lp82
S'nn'
p83
aS'10'
p84
aS'9'
aa(lp85
S'prep_for'
p86
aS'7'
aS'10'
p87
aa(lp88
S'cop'
p89
aS'17'
p90
aS'11'
p91
aa(lp92
S'det'
p93
aS'17'
p94
aS'12'
p95
aa(lp96
S'nn'
p97
aS'17'
p98
aS'13'
p99
aa(lp100
S'nn'
p101
aS'17'
p102
aS'based'
p103
aa(lp104
S'nn'
p105
aS'17'
p106
aS'15'
p107
aa(lp108
S'nn'
p109
aS'17'
p110
aS'16'
p111
aa(lp112
S'root'
p113
aS'0'
aS'17'
p114
aa(lp115
S'prepc_for'
p116
aS'17'
p117
aS'19'
p118
aa(lp119
S'amod'
p120
aS'21'
p121
aS'20'
p122
aa(lp123
S'dobj'
p124
aS'19'
p125
aS'21'
p126
aasS'srls'
p127
(lp128
sS'pos_seq'
p129
(lp130
S'NNP'
p131
aS'NNP'
p132
aS'NNP'
p133
aS'NN'
p134
aS'NNP'
p135
aS'NN'
p136
aS'JJ'
p137
aS'IN'
p138
aS'NNP'
p139
aS'NNP'
p140
aS'VBZ'
p141
aS'DT'
p142
aS'NNP'
p143
aS'NNP'
p144
aS'NN'
p145
aS'NN'
p146
aS'NN'
p147
aS'IN'
p148
aS'VBG'
p149
aS'JJ'
p150
aS'NNS'
p151
aS'.'
asS'ner_seq'
p152
(lp153
S'B-ORG'
p154
aS'I-ORG'
p155
aS'E-ORG'
p156
aS'O'
aS'O'
aS'O'
aS'O'
aS'O'
aS'B-ORG'
p157
aS'E-ORG'
p158
aS'O'
aS'O'
aS'B-ORG'
p159
aS'E-ORG'
p160
aS'O'
aS'O'
aS'O'
aS'O'
aS'O'
aS'O'
aS'O'
aS'O'
assb.