ccopy_reg
_reconstructor
p1
(c__main__
KBproperty
p2
c__builtin__
object
p3
NtRp4
(dp5
S'comment'
p6
S'International Movie Database ID. Applies to Films Actors etc'
p7
sS'domain'
p8
S''
sS'instances_count'
p9
S'70876'
p10
sS'label'
p11
S'IMDB id'
p12
sS'range'
p13
S'string '
p14
sS'prop_uri'
p15
S"'http://dbpedia.org/ontology/imdbId'"
p16
sS'annotations'
p17
(dp18
S'bag_of_words'
p19
(lp20
S'IMDB'
p21
aS'id'
p22
aS'string'
p23
aS'International'
p24
aS'Movie'
p25
aS'Database'
p26
aS'ID.'
p27
aS'Applies'
p28
aS'to'
p29
aS'Films'
p30
aS'Actors'
p31
aS'etc'
p32
asS'chunk_seq'
p33
(lp34
S'B-NP'
p35
aS'I-NP'
p36
aS'I-NP'
p37
aS'I-NP'
p38
aS'I-NP'
p39
aS'I-NP'
p40
aS'E-NP'
p41
aS'S-VP'
p42
aS'S-PP'
p43
aS'B-NP'
p44
aS'E-NP'
p45
aS'O'
asS'dep_seq'
p46
(lp47
(lp48
S'nn'
p49
aS'7'
aS'1'
aa(lp50
S'nn'
p51
aS'7'
aS'2'
aa(lp52
S'nn'
p53
aS'7'
aS'3'
aa(lp54
S'nn'
p55
aS'7'
aS'4'
aa(lp56
S'nn'
p57
aS'7'
aS'5'
aa(lp58
S'nn'
p59
aS'7'
aS'6'
aa(lp60
S'nsubj'
p61
aS'8'
aS'7'
aa(lp62
S'root'
p63
aS'0'
aS'8'
aa(lp64
S'nn'
p65
aS'11'
p66
aS'10'
p67
aa(lp68
S'prep_to'
p69
aS'8'
aS'11'
p70
aa(lp71
S'punct'
p72
aS'11'
p73
aS'12'
p74
aasS'srls'
p75
(lp76
(dp77
S'A1'
p78
S'IMDB id string International Movie Database ID.'
p79
sS'A2'
p80
S'to Films Actors etc'
p81
sS'V'
g28
sasS'pos_seq'
p82
(lp83
S'NNP'
p84
aS'NN'
p85
aS'NN'
p86
aS'NNP'
p87
aS'NNP'
p88
aS'NNP'
p89
aS'NNP'
p90
aS'VBZ'
p91
aS'TO'
p92
aS'NNPS'
p93
aS'NNPS'
p94
aS'.'
asS'ner_seq'
p95
(lp96
S'O'
aS'O'
aS'O'
aS'O'
aS'O'
aS'O'
aS'O'
aS'O'
aS'O'
aS'B-ORG'
p97
aS'E-ORG'
p98
aS'O'
assb.