ccopy_reg
_reconstructor
p1
(c__main__
KBproperty
p2
c__builtin__
object
p3
NtRp4
(dp5
S'comment'
p6
S'registered in a heritage register : inventory of cultural properties natural and man-made tangible and intangible movable and immovable that are deemed to be of sufficient heritage value to be separately identified and recorded.'
p7
sS'domain'
p8
S'Place '
p9
sS'instances_count'
p10
S'0'
sS'label'
p11
S'heritage register'
p12
sS'range'
p13
S''
sS'prop_uri'
p14
S"'http://dbpedia.org/ontology/heritageRegister'"
p15
sS'annotations'
p16
(dp17
S'bag_of_words'
p18
(lp19
S'Place'
p20
aS'heritage'
p21
aS'register'
p22
aS'registered'
p23
aS'in'
p24
aS'a'
aS'heritage'
p25
aS'register'
p26
aS':'
aS'inventory'
p27
aS'of'
p28
aS'cultural'
p29
aS'properties'
p30
aS'natural'
p31
aS'and'
p32
aS'man-made'
p33
aS'tangible'
p34
aS'and'
p35
aS'intangible'
p36
aS'movable'
p37
aS'and'
p38
aS'immovable'
p39
aS'that'
p40
aS'are'
p41
aS'deemed'
p42
aS'to'
p43
aS'be'
p44
aS'of'
p45
aS'sufficient'
p46
aS'heritage'
p47
aS'value'
p48
aS'to'
p49
aS'be'
p50
aS'separately'
p51
aS'identified'
p52
aS'and'
p53
aS'recorded'
p54
aS'.'
asS'chunk_seq'
p55
(lp56
S'B-NP'
p57
aS'E-NP'
p58
aS'B-VP'
p59
aS'E-VP'
p60
aS'S-PP'
p61
aS'B-NP'
p62
aS'I-NP'
p63
aS'E-NP'
p64
aS'O'
aS'S-NP'
p65
aS'S-PP'
p66
aS'B-NP'
p67
aS'I-NP'
p68
aS'I-NP'
p69
aS'I-NP'
p70
aS'I-NP'
p71
aS'I-NP'
p72
aS'I-NP'
p73
aS'I-NP'
p74
aS'I-NP'
p75
aS'I-NP'
p76
aS'E-NP'
p77
aS'S-NP'
p78
aS'B-VP'
p79
aS'I-VP'
p80
aS'I-VP'
p81
aS'E-VP'
p82
aS'S-PP'
p83
aS'B-NP'
p84
aS'I-NP'
p85
aS'E-NP'
p86
aS'B-VP'
p87
aS'I-VP'
p88
aS'I-VP'
p89
aS'I-VP'
p90
aS'I-VP'
p91
aS'E-VP'
p92
aS'O'
asS'dep_seq'
p93
(lp94
(lp95
S'nn'
p96
aS'2'
aS'1'
aa(lp97
S'nsubj'
p98
aS'3'
aS'2'
aa(lp99
S'root'
p100
aS'0'
aS'3'
aa(lp101
S'dep'
p102
aS'3'
aS'4'
aa(lp103
S'det'
p104
aS'8'
aS'6'
aa(lp105
S'nn'
p106
aS'8'
aS'7'
aa(lp107
S'prep_in'
p108
aS'4'
aS'8'
aa(lp109
S'dep'
p110
aS'8'
aS'10'
p111
aa(lp112
S'nsubjpass'
p113
aS'25'
p114
aS'10'
p115
aa(lp116
S'xsubj'
p117
aS'27'
p118
aS'10'
p119
aa(lp120
S'amod'
p121
aS'13'
p122
aS'12'
p123
aa(lp124
S'prep_of'
p125
aS'10'
p126
aS'13'
p127
aa(lp128
S'amod'
p129
aS'13'
p130
aS'14'
p131
aa(lp132
S'conj_and'
p133
aS'14'
p134
aS'made'
p135
aa(lp136
S'amod'
p137
aS'13'
p138
aS'17'
p139
aa(lp140
S'conj_and'
p141
aS'17'
p142
aS'19'
p143
aa(lp144
S'amod'
p145
aS'13'
p146
aS'20'
p147
aa(lp148
S'conj_and'
p149
aS'20'
p150
aS'22'
p151
aa(lp152
S'auxpass'
p153
aS'25'
p154
aS'24'
p155
aa(lp156
S'rcmod'
p157
aS'10'
p158
aS'25'
p159
aa(lp160
S'aux'
p161
aS'27'
p162
aS'26'
p163
aa(lp164
S'xcomp'
p165
aS'25'
p166
aS'27'
p167
aa(lp168
S'amod'
p169
aS'31'
p170
aS'29'
p171
aa(lp172
S'nn'
p173
aS'31'
p174
aS'30'
p175
aa(lp176
S'prep_of'
p177
aS'27'
p178
aS'31'
p179
aa(lp180
S'aux'
p181
aS'35'
p182
aS'32'
p183
aa(lp184
S'auxpass'
p185
aS'35'
p186
aS'33'
p187
aa(lp188
S'advmod'
p189
aS'35'
p190
aS'34'
p191
aa(lp192
S'infmod'
p193
aS'31'
p194
aS'35'
p195
aa(lp196
S'conj_and'
p197
aS'35'
p198
aS'37'
p199
aasS'srls'
p200
(lp201
(dp202
S'A1'
p203
S'Place heritage  registered in a heritage register  inventory of cultural properties natural and man-made tangible and intangible movable and immovable that are deemed to be of sufficient heritage value to be separately identified and recorded'
p204
sS'V'
g22
sa(dp205
S'A1'
p206
S'Place heritage  inventory of cultural properties natural and man-made tangible and intangible movable and immovable'
p207
sS'AM-LOC'
p208
S'in a heritage register'
p209
sS'V'
g23
sa(dp210
S'A2'
p211
S'to be of sufficient heritage value'
p212
sS'R-A1'
p213
g40
sS'V'
g42
sa(dp214
S'A1'
p215
S'inventory of cultural properties natural and man-made tangible and intangible movable and immovable  sufficient heritage value'
p216
sS'R-A1'
p217
g40
sS'AM-MNR'
p218
g51
sS'V'
g52
sa(dp219
S'AM-MNR'
p220
g51
sS'V'
g54
sasS'pos_seq'
p221
(lp222
S'NN'
p223
aS'NN'
p224
aS'VBP'
p225
aS'VBN'
p226
aS'IN'
p227
aS'DT'
p228
aS'NN'
p229
aS'NN'
p230
aS':'
aS'NN'
p231
aS'IN'
p232
aS'JJ'
p233
aS'NNS'
p234
aS'JJ'
p235
aS'CC'
p236
aS'JJ'
p237
aS'JJ'
p238
aS'CC'
p239
aS'JJ'
p240
aS'JJ'
p241
aS'CC'
p242
aS'JJ'
p243
aS'WDT'
p244
aS'VBP'
p245
aS'VBN'
p246
aS'TO'
p247
aS'VB'
p248
aS'IN'
p249
aS'JJ'
p250
aS'NN'
p251
aS'NN'
p252
aS'TO'
p253
aS'VB'
p254
aS'RB'
p255
aS'VBN'
p256
aS'CC'
p257
aS'VBN'
p258
aS'.'
asS'ner_seq'
p259
(lp260
S'O'
aS'O'
aS'O'
aS'O'
aS'O'
aS'O'
aS'O'
aS'O'
aS'O'
aS'O'
aS'O'
aS'O'
aS'O'
aS'O'
aS'O'
aS'O'
aS'O'
aS'O'
aS'O'
aS'O'
aS'O'
aS'O'
aS'O'
aS'O'
aS'O'
aS'O'
aS'O'
aS'O'
aS'O'
aS'O'
aS'O'
aS'O'
aS'O'
aS'O'
aS'O'
aS'O'
aS'O'
aS'O'
assb.