ccopy_reg
_reconstructor
p1
(c__main__
KBproperty
p2
c__builtin__
object
p3
NtRp4
(dp5
S'comment'
p6
S'indicate a place is a stop on a road.'
p7
sS'domain'
p8
S'Place '
p9
sS'instances_count'
p10
S'0'
sS'label'
p11
S'is route stop'
p12
sS'range'
p13
S'Route Stop '
p14
sS'prop_uri'
p15
S"'http://dbpedia.org/ontology/isRouteStop'"
p16
sS'annotations'
p17
(dp18
S'bag_of_words'
p19
(lp20
S'Place'
p21
aS'is'
p22
aS'route'
p23
aS'stop'
p24
aS'Route'
p25
aS'Stop'
p26
aS'indicate'
p27
aS'a'
aS'place'
p28
aS'is'
p29
aS'a'
aS'stop'
p30
aS'on'
p31
aS'a'
aS'road'
p32
aS'.'
asS'chunk_seq'
p33
(lp34
S'S-NP'
p35
aS'S-VP'
p36
aS'B-NP'
p37
aS'I-NP'
p38
aS'I-NP'
p39
aS'E-NP'
p40
aS'S-VP'
p41
aS'B-NP'
p42
aS'E-NP'
p43
aS'S-VP'
p44
aS'B-NP'
p45
aS'E-NP'
p46
aS'S-PP'
p47
aS'B-NP'
p48
aS'E-NP'
p49
aS'O'
asS'dep_seq'
p50
(lp51
(lp52
S'nsubj'
p53
aS'2'
aS'1'
aa(lp54
S'root'
p55
aS'0'
aS'2'
aa(lp56
S'nn'
p57
aS'6'
aS'3'
aa(lp58
S'nn'
p59
aS'6'
aS'4'
aa(lp60
S'nn'
p61
aS'6'
aS'5'
aa(lp62
S'nsubj'
p63
aS'7'
aS'6'
aa(lp64
S'ccomp'
p65
aS'2'
aS'7'
aa(lp66
S'det'
p67
aS'9'
aS'8'
aa(lp68
S'nsubj'
p69
aS'12'
p70
aS'9'
aa(lp71
S'cop'
p72
aS'12'
p73
aS'10'
p74
aa(lp75
S'det'
p76
aS'12'
p77
aS'11'
p78
aa(lp79
S'ccomp'
p80
aS'7'
aS'12'
p81
aa(lp82
S'det'
p83
aS'15'
p84
aS'14'
p85
aa(lp86
S'prep_on'
p87
aS'12'
p88
aS'15'
p89
aasS'srls'
p90
(lp91
(dp92
S'A1'
p93
S'a place is a stop on a road'
p94
sS'A0'
p95
S'Route Stop'
p96
sS'V'
g27
sasS'pos_seq'
p97
(lp98
S'NN'
p99
aS'VBZ'
p100
aS'NN'
p101
aS'NN'
p102
aS'NNP'
p103
aS'NNP'
p104
aS'VBP'
p105
aS'DT'
p106
aS'NN'
p107
aS'VBZ'
p108
aS'DT'
p109
aS'NN'
p110
aS'IN'
p111
aS'DT'
p112
aS'NN'
p113
aS'.'
asS'ner_seq'
p114
(lp115
S'O'
aS'O'
aS'O'
aS'O'
aS'O'
aS'O'
aS'O'
aS'O'
aS'O'
aS'O'
aS'O'
aS'O'
aS'O'
aS'O'
aS'O'
aS'O'
assb.