ccopy_reg
_reconstructor
p1
(c__main__
KBproperty
p2
c__builtin__
object
p3
NtRp4
(dp5
S'comment'
p6
S'the person they are married to'
p7
sS'domain'
p8
S'Person '
p9
sS'instances_count'
p10
S'35445'
p11
sS'label'
p12
S'spouse'
p13
sS'range'
p14
S'Person '
p15
sS'prop_uri'
p16
S"'http://dbpedia.org/ontology/spouse'"
p17
sS'annotations'
p18
(dp19
S'bag_of_words'
p20
(lp21
S'Person'
p22
aS'spouse'
p23
aS'Person'
p24
aS'the'
p25
aS'person'
p26
aS'they'
p27
aS'are'
p28
aS'married'
p29
aS'to'
p30
asS'chunk_seq'
p31
(lp32
S'B-NP'
p33
aS'I-NP'
p34
aS'E-NP'
p35
aS'B-NP'
p36
aS'E-NP'
p37
aS'S-NP'
p38
aS'B-VP'
p39
aS'E-VP'
p40
aS'S-PP'
p41
asS'dep_seq'
p42
(lp43
(lp44
S'nn'
p45
aS'3'
aS'1'
aa(lp46
S'nn'
p47
aS'3'
aS'2'
aa(lp48
S'dep'
p49
aS'5'
aS'3'
aa(lp50
S'det'
p51
aS'5'
aS'4'
aa(lp52
S'root'
p53
aS'0'
aS'5'
aa(lp54
S'prep_to'
p55
aS'8'
aS'5'
aa(lp56
S'nsubjpass'
p57
aS'8'
aS'6'
aa(lp58
S'auxpass'
p59
aS'8'
aS'7'
aa(lp60
S'rcmod'
p61
aS'5'
aS'8'
aasS'srls'
p62
(lp63
sS'pos_seq'
p64
(lp65
S'NN'
p66
aS'NN'
p67
aS'NN'
p68
aS'DT'
p69
aS'NN'
p70
aS'PRP'
p71
aS'VBP'
p72
aS'VBN'
p73
aS'TO'
p74
asS'ner_seq'
p75
(lp76
S'O'
aS'O'
aS'O'
aS'O'
aS'O'
aS'O'
aS'O'
aS'O'
aS'O'
assb.