ccopy_reg
_reconstructor
p1
(c__main__
KBproperty
p2
c__builtin__
object
p3
NtRp4
(dp5
S'comment'
p6
S'the Alps SOIUSA code corresponding to the mountain according to the SOIUSA classification'
p7
sS'domain'
p8
S'Mountain '
p9
sS'instances_count'
p10
S'0'
sS'label'
p11
S'Alps SOIUSA code'
p12
sS'range'
p13
S'string '
p14
sS'prop_uri'
p15
S"'http://dbpedia.org/ontology/alpsSoiusaCode'"
p16
sS'annotations'
p17
(dp18
S'bag_of_words'
p19
(lp20
S'Mountain'
p21
aS'Alps'
p22
aS'SOIUSA'
p23
aS'code'
p24
aS'string'
p25
aS'the'
p26
aS'Alps'
p27
aS'SOIUSA'
p28
aS'code'
p29
aS'corresponding'
p30
aS'to'
p31
aS'the'
p32
aS'mountain'
p33
aS'according'
p34
aS'to'
p35
aS'the'
p36
aS'SOIUSA'
p37
aS'classification'
p38
asS'chunk_seq'
p39
(lp40
S'B-NP'
p41
aS'I-NP'
p42
aS'I-NP'
p43
aS'I-NP'
p44
aS'E-NP'
p45
aS'B-NP'
p46
aS'I-NP'
p47
aS'I-NP'
p48
aS'E-NP'
p49
aS'S-VP'
p50
aS'S-PP'
p51
aS'B-NP'
p52
aS'E-NP'
p53
aS'S-PP'
p54
aS'S-PP'
p55
aS'B-NP'
p56
aS'I-NP'
p57
aS'E-NP'
p58
asS'dep_seq'
p59
(lp60
(lp61
S'nn'
p62
aS'5'
aS'1'
aa(lp63
S'nn'
p64
aS'5'
aS'2'
aa(lp65
S'nn'
p66
aS'5'
aS'3'
aa(lp67
S'nn'
p68
aS'5'
aS'4'
aa(lp69
S'dep'
p70
aS'9'
aS'5'
aa(lp71
S'det'
p72
aS'9'
aS'6'
aa(lp73
S'nn'
p74
aS'9'
aS'7'
aa(lp75
S'nn'
p76
aS'9'
aS'8'
aa(lp77
S'root'
p78
aS'0'
aS'9'
aa(lp79
S'partmod'
p80
aS'9'
aS'10'
p81
aa(lp82
S'det'
p83
aS'13'
p84
aS'12'
p85
aa(lp86
S'prep_to'
p87
aS'10'
p88
aS'13'
p89
aa(lp90
S'prepc_according_to'
p91
aS'9'
aS'15'
p92
aa(lp93
S'det'
p94
aS'18'
p95
aS'16'
p96
aa(lp97
S'nn'
p98
aS'18'
p99
aS'17'
p100
aa(lp101
S'pobj'
p102
aS'9'
aS'18'
p103
aasS'srls'
p104
(lp105
sS'pos_seq'
p106
(lp107
S'NNP'
p108
aS'NNP'
p109
aS'NNP'
p110
aS'NN'
p111
aS'NN'
p112
aS'DT'
p113
aS'NNPS'
p114
aS'NNP'
p115
aS'NN'
p116
aS'VBG'
p117
aS'TO'
p118
aS'DT'
p119
aS'NN'
p120
aS'VBG'
p121
aS'TO'
p122
aS'DT'
p123
aS'NNP'
p124
aS'NN'
p125
asS'ner_seq'
p126
(lp127
S'B-ORG'
p128
aS'I-ORG'
p129
aS'E-ORG'
p130
aS'O'
aS'O'
aS'O'
aS'B-LOC'
p131
aS'E-LOC'
p132
aS'O'
aS'O'
aS'O'
aS'O'
aS'O'
aS'O'
aS'O'
aS'O'
aS'S-ORG'
p133
aS'O'
assb.