ccopy_reg
_reconstructor
p1
(c__main__
KBproperty
p2
c__builtin__
object
p3
NtRp4
(dp5
S'comment'
p6
S'Number of passengers per year.'
p7
sS'domain'
p8
S'Infrastructure '
p9
sS'instances_count'
p10
S'9981'
p11
sS'label'
p12
S'passengers per year'
p13
sS'range'
p14
S'non Negative Integer '
p15
sS'prop_uri'
p16
S"'http://dbpedia.org/ontology/passengersPerYear'"
p17
sS'annotations'
p18
(dp19
S'bag_of_words'
p20
(lp21
S'Infrastructure'
p22
aS'passengers'
p23
aS'per'
p24
aS'year'
p25
aS'non'
p26
aS'Negative'
p27
aS'Integer'
p28
aS'Number'
p29
aS'of'
p30
aS'passengers'
p31
aS'per'
p32
aS'year.'
p33
asS'chunk_seq'
p34
(lp35
S'B-NP'
p36
aS'E-NP'
p37
aS'S-PP'
p38
aS'B-NP'
p39
aS'I-NP'
p40
aS'I-NP'
p41
aS'I-NP'
p42
aS'E-NP'
p43
aS'S-PP'
p44
aS'S-NP'
p45
aS'B-NP'
p46
aS'E-NP'
p47
asS'dep_seq'
p48
(lp49
(lp50
S'nn'
p51
aS'2'
aS'1'
aa(lp52
S'dep'
p53
aS'8'
aS'2'
aa(lp54
S'prep_per'
p55
aS'2'
aS'4'
aa(lp56
S'amod'
p57
aS'8'
aS'5'
aa(lp58
S'nn'
p59
aS'8'
aS'6'
aa(lp60
S'nn'
p61
aS'8'
aS'7'
aa(lp62
S'root'
p63
aS'0'
aS'8'
aa(lp64
S'prep_of'
p65
aS'8'
aS'10'
p66
aa(lp67
S'prep_per'
p68
aS'10'
p69
aS'12'
p70
aasS'srls'
p71
(lp72
sS'pos_seq'
p73
(lp74
S'NN'
p75
aS'NNS'
p76
aS'IN'
p77
aS'NN'
p78
aS'JJ'
p79
aS'NNP'
p80
aS'NNP'
p81
aS'NNP'
p82
aS'IN'
p83
aS'NNS'
p84
aS'IN'
p85
aS'NN'
p86
asS'ner_seq'
p87
(lp88
S'O'
aS'O'
aS'O'
aS'O'
aS'O'
aS'O'
aS'O'
aS'O'
aS'O'
aS'O'
aS'O'
aS'O'
assb.