ccopy_reg
_reconstructor
p1
(c__main__
KBproperty
p2
c__builtin__
object
p3
NtRp4
(dp5
S'comment'
p6
S'The subject as a term possibly a term from a formal classification'
p7
sS'domain'
p8
S'Work '
p9
sS'instances_count'
p10
S'0'
sS'label'
p11
S'subject term'
p12
sS'range'
p13
S'string '
p14
sS'prop_uri'
p15
S"'http://dbpedia.org/ontology/subjectTerm'"
p16
sS'annotations'
p17
(dp18
S'bag_of_words'
p19
(lp20
S'Work'
p21
aS'subject'
p22
aS'term'
p23
aS'string'
p24
aS'The'
p25
aS'subject'
p26
aS'as'
p27
aS'a'
aS'term'
p28
aS'possibly'
p29
aS'a'
aS'term'
p30
aS'from'
p31
aS'a'
aS'formal'
p32
aS'classification'
p33
asS'chunk_seq'
p34
(lp35
S'S-NP'
p36
aS'S-ADJP'
p37
aS'B-NP'
p38
aS'E-NP'
p39
aS'B-NP'
p40
aS'E-NP'
p41
aS'S-PP'
p42
aS'B-NP'
p43
aS'E-NP'
p44
aS'S-ADVP'
p45
aS'B-NP'
p46
aS'E-NP'
p47
aS'S-PP'
p48
aS'B-NP'
p49
aS'I-NP'
p50
aS'E-NP'
p51
asS'dep_seq'
p52
(lp53
(lp54
S'nn'
p55
aS'4'
aS'1'
aa(lp56
S'amod'
p57
aS'4'
aS'2'
aa(lp58
S'nn'
p59
aS'4'
aS'3'
aa(lp60
S'root'
p61
aS'0'
aS'4'
aa(lp62
S'det'
p63
aS'6'
aS'5'
aa(lp64
S'dep'
p65
aS'4'
aS'6'
aa(lp66
S'det'
p67
aS'9'
aS'8'
aa(lp68
S'prep_as'
p69
aS'4'
aS'9'
aa(lp70
S'advmod'
p71
aS'9'
aS'10'
p72
aa(lp73
S'det'
p74
aS'12'
p75
aS'11'
p76
aa(lp77
S'dep'
p78
aS'9'
aS'12'
p79
aa(lp80
S'det'
p81
aS'16'
p82
aS'14'
p83
aa(lp84
S'amod'
p85
aS'16'
p86
aS'15'
p87
aa(lp88
S'prep_from'
p89
aS'9'
aS'16'
p90
aasS'srls'
p91
(lp92
sS'pos_seq'
p93
(lp94
S'NN'
p95
aS'JJ'
p96
aS'NN'
p97
aS'NN'
p98
aS'DT'
p99
aS'NN'
p100
aS'IN'
p101
aS'DT'
p102
aS'NN'
p103
aS'RB'
p104
aS'DT'
p105
aS'NN'
p106
aS'IN'
p107
aS'DT'
p108
aS'JJ'
p109
aS'NN'
p110
asS'ner_seq'
p111
(lp112
S'O'
aS'O'
aS'O'
aS'O'
aS'O'
aS'O'
aS'O'
aS'O'
aS'O'
aS'O'
aS'O'
aS'O'
aS'O'
aS'O'
aS'O'
aS'O'
assb.