ccopy_reg
_reconstructor
p1
(c__main__
KBproperty
p2
c__builtin__
object
p3
NtRp4
(dp5
S'comment'
p6
S''
sS'domain'
p7
S''
sS'instances_count'
p8
S'0'
sS'label'
p9
S'agglomeration population total'
p10
sS'range'
p11
S'non Negative Integer '
p12
sS'prop_uri'
p13
S"'http://dbpedia.org/ontology/agglomerationPopulationTotal'"
p14
sS'annotations'
p15
(dp16
S'bag_of_words'
p17
(lp18
S'agglomeration'
p19
aS'population'
p20
aS'total'
p21
aS'non'
p22
aS'Negative'
p23
aS'Integer'
p24
asS'chunk_seq'
p25
(lp26
S'B-NP'
p27
aS'I-NP'
p28
aS'I-NP'
p29
aS'I-NP'
p30
aS'I-NP'
p31
aS'E-NP'
p32
asS'dep_seq'
p33
(lp34
(lp35
S'nn'
p36
aS'2'
aS'1'
aa(lp37
S'root'
p38
aS'0'
aS'2'
aa(lp39
S'amod'
p40
aS'6'
aS'3'
aa(lp41
S'amod'
p42
aS'6'
aS'4'
aa(lp43
S'amod'
p44
aS'6'
aS'5'
aa(lp45
S'dep'
p46
aS'2'
aS'6'
aasS'srls'
p47
(lp48
sS'pos_seq'
p49
(lp50
S'NN'
p51
aS'NN'
p52
aS'JJ'
p53
aS'JJ'
p54
aS'JJ'
p55
aS'NN'
p56
asS'ner_seq'
p57
(lp58
S'O'
aS'O'
aS'O'
aS'O'
aS'O'
aS'O'
assb.