ccopy_reg
_reconstructor
p1
(c__main__
KBproperty
p2
c__builtin__
object
p3
NtRp4
(dp5
S'comment'
p6
S'The number of the route.'
p7
sS'domain'
p8
S'Route Of Transportation '
p9
sS'instances_count'
p10
S'17560'
p11
sS'label'
p12
S'route number'
p13
sS'range'
p14
S'string '
p15
sS'prop_uri'
p16
S"'http://dbpedia.org/ontology/routeNumber'"
p17
sS'annotations'
p18
(dp19
S'bag_of_words'
p20
(lp21
S'Route'
p22
aS'Of'
p23
aS'Transportation'
p24
aS'route'
p25
aS'number'
p26
aS'string'
p27
aS'The'
p28
aS'number'
p29
aS'of'
p30
aS'the'
p31
aS'route'
p32
aS'.'
asS'chunk_seq'
p33
(lp34
S'S-NP'
p35
aS'S-PP'
p36
aS'B-NP'
p37
aS'I-NP'
p38
aS'I-NP'
p39
aS'E-NP'
p40
aS'B-NP'
p41
aS'E-NP'
p42
aS'S-PP'
p43
aS'B-NP'
p44
aS'E-NP'
p45
aS'O'
asS'dep_seq'
p46
(lp47
(lp48
S'dep'
p49
aS'8'
aS'1'
aa(lp50
S'prep_of'
p51
aS'1'
aS'3'
aa(lp52
S'nn'
p53
aS'6'
aS'4'
aa(lp54
S'nn'
p55
aS'6'
aS'5'
aa(lp56
S'dep'
p57
aS'8'
aS'6'
aa(lp58
S'det'
p59
aS'8'
aS'7'
aa(lp60
S'root'
p61
aS'0'
aS'8'
aa(lp62
S'det'
p63
aS'11'
p64
aS'10'
p65
aa(lp66
S'prep_of'
p67
aS'8'
aS'11'
p68
aasS'srls'
p69
(lp70
sS'pos_seq'
p71
(lp72
S'NNP'
p73
aS'IN'
p74
aS'NNP'
p75
aS'NN'
p76
aS'NN'
p77
aS'NN'
p78
aS'DT'
p79
aS'NN'
p80
aS'IN'
p81
aS'DT'
p82
aS'NN'
p83
aS'.'
asS'ner_seq'
p84
(lp85
S'B-ORG'
p86
aS'I-ORG'
p87
aS'E-ORG'
p88
aS'O'
aS'O'
aS'O'
aS'O'
aS'O'
aS'O'
aS'O'
aS'O'
aS'O'
assb.