ccopy_reg
_reconstructor
p1
(c__main__
KBproperty
p2
c__builtin__
object
p3
NtRp4
(dp5
S'comment'
p6
S'Smartcard for fare payment system for public transit systems that are or will be available at the station.'
p7
sS'domain'
p8
S'Station '
p9
sS'instances_count'
p10
S'831'
p11
sS'label'
p12
S'available smart card'
p13
sS'range'
p14
S''
sS'prop_uri'
p15
S"'http://dbpedia.org/ontology/availableSmartCard'"
p16
sS'annotations'
p17
(dp18
S'bag_of_words'
p19
(lp20
S'Station'
p21
aS'available'
p22
aS'smart'
p23
aS'card'
p24
aS'Smartcard'
p25
aS'for'
p26
aS'fare'
p27
aS'payment'
p28
aS'system'
p29
aS'for'
p30
aS'public'
p31
aS'transit'
p32
aS'systems'
p33
aS'that'
p34
aS'are'
p35
aS'or'
p36
aS'will'
p37
aS'be'
p38
aS'available'
p39
aS'at'
p40
aS'the'
p41
aS'station'
p42
aS'.'
asS'chunk_seq'
p43
(lp44
S'B-NP'
p45
aS'I-NP'
p46
aS'I-NP'
p47
aS'I-NP'
p48
aS'E-NP'
p49
aS'S-PP'
p50
aS'B-NP'
p51
aS'I-NP'
p52
aS'E-NP'
p53
aS'S-PP'
p54
aS'B-NP'
p55
aS'I-NP'
p56
aS'E-NP'
p57
aS'S-NP'
p58
aS'S-VP'
p59
aS'O'
aS'B-VP'
p60
aS'E-VP'
p61
aS'S-ADJP'
p62
aS'S-PP'
p63
aS'B-NP'
p64
aS'E-NP'
p65
aS'O'
asS'dep_seq'
p66
(lp67
(lp68
S'nn'
p69
aS'5'
aS'1'
aa(lp70
S'amod'
p71
aS'5'
aS'2'
aa(lp72
S'amod'
p73
aS'5'
aS'3'
aa(lp74
S'nn'
p75
aS'5'
aS'4'
aa(lp76
S'nsubj'
p77
aS'19'
p78
aS'5'
aa(lp79
S'nn'
p80
aS'9'
aS'7'
aa(lp81
S'nn'
p82
aS'9'
aS'8'
aa(lp83
S'prep_for'
p84
aS'5'
aS'9'
aa(lp85
S'amod'
p86
aS'13'
p87
aS'11'
p88
aa(lp89
S'nn'
p90
aS'13'
p91
aS'12'
p92
aa(lp93
S'prep_for'
p94
aS'9'
aS'13'
p95
aa(lp96
S'nsubj'
p97
aS'15'
p98
aS'13'
p99
aa(lp100
S'rcmod'
p101
aS'13'
p102
aS'15'
p103
aa(lp104
S'cc'
p105
aS'5'
aS'16'
p106
aa(lp107
S'aux'
p108
aS'19'
p109
aS'17'
p110
aa(lp111
S'cop'
p112
aS'19'
p113
aS'18'
p114
aa(lp115
S'root'
p116
aS'0'
aS'19'
p117
aa(lp118
S'det'
p119
aS'22'
p120
aS'21'
p121
aa(lp122
S'prep_at'
p123
aS'19'
p124
aS'22'
p125
aasS'srls'
p126
(lp127
sS'pos_seq'
p128
(lp129
S'NN'
p130
aS'JJ'
p131
aS'JJ'
p132
aS'NN'
p133
aS'NNP'
p134
aS'IN'
p135
aS'NN'
p136
aS'NN'
p137
aS'NN'
p138
aS'IN'
p139
aS'JJ'
p140
aS'NN'
p141
aS'NNS'
p142
aS'WDT'
p143
aS'VBP'
p144
aS'CC'
p145
aS'MD'
p146
aS'VB'
p147
aS'JJ'
p148
aS'IN'
p149
aS'DT'
p150
aS'NN'
p151
aS'.'
asS'ner_seq'
p152
(lp153
S'O'
aS'O'
aS'O'
aS'O'
aS'O'
aS'O'
aS'O'
aS'O'
aS'O'
aS'O'
aS'O'
aS'O'
aS'O'
aS'O'
aS'O'
aS'O'
aS'O'
aS'O'
aS'O'
aS'O'
aS'O'
aS'O'
aS'O'
assb.