ccopy_reg
_reconstructor
p1
(c__main__
KBproperty
p2
c__builtin__
object
p3
NtRp4
(dp5
S'comment'
p6
S'so named since'
p7
sS'domain'
p8
S''
sS'instances_count'
p9
S'0'
sS'label'
p10
g7
sS'range'
p11
S'g Year '
p12
sS'prop_uri'
p13
S"'http://dbpedia.org/ontology/nameAsOf'"
p14
sS'annotations'
p15
(dp16
S'bag_of_words'
p17
(lp18
S'name'
p19
aS'As'
p20
aS'Of'
p21
aS'g'
aS'Year'
p22
aS'so'
p23
aS'named'
p24
aS'since'
p25
asS'chunk_seq'
p26
(lp27
S'S-NP'
p28
aS'S-PP'
p29
aS'S-PP'
p30
aS'B-NP'
p31
aS'E-NP'
p32
aS'B-ADJP'
p33
aS'E-ADJP'
p34
aS'S-SBAR'
p35
asS'dep_seq'
p36
(lp37
(lp38
S'root'
p39
aS'0'
aS'1'
aa(lp40
S'prepc_as_of'
p41
aS'1'
aS'3'
aa(lp42
S'nn'
p43
aS'5'
aS'4'
aa(lp44
S'pobj'
p45
aS'1'
aS'5'
aa(lp46
S'advmod'
p47
aS'7'
aS'6'
aa(lp48
S'partmod'
p49
aS'5'
aS'7'
aa(lp50
S'prep'
p51
aS'1'
aS'8'
aasS'srls'
p52
(lp53
(dp54
S'A1'
p55
S'name As Of g Year'
p56
sS'V'
g24
sasS'pos_seq'
p57
(lp58
S'NN'
p59
aS'IN'
p60
aS'IN'
p61
aS'NN'
p62
aS'NN'
p63
aS'RB'
p64
aS'VBN'
p65
aS'IN'
p66
asS'ner_seq'
p67
(lp68
S'O'
aS'O'
aS'O'
aS'O'
aS'O'
aS'O'
aS'O'
aS'O'
assb.