ccopy_reg
_reconstructor
p1
(c__main__
KBproperty
p2
c__builtin__
object
p3
NtRp4
(dp5
S'comment'
p6
S'Location of the thing as string. Use "location" if the location is a resource'
p7
sS'domain'
p8
S''
sS'instances_count'
p9
S'0'
sS'label'
p10
S'locationName'
p11
sS'range'
p12
S'string '
p13
sS'prop_uri'
p14
S"'http://dbpedia.org/ontology/locationName'"
p15
sS'annotations'
p16
(dp17
S'bag_of_words'
p18
(lp19
S'locationName'
p20
aS'string'
p21
aS'Location'
p22
aS'of'
p23
aS'the'
p24
aS'thing'
p25
aS'as'
p26
aS'string'
p27
aS'.'
aS'Use'
p28
aS'"'
aS'location'
p29
aS'"'
aS'if'
p30
aS'the'
p31
aS'location'
p32
aS'is'
p33
aS'a'
aS'resource'
p34
asS'chunk_seq'
p35
(lp36
S'B-NP'
p37
aS'I-NP'
p38
aS'E-NP'
p39
aS'S-PP'
p40
aS'B-NP'
p41
aS'E-NP'
p42
aS'S-PP'
p43
aS'S-NP'
p44
aS'O'
aS'S-VP'
p45
aS'B-NP'
p46
aS'E-NP'
p47
aS'B-SBAR'
p48
aS'E-SBAR'
p49
aS'B-NP'
p50
aS'E-NP'
p51
aS'S-VP'
p52
aS'B-NP'
p53
aS'E-NP'
p54
asS'dep_seq'
p55
(lp56
(lp57
S'amod'
p58
aS'3'
aS'1'
aa(lp59
S'nn'
p60
aS'3'
aS'2'
aa(lp61
S'root'
p62
aS'0'
aS'3'
aa(lp63
S'det'
p64
aS'6'
aS'5'
aa(lp65
S'prep_of'
p66
aS'3'
aS'6'
aa(lp67
S'nn'
p68
aS'12'
p69
aS'8'
aa(lp70
S'dep'
p71
aS'12'
p72
aS'10'
p73
aa(lp74
S'amod'
p75
aS'12'
p76
aS'11'
p77
aa(lp78
S'prep_as'
p79
aS'6'
aS'12'
p80
aa(lp81
S'mark'
p82
aS'19'
p83
aS'14'
p84
aa(lp85
S'det'
p86
aS'16'
p87
aS'15'
p88
aa(lp89
S'nsubj'
p90
aS'19'
p91
aS'16'
p92
aa(lp93
S'cop'
p94
aS'19'
p95
aS'17'
p96
aa(lp97
S'det'
p98
aS'19'
p99
aS'18'
p100
aa(lp101
S'prepc_"'
p102
aS'3'
aS'19'
p103
aasS'srls'
p104
(lp105
(dp106
S'A1'
p107
S'" location'
p108
sS'A2'
p109
S'" if the location is a resource'
p110
sS'V'
g28
sasS'pos_seq'
p111
(lp112
S'JJ'
p113
aS'NN'
p114
aS'NN'
p115
aS'IN'
p116
aS'DT'
p117
aS'NN'
p118
aS'IN'
p119
aS'NN'
p120
aS'.'
aS'VB'
p121
aS'JJ'
p122
aS'NN'
p123
aS'IN'
p124
aS'IN'
p125
aS'DT'
p126
aS'NN'
p127
aS'VBZ'
p128
aS'DT'
p129
aS'NN'
p130
asS'ner_seq'
p131
(lp132
S'O'
aS'O'
aS'O'
aS'O'
aS'O'
aS'O'
aS'O'
aS'O'
aS'O'
aS'O'
aS'O'
aS'O'
aS'O'
aS'O'
aS'O'
aS'O'
aS'O'
aS'O'
aS'O'
assb.