ccopy_reg
_reconstructor
p1
(c__main__
KBproperty
p2
c__builtin__
object
p3
NtRp4
(dp5
S'comment'
p6
S''
sS'domain'
p7
S''
sS'instances_count'
p8
S'29'
p9
sS'label'
p10
S'population density urban sq mi'
p11
sS'range'
p12
S''
sS'prop_uri'
p13
S"'http://dbpedia.org/property/populationDensityUrbanSqMi'"
p14
sS'annotations'
p15
(dp16
S'bag_of_words'
p17
(lp18
S'population'
p19
aS'density'
p20
aS'urban'
p21
aS'sq'
p22
aS'mi'
p23
asS'chunk_seq'
p24
(lp25
S'B-NP'
p26
aS'I-NP'
p27
aS'I-NP'
p28
aS'E-NP'
p29
aS'O'
asS'dep_seq'
p30
(lp31
(lp32
S'nn'
p33
aS'2'
aS'1'
aa(lp34
S'root'
p35
aS'0'
aS'2'
aa(lp36
S'amod'
p37
aS'2'
aS'3'
aa(lp38
S'num'
p39
aS'2'
aS'4'
aa(lp40
S'punct'
p41
aS'2'
aS'5'
aasS'srls'
p42
(lp43
sS'pos_seq'
p44
(lp45
S'NN'
p46
aS'NN'
p47
aS'JJ'
p48
aS'CD'
p49
aS'.'
asS'ner_seq'
p50
(lp51
S'O'
aS'O'
aS'O'
aS'O'
aS'O'
assb.