ccopy_reg
_reconstructor
p1
(c__main__
KBproperty
p2
c__builtin__
object
p3
NtRp4
(dp5
S'comment'
p6
S'FDA Unique Ingredient Identifier UNII code for a DBpedia Drug'
p7
sS'domain'
p8
S''
sS'instances_count'
p9
S'3535'
p10
sS'label'
p11
S'FDA UNII code'
p12
sS'range'
p13
S'string '
p14
sS'prop_uri'
p15
S"'http://dbpedia.org/ontology/fdaUniiCode'"
p16
sS'annotations'
p17
(dp18
S'bag_of_words'
p19
(lp20
S'FDA'
p21
aS'UNII'
p22
aS'code'
p23
aS'string'
p24
aS'FDA'
p25
aS'Unique'
p26
aS'Ingredient'
p27
aS'Identifier'
p28
aS'UNII'
p29
aS'code'
p30
aS'for'
p31
aS'a'
aS'DBpedia'
p32
aS'Drug'
p33
asS'chunk_seq'
p34
(lp35
S'B-NP'
p36
aS'I-NP'
p37
aS'I-NP'
p38
aS'I-NP'
p39
aS'I-NP'
p40
aS'I-NP'
p41
aS'I-NP'
p42
aS'I-NP'
p43
aS'I-NP'
p44
aS'E-NP'
p45
aS'S-PP'
p46
aS'B-NP'
p47
aS'I-NP'
p48
aS'E-NP'
p49
asS'dep_seq'
p50
(lp51
(lp52
S'nn'
p53
aS'10'
p54
aS'1'
aa(lp55
S'nn'
p56
aS'10'
p57
aS'2'
aa(lp58
S'nn'
p59
aS'10'
p60
aS'3'
aa(lp61
S'nn'
p62
aS'10'
p63
aS'4'
aa(lp64
S'nn'
p65
aS'10'
p66
aS'5'
aa(lp67
S'amod'
p68
aS'10'
p69
aS'6'
aa(lp70
S'nn'
p71
aS'10'
p72
aS'7'
aa(lp73
S'nn'
p74
aS'10'
p75
aS'8'
aa(lp76
S'nn'
p77
aS'10'
p78
aS'9'
aa(lp79
S'root'
p80
aS'0'
aS'10'
p81
aa(lp82
S'det'
p83
aS'14'
p84
aS'12'
p85
aa(lp86
S'nn'
p87
aS'14'
p88
aS'13'
p89
aa(lp90
S'prep_for'
p91
aS'10'
p92
aS'14'
p93
aasS'srls'
p94
(lp95
sS'pos_seq'
p96
(lp97
S'NNP'
p98
aS'NNP'
p99
aS'NN'
p100
aS'NN'
p101
aS'NNP'
p102
aS'JJ'
p103
aS'NN'
p104
aS'NNP'
p105
aS'NNP'
p106
aS'NN'
p107
aS'IN'
p108
aS'DT'
p109
aS'NNP'
p110
aS'NNP'
p111
asS'ner_seq'
p112
(lp113
S'O'
aS'O'
aS'O'
aS'O'
aS'O'
aS'O'
aS'O'
aS'O'
aS'S-ORG'
p114
aS'O'
aS'O'
aS'O'
aS'B-ORG'
p115
aS'E-ORG'
p116
assb.