ccopy_reg
_reconstructor
p1
(c__main__
KBproperty
p2
c__builtin__
object
p3
NtRp4
(dp5
S'comment'
p6
S'volume \\xce\\xbc\\xc2\\xb3'
p7
sS'domain'
p8
S''
sS'instances_count'
p9
S'3988'
p10
sS'label'
p11
g7
sS'range'
p12
S'double '
p13
sS'prop_uri'
p14
S"'http://dbpedia.org/ontology/volume'"
p15
sS'annotations'
p16
(dp17
S'bag_of_words'
p18
(lp19
S'volume'
p20
aS'double'
p21
aS'volume'
p22
aS'\\'
aS'xce'
p23
aS'\\'
aS'xbc'
p24
aS'\\'
aS'xc2'
p25
aS'\\'
aS'xb3'
p26
asS'chunk_seq'
p27
(lp28
S'B-NP'
p29
aS'I-NP'
p30
aS'E-NP'
p31
aS'O'
aS'O'
aS'O'
aS'O'
aS'O'
aS'O'
aS'O'
aS'O'
asS'dep_seq'
p32
(lp33
(lp34
S'root'
p35
aS'0'
aS'1'
aa(lp36
S'amod'
p37
aS'3'
aS'2'
aa(lp38
S'nn'
p39
aS'1'
aS'3'
aa(lp40
S'dep'
p41
aS'1'
aS'4'
aa(lp42
S'discourse'
p43
aS'1'
aS'5'
aa(lp44
S'dep'
p45
aS'5'
aS'6'
aa(lp46
S'dep'
p47
aS'5'
aS'7'
aa(lp48
S'dep'
p49
aS'5'
aS'8'
aa(lp50
S'dep'
p51
aS'5'
aS'9'
aa(lp52
S'dep'
p53
aS'5'
aS'10'
p54
aa(lp55
S'dep'
p56
aS'5'
aS'11'
p57
aasS'srls'
p58
(lp59
sS'pos_seq'
p60
(lp61
S'NN'
p62
aS'JJ'
p63
aS'NN'
p64
aS'FW'
p65
aS'FW'
p66
aS'FW'
p67
aS'FW'
p68
aS'FW'
p69
aS'FW'
p70
aS'FW'
p71
aS'FW'
p72
asS'ner_seq'
p73
(lp74
S'O'
aS'O'
aS'O'
aS'O'
aS'O'
aS'O'
aS'O'
aS'O'
aS'O'
aS'O'
aS'O'
assb.