ccopy_reg
_reconstructor
p1
(c__main__
KBproperty
p2
c__builtin__
object
p3
NtRp4
(dp5
S'comment'
p6
S'date of approval by lower parliament'
p7
sS'domain'
p8
S'Law '
p9
sS'instances_count'
p10
S'0'
sS'label'
p11
g7
sS'range'
p12
S'date '
p13
sS'prop_uri'
p14
S"'http://dbpedia.org/ontology/approvedByLowerParliament'"
p15
sS'annotations'
p16
(dp17
S'bag_of_words'
p18
(lp19
S'Law'
p20
aS'approved'
p21
aS'By'
p22
aS'Lower'
p23
aS'Parliament'
p24
aS'date'
p25
aS'date'
p26
aS'of'
p27
aS'approval'
p28
aS'by'
p29
aS'lower'
p30
aS'parliament'
p31
asS'chunk_seq'
p32
(lp33
S'S-NP'
p34
aS'S-VP'
p35
aS'S-PP'
p36
aS'B-NP'
p37
aS'I-NP'
p38
aS'I-NP'
p39
aS'E-NP'
p40
aS'S-PP'
p41
aS'S-NP'
p42
aS'S-PP'
p43
aS'B-NP'
p44
aS'E-NP'
p45
asS'dep_seq'
p46
(lp47
(lp48
S'root'
p49
aS'0'
aS'1'
aa(lp50
S'partmod'
p51
aS'1'
aS'2'
aa(lp52
S'nn'
p53
aS'7'
aS'4'
aa(lp54
S'nn'
p55
aS'7'
aS'5'
aa(lp56
S'nn'
p57
aS'7'
aS'6'
aa(lp58
S'agent'
p59
aS'2'
aS'7'
aa(lp60
S'prep_of'
p61
aS'7'
aS'9'
aa(lp62
S'amod'
p63
aS'12'
p64
aS'11'
p65
aa(lp66
S'prep_by'
p67
aS'9'
aS'12'
p68
aasS'srls'
p69
(lp70
(dp71
S'A1'
p72
g20
sS'A0'
p73
S'By Lower Parliament'
p74
sS'AM-TMP'
p75
S'date date of approval by lower parliament'
p76
sS'V'
g21
sasS'pos_seq'
p77
(lp78
S'NN'
p79
aS'VBN'
p80
aS'IN'
p81
aS'NNP'
p82
aS'NNP'
p83
aS'NN'
p84
aS'NN'
p85
aS'IN'
p86
aS'NN'
p87
aS'IN'
p88
aS'JJR'
p89
aS'NN'
p90
asS'ner_seq'
p91
(lp92
S'O'
aS'O'
aS'O'
aS'B-MISC'
p93
aS'E-MISC'
p94
aS'O'
aS'O'
aS'O'
aS'O'
aS'O'
aS'O'
aS'O'
assb.