ccopy_reg
_reconstructor
p1
(c__main__
KBproperty
p2
c__builtin__
object
p3
NtRp4
(dp5
S'comment'
p6
S'Name for the people inhabiting a place eg Ankara->Ankariotes Bulgaria->Bulgarians'
p7
sS'domain'
p8
S'Populated Place '
p9
sS'instances_count'
p10
S'0'
sS'label'
p11
S'peopleName'
p12
sS'range'
p13
S'lang String '
p14
sS'prop_uri'
p15
S"'http://dbpedia.org/ontology/peopleName'"
p16
sS'annotations'
p17
(dp18
S'bag_of_words'
p19
(lp20
S'Populated'
p21
aS'Place'
p22
aS'peopleName'
p23
aS'lang'
p24
aS'String'
p25
aS'Name'
p26
aS'for'
p27
aS'the'
p28
aS'people'
p29
aS'inhabiting'
p30
aS'a'
aS'place'
p31
aS'eg'
p32
aS'Ankara'
p33
aS'-'
aS'>'
aS'Ankariotes'
p34
aS'Bulgaria'
p35
aS'-'
aS'>'
aS'Bulgarians'
p36
asS'chunk_seq'
p37
(lp38
S'B-NP'
p39
aS'I-NP'
p40
aS'I-NP'
p41
aS'I-NP'
p42
aS'I-NP'
p43
aS'E-NP'
p44
aS'S-PP'
p45
aS'B-NP'
p46
aS'E-NP'
p47
aS'S-VP'
p48
aS'B-NP'
p49
aS'E-NP'
p50
aS'S-PP'
p51
aS'S-NP'
p52
aS'O'
aS'O'
aS'O'
aS'S-NP'
p53
aS'O'
aS'B-NP'
p54
aS'E-NP'
p55
asS'dep_seq'
p56
(lp57
(lp58
S'amod'
p59
aS'6'
aS'1'
aa(lp60
S'nn'
p61
aS'6'
aS'2'
aa(lp62
S'nn'
p63
aS'6'
aS'3'
aa(lp64
S'nn'
p65
aS'6'
aS'4'
aa(lp66
S'nn'
p67
aS'6'
aS'5'
aa(lp68
S'root'
p69
aS'0'
aS'6'
aa(lp70
S'det'
p71
aS'9'
aS'8'
aa(lp72
S'prep_for'
p73
aS'6'
aS'9'
aa(lp74
S'partmod'
p75
aS'9'
aS'10'
p76
aa(lp77
S'det'
p78
aS'12'
p79
aS'11'
p80
aa(lp81
S'dobj'
p82
aS'10'
p83
aS'12'
p84
aa(lp85
S'iobj'
p86
aS'10'
p87
aS'12'
p88
aa(lp89
S'amod'
p90
aS'12'
p91
aS'13'
p92
aa(lp93
S'dep'
p94
aS'12'
p95
aS'14'
p96
aa(lp97
S'nn'
p98
aS'17'
p99
aS'16'
p100
aa(lp101
S'dep'
p102
aS'14'
p103
aS'17'
p104
aa(lp105
S'dep'
p106
aS'17'
p107
aS'18'
p108
aa(lp109
S'num'
p110
aS'21'
p111
aS'20'
p112
aa(lp113
S'dep'
p114
aS'17'
p115
aS'21'
p116
aasS'srls'
p117
(lp118
(dp119
S'A1'
p120
S'a place eg Ankara - > Ankariotes Bulgaria - > Bulgarians'
p121
sS'A0'
p122
S'the people'
p123
sS'V'
g30
sasS'pos_seq'
p124
(lp125
S'VBN'
p126
aS'NNP'
p127
aS'NNP'
p128
aS'NNP'
p129
aS'NNP'
p130
aS'NNP'
p131
aS'IN'
p132
aS'DT'
p133
aS'NNS'
p134
aS'VBG'
p135
aS'DT'
p136
aS'NN'
p137
aS'IN'
p138
aS'NNP'
p139
aS':'
aS'FW'
p140
aS'FW'
p141
aS'NNP'
p142
aS':'
aS'CD'
p143
aS'NNPS'
p144
asS'ner_seq'
p145
(lp146
S'O'
aS'O'
aS'B-MISC'
p147
aS'I-MISC'
p148
aS'I-MISC'
p149
aS'E-MISC'
p150
aS'O'
aS'O'
aS'O'
aS'O'
aS'O'
aS'O'
aS'O'
aS'S-LOC'
p151
aS'O'
aS'O'
aS'O'
aS'S-LOC'
p152
aS'O'
aS'O'
aS'S-MISC'
p153
assb.