ccopy_reg
_reconstructor
p1
(c__main__
KBproperty
p2
c__builtin__
object
p3
NtRp4
(dp5
S'comment'
p6
S''
sS'domain'
p7
S'Person '
p8
sS'instances_count'
p9
S'0'
sS'label'
p10
S'number of run'
p11
sS'range'
p12
S'non Negative Integer '
p13
sS'prop_uri'
p14
S"'http://dbpedia.org/ontology/numberOfRun'"
p15
sS'annotations'
p16
(dp17
S'bag_of_words'
p18
(lp19
S'Person'
p20
aS'number'
p21
aS'of'
p22
aS'run'
p23
aS'non'
p24
aS'Negative'
p25
aS'Integer'
p26
asS'chunk_seq'
p27
(lp28
S'B-NP'
p29
aS'E-NP'
p30
aS'S-PP'
p31
aS'S-VP'
p32
aS'B-NP'
p33
aS'I-NP'
p34
aS'E-NP'
p35
asS'dep_seq'
p36
(lp37
(lp38
S'nn'
p39
aS'2'
aS'1'
aa(lp40
S'root'
p41
aS'0'
aS'2'
aa(lp42
S'prep'
p43
aS'2'
aS'3'
aa(lp44
S'dep'
p45
aS'3'
aS'4'
aa(lp46
S'amod'
p47
aS'7'
aS'5'
aa(lp48
S'amod'
p49
aS'7'
aS'6'
aa(lp50
S'dobj'
p51
aS'4'
aS'7'
aasS'srls'
p52
(lp53
(dp54
S'A1'
p55
S'non Negative Integer'
p56
sS'V'
g23
sasS'pos_seq'
p57
(lp58
S'NN'
p59
aS'NN'
p60
aS'IN'
p61
aS'VBN'
p62
aS'JJ'
p63
aS'JJ'
p64
aS'NN'
p65
asS'ner_seq'
p66
(lp67
S'O'
aS'O'
aS'O'
aS'O'
aS'O'
aS'B-MISC'
p68
aS'E-MISC'
p69
assb.