ccopy_reg
_reconstructor
p1
(c__main__
KBproperty
p2
c__builtin__
object
p3
NtRp4
(dp5
S'comment'
p6
S'coat of arms image'
p7
sS'domain'
p8
S''
sS'instances_count'
p9
S'0'
sS'label'
p10
g7
sS'range'
p11
S''
sS'prop_uri'
p12
S"'http://dbpedia.org/ontology/coatOfArms'"
p13
sS'annotations'
p14
(dp15
S'bag_of_words'
p16
(lp17
S'coat'
p18
aS'Of'
p19
aS'Arms'
p20
aS'coat'
p21
aS'of'
p22
aS'arms'
p23
aS'image'
p24
asS'chunk_seq'
p25
(lp26
S'S-NP'
p27
aS'S-PP'
p28
aS'B-NP'
p29
aS'E-NP'
p30
aS'S-PP'
p31
aS'B-NP'
p32
aS'E-NP'
p33
asS'dep_seq'
p34
(lp35
(lp36
S'root'
p37
aS'0'
aS'1'
aa(lp38
S'nn'
p39
aS'4'
aS'3'
aa(lp40
S'prep_of'
p41
aS'1'
aS'4'
aa(lp42
S'nn'
p43
aS'7'
aS'6'
aa(lp44
S'prep_of'
p45
aS'4'
aS'7'
aasS'srls'
p46
(lp47
sS'pos_seq'
p48
(lp49
S'NN'
p50
aS'IN'
p51
aS'NNP'
p52
aS'NN'
p53
aS'IN'
p54
aS'NNS'
p55
aS'NN'
p56
asS'ner_seq'
p57
(lp58
S'O'
aS'B-ORG'
p59
aS'E-ORG'
p60
aS'O'
aS'O'
aS'O'
aS'O'
assb.