ccopy_reg
_reconstructor
p1
(c__main__
KBproperty
p2
c__builtin__
object
p3
NtRp4
(dp5
S'comment'
p6
S"Don't use this use areaCode"
p7
sS'domain'
p8
S'Populated Place '
p9
sS'instances_count'
p10
S'0'
sS'label'
p11
S'phone prefix'
p12
sS'range'
p13
S'non Negative Integer '
p14
sS'prop_uri'
p15
S"'http://dbpedia.org/ontology/phonePrefix'"
p16
sS'annotations'
p17
(dp18
S'bag_of_words'
p19
(lp20
S'Populated'
p21
aS'Place'
p22
aS'phone'
p23
aS'prefix'
p24
aS'non'
p25
aS'Negative'
p26
aS'Integer'
p27
aS'Don'
p28
aS"'t"
p29
aS'use'
p30
aS'this'
p31
aS'use'
p32
aS'areaCode'
p33
asS'chunk_seq'
p34
(lp35
S'B-NP'
p36
aS'I-NP'
p37
aS'I-NP'
p38
aS'I-NP'
p39
aS'I-NP'
p40
aS'I-NP'
p41
aS'I-NP'
p42
aS'I-NP'
p43
aS'E-NP'
p44
aS'S-VP'
p45
aS'B-NP'
p46
aS'I-NP'
p47
aS'E-NP'
p48
asS'dep_seq'
p49
(lp50
(lp51
S'amod'
p52
aS'4'
aS'1'
aa(lp53
S'nn'
p54
aS'4'
aS'2'
aa(lp55
S'nn'
p56
aS'4'
aS'3'
aa(lp57
S'nsubj'
p58
aS'10'
p59
aS'4'
aa(lp60
S'amod'
p61
aS'9'
aS'5'
aa(lp62
S'amod'
p63
aS'9'
aS'6'
aa(lp64
S'nn'
p65
aS'9'
aS'7'
aa(lp66
S'nn'
p67
aS'9'
aS'8'
aa(lp68
S'nsubj'
p69
aS'10'
p70
aS'9'
aa(lp71
S'root'
p72
aS'0'
aS'10'
p73
aa(lp74
S'det'
p75
aS'13'
p76
aS'11'
p77
aa(lp78
S'nn'
p79
aS'13'
p80
aS'12'
p81
aa(lp82
S'dobj'
p83
aS'10'
p84
aS'13'
p85
aasS'srls'
p86
(lp87
(dp88
S'A1'
p89
S'this use'
p90
sS'A0'
p91
S"Populated Place phone prefix non Negative Integer Don 't"
p92
sS'A2'
p93
g33
sS'V'
g30
sasS'pos_seq'
p94
(lp95
S'JJ'
p96
aS'NN'
p97
aS'NN'
p98
aS'NN'
p99
aS'JJ'
p100
aS'JJ'
p101
aS'NN'
p102
aS'NNP'
p103
aS'NN'
p104
aS'VB'
p105
aS'DT'
p106
aS'NN'
p107
aS'NN'
p108
asS'ner_seq'
p109
(lp110
S'O'
aS'O'
aS'O'
aS'O'
aS'O'
aS'O'
aS'O'
aS'S-PER'
p111
aS'O'
aS'O'
aS'O'
aS'O'
aS'S-PER'
p112
assb.