ccopy_reg
_reconstructor
p1
(c__main__
KBproperty
p2
c__builtin__
object
p3
NtRp4
(dp5
S'comment'
p6
S''
sS'domain'
p7
S'Administrative Region '
p8
sS'instances_count'
p9
S'0'
sS'label'
p10
S'number of countries'
p11
sS'range'
p12
S'positive Integer '
p13
sS'prop_uri'
p14
S"'http://dbpedia.org/ontology/numberOfCountries'"
p15
sS'annotations'
p16
(dp17
S'bag_of_words'
p18
(lp19
S'Administrative'
p20
aS'Region'
p21
aS'number'
p22
aS'of'
p23
aS'countries'
p24
aS'positive'
p25
aS'Integer'
p26
asS'chunk_seq'
p27
(lp28
S'B-NP'
p29
aS'I-NP'
p30
aS'E-NP'
p31
aS'S-PP'
p32
aS'S-NP'
p33
aS'B-NP'
p34
aS'E-NP'
p35
asS'dep_seq'
p36
(lp37
(lp38
S'nn'
p39
aS'3'
aS'1'
aa(lp40
S'nn'
p41
aS'3'
aS'2'
aa(lp42
S'dep'
p43
aS'7'
aS'3'
aa(lp44
S'prep_of'
p45
aS'3'
aS'5'
aa(lp46
S'amod'
p47
aS'7'
aS'6'
aa(lp48
S'root'
p49
aS'0'
aS'7'
aasS'srls'
p50
(lp51
sS'pos_seq'
p52
(lp53
S'NNP'
p54
aS'NNP'
p55
aS'NN'
p56
aS'IN'
p57
aS'NNS'
p58
aS'JJ'
p59
aS'NN'
p60
asS'ner_seq'
p61
(lp62
S'O'
aS'O'
aS'O'
aS'O'
aS'O'
aS'O'
aS'O'
assb.