ccopy_reg
_reconstructor
p1
(c__main__
KBproperty
p2
c__builtin__
object
p3
NtRp4
(dp5
S'comment'
p6
S'average annual gross power generation J'
p7
sS'domain'
p8
S'Power Station '
p9
sS'instances_count'
p10
S'627'
p11
sS'label'
p12
g7
sS'range'
p13
S'double '
p14
sS'prop_uri'
p15
S"'http://dbpedia.org/ontology/averageAnnualGeneration'"
p16
sS'annotations'
p17
(dp18
S'bag_of_words'
p19
(lp20
S'Power'
p21
aS'Station'
p22
aS'average'
p23
aS'Annual'
p24
aS'Generation'
p25
aS'double'
p26
aS'average'
p27
aS'annual'
p28
aS'gross'
p29
aS'power'
p30
aS'generation'
p31
aS'J'
asS'chunk_seq'
p32
(lp33
S'B-NP'
p34
aS'E-NP'
p35
aS'B-NP'
p36
aS'I-NP'
p37
aS'I-NP'
p38
aS'I-NP'
p39
aS'I-NP'
p40
aS'I-NP'
p41
aS'I-NP'
p42
aS'I-NP'
p43
aS'I-NP'
p44
aS'E-NP'
p45
asS'dep_seq'
p46
(lp47
(lp48
S'nn'
p49
aS'12'
p50
aS'1'
aa(lp51
S'nn'
p52
aS'12'
p53
aS'2'
aa(lp54
S'amod'
p55
aS'12'
p56
aS'3'
aa(lp57
S'nn'
p58
aS'12'
p59
aS'4'
aa(lp60
S'nn'
p61
aS'12'
p62
aS'5'
aa(lp63
S'amod'
p64
aS'12'
p65
aS'6'
aa(lp66
S'amod'
p67
aS'12'
p68
aS'7'
aa(lp69
S'amod'
p70
aS'12'
p71
aS'8'
aa(lp72
S'amod'
p73
aS'12'
p74
aS'9'
aa(lp75
S'nn'
p76
aS'12'
p77
aS'10'
p78
aa(lp79
S'nn'
p80
aS'12'
p81
aS'11'
p82
aa(lp83
S'root'
p84
aS'0'
aS'12'
p85
aasS'srls'
p86
(lp87
sS'pos_seq'
p88
(lp89
S'NNP'
p90
aS'NNP'
p91
aS'JJ'
p92
aS'NNP'
p93
aS'NNP'
p94
aS'JJ'
p95
aS'JJ'
p96
aS'JJ'
p97
aS'JJ'
p98
aS'NN'
p99
aS'NN'
p100
aS'NNP'
p101
asS'ner_seq'
p102
(lp103
S'B-ORG'
p104
aS'E-ORG'
p105
aS'O'
aS'O'
aS'O'
aS'O'
aS'O'
aS'O'
aS'O'
aS'O'
aS'O'
aS'O'
assb.