ccopy_reg
_reconstructor
p1
(c__main__
KBproperty
p2
c__builtin__
object
p3
NtRp4
(dp5
S'comment'
p6
S''
sS'domain'
p7
S''
sS'instances_count'
p8
S'897530'
p9
sS'label'
p10
S'is part of'
p11
sS'range'
p12
S''
sS'prop_uri'
p13
S"'http://dbpedia.org/ontology/isPartOf'"
p14
sS'annotations'
p15
(dp16
S'bag_of_words'
p17
(lp18
S'is'
p19
aS'part'
p20
aS'of'
p21
asS'chunk_seq'
p22
(lp23
S'S-VP'
p24
aS'S-NP'
p25
aS'S-PP'
p26
asS'dep_seq'
p27
(lp28
(lp29
S'cop'
p30
aS'2'
aS'1'
aa(lp31
S'root'
p32
aS'0'
aS'2'
aa(lp33
S'prep'
p34
aS'2'
aS'3'
aasS'srls'
p35
(lp36
sS'pos_seq'
p37
(lp38
S'VBZ'
p39
aS'NN'
p40
aS'IN'
p41
asS'ner_seq'
p42
(lp43
S'O'
aS'O'
aS'O'
assb.