ccopy_reg
_reconstructor
p1
(c__main__
KBproperty
p2
c__builtin__
object
p3
NtRp4
(dp5
S'comment'
p6
S'indicates another place situated north-west.'
p7
sS'domain'
p8
S'Place '
p9
sS'instances_count'
p10
S'0'
sS'label'
p11
S'north-west place'
p12
sS'range'
p13
S'Place '
p14
sS'prop_uri'
p15
S"'http://dbpedia.org/ontology/northWestPlace'"
p16
sS'annotations'
p17
(dp18
S'bag_of_words'
p19
(lp20
S'Place'
p21
aS'north-west'
p22
aS'place'
p23
aS'Place'
p24
aS'indicates'
p25
aS'another'
p26
aS'place'
p27
aS'situated'
p28
aS'north-west'
p29
aS'.'
asS'chunk_seq'
p30
(lp31
S'B-NP'
p32
aS'I-NP'
p33
aS'I-NP'
p34
aS'E-NP'
p35
aS'S-VP'
p36
aS'B-NP'
p37
aS'E-NP'
p38
aS'B-NP'
p39
aS'E-NP'
p40
aS'O'
asS'dep_seq'
p41
(lp42
(lp43
S'nn'
p44
aS'4'
aS'1'
aa(lp45
S'amod'
p46
aS'4'
aS'west'
p47
aa(lp48
S'nn'
p49
aS'4'
aS'3'
aa(lp50
S'nsubj'
p51
aS'5'
aS'4'
aa(lp52
S'root'
p53
aS'0'
aS'5'
aa(lp54
S'det'
p55
aS'7'
aS'6'
aa(lp56
S'dobj'
p57
aS'5'
aS'7'
aa(lp58
S'iobj'
p59
aS'5'
aS'7'
aa(lp60
S'amod'
p61
aS'west'
p62
aS'8'
aa(lp63
S'dobj'
p64
aS'5'
aS'west'
p65
aa(lp66
S'dep'
p67
aS'7'
aS'west'
p68
aasS'srls'
p69
(lp70
(dp71
S'A1'
p72
S'another place situated north-west'
p73
sS'A0'
p74
S'Place north-west place Place'
p75
sS'V'
g25
sa(dp76
S'A1'
p77
S'another place'
p78
sS'A2'
p79
g29
sS'V'
g28
sasS'pos_seq'
p80
(lp81
S'NN'
p82
aS'JJ'
p83
aS'NN'
p84
aS'NN'
p85
aS'VBZ'
p86
aS'DT'
p87
aS'NN'
p88
aS'VBN'
p89
aS'NN'
p90
aS'.'
asS'ner_seq'
p91
(lp92
S'O'
aS'O'
aS'O'
aS'O'
aS'O'
aS'O'
aS'O'
aS'O'
aS'O'
aS'O'
assb.