ccopy_reg
_reconstructor
p1
(c__main__
KBproperty
p2
c__builtin__
object
p3
NtRp4
(dp5
S'comment'
p6
S'Year station was electrified if not previously at date of opening.'
p7
sS'domain'
p8
S'Station '
p9
sS'instances_count'
p10
S'1379'
p11
sS'label'
p12
S'year of electrification'
p13
sS'range'
p14
S'g Year '
p15
sS'prop_uri'
p16
S"'http://dbpedia.org/ontology/yearOfElectrification'"
p17
sS'annotations'
p18
(dp19
S'bag_of_words'
p20
(lp21
S'Station'
p22
aS'year'
p23
aS'of'
p24
aS'electrification'
p25
aS'g'
aS'Year'
p26
aS'Year'
p27
aS'station'
p28
aS'was'
p29
aS'electrified'
p30
aS'if'
p31
aS'not'
p32
aS'previously'
p33
aS'at'
p34
aS'date'
p35
aS'of'
p36
aS'opening'
p37
aS'.'
asS'chunk_seq'
p38
(lp39
S'B-NP'
p40
aS'E-NP'
p41
aS'S-PP'
p42
aS'S-NP'
p43
aS'B-NP'
p44
aS'I-NP'
p45
aS'I-NP'
p46
aS'E-NP'
p47
aS'B-VP'
p48
aS'E-VP'
p49
aS'S-SBAR'
p50
aS'O'
aS'S-ADVP'
p51
aS'S-PP'
p52
aS'S-NP'
p53
aS'S-PP'
p54
aS'S-NP'
p55
aS'O'
asS'dep_seq'
p56
(lp57
(lp58
S'nn'
p59
aS'2'
aS'1'
aa(lp60
S'nsubjpass'
p61
aS'10'
p62
aS'2'
aa(lp63
S'nn'
p64
aS'8'
aS'4'
aa(lp65
S'num'
p66
aS'8'
aS'5'
aa(lp67
S'nn'
p68
aS'8'
aS'6'
aa(lp69
S'nn'
p70
aS'8'
aS'7'
aa(lp71
S'prep_of'
p72
aS'2'
aS'8'
aa(lp73
S'auxpass'
p74
aS'10'
p75
aS'9'
aa(lp76
S'root'
p77
aS'0'
aS'10'
p78
aa(lp79
S'prep'
p80
aS'10'
p81
aS'11'
p82
aa(lp83
S'neg'
p84
aS'11'
p85
aS'12'
p86
aa(lp87
S'dep'
p88
aS'11'
p89
aS'13'
p90
aa(lp91
S'prep_at'
p92
aS'11'
p93
aS'15'
p94
aa(lp95
S'prep_of'
p96
aS'15'
p97
aS'17'
p98
aasS'srls'
p99
(lp100
(dp101
S'A1'
p102
S'Station year of electrification g Year Year station'
p103
sS'AM-ADV'
p104
S'if not previously at date of opening'
p105
sS'V'
g30
sasS'pos_seq'
p106
(lp107
S'NN'
p108
aS'NN'
p109
aS'IN'
p110
aS'NN'
p111
aS'CD'
p112
aS'NN'
p113
aS'NN'
p114
aS'NN'
p115
aS'VBD'
p116
aS'VBN'
p117
aS'IN'
p118
aS'RB'
p119
aS'RB'
p120
aS'IN'
p121
aS'NN'
p122
aS'IN'
p123
aS'NN'
p124
aS'.'
asS'ner_seq'
p125
(lp126
S'O'
aS'O'
aS'O'
aS'O'
aS'O'
aS'O'
aS'O'
aS'O'
aS'O'
aS'O'
aS'O'
aS'O'
aS'O'
aS'O'
aS'O'
aS'O'
aS'O'
aS'O'
assb.