ccopy_reg
_reconstructor
p1
(c__main__
KBproperty
p2
c__builtin__
object
p3
NtRp4
(dp5
S'comment'
p6
S''
sS'domain'
p7
S''
sS'instances_count'
p8
S'288'
p9
sS'label'
p10
S'replaced by names'
p11
sS'range'
p12
S''
sS'prop_uri'
p13
S"'http://dbpedia.org/property/replacedByNames'"
p14
sS'annotations'
p15
(dp16
S'bag_of_words'
p17
(lp18
S'replaced'
p19
aS'by'
p20
aS'names'
p21
asS'chunk_seq'
p22
(lp23
S'S-VP'
p24
aS'S-PP'
p25
aS'S-NP'
p26
asS'dep_seq'
p27
(lp28
(lp29
S'root'
p30
aS'0'
aS'1'
aa(lp31
S'prep_by'
p32
aS'1'
aS'3'
aasS'srls'
p33
(lp34
(dp35
S'A2'
p36
S'by names'
p37
sS'V'
g19
sasS'pos_seq'
p38
(lp39
S'VBN'
p40
aS'IN'
p41
aS'NNS'
p42
asS'ner_seq'
p43
(lp44
S'O'
aS'O'
aS'O'
assb.