ccopy_reg
_reconstructor
p1
(c__main__
KBproperty
p2
c__builtin__
object
p3
NtRp4
(dp5
S'comment'
p6
S''
sS'domain'
p7
S'Grave Monument '
p8
sS'instances_count'
p9
S'0'
sS'label'
p10
S'in cemetery'
p11
sS'range'
p12
S'Cemetery '
p13
sS'prop_uri'
p14
S"'http://dbpedia.org/ontology/inCemetery'"
p15
sS'annotations'
p16
(dp17
S'bag_of_words'
p18
(lp19
S'Grave'
p20
aS'Monument'
p21
aS'in'
p22
aS'cemetery'
p23
aS'Cemetery'
p24
asS'chunk_seq'
p25
(lp26
S'B-NP'
p27
aS'E-NP'
p28
aS'S-PP'
p29
aS'B-NP'
p30
aS'E-NP'
p31
asS'dep_seq'
p32
(lp33
(lp34
S'amod'
p35
aS'2'
aS'1'
aa(lp36
S'root'
p37
aS'0'
aS'2'
aa(lp38
S'nn'
p39
aS'5'
aS'4'
aa(lp40
S'prep_in'
p41
aS'2'
aS'5'
aasS'srls'
p42
(lp43
sS'pos_seq'
p44
(lp45
S'JJ'
p46
aS'NN'
p47
aS'IN'
p48
aS'NN'
p49
aS'NN'
p50
asS'ner_seq'
p51
(lp52
S'O'
aS'O'
aS'O'
aS'O'
aS'O'
assb.