ccopy_reg
_reconstructor
p1
(c__main__
KBproperty
p2
c__builtin__
object
p3
NtRp4
(dp5
S'comment'
p6
S'speed limit kmh'
p7
sS'domain'
p8
S'Route Of Transportation '
p9
sS'instances_count'
p10
S'1350'
p11
sS'label'
p12
g7
sS'range'
p13
S'double '
p14
sS'prop_uri'
p15
S"'http://dbpedia.org/ontology/speedLimit'"
p16
sS'annotations'
p17
(dp18
S'bag_of_words'
p19
(lp20
S'Route'
p21
aS'Of'
p22
aS'Transportation'
p23
aS'speed'
p24
aS'Limit'
p25
aS'double'
p26
aS'speed'
p27
aS'limit'
p28
aS'kmh'
p29
asS'chunk_seq'
p30
(lp31
S'S-NP'
p32
aS'S-PP'
p33
aS'B-NP'
p34
aS'I-NP'
p35
aS'E-NP'
p36
aS'B-NP'
p37
aS'I-NP'
p38
aS'E-NP'
p39
aS'O'
asS'dep_seq'
p40
(lp41
(lp42
S'dep'
p43
aS'8'
aS'1'
aa(lp44
S'prep_of'
p45
aS'1'
aS'3'
aa(lp46
S'dep'
p47
aS'8'
aS'4'
aa(lp48
S'dep'
p49
aS'8'
aS'5'
aa(lp50
S'amod'
p51
aS'8'
aS'6'
aa(lp52
S'nn'
p53
aS'8'
aS'7'
aa(lp54
S'root'
p55
aS'0'
aS'8'
aa(lp56
S'punct'
p57
aS'8'
aS'9'
aasS'srls'
p58
(lp59
sS'pos_seq'
p60
(lp61
S'NNP'
p62
aS'IN'
p63
aS'NNP'
p64
aS'NN'
p65
aS'NN'
p66
aS'JJ'
p67
aS'NN'
p68
aS'NN'
p69
aS'.'
asS'ner_seq'
p70
(lp71
S'B-ORG'
p72
aS'I-ORG'
p73
aS'E-ORG'
p74
aS'O'
aS'O'
aS'O'
aS'O'
aS'O'
aS'O'
assb.