ccopy_reg
_reconstructor
p1
(c__main__
KBproperty
p2
c__builtin__
object
p3
NtRp4
(dp5
S'comment'
p6
S''
sS'domain'
p7
S'Populated Place '
p8
sS'instances_count'
p9
S'0'
sS'label'
p10
S'sharing out population'
p11
sS'range'
p12
S'non Negative Integer '
p13
sS'prop_uri'
p14
S"'http://dbpedia.org/ontology/sharingOutPopulation'"
p15
sS'annotations'
p16
(dp17
S'bag_of_words'
p18
(lp19
S'Populated'
p20
aS'Place'
p21
aS'sharing'
p22
aS'out'
p23
aS'population'
p24
aS'non'
p25
aS'Negative'
p26
aS'Integer'
p27
asS'chunk_seq'
p28
(lp29
S'B-NP'
p30
aS'E-NP'
p31
aS'S-VP'
p32
aS'S-PP'
p33
aS'B-NP'
p34
aS'I-NP'
p35
aS'I-NP'
p36
aS'E-NP'
p37
asS'dep_seq'
p38
(lp39
(lp40
S'amod'
p41
aS'2'
aS'1'
aa(lp42
S'root'
p43
aS'0'
aS'2'
aa(lp44
S'partmod'
p45
aS'2'
aS'3'
aa(lp46
S'amod'
p47
aS'5'
aS'4'
aa(lp48
S'iobj'
p49
aS'3'
aS'5'
aa(lp50
S'advmod'
p51
aS'8'
aS'6'
aa(lp52
S'amod'
p53
aS'8'
aS'7'
aa(lp54
S'dobj'
p55
aS'3'
aS'8'
aasS'srls'
p56
(lp57
(dp58
S'A1'
p59
S'population non Negative Integer'
p60
sS'A0'
p61
S'Populated Place'
p62
sS'V'
S'sharing out'
p63
sasS'pos_seq'
p64
(lp65
S'JJ'
p66
aS'NN'
p67
aS'VBG'
p68
aS'IN'
p69
aS'NN'
p70
aS'RB'
p71
aS'JJ'
p72
aS'NN'
p73
asS'ner_seq'
p74
(lp75
S'O'
aS'O'
aS'O'
aS'O'
aS'O'
aS'O'
aS'B-MISC'
p76
aS'E-MISC'
p77
assb.