ccopy_reg
_reconstructor
p1
(c__main__
KBproperty
p2
c__builtin__
object
p3
NtRp4
(dp5
S'comment'
p6
S''
sS'domain'
p7
S'Ice Hockey Player '
p8
sS'instances_count'
p9
S'293'
p10
sS'label'
p11
S'hall of fame'
p12
sS'range'
p13
S'string '
p14
sS'prop_uri'
p15
S"'http://dbpedia.org/ontology/hallOfFame'"
p16
sS'annotations'
p17
(dp18
S'bag_of_words'
p19
(lp20
S'Ice'
p21
aS'Hockey'
p22
aS'Player'
p23
aS'hall'
p24
aS'of'
p25
aS'fame'
p26
aS'string'
p27
asS'chunk_seq'
p28
(lp29
S'B-NP'
p30
aS'I-NP'
p31
aS'I-NP'
p32
aS'E-NP'
p33
aS'S-PP'
p34
aS'B-NP'
p35
aS'E-NP'
p36
asS'dep_seq'
p37
(lp38
(lp39
S'nn'
p40
aS'4'
aS'1'
aa(lp41
S'nn'
p42
aS'4'
aS'2'
aa(lp43
S'nn'
p44
aS'4'
aS'3'
aa(lp45
S'root'
p46
aS'0'
aS'4'
aa(lp47
S'nn'
p48
aS'7'
aS'6'
aa(lp49
S'prep_of'
p50
aS'4'
aS'7'
aasS'srls'
p51
(lp52
sS'pos_seq'
p53
(lp54
S'NNP'
p55
aS'NNP'
p56
aS'NNP'
p57
aS'NN'
p58
aS'IN'
p59
aS'NN'
p60
aS'NN'
p61
asS'ner_seq'
p62
(lp63
S'B-MISC'
p64
aS'I-MISC'
p65
aS'E-MISC'
p66
aS'O'
aS'O'
aS'O'
aS'O'
assb.