ccopy_reg
_reconstructor
p1
(c__main__
KBproperty
p2
c__builtin__
object
p3
NtRp4
(dp5
S'comment'
p6
S'Votes against the resolution'
p7
sS'domain'
p8
S'Stated Resolution '
p9
sS'instances_count'
p10
S'0'
sS'label'
p11
g7
sS'range'
p12
S'non Negative Integer '
p13
sS'prop_uri'
p14
S"'http://dbpedia.org/ontology/votesAgainst'"
p15
sS'annotations'
p16
(dp17
S'bag_of_words'
p18
(lp19
S'Stated'
p20
aS'Resolution'
p21
aS'votes'
p22
aS'Against'
p23
aS'non'
p24
aS'Negative'
p25
aS'Integer'
p26
aS'Votes'
p27
aS'against'
p28
aS'the'
p29
aS'resolution'
p30
asS'chunk_seq'
p31
(lp32
S'B-NP'
p33
aS'I-NP'
p34
aS'E-NP'
p35
aS'S-PP'
p36
aS'B-NP'
p37
aS'I-NP'
p38
aS'I-NP'
p39
aS'E-NP'
p40
aS'S-PP'
p41
aS'B-NP'
p42
aS'E-NP'
p43
asS'dep_seq'
p44
(lp45
(lp46
S'amod'
p47
aS'3'
aS'1'
aa(lp48
S'nn'
p49
aS'3'
aS'2'
aa(lp50
S'root'
p51
aS'0'
aS'3'
aa(lp52
S'amod'
p53
aS'8'
aS'5'
aa(lp54
S'amod'
p55
aS'8'
aS'6'
aa(lp56
S'nn'
p57
aS'8'
aS'7'
aa(lp58
S'prep_against'
p59
aS'3'
aS'8'
aa(lp60
S'det'
p61
aS'11'
p62
aS'10'
p63
aa(lp64
S'prep_against'
p65
aS'3'
aS'11'
p66
aasS'srls'
p67
(lp68
sS'pos_seq'
p69
(lp70
S'VBN'
p71
aS'NN'
p72
aS'NNS'
p73
aS'IN'
p74
aS'JJ'
p75
aS'JJ'
p76
aS'NNP'
p77
aS'NNPS'
p78
aS'IN'
p79
aS'DT'
p80
aS'NN'
p81
asS'ner_seq'
p82
(lp83
S'O'
aS'O'
aS'O'
aS'O'
aS'O'
aS'O'
aS'O'
aS'O'
aS'O'
aS'O'
aS'O'
assb.