ccopy_reg
_reconstructor
p1
(c__main__
KBproperty
p2
c__builtin__
object
p3
NtRp4
(dp5
S'comment'
p6
S'The start location of the route.'
p7
sS'domain'
p8
S'Route Of Transportation '
p9
sS'instances_count'
p10
S'216'
p11
sS'label'
p12
S'route start location'
p13
sS'range'
p14
S'Place '
p15
sS'prop_uri'
p16
S"'http://dbpedia.org/ontology/routeStartLocation'"
p17
sS'annotations'
p18
(dp19
S'bag_of_words'
p20
(lp21
S'Route'
p22
aS'Of'
p23
aS'Transportation'
p24
aS'route'
p25
aS'start'
p26
aS'location'
p27
aS'Place'
p28
aS'The'
p29
aS'start'
p30
aS'location'
p31
aS'of'
p32
aS'the'
p33
aS'route'
p34
aS'.'
asS'chunk_seq'
p35
(lp36
S'S-NP'
p37
aS'S-PP'
p38
aS'S-NP'
p39
aS'B-NP'
p40
aS'E-NP'
p41
aS'B-NP'
p42
aS'E-NP'
p43
aS'B-NP'
p44
aS'I-NP'
p45
aS'E-NP'
p46
aS'S-PP'
p47
aS'B-NP'
p48
aS'E-NP'
p49
aS'O'
asS'dep_seq'
p50
(lp51
(lp52
S'nsubj'
p53
aS'5'
aS'1'
aa(lp54
S'prep_of'
p55
aS'1'
aS'3'
aa(lp56
S'dep'
p57
aS'5'
aS'4'
aa(lp58
S'root'
p59
aS'0'
aS'5'
aa(lp60
S'nn'
p61
aS'7'
aS'6'
aa(lp62
S'iobj'
p63
aS'5'
aS'7'
aa(lp64
S'det'
p65
aS'10'
p66
aS'8'
aa(lp67
S'nn'
p68
aS'10'
p69
aS'9'
aa(lp70
S'dobj'
p71
aS'5'
aS'10'
p72
aa(lp73
S'det'
p74
aS'13'
p75
aS'12'
p76
aa(lp77
S'prep_of'
p78
aS'10'
p79
aS'13'
p80
aasS'srls'
p81
(lp82
sS'pos_seq'
p83
(lp84
S'NNP'
p85
aS'IN'
p86
aS'NNP'
p87
aS'NN'
p88
aS'NN'
p89
aS'NN'
p90
aS'NNP'
p91
aS'DT'
p92
aS'NN'
p93
aS'NN'
p94
aS'IN'
p95
aS'DT'
p96
aS'NN'
p97
aS'.'
asS'ner_seq'
p98
(lp99
S'B-ORG'
p100
aS'I-ORG'
p101
aS'E-ORG'
p102
aS'O'
aS'O'
aS'O'
aS'O'
aS'O'
aS'O'
aS'O'
aS'O'
aS'O'
aS'O'
aS'O'
assb.