ccopy_reg
_reconstructor
p1
(c__main__
KBproperty
p2
c__builtin__
object
p3
NtRp4
(dp5
S'comment'
p6
S'start date and time'
p7
sS'domain'
p8
S'Event '
p9
sS'instances_count'
p10
S'0'
sS'label'
p11
g7
sS'range'
p12
S'date Time '
p13
sS'prop_uri'
p14
S"'http://dbpedia.org/ontology/startDateTime'"
p15
sS'annotations'
p16
(dp17
S'bag_of_words'
p18
(lp19
S'Event'
p20
aS'start'
p21
aS'Date'
p22
aS'Time'
p23
aS'date'
p24
aS'Time'
p25
aS'start'
p26
aS'date'
p27
aS'and'
p28
aS'time'
p29
asS'chunk_seq'
p30
(lp31
S'S-NP'
p32
aS'S-VP'
p33
aS'B-NP'
p34
aS'I-NP'
p35
aS'E-NP'
p36
aS'S-NP'
p37
aS'S-VP'
p38
aS'B-NP'
p39
aS'I-NP'
p40
aS'E-NP'
p41
asS'dep_seq'
p42
(lp43
(lp44
S'nsubj'
p45
aS'2'
aS'1'
aa(lp46
S'root'
p47
aS'0'
aS'2'
aa(lp48
S'iobj'
p49
aS'2'
aS'3'
aa(lp50
S'nn'
p51
aS'5'
aS'4'
aa(lp52
S'dobj'
p53
aS'2'
aS'5'
aa(lp54
S'dep'
p55
aS'3'
aS'5'
aa(lp56
S'nn'
p57
aS'8'
aS'6'
aa(lp58
S'nn'
p59
aS'8'
aS'7'
aa(lp60
S'dobj'
p61
aS'2'
aS'8'
aa(lp62
S'conj_and'
p63
aS'8'
aS'10'
p64
aasS'srls'
p65
(lp66
(dp67
S'A1'
p68
g20
sS'AM-TMP'
p69
S'Date Time date Time start date and time'
p70
sS'V'
g21
sasS'pos_seq'
p71
(lp72
S'NN'
p73
aS'VBP'
p74
aS'NN'
p75
aS'NN'
p76
aS'NN'
p77
aS'NN'
p78
aS'NN'
p79
aS'NN'
p80
aS'CC'
p81
aS'NN'
p82
asS'ner_seq'
p83
(lp84
S'O'
aS'O'
aS'O'
aS'O'
aS'O'
aS'O'
aS'O'
aS'O'
aS'O'
aS'O'
assb.