ccopy_reg
_reconstructor
p1
(c__main__
KBproperty
p2
c__builtin__
object
p3
NtRp4
(dp5
S'comment'
p6
S'word before the country'
p7
sS'domain'
p8
S'Country '
p9
sS'instances_count'
p10
S'0'
sS'label'
p11
g7
sS'range'
p12
S'string '
p13
sS'prop_uri'
p14
S"'http://dbpedia.org/ontology/wordBefore'"
p15
sS'annotations'
p16
(dp17
S'bag_of_words'
p18
(lp19
S'Country'
p20
aS'word'
p21
aS'Before'
p22
aS'string'
p23
aS'word'
p24
aS'before'
p25
aS'the'
p26
aS'country'
p27
asS'chunk_seq'
p28
(lp29
S'B-NP'
p30
aS'E-NP'
p31
aS'S-PP'
p32
aS'B-NP'
p33
aS'E-NP'
p34
aS'S-PP'
p35
aS'B-NP'
p36
aS'E-NP'
p37
asS'dep_seq'
p38
(lp39
(lp40
S'nn'
p41
aS'2'
aS'1'
aa(lp42
S'root'
p43
aS'0'
aS'2'
aa(lp44
S'nn'
p45
aS'5'
aS'4'
aa(lp46
S'prep_before'
p47
aS'2'
aS'5'
aa(lp48
S'det'
p49
aS'8'
aS'7'
aa(lp50
S'prep_before'
p51
aS'2'
aS'8'
aasS'srls'
p52
(lp53
sS'pos_seq'
p54
(lp55
S'NN'
p56
aS'NN'
p57
aS'IN'
p58
aS'NN'
p59
aS'NN'
p60
aS'IN'
p61
aS'DT'
p62
aS'NN'
p63
asS'ner_seq'
p64
(lp65
S'O'
aS'O'
aS'O'
aS'O'
aS'O'
aS'O'
aS'O'
aS'O'
assb.