ccopy_reg
_reconstructor
p1
(c__main__
KBproperty
p2
c__builtin__
object
p3
NtRp4
(dp5
S'comment'
p6
S'the company that produced the work e.g. Film MusicalWork Software'
p7
sS'domain'
p8
S'Work '
p9
sS'instances_count'
p10
S'0'
sS'label'
p11
S'production company'
p12
sS'range'
p13
S'Company '
p14
sS'prop_uri'
p15
S"'http://dbpedia.org/ontology/productionCompany'"
p16
sS'annotations'
p17
(dp18
S'bag_of_words'
p19
(lp20
S'Work'
p21
aS'production'
p22
aS'company'
p23
aS'Company'
p24
aS'the'
p25
aS'company'
p26
aS'that'
p27
aS'produced'
p28
aS'the'
p29
aS'work'
p30
aS'e.g.'
p31
aS'Film'
p32
aS'MusicalWork'
p33
aS'Software'
p34
asS'chunk_seq'
p35
(lp36
S'B-NP'
p37
aS'I-NP'
p38
aS'I-NP'
p39
aS'E-NP'
p40
aS'B-NP'
p41
aS'E-NP'
p42
aS'S-NP'
p43
aS'S-VP'
p44
aS'B-NP'
p45
aS'E-NP'
p46
aS'S-PP'
p47
aS'B-NP'
p48
aS'I-NP'
p49
aS'E-NP'
p50
asS'dep_seq'
p51
(lp52
(lp53
S'nn'
p54
aS'4'
aS'1'
aa(lp55
S'nn'
p56
aS'4'
aS'2'
aa(lp57
S'nn'
p58
aS'4'
aS'3'
aa(lp59
S'dep'
p60
aS'6'
aS'4'
aa(lp61
S'det'
p62
aS'6'
aS'5'
aa(lp63
S'root'
p64
aS'0'
aS'6'
aa(lp65
S'nsubj'
p66
aS'8'
aS'6'
aa(lp67
S'rcmod'
p68
aS'6'
aS'8'
aa(lp69
S'det'
p70
aS'10'
p71
aS'9'
aa(lp72
S'dobj'
p73
aS'8'
aS'10'
p74
aa(lp75
S'nn'
p76
aS'14'
p77
aS'12'
p78
aa(lp79
S'nn'
p80
aS'14'
p81
aS'13'
p82
aa(lp83
S'prep_e.g.'
p84
aS'10'
p85
aS'14'
p86
aasS'srls'
p87
(lp88
(dp89
S'A1'
p90
S'the work e.g. Film MusicalWork Software'
p91
sS'A0'
p92
S'Work production company Company the company'
p93
sS'R-A0'
p94
g27
sS'V'
g28
sasS'pos_seq'
p95
(lp96
S'NN'
p97
aS'NN'
p98
aS'NN'
p99
aS'NNP'
p100
aS'DT'
p101
aS'NN'
p102
aS'WDT'
p103
aS'VBD'
p104
aS'DT'
p105
aS'NN'
p106
aS'IN'
p107
aS'NNP'
p108
aS'NNP'
p109
aS'NNP'
p110
asS'ner_seq'
p111
(lp112
S'O'
aS'O'
aS'O'
aS'O'
aS'O'
aS'O'
aS'O'
aS'O'
aS'O'
aS'O'
aS'O'
aS'B-MISC'
p113
aS'I-MISC'
p114
aS'E-MISC'
p115
assb.