ccopy_reg
_reconstructor
p1
(c__main__
KBproperty
p2
c__builtin__
object
p3
NtRp4
(dp5
S'comment'
p6
S'Number of votes in favour of the resolution'
p7
sS'domain'
p8
S'Stated Resolution '
p9
sS'instances_count'
p10
S'0'
sS'label'
p11
g7
sS'range'
p12
S'non Negative Integer '
p13
sS'prop_uri'
p14
S"'http://dbpedia.org/ontology/votesFor'"
p15
sS'annotations'
p16
(dp17
S'bag_of_words'
p18
(lp19
S'Stated'
p20
aS'Resolution'
p21
aS'votes'
p22
aS'For'
p23
aS'non'
p24
aS'Negative'
p25
aS'Integer'
p26
aS'Number'
p27
aS'of'
p28
aS'votes'
p29
aS'in'
p30
aS'favour'
p31
aS'of'
p32
aS'the'
p33
aS'resolution'
p34
asS'chunk_seq'
p35
(lp36
S'B-NP'
p37
aS'I-NP'
p38
aS'E-NP'
p39
aS'S-PP'
p40
aS'B-NP'
p41
aS'I-NP'
p42
aS'I-NP'
p43
aS'E-NP'
p44
aS'S-PP'
p45
aS'S-NP'
p46
aS'S-PP'
p47
aS'S-NP'
p48
aS'S-PP'
p49
aS'B-NP'
p50
aS'E-NP'
p51
asS'dep_seq'
p52
(lp53
(lp54
S'amod'
p55
aS'3'
aS'1'
aa(lp56
S'nn'
p57
aS'3'
aS'2'
aa(lp58
S'root'
p59
aS'0'
aS'3'
aa(lp60
S'amod'
p61
aS'8'
aS'5'
aa(lp62
S'amod'
p63
aS'8'
aS'6'
aa(lp64
S'nn'
p65
aS'8'
aS'7'
aa(lp66
S'prep_for'
p67
aS'3'
aS'8'
aa(lp68
S'prep_of'
p69
aS'8'
aS'10'
p70
aa(lp71
S'prep_in'
p72
aS'3'
aS'12'
p73
aa(lp74
S'det'
p75
aS'15'
p76
aS'14'
p77
aa(lp78
S'prep_of'
p79
aS'12'
p80
aS'15'
p81
aasS'srls'
p82
(lp83
sS'pos_seq'
p84
(lp85
S'VBN'
p86
aS'NN'
p87
aS'NNS'
p88
aS'IN'
p89
aS'JJ'
p90
aS'JJ'
p91
aS'NNP'
p92
aS'NNP'
p93
aS'IN'
p94
aS'NNS'
p95
aS'IN'
p96
aS'NN'
p97
aS'IN'
p98
aS'DT'
p99
aS'NN'
p100
asS'ner_seq'
p101
(lp102
S'O'
aS'O'
aS'O'
aS'O'
aS'O'
aS'O'
aS'O'
aS'O'
aS'O'
aS'O'
aS'O'
aS'O'
aS'O'
aS'O'
aS'O'
assb.