ccopy_reg
_reconstructor
p1
(c__main__
KBproperty
p2
c__builtin__
object
p3
NtRp4
(dp5
S'comment'
p6
S'Committee in the legislature eg.: Committee on Economic and Monetary Affairs of the European Parliament.'
p7
sS'domain'
p8
S'Legislature '
p9
sS'instances_count'
p10
S'21'
p11
sS'label'
p12
S'committee in legislature'
p13
sS'range'
p14
S''
sS'prop_uri'
p15
S"'http://dbpedia.org/ontology/committeeInLegislature'"
p16
sS'annotations'
p17
(dp18
S'bag_of_words'
p19
(lp20
S'Legislature'
p21
aS'committee'
p22
aS'in'
p23
aS'legislature'
p24
aS'Committee'
p25
aS'in'
p26
aS'the'
p27
aS'legislature'
p28
aS'eg.'
p29
aS':'
aS'Committee'
p30
aS'on'
p31
aS'Economic'
p32
aS'and'
p33
aS'Monetary'
p34
aS'Affairs'
p35
aS'of'
p36
aS'the'
p37
aS'European'
p38
aS'Parliament'
p39
aS'.'
asS'chunk_seq'
p40
(lp41
S'B-NP'
p42
aS'E-NP'
p43
aS'S-PP'
p44
aS'B-NP'
p45
aS'E-NP'
p46
aS'S-PP'
p47
aS'B-NP'
p48
aS'E-NP'
p49
aS'S-ADVP'
p50
aS'O'
aS'S-NP'
p51
aS'S-PP'
p52
aS'B-NP'
p53
aS'I-NP'
p54
aS'I-NP'
p55
aS'E-NP'
p56
aS'S-PP'
p57
aS'B-NP'
p58
aS'I-NP'
p59
aS'E-NP'
p60
aS'O'
asS'dep_seq'
p61
(lp62
(lp63
S'nn'
p64
aS'2'
aS'1'
aa(lp65
S'root'
p66
aS'0'
aS'2'
aa(lp67
S'nn'
p68
aS'5'
aS'4'
aa(lp69
S'prep_in'
p70
aS'2'
aS'5'
aa(lp71
S'det'
p72
aS'8'
aS'7'
aa(lp73
S'prep_in'
p74
aS'2'
aS'8'
aa(lp75
S'advmod'
p76
aS'2'
aS'9'
aa(lp77
S'dep'
p78
aS'2'
aS'11'
p79
aa(lp80
S'amod'
p81
aS'16'
p82
aS'13'
p83
aa(lp84
S'conj_and'
p85
aS'13'
p86
aS'15'
p87
aa(lp88
S'prep_on'
p89
aS'11'
p90
aS'16'
p91
aa(lp92
S'det'
p93
aS'20'
p94
aS'18'
p95
aa(lp96
S'nn'
p97
aS'20'
p98
aS'19'
p99
aa(lp100
S'prep_of'
p101
aS'16'
p102
aS'20'
p103
aasS'srls'
p104
(lp105
sS'pos_seq'
p106
(lp107
S'NN'
p108
aS'NN'
p109
aS'IN'
p110
aS'NN'
p111
aS'NNP'
p112
aS'IN'
p113
aS'DT'
p114
aS'NN'
p115
aS'RB'
p116
aS':'
aS'NN'
p117
aS'IN'
p118
aS'NNP'
p119
aS'CC'
p120
aS'NNP'
p121
aS'NNP'
p122
aS'IN'
p123
aS'DT'
p124
aS'NNP'
p125
aS'NNP'
p126
aS'.'
asS'ner_seq'
p127
(lp128
S'O'
aS'O'
aS'O'
aS'O'
aS'O'
aS'O'
aS'O'
aS'O'
aS'O'
aS'O'
aS'O'
aS'O'
aS'O'
aS'O'
aS'B-ORG'
p129
aS'I-ORG'
p130
aS'I-ORG'
p131
aS'I-ORG'
p132
aS'I-ORG'
p133
aS'E-ORG'
p134
aS'O'
assb.