ccopy_reg
_reconstructor
p1
(c__main__
KBproperty
p2
c__builtin__
object
p3
NtRp4
(dp5
S'comment'
p6
S''
sS'domain'
p7
S''
sS'instances_count'
p8
S'23343'
p9
sS'label'
p10
S'draft year'
p11
sS'range'
p12
S'g Year '
p13
sS'prop_uri'
p14
S"'http://dbpedia.org/ontology/draftYear'"
p15
sS'annotations'
p16
(dp17
S'bag_of_words'
p18
(lp19
S'draft'
p20
aS'year'
p21
aS'g'
aS'Year'
p22
asS'chunk_seq'
p23
(lp24
S'B-NP'
p25
aS'I-NP'
p26
aS'I-NP'
p27
aS'E-NP'
p28
asS'dep_seq'
p29
(lp30
(lp31
S'nn'
p32
aS'4'
aS'1'
aa(lp33
S'nn'
p34
aS'4'
aS'2'
aa(lp35
S'nn'
p36
aS'4'
aS'3'
aa(lp37
S'root'
p38
aS'0'
aS'4'
aasS'srls'
p39
(lp40
sS'pos_seq'
p41
(lp42
S'NN'
p43
aS'NN'
p44
aS'NN'
p45
aS'NN'
p46
asS'ner_seq'
p47
(lp48
S'O'
aS'O'
aS'O'
aS'O'
assb.