ccopy_reg
_reconstructor
p1
(c__main__
KBproperty
p2
c__builtin__
object
p3
NtRp4
(dp5
S'comment'
p6
S'Ascent of a celestial body aircraft etc. For person who ascended a mountain use firstAscent'
p7
sS'domain'
p8
S''
sS'instances_count'
p9
S'0'
sS'label'
p10
S'ascent'
p11
sS'range'
p12
S'string '
p13
sS'prop_uri'
p14
S"'http://dbpedia.org/ontology/ascent'"
p15
sS'annotations'
p16
(dp17
S'bag_of_words'
p18
(lp19
S'ascent'
p20
aS'string'
p21
aS'Ascent'
p22
aS'of'
p23
aS'a'
aS'celestial'
p24
aS'body'
p25
aS'aircraft'
p26
aS'etc.'
p27
aS'For'
p28
aS'person'
p29
aS'who'
p30
aS'ascended'
p31
aS'a'
aS'mountain'
p32
aS'use'
p33
aS'firstAscent'
p34
asS'chunk_seq'
p35
(lp36
S'B-NP'
p37
aS'I-NP'
p38
aS'E-NP'
p39
aS'S-PP'
p40
aS'B-NP'
p41
aS'I-NP'
p42
aS'I-NP'
p43
aS'I-NP'
p44
aS'E-NP'
p45
aS'S-PP'
p46
aS'S-NP'
p47
aS'S-NP'
p48
aS'S-VP'
p49
aS'B-NP'
p50
aS'I-NP'
p51
aS'I-NP'
p52
aS'E-NP'
p53
asS'dep_seq'
p54
(lp55
(lp56
S'nn'
p57
aS'3'
aS'1'
aa(lp58
S'nn'
p59
aS'3'
aS'2'
aa(lp60
S'root'
p61
aS'0'
aS'3'
aa(lp62
S'det'
p63
aS'8'
aS'5'
aa(lp64
S'amod'
p65
aS'8'
aS'6'
aa(lp66
S'nn'
p67
aS'8'
aS'7'
aa(lp68
S'prep_of'
p69
aS'3'
aS'8'
aa(lp70
S'dep'
p71
aS'10'
p72
aS'9'
aa(lp73
S'dep'
p74
aS'3'
aS'10'
p75
aa(lp76
S'pobj'
p77
aS'10'
p78
aS'11'
p79
aa(lp80
S'nsubj'
p81
aS'13'
p82
aS'11'
p83
aa(lp84
S'rcmod'
p85
aS'11'
p86
aS'13'
p87
aa(lp88
S'det'
p89
aS'17'
p90
aS'14'
p91
aa(lp92
S'nn'
p93
aS'17'
p94
aS'15'
p95
aa(lp96
S'nn'
p97
aS'17'
p98
aS'16'
p99
aa(lp100
S'dobj'
p101
aS'13'
p102
aS'17'
p103
aasS'srls'
p104
(lp105
(dp106
S'A1'
p107
S'a mountain use'
p108
sS'A0'
p109
g29
sS'R-A0'
p110
g30
sS'V'
g31
sasS'pos_seq'
p111
(lp112
S'NN'
p113
aS'NN'
p114
aS'NN'
p115
aS'IN'
p116
aS'DT'
p117
aS'JJ'
p118
aS'NN'
p119
aS'NN'
p120
aS'NN'
p121
aS'IN'
p122
aS'NN'
p123
aS'WP'
p124
aS'VBD'
p125
aS'DT'
p126
aS'NN'
p127
aS'NN'
p128
aS'NN'
p129
asS'ner_seq'
p130
(lp131
S'O'
aS'O'
aS'O'
aS'O'
aS'O'
aS'O'
aS'O'
aS'O'
aS'O'
aS'O'
aS'O'
aS'O'
aS'O'
aS'O'
aS'O'
aS'O'
aS'S-LOC'
p132
assb.