ccopy_reg
_reconstructor
p1
(c__main__
KBproperty
p2
c__builtin__
object
p3
NtRp4
(dp5
S'comment'
p6
S'Region related vehicle code on the vehicle plates.'
p7
sS'domain'
p8
S'Place '
p9
sS'instances_count'
p10
S'0'
sS'label'
p11
S'vehicle code'
p12
sS'range'
p13
S'string '
p14
sS'prop_uri'
p15
S"'http://dbpedia.org/ontology/vehicleCode'"
p16
sS'annotations'
p17
(dp18
S'bag_of_words'
p19
(lp20
S'Place'
p21
aS'vehicle'
p22
aS'code'
p23
aS'string'
p24
aS'Region'
p25
aS'related'
p26
aS'vehicle'
p27
aS'code'
p28
aS'on'
p29
aS'the'
p30
aS'vehicle'
p31
aS'plates'
p32
aS'.'
asS'chunk_seq'
p33
(lp34
S'B-NP'
p35
aS'I-NP'
p36
aS'I-NP'
p37
aS'I-NP'
p38
aS'I-NP'
p39
aS'I-NP'
p40
aS'I-NP'
p41
aS'E-NP'
p42
aS'S-PP'
p43
aS'B-NP'
p44
aS'I-NP'
p45
aS'E-NP'
p46
aS'O'
asS'dep_seq'
p47
(lp48
(lp49
S'nn'
p50
aS'8'
aS'1'
aa(lp51
S'nn'
p52
aS'8'
aS'2'
aa(lp53
S'nn'
p54
aS'8'
aS'3'
aa(lp55
S'nn'
p56
aS'8'
aS'4'
aa(lp57
S'nn'
p58
aS'8'
aS'5'
aa(lp59
S'amod'
p60
aS'8'
aS'6'
aa(lp61
S'nn'
p62
aS'8'
aS'7'
aa(lp63
S'root'
p64
aS'0'
aS'8'
aa(lp65
S'det'
p66
aS'12'
p67
aS'10'
p68
aa(lp69
S'nn'
p70
aS'12'
p71
aS'11'
p72
aa(lp73
S'prep_on'
p74
aS'8'
aS'12'
p75
aasS'srls'
p76
(lp77
(dp78
S'A1'
p79
S'Place vehicle code string Region  vehicle code'
p80
sS'V'
g26
sasS'pos_seq'
p81
(lp82
S'NN'
p83
aS'NN'
p84
aS'NN'
p85
aS'NN'
p86
aS'NNP'
p87
aS'JJ'
p88
aS'NN'
p89
aS'NN'
p90
aS'IN'
p91
aS'DT'
p92
aS'NN'
p93
aS'NNS'
p94
aS'.'
asS'ner_seq'
p95
(lp96
S'O'
aS'O'
aS'O'
aS'O'
aS'O'
aS'O'
aS'O'
aS'O'
aS'O'
aS'O'
aS'O'
aS'O'
aS'O'
assb.