ccopy_reg
_reconstructor
p1
(c__main__
KBproperty
p2
c__builtin__
object
p3
NtRp4
(dp5
S'comment'
p6
S''
sS'domain'
p7
S'Mean Of Transportation '
p8
sS'instances_count'
p9
S'4094'
p10
sS'label'
p11
S'power type'
p12
sS'range'
p13
S''
sS'prop_uri'
p14
S"'http://dbpedia.org/ontology/powerType'"
p15
sS'annotations'
p16
(dp17
S'bag_of_words'
p18
(lp19
S'Mean'
p20
aS'Of'
p21
aS'Transportation'
p22
aS'power'
p23
aS'type'
p24
asS'chunk_seq'
p25
(lp26
S'S-NP'
p27
aS'S-PP'
p28
aS'B-NP'
p29
aS'I-NP'
p30
aS'E-NP'
p31
asS'dep_seq'
p32
(lp33
(lp34
S'root'
p35
aS'0'
aS'1'
aa(lp36
S'nn'
p37
aS'5'
aS'3'
aa(lp38
S'nn'
p39
aS'5'
aS'4'
aa(lp40
S'prep_of'
p41
aS'1'
aS'5'
aasS'srls'
p42
(lp43
sS'pos_seq'
p44
(lp45
S'NNP'
p46
aS'IN'
p47
aS'NNP'
p48
aS'NN'
p49
aS'NN'
p50
asS'ner_seq'
p51
(lp52
S'O'
aS'B-ORG'
p53
aS'E-ORG'
p54
aS'O'
aS'O'
assb.