ccopy_reg
_reconstructor
p1
(c__main__
KBproperty
p2
c__builtin__
object
p3
NtRp4
(dp5
S'comment'
p6
S'Link to the Wikipage history URL'
p7
sS'domain'
p8
S''
sS'instances_count'
p9
S'0'
sS'label'
p10
g7
sS'range'
p11
S''
sS'prop_uri'
p12
S"'http://dbpedia.org/ontology/wikiPageHistoryLink'"
p13
sS'annotations'
p14
(dp15
S'bag_of_words'
p16
(lp17
S'wiki'
p18
aS'Page'
p19
aS'History'
p20
aS'Link'
p21
aS'Link'
p22
aS'to'
p23
aS'the'
p24
aS'Wikipage'
p25
aS'history'
p26
aS'URL'
p27
asS'chunk_seq'
p28
(lp29
S'B-NP'
p30
aS'I-NP'
p31
aS'I-NP'
p32
aS'I-NP'
p33
aS'E-NP'
p34
aS'S-PP'
p35
aS'B-NP'
p36
aS'I-NP'
p37
aS'I-NP'
p38
aS'E-NP'
p39
asS'dep_seq'
p40
(lp41
(lp42
S'nn'
p43
aS'5'
aS'1'
aa(lp44
S'nn'
p45
aS'5'
aS'2'
aa(lp46
S'nn'
p47
aS'5'
aS'3'
aa(lp48
S'nn'
p49
aS'5'
aS'4'
aa(lp50
S'root'
p51
aS'0'
aS'5'
aa(lp52
S'det'
p53
aS'10'
p54
aS'7'
aa(lp55
S'nn'
p56
aS'10'
p57
aS'8'
aa(lp58
S'nn'
p59
aS'10'
p60
aS'9'
aa(lp61
S'prep_to'
p62
aS'5'
aS'10'
p63
aasS'srls'
p64
(lp65
sS'pos_seq'
p66
(lp67
S'NN'
p68
aS'NNP'
p69
aS'NNP'
p70
aS'NNP'
p71
aS'NNP'
p72
aS'TO'
p73
aS'DT'
p74
aS'NNP'
p75
aS'NN'
p76
aS'NN'
p77
asS'ner_seq'
p78
(lp79
S'O'
aS'O'
aS'O'
aS'O'
aS'O'
aS'O'
aS'O'
aS'S-MISC'
p80
aS'O'
aS'O'
assb.