ccopy_reg
_reconstructor
p1
(c__main__
KBproperty
p2
c__builtin__
object
p3
NtRp4
(dp5
S'comment'
p6
S'A document cited by this work. Like OntologyProperty:dct:references but as a datatype property.'
p7
sS'domain'
p8
S'Work '
p9
sS'instances_count'
p10
S'0'
sS'label'
p11
S'cites'
p12
sS'range'
p13
S'string '
p14
sS'prop_uri'
p15
S"'http://dbpedia.org/ontology/cites'"
p16
sS'annotations'
p17
(dp18
S'bag_of_words'
p19
(lp20
S'Work'
p21
aS'cites'
p22
aS'string'
p23
aS'A'
aS'document'
p24
aS'cited'
p25
aS'by'
p26
aS'this'
p27
aS'work.'
p28
aS'Like'
p29
aS'OntologyProperty'
p30
aS':'
aS'dct'
p31
aS':'
aS'references'
p32
aS'but'
p33
aS'as'
p34
aS'a'
aS'datatype'
p35
aS'property'
p36
aS'.'
asS'chunk_seq'
p37
(lp38
S'S-NP'
p39
aS'S-VP'
p40
aS'B-NP'
p41
aS'I-NP'
p42
aS'E-NP'
p43
aS'S-VP'
p44
aS'S-PP'
p45
aS'B-NP'
p46
aS'E-NP'
p47
aS'S-PP'
p48
aS'S-NP'
p49
aS'O'
aS'S-NP'
p50
aS'O'
aS'S-NP'
p51
aS'O'
aS'S-PP'
p52
aS'B-NP'
p53
aS'I-NP'
p54
aS'E-NP'
p55
aS'O'
asS'dep_seq'
p56
(lp57
(lp58
S'nsubj'
p59
aS'2'
aS'1'
aa(lp60
S'root'
p61
aS'0'
aS'2'
aa(lp62
S'iobj'
p63
aS'2'
aS'3'
aa(lp64
S'det'
p65
aS'5'
aS'4'
aa(lp66
S'dobj'
p67
aS'2'
aS'5'
aa(lp68
S'partmod'
p69
aS'5'
aS'6'
aa(lp70
S'det'
p71
aS'9'
aS'8'
aa(lp72
S'agent'
p73
aS'6'
aS'9'
aa(lp74
S'prep_like'
p75
aS'6'
aS'11'
p76
aa(lp77
S'dep'
p78
aS'11'
p79
aS'13'
p80
aa(lp81
S'dep'
p82
aS'11'
p83
aS'15'
p84
aa(lp85
S'cc'
p86
aS'15'
p87
aS'16'
p88
aa(lp89
S'det'
p90
aS'20'
p91
aS'18'
p92
aa(lp93
S'nn'
p94
aS'20'
p95
aS'19'
p96
aa(lp97
S'prep_as'
p98
aS'15'
p99
aS'20'
p100
aasS'srls'
p101
(lp102
(dp103
S'A1'
p104
S'string A document cited by this work. Like OntologyProperty : dct : references but as a datatype property'
p105
sS'A0'
p106
g21
sS'V'
g22
sa(dp107
S'A1'
p108
S'A document'
p109
sS'A0'
p110
S'by this work. Like OntologyProperty'
p111
sS'V'
g25
sasS'pos_seq'
p112
(lp113
S'NN'
p114
aS'VBZ'
p115
aS'NN'
p116
aS'DT'
p117
aS'NN'
p118
aS'VBN'
p119
aS'IN'
p120
aS'DT'
p121
aS'NN'
p122
aS'IN'
p123
aS'NNP'
p124
aS':'
aS'NN'
p125
aS':'
aS'NNS'
p126
aS'CC'
p127
aS'IN'
p128
aS'DT'
p129
aS'NN'
p130
aS'NN'
p131
aS'.'
asS'ner_seq'
p132
(lp133
S'O'
aS'O'
aS'O'
aS'O'
aS'O'
aS'O'
aS'O'
aS'O'
aS'O'
aS'O'
aS'O'
aS'O'
aS'O'
aS'O'
aS'O'
aS'O'
aS'O'
aS'O'
aS'O'
aS'O'
aS'O'
assb.