ccopy_reg
_reconstructor
p1
(c__main__
KBproperty
p2
c__builtin__
object
p3
NtRp4
(dp5
S'comment'
p6
S'Illustrator where used throughout and a major feature'
p7
sS'domain'
p8
S'Written Work '
p9
sS'instances_count'
p10
S'3014'
p11
sS'label'
p12
S'illustrator'
p13
sS'range'
p14
S'Person '
p15
sS'prop_uri'
p16
S"'http://dbpedia.org/ontology/illustrator'"
p17
sS'annotations'
p18
(dp19
S'bag_of_words'
p20
(lp21
S'Written'
p22
aS'Work'
p23
aS'illustrator'
p24
aS'Person'
p25
aS'Illustrator'
p26
aS'where'
p27
aS'used'
p28
aS'throughout'
p29
aS'and'
p30
aS'a'
aS'major'
p31
aS'feature'
p32
asS'chunk_seq'
p33
(lp34
S'B-NP'
p35
aS'I-NP'
p36
aS'I-NP'
p37
aS'I-NP'
p38
aS'E-NP'
p39
aS'S-ADVP'
p40
aS'S-VP'
p41
aS'S-PP'
p42
aS'O'
aS'B-NP'
p43
aS'I-NP'
p44
aS'E-NP'
p45
asS'dep_seq'
p46
(lp47
(lp48
S'nn'
p49
aS'5'
aS'1'
aa(lp50
S'nn'
p51
aS'5'
aS'2'
aa(lp52
S'nn'
p53
aS'5'
aS'3'
aa(lp54
S'nn'
p55
aS'5'
aS'4'
aa(lp56
S'root'
p57
aS'0'
aS'5'
aa(lp58
S'advmod'
p59
aS'7'
aS'6'
aa(lp60
S'rcmod'
p61
aS'5'
aS'7'
aa(lp62
S'prep'
p63
aS'7'
aS'8'
aa(lp64
S'det'
p65
aS'12'
p66
aS'10'
p67
aa(lp68
S'amod'
p69
aS'12'
p70
aS'11'
p71
aa(lp72
S'conj_and'
p73
aS'5'
aS'12'
p74
aasS'srls'
p75
(lp76
(dp77
S'A1'
p78
S'Written Work illustrator Person Illustrator'
p79
sS'AM-LOC'
p80
S'throughout and a major feature'
p81
sS'R-A1'
p82
g27
sS'V'
g28
sasS'pos_seq'
p83
(lp84
S'NNP'
p85
aS'NNP'
p86
aS'NN'
p87
aS'NNP'
p88
aS'NNP'
p89
aS'WRB'
p90
aS'VBN'
p91
aS'IN'
p92
aS'CC'
p93
aS'DT'
p94
aS'JJ'
p95
aS'NN'
p96
asS'ner_seq'
p97
(lp98
S'O'
aS'O'
aS'O'
aS'O'
aS'O'
aS'O'
aS'O'
aS'O'
aS'O'
aS'O'
aS'O'
aS'O'
assb.