ccopy_reg
_reconstructor
p1
(c__main__
KBproperty
p2
c__builtin__
object
p3
NtRp4
(dp5
S'comment'
p6
S'distance to capital \\xce\\xbc'
p7
sS'domain'
p8
S'Settlement '
p9
sS'instances_count'
p10
S'0'
sS'label'
p11
g7
sS'range'
p12
S'double '
p13
sS'prop_uri'
p14
S"'http://dbpedia.org/ontology/distanceToCapital'"
p15
sS'annotations'
p16
(dp17
S'bag_of_words'
p18
(lp19
S'Settlement'
p20
aS'distance'
p21
aS'To'
p22
aS'Capital'
p23
aS'double'
p24
aS'distance'
p25
aS'to'
p26
aS'capital'
p27
aS'\\'
aS'xce'
p28
aS'\\'
aS'xbc'
p29
asS'chunk_seq'
p30
(lp31
S'B-NP'
p32
aS'E-NP'
p33
aS'S-PP'
p34
aS'B-NP'
p35
aS'I-NP'
p36
aS'E-NP'
p37
aS'S-PP'
p38
aS'S-NP'
p39
aS'O'
aS'O'
aS'O'
aS'O'
asS'dep_seq'
p40
(lp41
(lp42
S'nn'
p43
aS'2'
aS'1'
aa(lp44
S'root'
p45
aS'0'
aS'2'
aa(lp46
S'amod'
p47
aS'6'
aS'4'
aa(lp48
S'amod'
p49
aS'6'
aS'5'
aa(lp50
S'prep_to'
p51
aS'2'
aS'6'
aa(lp52
S'prep_to'
p53
aS'6'
aS'8'
aa(lp54
S'nn'
p55
aS'12'
p56
aS'9'
aa(lp57
S'nn'
p58
aS'12'
p59
aS'10'
p60
aa(lp61
S'nn'
p62
aS'12'
p63
aS'11'
p64
aa(lp65
S'dep'
p66
aS'2'
aS'12'
p67
aasS'srls'
p68
(lp69
sS'pos_seq'
p70
(lp71
S'NN'
p72
aS'NN'
p73
aS'TO'
p74
aS'JJ'
p75
aS'JJ'
p76
aS'NN'
p77
aS'TO'
p78
aS'NN'
p79
aS'FW'
p80
aS'FW'
p81
aS'FW'
p82
aS'FW'
p83
asS'ner_seq'
p84
(lp85
S'O'
aS'O'
aS'O'
aS'O'
aS'O'
aS'O'
aS'O'
aS'O'
aS'O'
aS'O'
aS'O'
aS'O'
assb.