ccopy_reg
_reconstructor
p1
(c__main__
KBproperty
p2
c__builtin__
object
p3
NtRp4
(dp5
S'comment'
p6
S'The place where the person has been buried.'
p7
sS'domain'
p8
S'Person '
p9
sS'instances_count'
p10
S'1344'
p11
sS'label'
p12
S'place of burial'
p13
sS'range'
p14
S'Place '
p15
sS'prop_uri'
p16
S"'http://dbpedia.org/ontology/placeOfBurial'"
p17
sS'annotations'
p18
(dp19
S'bag_of_words'
p20
(lp21
S'Person'
p22
aS'place'
p23
aS'of'
p24
aS'burial'
p25
aS'Place'
p26
aS'The'
p27
aS'place'
p28
aS'where'
p29
aS'the'
p30
aS'person'
p31
aS'has'
p32
aS'been'
p33
aS'buried'
p34
aS'.'
asS'chunk_seq'
p35
(lp36
S'B-NP'
p37
aS'E-NP'
p38
aS'S-PP'
p39
aS'B-NP'
p40
aS'E-NP'
p41
aS'B-NP'
p42
aS'E-NP'
p43
aS'S-ADVP'
p44
aS'B-NP'
p45
aS'E-NP'
p46
aS'B-VP'
p47
aS'I-VP'
p48
aS'E-VP'
p49
aS'O'
asS'dep_seq'
p50
(lp51
(lp52
S'nn'
p53
aS'2'
aS'1'
aa(lp54
S'root'
p55
aS'0'
aS'2'
aa(lp56
S'nn'
p57
aS'5'
aS'4'
aa(lp58
S'prep_of'
p59
aS'2'
aS'5'
aa(lp60
S'det'
p61
aS'7'
aS'6'
aa(lp62
S'dep'
p63
aS'2'
aS'7'
aa(lp64
S'advmod'
p65
aS'13'
p66
aS'8'
aa(lp67
S'det'
p68
aS'10'
p69
aS'9'
aa(lp70
S'nsubjpass'
p71
aS'13'
p72
aS'10'
p73
aa(lp74
S'aux'
p75
aS'13'
p76
aS'11'
p77
aa(lp78
S'auxpass'
p79
aS'13'
p80
aS'12'
p81
aa(lp82
S'rcmod'
p83
aS'7'
aS'13'
p84
aasS'srls'
p85
(lp86
(dp87
S'A1'
p88
S'the person'
p89
sS'AM-LOC'
p90
S'burial Place The place'
p91
sS'V'
g34
sasS'pos_seq'
p92
(lp93
S'NN'
p94
aS'NN'
p95
aS'IN'
p96
aS'NN'
p97
aS'NN'
p98
aS'DT'
p99
aS'NN'
p100
aS'WRB'
p101
aS'DT'
p102
aS'NN'
p103
aS'VBZ'
p104
aS'VBN'
p105
aS'VBN'
p106
aS'.'
asS'ner_seq'
p107
(lp108
S'O'
aS'O'
aS'O'
aS'O'
aS'O'
aS'O'
aS'O'
aS'O'
aS'O'
aS'O'
aS'O'
aS'O'
aS'O'
aS'O'
assb.