ccopy_reg
_reconstructor
p1
(c__main__
KBproperty
p2
c__builtin__
object
p3
NtRp4
(dp5
S'comment'
p6
S'place close to another place'
p7
sS'domain'
p8
S'Place '
p9
sS'instances_count'
p10
S'0'
sS'label'
p11
S'is close to'
p12
sS'range'
p13
S'Place '
p14
sS'prop_uri'
p15
S"'http://dbpedia.org/ontology/closeTo'"
p16
sS'annotations'
p17
(dp18
S'bag_of_words'
p19
(lp20
S'Place'
p21
aS'is'
p22
aS'close'
p23
aS'to'
p24
aS'Place'
p25
aS'place'
p26
aS'close'
p27
aS'to'
p28
aS'another'
p29
aS'place'
p30
asS'chunk_seq'
p31
(lp32
S'S-NP'
p33
aS'S-VP'
p34
aS'S-ADJP'
p35
aS'S-PP'
p36
aS'B-NP'
p37
aS'E-NP'
p38
aS'S-ADVP'
p39
aS'S-PP'
p40
aS'B-NP'
p41
aS'E-NP'
p42
asS'dep_seq'
p43
(lp44
(lp45
S'nsubj'
p46
aS'3'
aS'1'
aa(lp47
S'cop'
p48
aS'3'
aS'2'
aa(lp49
S'root'
p50
aS'0'
aS'3'
aa(lp51
S'dep'
p52
aS'6'
aS'5'
aa(lp53
S'prep_to'
p54
aS'3'
aS'6'
aa(lp55
S'det'
p56
aS'10'
p57
aS'9'
aa(lp58
S'prep_close_to'
p59
aS'6'
aS'10'
p60
aasS'srls'
p61
(lp62
(dp63
S'A1'
p64
g26
sS'A2'
p65
S'Place  close to another place'
p66
sS'V'
g25
sasS'pos_seq'
p67
(lp68
S'NN'
p69
aS'VBZ'
p70
aS'JJ'
p71
aS'TO'
p72
aS'VB'
p73
aS'NN'
p74
aS'RB'
p75
aS'TO'
p76
aS'DT'
p77
aS'NN'
p78
asS'ner_seq'
p79
(lp80
S'O'
aS'O'
aS'O'
aS'O'
aS'O'
aS'O'
aS'O'
aS'O'
aS'O'
aS'O'
assb.