ccopy_reg
_reconstructor
p1
(c__main__
KBproperty
p2
c__builtin__
object
p3
NtRp4
(dp5
S'comment'
p6
S'an attribute of humans defined by their unequal distribution of fine motor skill between the left and right hands.'
p7
sS'domain'
p8
S'Person '
p9
sS'instances_count'
p10
S'0'
sS'label'
p11
S'handedness'
p12
sS'range'
p13
S''
sS'prop_uri'
p14
S"'http://dbpedia.org/ontology/handedness'"
p15
sS'annotations'
p16
(dp17
S'bag_of_words'
p18
(lp19
S'Person'
p20
aS'handedness'
p21
aS'an'
p22
aS'attribute'
p23
aS'of'
p24
aS'humans'
p25
aS'defined'
p26
aS'by'
p27
aS'their'
p28
aS'unequal'
p29
aS'distribution'
p30
aS'of'
p31
aS'fine'
p32
aS'motor'
p33
aS'skill'
p34
aS'between'
p35
aS'the'
p36
aS'left'
p37
aS'and'
p38
aS'right'
p39
aS'hands'
p40
aS'.'
asS'chunk_seq'
p41
(lp42
S'B-NP'
p43
aS'E-NP'
p44
aS'B-NP'
p45
aS'E-NP'
p46
aS'S-PP'
p47
aS'S-NP'
p48
aS'S-VP'
p49
aS'S-PP'
p50
aS'B-NP'
p51
aS'I-NP'
p52
aS'E-NP'
p53
aS'S-PP'
p54
aS'B-NP'
p55
aS'I-NP'
p56
aS'E-NP'
p57
aS'S-PP'
p58
aS'B-NP'
p59
aS'I-NP'
p60
aS'I-NP'
p61
aS'I-NP'
p62
aS'E-NP'
p63
aS'O'
asS'dep_seq'
p64
(lp65
(lp66
S'nn'
p67
aS'2'
aS'1'
aa(lp68
S'dep'
p69
aS'4'
aS'2'
aa(lp70
S'det'
p71
aS'4'
aS'3'
aa(lp72
S'root'
p73
aS'0'
aS'4'
aa(lp74
S'prep_of'
p75
aS'4'
aS'6'
aa(lp76
S'partmod'
p77
aS'6'
aS'7'
aa(lp78
S'poss'
p79
aS'11'
p80
aS'9'
aa(lp81
S'amod'
p82
aS'11'
p83
aS'10'
p84
aa(lp85
S'agent'
p86
aS'7'
aS'11'
p87
aa(lp88
S'amod'
p89
aS'15'
p90
aS'13'
p91
aa(lp92
S'nn'
p93
aS'15'
p94
aS'14'
p95
aa(lp96
S'prep_of'
p97
aS'11'
p98
aS'15'
p99
aa(lp100
S'det'
p101
aS'21'
p102
aS'17'
p103
aa(lp104
S'nn'
p105
aS'21'
p106
aS'18'
p107
aa(lp108
S'conj_and'
p109
aS'18'
p110
aS'20'
p111
aa(lp112
S'prep_between'
p113
aS'11'
p114
aS'21'
p115
aasS'srls'
p116
(lp117
(dp118
S'A1'
p119
S'an attribute of humans'
p120
sS'A0'
p121
g20
sS'V'
g21
sa(dp122
S'A1'
p123
g25
sS'A0'
p124
S'by their unequal distribution of fine motor skill between the left and right hands'
p125
sS'V'
g26
sasS'pos_seq'
p126
(lp127
S'NN'
p128
aS'NN'
p129
aS'DT'
p130
aS'NN'
p131
aS'IN'
p132
aS'NNS'
p133
aS'VBN'
p134
aS'IN'
p135
aS'PRP$'
p136
aS'JJ'
p137
aS'NN'
p138
aS'IN'
p139
aS'JJ'
p140
aS'NN'
p141
aS'NN'
p142
aS'IN'
p143
aS'DT'
p144
aS'NN'
p145
aS'CC'
p146
aS'JJ'
p147
aS'NNS'
p148
aS'.'
asS'ner_seq'
p149
(lp150
S'O'
aS'O'
aS'O'
aS'O'
aS'O'
aS'O'
aS'O'
aS'O'
aS'O'
aS'O'
aS'O'
aS'O'
aS'O'
aS'O'
aS'O'
aS'O'
aS'O'
aS'O'
aS'O'
aS'O'
aS'O'
aS'O'
assb.