ccopy_reg
_reconstructor
p1
(c__main__
KBproperty
p2
c__builtin__
object
p3
NtRp4
(dp5
S'comment'
p6
S''
sS'domain'
p7
S'Space Mission '
p8
sS'instances_count'
p9
S'0'
sS'label'
p10
S'CMP EVA duration s'
p11
sS'range'
p12
S'double '
p13
sS'prop_uri'
p14
S"'http://dbpedia.org/ontology/cmpEvaDuration'"
p15
sS'annotations'
p16
(dp17
S'bag_of_words'
p18
(lp19
S'Space'
p20
aS'Mission'
p21
aS'CMP'
p22
aS'EVA'
p23
aS'duration'
p24
aS's'
aS'double'
p25
asS'chunk_seq'
p26
(lp27
S'B-NP'
p28
aS'E-NP'
p29
aS'B-NP'
p30
aS'E-NP'
p31
aS'S-VP'
p32
aS'S-NP'
p33
aS'S-ADVP'
p34
asS'dep_seq'
p35
(lp36
(lp37
S'nn'
p38
aS'4'
aS'1'
aa(lp39
S'nn'
p40
aS'4'
aS'2'
aa(lp41
S'nn'
p42
aS'4'
aS'3'
aa(lp43
S'nsubj'
p44
aS'5'
aS'4'
aa(lp45
S'root'
p46
aS'0'
aS'5'
aa(lp47
S'dobj'
p48
aS'5'
aS'6'
aa(lp49
S'advmod'
p50
aS'6'
aS'7'
aasS'srls'
p51
(lp52
(dp53
S'A1'
p54
S'Space Mission CMP EVA  s double'
p55
sS'V'
g24
sasS'pos_seq'
p56
(lp57
S'NNP'
p58
aS'NNP'
p59
aS'NNP'
p60
aS'NNP'
p61
aS'VBP'
p62
aS'PRP'
p63
aS'RB'
p64
asS'ner_seq'
p65
(lp66
S'B-ORG'
p67
aS'I-ORG'
p68
aS'I-ORG'
p69
aS'E-ORG'
p70
aS'O'
aS'O'
aS'O'
assb.