ccopy_reg
_reconstructor
p1
(c__main__
KBproperty
p2
c__builtin__
object
p3
NtRp4
(dp5
S'comment'
p6
S''
sS'domain'
p7
S''
sS'instances_count'
p8
S'36850'
p9
sS'label'
p10
S'area total sq mi'
p11
sS'range'
p12
S''
sS'prop_uri'
p13
S"'http://dbpedia.org/property/areaTotalSqMi'"
p14
sS'annotations'
p15
(dp16
S'bag_of_words'
p17
(lp18
S'area'
p19
aS'total'
p20
aS'sq'
p21
aS'mi'
p22
asS'chunk_seq'
p23
(lp24
S'O'
aS'O'
aS'O'
aS'O'
asS'dep_seq'
p25
(lp26
(lp27
S'root'
p28
aS'0'
aS'1'
aa(lp29
S'nn'
p30
aS'1'
aS'2'
aa(lp31
S'nn'
p32
aS'1'
aS'3'
aa(lp33
S'dep'
p34
aS'1'
aS'4'
aasS'srls'
p35
(lp36
sS'pos_seq'
p37
(lp38
S'NN'
p39
aS'FW'
p40
aS'FW'
p41
aS'FW'
p42
asS'ner_seq'
p43
(lp44
S'O'
aS'O'
aS'O'
aS'O'
assb.