ccopy_reg
_reconstructor
p1
(c__main__
KBproperty
p2
c__builtin__
object
p3
NtRp4
(dp5
S'comment'
p6
S'vehicle that uses a specific automobile platform'
p7
sS'domain'
p8
S''
sS'instances_count'
p9
S'157'
p10
sS'label'
p11
S'vehicle'
p12
sS'range'
p13
S'Automobile '
p14
sS'prop_uri'
p15
S"'http://dbpedia.org/ontology/vehicle'"
p16
sS'annotations'
p17
(dp18
S'bag_of_words'
p19
(lp20
S'vehicle'
p21
aS'Automobile'
p22
aS'vehicle'
p23
aS'that'
p24
aS'uses'
p25
aS'a'
aS'specific'
p26
aS'automobile'
p27
aS'platform'
p28
asS'chunk_seq'
p29
(lp30
S'B-NP'
p31
aS'I-NP'
p32
aS'E-NP'
p33
aS'S-NP'
p34
aS'S-VP'
p35
aS'B-NP'
p36
aS'I-NP'
p37
aS'I-NP'
p38
aS'E-NP'
p39
asS'dep_seq'
p40
(lp41
(lp42
S'nn'
p43
aS'3'
aS'1'
aa(lp44
S'nn'
p45
aS'3'
aS'2'
aa(lp46
S'root'
p47
aS'0'
aS'3'
aa(lp48
S'nsubj'
p49
aS'5'
aS'3'
aa(lp50
S'rcmod'
p51
aS'3'
aS'5'
aa(lp52
S'det'
p53
aS'9'
aS'6'
aa(lp54
S'amod'
p55
aS'9'
aS'7'
aa(lp56
S'nn'
p57
aS'9'
aS'8'
aa(lp58
S'dobj'
p59
aS'5'
aS'9'
aasS'srls'
p60
(lp61
(dp62
S'A1'
p63
S'a specific automobile platform'
p64
sS'A0'
p65
S'vehicle Automobile vehicle'
p66
sS'R-A0'
p67
g24
sS'V'
g25
sasS'pos_seq'
p68
(lp69
S'NN'
p70
aS'NN'
p71
aS'NN'
p72
aS'WDT'
p73
aS'VBZ'
p74
aS'DT'
p75
aS'JJ'
p76
aS'NN'
p77
aS'NN'
p78
asS'ner_seq'
p79
(lp80
S'O'
aS'O'
aS'O'
aS'O'
aS'O'
aS'O'
aS'O'
aS'O'
aS'O'
assb.