ccopy_reg
_reconstructor
p1
(c__main__
KBproperty
p2
c__builtin__
object
p3
NtRp4
(dp5
S'comment'
p6
S''
sS'domain'
p7
S'Sport Competition Result '
p8
sS'instances_count'
p9
S'628'
p10
sS'label'
p11
S'number of bronze medals won'
p12
sS'range'
p13
S'non Negative Integer '
p14
sS'prop_uri'
p15
S"'http://dbpedia.org/ontology/numberOfBronzeMedalsWon'"
p16
sS'annotations'
p17
(dp18
S'bag_of_words'
p19
(lp20
S'Sport'
p21
aS'Competition'
p22
aS'Result'
p23
aS'number'
p24
aS'of'
p25
aS'bronze'
p26
aS'medals'
p27
aS'won'
p28
aS'non'
p29
aS'Negative'
p30
aS'Integer'
p31
asS'chunk_seq'
p32
(lp33
S'B-NP'
p34
aS'I-NP'
p35
aS'I-NP'
p36
aS'E-NP'
p37
aS'S-PP'
p38
aS'B-NP'
p39
aS'E-NP'
p40
aS'S-VP'
p41
aS'B-NP'
p42
aS'I-NP'
p43
aS'E-NP'
p44
asS'dep_seq'
p45
(lp46
(lp47
S'nn'
p48
aS'2'
aS'1'
aa(lp49
S'nn'
p50
aS'3'
aS'2'
aa(lp51
S'dep'
p52
aS'4'
aS'3'
aa(lp53
S'root'
p54
aS'0'
aS'4'
aa(lp55
S'nn'
p56
aS'7'
aS'6'
aa(lp57
S'prep_of'
p58
aS'4'
aS'7'
aa(lp59
S'partmod'
p60
aS'4'
aS'8'
aa(lp61
S'amod'
p62
aS'11'
p63
aS'9'
aa(lp64
S'amod'
p65
aS'11'
p66
aS'10'
p67
aa(lp68
S'dobj'
p69
aS'8'
aS'11'
p70
aasS'srls'
p71
(lp72
(dp73
S'A1'
p74
S'non Negative Integer'
p75
sS'A0'
p76
S'Sport Competition Result number of bronze medals'
p77
sS'V'
g28
sasS'pos_seq'
p78
(lp79
S'NNP'
p80
aS'NNP'
p81
aS'NNP'
p82
aS'NN'
p83
aS'IN'
p84
aS'NN'
p85
aS'NNS'
p86
aS'VBD'
p87
aS'JJ'
p88
aS'JJ'
p89
aS'NN'
p90
asS'ner_seq'
p91
(lp92
S'B-ORG'
p93
aS'E-ORG'
p94
aS'O'
aS'O'
aS'O'
aS'O'
aS'O'
aS'O'
aS'O'
aS'B-MISC'
p95
aS'E-MISC'
p96
assb.