ccopy_reg
_reconstructor
p1
(c__main__
KBproperty
p2
c__builtin__
object
p3
NtRp4
(dp5
S'comment'
p6
S''
sS'domain'
p7
S''
sS'instances_count'
p8
S'975'
p9
sS'label'
p10
S'number of rooms'
p11
sS'range'
p12
S''
sS'prop_uri'
p13
S"'http://dbpedia.org/property/numberOfRooms'"
p14
sS'annotations'
p15
(dp16
S'bag_of_words'
p17
(lp18
S'number'
p19
aS'of'
p20
aS'rooms'
p21
asS'chunk_seq'
p22
(lp23
S'S-NP'
p24
aS'S-PP'
p25
aS'S-NP'
p26
asS'dep_seq'
p27
(lp28
(lp29
S'root'
p30
aS'0'
aS'1'
aa(lp31
S'prep_of'
p32
aS'1'
aS'3'
aasS'srls'
p33
(lp34
sS'pos_seq'
p35
(lp36
S'NN'
p37
aS'IN'
p38
aS'NNS'
p39
asS'ner_seq'
p40
(lp41
S'O'
aS'O'
aS'O'
assb.