ccopy_reg
_reconstructor
p1
(c__main__
KBproperty
p2
c__builtin__
object
p3
NtRp4
(dp5
S'comment'
p6
S''
sS'domain'
p7
S'Planet '
p8
sS'instances_count'
p9
S'226'
p10
sS'label'
p11
S'apparent magnitude'
p12
sS'range'
p13
S'double '
p14
sS'prop_uri'
p15
S"'http://dbpedia.org/ontology/apparentMagnitude'"
p16
sS'annotations'
p17
(dp18
S'bag_of_words'
p19
(lp20
S'Planet'
p21
aS'apparent'
p22
aS'magnitude'
p23
aS'double'
p24
asS'chunk_seq'
p25
(lp26
S'B-NP'
p27
aS'I-NP'
p28
aS'E-NP'
p29
aS'O'
asS'dep_seq'
p30
(lp31
(lp32
S'npadvmod'
p33
aS'2'
aS'1'
aa(lp34
S'amod'
p35
aS'3'
aS'2'
aa(lp36
S'root'
p37
aS'0'
aS'3'
aa(lp38
S'advmod'
p39
aS'3'
aS'4'
aasS'srls'
p40
(lp41
sS'pos_seq'
p42
(lp43
S'NN'
p44
aS'JJ'
p45
aS'NN'
p46
aS'RB'
p47
asS'ner_seq'
p48
(lp49
S'O'
aS'O'
aS'O'
aS'O'
assb.