ccopy_reg
_reconstructor
p1
(c__main__
KBproperty
p2
c__builtin__
object
p3
NtRp4
(dp5
S'comment'
p6
S'unique reference number URN'
p7
sS'domain'
p8
S'School '
p9
sS'instances_count'
p10
S'0'
sS'label'
p11
g7
sS'range'
p12
S''
sS'prop_uri'
p13
S"'http://dbpedia.org/ontology/uRN'"
p14
sS'annotations'
p15
(dp16
S'bag_of_words'
p17
(lp18
S'School'
p19
aS'u'
aS'unique'
p20
aS'reference'
p21
aS'number'
p22
aS'URN'
p23
asS'chunk_seq'
p24
(lp25
S'B-NP'
p26
aS'I-NP'
p27
aS'I-NP'
p28
aS'I-NP'
p29
aS'I-NP'
p30
aS'E-NP'
p31
asS'dep_seq'
p32
(lp33
(lp34
S'nn'
p35
aS'6'
aS'1'
aa(lp36
S'nn'
p37
aS'6'
aS'2'
aa(lp38
S'amod'
p39
aS'6'
aS'3'
aa(lp40
S'nn'
p41
aS'6'
aS'4'
aa(lp42
S'nn'
p43
aS'6'
aS'5'
aa(lp44
S'root'
p45
aS'0'
aS'6'
aasS'srls'
p46
(lp47
sS'pos_seq'
p48
(lp49
S'NN'
p50
aS'NN'
p51
aS'JJ'
p52
aS'NN'
p53
aS'NN'
p54
aS'NN'
p55
asS'ner_seq'
p56
(lp57
S'O'
aS'O'
aS'O'
aS'O'
aS'O'
aS'O'
assb.