ccopy_reg
_reconstructor
p1
(c__main__
KBproperty
p2
c__builtin__
object
p3
NtRp4
(dp5
S'comment'
p6
S''
sS'domain'
p7
S''
sS'instances_count'
p8
S'162'
p9
sS'label'
p10
S'charingX distance mi'
p11
sS'range'
p12
S''
sS'prop_uri'
p13
S"'http://dbpedia.org/property/charingxDistanceMi'"
p14
sS'annotations'
p15
(dp16
S'bag_of_words'
p17
(lp18
S'charingX'
p19
aS'distance'
p20
aS'mi'
p21
asS'chunk_seq'
p22
(lp23
S'B-NP'
p24
aS'E-NP'
p25
aS'O'
asS'dep_seq'
p26
(lp27
(lp28
S'amod'
p29
aS'2'
aS'1'
aa(lp30
S'root'
p31
aS'0'
aS'2'
aa(lp32
S'punct'
p33
aS'2'
aS'3'
aasS'srls'
p34
(lp35
sS'pos_seq'
p36
(lp37
S'JJ'
p38
aS'NN'
p39
aS'.'
asS'ner_seq'
p40
(lp41
S'O'
aS'O'
aS'O'
assb.