ccopy_reg
_reconstructor
p1
(c__main__
KBproperty
p2
c__builtin__
object
p3
NtRp4
(dp5
S'comment'
p6
S''
sS'domain'
p7
S''
sS'instances_count'
p8
S'12796'
p9
sS'label'
p10
S'owning company'
p11
sS'range'
p12
S'Company '
p13
sS'prop_uri'
p14
S"'http://dbpedia.org/ontology/owningCompany'"
p15
sS'annotations'
p16
(dp17
S'bag_of_words'
p18
(lp19
S'owning'
p20
aS'company'
p21
aS'Company'
p22
asS'chunk_seq'
p23
(lp24
S'S-VP'
p25
aS'B-NP'
p26
aS'E-NP'
p27
asS'dep_seq'
p28
(lp29
(lp30
S'amod'
p31
aS'3'
aS'1'
aa(lp32
S'nn'
p33
aS'3'
aS'2'
aa(lp34
S'root'
p35
aS'0'
aS'3'
aasS'srls'
p36
(lp37
(dp38
S'A0'
p39
S'company Company'
p40
sS'V'
g20
sasS'pos_seq'
p41
(lp42
S'VBG'
p43
aS'NN'
p44
aS'NN'
p45
asS'ner_seq'
p46
(lp47
S'O'
aS'O'
aS'O'
assb.