ccopy_reg
_reconstructor
p1
(c__main__
KBproperty
p2
c__builtin__
object
p3
NtRp4
(dp5
S'comment'
p6
S''
sS'domain'
p7
S''
sS'instances_count'
p8
S'209'
p9
sS'label'
p10
S'owner-oper'
p11
sS'range'
p12
S''
sS'prop_uri'
p13
S"'http://dbpedia.org/property/ownerOper'"
p14
sS'annotations'
p15
(dp16
S'bag_of_words'
p17
(lp18
S'owner'
p19
aS'-'
aS'oper'
p20
asS'chunk_seq'
p21
(lp22
S'S-NP'
p23
aS'O'
aS'O'
asS'dep_seq'
p24
(lp25
(lp26
S'nn'
p27
aS'3'
aS'1'
aa(lp28
S'root'
p29
aS'0'
aS'3'
aasS'srls'
p30
(lp31
sS'pos_seq'
p32
(lp33
S'NN'
p34
aS':'
aS'NN'
p35
asS'ner_seq'
p36
(lp37
S'O'
aS'O'
aS'O'
assb.