ccopy_reg
_reconstructor
p1
(c__main__
KBproperty
p2
c__builtin__
object
p3
NtRp4
(dp5
S'comment'
p6
S'End of the route. This is where the route ends and for U.S. roads is either at the northern terminus or eastern terminus.'
p7
sS'domain'
p8
S'Route Of Transportation '
p9
sS'instances_count'
p10
S'20929'
p11
sS'label'
p12
S'route end'
p13
sS'range'
p14
S'Route Of Transportation '
p15
sS'prop_uri'
p16
S"'http://dbpedia.org/ontology/routeEnd'"
p17
sS'annotations'
p18
(dp19
S'bag_of_words'
p20
(lp21
S'Route'
p22
aS'Of'
p23
aS'Transportation'
p24
aS'route'
p25
aS'end'
p26
aS'Route'
p27
aS'Of'
p28
aS'Transportation'
p29
aS'End'
p30
aS'of'
p31
aS'the'
p32
aS'route'
p33
aS'.'
aS'This'
p34
aS'is'
p35
aS'where'
p36
aS'the'
p37
aS'route'
p38
aS'ends'
p39
aS'and'
p40
aS'for'
p41
aS'U.S.'
p42
aS'roads'
p43
aS'is'
p44
aS'either'
p45
aS'at'
p46
aS'the'
p47
aS'northern'
p48
aS'terminus'
p49
aS'or'
p50
aS'eastern'
p51
aS'terminus'
p52
aS'.'
asS'chunk_seq'
p53
(lp54
S'S-NP'
p55
aS'S-PP'
p56
aS'B-NP'
p57
aS'I-NP'
p58
aS'I-NP'
p59
aS'E-NP'
p60
aS'S-PP'
p61
aS'B-NP'
p62
aS'E-NP'
p63
aS'S-PP'
p64
aS'B-NP'
p65
aS'E-NP'
p66
aS'O'
aS'S-NP'
p67
aS'S-VP'
p68
aS'S-ADVP'
p69
aS'B-NP'
p70
aS'I-NP'
p71
aS'E-NP'
p72
aS'O'
aS'S-PP'
p73
aS'B-NP'
p74
aS'E-NP'
p75
aS'S-VP'
p76
aS'S-ADVP'
p77
aS'S-PP'
p78
aS'B-NP'
p79
aS'I-NP'
p80
aS'E-NP'
p81
aS'O'
aS'B-NP'
p82
aS'E-NP'
p83
aS'O'
asS'dep_seq'
p84
(lp85
(lp86
S'nn'
p87
aS'5'
aS'1'
aa(lp88
S'prep_of'
p89
aS'1'
aS'3'
aa(lp90
S'nn'
p91
aS'5'
aS'4'
aa(lp92
S'nsubj'
p93
aS'15'
p94
aS'5'
aa(lp95
S'dep'
p96
aS'5'
aS'6'
aa(lp97
S'prep_of'
p98
aS'6'
aS'8'
aa(lp99
S'dep'
p100
aS'8'
aS'9'
aa(lp101
S'det'
p102
aS'12'
p103
aS'11'
p104
aa(lp105
S'prep_of'
p106
aS'8'
aS'12'
p107
aa(lp108
S'nsubj'
p109
aS'15'
p110
aS'14'
p111
aa(lp112
S'root'
p113
aS'0'
aS'15'
p114
aa(lp115
S'advmod'
p116
aS'24'
p117
aS'16'
p118
aa(lp119
S'det'
p120
aS'19'
p121
aS'17'
p122
aa(lp123
S'nn'
p124
aS'19'
p125
aS'18'
p126
aa(lp127
S'nsubj'
p128
aS'24'
p129
aS'19'
p130
aa(lp131
S'conj_and'
p132
aS'19'
p133
aS'21'
p134
aa(lp135
S'nn'
p136
aS'23'
p137
aS'22'
p138
aa(lp139
S'pobj'
p140
aS'21'
p141
aS'23'
p142
aa(lp143
S'advcl'
p144
aS'15'
p145
aS'24'
p146
aa(lp147
S'advmod'
p148
aS'24'
p149
aS'25'
p150
aa(lp151
S'det'
p152
aS'29'
p153
aS'27'
p154
aa(lp155
S'amod'
p156
aS'29'
p157
aS'28'
p158
aa(lp159
S'prep_at'
p160
aS'24'
p161
aS'29'
p162
aa(lp163
S'amod'
p164
aS'32'
p165
aS'31'
p166
aa(lp167
S'conj_or'
p168
aS'29'
p169
aS'32'
p170
aasS'srls'
p171
(lp172
(dp173
S'A1'
p174
S'the route'
p175
sS'V'
g39
sasS'pos_seq'
p176
(lp177
S'NNP'
p178
aS'IN'
p179
aS'NNP'
p180
aS'NN'
p181
aS'NN'
p182
aS'NN'
p183
aS'IN'
p184
aS'NNP'
p185
aS'NNP'
p186
aS'IN'
p187
aS'DT'
p188
aS'NN'
p189
aS'.'
aS'DT'
p190
aS'VBZ'
p191
aS'WRB'
p192
aS'DT'
p193
aS'NN'
p194
aS'NNS'
p195
aS'CC'
p196
aS'IN'
p197
aS'NNP'
p198
aS'NNS'
p199
aS'VBZ'
p200
aS'RB'
p201
aS'IN'
p202
aS'DT'
p203
aS'JJ'
p204
aS'NN'
p205
aS'CC'
p206
aS'JJ'
p207
aS'NN'
p208
aS'.'
asS'ner_seq'
p209
(lp210
S'B-ORG'
p211
aS'I-ORG'
p212
aS'E-ORG'
p213
aS'O'
aS'O'
aS'B-ORG'
p214
aS'I-ORG'
p215
aS'E-ORG'
p216
aS'O'
aS'O'
aS'O'
aS'O'
aS'O'
aS'O'
aS'O'
aS'O'
aS'O'
aS'O'
aS'O'
aS'O'
aS'O'
aS'S-LOC'
p217
aS'O'
aS'O'
aS'O'
aS'O'
aS'O'
aS'O'
aS'O'
aS'O'
aS'O'
aS'O'
aS'O'
assb.