ccopy_reg
_reconstructor
p1
(c__main__
KBproperty
p2
c__builtin__
object
p3
NtRp4
(dp5
S'comment'
p6
S"specifies the audio type of the film i.e. 'sound' or 'silent'"
p7
sS'domain'
p8
S'Film '
p9
sS'instances_count'
p10
S'0'
sS'label'
p11
S'film audio type'
p12
sS'range'
p13
S'string '
p14
sS'prop_uri'
p15
S"'http://dbpedia.org/ontology/filmAudioType'"
p16
sS'annotations'
p17
(dp18
S'bag_of_words'
p19
(lp20
S'Film'
p21
aS'film'
p22
aS'audio'
p23
aS'type'
p24
aS'string'
p25
aS'specifies'
p26
aS'the'
p27
aS'audio'
p28
aS'type'
p29
aS'of'
p30
aS'the'
p31
aS'film'
p32
aS'i.e.'
p33
aS"'so"
p34
aS'und'
p35
aS"'"
aS'or'
p36
aS"'s"
p37
aS'ilent'
p38
aS"'"
asS'chunk_seq'
p39
(lp40
S'B-NP'
p41
aS'I-NP'
p42
aS'I-NP'
p43
aS'I-NP'
p44
aS'E-NP'
p45
aS'S-VP'
p46
aS'B-NP'
p47
aS'I-NP'
p48
aS'E-NP'
p49
aS'S-PP'
p50
aS'B-NP'
p51
aS'E-NP'
p52
aS'O'
aS'O'
aS'O'
aS'O'
aS'O'
aS'B-NP'
p53
aS'E-NP'
p54
aS'O'
asS'dep_seq'
p55
(lp56
(lp57
S'nn'
p58
aS'5'
aS'1'
aa(lp59
S'nn'
p60
aS'5'
aS'2'
aa(lp61
S'nn'
p62
aS'5'
aS'3'
aa(lp63
S'nn'
p64
aS'5'
aS'4'
aa(lp65
S'dep'
p66
aS'19'
p67
aS'5'
aa(lp68
S'dep'
p69
aS'19'
p70
aS'6'
aa(lp71
S'det'
p72
aS'9'
aS'7'
aa(lp73
S'amod'
p74
aS'9'
aS'8'
aa(lp75
S'dep'
p76
aS'19'
p77
aS'9'
aa(lp78
S'det'
p79
aS'12'
p80
aS'11'
p81
aa(lp82
S'prep_of'
p83
aS'9'
aS'12'
p84
aa(lp85
S'dep'
p86
aS'19'
p87
aS'13'
p88
aa(lp89
S'nn'
p90
aS'15'
p91
aS'14'
p92
aa(lp93
S'poss'
p94
aS'19'
p95
aS'15'
p96
aa(lp97
S'conj_or'
p98
aS'15'
p99
aS'18'
p100
aa(lp101
S'root'
p102
aS'0'
aS'19'
p103
aasS'srls'
p104
(lp105
(dp106
S'A1'
p107
S"the audio type of the film i.e. 'so und ' or 's ilent '"
p108
sS'A0'
p109
S'Film film audio type string'
p110
sS'V'
g26
sasS'pos_seq'
p111
(lp112
S'NN'
p113
aS'NN'
p114
aS'NN'
p115
aS'NN'
p116
aS'NN'
p117
aS'VBZ'
p118
aS'DT'
p119
aS'JJ'
p120
aS'NN'
p121
aS'IN'
p122
aS'DT'
p123
aS'NN'
p124
aS'FW'
p125
aS'FW'
p126
aS'FW'
p127
aS"''"
p128
aS'CC'
p129
aS'POS'
p130
aS'NN'
p131
aS"''"
p132
asS'ner_seq'
p133
(lp134
S'O'
aS'O'
aS'O'
aS'O'
aS'O'
aS'O'
aS'O'
aS'O'
aS'O'
aS'O'
aS'O'
aS'O'
aS'O'
aS'O'
aS'O'
aS'O'
aS'O'
aS'O'
aS'O'
aS'O'
assb.