ccopy_reg
_reconstructor
p1
(c__main__
KBproperty
p2
c__builtin__
object
p3
NtRp4
(dp5
S'comment'
p6
S'Reserved for DBpedia.'
p7
sS'domain'
p8
S''
sS'instances_count'
p9
S'0'
sS'label'
p10
S'Wiki page in degree'
p11
sS'range'
p12
S'non Negative Integer '
p13
sS'prop_uri'
p14
S"'http://dbpedia.org/ontology/wikiPageInDegree'"
p15
sS'annotations'
p16
(dp17
S'bag_of_words'
p18
(lp19
S'Wiki'
p20
aS'page'
p21
aS'in'
p22
aS'degree'
p23
aS'non'
p24
aS'Negative'
p25
aS'Integer'
p26
aS'Reserved'
p27
aS'for'
p28
aS'DBpedia'
p29
aS'.'
asS'chunk_seq'
p30
(lp31
S'B-NP'
p32
aS'E-NP'
p33
aS'S-PP'
p34
aS'B-NP'
p35
aS'I-NP'
p36
aS'I-NP'
p37
aS'E-NP'
p38
aS'S-VP'
p39
aS'S-PP'
p40
aS'S-NP'
p41
aS'O'
asS'dep_seq'
p42
(lp43
(lp44
S'nn'
p45
aS'2'
aS'1'
aa(lp46
S'nsubj'
p47
aS'8'
aS'2'
aa(lp48
S'nn'
p49
aS'7'
aS'4'
aa(lp50
S'amod'
p51
aS'7'
aS'5'
aa(lp52
S'amod'
p53
aS'7'
aS'6'
aa(lp54
S'prep_in'
p55
aS'2'
aS'7'
aa(lp56
S'root'
p57
aS'0'
aS'8'
aa(lp58
S'prep_for'
p59
aS'8'
aS'10'
p60
aasS'srls'
p61
(lp62
(dp63
S'A1'
p64
S'Wiki page in degree non Negative Integer'
p65
sS'A2'
p66
S'for DBpedia'
p67
sS'V'
g27
sasS'pos_seq'
p68
(lp69
S'NN'
p70
aS'NN'
p71
aS'IN'
p72
aS'NN'
p73
aS'JJ'
p74
aS'JJ'
p75
aS'NN'
p76
aS'VBN'
p77
aS'IN'
p78
aS'NNP'
p79
aS'.'
asS'ner_seq'
p80
(lp81
S'O'
aS'O'
aS'O'
aS'O'
aS'O'
aS'O'
aS'O'
aS'O'
aS'O'
aS'S-PER'
p82
aS'O'
assb.