ccopy_reg
_reconstructor
p1
(c__main__
KBproperty
p2
c__builtin__
object
p3
NtRp4
(dp5
S'comment'
p6
S'The episode number of the TelevisionEpisode.'
p7
sS'domain'
p8
S'Television Episode '
p9
sS'instances_count'
p10
S'7934'
p11
sS'label'
p12
S'episode number'
p13
sS'range'
p14
S'non Negative Integer '
p15
sS'prop_uri'
p16
S"'http://dbpedia.org/ontology/episodeNumber'"
p17
sS'annotations'
p18
(dp19
S'bag_of_words'
p20
(lp21
S'Television'
p22
aS'Episode'
p23
aS'episode'
p24
aS'number'
p25
aS'non'
p26
aS'Negative'
p27
aS'Integer'
p28
aS'The'
p29
aS'episode'
p30
aS'number'
p31
aS'of'
p32
aS'the'
p33
aS'TelevisionEpisode'
p34
aS'.'
asS'chunk_seq'
p35
(lp36
S'B-NP'
p37
aS'I-NP'
p38
aS'I-NP'
p39
aS'I-NP'
p40
aS'I-NP'
p41
aS'I-NP'
p42
aS'E-NP'
p43
aS'B-NP'
p44
aS'I-NP'
p45
aS'E-NP'
p46
aS'S-PP'
p47
aS'B-NP'
p48
aS'E-NP'
p49
aS'O'
asS'dep_seq'
p50
(lp51
(lp52
S'nn'
p53
aS'4'
aS'1'
aa(lp54
S'nn'
p55
aS'4'
aS'2'
aa(lp56
S'nn'
p57
aS'4'
aS'3'
aa(lp58
S'root'
p59
aS'0'
aS'4'
aa(lp60
S'amod'
p61
aS'6'
aS'5'
aa(lp62
S'amod'
p63
aS'7'
aS'6'
aa(lp64
S'dep'
p65
aS'4'
aS'7'
aa(lp66
S'det'
p67
aS'10'
p68
aS'8'
aa(lp69
S'nn'
p70
aS'10'
p71
aS'9'
aa(lp72
S'dep'
p73
aS'4'
aS'10'
p74
aa(lp75
S'det'
p76
aS'13'
p77
aS'12'
p78
aa(lp79
S'prep_of'
p80
aS'10'
p81
aS'13'
p82
aasS'srls'
p83
(lp84
sS'pos_seq'
p85
(lp86
S'NNP'
p87
aS'NNP'
p88
aS'NN'
p89
aS'NN'
p90
aS'JJ'
p91
aS'JJ'
p92
aS'NN'
p93
aS'DT'
p94
aS'NN'
p95
aS'NN'
p96
aS'IN'
p97
aS'DT'
p98
aS'NNP'
p99
aS'.'
asS'ner_seq'
p100
(lp101
S'O'
aS'O'
aS'O'
aS'O'
aS'O'
aS'O'
aS'O'
aS'O'
aS'O'
aS'O'
aS'O'
aS'O'
aS'S-MISC'
p102
aS'O'
assb.