ccopy_reg
_reconstructor
p1
(c__main__
KBproperty
p2
c__builtin__
object
p3
NtRp4
(dp5
S'comment'
p6
S'the total number of discs contained in the album'
p7
sS'domain'
p8
S'Album '
p9
sS'instances_count'
p10
S'0'
sS'label'
p11
S'total discs'
p12
sS'range'
p13
S'integer '
p14
sS'prop_uri'
p15
S"'http://dbpedia.org/ontology/totalDiscs'"
p16
sS'annotations'
p17
(dp18
S'bag_of_words'
p19
(lp20
S'Album'
p21
aS'total'
p22
aS'discs'
p23
aS'integer'
p24
aS'the'
p25
aS'total'
p26
aS'number'
p27
aS'of'
p28
aS'discs'
p29
aS'contained'
p30
aS'in'
p31
aS'the'
p32
aS'album'
p33
asS'chunk_seq'
p34
(lp35
S'B-NP'
p36
aS'I-NP'
p37
aS'E-NP'
p38
aS'S-VP'
p39
aS'B-NP'
p40
aS'I-NP'
p41
aS'E-NP'
p42
aS'S-PP'
p43
aS'S-NP'
p44
aS'S-VP'
p45
aS'S-PP'
p46
aS'B-NP'
p47
aS'E-NP'
p48
asS'dep_seq'
p49
(lp50
(lp51
S'nn'
p52
aS'3'
aS'1'
aa(lp53
S'amod'
p54
aS'3'
aS'2'
aa(lp55
S'nsubj'
p56
aS'4'
aS'3'
aa(lp57
S'root'
p58
aS'0'
aS'4'
aa(lp59
S'det'
p60
aS'7'
aS'5'
aa(lp61
S'amod'
p62
aS'7'
aS'6'
aa(lp63
S'dobj'
p64
aS'4'
aS'7'
aa(lp65
S'prep_of'
p66
aS'7'
aS'9'
aa(lp67
S'partmod'
p68
aS'7'
aS'10'
p69
aa(lp70
S'det'
p71
aS'13'
p72
aS'12'
p73
aa(lp74
S'prep_in'
p75
aS'10'
p76
aS'13'
p77
aasS'srls'
p78
(lp79
(dp80
S'A1'
p81
S'the total number of discs contained in the album'
p82
sS'A0'
p83
S'Album total discs'
p84
sS'V'
g24
sa(dp85
S'A1'
p86
g29
sS'AM-LOC'
p87
S'in the album'
p88
sS'V'
g30
sasS'pos_seq'
p89
(lp90
S'NN'
p91
aS'JJ'
p92
aS'NNS'
p93
aS'VBP'
p94
aS'DT'
p95
aS'JJ'
p96
aS'NN'
p97
aS'IN'
p98
aS'NNS'
p99
aS'VBN'
p100
aS'IN'
p101
aS'DT'
p102
aS'NN'
p103
asS'ner_seq'
p104
(lp105
S'O'
aS'O'
aS'O'
aS'O'
aS'O'
aS'O'
aS'O'
aS'O'
aS'O'
aS'O'
aS'O'
aS'O'
aS'O'
assb.