ccopy_reg
_reconstructor
p1
(c__main__
KBproperty
p2
c__builtin__
object
p3
NtRp4
(dp5
S'comment'
p6
S'schools that they attended'
p7
sS'domain'
p8
S'Person '
p9
sS'instances_count'
p10
S'119590'
p11
sS'label'
p12
S'alma mater'
p13
sS'range'
p14
S'Educational Institution '
p15
sS'prop_uri'
p16
S"'http://dbpedia.org/ontology/almaMater'"
p17
sS'annotations'
p18
(dp19
S'bag_of_words'
p20
(lp21
S'Person'
p22
aS'alma'
p23
aS'mater'
p24
aS'Educational'
p25
aS'Institution'
p26
aS'schools'
p27
aS'that'
p28
aS'they'
p29
aS'attended'
p30
asS'chunk_seq'
p31
(lp32
S'B-NP'
p33
aS'I-NP'
p34
aS'I-NP'
p35
aS'I-NP'
p36
aS'I-NP'
p37
aS'E-NP'
p38
aS'S-SBAR'
p39
aS'S-NP'
p40
aS'S-VP'
p41
asS'dep_seq'
p42
(lp43
(lp44
S'nn'
p45
aS'6'
aS'1'
aa(lp46
S'amod'
p47
aS'6'
aS'2'
aa(lp48
S'dep'
p49
aS'2'
aS'3'
aa(lp50
S'dep'
p51
aS'2'
aS'4'
aa(lp52
S'nn'
p53
aS'6'
aS'5'
aa(lp54
S'root'
p55
aS'0'
aS'6'
aa(lp56
S'dobj'
p57
aS'9'
aS'6'
aa(lp58
S'mark'
p59
aS'9'
aS'7'
aa(lp60
S'nsubj'
p61
aS'9'
aS'8'
aa(lp62
S'dep'
p63
aS'6'
aS'9'
aasS'srls'
p64
(lp65
sS'pos_seq'
p66
(lp67
S'NN'
p68
aS'FW'
p69
aS'FW'
p70
aS'NNP'
p71
aS'NNP'
p72
aS'NNS'
p73
aS'IN'
p74
aS'PRP'
p75
aS'VBD'
p76
asS'ner_seq'
p77
(lp78
S'O'
aS'O'
aS'O'
aS'O'
aS'O'
aS'O'
aS'O'
aS'O'
aS'O'
assb.