ccopy_reg
_reconstructor
p1
(c__main__
KBproperty
p2
c__builtin__
object
p3
NtRp4
(dp5
S'comment'
p6
S'number of people who earns his living from a specified activity.'
p7
sS'domain'
p8
S'Activity '
p9
sS'instances_count'
p10
S'0'
sS'label'
p11
S'number of professionals'
p12
sS'range'
p13
S'non Negative Integer '
p14
sS'prop_uri'
p15
S"'http://dbpedia.org/ontology/numberOfProfessionals'"
p16
sS'annotations'
p17
(dp18
S'bag_of_words'
p19
(lp20
S'Activity'
p21
aS'number'
p22
aS'of'
p23
aS'professionals'
p24
aS'non'
p25
aS'Negative'
p26
aS'Integer'
p27
aS'number'
p28
aS'of'
p29
aS'people'
p30
aS'who'
p31
aS'earns'
p32
aS'his'
p33
aS'living'
p34
aS'from'
p35
aS'a'
aS'specified'
p36
aS'activity'
p37
aS'.'
asS'chunk_seq'
p38
(lp39
S'B-NP'
p40
aS'E-NP'
p41
aS'S-PP'
p42
aS'S-NP'
p43
aS'B-NP'
p44
aS'I-NP'
p45
aS'I-NP'
p46
aS'E-NP'
p47
aS'S-PP'
p48
aS'S-NP'
p49
aS'S-NP'
p50
aS'S-VP'
p51
aS'B-NP'
p52
aS'E-NP'
p53
aS'S-PP'
p54
aS'B-NP'
p55
aS'I-NP'
p56
aS'E-NP'
p57
aS'O'
asS'dep_seq'
p58
(lp59
(lp60
S'nn'
p61
aS'2'
aS'1'
aa(lp62
S'root'
p63
aS'0'
aS'2'
aa(lp64
S'amod'
p65
aS'8'
aS'4'
aa(lp66
S'dep'
p67
aS'4'
aS'5'
aa(lp68
S'nn'
p69
aS'8'
aS'6'
aa(lp70
S'nn'
p71
aS'8'
aS'7'
aa(lp72
S'prep_of'
p73
aS'2'
aS'8'
aa(lp74
S'prep_of'
p75
aS'8'
aS'10'
p76
aa(lp77
S'nsubj'
p78
aS'12'
p79
aS'10'
p80
aa(lp81
S'rcmod'
p82
aS'10'
p83
aS'12'
p84
aa(lp85
S'poss'
p86
aS'14'
p87
aS'13'
p88
aa(lp89
S'dobj'
p90
aS'12'
p91
aS'14'
p92
aa(lp93
S'det'
p94
aS'18'
p95
aS'16'
p96
aa(lp97
S'amod'
p98
aS'18'
p99
aS'17'
p100
aa(lp101
S'prep_from'
p102
aS'12'
p103
aS'18'
p104
aasS'srls'
p105
(lp106
(dp107
S'A1'
p108
S'his living'
p109
sS'A0'
p110
g30
sS'R-A0'
p111
g31
sS'V'
g32
sa(dp112
S'A1'
p113
g37
sS'V'
g36
sasS'pos_seq'
p114
(lp115
S'NN'
p116
aS'NN'
p117
aS'IN'
p118
aS'NNS'
p119
aS'POS'
p120
aS'NNP'
p121
aS'NNP'
p122
aS'NN'
p123
aS'IN'
p124
aS'NNS'
p125
aS'WP'
p126
aS'VBZ'
p127
aS'PRP$'
p128
aS'NN'
p129
aS'IN'
p130
aS'DT'
p131
aS'VBN'
p132
aS'NN'
p133
aS'.'
asS'ner_seq'
p134
(lp135
S'O'
aS'O'
aS'O'
aS'O'
aS'O'
aS'O'
aS'O'
aS'O'
aS'O'
aS'O'
aS'O'
aS'O'
aS'O'
aS'O'
aS'O'
aS'O'
aS'O'
aS'O'
aS'O'
assb.