ccopy_reg
_reconstructor
p1
(c__main__
KBproperty
p2
c__builtin__
object
p3
NtRp4
(dp5
S'comment'
p6
S'The frequency of periodical publication eg. Weekly Bimonthly.'
p7
sS'domain'
p8
S'Periodical Literature '
p9
sS'instances_count'
p10
S'6082'
p11
sS'label'
p12
S'frequency of publication'
p13
sS'range'
p14
S'string '
p15
sS'prop_uri'
p16
S"'http://dbpedia.org/ontology/frequencyOfPublication'"
p17
sS'annotations'
p18
(dp19
S'bag_of_words'
p20
(lp21
S'Periodical'
p22
aS'Literature'
p23
aS'frequency'
p24
aS'of'
p25
aS'publication'
p26
aS'string'
p27
aS'The'
p28
aS'frequency'
p29
aS'of'
p30
aS'periodical'
p31
aS'publication'
p32
aS'eg.'
p33
aS'Weekly'
p34
aS'Bimonthly'
p35
aS'.'
asS'chunk_seq'
p36
(lp37
S'B-NP'
p38
aS'I-NP'
p39
aS'E-NP'
p40
aS'S-PP'
p41
aS'B-NP'
p42
aS'E-NP'
p43
aS'B-NP'
p44
aS'E-NP'
p45
aS'S-PP'
p46
aS'B-NP'
p47
aS'E-NP'
p48
aS'S-PP'
p49
aS'B-NP'
p50
aS'E-NP'
p51
aS'O'
asS'dep_seq'
p52
(lp53
(lp54
S'nn'
p55
aS'3'
aS'1'
aa(lp56
S'nn'
p57
aS'3'
aS'2'
aa(lp58
S'root'
p59
aS'0'
aS'3'
aa(lp60
S'nn'
p61
aS'6'
aS'5'
aa(lp62
S'prep_of'
p63
aS'3'
aS'6'
aa(lp64
S'det'
p65
aS'8'
aS'7'
aa(lp66
S'dep'
p67
aS'3'
aS'8'
aa(lp68
S'nn'
p69
aS'11'
p70
aS'10'
p71
aa(lp72
S'prep_of'
p73
aS'3'
aS'11'
p74
aa(lp75
S'nn'
p76
aS'14'
p77
aS'13'
p78
aa(lp79
S'prep_eg.'
p80
aS'3'
aS'14'
p81
aasS'srls'
p82
(lp83
sS'pos_seq'
p84
(lp85
S'NNP'
p86
aS'NNP'
p87
aS'NN'
p88
aS'IN'
p89
aS'NN'
p90
aS'NN'
p91
aS'DT'
p92
aS'NN'
p93
aS'IN'
p94
aS'NN'
p95
aS'NN'
p96
aS'IN'
p97
aS'NNP'
p98
aS'NNP'
p99
aS'.'
asS'ner_seq'
p100
(lp101
S'B-MISC'
p102
aS'E-MISC'
p103
aS'O'
aS'O'
aS'O'
aS'O'
aS'O'
aS'O'
aS'O'
aS'O'
aS'O'
aS'O'
aS'B-ORG'
p104
aS'E-ORG'
p105
aS'O'
assb.