ccopy_reg
_reconstructor
p1
(c__main__
KBproperty
p2
c__builtin__
object
p3
NtRp4
(dp5
S'comment'
p6
S''
sS'domain'
p7
S''
sS'instances_count'
p8
S'53'
p9
sS'label'
p10
S'r head label'
p11
sS'range'
p12
S''
sS'prop_uri'
p13
S"'http://dbpedia.org/property/rHeadLabel'"
p14
sS'annotations'
p15
(dp16
S'bag_of_words'
p17
(lp18
S'r'
aS'head'
p19
aS'label'
p20
asS'chunk_seq'
p21
(lp22
S'B-NP'
p23
aS'I-NP'
p24
aS'E-NP'
p25
asS'dep_seq'
p26
(lp27
(lp28
S'nn'
p29
aS'3'
aS'1'
aa(lp30
S'nn'
p31
aS'3'
aS'2'
aa(lp32
S'root'
p33
aS'0'
aS'3'
aasS'srls'
p34
(lp35
sS'pos_seq'
p36
(lp37
S'NN'
p38
aS'NN'
p39
aS'NN'
p40
asS'ner_seq'
p41
(lp42
S'O'
aS'O'
aS'O'
assb.