ccopy_reg
_reconstructor
p1
(c__main__
KBproperty
p2
c__builtin__
object
p3
NtRp4
(dp5
S'comment'
p6
S'Chemical Abstracts Service number. Applicable to ChemicalCompound or Biomolecule eg Protein'
p7
sS'domain'
p8
S''
sS'instances_count'
p9
S'5266'
p10
sS'label'
p11
S'CAS number'
p12
sS'range'
p13
S'string '
p14
sS'prop_uri'
p15
S"'http://dbpedia.org/ontology/casNumber'"
p16
sS'annotations'
p17
(dp18
S'bag_of_words'
p19
(lp20
S'CAS'
p21
aS'number'
p22
aS'string'
p23
aS'Chemical'
p24
aS'Abstracts'
p25
aS'Service'
p26
aS'number'
p27
aS'.'
aS'Applicable'
p28
aS'to'
p29
aS'ChemicalCompound'
p30
aS'or'
p31
aS'Biomolecule'
p32
aS'eg'
p33
aS'Protein'
p34
asS'chunk_seq'
p35
(lp36
S'B-NP'
p37
aS'I-NP'
p38
aS'I-NP'
p39
aS'I-NP'
p40
aS'I-NP'
p41
aS'I-NP'
p42
aS'E-NP'
p43
aS'O'
aS'S-ADJP'
p44
aS'S-PP'
p45
aS'B-NP'
p46
aS'I-NP'
p47
aS'I-NP'
p48
aS'I-NP'
p49
aS'E-NP'
p50
asS'dep_seq'
p51
(lp52
(lp53
S'nn'
p54
aS'7'
aS'1'
aa(lp55
S'nn'
p56
aS'7'
aS'2'
aa(lp57
S'nn'
p58
aS'7'
aS'3'
aa(lp59
S'nn'
p60
aS'7'
aS'4'
aa(lp61
S'nn'
p62
aS'7'
aS'5'
aa(lp63
S'nn'
p64
aS'7'
aS'6'
aa(lp65
S'root'
p66
aS'0'
aS'7'
aa(lp67
S'amod'
p68
aS'7'
aS'9'
aa(lp69
S'nn'
p70
aS'15'
p71
aS'11'
p72
aa(lp73
S'conj_or'
p74
aS'11'
p75
aS'13'
p76
aa(lp77
S'nn'
p78
aS'15'
p79
aS'14'
p80
aa(lp81
S'prep_to'
p82
aS'9'
aS'15'
p83
aasS'srls'
p84
(lp85
sS'pos_seq'
p86
(lp87
S'NNP'
p88
aS'NN'
p89
aS'NN'
p90
aS'NNP'
p91
aS'NNP'
p92
aS'NNP'
p93
aS'NN'
p94
aS'.'
aS'NNP'
p95
aS'TO'
p96
aS'NNP'
p97
aS'CC'
p98
aS'JJ'
p99
aS'NN'
p100
aS'NN'
p101
asS'ner_seq'
p102
(lp103
S'S-ORG'
p104
aS'O'
aS'O'
aS'B-MISC'
p105
aS'I-MISC'
p106
aS'E-MISC'
p107
aS'O'
aS'O'
aS'O'
aS'O'
aS'S-MISC'
p108
aS'O'
aS'S-LOC'
p109
aS'O'
aS'O'
assb.