ccopy_reg
_reconstructor
p1
(c__main__
KBproperty
p2
c__builtin__
object
p3
NtRp4
(dp5
S'comment'
p6
S'Reserved for DBpedia.'
p7
sS'domain'
p8
S''
sS'instances_count'
p9
S'0'
sS'label'
p10
S''
sS'range'
p11
S'string '
p12
sS'prop_uri'
p13
S"'http://dbpedia.org/ontology/hasSurfaceForm'"
p14
sS'annotations'
p15
(dp16
S'bag_of_words'
p17
(lp18
S'string'
p19
aS'Reserved'
p20
aS'for'
p21
aS'DBpedia'
p22
aS'.'
asS'chunk_seq'
p23
(lp24
S'S-NP'
p25
aS'S-VP'
p26
aS'S-PP'
p27
aS'S-NP'
p28
aS'O'
asS'dep_seq'
p29
(lp30
(lp31
S'root'
p32
aS'0'
aS'1'
aa(lp33
S'partmod'
p34
aS'1'
aS'2'
aa(lp35
S'prep_for'
p36
aS'2'
aS'4'
aasS'srls'
p37
(lp38
(dp39
S'A2'
p40
S'for DBpedia'
p41
sS'V'
g20
sasS'pos_seq'
p42
(lp43
S'NN'
p44
aS'VBN'
p45
aS'IN'
p46
aS'NNP'
p47
aS'.'
asS'ner_seq'
p48
(lp49
S'O'
aS'O'
aS'O'
aS'S-PER'
p50
aS'O'
assb.