ccopy_reg
_reconstructor
p1
(c__main__
KBproperty
p2
c__builtin__
object
p3
NtRp4
(dp5
S'comment'
p6
S''
sS'domain'
p7
S'Agent '
p8
sS'instances_count'
p9
S'0'
sS'label'
p10
S'regional council'
p11
sS'range'
p12
S'Term Of Office '
p13
sS'prop_uri'
p14
S"'http://dbpedia.org/ontology/regionalCouncil'"
p15
sS'annotations'
p16
(dp17
S'bag_of_words'
p18
(lp19
S'Agent'
p20
aS'regional'
p21
aS'council'
p22
aS'Term'
p23
aS'Of'
p24
aS'Office'
p25
asS'chunk_seq'
p26
(lp27
S'B-NP'
p28
aS'I-NP'
p29
aS'I-NP'
p30
aS'E-NP'
p31
aS'S-PP'
p32
aS'S-NP'
p33
asS'dep_seq'
p34
(lp35
(lp36
S'nn'
p37
aS'4'
aS'1'
aa(lp38
S'amod'
p39
aS'4'
aS'2'
aa(lp40
S'nn'
p41
aS'4'
aS'3'
aa(lp42
S'root'
p43
aS'0'
aS'4'
aa(lp44
S'prep_of'
p45
aS'4'
aS'6'
aasS'srls'
p46
(lp47
sS'pos_seq'
p48
(lp49
S'NN'
p50
aS'JJ'
p51
aS'NN'
p52
aS'NN'
p53
aS'IN'
p54
aS'NN'
p55
asS'ner_seq'
p56
(lp57
S'O'
aS'O'
aS'O'
aS'B-ORG'
p58
aS'I-ORG'
p59
aS'E-ORG'
p60
assb.