ccopy_reg
_reconstructor
p1
(c__main__
KBproperty
p2
c__builtin__
object
p3
NtRp4
(dp5
S'comment'
p6
S''
sS'domain'
p7
S''
sS'instances_count'
p8
S'2'
sS'label'
p9
S'tv com id'
p10
sS'range'
p11
S''
sS'prop_uri'
p12
S"'http://dbpedia.org/property/tvComId'"
p13
sS'annotations'
p14
(dp15
S'bag_of_words'
p16
(lp17
S'tv'
p18
aS'com'
p19
aS'id'
p20
asS'chunk_seq'
p21
(lp22
S'B-NP'
p23
aS'I-NP'
p24
aS'E-NP'
p25
asS'dep_seq'
p26
(lp27
(lp28
S'nn'
p29
aS'3'
aS'1'
aa(lp30
S'nn'
p31
aS'3'
aS'2'
aa(lp32
S'root'
p33
aS'0'
aS'3'
aasS'srls'
p34
(lp35
sS'pos_seq'
p36
(lp37
S'NN'
p38
aS'NN'
p39
aS'NN'
p40
asS'ner_seq'
p41
(lp42
S'O'
aS'O'
aS'O'
assb.