ccopy_reg
_reconstructor
p1
(c__main__
KBproperty
p2
c__builtin__
object
p3
NtRp4
(dp5
S'comment'
p6
S'mandate of the president council of the regional council'
p7
sS'domain'
p8
S'Place '
p9
sS'instances_count'
p10
S'0'
sS'label'
p11
g7
sS'range'
p12
S'string '
p13
sS'prop_uri'
p14
S"'http://dbpedia.org/ontology/presidentRegionalCouncilMandate'"
p15
sS'annotations'
p16
(dp17
S'bag_of_words'
p18
(lp19
S'Place'
p20
aS'president'
p21
aS'Regional'
p22
aS'Council'
p23
aS'Mandate'
p24
aS'string'
p25
aS'mandate'
p26
aS'of'
p27
aS'the'
p28
aS'president'
p29
aS'council'
p30
aS'of'
p31
aS'the'
p32
aS'regional'
p33
aS'council'
p34
asS'chunk_seq'
p35
(lp36
S'B-NP'
p37
aS'I-NP'
p38
aS'I-NP'
p39
aS'I-NP'
p40
aS'I-NP'
p41
aS'I-NP'
p42
aS'E-NP'
p43
aS'S-PP'
p44
aS'B-NP'
p45
aS'I-NP'
p46
aS'E-NP'
p47
aS'S-PP'
p48
aS'B-NP'
p49
aS'I-NP'
p50
aS'E-NP'
p51
asS'dep_seq'
p52
(lp53
(lp54
S'root'
p55
aS'0'
aS'1'
aa(lp56
S'nn'
p57
aS'7'
aS'2'
aa(lp58
S'nn'
p59
aS'7'
aS'3'
aa(lp60
S'nn'
p61
aS'7'
aS'4'
aa(lp62
S'nn'
p63
aS'7'
aS'5'
aa(lp64
S'nn'
p65
aS'7'
aS'6'
aa(lp66
S'dep'
p67
aS'1'
aS'7'
aa(lp68
S'det'
p69
aS'11'
p70
aS'9'
aa(lp71
S'nn'
p72
aS'11'
p73
aS'10'
p74
aa(lp75
S'prep_of'
p76
aS'7'
aS'11'
p77
aa(lp78
S'det'
p79
aS'15'
p80
aS'13'
p81
aa(lp82
S'amod'
p83
aS'15'
p84
aS'14'
p85
aa(lp86
S'prep_of'
p87
aS'11'
p88
aS'15'
p89
aasS'srls'
p90
(lp91
sS'pos_seq'
p92
(lp93
S'NN'
p94
aS'NN'
p95
aS'NNP'
p96
aS'NNP'
p97
aS'NNP'
p98
aS'NN'
p99
aS'NN'
p100
aS'IN'
p101
aS'DT'
p102
aS'NN'
p103
aS'NN'
p104
aS'IN'
p105
aS'DT'
p106
aS'JJ'
p107
aS'NN'
p108
asS'ner_seq'
p109
(lp110
S'O'
aS'O'
aS'B-ORG'
p111
aS'E-ORG'
p112
aS'O'
aS'O'
aS'O'
aS'O'
aS'O'
aS'O'
aS'O'
aS'O'
aS'O'
aS'O'
aS'O'
assb.