ccopy_reg
_reconstructor
p1
(c__main__
KBproperty
p2
c__builtin__
object
p3
NtRp4
(dp5
S'comment'
p6
S'some sort of hardware architecture or software framework that allows this software to run'
p7
sS'domain'
p8
S'Software '
p9
sS'instances_count'
p10
S'51834'
p11
sS'label'
p12
S'computing platform'
p13
sS'range'
p14
S''
sS'prop_uri'
p15
S"'http://dbpedia.org/ontology/computingPlatform'"
p16
sS'annotations'
p17
(dp18
S'bag_of_words'
p19
(lp20
S'Software'
p21
aS'computing'
p22
aS'platform'
p23
aS'some'
p24
aS'sort'
p25
aS'of'
p26
aS'hardware'
p27
aS'architecture'
p28
aS'or'
p29
aS'software'
p30
aS'framework'
p31
aS'that'
p32
aS'allows'
p33
aS'this'
p34
aS'software'
p35
aS'to'
p36
aS'run'
p37
asS'chunk_seq'
p38
(lp39
S'B-NP'
p40
aS'I-NP'
p41
aS'E-NP'
p42
aS'B-NP'
p43
aS'E-NP'
p44
aS'S-PP'
p45
aS'B-NP'
p46
aS'I-NP'
p47
aS'I-NP'
p48
aS'I-NP'
p49
aS'E-NP'
p50
aS'S-NP'
p51
aS'S-VP'
p52
aS'B-NP'
p53
aS'E-NP'
p54
aS'B-VP'
p55
aS'E-VP'
p56
asS'dep_seq'
p57
(lp58
(lp59
S'nn'
p60
aS'3'
aS'1'
aa(lp61
S'amod'
p62
aS'3'
aS'2'
aa(lp63
S'dep'
p64
aS'5'
aS'3'
aa(lp65
S'det'
p66
aS'5'
aS'4'
aa(lp67
S'root'
p68
aS'0'
aS'5'
aa(lp69
S'nn'
p70
aS'8'
aS'7'
aa(lp71
S'prep_of'
p72
aS'5'
aS'8'
aa(lp73
S'nsubj'
p74
aS'13'
p75
aS'8'
aa(lp76
S'nn'
p77
aS'11'
p78
aS'10'
p79
aa(lp80
S'conj_or'
p81
aS'8'
aS'11'
p82
aa(lp83
S'rcmod'
p84
aS'8'
aS'13'
p85
aa(lp86
S'det'
p87
aS'15'
p88
aS'14'
p89
aa(lp90
S'nsubj'
p91
aS'17'
p92
aS'15'
p93
aa(lp94
S'aux'
p95
aS'17'
p96
aS'16'
p97
aa(lp98
S'xcomp'
p99
aS'13'
p100
aS'17'
p101
aasS'srls'
p102
(lp103
(dp104
S'A1'
p105
S'some sort of hardware architecture or software framework'
p106
sS'A0'
p107
S'Software platform'
p108
sS'V'
g22
sa(dp109
S'A1'
p110
S'this software'
p111
sS'A0'
p112
S'Software computing platform some sort of hardware architecture or software framework'
p113
sS'R-A0'
p114
g32
sS'V'
g33
sasS'pos_seq'
p115
(lp116
S'NN'
p117
aS'VBG'
p118
aS'NN'
p119
aS'DT'
p120
aS'NN'
p121
aS'IN'
p122
aS'NN'
p123
aS'NN'
p124
aS'CC'
p125
aS'NN'
p126
aS'NN'
p127
aS'WDT'
p128
aS'VBZ'
p129
aS'DT'
p130
aS'NN'
p131
aS'TO'
p132
aS'VB'
p133
asS'ner_seq'
p134
(lp135
S'O'
aS'O'
aS'O'
aS'O'
aS'O'
aS'O'
aS'O'
aS'O'
aS'O'
aS'O'
aS'O'
aS'O'
aS'O'
aS'O'
aS'O'
aS'O'
aS'O'
assb.