ccopy_reg
_reconstructor
p1
(c__main__
KBproperty
p2
c__builtin__
object
p3
NtRp4
(dp5
S'comment'
p6
S''
sS'domain'
p7
S'Race Track '
p8
sS'instances_count'
p9
S'0'
sS'label'
p10
S'number of turns'
p11
sS'range'
p12
S'non Negative Integer '
p13
sS'prop_uri'
p14
S"'http://dbpedia.org/ontology/numberOfTurns'"
p15
sS'annotations'
p16
(dp17
S'bag_of_words'
p18
(lp19
S'Race'
p20
aS'Track'
p21
aS'number'
p22
aS'of'
p23
aS'turns'
p24
aS'non'
p25
aS'Negative'
p26
aS'Integer'
p27
asS'chunk_seq'
p28
(lp29
S'B-NP'
p30
aS'I-NP'
p31
aS'E-NP'
p32
aS'S-PP'
p33
aS'S-VP'
p34
aS'B-NP'
p35
aS'I-NP'
p36
aS'E-NP'
p37
asS'dep_seq'
p38
(lp39
(lp40
S'nn'
p41
aS'3'
aS'1'
aa(lp42
S'nn'
p43
aS'3'
aS'2'
aa(lp44
S'root'
p45
aS'0'
aS'3'
aa(lp46
S'prep_of'
p47
aS'3'
aS'5'
aa(lp48
S'amod'
p49
aS'8'
aS'6'
aa(lp50
S'amod'
p51
aS'8'
aS'7'
aa(lp52
S'dep'
p53
aS'5'
aS'8'
aasS'srls'
p54
(lp55
(dp56
S'A1'
p57
S'non Negative Integer'
p58
sS'V'
g24
sasS'pos_seq'
p59
(lp60
S'NNP'
p61
aS'NNP'
p62
aS'NN'
p63
aS'IN'
p64
aS'VBZ'
p65
aS'JJ'
p66
aS'JJ'
p67
aS'NN'
p68
asS'ner_seq'
p69
(lp70
S'O'
aS'O'
aS'O'
aS'O'
aS'O'
aS'O'
aS'O'
aS'O'
assb.