ccopy_reg
_reconstructor
p1
(c__main__
KBproperty
p2
c__builtin__
object
p3
NtRp4
(dp5
S'comment'
p6
S'A literary genre is a category of literary composition. Genres may be determined by literary technique tone content or even as in the case of fiction length.'
p7
sS'domain'
p8
S'Written Work '
p9
sS'instances_count'
p10
S'29230'
p11
sS'label'
p12
S'literary genre'
p13
sS'range'
p14
S''
sS'prop_uri'
p15
S"'http://dbpedia.org/ontology/literaryGenre'"
p16
sS'annotations'
p17
(dp18
S'bag_of_words'
p19
(lp20
S'Written'
p21
aS'Work'
p22
aS'literary'
p23
aS'genre'
p24
aS'A'
aS'literary'
p25
aS'genre'
p26
aS'is'
p27
aS'a'
aS'category'
p28
aS'of'
p29
aS'literary'
p30
aS'composition'
p31
aS'.'
aS'Genres'
p32
aS'may'
p33
aS'be'
p34
aS'determined'
p35
aS'by'
p36
aS'literary'
p37
aS'technique'
p38
aS'tone'
p39
aS'content'
p40
aS'or'
p41
aS'even'
p42
aS'as'
p43
aS'in'
p44
aS'the'
p45
aS'case'
p46
aS'of'
p47
aS'fiction'
p48
aS'length'
p49
aS'.'
asS'chunk_seq'
p50
(lp51
S'B-NP'
p52
aS'I-NP'
p53
aS'I-NP'
p54
aS'E-NP'
p55
aS'B-NP'
p56
aS'I-NP'
p57
aS'E-NP'
p58
aS'S-VP'
p59
aS'B-NP'
p60
aS'E-NP'
p61
aS'S-PP'
p62
aS'B-NP'
p63
aS'I-NP'
p64
aS'I-NP'
p65
aS'E-NP'
p66
aS'B-VP'
p67
aS'I-VP'
p68
aS'E-VP'
p69
aS'S-PP'
p70
aS'B-NP'
p71
aS'I-NP'
p72
aS'I-NP'
p73
aS'E-NP'
p74
aS'O'
aS'B-PP'
p75
aS'E-PP'
p76
aS'S-PP'
p77
aS'B-NP'
p78
aS'E-NP'
p79
aS'S-PP'
p80
aS'B-NP'
p81
aS'E-NP'
p82
aS'O'
asS'dep_seq'
p83
(lp84
(lp85
S'nn'
p86
aS'4'
aS'1'
aa(lp87
S'nn'
p88
aS'4'
aS'2'
aa(lp89
S'amod'
p90
aS'4'
aS'3'
aa(lp91
S'nsubj'
p92
aS'10'
p93
aS'4'
aa(lp94
S'det'
p95
aS'7'
aS'5'
aa(lp96
S'amod'
p97
aS'7'
aS'6'
aa(lp98
S'dep'
p99
aS'4'
aS'7'
aa(lp100
S'cop'
p101
aS'10'
p102
aS'8'
aa(lp103
S'det'
p104
aS'10'
p105
aS'9'
aa(lp106
S'root'
p107
aS'0'
aS'10'
p108
aa(lp109
S'amod'
p110
aS'13'
p111
aS'12'
p112
aa(lp113
S'prep_of'
p114
aS'10'
p115
aS'13'
p116
aa(lp117
S'nsubjpass'
p118
aS'18'
p119
aS'15'
p120
aa(lp121
S'aux'
p122
aS'18'
p123
aS'16'
p124
aa(lp125
S'auxpass'
p126
aS'18'
p127
aS'17'
p128
aa(lp129
S'parataxis'
p130
aS'10'
p131
aS'18'
p132
aa(lp133
S'dep'
p134
aS'26'
p135
aS'19'
p136
aa(lp137
S'amod'
p138
aS'23'
p139
aS'20'
p140
aa(lp141
S'nn'
p142
aS'23'
p143
aS'21'
p144
aa(lp145
S'nn'
p146
aS'23'
p147
aS'22'
p148
aa(lp149
S'pobj'
p150
aS'19'
p151
aS'23'
p152
aa(lp153
S'advmod'
p154
aS'26'
p155
aS'25'
p156
aa(lp157
S'conj_or'
p158
aS'26'
p159
aS'25'
p160
aa(lp161
S'prep'
p162
aS'18'
p163
aS'26'
p164
aa(lp165
S'pcomp'
p166
aS'26'
p167
aS'27'
p168
aa(lp169
S'det'
p170
aS'29'
p171
aS'28'
p172
aa(lp173
S'pobj'
p174
aS'27'
p175
aS'29'
p176
aa(lp177
S'nn'
p178
aS'32'
p179
aS'31'
p180
aa(lp181
S'prep_of'
p182
aS'29'
p183
aS'32'
p184
aasS'srls'
p185
(lp186
(dp187
S'A1'
p188
g32
sS'A0'
p189
S'by literary technique tone content or even as in the case of fiction length'
p190
sS'V'
g35
sS'AM-MOD'
p191
g33
sasS'pos_seq'
p192
(lp193
S'NNP'
p194
aS'NNP'
p195
aS'JJ'
p196
aS'NN'
p197
aS'DT'
p198
aS'JJ'
p199
aS'NN'
p200
aS'VBZ'
p201
aS'DT'
p202
aS'NN'
p203
aS'IN'
p204
aS'JJ'
p205
aS'NN'
p206
aS'.'
aS'NNS'
p207
aS'MD'
p208
aS'VB'
p209
aS'VBN'
p210
aS'IN'
p211
aS'JJ'
p212
aS'NN'
p213
aS'NN'
p214
aS'NN'
p215
aS'CC'
p216
aS'RB'
p217
aS'IN'
p218
aS'IN'
p219
aS'DT'
p220
aS'NN'
p221
aS'IN'
p222
aS'NN'
p223
aS'NN'
p224
aS'.'
asS'ner_seq'
p225
(lp226
S'O'
aS'O'
aS'O'
aS'O'
aS'O'
aS'O'
aS'O'
aS'O'
aS'O'
aS'O'
aS'O'
aS'O'
aS'O'
aS'O'
aS'S-ORG'
p227
aS'O'
aS'O'
aS'O'
aS'O'
aS'O'
aS'O'
aS'O'
aS'O'
aS'O'
aS'O'
aS'O'
aS'O'
aS'O'
aS'O'
aS'O'
aS'O'
aS'O'
aS'O'
assb.