ccopy_reg
_reconstructor
p1
(c__main__
KBproperty
p2
c__builtin__
object
p3
NtRp4
(dp5
S'comment'
p6
S''
sS'domain'
p7
S'Anatomical Structure '
p8
sS'instances_count'
p9
S'83'
p10
sS'label'
p11
S'drains from'
p12
sS'range'
p13
S'Anatomical Structure '
p14
sS'prop_uri'
p15
S"'http://dbpedia.org/ontology/drainsFrom'"
p16
sS'annotations'
p17
(dp18
S'bag_of_words'
p19
(lp20
S'Anatomical'
p21
aS'Structure'
p22
aS'drains'
p23
aS'from'
p24
aS'Anatomical'
p25
aS'Structure'
p26
asS'chunk_seq'
p27
(lp28
S'B-NP'
p29
aS'E-NP'
p30
aS'S-VP'
p31
aS'S-PP'
p32
aS'B-NP'
p33
aS'E-NP'
p34
asS'dep_seq'
p35
(lp36
(lp37
S'amod'
p38
aS'2'
aS'1'
aa(lp39
S'nsubj'
p40
aS'3'
aS'2'
aa(lp41
S'root'
p42
aS'0'
aS'3'
aa(lp43
S'amod'
p44
aS'6'
aS'5'
aa(lp45
S'prep_from'
p46
aS'3'
aS'6'
aasS'srls'
p47
(lp48
(dp49
S'A0'
p50
S'Anatomical Structure'
p51
sS'A3'
p52
S'from Anatomical Structure'
p53
sS'V'
g23
sasS'pos_seq'
p54
(lp55
S'JJ'
p56
aS'NN'
p57
aS'VBZ'
p58
aS'IN'
p59
aS'JJ'
p60
aS'NN'
p61
asS'ner_seq'
p62
(lp63
S'O'
aS'O'
aS'O'
aS'O'
aS'S-MISC'
p64
aS'O'
assb.