ccopy_reg
_reconstructor
p1
(c__main__
KBproperty
p2
c__builtin__
object
p3
NtRp4
(dp5
S'comment'
p6
S''
sS'domain'
p7
S''
sS'instances_count'
p8
S'4'
sS'label'
p9
S'dublin distance mi'
p10
sS'range'
p11
S''
sS'prop_uri'
p12
S"'http://dbpedia.org/property/dublinDistanceMi'"
p13
sS'annotations'
p14
(dp15
S'bag_of_words'
p16
(lp17
S'dublin'
p18
aS'distance'
p19
aS'mi'
p20
asS'chunk_seq'
p21
(lp22
S'B-NP'
p23
aS'E-NP'
p24
aS'O'
asS'dep_seq'
p25
(lp26
(lp27
S'num'
p28
aS'2'
aS'1'
aa(lp29
S'root'
p30
aS'0'
aS'2'
aa(lp31
S'punct'
p32
aS'2'
aS'3'
aasS'srls'
p33
(lp34
sS'pos_seq'
p35
(lp36
S'CD'
p37
aS'NN'
p38
aS'.'
asS'ner_seq'
p39
(lp40
S'O'
aS'O'
aS'O'
assb.