ccopy_reg
_reconstructor
p1
(c__main__
KBproperty
p2
c__builtin__
object
p3
NtRp4
(dp5
S'comment'
p6
S'The original title of the work most of the time in the original language as well'
p7
sS'domain'
p8
S'Work '
p9
sS'instances_count'
p10
S'0'
sS'label'
p11
S'original title'
p12
sS'range'
p13
S'lang String '
p14
sS'prop_uri'
p15
S"'http://dbpedia.org/ontology/originalTitle'"
p16
sS'annotations'
p17
(dp18
S'bag_of_words'
p19
(lp20
S'Work'
p21
aS'original'
p22
aS'title'
p23
aS'lang'
p24
aS'String'
p25
aS'The'
p26
aS'original'
p27
aS'title'
p28
aS'of'
p29
aS'the'
p30
aS'work'
p31
aS'most'
p32
aS'of'
p33
aS'the'
p34
aS'time'
p35
aS'in'
p36
aS'the'
p37
aS'original'
p38
aS'language'
p39
aS'as'
p40
aS'well'
p41
asS'chunk_seq'
p42
(lp43
S'B-NP'
p44
aS'I-NP'
p45
aS'I-NP'
p46
aS'I-NP'
p47
aS'E-NP'
p48
aS'B-NP'
p49
aS'I-NP'
p50
aS'E-NP'
p51
aS'S-PP'
p52
aS'B-NP'
p53
aS'E-NP'
p54
aS'S-NP'
p55
aS'S-PP'
p56
aS'B-NP'
p57
aS'E-NP'
p58
aS'S-PP'
p59
aS'B-NP'
p60
aS'I-NP'
p61
aS'E-NP'
p62
aS'B-ADVP'
p63
aS'E-ADVP'
p64
asS'dep_seq'
p65
(lp66
(lp67
S'root'
p68
aS'0'
aS'1'
aa(lp69
S'amod'
p70
aS'3'
aS'2'
aa(lp71
S'dobj'
p72
aS'1'
aS'3'
aa(lp73
S'partmod'
p74
aS'3'
aS'4'
aa(lp75
S'dep'
p76
aS'4'
aS'5'
aa(lp77
S'det'
p78
aS'8'
aS'6'
aa(lp79
S'amod'
p80
aS'8'
aS'7'
aa(lp81
S'dobj'
p82
aS'4'
aS'8'
aa(lp83
S'det'
p84
aS'11'
p85
aS'10'
p86
aa(lp87
S'prep_of'
p88
aS'8'
aS'11'
p89
aa(lp90
S'dep'
p91
aS'11'
p92
aS'12'
p93
aa(lp94
S'det'
p95
aS'15'
p96
aS'14'
p97
aa(lp98
S'prep_of'
p99
aS'12'
p100
aS'15'
p101
aa(lp102
S'det'
p103
aS'19'
p104
aS'17'
p105
aa(lp106
S'amod'
p107
aS'19'
p108
aS'18'
p109
aa(lp110
S'prep_in'
p111
aS'8'
aS'19'
p112
aa(lp113
S'prep'
p114
aS'8'
aS'20'
p115
aa(lp116
S'pcomp'
p117
aS'20'
p118
aS'21'
p119
aasS'srls'
p120
(lp121
(dp122
S'A1'
p123
S'original title lang String The original title of the work most of the time in the original language'
p124
sS'AM-MNR'
p125
S'as well'
p126
sS'V'
g21
sasS'pos_seq'
p127
(lp128
S'VB'
p129
aS'JJ'
p130
aS'NN'
p131
aS'VBG'
p132
aS'NN'
p133
aS'DT'
p134
aS'JJ'
p135
aS'NN'
p136
aS'IN'
p137
aS'DT'
p138
aS'NN'
p139
aS'JJS'
p140
aS'IN'
p141
aS'DT'
p142
aS'NN'
p143
aS'IN'
p144
aS'DT'
p145
aS'JJ'
p146
aS'NN'
p147
aS'IN'
p148
aS'RB'
p149
asS'ner_seq'
p150
(lp151
S'O'
aS'O'
aS'O'
aS'B-PER'
p152
aS'E-PER'
p153
aS'O'
aS'O'
aS'O'
aS'O'
aS'O'
aS'O'
aS'O'
aS'O'
aS'O'
aS'O'
aS'O'
aS'O'
aS'O'
aS'O'
aS'O'
aS'O'
assb.