ccopy_reg
_reconstructor
p1
(c__main__
KBproperty
p2
c__builtin__
object
p3
NtRp4
(dp5
S'comment'
p6
S'number of votes the office holder attained'
p7
sS'domain'
p8
S''
sS'instances_count'
p9
S'1796'
p10
sS'label'
p11
S'election majority'
p12
sS'range'
p13
S'non Negative Integer '
p14
sS'prop_uri'
p15
S"'http://dbpedia.org/ontology/electionMajority'"
p16
sS'annotations'
p17
(dp18
S'bag_of_words'
p19
(lp20
S'election'
p21
aS'majority'
p22
aS'non'
p23
aS'Negative'
p24
aS'Integer'
p25
aS'number'
p26
aS'of'
p27
aS'votes'
p28
aS'the'
p29
aS'office'
p30
aS'holder'
p31
aS'attained'
p32
asS'chunk_seq'
p33
(lp34
S'B-NP'
p35
aS'E-NP'
p36
aS'B-NP'
p37
aS'I-NP'
p38
aS'I-NP'
p39
aS'E-NP'
p40
aS'S-PP'
p41
aS'S-NP'
p42
aS'B-NP'
p43
aS'I-NP'
p44
aS'E-NP'
p45
aS'S-VP'
p46
asS'dep_seq'
p47
(lp48
(lp49
S'nn'
p50
aS'2'
aS'1'
aa(lp51
S'nsubj'
p52
aS'12'
p53
aS'2'
aa(lp54
S'amod'
p55
aS'6'
aS'3'
aa(lp56
S'amod'
p57
aS'6'
aS'4'
aa(lp58
S'nn'
p59
aS'6'
aS'5'
aa(lp60
S'nsubj'
p61
aS'12'
p62
aS'6'
aa(lp63
S'prep_of'
p64
aS'6'
aS'8'
aa(lp65
S'det'
p66
aS'11'
p67
aS'9'
aa(lp68
S'nn'
p69
aS'11'
p70
aS'10'
p71
aa(lp72
S'nsubj'
p73
aS'12'
p74
aS'11'
p75
aa(lp76
S'root'
p77
aS'0'
aS'12'
p78
aasS'srls'
p79
(lp80
(dp81
S'A0'
p82
S'the office holder'
p83
sS'V'
g32
sasS'pos_seq'
p84
(lp85
S'NN'
p86
aS'NN'
p87
aS'JJ'
p88
aS'JJ'
p89
aS'NN'
p90
aS'NN'
p91
aS'IN'
p92
aS'NNS'
p93
aS'DT'
p94
aS'NN'
p95
aS'NN'
p96
aS'VBN'
p97
asS'ner_seq'
p98
(lp99
S'O'
aS'O'
aS'O'
aS'O'
aS'O'
aS'O'
aS'O'
aS'O'
aS'O'
aS'O'
aS'O'
aS'O'
assb.