ccopy_reg
_reconstructor
p1
(c__main__
KBproperty
p2
c__builtin__
object
p3
NtRp4
(dp5
S'comment'
p6
S'Safety precautions that are used in the building.'
p7
sS'domain'
p8
S'Building '
p9
sS'instances_count'
p10
S'0'
sS'label'
p11
S'security'
p12
sS'range'
p13
S'string '
p14
sS'prop_uri'
p15
S"'http://dbpedia.org/ontology/security'"
p16
sS'annotations'
p17
(dp18
S'bag_of_words'
p19
(lp20
S'Building'
p21
aS'security'
p22
aS'string'
p23
aS'Safety'
p24
aS'precautions'
p25
aS'that'
p26
aS'are'
p27
aS'used'
p28
aS'in'
p29
aS'the'
p30
aS'building'
p31
aS'.'
asS'chunk_seq'
p32
(lp33
S'B-NP'
p34
aS'I-NP'
p35
aS'I-NP'
p36
aS'I-NP'
p37
aS'E-NP'
p38
aS'S-NP'
p39
aS'B-VP'
p40
aS'E-VP'
p41
aS'S-PP'
p42
aS'B-NP'
p43
aS'E-NP'
p44
aS'O'
asS'dep_seq'
p45
(lp46
(lp47
S'amod'
p48
aS'5'
aS'1'
aa(lp49
S'nn'
p50
aS'5'
aS'2'
aa(lp51
S'nn'
p52
aS'5'
aS'3'
aa(lp53
S'nn'
p54
aS'5'
aS'4'
aa(lp55
S'root'
p56
aS'0'
aS'5'
aa(lp57
S'nsubjpass'
p58
aS'8'
aS'5'
aa(lp59
S'auxpass'
p60
aS'8'
aS'7'
aa(lp61
S'rcmod'
p62
aS'5'
aS'8'
aa(lp63
S'det'
p64
aS'11'
p65
aS'10'
p66
aa(lp67
S'prep_in'
p68
aS'8'
aS'11'
p69
aasS'srls'
p70
(lp71
(dp72
S'A1'
p73
S'security string Safety precautions that are used in the building'
p74
sS'V'
g21
sa(dp75
S'A1'
p76
S'Building security string Safety precautions'
p77
sS'AM-LOC'
p78
S'in the building'
p79
sS'R-A1'
p80
g26
sS'V'
g28
sasS'pos_seq'
p81
(lp82
S'VBG'
p83
aS'NN'
p84
aS'NN'
p85
aS'NN'
p86
aS'NNS'
p87
aS'WDT'
p88
aS'VBP'
p89
aS'VBN'
p90
aS'IN'
p91
aS'DT'
p92
aS'NN'
p93
aS'.'
asS'ner_seq'
p94
(lp95
S'O'
aS'O'
aS'O'
aS'O'
aS'O'
aS'O'
aS'O'
aS'O'
aS'O'
aS'O'
aS'O'
aS'O'
assb.