ccopy_reg
_reconstructor
p1
(c__main__
KBproperty
p2
c__builtin__
object
p3
NtRp4
(dp5
S'comment'
p6
S'reference for politic data'
p7
sS'domain'
p8
S'Place '
p9
sS'instances_count'
p10
S'0'
sS'label'
p11
g7
sS'range'
p12
S'string '
p13
sS'prop_uri'
p14
S"'http://dbpedia.org/ontology/refpol'"
p15
sS'annotations'
p16
(dp17
S'bag_of_words'
p18
(lp19
S'Place'
p20
aS'refpol'
p21
aS'string'
p22
aS'reference'
p23
aS'for'
p24
aS'politic'
p25
aS'data'
p26
asS'chunk_seq'
p27
(lp28
S'B-NP'
p29
aS'I-NP'
p30
aS'I-NP'
p31
aS'E-NP'
p32
aS'S-PP'
p33
aS'B-NP'
p34
aS'E-NP'
p35
asS'dep_seq'
p36
(lp37
(lp38
S'nn'
p39
aS'4'
aS'1'
aa(lp40
S'amod'
p41
aS'4'
aS'2'
aa(lp42
S'nn'
p43
aS'4'
aS'3'
aa(lp44
S'root'
p45
aS'0'
aS'4'
aa(lp46
S'amod'
p47
aS'7'
aS'6'
aa(lp48
S'prep_for'
p49
aS'4'
aS'7'
aasS'srls'
p50
(lp51
sS'pos_seq'
p52
(lp53
S'NN'
p54
aS'JJ'
p55
aS'NN'
p56
aS'NN'
p57
aS'IN'
p58
aS'JJ'
p59
aS'NNS'
p60
asS'ner_seq'
p61
(lp62
S'O'
aS'O'
aS'O'
aS'O'
aS'O'
aS'O'
aS'O'
assb.