ccopy_reg
_reconstructor
p1
(c__main__
KBproperty
p2
c__builtin__
object
p3
NtRp4
(dp5
S'comment'
p6
S''
sS'domain'
p7
S'Openswarm '
p8
sS'instances_count'
p9
S'0'
sS'label'
p10
S'size_v'
p11
sS'range'
p12
S'integer '
p13
sS'prop_uri'
p14
S"'http://dbpedia.org/ontology/size_v'"
p15
sS'annotations'
p16
(dp17
S'bag_of_words'
p18
(lp19
S'Openswarm'
p20
aS'size'
p21
aS'_'
aS'v'
aS'integer'
p22
asS'chunk_seq'
p23
(lp24
S'B-NP'
p25
aS'E-NP'
p26
aS'O'
aS'O'
aS'O'
asS'dep_seq'
p27
(lp28
(lp29
S'nn'
p30
aS'5'
aS'1'
aa(lp31
S'nn'
p32
aS'5'
aS'2'
aa(lp33
S'nn'
p34
aS'5'
aS'3'
aa(lp35
S'nn'
p36
aS'5'
aS'4'
aa(lp37
S'root'
p38
aS'0'
aS'5'
aasS'srls'
p39
(lp40
sS'pos_seq'
p41
(lp42
S'FW'
p43
aS'FW'
p44
aS'FW'
p45
aS'FW'
p46
aS'FW'
p47
asS'ner_seq'
p48
(lp49
S'S-LOC'
p50
aS'O'
aS'O'
aS'O'
aS'O'
assb.