ccopy_reg
_reconstructor
p1
(c__main__
KBproperty
p2
c__builtin__
object
p3
NtRp4
(dp5
S'comment'
p6
S'The subject influenced the object. inverseOf influencedBy. Subject and object can be Persons or Works eg ProgrammingLanguage'
p7
sS'domain'
p8
S''
sS'instances_count'
p9
S'10800'
p10
sS'label'
p11
S'influenced'
p12
sS'range'
p13
S''
sS'prop_uri'
p14
S"'http://dbpedia.org/ontology/influenced'"
p15
sS'annotations'
p16
(dp17
S'bag_of_words'
p18
(lp19
S'influenced'
p20
aS'The'
p21
aS'subject'
p22
aS'influenced'
p23
aS'the'
p24
aS'object'
p25
aS'.'
aS'inverseOf'
p26
aS'influencedBy'
p27
aS'.'
aS'Subject'
p28
aS'and'
p29
aS'object'
p30
aS'can'
p31
aS'be'
p32
aS'Persons'
p33
aS'or'
p34
aS'Works'
p35
aS'eg'
p36
aS'ProgrammingLanguage'
p37
asS'chunk_seq'
p38
(lp39
S'S-VP'
p40
aS'B-NP'
p41
aS'E-NP'
p42
aS'S-VP'
p43
aS'B-NP'
p44
aS'E-NP'
p45
aS'O'
aS'B-NP'
p46
aS'I-NP'
p47
aS'I-NP'
p48
aS'I-NP'
p49
aS'I-NP'
p50
aS'E-NP'
p51
aS'B-VP'
p52
aS'E-VP'
p53
aS'B-NP'
p54
aS'I-NP'
p55
aS'E-NP'
p56
aS'S-PP'
p57
aS'S-NP'
p58
asS'dep_seq'
p59
(lp60
(lp61
S'root'
p62
aS'0'
aS'1'
aa(lp63
S'det'
p64
aS'3'
aS'2'
aa(lp65
S'nsubj'
p66
aS'4'
aS'3'
aa(lp67
S'ccomp'
p68
aS'1'
aS'4'
aa(lp69
S'det'
p70
aS'9'
aS'5'
aa(lp71
S'nn'
p72
aS'9'
aS'6'
aa(lp73
S'amod'
p74
aS'9'
aS'8'
aa(lp75
S'conj_and'
p76
aS'9'
aS'8'
aa(lp77
S'nsubj'
p78
aS'16'
p79
aS'9'
aa(lp80
S'conj_and'
p81
aS'9'
aS'11'
p82
aa(lp83
S'nn'
p84
aS'9'
aS'11'
p85
aa(lp86
S'conj_and'
p87
aS'9'
aS'13'
p88
aa(lp89
S'aux'
p90
aS'16'
p91
aS'14'
p92
aa(lp93
S'cop'
p94
aS'16'
p95
aS'15'
p96
aa(lp97
S'ccomp'
p98
aS'4'
aS'16'
p99
aa(lp100
S'conj_or'
p101
aS'16'
p102
aS'18'
p103
aa(lp104
S'prep_eg'
p105
aS'16'
p106
aS'20'
p107
aasS'srls'
p108
(lp109
(dp110
S'A1'
p111
S'The subject influenced the object . inverseOf influencedBy . Subject and object can be Persons or Works eg ProgrammingLanguage'
p112
sS'V'
g20
sa(dp113
S'A1'
p114
S'the object . inverseOf influencedBy . Subject and object can be Persons or Works eg ProgrammingLanguage'
p115
sS'A0'
p116
S'The subject'
p117
sS'V'
g23
sasS'pos_seq'
p118
(lp119
S'VBD'
p120
aS'DT'
p121
aS'NN'
p122
aS'VBD'
p123
aS'DT'
p124
aS'NN'
p125
aS'.'
aS'JJ'
p126
aS'JJ'
p127
aS'.'
aS'NNP'
p128
aS'CC'
p129
aS'NN'
p130
aS'MD'
p131
aS'VB'
p132
aS'NNPS'
p133
aS'CC'
p134
aS'NNP'
p135
aS'IN'
p136
aS'NNP'
p137
asS'ner_seq'
p138
(lp139
S'O'
aS'O'
aS'O'
aS'O'
aS'O'
aS'O'
aS'O'
aS'B-PER'
p140
aS'E-PER'
p141
aS'O'
aS'O'
aS'O'
aS'O'
aS'O'
aS'O'
aS'O'
aS'O'
aS'O'
aS'O'
aS'S-ORG'
p142
assb.