ccopy_reg
_reconstructor
p1
(c__main__
KBproperty
p2
c__builtin__
object
p3
NtRp4
(dp5
S'comment'
p6
S'The Library of Congress Control Number or LCCN is a serially based system of numbering cataloging records in the Library of Congress in the United States. It has nothing to do with the contents of any book and should not be confused with Library of Congress Classification.'
p7
sS'domain'
p8
S'Written Work '
p9
sS'instances_count'
p10
S'3000'
p11
sS'label'
p12
S'LCCN'
p13
sS'range'
p14
S'string '
p15
sS'prop_uri'
p16
S"'http://dbpedia.org/ontology/lccn'"
p17
sS'annotations'
p18
(dp19
S'bag_of_words'
p20
(lp21
S'Written'
p22
aS'Work'
p23
aS'LCCN'
p24
aS'string'
p25
aS'The'
p26
aS'Library'
p27
aS'of'
p28
aS'Congress'
p29
aS'Control'
p30
aS'Number'
p31
aS'or'
p32
aS'LCCN'
p33
aS'is'
p34
aS'a'
aS'serially'
p35
aS'based'
p36
aS'system'
p37
aS'of'
p38
aS'numbering'
p39
aS'cataloging'
p40
aS'records'
p41
aS'in'
p42
aS'the'
p43
aS'Library'
p44
aS'of'
p45
aS'Congress'
p46
aS'in'
p47
aS'the'
p48
aS'United'
p49
aS'States.'
p50
aS'It'
p51
aS'has'
p52
aS'nothing'
p53
aS'to'
p54
aS'do'
p55
aS'with'
p56
aS'the'
p57
aS'contents'
p58
aS'of'
p59
aS'any'
p60
aS'book'
p61
aS'and'
p62
aS'should'
p63
aS'not'
p64
aS'be'
p65
aS'confused'
p66
aS'with'
p67
aS'Library'
p68
aS'of'
p69
aS'Congress'
p70
aS'Classification'
p71
aS'.'
asS'chunk_seq'
p72
(lp73
S'B-NP'
p74
aS'I-NP'
p75
aS'I-NP'
p76
aS'E-NP'
p77
aS'B-NP'
p78
aS'E-NP'
p79
aS'S-PP'
p80
aS'B-NP'
p81
aS'I-NP'
p82
aS'I-NP'
p83
aS'I-NP'
p84
aS'E-NP'
p85
aS'S-VP'
p86
aS'B-NP'
p87
aS'I-NP'
p88
aS'I-NP'
p89
aS'E-NP'
p90
aS'S-PP'
p91
aS'S-VP'
p92
aS'B-NP'
p93
aS'E-NP'
p94
aS'S-PP'
p95
aS'B-NP'
p96
aS'E-NP'
p97
aS'S-PP'
p98
aS'S-NP'
p99
aS'S-PP'
p100
aS'B-NP'
p101
aS'I-NP'
p102
aS'E-NP'
p103
aS'S-NP'
p104
aS'S-VP'
p105
aS'S-NP'
p106
aS'B-VP'
p107
aS'E-VP'
p108
aS'S-PP'
p109
aS'B-NP'
p110
aS'E-NP'
p111
aS'S-PP'
p112
aS'B-NP'
p113
aS'E-NP'
p114
aS'O'
aS'B-VP'
p115
aS'I-VP'
p116
aS'I-VP'
p117
aS'E-VP'
p118
aS'S-PP'
p119
aS'S-NP'
p120
aS'S-PP'
p121
aS'B-NP'
p122
aS'E-NP'
p123
aS'O'
asS'dep_seq'
p124
(lp125
(lp126
S'nn'
p127
aS'4'
aS'1'
aa(lp128
S'nn'
p129
aS'4'
aS'2'
aa(lp130
S'nn'
p131
aS'4'
aS'3'
aa(lp132
S'nsubj'
p133
aS'13'
p134
aS'4'
aa(lp135
S'det'
p136
aS'6'
aS'5'
aa(lp137
S'dep'
p138
aS'4'
aS'6'
aa(lp139
S'nn'
p140
aS'10'
p141
aS'8'
aa(lp142
S'nn'
p143
aS'10'
p144
aS'9'
aa(lp145
S'prep_of'
p146
aS'6'
aS'10'
p147
aa(lp148
S'conj_or'
p149
aS'4'
aS'12'
p150
aa(lp151
S'root'
p152
aS'0'
aS'13'
p153
aa(lp154
S'det'
p155
aS'17'
p156
aS'14'
p157
aa(lp158
S'advmod'
p159
aS'16'
p160
aS'15'
p161
aa(lp162
S'amod'
p163
aS'17'
p164
aS'16'
p165
aa(lp166
S'nsubj'
p167
aS'32'
p168
aS'17'
p169
aa(lp170
S'prepc_of'
p171
aS'17'
p172
aS'19'
p173
aa(lp174
S'nn'
p175
aS'21'
p176
aS'20'
p177
aa(lp178
S'dobj'
p179
aS'19'
p180
aS'21'
p181
aa(lp182
S'det'
p183
aS'24'
p184
aS'23'
p185
aa(lp186
S'prep_in'
p187
aS'21'
p188
aS'24'
p189
aa(lp190
S'prep_of'
p191
aS'24'
p192
aS'26'
p193
aa(lp194
S'det'
p195
aS'30'
p196
aS'28'
p197
aa(lp198
S'nn'
p199
aS'30'
p200
aS'29'
p201
aa(lp202
S'prep_in'
p203
aS'17'
p204
aS'30'
p205
aa(lp206
S'dep'
p207
aS'17'
p208
aS'31'
p209
aa(lp210
S'ccomp'
p211
aS'13'
p212
aS'32'
p213
aa(lp214
S'dobj'
p215
aS'32'
p216
aS'33'
p217
aa(lp218
S'aux'
p219
aS'35'
p220
aS'34'
p221
aa(lp222
S'infmod'
p223
aS'33'
p224
aS'35'
p225
aa(lp226
S'det'
p227
aS'38'
p228
aS'37'
p229
aa(lp230
S'prep_with'
p231
aS'35'
p232
aS'38'
p233
aa(lp234
S'det'
p235
aS'41'
p236
aS'40'
p237
aa(lp238
S'prep_of'
p239
aS'38'
p240
aS'41'
p241
aa(lp242
S'aux'
p243
aS'46'
p244
aS'43'
p245
aa(lp246
S'neg'
p247
aS'46'
p248
aS'44'
p249
aa(lp250
S'auxpass'
p251
aS'46'
p252
aS'45'
p253
aa(lp254
S'conj_and'
p255
aS'32'
p256
aS'46'
p257
aa(lp258
S'prep_with'
p259
aS'46'
p260
aS'48'
p261
aa(lp262
S'nn'
p263
aS'51'
p264
aS'50'
p265
aa(lp266
S'prep_of'
p267
aS'48'
p268
aS'51'
p269
aasS'srls'
p270
(lp271
(dp272
S'A1'
p273
g37
sS'AM-MNR'
p274
g35
sS'V'
g36
sa(dp275
S'A1'
p276
S'cataloging records'
p277
sS'AM-LOC'
p278
S'in the Library of Congress'
p279
sS'V'
g39
sa(dp280
S'A1'
p281
S'nothing to do with the contents of any book'
p282
sS'V'
g52
sa(dp283
S'A1'
p284
g53
sS'A3'
p285
S'with the contents of any book'
p286
sS'V'
g55
sa(dp287
S'V'
g66
sS'A2'
p288
S'with Library of Congress Classification'
p289
sS'AM-NEG'
p290
g64
sS'AM-MOD'
p291
g63
sasS'pos_seq'
p292
(lp293
S'NNP'
p294
aS'NNP'
p295
aS'NNP'
p296
aS'NN'
p297
aS'DT'
p298
aS'NNP'
p299
aS'IN'
p300
aS'NNP'
p301
aS'NNP'
p302
aS'NNP'
p303
aS'CC'
p304
aS'NNP'
p305
aS'VBZ'
p306
aS'DT'
p307
aS'RB'
p308
aS'VBN'
p309
aS'NN'
p310
aS'IN'
p311
aS'VBG'
p312
aS'NN'
p313
aS'NNS'
p314
aS'IN'
p315
aS'DT'
p316
aS'NNP'
p317
aS'IN'
p318
aS'NNP'
p319
aS'IN'
p320
aS'DT'
p321
aS'NNP'
p322
aS'NNP'
p323
aS'PRP'
p324
aS'VBZ'
p325
aS'NN'
p326
aS'TO'
p327
aS'VB'
p328
aS'IN'
p329
aS'DT'
p330
aS'NNS'
p331
aS'IN'
p332
aS'DT'
p333
aS'NN'
p334
aS'CC'
p335
aS'MD'
p336
aS'RB'
p337
aS'VB'
p338
aS'VBN'
p339
aS'IN'
p340
aS'NNP'
p341
aS'IN'
p342
aS'NNP'
p343
aS'NNP'
p344
aS'.'
asS'ner_seq'
p345
(lp346
S'O'
aS'O'
aS'S-ORG'
p347
aS'O'
aS'O'
aS'B-ORG'
p348
aS'I-ORG'
p349
aS'E-ORG'
p350
aS'O'
aS'O'
aS'O'
aS'S-ORG'
p351
aS'O'
aS'O'
aS'O'
aS'O'
aS'O'
aS'O'
aS'O'
aS'O'
aS'O'
aS'O'
aS'O'
aS'B-ORG'
p352
aS'I-ORG'
p353
aS'E-ORG'
p354
aS'O'
aS'O'
aS'B-ORG'
p355
aS'E-ORG'
p356
aS'O'
aS'O'
aS'O'
aS'O'
aS'O'
aS'O'
aS'O'
aS'O'
aS'O'
aS'O'
aS'O'
aS'O'
aS'O'
aS'O'
aS'O'
aS'O'
aS'O'
aS'B-ORG'
p357
aS'I-ORG'
p358
aS'I-ORG'
p359
aS'E-ORG'
p360
aS'O'
assb.