ccopy_reg
_reconstructor
p1
(c__main__
KBproperty
p2
c__builtin__
object
p3
NtRp4
(dp5
S'comment'
p6
S''
sS'domain'
p7
S'Year In Spaceflight '
p8
sS'instances_count'
p9
S'0'
sS'label'
p10
S'last launch'
p11
sS'range'
p12
S'date '
p13
sS'prop_uri'
p14
S"'http://dbpedia.org/ontology/lastLaunch'"
p15
sS'annotations'
p16
(dp17
S'bag_of_words'
p18
(lp19
S'Year'
p20
aS'In'
p21
aS'Spaceflight'
p22
aS'last'
p23
aS'launch'
p24
aS'date'
p25
asS'chunk_seq'
p26
(lp27
S'S-NP'
p28
aS'S-PP'
p29
aS'S-NP'
p30
aS'B-NP'
p31
aS'I-NP'
p32
aS'E-NP'
p33
asS'dep_seq'
p34
(lp35
(lp36
S'dep'
p37
aS'6'
aS'1'
aa(lp38
S'prep_in'
p39
aS'1'
aS'3'
aa(lp40
S'amod'
p41
aS'6'
aS'4'
aa(lp42
S'nn'
p43
aS'6'
aS'5'
aa(lp44
S'root'
p45
aS'0'
aS'6'
aasS'srls'
p46
(lp47
sS'pos_seq'
p48
(lp49
S'NN'
p50
aS'IN'
p51
aS'NNP'
p52
aS'JJ'
p53
aS'NN'
p54
aS'NN'
p55
asS'ner_seq'
p56
(lp57
S'O'
aS'O'
aS'O'
aS'O'
aS'O'
aS'O'
assb.