ccopy_reg
_reconstructor
p1
(c__main__
KBproperty
p2
c__builtin__
object
p3
NtRp4
(dp5
S'comment'
p6
S'green coordinate in the RGB space'
p7
sS'domain'
p8
S'Colour '
p9
sS'instances_count'
p10
S'1089'
p11
sS'label'
p12
g7
sS'range'
p13
S'non Negative Integer '
p14
sS'prop_uri'
p15
S"'http://dbpedia.org/ontology/rgbCoordinateGreen'"
p16
sS'annotations'
p17
(dp18
S'bag_of_words'
p19
(lp20
S'Colour'
p21
aS'rgb'
p22
aS'Coordinate'
p23
aS'Green'
p24
aS'non'
p25
aS'Negative'
p26
aS'Integer'
p27
aS'green'
p28
aS'coordinate'
p29
aS'in'
p30
aS'the'
p31
aS'RGB'
p32
aS'space'
p33
asS'chunk_seq'
p34
(lp35
S'B-NP'
p36
aS'I-NP'
p37
aS'I-NP'
p38
aS'I-NP'
p39
aS'I-NP'
p40
aS'I-NP'
p41
aS'I-NP'
p42
aS'I-NP'
p43
aS'E-NP'
p44
aS'S-PP'
p45
aS'B-NP'
p46
aS'I-NP'
p47
aS'E-NP'
p48
asS'dep_seq'
p49
(lp50
(lp51
S'nn'
p52
aS'2'
aS'1'
aa(lp53
S'dep'
p54
aS'9'
aS'2'
aa(lp55
S'nn'
p56
aS'9'
aS'3'
aa(lp57
S'amod'
p58
aS'5'
aS'4'
aa(lp59
S'amod'
p60
aS'9'
aS'5'
aa(lp61
S'nn'
p62
aS'9'
aS'6'
aa(lp63
S'nn'
p64
aS'9'
aS'7'
aa(lp65
S'amod'
p66
aS'9'
aS'8'
aa(lp67
S'root'
p68
aS'0'
aS'9'
aa(lp69
S'det'
p70
aS'13'
p71
aS'11'
p72
aa(lp73
S'nn'
p74
aS'13'
p75
aS'12'
p76
aa(lp77
S'prep_in'
p78
aS'9'
aS'13'
p79
aasS'srls'
p80
(lp81
sS'pos_seq'
p82
(lp83
S'NN'
p84
aS'NN'
p85
aS'NNP'
p86
aS'NNP'
p87
aS'JJ'
p88
aS'NNP'
p89
aS'NNP'
p90
aS'JJ'
p91
aS'NN'
p92
aS'IN'
p93
aS'DT'
p94
aS'NNP'
p95
aS'NN'
p96
asS'ner_seq'
p97
(lp98
S'O'
aS'O'
aS'B-MISC'
p99
aS'I-MISC'
p100
aS'I-MISC'
p101
aS'I-MISC'
p102
aS'E-MISC'
p103
aS'O'
aS'O'
aS'O'
aS'O'
aS'O'
aS'O'
assb.