ccopy_reg
_reconstructor
p1
(c__main__
KBproperty
p2
c__builtin__
object
p3
NtRp4
(dp5
S'comment'
p6
S''
sS'domain'
p7
S'Place '
p8
sS'instances_count'
p9
S'0'
sS'label'
p10
S'green ski piste number'
p11
sS'range'
p12
S'non Negative Integer '
p13
sS'prop_uri'
p14
S"'http://dbpedia.org/ontology/greenSkiPisteNumber'"
p15
sS'annotations'
p16
(dp17
S'bag_of_words'
p18
(lp19
S'Place'
p20
aS'green'
p21
aS'ski'
p22
aS'piste'
p23
aS'number'
p24
aS'non'
p25
aS'Negative'
p26
aS'Integer'
p27
asS'chunk_seq'
p28
(lp29
S'B-NP'
p30
aS'I-NP'
p31
aS'I-NP'
p32
aS'I-NP'
p33
aS'I-NP'
p34
aS'I-NP'
p35
aS'I-NP'
p36
aS'E-NP'
p37
asS'dep_seq'
p38
(lp39
(lp40
S'dep'
p41
aS'5'
aS'1'
aa(lp42
S'amod'
p43
aS'5'
aS'2'
aa(lp44
S'nn'
p45
aS'5'
aS'3'
aa(lp46
S'nn'
p47
aS'5'
aS'4'
aa(lp48
S'root'
p49
aS'0'
aS'5'
aa(lp50
S'amod'
p51
aS'8'
aS'6'
aa(lp52
S'amod'
p53
aS'8'
aS'7'
aa(lp54
S'dep'
p55
aS'5'
aS'8'
aasS'srls'
p56
(lp57
(dp58
S'A1'
p59
S'green ski piste number'
p60
sS'A2'
p61
S'non Negative Integer'
p62
sS'V'
g20
sasS'pos_seq'
p63
(lp64
S'NN'
p65
aS'JJ'
p66
aS'NN'
p67
aS'NN'
p68
aS'NN'
p69
aS'JJ'
p70
aS'JJ'
p71
aS'NN'
p72
asS'ner_seq'
p73
(lp74
S'O'
aS'O'
aS'O'
aS'O'
aS'O'
aS'O'
aS'O'
aS'O'
assb.