ccopy_reg
_reconstructor
p1
(c__main__
KBproperty
p2
c__builtin__
object
p3
NtRp4
(dp5
S'comment'
p6
S'Wikipage modification datetime'
p7
sS'domain'
p8
S''
sS'instances_count'
p9
S'0'
sS'label'
p10
g7
sS'range'
p11
S'date Time '
p12
sS'prop_uri'
p13
S"'http://dbpedia.org/ontology/wikiPageModified'"
p14
sS'annotations'
p15
(dp16
S'bag_of_words'
p17
(lp18
S'wiki'
p19
aS'Page'
p20
aS'Modified'
p21
aS'date'
p22
aS'Time'
p23
aS'Wikipage'
p24
aS'modification'
p25
aS'datetime'
p26
asS'chunk_seq'
p27
(lp28
S'B-NP'
p29
aS'E-NP'
p30
aS'S-VP'
p31
aS'B-NP'
p32
aS'E-NP'
p33
aS'B-NP'
p34
aS'E-NP'
p35
aS'S-ADJP'
p36
asS'dep_seq'
p37
(lp38
(lp39
S'nn'
p40
aS'5'
aS'1'
aa(lp41
S'nn'
p42
aS'5'
aS'2'
aa(lp43
S'amod'
p44
aS'5'
aS'3'
aa(lp45
S'nn'
p46
aS'5'
aS'4'
aa(lp47
S'dep'
p48
aS'7'
aS'5'
aa(lp49
S'amod'
p50
aS'7'
aS'6'
aa(lp51
S'root'
p52
aS'0'
aS'7'
aa(lp53
S'punct'
p54
aS'7'
aS'8'
aasS'srls'
p55
(lp56
(dp57
S'A1'
p58
S'wiki Page  date Time Wikipage modification datetime'
p59
sS'V'
g21
sasS'pos_seq'
p60
(lp61
S'NN'
p62
aS'NN'
p63
aS'VBN'
p64
aS'NN'
p65
aS'NN'
p66
aS'JJ'
p67
aS'NN'
p68
aS'.'
asS'ner_seq'
p69
(lp70
S'O'
aS'O'
aS'O'
aS'O'
aS'O'
aS'S-MISC'
p71
aS'O'
aS'O'
assb.