ccopy_reg
_reconstructor
p1
(c__main__
KBproperty
p2
c__builtin__
object
p3
NtRp4
(dp5
S'comment'
p6
S''
sS'domain'
p7
S'Sales '
p8
sS'instances_count'
p9
S'205'
p10
sS'label'
p11
S'start year of sales'
p12
sS'range'
p13
S'g Year '
p14
sS'prop_uri'
p15
S"'http://dbpedia.org/ontology/startYearOfSales'"
p16
sS'annotations'
p17
(dp18
S'bag_of_words'
p19
(lp20
S'Sales'
p21
aS'start'
p22
aS'year'
p23
aS'of'
p24
aS'sales'
p25
aS'g'
aS'Year'
p26
asS'chunk_seq'
p27
(lp28
S'S-NP'
p29
aS'S-VP'
p30
aS'S-NP'
p31
aS'S-PP'
p32
aS'S-NP'
p33
aS'B-NP'
p34
aS'E-NP'
p35
asS'dep_seq'
p36
(lp37
(lp38
S'root'
p39
aS'0'
aS'1'
aa(lp40
S'dep'
p41
aS'1'
aS'2'
aa(lp42
S'dobj'
p43
aS'2'
aS'3'
aa(lp44
S'prep_of'
p45
aS'3'
aS'5'
aa(lp46
S'num'
p47
aS'7'
aS'6'
aa(lp48
S'dep'
p49
aS'5'
aS'7'
aasS'srls'
p50
(lp51
(dp52
S'A1'
p53
g21
sS'AM-TMP'
p54
S'year of sales g Year'
p55
sS'V'
g22
sasS'pos_seq'
p56
(lp57
S'NNS'
p58
aS'VBP'
p59
aS'NN'
p60
aS'IN'
p61
aS'NNS'
p62
aS'CD'
p63
aS'NN'
p64
asS'ner_seq'
p65
(lp66
S'O'
aS'O'
aS'O'
aS'O'
aS'O'
aS'O'
aS'O'
assb.