ccopy_reg
_reconstructor
p1
(c__main__
KBproperty
p2
c__builtin__
object
p3
NtRp4
(dp5
S'comment'
p6
S'width of runway \\xce\\xbc'
p7
sS'domain'
p8
S'Airport '
p9
sS'instances_count'
p10
S'0'
sS'label'
p11
g7
sS'range'
p12
S'double '
p13
sS'prop_uri'
p14
S"'http://dbpedia.org/ontology/runwayWidth'"
p15
sS'annotations'
p16
(dp17
S'bag_of_words'
p18
(lp19
S'Airport'
p20
aS'runway'
p21
aS'Width'
p22
aS'double'
p23
aS'width'
p24
aS'of'
p25
aS'runway'
p26
aS'\\'
aS'xce'
p27
aS'\\'
aS'xbc'
p28
asS'chunk_seq'
p29
(lp30
S'B-NP'
p31
aS'I-NP'
p32
aS'I-NP'
p33
aS'I-NP'
p34
aS'E-NP'
p35
aS'S-PP'
p36
aS'S-NP'
p37
aS'O'
aS'O'
aS'O'
aS'O'
asS'dep_seq'
p38
(lp39
(lp40
S'nn'
p41
aS'3'
aS'1'
aa(lp42
S'nn'
p43
aS'3'
aS'2'
aa(lp44
S'dep'
p45
aS'5'
aS'3'
aa(lp46
S'amod'
p47
aS'5'
aS'4'
aa(lp48
S'root'
p49
aS'0'
aS'5'
aa(lp50
S'prep_of'
p51
aS'5'
aS'7'
aa(lp52
S'dep'
p53
aS'5'
aS'8'
aa(lp54
S'discourse'
p55
aS'8'
aS'9'
aa(lp56
S'dep'
p57
aS'9'
aS'10'
p58
aa(lp59
S'dep'
p60
aS'9'
aS'11'
p61
aasS'srls'
p62
(lp63
sS'pos_seq'
p64
(lp65
S'NN'
p66
aS'NN'
p67
aS'NNP'
p68
aS'JJ'
p69
aS'NN'
p70
aS'IN'
p71
aS'NN'
p72
aS'FW'
p73
aS'FW'
p74
aS'FW'
p75
aS'FW'
p76
asS'ner_seq'
p77
(lp78
S'O'
aS'O'
aS'O'
aS'O'
aS'O'
aS'O'
aS'O'
aS'O'
aS'O'
aS'O'
aS'O'
assb.