ccopy_reg
_reconstructor
p1
(c__main__
KBproperty
p2
c__builtin__
object
p3
NtRp4
(dp5
S'comment'
p6
S'mills code from the Belgian database on mills'
p7
sS'domain'
p8
S'Mill '
p9
sS'instances_count'
p10
S'0'
sS'label'
p11
S'mill code BE'
p12
sS'range'
p13
S'string '
p14
sS'prop_uri'
p15
S"'http://dbpedia.org/ontology/millsCodeBE'"
p16
sS'annotations'
p17
(dp18
S'bag_of_words'
p19
(lp20
S'Mill'
p21
aS'mill'
p22
aS'code'
p23
aS'BE'
p24
aS'string'
p25
aS'mills'
p26
aS'code'
p27
aS'from'
p28
aS'the'
p29
aS'Belgian'
p30
aS'database'
p31
aS'on'
p32
aS'mills'
p33
asS'chunk_seq'
p34
(lp35
S'B-NP'
p36
aS'I-NP'
p37
aS'E-NP'
p38
aS'S-VP'
p39
aS'B-NP'
p40
aS'I-NP'
p41
aS'E-NP'
p42
aS'S-PP'
p43
aS'B-NP'
p44
aS'I-NP'
p45
aS'E-NP'
p46
aS'S-PP'
p47
aS'S-NP'
p48
asS'dep_seq'
p49
(lp50
(lp51
S'nn'
p52
aS'7'
aS'1'
aa(lp53
S'nn'
p54
aS'7'
aS'2'
aa(lp55
S'nn'
p56
aS'7'
aS'3'
aa(lp57
S'dep'
p58
aS'7'
aS'4'
aa(lp59
S'nn'
p60
aS'7'
aS'5'
aa(lp61
S'nn'
p62
aS'7'
aS'6'
aa(lp63
S'root'
p64
aS'0'
aS'7'
aa(lp65
S'det'
p66
aS'11'
p67
aS'9'
aa(lp68
S'amod'
p69
aS'11'
p70
aS'10'
p71
aa(lp72
S'prep_from'
p73
aS'7'
aS'11'
p74
aa(lp75
S'prep_on'
p76
aS'11'
p77
aS'13'
p78
aasS'srls'
p79
(lp80
sS'pos_seq'
p81
(lp82
S'NN'
p83
aS'NN'
p84
aS'NN'
p85
aS'VB'
p86
aS'NN'
p87
aS'NNS'
p88
aS'NN'
p89
aS'IN'
p90
aS'DT'
p91
aS'JJ'
p92
aS'NN'
p93
aS'IN'
p94
aS'NNS'
p95
asS'ner_seq'
p96
(lp97
S'O'
aS'O'
aS'O'
aS'O'
aS'O'
aS'O'
aS'O'
aS'O'
aS'O'
aS'S-MISC'
p98
aS'O'
aS'O'
aS'O'
assb.