ccopy_reg
_reconstructor
p1
(c__main__
KBproperty
p2
c__builtin__
object
p3
NtRp4
(dp5
S'comment'
p6
S'Virtual International Authority File ID operated by Online Computer Library Center OCLC. Property range set to Agent because of corporate authors'
p7
sS'domain'
p8
S''
sS'instances_count'
p9
S'1801'
p10
sS'label'
p11
S'VIAF Id'
p12
sS'range'
p13
S'string '
p14
sS'prop_uri'
p15
S"'http://dbpedia.org/ontology/viafId'"
p16
sS'annotations'
p17
(dp18
S'bag_of_words'
p19
(lp20
S'VIAF'
p21
aS'Id'
p22
aS'string'
p23
aS'Virtual'
p24
aS'International'
p25
aS'Authority'
p26
aS'File'
p27
aS'ID'
p28
aS'operated'
p29
aS'by'
p30
aS'Online'
p31
aS'Computer'
p32
aS'Library'
p33
aS'Center'
p34
aS'OCLC'
p35
aS'.'
aS'Property'
p36
aS'range'
p37
aS'set'
p38
aS'to'
p39
aS'Agent'
p40
aS'because'
p41
aS'of'
p42
aS'corporate'
p43
aS'authors'
p44
asS'chunk_seq'
p45
(lp46
S'B-NP'
p47
aS'I-NP'
p48
aS'I-NP'
p49
aS'I-NP'
p50
aS'I-NP'
p51
aS'I-NP'
p52
aS'I-NP'
p53
aS'E-NP'
p54
aS'S-VP'
p55
aS'S-PP'
p56
aS'B-NP'
p57
aS'I-NP'
p58
aS'I-NP'
p59
aS'I-NP'
p60
aS'I-NP'
p61
aS'I-NP'
p62
aS'E-NP'
p63
aS'B-VP'
p64
aS'E-VP'
p65
aS'S-PP'
p66
aS'S-NP'
p67
aS'B-PP'
p68
aS'E-PP'
p69
aS'B-NP'
p70
aS'E-NP'
p71
asS'dep_seq'
p72
(lp73
(lp74
S'nn'
p75
aS'8'
aS'1'
aa(lp76
S'nn'
p77
aS'8'
aS'2'
aa(lp78
S'nn'
p79
aS'8'
aS'3'
aa(lp80
S'nn'
p81
aS'8'
aS'4'
aa(lp82
S'nn'
p83
aS'8'
aS'5'
aa(lp84
S'nn'
p85
aS'8'
aS'6'
aa(lp86
S'nn'
p87
aS'8'
aS'7'
aa(lp88
S'nsubj'
p89
aS'9'
aS'8'
aa(lp90
S'root'
p91
aS'0'
aS'9'
aa(lp92
S'nn'
p93
aS'17'
p94
aS'11'
p95
aa(lp96
S'nn'
p97
aS'17'
p98
aS'12'
p99
aa(lp100
S'nn'
p101
aS'17'
p102
aS'13'
p103
aa(lp104
S'nn'
p105
aS'17'
p106
aS'14'
p107
aa(lp108
S'nn'
p109
aS'17'
p110
aS'15'
p111
aa(lp112
S'prep_by'
p113
aS'9'
aS'17'
p114
aa(lp115
S'dep'
p116
aS'9'
aS'18'
p117
aa(lp118
S'dep'
p119
aS'18'
p120
aS'19'
p121
aa(lp122
S'prep_to'
p123
aS'19'
p124
aS'21'
p125
aa(lp126
S'amod'
p127
aS'25'
p128
aS'24'
p129
aa(lp130
S'prep_because_of'
p131
aS'19'
p132
aS'25'
p133
aasS'srls'
p134
(lp135
(dp136
S'A1'
p137
S'VIAF Id string Virtual International Authority File ID'
p138
sS'A0'
p139
S'by Online Computer Library Center OCLC . Property range set to Agent'
p140
sS'V'
g29
sa(dp141
S'A1'
p142
S'VIAF Id string Virtual International Authority File ID operated by Online Computer Library Center OCLC . Property'
p143
sS'A3'
p144
S'set to Agent'
p145
sS'AM-CAU'
p146
S'because of corporate authors'
p147
sS'V'
g37
sa(dp148
S'A1'
p149
S'VIAF Id string Virtual International Authority File ID operated by Online Computer Library Center OCLC . Property'
p150
sS'AM-CAU'
p151
S'because of corporate authors'
p152
sS'A2'
p153
S'to Agent'
p154
sS'V'
g38
sasS'pos_seq'
p155
(lp156
S'NNP'
p157
aS'NNP'
p158
aS'NN'
p159
aS'NNP'
p160
aS'NNP'
p161
aS'NNP'
p162
aS'NNP'
p163
aS'NNP'
p164
aS'VBN'
p165
aS'IN'
p166
aS'NNP'
p167
aS'NNP'
p168
aS'NNP'
p169
aS'NNP'
p170
aS'NNP'
p171
aS'.'
aS'NNP'
p172
aS'VBP'
p173
aS'VBN'
p174
aS'TO'
p175
aS'NN'
p176
aS'IN'
p177
aS'IN'
p178
aS'JJ'
p179
aS'NNS'
p180
asS'ner_seq'
p181
(lp182
S'O'
aS'O'
aS'O'
aS'B-ORG'
p183
aS'I-ORG'
p184
aS'I-ORG'
p185
aS'I-ORG'
p186
aS'E-ORG'
p187
aS'O'
aS'O'
aS'B-ORG'
p188
aS'I-ORG'
p189
aS'I-ORG'
p190
aS'I-ORG'
p191
aS'E-ORG'
p192
aS'O'
aS'O'
aS'O'
aS'O'
aS'O'
aS'O'
aS'O'
aS'O'
aS'O'
aS'O'
assb.