ccopy_reg
_reconstructor
p1
(c__main__
KBproperty
p2
c__builtin__
object
p3
NtRp4
(dp5
S'comment'
p6
S'A bishopric diocese or episcopal see is a district under the supervision of a bishop. It is divided into parishes. Compare with eparchy'
p7
sS'domain'
p8
S'Religious Building '
p9
sS'instances_count'
p10
S'0'
sS'label'
p11
S'bishopric'
p12
sS'range'
p13
S''
sS'prop_uri'
p14
S"'http://dbpedia.org/ontology/bishopric'"
p15
sS'annotations'
p16
(dp17
S'bag_of_words'
p18
(lp19
S'Religious'
p20
aS'Building'
p21
aS'bishopric'
p22
aS'A'
aS'bishopric'
p23
aS'diocese'
p24
aS'or'
p25
aS'episcopal'
p26
aS'see'
p27
aS'is'
p28
aS'a'
aS'district'
p29
aS'under'
p30
aS'the'
p31
aS'supervision'
p32
aS'of'
p33
aS'a'
aS'bishop'
p34
aS'.'
aS'It'
p35
aS'is'
p36
aS'divided'
p37
aS'into'
p38
aS'parishes'
p39
aS'.'
aS'Compare'
p40
aS'with'
p41
aS'eparchy'
p42
asS'chunk_seq'
p43
(lp44
S'B-NP'
p45
aS'I-NP'
p46
aS'E-NP'
p47
aS'B-NP'
p48
aS'I-NP'
p49
aS'E-NP'
p50
aS'O'
aS'B-NP'
p51
aS'E-NP'
p52
aS'S-VP'
p53
aS'B-NP'
p54
aS'E-NP'
p55
aS'S-PP'
p56
aS'B-NP'
p57
aS'E-NP'
p58
aS'S-PP'
p59
aS'B-NP'
p60
aS'E-NP'
p61
aS'O'
aS'S-NP'
p62
aS'B-VP'
p63
aS'E-VP'
p64
aS'S-PP'
p65
aS'S-NP'
p66
aS'O'
aS'S-VP'
p67
aS'S-PP'
p68
aS'S-NP'
p69
asS'dep_seq'
p70
(lp71
(lp72
S'nn'
p73
aS'3'
aS'1'
aa(lp74
S'nn'
p75
aS'3'
aS'2'
aa(lp76
S'nsubj'
p77
aS'12'
p78
aS'3'
aa(lp79
S'det'
p80
aS'6'
aS'4'
aa(lp81
S'nn'
p82
aS'6'
aS'5'
aa(lp83
S'nsubj'
p84
aS'12'
p85
aS'6'
aa(lp86
S'amod'
p87
aS'9'
aS'8'
aa(lp88
S'conj_or'
p89
aS'6'
aS'9'
aa(lp90
S'cop'
p91
aS'12'
p92
aS'10'
p93
aa(lp94
S'det'
p95
aS'12'
p96
aS'11'
p97
aa(lp98
S'root'
p99
aS'0'
aS'12'
p100
aa(lp101
S'det'
p102
aS'15'
p103
aS'14'
p104
aa(lp105
S'prep_under'
p106
aS'12'
p107
aS'15'
p108
aa(lp109
S'det'
p110
aS'18'
p111
aS'17'
p112
aa(lp113
S'prep_of'
p114
aS'15'
p115
aS'18'
p116
aa(lp117
S'nsubjpass'
p118
aS'22'
p119
aS'20'
p120
aa(lp121
S'auxpass'
p122
aS'22'
p123
aS'21'
p124
aa(lp125
S'ccomp'
p126
aS'12'
p127
aS'22'
p128
aa(lp129
S'parataxis'
p130
aS'12'
p131
aS'22'
p132
aa(lp133
S'prep_into'
p134
aS'22'
p135
aS'24'
p136
aa(lp137
S'parataxis'
p138
aS'12'
p139
aS'26'
p140
aa(lp141
S'prep_with'
p142
aS'26'
p143
aS'28'
p144
aasS'srls'
p145
(lp146
(dp147
S'A1'
p148
g35
sS'AM-ADV'
p149
S'Compare with eparchy'
p150
sS'A2'
p151
S'into parishes'
p152
sS'V'
g37
sa(dp153
S'A2'
p154
S'with eparchy'
p155
sS'V'
g40
sasS'pos_seq'
p156
(lp157
S'NNP'
p158
aS'NNP'
p159
aS'NN'
p160
aS'DT'
p161
aS'NN'
p162
aS'NN'
p163
aS'CC'
p164
aS'JJ'
p165
aS'NN'
p166
aS'VBZ'
p167
aS'DT'
p168
aS'NN'
p169
aS'IN'
p170
aS'DT'
p171
aS'NN'
p172
aS'IN'
p173
aS'DT'
p174
aS'NN'
p175
aS'.'
aS'PRP'
p176
aS'VBZ'
p177
aS'VBN'
p178
aS'IN'
p179
aS'NNS'
p180
aS'.'
aS'VB'
p181
aS'IN'
p182
aS'NN'
p183
asS'ner_seq'
p184
(lp185
S'O'
aS'O'
aS'O'
aS'O'
aS'O'
aS'O'
aS'O'
aS'O'
aS'O'
aS'O'
aS'O'
aS'O'
aS'O'
aS'O'
aS'O'
aS'O'
aS'O'
aS'O'
aS'O'
aS'O'
aS'O'
aS'O'
aS'O'
aS'O'
aS'O'
aS'O'
aS'O'
aS'O'
assb.