ccopy_reg
_reconstructor
p1
(c__main__
KBproperty
p2
c__builtin__
object
p3
NtRp4
(dp5
S'comment'
p6
S''
sS'domain'
p7
S''
sS'instances_count'
p8
S'36215'
p9
sS'label'
p10
S'year'
p11
sS'range'
p12
S'g Year '
p13
sS'prop_uri'
p14
S"'http://dbpedia.org/ontology/year'"
p15
sS'annotations'
p16
(dp17
S'bag_of_words'
p18
(lp19
S'year'
p20
aS'g'
aS'Year'
p21
asS'chunk_seq'
p22
(lp23
S'B-NP'
p24
aS'I-NP'
p25
aS'E-NP'
p26
asS'dep_seq'
p27
(lp28
(lp29
S'nn'
p30
aS'3'
aS'1'
aa(lp31
S'num'
p32
aS'3'
aS'2'
aa(lp33
S'root'
p34
aS'0'
aS'3'
aasS'srls'
p35
(lp36
sS'pos_seq'
p37
(lp38
S'NN'
p39
aS'CD'
p40
aS'NN'
p41
asS'ner_seq'
p42
(lp43
S'O'
aS'O'
aS'O'
assb.