ccopy_reg
_reconstructor
p1
(c__main__
KBproperty
p2
c__builtin__
object
p3
NtRp4
(dp5
S'comment'
p6
S''
sS'domain'
p7
S'Automobile Engine '
p8
sS'instances_count'
p9
S'6532'
p10
sS'label'
p11
S'start year of insertion'
p12
sS'range'
p13
S'g Year '
p14
sS'prop_uri'
p15
S"'http://dbpedia.org/ontology/startYearOfInsertion'"
p16
sS'annotations'
p17
(dp18
S'bag_of_words'
p19
(lp20
S'Automobile'
p21
aS'Engine'
p22
aS'start'
p23
aS'year'
p24
aS'of'
p25
aS'insertion'
p26
aS'g'
aS'Year'
p27
asS'chunk_seq'
p28
(lp29
S'B-NP'
p30
aS'I-NP'
p31
aS'I-NP'
p32
aS'E-NP'
p33
aS'S-PP'
p34
aS'S-NP'
p35
aS'B-NP'
p36
aS'E-NP'
p37
asS'dep_seq'
p38
(lp39
(lp40
S'nn'
p41
aS'4'
aS'1'
aa(lp42
S'nn'
p43
aS'4'
aS'2'
aa(lp44
S'nn'
p45
aS'4'
aS'3'
aa(lp46
S'root'
p47
aS'0'
aS'4'
aa(lp48
S'prep_of'
p49
aS'4'
aS'6'
aa(lp50
S'num'
p51
aS'8'
aS'7'
aa(lp52
S'dep'
p53
aS'4'
aS'8'
aasS'srls'
p54
(lp55
sS'pos_seq'
p56
(lp57
S'NNP'
p58
aS'NNP'
p59
aS'NN'
p60
aS'NN'
p61
aS'IN'
p62
aS'NN'
p63
aS'CD'
p64
aS'NN'
p65
asS'ner_seq'
p66
(lp67
S'B-ORG'
p68
aS'E-ORG'
p69
aS'O'
aS'O'
aS'O'
aS'O'
aS'O'
aS'O'
assb.