ccopy_reg
_reconstructor
p1
(c__main__
KBproperty
p2
c__builtin__
object
p3
NtRp4
(dp5
S'comment'
p6
S''
sS'domain'
p7
S'Site Of Special Scientific Interest '
p8
sS'instances_count'
p9
S'682'
p10
sS'label'
p11
S'area of search'
p12
sS'range'
p13
S'Populated Place '
p14
sS'prop_uri'
p15
S"'http://dbpedia.org/ontology/areaOfSearch'"
p16
sS'annotations'
p17
(dp18
S'bag_of_words'
p19
(lp20
S'Site'
p21
aS'Of'
p22
aS'Special'
p23
aS'Scientific'
p24
aS'Interest'
p25
aS'area'
p26
aS'of'
p27
aS'search'
p28
aS'Populated'
p29
aS'Place'
p30
asS'chunk_seq'
p31
(lp32
S'S-NP'
p33
aS'S-PP'
p34
aS'B-NP'
p35
aS'I-NP'
p36
aS'I-NP'
p37
aS'E-NP'
p38
aS'S-PP'
p39
aS'B-NP'
p40
aS'I-NP'
p41
aS'E-NP'
p42
asS'dep_seq'
p43
(lp44
(lp45
S'root'
p46
aS'0'
aS'1'
aa(lp47
S'nn'
p48
aS'6'
aS'3'
aa(lp49
S'nn'
p50
aS'6'
aS'4'
aa(lp51
S'nn'
p52
aS'6'
aS'5'
aa(lp53
S'prep_of'
p54
aS'1'
aS'6'
aa(lp55
S'nn'
p56
aS'10'
p57
aS'8'
aa(lp58
S'amod'
p59
aS'10'
p60
aS'9'
aa(lp61
S'prep_of'
p62
aS'6'
aS'10'
p63
aasS'srls'
p64
(lp65
sS'pos_seq'
p66
(lp67
S'NN'
p68
aS'IN'
p69
aS'NNP'
p70
aS'NNP'
p71
aS'NNP'
p72
aS'NN'
p73
aS'IN'
p74
aS'NN'
p75
aS'JJ'
p76
aS'NN'
p77
asS'ner_seq'
p78
(lp79
S'O'
aS'O'
aS'O'
aS'O'
aS'O'
aS'O'
aS'O'
aS'O'
aS'O'
aS'O'
assb.