ccopy_reg
_reconstructor
p1
(c__main__
KBproperty
p2
c__builtin__
object
p3
NtRp4
(dp5
S'comment'
p6
S''
sS'domain'
p7
S''
sS'instances_count'
p8
S'0'
sS'label'
p9
S'start year'
p10
sS'range'
p11
S'g Year '
p12
sS'prop_uri'
p13
S"'http://dbpedia.org/ontology/endYear'"
p14
sS'annotations'
p15
(dp16
S'bag_of_words'
p17
(lp18
S'start'
p19
aS'year'
p20
aS'g'
aS'Year'
p21
asS'chunk_seq'
p22
(lp23
S'S-VP'
p24
aS'B-NP'
p25
aS'I-NP'
p26
aS'E-NP'
p27
asS'dep_seq'
p28
(lp29
(lp30
S'root'
p31
aS'0'
aS'1'
aa(lp32
S'nn'
p33
aS'4'
aS'2'
aa(lp34
S'nn'
p35
aS'4'
aS'3'
aa(lp36
S'tmod'
p37
aS'1'
aS'4'
aasS'srls'
p38
(lp39
(dp40
S'A1'
p41
g20
sS'A2'
p42
S'g Year'
p43
sS'V'
g19
sasS'pos_seq'
p44
(lp45
S'VB'
p46
aS'NN'
p47
aS'NN'
p48
aS'NN'
p49
asS'ner_seq'
p50
(lp51
S'O'
aS'O'
aS'O'
aS'O'
assb.