ccopy_reg
_reconstructor
p1
(c__main__
KBproperty
p2
c__builtin__
object
p3
NtRp4
(dp5
S'comment'
p6
S'NLA Trove\\xe2\\x80\\x99s People and Organisation view allows the discovery of biographical and other contextual information about people and organisations. Search also available via VIAF.'
p7
sS'domain'
p8
S''
sS'instances_count'
p9
S'24'
p10
sS'label'
p11
S'NLA Id'
p12
sS'range'
p13
S'string '
p14
sS'prop_uri'
p15
S"'http://dbpedia.org/ontology/nlaId'"
p16
sS'annotations'
p17
(dp18
S'bag_of_words'
p19
(lp20
S'NLA'
p21
aS'Id'
p22
aS'string'
p23
aS'NLA'
p24
aS'Trove'
p25
aS'\\'
aS'xe2'
p26
aS'\\'
aS'x80'
p27
aS'\\'
aS'x99s'
p28
aS'People'
p29
aS'and'
p30
aS'Organisation'
p31
aS'view'
p32
aS'allows'
p33
aS'the'
p34
aS'discovery'
p35
aS'of'
p36
aS'biographical'
p37
aS'and'
p38
aS'other'
p39
aS'contextual'
p40
aS'information'
p41
aS'about'
p42
aS'people'
p43
aS'and'
p44
aS'organisations'
p45
aS'.'
aS'Search'
p46
aS'also'
p47
aS'available'
p48
aS'via'
p49
aS'VIAF'
p50
aS'.'
asS'chunk_seq'
p51
(lp52
S'B-NP'
p53
aS'I-NP'
p54
aS'I-NP'
p55
aS'I-NP'
p56
aS'E-NP'
p57
aS'O'
aS'O'
aS'O'
aS'O'
aS'O'
aS'O'
aS'S-NP'
p58
aS'O'
aS'B-NP'
p59
aS'E-NP'
p60
aS'S-VP'
p61
aS'B-NP'
p62
aS'E-NP'
p63
aS'S-PP'
p64
aS'B-NP'
p65
aS'I-NP'
p66
aS'I-NP'
p67
aS'I-NP'
p68
aS'E-NP'
p69
aS'S-PP'
p70
aS'B-NP'
p71
aS'I-NP'
p72
aS'E-NP'
p73
aS'O'
aS'S-NP'
p74
aS'S-ADVP'
p75
aS'S-ADJP'
p76
aS'S-PP'
p77
aS'S-NP'
p78
aS'O'
asS'dep_seq'
p79
(lp80
(lp81
S'nn'
p82
aS'12'
p83
aS'1'
aa(lp84
S'nn'
p85
aS'12'
p86
aS'2'
aa(lp87
S'nn'
p88
aS'12'
p89
aS'3'
aa(lp90
S'nn'
p91
aS'12'
p92
aS'4'
aa(lp93
S'nn'
p94
aS'12'
p95
aS'5'
aa(lp96
S'nn'
p97
aS'12'
p98
aS'6'
aa(lp99
S'nn'
p100
aS'12'
p101
aS'7'
aa(lp102
S'nn'
p103
aS'12'
p104
aS'8'
aa(lp105
S'nn'
p106
aS'12'
p107
aS'9'
aa(lp108
S'nn'
p109
aS'12'
p110
aS'10'
p111
aa(lp112
S'amod'
p113
aS'12'
p114
aS'11'
p115
aa(lp116
S'root'
p117
aS'0'
aS'12'
p118
aa(lp119
S'nn'
p120
aS'15'
p121
aS'14'
p122
aa(lp123
S'conj_and'
p124
aS'12'
p125
aS'15'
p126
aa(lp127
S'dep'
p128
aS'12'
p129
aS'16'
p130
aa(lp131
S'det'
p132
aS'18'
p133
aS'17'
p134
aa(lp135
S'dep'
p136
aS'12'
p137
aS'18'
p138
aa(lp139
S'prep_of'
p140
aS'12'
p141
aS'20'
p142
aa(lp143
S'amod'
p144
aS'24'
p145
aS'22'
p146
aa(lp147
S'amod'
p148
aS'24'
p149
aS'23'
p150
aa(lp151
S'conj_and'
p152
aS'12'
p153
aS'24'
p154
aa(lp155
S'prep_about'
p156
aS'24'
p157
aS'26'
p158
aa(lp159
S'conj_and'
p160
aS'26'
p161
aS'28'
p162
aa(lp163
S'dep'
p164
aS'12'
p165
aS'30'
p166
aa(lp167
S'advmod'
p168
aS'30'
p169
aS'31'
p170
aa(lp171
S'amod'
p172
aS'30'
p173
aS'32'
p174
aa(lp175
S'prep_via'
p176
aS'32'
p177
aS'34'
p178
aasS'srls'
p179
(lp180
(dp181
S'A1'
p182
S'the discovery of biographical and other contextual information about people and organisations . Search also available via VIAF'
p183
sS'A0'
p184
S'NLA Id string NLA Trove \\ xe2 \\ x80 \\ x99s People and Organisation view'
p185
sS'V'
g33
sasS'pos_seq'
p186
(lp187
S'NNP'
p188
aS'NNP'
p189
aS'NN'
p190
aS'NNP'
p191
aS'NNP'
p192
aS'FW'
p193
aS'FW'
p194
aS'FW'
p195
aS'FW'
p196
aS'FW'
p197
aS'JJ'
p198
aS'NNS'
p199
aS'CC'
p200
aS'NNP'
p201
aS'NN'
p202
aS'VBZ'
p203
aS'DT'
p204
aS'NN'
p205
aS'IN'
p206
aS'JJ'
p207
aS'CC'
p208
aS'JJ'
p209
aS'JJ'
p210
aS'NN'
p211
aS'IN'
p212
aS'NNS'
p213
aS'CC'
p214
aS'NNS'
p215
aS'.'
aS'NNP'
p216
aS'RB'
p217
aS'JJ'
p218
aS'IN'
p219
aS'NNP'
p220
aS'.'
asS'ner_seq'
p221
(lp222
S'S-MISC'
p223
aS'O'
aS'O'
aS'B-ORG'
p224
aS'E-ORG'
p225
aS'O'
aS'O'
aS'O'
aS'O'
aS'O'
aS'O'
aS'O'
aS'O'
aS'S-ORG'
p226
aS'O'
aS'O'
aS'O'
aS'O'
aS'O'
aS'O'
aS'O'
aS'O'
aS'O'
aS'O'
aS'O'
aS'O'
aS'O'
aS'O'
aS'O'
aS'O'
aS'O'
aS'O'
aS'O'
aS'S-LOC'
p227
aS'O'
assb.