ccopy_reg
_reconstructor
p1
(c__main__
KBproperty
p2
c__builtin__
object
p3
NtRp4
(dp5
S'comment'
p6
S'Are reservations required for the establishment or event?'
p7
sS'domain'
p8
S'Restaurant '
p9
sS'instances_count'
p10
S'58'
p11
sS'label'
p12
S'reservations'
p13
sS'range'
p14
S'boolean '
p15
sS'prop_uri'
p16
S"'http://dbpedia.org/ontology/reservations'"
p17
sS'annotations'
p18
(dp19
S'bag_of_words'
p20
(lp21
S'Restaurant'
p22
aS'reservations'
p23
aS'boolean'
p24
aS'Are'
p25
aS'reservations'
p26
aS'required'
p27
aS'for'
p28
aS'the'
p29
aS'establishment'
p30
aS'or'
p31
aS'event'
p32
aS'?'
asS'chunk_seq'
p33
(lp34
S'B-NP'
p35
aS'I-NP'
p36
aS'E-NP'
p37
aS'S-VP'
p38
aS'S-NP'
p39
aS'S-VP'
p40
aS'S-PP'
p41
aS'B-NP'
p42
aS'I-NP'
p43
aS'I-NP'
p44
aS'E-NP'
p45
aS'O'
asS'dep_seq'
p46
(lp47
(lp48
S'nn'
p49
aS'3'
aS'1'
aa(lp50
S'nn'
p51
aS'3'
aS'2'
aa(lp52
S'nsubj'
p53
aS'5'
aS'3'
aa(lp54
S'cop'
p55
aS'5'
aS'4'
aa(lp56
S'root'
p57
aS'0'
aS'5'
aa(lp58
S'partmod'
p59
aS'5'
aS'6'
aa(lp60
S'det'
p61
aS'9'
aS'8'
aa(lp62
S'prep_for'
p63
aS'6'
aS'9'
aa(lp64
S'conj_or'
p65
aS'9'
aS'11'
p66
aasS'srls'
p67
(lp68
(dp69
S'A1'
p70
S'reservations  for the establishment or event'
p71
sS'V'
g27
sasS'pos_seq'
p72
(lp73
S'NN'
p74
aS'NNS'
p75
aS'NN'
p76
aS'VBP'
p77
aS'NNS'
p78
aS'VBN'
p79
aS'IN'
p80
aS'DT'
p81
aS'NN'
p82
aS'CC'
p83
aS'NN'
p84
aS'.'
asS'ner_seq'
p85
(lp86
S'O'
aS'O'
aS'O'
aS'O'
aS'O'
aS'O'
aS'O'
aS'O'
aS'O'
aS'O'
aS'O'
aS'O'
assb.