ccopy_reg
_reconstructor
p1
(c__main__
KBproperty
p2
c__builtin__
object
p3
NtRp4
(dp5
S'comment'
p6
S'participates/participated in'
p7
sS'domain'
p8
S'Member Resistance Movement '
p9
sS'instances_count'
p10
S'0'
sS'label'
p11
g7
sS'range'
p12
S'Societal Event '
p13
sS'prop_uri'
p14
S"'http://dbpedia.org/ontology/participatingIn'"
p15
sS'annotations'
p16
(dp17
S'bag_of_words'
p18
(lp19
S'Member'
p20
aS'Resistance'
p21
aS'Movement'
p22
aS'participating'
p23
aS'In'
p24
aS'Societal'
p25
aS'Event'
p26
aS'participates'
p27
aS'/'
aS'participated'
p28
aS'in'
p29
asS'chunk_seq'
p30
(lp31
S'B-NP'
p32
aS'I-NP'
p33
aS'E-NP'
p34
aS'S-VP'
p35
aS'S-PP'
p36
aS'B-NP'
p37
aS'E-NP'
p38
aS'S-VP'
p39
aS'O'
aS'S-VP'
p40
aS'S-PP'
p41
asS'dep_seq'
p42
(lp43
(lp44
S'nn'
p45
aS'3'
aS'1'
aa(lp46
S'nn'
p47
aS'3'
aS'2'
aa(lp48
S'nsubj'
p49
aS'4'
aS'3'
aa(lp50
S'root'
p51
aS'0'
aS'4'
aa(lp52
S'mark'
p53
aS'10'
p54
aS'5'
aa(lp55
S'nn'
p56
aS'7'
aS'6'
aa(lp57
S'nsubj'
p58
aS'8'
aS'7'
aa(lp59
S'csubj'
p60
aS'10'
p61
aS'8'
aa(lp62
S'punct'
p63
aS'10'
p64
aS'9'
aa(lp65
S'advcl'
p66
aS'4'
aS'10'
p67
aa(lp68
S'prep'
p69
aS'10'
p70
aS'11'
p71
aasS'srls'
p72
(lp73
(dp74
S'A1'
p75
S'In Societal Event'
p76
sS'A0'
p77
S'Member Resistance Movement'
p78
sS'V'
g23
sa(dp79
S'A0'
p80
S'Member Resistance Movement participating In Societal Event'
p81
sS'V'
g27
sa(dp82
S'A0'
p83
S'Member Resistance Movement participating In Societal Event'
p84
sS'V'
g28
sasS'pos_seq'
p85
(lp86
S'NNP'
p87
aS'NNP'
p88
aS'NNP'
p89
aS'VBG'
p90
aS'IN'
p91
aS'NNP'
p92
aS'NNP'
p93
aS'VBZ'
p94
aS':'
aS'VBD'
p95
aS'IN'
p96
asS'ner_seq'
p97
(lp98
S'O'
aS'B-MISC'
p99
aS'I-MISC'
p100
aS'I-MISC'
p101
aS'I-MISC'
p102
aS'I-MISC'
p103
aS'E-MISC'
p104
aS'O'
aS'O'
aS'O'
aS'O'
assb.