ccopy_reg
_reconstructor
p1
(c__main__
KBproperty
p2
c__builtin__
object
p3
NtRp4
(dp5
S'comment'
p6
S'The service number held by the individual during military service.'
p7
sS'domain'
p8
S'Military Person '
p9
sS'instances_count'
p10
S'740'
p11
sS'label'
p12
S'service number'
p13
sS'range'
p14
S'string '
p15
sS'prop_uri'
p16
S"'http://dbpedia.org/ontology/serviceNumber'"
p17
sS'annotations'
p18
(dp19
S'bag_of_words'
p20
(lp21
S'Military'
p22
aS'Person'
p23
aS'service'
p24
aS'number'
p25
aS'string'
p26
aS'The'
p27
aS'service'
p28
aS'number'
p29
aS'held'
p30
aS'by'
p31
aS'the'
p32
aS'individual'
p33
aS'during'
p34
aS'military'
p35
aS'service.'
p36
asS'chunk_seq'
p37
(lp38
S'B-NP'
p39
aS'I-NP'
p40
aS'I-NP'
p41
aS'I-NP'
p42
aS'E-NP'
p43
aS'B-NP'
p44
aS'I-NP'
p45
aS'E-NP'
p46
aS'S-VP'
p47
aS'S-PP'
p48
aS'B-NP'
p49
aS'E-NP'
p50
aS'S-PP'
p51
aS'B-NP'
p52
aS'E-NP'
p53
asS'dep_seq'
p54
(lp55
(lp56
S'amod'
p57
aS'5'
aS'1'
aa(lp58
S'nn'
p59
aS'5'
aS'2'
aa(lp60
S'nn'
p61
aS'5'
aS'3'
aa(lp62
S'nn'
p63
aS'5'
aS'4'
aa(lp64
S'dep'
p65
aS'8'
aS'5'
aa(lp66
S'det'
p67
aS'8'
aS'6'
aa(lp68
S'nn'
p69
aS'8'
aS'7'
aa(lp70
S'root'
p71
aS'0'
aS'8'
aa(lp72
S'partmod'
p73
aS'8'
aS'9'
aa(lp74
S'det'
p75
aS'12'
p76
aS'11'
p77
aa(lp78
S'agent'
p79
aS'9'
aS'12'
p80
aa(lp81
S'amod'
p82
aS'15'
p83
aS'14'
p84
aa(lp85
S'prep_during'
p86
aS'9'
aS'15'
p87
aasS'srls'
p88
(lp89
(dp90
S'A1'
p91
S'Military Person service number string The service number'
p92
sS'A0'
p93
S'by the individual'
p94
sS'AM-TMP'
p95
S'during military service.'
p96
sS'V'
g30
sasS'pos_seq'
p97
(lp98
S'JJ'
p99
aS'NN'
p100
aS'NN'
p101
aS'NN'
p102
aS'NN'
p103
aS'DT'
p104
aS'NN'
p105
aS'NN'
p106
aS'VBN'
p107
aS'IN'
p108
aS'DT'
p109
aS'NN'
p110
aS'IN'
p111
aS'JJ'
p112
aS'NN'
p113
asS'ner_seq'
p114
(lp115
S'O'
aS'O'
aS'O'
aS'O'
aS'O'
aS'O'
aS'O'
aS'O'
aS'O'
aS'O'
aS'O'
aS'O'
aS'O'
aS'O'
aS'O'
assb.