ccopy_reg
_reconstructor
p1
(c__main__
KBproperty
p2
c__builtin__
object
p3
NtRp4
(dp5
S'comment'
p6
S'This property holds an intermediate node of the type Sales.'
p7
sS'domain'
p8
S''
sS'instances_count'
p9
S'1904'
p10
sS'label'
p11
S'sales'
p12
sS'range'
p13
S'Sales '
p14
sS'prop_uri'
p15
S"'http://dbpedia.org/ontology/sales'"
p16
sS'annotations'
p17
(dp18
S'bag_of_words'
p19
(lp20
S'sales'
p21
aS'Sales'
p22
aS'This'
p23
aS'property'
p24
aS'holds'
p25
aS'an'
p26
aS'intermediate'
p27
aS'node'
p28
aS'of'
p29
aS'the'
p30
aS'type'
p31
aS'Sales'
p32
aS'.'
asS'chunk_seq'
p33
(lp34
S'B-NP'
p35
aS'E-NP'
p36
aS'B-NP'
p37
aS'E-NP'
p38
aS'S-VP'
p39
aS'B-NP'
p40
aS'I-NP'
p41
aS'E-NP'
p42
aS'S-PP'
p43
aS'B-NP'
p44
aS'I-NP'
p45
aS'E-NP'
p46
aS'O'
asS'dep_seq'
p47
(lp48
(lp49
S'nn'
p50
aS'4'
aS'1'
aa(lp51
S'nn'
p52
aS'4'
aS'2'
aa(lp53
S'det'
p54
aS'4'
aS'3'
aa(lp55
S'nsubj'
p56
aS'5'
aS'4'
aa(lp57
S'root'
p58
aS'0'
aS'5'
aa(lp59
S'det'
p60
aS'8'
aS'6'
aa(lp61
S'amod'
p62
aS'8'
aS'7'
aa(lp63
S'dobj'
p64
aS'5'
aS'8'
aa(lp65
S'det'
p66
aS'12'
p67
aS'10'
p68
aa(lp69
S'nn'
p70
aS'12'
p71
aS'11'
p72
aa(lp73
S'prep_of'
p74
aS'8'
aS'12'
p75
aasS'srls'
p76
(lp77
(dp78
S'A1'
p79
S'an intermediate node of the type Sales'
p80
sS'A0'
p81
S'sales Sales This property'
p82
sS'V'
g25
sasS'pos_seq'
p83
(lp84
S'NNS'
p85
aS'NNS'
p86
aS'DT'
p87
aS'NN'
p88
aS'VBZ'
p89
aS'DT'
p90
aS'JJ'
p91
aS'NN'
p92
aS'IN'
p93
aS'DT'
p94
aS'NN'
p95
aS'NNS'
p96
aS'.'
asS'ner_seq'
p97
(lp98
S'O'
aS'O'
aS'O'
aS'O'
aS'O'
aS'O'
aS'O'
aS'O'
aS'O'
aS'O'
aS'O'
aS'O'
aS'O'
assb.