ccopy_reg
_reconstructor
p1
(c__main__
KBproperty
p2
c__builtin__
object
p3
NtRp4
(dp5
S'comment'
p6
S''
sS'domain'
p7
S'Place '
p8
sS'instances_count'
p9
S'438823'
p10
sS'label'
p11
S'UTC offset'
p12
sS'range'
p13
S'string '
p14
sS'prop_uri'
p15
S"'http://dbpedia.org/ontology/utcOffset'"
p16
sS'annotations'
p17
(dp18
S'bag_of_words'
p19
(lp20
S'Place'
p21
aS'UTC'
p22
aS'offset'
p23
aS'string'
p24
asS'chunk_seq'
p25
(lp26
S'B-NP'
p27
aS'I-NP'
p28
aS'I-NP'
p29
aS'E-NP'
p30
asS'dep_seq'
p31
(lp32
(lp33
S'nsubj'
p34
aS'3'
aS'1'
aa(lp35
S'nsubj'
p36
aS'3'
aS'2'
aa(lp37
S'root'
p38
aS'0'
aS'3'
aa(lp39
S'dobj'
p40
aS'3'
aS'4'
aasS'srls'
p41
(lp42
(dp43
S'A1'
p44
g24
sS'A2'
p45
g21
sS'AM-TMP'
p46
g22
sS'V'
g23
sasS'pos_seq'
p47
(lp48
S'NNP'
p49
aS'NNP'
p50
aS'VBD'
p51
aS'NN'
p52
asS'ner_seq'
p53
(lp54
S'O'
aS'O'
aS'O'
aS'O'
assb.