ccopy_reg
_reconstructor
p1
(c__main__
KBproperty
p2
c__builtin__
object
p3
NtRp4
(dp5
S'comment'
p6
S'A former parent broadcast network to which the broadcaster once belonged.'
p7
sS'domain'
p8
S'Broadcaster '
p9
sS'instances_count'
p10
S'4757'
p11
sS'label'
p12
S'former broadcast network'
p13
sS'range'
p14
S'Broadcast Network '
p15
sS'prop_uri'
p16
S"'http://dbpedia.org/ontology/formerBroadcastNetwork'"
p17
sS'annotations'
p18
(dp19
S'bag_of_words'
p20
(lp21
S'Broadcaster'
p22
aS'former'
p23
aS'broadcast'
p24
aS'network'
p25
aS'Broadcast'
p26
aS'Network'
p27
aS'A'
aS'former'
p28
aS'parent'
p29
aS'broadcast'
p30
aS'network'
p31
aS'to'
p32
aS'which'
p33
aS'the'
p34
aS'broadcaster'
p35
aS'once'
p36
aS'belonged'
p37
aS'.'
asS'chunk_seq'
p38
(lp39
S'B-NP'
p40
aS'I-NP'
p41
aS'I-NP'
p42
aS'I-NP'
p43
aS'I-NP'
p44
aS'E-NP'
p45
aS'B-NP'
p46
aS'I-NP'
p47
aS'I-NP'
p48
aS'I-NP'
p49
aS'E-NP'
p50
aS'S-PP'
p51
aS'S-NP'
p52
aS'B-NP'
p53
aS'E-NP'
p54
aS'S-ADVP'
p55
aS'S-VP'
p56
aS'O'
asS'dep_seq'
p57
(lp58
(lp59
S'nn'
p60
aS'11'
p61
aS'1'
aa(lp62
S'amod'
p63
aS'11'
p64
aS'2'
aa(lp65
S'nn'
p66
aS'11'
p67
aS'3'
aa(lp68
S'nn'
p69
aS'11'
p70
aS'4'
aa(lp71
S'nn'
p72
aS'11'
p73
aS'5'
aa(lp74
S'nn'
p75
aS'11'
p76
aS'6'
aa(lp77
S'nn'
p78
aS'11'
p79
aS'7'
aa(lp80
S'amod'
p81
aS'11'
p82
aS'8'
aa(lp83
S'nn'
p84
aS'11'
p85
aS'9'
aa(lp86
S'nn'
p87
aS'11'
p88
aS'10'
p89
aa(lp90
S'root'
p91
aS'0'
aS'11'
p92
aa(lp93
S'prep_to'
p94
aS'17'
p95
aS'11'
p96
aa(lp97
S'rel'
p98
aS'17'
p99
aS'12'
p100
aa(lp101
S'det'
p102
aS'15'
p103
aS'14'
p104
aa(lp105
S'nsubj'
p106
aS'17'
p107
aS'15'
p108
aa(lp109
S'advmod'
p110
aS'17'
p111
aS'16'
p112
aa(lp113
S'rcmod'
p114
aS'11'
p115
aS'17'
p116
aasS'srls'
p117
(lp118
(dp119
S'A0'
p120
S'Broadcaster former broadcast network Broadcast Network A former parent broadcast network to which the broadcaster'
p121
sS'AM-TMP'
p122
g36
sS'V'
g37
sasS'pos_seq'
p123
(lp124
S'NN'
p125
aS'JJ'
p126
aS'NN'
p127
aS'NN'
p128
aS'NNP'
p129
aS'NNP'
p130
aS'NNP'
p131
aS'JJ'
p132
aS'NN'
p133
aS'NN'
p134
aS'NN'
p135
aS'TO'
p136
aS'WDT'
p137
aS'DT'
p138
aS'NN'
p139
aS'RB'
p140
aS'VBD'
p141
aS'.'
asS'ner_seq'
p142
(lp143
S'O'
aS'O'
aS'O'
aS'O'
aS'B-MISC'
p144
aS'I-MISC'
p145
aS'E-MISC'
p146
aS'O'
aS'O'
aS'O'
aS'O'
aS'O'
aS'O'
aS'O'
aS'O'
aS'O'
aS'O'
aS'O'
assb.