ccopy_reg
_reconstructor
p1
(c__main__
KBproperty
p2
c__builtin__
object
p3
NtRp4
(dp5
S'comment'
p6
S'the living thing class from the Latin "classis" according to the biological taxonomy'
p7
sS'domain'
p8
S'Species '
p9
sS'instances_count'
p10
S'0'
sS'label'
p11
S'classis'
p12
sS'range'
p13
S''
sS'prop_uri'
p14
S"'http://dbpedia.org/ontology/classis'"
p15
sS'annotations'
p16
(dp17
S'bag_of_words'
p18
(lp19
S'Species'
p20
aS'classis'
p21
aS'the'
p22
aS'living'
p23
aS'thing'
p24
aS'class'
p25
aS'from'
p26
aS'the'
p27
aS'Latin'
p28
aS'"'
aS'classis'
p29
aS'"'
aS'according'
p30
aS'to'
p31
aS'the'
p32
aS'biological'
p33
aS'taxonomy'
p34
asS'chunk_seq'
p35
(lp36
S'S-NP'
p37
aS'S-VP'
p38
aS'B-NP'
p39
aS'I-NP'
p40
aS'I-NP'
p41
aS'E-NP'
p42
aS'S-PP'
p43
aS'B-NP'
p44
aS'I-NP'
p45
aS'I-NP'
p46
aS'I-NP'
p47
aS'E-NP'
p48
aS'S-PP'
p49
aS'S-PP'
p50
aS'B-NP'
p51
aS'I-NP'
p52
aS'E-NP'
p53
asS'dep_seq'
p54
(lp55
(lp56
S'nsubj'
p57
aS'2'
aS'1'
aa(lp58
S'root'
p59
aS'0'
aS'2'
aa(lp60
S'det'
p61
aS'6'
aS'3'
aa(lp62
S'nn'
p63
aS'6'
aS'4'
aa(lp64
S'nn'
p65
aS'6'
aS'5'
aa(lp66
S'dobj'
p67
aS'2'
aS'6'
aa(lp68
S'det'
p69
aS'9'
aS'8'
aa(lp70
S'prep_from'
p71
aS'2'
aS'9'
aa(lp72
S'dep'
p73
aS'9'
aS'10'
p74
aa(lp75
S'nn'
p76
aS'12'
p77
aS'11'
p78
aa(lp79
S'advmod'
p80
aS'9'
aS'12'
p81
aa(lp82
S'prepc_according_to'
p83
aS'2'
aS'14'
p84
aa(lp85
S'det'
p86
aS'17'
p87
aS'15'
p88
aa(lp89
S'amod'
p90
aS'17'
p91
aS'16'
p92
aa(lp93
S'pobj'
p94
aS'2'
aS'17'
p95
aasS'srls'
p96
(lp97
(dp98
S'A1'
p99
S'the living thing class'
p100
sS'A0'
p101
g20
sS'A2'
p102
S'from the Latin " classis " according to the biological taxonomy'
p103
sS'V'
g21
sasS'pos_seq'
p104
(lp105
S'NNS'
p106
aS'VBZ'
p107
aS'DT'
p108
aS'NN'
p109
aS'NN'
p110
aS'NN'
p111
aS'IN'
p112
aS'DT'
p113
aS'FW'
p114
aS'FW'
p115
aS'FW'
p116
aS'FW'
p117
aS'VBG'
p118
aS'TO'
p119
aS'DT'
p120
aS'JJ'
p121
aS'NN'
p122
asS'ner_seq'
p123
(lp124
S'O'
aS'O'
aS'O'
aS'O'
aS'O'
aS'O'
aS'O'
aS'O'
aS'S-MISC'
p125
aS'O'
aS'O'
aS'O'
aS'O'
aS'O'
aS'O'
aS'O'
aS'O'
assb.