ccopy_reg
_reconstructor
p1
(c__main__
KBproperty
p2
c__builtin__
object
p3
NtRp4
(dp5
S'comment'
p6
S''
sS'domain'
p7
S'Species '
p8
sS'instances_count'
p9
S'0'
sS'label'
p10
S'super-order'
p11
sS'range'
p12
S''
sS'prop_uri'
p13
S"'http://dbpedia.org/ontology/superOrder'"
p14
sS'annotations'
p15
(dp16
S'bag_of_words'
p17
(lp18
S'Species'
p19
aS'super'
p20
aS'-'
aS'order'
p21
asS'chunk_seq'
p22
(lp23
S'S-NP'
p24
aS'S-VP'
p25
aS'O'
aS'O'
asS'dep_seq'
p26
(lp27
(lp28
S'nn'
p29
aS'4'
aS'1'
aa(lp30
S'possessive'
p31
aS'4'
aS'2'
aa(lp32
S'root'
p33
aS'0'
aS'4'
aasS'srls'
p34
(lp35
sS'pos_seq'
p36
(lp37
S'NNS'
p38
aS'POS'
p39
aS':'
aS'NN'
p40
asS'ner_seq'
p41
(lp42
S'O'
aS'O'
aS'O'
aS'O'
assb.