ccopy_reg
_reconstructor
p1
(c__main__
KBproperty
p2
c__builtin__
object
p3
NtRp4
(dp5
S'comment'
p6
S''
sS'domain'
p7
S'Mean Of Transportation '
p8
sS'instances_count'
p9
S'0'
sS'label'
p10
S'version'
p11
sS'range'
p12
S''
sS'prop_uri'
p13
S"'http://dbpedia.org/ontology/version'"
p14
sS'annotations'
p15
(dp16
S'bag_of_words'
p17
(lp18
S'Mean'
p19
aS'Of'
p20
aS'Transportation'
p21
aS'version'
p22
asS'chunk_seq'
p23
(lp24
S'S-NP'
p25
aS'S-PP'
p26
aS'B-NP'
p27
aS'E-NP'
p28
asS'dep_seq'
p29
(lp30
(lp31
S'root'
p32
aS'0'
aS'1'
aa(lp33
S'nn'
p34
aS'4'
aS'3'
aa(lp35
S'prep_of'
p36
aS'1'
aS'4'
aasS'srls'
p37
(lp38
sS'pos_seq'
p39
(lp40
S'NNP'
p41
aS'IN'
p42
aS'NNP'
p43
aS'NN'
p44
asS'ner_seq'
p45
(lp46
S'O'
aS'B-ORG'
p47
aS'E-ORG'
p48
aS'O'
assb.