ccopy_reg
_reconstructor
p1
(c__main__
KBproperty
p2
c__builtin__
object
p3
NtRp4
(dp5
S'comment'
p6
S'The year in which construction of the Place was finished.'
p7
sS'domain'
p8
S'Place '
p9
sS'instances_count'
p10
S'46702'
p11
sS'label'
p12
S'year of construction'
p13
sS'range'
p14
S'g Year '
p15
sS'prop_uri'
p16
S"'http://dbpedia.org/ontology/yearOfConstruction'"
p17
sS'annotations'
p18
(dp19
S'bag_of_words'
p20
(lp21
S'Place'
p22
aS'year'
p23
aS'of'
p24
aS'construction'
p25
aS'g'
aS'Year'
p26
aS'The'
p27
aS'year'
p28
aS'in'
p29
aS'which'
p30
aS'construction'
p31
aS'of'
p32
aS'the'
p33
aS'Place'
p34
aS'was'
p35
aS'finished'
p36
aS'.'
asS'chunk_seq'
p37
(lp38
S'B-NP'
p39
aS'E-NP'
p40
aS'S-PP'
p41
aS'S-NP'
p42
aS'B-NP'
p43
aS'E-NP'
p44
aS'B-NP'
p45
aS'E-NP'
p46
aS'S-PP'
p47
aS'S-NP'
p48
aS'S-NP'
p49
aS'S-PP'
p50
aS'B-NP'
p51
aS'E-NP'
p52
aS'B-VP'
p53
aS'E-VP'
p54
aS'O'
asS'dep_seq'
p55
(lp56
(lp57
S'nn'
p58
aS'2'
aS'1'
aa(lp59
S'root'
p60
aS'0'
aS'2'
aa(lp61
S'prep_in'
p62
aS'16'
p63
aS'2'
aa(lp64
S'nn'
p65
aS'6'
aS'4'
aa(lp66
S'nn'
p67
aS'6'
aS'5'
aa(lp68
S'prep_of'
p69
aS'2'
aS'6'
aa(lp70
S'det'
p71
aS'8'
aS'7'
aa(lp72
S'dep'
p73
aS'2'
aS'8'
aa(lp74
S'rel'
p75
aS'16'
p76
aS'9'
aa(lp77
S'nsubjpass'
p78
aS'16'
p79
aS'11'
p80
aa(lp81
S'det'
p82
aS'14'
p83
aS'13'
p84
aa(lp85
S'prep_of'
p86
aS'11'
p87
aS'14'
p88
aa(lp89
S'auxpass'
p90
aS'16'
p91
aS'15'
p92
aa(lp93
S'rcmod'
p94
aS'2'
aS'16'
p95
aasS'srls'
p96
(lp97
(dp98
S'A1'
p99
S'construction of the Place'
p100
sS'AM-TMP'
p101
S'The year'
p102
sS'V'
g36
sasS'pos_seq'
p103
(lp104
S'NN'
p105
aS'NN'
p106
aS'IN'
p107
aS'NN'
p108
aS'NN'
p109
aS'NN'
p110
aS'DT'
p111
aS'NN'
p112
aS'IN'
p113
aS'WDT'
p114
aS'NN'
p115
aS'IN'
p116
aS'DT'
p117
aS'NNP'
p118
aS'VBD'
p119
aS'VBN'
p120
aS'.'
asS'ner_seq'
p121
(lp122
S'O'
aS'O'
aS'O'
aS'O'
aS'O'
aS'O'
aS'O'
aS'O'
aS'O'
aS'O'
aS'O'
aS'O'
aS'O'
aS'O'
aS'O'
aS'O'
aS'O'
assb.