ccopy_reg
_reconstructor
p1
(c__main__
KBproperty
p2
c__builtin__
object
p3
NtRp4
(dp5
S'comment'
p6
S'opponent in a military conflict an organisation country or group of countries. '
p7
sS'domain'
p8
S'Military Conflict '
p9
sS'instances_count'
p10
S'0'
sS'label'
p11
S'opponents'
p12
sS'range'
p13
S''
sS'prop_uri'
p14
S"'http://dbpedia.org/ontology/opponents'"
p15
sS'annotations'
p16
(dp17
S'bag_of_words'
p18
(lp19
S'Military'
p20
aS'Conflict'
p21
aS'opponents'
p22
aS'opponent'
p23
aS'in'
p24
aS'a'
aS'military'
p25
aS'conflict'
p26
aS'an'
p27
aS'organisation'
p28
aS'country'
p29
aS'or'
p30
aS'group'
p31
aS'of'
p32
aS'countries.'
p33
asS'chunk_seq'
p34
(lp35
S'B-NP'
p36
aS'I-NP'
p37
aS'I-NP'
p38
aS'E-NP'
p39
aS'S-PP'
p40
aS'B-NP'
p41
aS'I-NP'
p42
aS'E-NP'
p43
aS'B-NP'
p44
aS'I-NP'
p45
aS'I-NP'
p46
aS'I-NP'
p47
aS'E-NP'
p48
aS'S-PP'
p49
aS'S-NP'
p50
asS'dep_seq'
p51
(lp52
(lp53
S'amod'
p54
aS'4'
aS'1'
aa(lp55
S'nn'
p56
aS'4'
aS'2'
aa(lp57
S'nn'
p58
aS'4'
aS'3'
aa(lp59
S'root'
p60
aS'0'
aS'4'
aa(lp61
S'det'
p62
aS'8'
aS'6'
aa(lp63
S'amod'
p64
aS'8'
aS'7'
aa(lp65
S'prep_in'
p66
aS'4'
aS'8'
aa(lp67
S'det'
p68
aS'11'
p69
aS'9'
aa(lp70
S'nn'
p71
aS'11'
p72
aS'10'
p73
aa(lp74
S'dep'
p75
aS'4'
aS'11'
p76
aa(lp77
S'conj_or'
p78
aS'11'
p79
aS'13'
p80
aa(lp81
S'prep_of'
p82
aS'4'
aS'15'
p83
aasS'srls'
p84
(lp85
sS'pos_seq'
p86
(lp87
S'JJ'
p88
aS'NN'
p89
aS'NNS'
p90
aS'NN'
p91
aS'IN'
p92
aS'DT'
p93
aS'JJ'
p94
aS'NN'
p95
aS'DT'
p96
aS'NN'
p97
aS'NN'
p98
aS'CC'
p99
aS'NN'
p100
aS'IN'
p101
aS'NNS'
p102
asS'ner_seq'
p103
(lp104
S'O'
aS'O'
aS'O'
aS'O'
aS'O'
aS'O'
aS'O'
aS'O'
aS'O'
aS'O'
aS'O'
aS'O'
aS'O'
aS'O'
aS'O'
assb.