ccopy_reg
_reconstructor
p1
(c__main__
KBproperty
p2
c__builtin__
object
p3
NtRp4
(dp5
S'comment'
p6
S'Code used to indentify populated places in Russia'
p7
sS'domain'
p8
S'Populated Place '
p9
sS'instances_count'
p10
S'0'
sS'label'
p11
S'okato code'
p12
sS'range'
p13
S'string '
p14
sS'prop_uri'
p15
S"'http://dbpedia.org/ontology/okatoCode'"
p16
sS'annotations'
p17
(dp18
S'bag_of_words'
p19
(lp20
S'Populated'
p21
aS'Place'
p22
aS'okato'
p23
aS'code'
p24
aS'string'
p25
aS'Code'
p26
aS'used'
p27
aS'to'
p28
aS'indentify'
p29
aS'populated'
p30
aS'places'
p31
aS'in'
p32
aS'Russia'
p33
asS'chunk_seq'
p34
(lp35
S'B-NP'
p36
aS'I-NP'
p37
aS'I-NP'
p38
aS'I-NP'
p39
aS'I-NP'
p40
aS'E-NP'
p41
aS'S-VP'
p42
aS'S-PP'
p43
aS'B-NP'
p44
aS'I-NP'
p45
aS'E-NP'
p46
aS'S-PP'
p47
aS'S-NP'
p48
asS'dep_seq'
p49
(lp50
(lp51
S'amod'
p52
aS'6'
aS'1'
aa(lp53
S'nn'
p54
aS'6'
aS'2'
aa(lp55
S'amod'
p56
aS'6'
aS'3'
aa(lp57
S'nn'
p58
aS'6'
aS'4'
aa(lp59
S'nn'
p60
aS'6'
aS'5'
aa(lp61
S'root'
p62
aS'0'
aS'6'
aa(lp63
S'partmod'
p64
aS'6'
aS'7'
aa(lp65
S'aux'
p66
aS'9'
aS'8'
aa(lp67
S'xcomp'
p68
aS'7'
aS'9'
aa(lp69
S'amod'
p70
aS'11'
p71
aS'10'
p72
aa(lp73
S'dobj'
p74
aS'9'
aS'11'
p75
aa(lp76
S'prep_in'
p77
aS'11'
p78
aS'13'
p79
aasS'srls'
p80
(lp81
(dp82
S'A0'
p83
S'Populated Place okato code string Code'
p84
sS'A2'
p85
S'to indentify populated places in Russia'
p86
sS'V'
g27
sa(dp87
S'A1'
p88
S'populated places in Russia'
p89
sS'A0'
p90
S'Populated Place okato code string Code'
p91
sS'V'
g29
sasS'pos_seq'
p92
(lp93
S'JJ'
p94
aS'NN'
p95
aS'JJ'
p96
aS'NN'
p97
aS'NN'
p98
aS'NN'
p99
aS'VBN'
p100
aS'TO'
p101
aS'VB'
p102
aS'JJ'
p103
aS'NNS'
p104
aS'IN'
p105
aS'NNP'
p106
asS'ner_seq'
p107
(lp108
S'O'
aS'O'
aS'O'
aS'O'
aS'O'
aS'O'
aS'O'
aS'O'
aS'O'
aS'O'
aS'O'
aS'O'
aS'S-LOC'
p109
assb.