ccopy_reg
_reconstructor
p1
(c__main__
KBproperty
p2
c__builtin__
object
p3
NtRp4
(dp5
S'comment'
p6
S''
sS'domain'
p7
S''
sS'instances_count'
p8
S'113'
p9
sS'label'
p10
S'ethnic groups in year'
p11
sS'range'
p12
S'g Year '
p13
sS'prop_uri'
p14
S"'http://dbpedia.org/ontology/ethnicGroupsInYear'"
p15
sS'annotations'
p16
(dp17
S'bag_of_words'
p18
(lp19
S'ethnic'
p20
aS'groups'
p21
aS'in'
p22
aS'year'
p23
aS'g'
aS'Year'
p24
asS'chunk_seq'
p25
(lp26
S'B-NP'
p27
aS'E-NP'
p28
aS'S-PP'
p29
aS'B-NP'
p30
aS'I-NP'
p31
aS'E-NP'
p32
asS'dep_seq'
p33
(lp34
(lp35
S'amod'
p36
aS'2'
aS'1'
aa(lp37
S'root'
p38
aS'0'
aS'2'
aa(lp39
S'nn'
p40
aS'6'
aS'4'
aa(lp41
S'num'
p42
aS'6'
aS'5'
aa(lp43
S'prep_in'
p44
aS'2'
aS'6'
aasS'srls'
p45
(lp46
sS'pos_seq'
p47
(lp48
S'JJ'
p49
aS'NNS'
p50
aS'IN'
p51
aS'NN'
p52
aS'CD'
p53
aS'NN'
p54
asS'ner_seq'
p55
(lp56
S'O'
aS'O'
aS'O'
aS'O'
aS'O'
aS'O'
assb.