ccopy_reg
_reconstructor
p1
(c__main__
KBproperty
p2
c__builtin__
object
p3
NtRp4
(dp5
S'comment'
p6
S'Information on the type of platforms at the station.'
p7
sS'domain'
p8
S'Station '
p9
sS'instances_count'
p10
S'18360'
p11
sS'label'
p12
S'railway platforms'
p13
sS'range'
p14
S'string '
p15
sS'prop_uri'
p16
S"'http://dbpedia.org/ontology/railwayPlatforms'"
p17
sS'annotations'
p18
(dp19
S'bag_of_words'
p20
(lp21
S'Station'
p22
aS'railway'
p23
aS'platforms'
p24
aS'string'
p25
aS'Information'
p26
aS'on'
p27
aS'the'
p28
aS'type'
p29
aS'of'
p30
aS'platforms'
p31
aS'at'
p32
aS'the'
p33
aS'station'
p34
aS'.'
asS'chunk_seq'
p35
(lp36
S'B-NP'
p37
aS'I-NP'
p38
aS'I-NP'
p39
aS'I-NP'
p40
aS'E-NP'
p41
aS'S-PP'
p42
aS'B-NP'
p43
aS'E-NP'
p44
aS'S-PP'
p45
aS'S-NP'
p46
aS'S-PP'
p47
aS'B-NP'
p48
aS'E-NP'
p49
aS'O'
asS'dep_seq'
p50
(lp51
(lp52
S'nn'
p53
aS'5'
aS'1'
aa(lp54
S'nn'
p55
aS'5'
aS'2'
aa(lp56
S'nn'
p57
aS'5'
aS'3'
aa(lp58
S'nn'
p59
aS'5'
aS'4'
aa(lp60
S'root'
p61
aS'0'
aS'5'
aa(lp62
S'det'
p63
aS'8'
aS'7'
aa(lp64
S'prep_on'
p65
aS'5'
aS'8'
aa(lp66
S'prep_of'
p67
aS'8'
aS'10'
p68
aa(lp69
S'det'
p70
aS'13'
p71
aS'12'
p72
aa(lp73
S'prep_at'
p74
aS'8'
aS'13'
p75
aasS'srls'
p76
(lp77
sS'pos_seq'
p78
(lp79
S'NN'
p80
aS'NN'
p81
aS'NNS'
p82
aS'NN'
p83
aS'NN'
p84
aS'IN'
p85
aS'DT'
p86
aS'NN'
p87
aS'IN'
p88
aS'NNS'
p89
aS'IN'
p90
aS'DT'
p91
aS'NN'
p92
aS'.'
asS'ner_seq'
p93
(lp94
S'O'
aS'O'
aS'O'
aS'O'
aS'O'
aS'O'
aS'O'
aS'O'
aS'O'
aS'O'
aS'O'
aS'O'
aS'O'
aS'O'
assb.