ccopy_reg
_reconstructor
p1
(c__main__
KBproperty
p2
c__builtin__
object
p3
NtRp4
(dp5
S'comment'
p6
S''
sS'domain'
p7
S'Soccer Tournament '
p8
sS'instances_count'
p9
S'0'
sS'label'
p10
S'opening season'
p11
sS'range'
p12
S'Soccer Tournament '
p13
sS'prop_uri'
p14
S"'http://dbpedia.org/ontology/soccerTournamentOpeningSeason'"
p15
sS'annotations'
p16
(dp17
S'bag_of_words'
p18
(lp19
S'Soccer'
p20
aS'Tournament'
p21
aS'opening'
p22
aS'season'
p23
aS'Soccer'
p24
aS'Tournament'
p25
asS'chunk_seq'
p26
(lp27
S'B-NP'
p28
aS'E-NP'
p29
aS'S-VP'
p30
aS'B-NP'
p31
aS'I-NP'
p32
aS'E-NP'
p33
asS'dep_seq'
p34
(lp35
(lp36
S'nn'
p37
aS'2'
aS'1'
aa(lp38
S'nsubj'
p39
aS'3'
aS'2'
aa(lp40
S'root'
p41
aS'0'
aS'3'
aa(lp42
S'nn'
p43
aS'6'
aS'4'
aa(lp44
S'nn'
p45
aS'6'
aS'5'
aa(lp46
S'dobj'
p47
aS'3'
aS'6'
aasS'srls'
p48
(lp49
(dp50
S'A1'
p51
S'season Soccer Tournament'
p52
sS'V'
g22
sasS'pos_seq'
p53
(lp54
S'NNP'
p55
aS'NNP'
p56
aS'VBG'
p57
aS'NN'
p58
aS'NNP'
p59
aS'NNP'
p60
asS'ner_seq'
p61
(lp62
S'O'
aS'O'
aS'O'
aS'O'
aS'O'
aS'O'
assb.