ccopy_reg
_reconstructor
p1
(c__main__
KBproperty
p2
c__builtin__
object
p3
NtRp4
(dp5
S'comment'
p6
S''
sS'domain'
p7
S'Military Unit '
p8
sS'instances_count'
p9
S'238'
p10
sS'label'
p11
S'aircraft patrol'
p12
sS'range'
p13
S'Mean Of Transportation '
p14
sS'prop_uri'
p15
S"'http://dbpedia.org/ontology/aircraftPatrol'"
p16
sS'annotations'
p17
(dp18
S'bag_of_words'
p19
(lp20
S'Military'
p21
aS'Unit'
p22
aS'aircraft'
p23
aS'patrol'
p24
aS'Mean'
p25
aS'Of'
p26
aS'Transportation'
p27
asS'chunk_seq'
p28
(lp29
S'B-NP'
p30
aS'I-NP'
p31
aS'I-NP'
p32
aS'I-NP'
p33
aS'E-NP'
p34
aS'S-PP'
p35
aS'S-NP'
p36
asS'dep_seq'
p37
(lp38
(lp39
S'nn'
p40
aS'5'
aS'1'
aa(lp41
S'nn'
p42
aS'5'
aS'2'
aa(lp43
S'nn'
p44
aS'5'
aS'3'
aa(lp45
S'nn'
p46
aS'5'
aS'4'
aa(lp47
S'root'
p48
aS'0'
aS'5'
aa(lp49
S'prep_of'
p50
aS'5'
aS'7'
aasS'srls'
p51
(lp52
sS'pos_seq'
p53
(lp54
S'NNP'
p55
aS'NNP'
p56
aS'NN'
p57
aS'NN'
p58
aS'NNP'
p59
aS'IN'
p60
aS'NN'
p61
asS'ner_seq'
p62
(lp63
S'O'
aS'O'
aS'O'
aS'O'
aS'B-ORG'
p64
aS'I-ORG'
p65
aS'E-ORG'
p66
assb.