ccopy_reg
_reconstructor
p1
(c__main__
KBproperty
p2
c__builtin__
object
p3
NtRp4
(dp5
S'comment'
p6
S'leading judge'
p7
sS'domain'
p8
S'Legal Case '
p9
sS'instances_count'
p10
S'0'
sS'label'
p11
S'judge'
p12
sS'range'
p13
S'Judge '
p14
sS'prop_uri'
p15
S"'http://dbpedia.org/ontology/judge'"
p16
sS'annotations'
p17
(dp18
S'bag_of_words'
p19
(lp20
S'Legal'
p21
aS'Case'
p22
aS'judge'
p23
aS'Judge'
p24
aS'leading'
p25
aS'judge'
p26
asS'chunk_seq'
p27
(lp28
S'B-NP'
p29
aS'I-NP'
p30
aS'I-NP'
p31
aS'I-NP'
p32
aS'I-NP'
p33
aS'E-NP'
p34
asS'dep_seq'
p35
(lp36
(lp37
S'amod'
p38
aS'6'
aS'1'
aa(lp39
S'nn'
p40
aS'6'
aS'2'
aa(lp41
S'nn'
p42
aS'6'
aS'3'
aa(lp43
S'nn'
p44
aS'6'
aS'4'
aa(lp45
S'amod'
p46
aS'6'
aS'5'
aa(lp47
S'root'
p48
aS'0'
aS'6'
aasS'srls'
p49
(lp50
(dp51
S'A1'
p52
g26
sS'A0'
p53
S'Legal Case judge Judge'
p54
sS'V'
g25
sasS'pos_seq'
p55
(lp56
S'JJ'
p57
aS'NN'
p58
aS'NN'
p59
aS'NNP'
p60
aS'VBG'
p61
aS'NN'
p62
asS'ner_seq'
p63
(lp64
S'O'
aS'O'
aS'O'
aS'O'
aS'O'
aS'O'
assb.