ccopy_reg
_reconstructor
p1
(c__main__
KBproperty
p2
c__builtin__
object
p3
NtRp4
(dp5
S'comment'
p6
S'active years start year manager'
p7
sS'domain'
p8
S'Person '
p9
sS'instances_count'
p10
S'0'
sS'label'
p11
g7
sS'range'
p12
S'g Year '
p13
sS'prop_uri'
p14
S"'http://dbpedia.org/ontology/activeYearsStartYearMgr'"
p15
sS'annotations'
p16
(dp17
S'bag_of_words'
p18
(lp19
S'Person'
p20
aS'active'
p21
aS'Years'
p22
aS'Start'
p23
aS'Year'
p24
aS'Mgr'
p25
aS'g'
aS'Year'
p26
aS'active'
p27
aS'years'
p28
aS'start'
p29
aS'year'
p30
aS'manager'
p31
asS'chunk_seq'
p32
(lp33
S'B-NP'
p34
aS'I-NP'
p35
aS'E-NP'
p36
aS'S-VP'
p37
aS'B-NP'
p38
aS'I-NP'
p39
aS'I-NP'
p40
aS'E-NP'
p41
aS'B-NP'
p42
aS'E-NP'
p43
aS'S-VP'
p44
aS'B-NP'
p45
aS'E-NP'
p46
asS'dep_seq'
p47
(lp48
(lp49
S'nn'
p50
aS'3'
aS'1'
aa(lp51
S'amod'
p52
aS'3'
aS'2'
aa(lp53
S'nsubj'
p54
aS'4'
aS'3'
aa(lp55
S'root'
p56
aS'0'
aS'4'
aa(lp57
S'nn'
p58
aS'8'
aS'5'
aa(lp59
S'nn'
p60
aS'8'
aS'6'
aa(lp61
S'nn'
p62
aS'8'
aS'7'
aa(lp63
S'dobj'
p64
aS'4'
aS'8'
aa(lp65
S'tmod'
p66
aS'4'
aS'8'
aa(lp67
S'amod'
p68
aS'10'
p69
aS'9'
aa(lp70
S'tmod'
p71
aS'4'
aS'10'
p72
aa(lp73
S'dep'
p74
aS'4'
aS'11'
p75
aa(lp76
S'nn'
p77
aS'13'
p78
aS'12'
p79
aa(lp80
S'dobj'
p81
aS'11'
p82
aS'13'
p83
aasS'srls'
p84
(lp85
(dp86
S'A1'
p87
S'Person active Years Start Year Mgr g Year active years'
p88
sS'AM-TMP'
p89
S'year manager'
p90
sS'V'
g29
sasS'pos_seq'
p91
(lp92
S'NN'
p93
aS'JJ'
p94
aS'NNS'
p95
aS'VBP'
p96
aS'NN'
p97
aS'NNP'
p98
aS'NN'
p99
aS'NN'
p100
aS'JJ'
p101
aS'NNS'
p102
aS'VBP'
p103
aS'NN'
p104
aS'NN'
p105
asS'ner_seq'
p106
(lp107
S'O'
aS'O'
aS'O'
aS'O'
aS'O'
aS'O'
aS'O'
aS'O'
aS'O'
aS'O'
aS'O'
aS'O'
aS'O'
assb.