ccopy_reg
_reconstructor
p1
(c__main__
KBproperty
p2
c__builtin__
object
p3
NtRp4
(dp5
S'comment'
p6
S'Agency station code used on tickets/reservations etc..'
p7
sS'domain'
p8
S'Station '
p9
sS'instances_count'
p10
S'9699'
p11
sS'label'
p12
S'agency station code'
p13
sS'range'
p14
S'string '
p15
sS'prop_uri'
p16
S"'http://dbpedia.org/ontology/agencyStationCode'"
p17
sS'annotations'
p18
(dp19
S'bag_of_words'
p20
(lp21
S'Station'
p22
aS'agency'
p23
aS'station'
p24
aS'code'
p25
aS'string'
p26
aS'Agency'
p27
aS'station'
p28
aS'code'
p29
aS'used'
p30
aS'on'
p31
aS'tickets'
p32
aS'/'
aS'reservations'
p33
aS'etc..'
p34
asS'chunk_seq'
p35
(lp36
S'B-NP'
p37
aS'I-NP'
p38
aS'I-NP'
p39
aS'I-NP'
p40
aS'I-NP'
p41
aS'I-NP'
p42
aS'I-NP'
p43
aS'E-NP'
p44
aS'S-VP'
p45
aS'S-PP'
p46
aS'S-NP'
p47
aS'O'
aS'S-NP'
p48
aS'O'
asS'dep_seq'
p49
(lp50
(lp51
S'nn'
p52
aS'8'
aS'1'
aa(lp53
S'nn'
p54
aS'8'
aS'2'
aa(lp55
S'nn'
p56
aS'8'
aS'3'
aa(lp57
S'nn'
p58
aS'8'
aS'4'
aa(lp59
S'nn'
p60
aS'8'
aS'5'
aa(lp61
S'nn'
p62
aS'8'
aS'6'
aa(lp63
S'nn'
p64
aS'8'
aS'7'
aa(lp65
S'root'
p66
aS'0'
aS'8'
aa(lp67
S'partmod'
p68
aS'8'
aS'9'
aa(lp69
S'prep_on'
p70
aS'9'
aS'11'
p71
aa(lp72
S'punct'
p73
aS'8'
aS'12'
p74
aa(lp75
S'dep'
p76
aS'8'
aS'13'
p77
aa(lp78
S'punct'
p79
aS'8'
aS'14'
p80
aasS'srls'
p81
(lp82
(dp83
S'A1'
p84
S'Station agency station code string Agency station code'
p85
sS'AM-LOC'
p86
S'on tickets / reservations etc..'
p87
sS'V'
g30
sasS'pos_seq'
p88
(lp89
S'NN'
p90
aS'NN'
p91
aS'NN'
p92
aS'NN'
p93
aS'NN'
p94
aS'NN'
p95
aS'NN'
p96
aS'NN'
p97
aS'VBN'
p98
aS'IN'
p99
aS'NNS'
p100
aS':'
aS'NNS'
p101
aS'.'
asS'ner_seq'
p102
(lp103
S'O'
aS'O'
aS'O'
aS'O'
aS'O'
aS'O'
aS'O'
aS'O'
aS'O'
aS'O'
aS'O'
aS'O'
aS'O'
aS'O'
assb.