ccopy_reg
_reconstructor
p1
(c__main__
KBproperty
p2
c__builtin__
object
p3
NtRp4
(dp5
S'comment'
p6
S'Voice artist used in a TelevisionShow Movie or to sound the voice of a FictionalCharacter'
p7
sS'domain'
p8
S''
sS'instances_count'
p9
S'10740'
p10
sS'label'
p11
S'voice'
p12
sS'range'
p13
S'Person '
p14
sS'prop_uri'
p15
S"'http://dbpedia.org/ontology/voice'"
p16
sS'annotations'
p17
(dp18
S'bag_of_words'
p19
(lp20
S'voice'
p21
aS'Person'
p22
aS'Voice'
p23
aS'artist'
p24
aS'used'
p25
aS'in'
p26
aS'a'
aS'TelevisionShow'
p27
aS'Movie'
p28
aS'or'
p29
aS'to'
p30
aS'sound'
p31
aS'the'
p32
aS'voice'
p33
aS'of'
p34
aS'a'
aS'FictionalCharacter'
p35
asS'chunk_seq'
p36
(lp37
S'B-NP'
p38
aS'I-NP'
p39
aS'I-NP'
p40
aS'E-NP'
p41
aS'S-VP'
p42
aS'S-PP'
p43
aS'B-NP'
p44
aS'I-NP'
p45
aS'E-NP'
p46
aS'O'
aS'B-VP'
p47
aS'E-VP'
p48
aS'B-NP'
p49
aS'E-NP'
p50
aS'S-PP'
p51
aS'B-NP'
p52
aS'E-NP'
p53
asS'dep_seq'
p54
(lp55
(lp56
S'nn'
p57
aS'4'
aS'1'
aa(lp58
S'nn'
p59
aS'4'
aS'2'
aa(lp60
S'nn'
p61
aS'4'
aS'3'
aa(lp62
S'nsubj'
p63
aS'5'
aS'4'
aa(lp64
S'root'
p65
aS'0'
aS'5'
aa(lp66
S'det'
p67
aS'9'
aS'7'
aa(lp68
S'nn'
p69
aS'9'
aS'8'
aa(lp70
S'prep_in'
p71
aS'5'
aS'9'
aa(lp72
S'aux'
p73
aS'12'
p74
aS'11'
p75
aa(lp76
S'conj_or'
p77
aS'5'
aS'12'
p78
aa(lp79
S'det'
p80
aS'14'
p81
aS'13'
p82
aa(lp83
S'dobj'
p84
aS'12'
p85
aS'14'
p86
aa(lp87
S'det'
p88
aS'17'
p89
aS'16'
p90
aa(lp91
S'prep_of'
p92
aS'14'
p93
aS'17'
p94
aasS'srls'
p95
(lp96
(dp97
S'A1'
p98
S'voice Person Voice artist'
p99
sS'AM-LOC'
p100
S'in a TelevisionShow Movie'
p101
sS'V'
g25
sa(dp102
S'A0'
p103
S'voice Person Voice artist'
p104
sS'A2'
p105
S'the voice of a FictionalCharacter'
p106
sS'V'
g31
sasS'pos_seq'
p107
(lp108
S'NN'
p109
aS'NNP'
p110
aS'NNP'
p111
aS'NN'
p112
aS'VBN'
p113
aS'IN'
p114
aS'DT'
p115
aS'NNP'
p116
aS'NNP'
p117
aS'CC'
p118
aS'TO'
p119
aS'VB'
p120
aS'DT'
p121
aS'NN'
p122
aS'IN'
p123
aS'DT'
p124
aS'NNP'
p125
asS'ner_seq'
p126
(lp127
S'O'
aS'O'
aS'O'
aS'O'
aS'O'
aS'O'
aS'O'
aS'B-MISC'
p128
aS'E-MISC'
p129
aS'O'
aS'O'
aS'O'
aS'O'
aS'O'
aS'O'
aS'O'
aS'S-MISC'
p130
assb.