ccopy_reg
_reconstructor
p1
(c__main__
KBproperty
p2
c__builtin__
object
p3
NtRp4
(dp5
S'comment'
p6
S'Number of piers standing in a river or other water in normal conditions.'
p7
sS'domain'
p8
S'Bridge '
p9
sS'instances_count'
p10
S'219'
p11
sS'label'
p12
S'number of piers in water'
p13
sS'range'
p14
S'non Negative Integer '
p15
sS'prop_uri'
p16
S"'http://dbpedia.org/ontology/numberOfPiersInWater'"
p17
sS'annotations'
p18
(dp19
S'bag_of_words'
p20
(lp21
S'Bridge'
p22
aS'number'
p23
aS'of'
p24
aS'piers'
p25
aS'in'
p26
aS'water'
p27
aS'non'
p28
aS'Negative'
p29
aS'Integer'
p30
aS'Number'
p31
aS'of'
p32
aS'piers'
p33
aS'standing'
p34
aS'in'
p35
aS'a'
aS'river'
p36
aS'or'
p37
aS'other'
p38
aS'water'
p39
aS'in'
p40
aS'normal'
p41
aS'conditions'
p42
aS'.'
asS'chunk_seq'
p43
(lp44
S'B-NP'
p45
aS'E-NP'
p46
aS'S-PP'
p47
aS'S-NP'
p48
aS'S-PP'
p49
aS'B-NP'
p50
aS'I-NP'
p51
aS'I-NP'
p52
aS'I-NP'
p53
aS'E-NP'
p54
aS'S-PP'
p55
aS'S-NP'
p56
aS'S-VP'
p57
aS'S-PP'
p58
aS'B-NP'
p59
aS'E-NP'
p60
aS'O'
aS'B-NP'
p61
aS'E-NP'
p62
aS'S-PP'
p63
aS'B-NP'
p64
aS'E-NP'
p65
aS'O'
asS'dep_seq'
p66
(lp67
(lp68
S'nn'
p69
aS'2'
aS'1'
aa(lp70
S'nsubj'
p71
aS'13'
p72
aS'2'
aa(lp73
S'prep_of'
p74
aS'2'
aS'4'
aa(lp75
S'nn'
p76
aS'10'
p77
aS'6'
aa(lp78
S'amod'
p79
aS'8'
aS'7'
aa(lp80
S'amod'
p81
aS'10'
p82
aS'8'
aa(lp83
S'nn'
p84
aS'10'
p85
aS'9'
aa(lp86
S'prep_in'
p87
aS'2'
aS'10'
p88
aa(lp89
S'prep_of'
p90
aS'10'
p91
aS'12'
p92
aa(lp93
S'root'
p94
aS'0'
aS'13'
p95
aa(lp96
S'det'
p97
aS'16'
p98
aS'15'
p99
aa(lp100
S'prep_in'
p101
aS'13'
p102
aS'16'
p103
aa(lp104
S'amod'
p105
aS'19'
p106
aS'18'
p107
aa(lp108
S'conj_or'
p109
aS'16'
p110
aS'19'
p111
aa(lp112
S'amod'
p113
aS'22'
p114
aS'21'
p115
aa(lp116
S'prep_in'
p117
aS'13'
p118
aS'22'
p119
aasS'srls'
p120
(lp121
(dp122
S'A1'
p123
S'Bridge number of piers in water non Negative Integer Number of piers'
p124
sS'A2'
p125
S'in a river or other water in normal conditions'
p126
sS'V'
g34
sasS'pos_seq'
p127
(lp128
S'NN'
p129
aS'NN'
p130
aS'IN'
p131
aS'NNS'
p132
aS'IN'
p133
aS'NN'
p134
aS'JJ'
p135
aS'JJ'
p136
aS'NNP'
p137
aS'NNP'
p138
aS'IN'
p139
aS'NNS'
p140
aS'VBG'
p141
aS'IN'
p142
aS'DT'
p143
aS'NN'
p144
aS'CC'
p145
aS'JJ'
p146
aS'NN'
p147
aS'IN'
p148
aS'JJ'
p149
aS'NNS'
p150
aS'.'
asS'ner_seq'
p151
(lp152
S'O'
aS'O'
aS'O'
aS'O'
aS'O'
aS'O'
aS'O'
aS'O'
aS'O'
aS'O'
aS'O'
aS'O'
aS'O'
aS'O'
aS'O'
aS'O'
aS'O'
aS'O'
aS'O'
aS'O'
aS'O'
aS'O'
aS'O'
assb.