ccopy_reg
_reconstructor
p1
(c__main__
KBproperty
p2
c__builtin__
object
p3
NtRp4
(dp5
S'comment'
p6
S"cyclist genre' '"
p7
sS'domain'
p8
S'Athlete '
p9
sS'instances_count'
p10
S'0'
sS'label'
p11
S''
sS'range'
p12
S'Career Station '
p13
sS'prop_uri'
p14
S"'http://dbpedia.org/ontology/cyclistGenre'"
p15
sS'annotations'
p16
(dp17
S'bag_of_words'
p18
(lp19
S'Athlete'
p20
aS'Career'
p21
aS'Station'
p22
aS'cyclist'
p23
aS'genre'
p24
aS"'"
aS"'"
asS'chunk_seq'
p25
(lp26
S'B-NP'
p27
aS'I-NP'
p28
aS'I-NP'
p29
aS'I-NP'
p30
aS'E-NP'
p31
aS'O'
aS'O'
asS'dep_seq'
p32
(lp33
(lp34
S'nn'
p35
aS'5'
aS'1'
aa(lp36
S'nn'
p37
aS'5'
aS'2'
aa(lp38
S'nn'
p39
aS'5'
aS'3'
aa(lp40
S'nn'
p41
aS'5'
aS'4'
aa(lp42
S'root'
p43
aS'0'
aS'5'
aasS'srls'
p44
(lp45
sS'pos_seq'
p46
(lp47
S'NNP'
p48
aS'NNP'
p49
aS'NNP'
p50
aS'NN'
p51
aS'NN'
p52
aS"''"
p53
aS"''"
p54
asS'ner_seq'
p55
(lp56
S'O'
aS'O'
aS'O'
aS'O'
aS'O'
aS'O'
aS'O'
assb.