ccopy_reg
_reconstructor
p1
(c__main__
KBproperty
p2
c__builtin__
object
p3
NtRp4
(dp5
S'comment'
p6
S''
sS'domain'
p7
S''
sS'instances_count'
p8
S'208'
p9
sS'label'
p10
S'population density metro km'
p11
sS'range'
p12
S''
sS'prop_uri'
p13
S"'http://dbpedia.org/property/populationDensityMetroKm'"
p14
sS'annotations'
p15
(dp16
S'bag_of_words'
p17
(lp18
S'population'
p19
aS'density'
p20
aS'metro'
p21
aS'km'
p22
asS'chunk_seq'
p23
(lp24
S'B-NP'
p25
aS'I-NP'
p26
aS'I-NP'
p27
aS'E-NP'
p28
asS'dep_seq'
p29
(lp30
(lp31
S'nn'
p32
aS'3'
aS'1'
aa(lp33
S'nn'
p34
aS'3'
aS'2'
aa(lp35
S'root'
p36
aS'0'
aS'3'
aa(lp37
S'punct'
p38
aS'3'
aS'4'
aasS'srls'
p39
(lp40
sS'pos_seq'
p41
(lp42
S'NN'
p43
aS'NN'
p44
aS'NN'
p45
aS'.'
asS'ner_seq'
p46
(lp47
S'O'
aS'O'
aS'O'
aS'O'
assb.