ccopy_reg
_reconstructor
p1
(c__main__
KBproperty
p2
c__builtin__
object
p3
NtRp4
(dp5
S'comment'
p6
S'links a country to the continent it belongs'
p7
sS'domain'
p8
S'Country '
p9
sS'instances_count'
p10
S'0'
sS'label'
p11
S'continent'
p12
sS'range'
p13
S'Continent '
p14
sS'prop_uri'
p15
S"'http://dbpedia.org/ontology/continent'"
p16
sS'annotations'
p17
(dp18
S'bag_of_words'
p19
(lp20
S'Country'
p21
aS'continent'
p22
aS'Continent'
p23
aS'links'
p24
aS'a'
aS'country'
p25
aS'to'
p26
aS'the'
p27
aS'continent'
p28
aS'it'
p29
aS'belongs'
p30
asS'chunk_seq'
p31
(lp32
S'B-NP'
p33
aS'I-NP'
p34
aS'E-NP'
p35
aS'S-VP'
p36
aS'B-NP'
p37
aS'E-NP'
p38
aS'S-PP'
p39
aS'B-NP'
p40
aS'E-NP'
p41
aS'S-NP'
p42
aS'S-VP'
p43
asS'dep_seq'
p44
(lp45
(lp46
S'nn'
p47
aS'3'
aS'1'
aa(lp48
S'nn'
p49
aS'3'
aS'2'
aa(lp50
S'nsubj'
p51
aS'4'
aS'3'
aa(lp52
S'root'
p53
aS'0'
aS'4'
aa(lp54
S'det'
p55
aS'6'
aS'5'
aa(lp56
S'dobj'
p57
aS'4'
aS'6'
aa(lp58
S'det'
p59
aS'9'
aS'8'
aa(lp60
S'prep_to'
p61
aS'4'
aS'9'
aa(lp62
S'dobj'
p63
aS'11'
p64
aS'9'
aa(lp65
S'nsubj'
p66
aS'11'
p67
aS'10'
p68
aa(lp69
S'rcmod'
p70
aS'9'
aS'11'
p71
aasS'srls'
p72
(lp73
(dp74
S'A1'
p75
S'a country  it belongs'
p76
sS'A0'
p77
S'Country continent Continent'
p78
sS'A2'
p79
S'to the continent'
p80
sS'V'
g24
sasS'pos_seq'
p81
(lp82
S'NN'
p83
aS'NN'
p84
aS'NNP'
p85
aS'VBZ'
p86
aS'DT'
p87
aS'NN'
p88
aS'TO'
p89
aS'DT'
p90
aS'NN'
p91
aS'PRP'
p92
aS'VBZ'
p93
asS'ner_seq'
p94
(lp95
S'O'
aS'O'
aS'O'
aS'O'
aS'O'
aS'O'
aS'O'
aS'O'
aS'O'
aS'O'
aS'O'
assb.