ccopy_reg
_reconstructor
p1
(c__main__
KBproperty
p2
c__builtin__
object
p3
NtRp4
(dp5
S'comment'
p6
S''
sS'domain'
p7
S''
sS'instances_count'
p8
S'684'
p9
sS'label'
p10
S'm'
sS'range'
p11
S''
sS'prop_uri'
p12
S"'http://dbpedia.org/property/m'"
p13
sS'annotations'
p14
(dp15
S'bag_of_words'
p16
(lp17
S'm'
asS'chunk_seq'
p18
(lp19
S'O'
asS'dep_seq'
p20
(lp21
(lp22
S'root'
p23
aS'0'
aS'1'
aasS'srls'
p24
(lp25
sS'pos_seq'
p26
(lp27
S'SYM'
p28
asS'ner_seq'
p29
(lp30
S'O'
assb.