ccopy_reg
_reconstructor
p1
(c__main__
KBproperty
p2
c__builtin__
object
p3
NtRp4
(dp5
S'comment'
p6
S'The year the building was demolished.'
p7
sS'domain'
p8
S'Architectural Structure '
p9
sS'instances_count'
p10
S'74'
p11
sS'label'
p12
S'demolition year'
p13
sS'range'
p14
S'g Year '
p15
sS'prop_uri'
p16
S"'http://dbpedia.org/ontology/demolitionYear'"
p17
sS'annotations'
p18
(dp19
S'bag_of_words'
p20
(lp21
S'Architectural'
p22
aS'Structure'
p23
aS'demolition'
p24
aS'year'
p25
aS'g'
aS'Year'
p26
aS'The'
p27
aS'year'
p28
aS'the'
p29
aS'building'
p30
aS'was'
p31
aS'demolished'
p32
aS'.'
asS'chunk_seq'
p33
(lp34
S'B-NP'
p35
aS'I-NP'
p36
aS'I-NP'
p37
aS'I-NP'
p38
aS'I-NP'
p39
aS'E-NP'
p40
aS'B-NP'
p41
aS'E-NP'
p42
aS'B-NP'
p43
aS'E-NP'
p44
aS'B-VP'
p45
aS'E-VP'
p46
aS'O'
asS'dep_seq'
p47
(lp48
(lp49
S'amod'
p50
aS'6'
aS'1'
aa(lp51
S'nn'
p52
aS'6'
aS'2'
aa(lp53
S'nn'
p54
aS'6'
aS'3'
aa(lp55
S'nn'
p56
aS'6'
aS'4'
aa(lp57
S'nn'
p58
aS'6'
aS'5'
aa(lp59
S'nsubjpass'
p60
aS'12'
p61
aS'6'
aa(lp62
S'tmod'
p63
aS'12'
p64
aS'6'
aa(lp65
S'det'
p66
aS'8'
aS'7'
aa(lp67
S'nsubjpass'
p68
aS'12'
p69
aS'8'
aa(lp70
S'tmod'
p71
aS'12'
p72
aS'8'
aa(lp73
S'det'
p74
aS'10'
p75
aS'9'
aa(lp76
S'nsubjpass'
p77
aS'12'
p78
aS'10'
p79
aa(lp80
S'auxpass'
p81
aS'12'
p82
aS'11'
p83
aa(lp84
S'root'
p85
aS'0'
aS'12'
p86
aasS'srls'
p87
(lp88
(dp89
S'A1'
p90
S'the building'
p91
sS'V'
g32
sasS'pos_seq'
p92
(lp93
S'JJ'
p94
aS'NN'
p95
aS'NN'
p96
aS'NN'
p97
aS'NN'
p98
aS'NN'
p99
aS'DT'
p100
aS'NN'
p101
aS'DT'
p102
aS'NN'
p103
aS'VBD'
p104
aS'VBN'
p105
aS'.'
asS'ner_seq'
p106
(lp107
S'O'
aS'O'
aS'O'
aS'O'
aS'O'
aS'O'
aS'O'
aS'O'
aS'O'
aS'O'
aS'O'
aS'O'
aS'O'
assb.