ccopy_reg
_reconstructor
p1
(c__main__
KBproperty
p2
c__builtin__
object
p3
NtRp4
(dp5
S'comment'
p6
S''
sS'domain'
p7
S''
sS'instances_count'
p8
S'193'
p9
sS'label'
p10
S'Non-profit name'
p11
sS'range'
p12
S''
sS'prop_uri'
p13
S"'http://dbpedia.org/property/nonProfitName'"
p14
sS'annotations'
p15
(dp16
S'bag_of_words'
p17
(lp18
S'Non-profit'
p19
aS'name'
p20
asS'chunk_seq'
p21
(lp22
S'B-NP'
p23
aS'E-NP'
p24
asS'dep_seq'
p25
(lp26
(lp27
S'amod'
p28
aS'2'
aS'profit'
p29
aa(lp30
S'root'
p31
aS'0'
aS'2'
aasS'srls'
p32
(lp33
sS'pos_seq'
p34
(lp35
S'JJ'
p36
aS'NN'
p37
asS'ner_seq'
p38
(lp39
S'O'
aS'O'
assb.