ccopy_reg
_reconstructor
p1
(c__main__
KBproperty
p2
c__builtin__
object
p3
NtRp4
(dp5
S'comment'
p6
S''
sS'domain'
p7
S'Person '
p8
sS'instances_count'
p9
S'0'
sS'label'
p10
S'note on resting place'
p11
sS'range'
p12
S'string '
p13
sS'prop_uri'
p14
S"'http://dbpedia.org/ontology/noteOnRestingPlace'"
p15
sS'annotations'
p16
(dp17
S'bag_of_words'
p18
(lp19
S'Person'
p20
aS'note'
p21
aS'on'
p22
aS'resting'
p23
aS'place'
p24
aS'string'
p25
asS'chunk_seq'
p26
(lp27
S'S-NP'
p28
aS'S-VP'
p29
aS'S-PP'
p30
aS'B-NP'
p31
aS'I-NP'
p32
aS'E-NP'
p33
asS'dep_seq'
p34
(lp35
(lp36
S'nsubj'
p37
aS'2'
aS'1'
aa(lp38
S'root'
p39
aS'0'
aS'2'
aa(lp40
S'amod'
p41
aS'6'
aS'4'
aa(lp42
S'nn'
p43
aS'6'
aS'5'
aa(lp44
S'prep_on'
p45
aS'2'
aS'6'
aasS'srls'
p46
(lp47
(dp48
S'A0'
p49
g20
sS'AM-MNR'
p50
S'on resting place string'
p51
sS'V'
g21
sa(dp52
S'A1'
p53
S'place string'
p54
sS'V'
g23
sasS'pos_seq'
p55
(lp56
S'NN'
p57
aS'VBP'
p58
aS'IN'
p59
aS'VBG'
p60
aS'NN'
p61
aS'NN'
p62
asS'ner_seq'
p63
(lp64
S'O'
aS'O'
aS'O'
aS'O'
aS'O'
aS'O'
assb.