ccopy_reg
_reconstructor
p1
(c__main__
KBproperty
p2
c__builtin__
object
p3
NtRp4
(dp5
S'comment'
p6
S'the edition of the database used i.e. hg19'
p7
sS'domain'
p8
S'Gene Location '
p9
sS'instances_count'
p10
S'58'
p11
sS'label'
p12
S'Genome DB'
p13
sS'range'
p14
S'string '
p15
sS'prop_uri'
p16
S"'http://dbpedia.org/ontology/genomeDB'"
p17
sS'annotations'
p18
(dp19
S'bag_of_words'
p20
(lp21
S'Gene'
p22
aS'Location'
p23
aS'Genome'
p24
aS'DB'
p25
aS'string'
p26
aS'the'
p27
aS'edition'
p28
aS'of'
p29
aS'the'
p30
aS'database'
p31
aS'used'
p32
aS'i.e.'
p33
aS'hg19'
p34
asS'chunk_seq'
p35
(lp36
S'B-NP'
p37
aS'I-NP'
p38
aS'I-NP'
p39
aS'I-NP'
p40
aS'E-NP'
p41
aS'B-NP'
p42
aS'E-NP'
p43
aS'S-PP'
p44
aS'B-NP'
p45
aS'E-NP'
p46
aS'S-VP'
p47
aS'B-ADJP'
p48
aS'E-ADJP'
p49
asS'dep_seq'
p50
(lp51
(lp52
S'nn'
p53
aS'5'
aS'1'
aa(lp54
S'nn'
p55
aS'5'
aS'2'
aa(lp56
S'nn'
p57
aS'5'
aS'3'
aa(lp58
S'nn'
p59
aS'5'
aS'4'
aa(lp60
S'dep'
p61
aS'7'
aS'5'
aa(lp62
S'det'
p63
aS'7'
aS'6'
aa(lp64
S'root'
p65
aS'0'
aS'7'
aa(lp66
S'det'
p67
aS'10'
p68
aS'9'
aa(lp69
S'prep_of'
p70
aS'7'
aS'10'
p71
aa(lp72
S'partmod'
p73
aS'10'
p74
aS'11'
p75
aa(lp76
S'advmod'
p77
aS'11'
p78
aS'12'
p79
aa(lp80
S'dep'
p81
aS'7'
aS'13'
p82
aasS'srls'
p83
(lp84
(dp85
S'A1'
p86
S'the database'
p87
sS'AM-MNR'
p88
S'i.e. hg19'
p89
sS'V'
g32
sasS'pos_seq'
p90
(lp91
S'NNP'
p92
aS'NNP'
p93
aS'NNP'
p94
aS'NNP'
p95
aS'NN'
p96
aS'DT'
p97
aS'NN'
p98
aS'IN'
p99
aS'DT'
p100
aS'NN'
p101
aS'VBN'
p102
aS'RB'
p103
aS'.'
asS'ner_seq'
p104
(lp105
S'O'
aS'O'
aS'O'
aS'O'
aS'O'
aS'O'
aS'O'
aS'O'
aS'O'
aS'O'
aS'O'
aS'O'
aS'O'
assb.