ccopy_reg
_reconstructor
p1
(c__main__
KBproperty
p2
c__builtin__
object
p3
NtRp4
(dp5
S'comment'
p6
S''
sS'domain'
p7
S'Mill '
p8
sS'instances_count'
p9
S'0'
sS'label'
p10
S'able to grind'
p11
sS'range'
p12
S'string '
p13
sS'prop_uri'
p14
S"'http://dbpedia.org/ontology/ableToGrind'"
p15
sS'annotations'
p16
(dp17
S'bag_of_words'
p18
(lp19
S'Mill'
p20
aS'able'
p21
aS'to'
p22
aS'grind'
p23
aS'string'
p24
asS'chunk_seq'
p25
(lp26
S'S-NP'
p27
aS'S-ADJP'
p28
aS'B-VP'
p29
aS'E-VP'
p30
aS'S-NP'
p31
asS'dep_seq'
p32
(lp33
(lp34
S'root'
p35
aS'0'
aS'1'
aa(lp36
S'amod'
p37
aS'1'
aS'2'
aa(lp38
S'aux'
p39
aS'4'
aS'3'
aa(lp40
S'xcomp'
p41
aS'2'
aS'4'
aa(lp42
S'dobj'
p43
aS'4'
aS'5'
aasS'srls'
p44
(lp45
(dp46
S'A1'
p47
g24
sS'A0'
p48
g20
sS'V'
g23
sasS'pos_seq'
p49
(lp50
S'NN'
p51
aS'JJ'
p52
aS'TO'
p53
aS'VB'
p54
aS'NN'
p55
asS'ner_seq'
p56
(lp57
S'O'
aS'O'
aS'O'
aS'O'
aS'O'
assb.