ccopy_reg
_reconstructor
p1
(c__main__
KBproperty
p2
c__builtin__
object
p3
NtRp4
(dp5
S'comment'
p6
S'Place of residence of a person.'
p7
sS'domain'
p8
S'Person '
p9
sS'instances_count'
p10
S'65170'
p11
sS'label'
p12
S'residence'
p13
sS'range'
p14
S'Place '
p15
sS'prop_uri'
p16
S"'http://dbpedia.org/ontology/residence'"
p17
sS'annotations'
p18
(dp19
S'bag_of_words'
p20
(lp21
S'Person'
p22
aS'residence'
p23
aS'Place'
p24
aS'Place'
p25
aS'of'
p26
aS'residence'
p27
aS'of'
p28
aS'a'
aS'person'
p29
aS'.'
asS'chunk_seq'
p30
(lp31
S'B-NP'
p32
aS'I-NP'
p33
aS'I-NP'
p34
aS'E-NP'
p35
aS'S-PP'
p36
aS'S-NP'
p37
aS'S-PP'
p38
aS'B-NP'
p39
aS'E-NP'
p40
aS'O'
asS'dep_seq'
p41
(lp42
(lp43
S'nn'
p44
aS'4'
aS'1'
aa(lp45
S'nn'
p46
aS'4'
aS'2'
aa(lp47
S'nn'
p48
aS'4'
aS'3'
aa(lp49
S'root'
p50
aS'0'
aS'4'
aa(lp51
S'prep_of'
p52
aS'4'
aS'6'
aa(lp53
S'det'
p54
aS'9'
aS'8'
aa(lp55
S'prep_of'
p56
aS'4'
aS'9'
aasS'srls'
p57
(lp58
sS'pos_seq'
p59
(lp60
S'NN'
p61
aS'NN'
p62
aS'NNP'
p63
aS'NNP'
p64
aS'IN'
p65
aS'NN'
p66
aS'IN'
p67
aS'DT'
p68
aS'NN'
p69
aS'.'
asS'ner_seq'
p70
(lp71
S'O'
aS'O'
aS'O'
aS'O'
aS'O'
aS'O'
aS'O'
aS'O'
aS'O'
aS'O'
assb.