ccopy_reg
_reconstructor
p1
(c__main__
KBproperty
p2
c__builtin__
object
p3
NtRp4
(dp5
S'comment'
p6
S''
sS'domain'
p7
S'Ski Resort '
p8
sS'instances_count'
p9
S'0'
sS'label'
p10
S'linked to'
p11
sS'range'
p12
S'Place '
p13
sS'prop_uri'
p14
S"'http://dbpedia.org/ontology/linkedTo'"
p15
sS'annotations'
p16
(dp17
S'bag_of_words'
p18
(lp19
S'Ski'
p20
aS'Resort'
p21
aS'linked'
p22
aS'to'
p23
aS'Place'
p24
asS'chunk_seq'
p25
(lp26
S'B-NP'
p27
aS'E-NP'
p28
aS'S-VP'
p29
aS'S-PP'
p30
aS'S-NP'
p31
asS'dep_seq'
p32
(lp33
(lp34
S'nn'
p35
aS'2'
aS'1'
aa(lp36
S'nsubj'
p37
aS'3'
aS'2'
aa(lp38
S'root'
p39
aS'0'
aS'3'
aa(lp40
S'prep_to'
p41
aS'3'
aS'5'
aasS'srls'
p42
(lp43
(dp44
S'A1'
p45
S'Ski Resort  to Place'
p46
sS'V'
g22
sasS'pos_seq'
p47
(lp48
S'NNP'
p49
aS'NNP'
p50
aS'VBD'
p51
aS'TO'
p52
aS'NNP'
p53
asS'ner_seq'
p54
(lp55
S'B-ORG'
p56
aS'E-ORG'
p57
aS'O'
aS'O'
aS'O'
assb.