ccopy_reg
_reconstructor
p1
(c__main__
KBproperty
p2
c__builtin__
object
p3
NtRp4
(dp5
S'comment'
p6
S''
sS'domain'
p7
S''
sS'instances_count'
p8
S'2606'
p9
sS'label'
p10
S'r2-length-m'
p11
sS'range'
p12
S''
sS'prop_uri'
p13
S"'http://dbpedia.org/property/r2LengthM'"
p14
sS'annotations'
p15
(dp16
S'bag_of_words'
p17
(lp18
S'r2'
p19
aS'-'
aS'length'
p20
aS'-'
aS'm'
asS'chunk_seq'
p21
(lp22
S'S-NP'
p23
aS'O'
aS'S-NP'
p24
aS'O'
aS'O'
asS'dep_seq'
p25
(lp26
(lp27
S'dep'
p28
aS'3'
aS'1'
aa(lp29
S'root'
p30
aS'0'
aS'3'
aa(lp31
S'dep'
p32
aS'3'
aS'5'
aasS'srls'
p33
(lp34
sS'pos_seq'
p35
(lp36
S'SYM'
p37
aS':'
aS'NN'
p38
aS':'
aS'NN'
p39
asS'ner_seq'
p40
(lp41
S'O'
aS'O'
aS'O'
aS'O'
aS'O'
assb.