ccopy_reg
_reconstructor
p1
(c__main__
KBproperty
p2
c__builtin__
object
p3
NtRp4
(dp5
S'comment'
p6
S''
sS'domain'
p7
S''
sS'instances_count'
p8
S'426'
p9
sS'label'
p10
S'time in space s'
p11
sS'range'
p12
S'double '
p13
sS'prop_uri'
p14
S"'http://dbpedia.org/ontology/timeInSpace'"
p15
sS'annotations'
p16
(dp17
S'bag_of_words'
p18
(lp19
S'time'
p20
aS'in'
p21
aS'space'
p22
aS's'
aS'double'
p23
asS'chunk_seq'
p24
(lp25
S'S-NP'
p26
aS'S-PP'
p27
aS'S-NP'
p28
aS'B-ADVP'
p29
aS'E-ADVP'
p30
asS'dep_seq'
p31
(lp32
(lp33
S'root'
p34
aS'0'
aS'1'
aa(lp35
S'prep_in'
p36
aS'1'
aS'3'
aa(lp37
S'advmod'
p38
aS'3'
aS'4'
aa(lp39
S'advmod'
p40
aS'3'
aS'5'
aasS'srls'
p41
(lp42
sS'pos_seq'
p43
(lp44
S'NN'
p45
aS'IN'
p46
aS'NN'
p47
aS'RB'
p48
aS'RB'
p49
asS'ner_seq'
p50
(lp51
S'O'
aS'O'
aS'O'
aS'O'
aS'O'
assb.