ccopy_reg
_reconstructor
p1
(c__main__
KBproperty
p2
c__builtin__
object
p3
NtRp4
(dp5
S'comment'
p6
S''
sS'domain'
p7
S''
sS'instances_count'
p8
S'837'
p9
sS'label'
p10
S'H'
sS'range'
p11
S''
sS'prop_uri'
p12
S"'http://dbpedia.org/property/h'"
p13
sS'annotations'
p14
(dp15
S'bag_of_words'
p16
(lp17
S'H'
asS'chunk_seq'
p18
(lp19
S'S-NP'
p20
asS'dep_seq'
p21
(lp22
(lp23
S'root'
p24
aS'0'
aS'1'
aasS'srls'
p25
(lp26
sS'pos_seq'
p27
(lp28
S'NNP'
p29
asS'ner_seq'
p30
(lp31
S'O'
assb.