ccopy_reg
_reconstructor
p1
(c__main__
KBproperty
p2
c__builtin__
object
p3
NtRp4
(dp5
S'comment'
p6
S'Publisher of a work. For literal string use dc:publisher; for object URL use publisher'
p7
sS'domain'
p8
S'Work '
p9
sS'instances_count'
p10
S'64091'
p11
sS'label'
p12
S'publisher'
p13
sS'range'
p14
S'Agent '
p15
sS'prop_uri'
p16
S"'http://dbpedia.org/ontology/publisher'"
p17
sS'annotations'
p18
(dp19
S'bag_of_words'
p20
(lp21
S'Work'
p22
aS'publisher'
p23
aS'Agent'
p24
aS'Publisher'
p25
aS'of'
p26
aS'a'
aS'work.'
p27
aS'For'
p28
aS'literal'
p29
aS'string'
p30
aS'use'
p31
aS'dc'
p32
aS':'
aS'publisher'
p33
aS';'
aS'for'
p34
aS'object'
p35
aS'URL'
p36
aS'use'
p37
aS'publisher'
p38
asS'chunk_seq'
p39
(lp40
S'B-NP'
p41
aS'I-NP'
p42
aS'I-NP'
p43
aS'E-NP'
p44
aS'S-PP'
p45
aS'B-NP'
p46
aS'E-NP'
p47
aS'S-PP'
p48
aS'B-NP'
p49
aS'I-NP'
p50
aS'I-NP'
p51
aS'E-NP'
p52
aS'O'
aS'S-NP'
p53
aS'O'
aS'S-PP'
p54
aS'B-NP'
p55
aS'I-NP'
p56
aS'I-NP'
p57
aS'E-NP'
p58
asS'dep_seq'
p59
(lp60
(lp61
S'nn'
p62
aS'4'
aS'1'
aa(lp63
S'nn'
p64
aS'4'
aS'2'
aa(lp65
S'nn'
p66
aS'4'
aS'3'
aa(lp67
S'root'
p68
aS'0'
aS'4'
aa(lp69
S'det'
p70
aS'7'
aS'6'
aa(lp71
S'prep_of'
p72
aS'4'
aS'7'
aa(lp73
S'amod'
p74
aS'12'
p75
aS'9'
aa(lp76
S'nn'
p77
aS'12'
p78
aS'10'
p79
aa(lp80
S'nn'
p81
aS'12'
p82
aS'11'
p83
aa(lp84
S'prep_for'
p85
aS'7'
aS'12'
p86
aa(lp87
S'dep'
p88
aS'4'
aS'14'
p89
aa(lp90
S'nn'
p91
aS'20'
p92
aS'17'
p93
aa(lp94
S'nn'
p95
aS'20'
p96
aS'18'
p97
aa(lp98
S'nn'
p99
aS'20'
p100
aS'19'
p101
aa(lp102
S'prep_for'
p103
aS'14'
p104
aS'20'
p105
aasS'srls'
p106
(lp107
sS'pos_seq'
p108
(lp109
S'NN'
p110
aS'NN'
p111
aS'NNP'
p112
aS'NNP'
p113
aS'IN'
p114
aS'DT'
p115
aS'NNS'
p116
aS'IN'
p117
aS'JJ'
p118
aS'NN'
p119
aS'NN'
p120
aS'NN'
p121
aS':'
aS'NN'
p122
aS':'
aS'IN'
p123
aS'NN'
p124
aS'NNP'
p125
aS'NN'
p126
aS'NN'
p127
asS'ner_seq'
p128
(lp129
S'O'
aS'O'
aS'O'
aS'O'
aS'O'
aS'O'
aS'O'
aS'O'
aS'O'
aS'O'
aS'O'
aS'O'
aS'O'
aS'O'
aS'O'
aS'O'
aS'O'
aS'O'
aS'O'
aS'O'
assb.