ccopy_reg
_reconstructor
p1
(c__main__
KBproperty
p2
c__builtin__
object
p3
NtRp4
(dp5
S'comment'
p6
S'indicates another place situated around outside.'
p7
sS'domain'
p8
S'Place '
p9
sS'instances_count'
p10
S'0'
sS'label'
p11
S'has outside place'
p12
sS'range'
p13
S'Place '
p14
sS'prop_uri'
p15
S"'http://dbpedia.org/ontology/hasOutsidePlace'"
p16
sS'annotations'
p17
(dp18
S'bag_of_words'
p19
(lp20
S'Place'
p21
aS'has'
p22
aS'outside'
p23
aS'place'
p24
aS'Place'
p25
aS'indicates'
p26
aS'another'
p27
aS'place'
p28
aS'situated'
p29
aS'around'
p30
aS'outside'
p31
aS'.'
asS'chunk_seq'
p32
(lp33
S'S-NP'
p34
aS'S-VP'
p35
aS'B-NP'
p36
aS'I-NP'
p37
aS'E-NP'
p38
aS'S-VP'
p39
aS'B-NP'
p40
aS'E-NP'
p41
aS'S-VP'
p42
aS'B-ADVP'
p43
aS'E-ADVP'
p44
aS'O'
asS'dep_seq'
p45
(lp46
(lp47
S'nsubj'
p48
aS'2'
aS'1'
aa(lp49
S'root'
p50
aS'0'
aS'2'
aa(lp51
S'amod'
p52
aS'5'
aS'3'
aa(lp53
S'nn'
p54
aS'5'
aS'4'
aa(lp55
S'nsubj'
p56
aS'6'
aS'5'
aa(lp57
S'ccomp'
p58
aS'2'
aS'6'
aa(lp59
S'det'
p60
aS'8'
aS'7'
aa(lp61
S'dobj'
p62
aS'6'
aS'8'
aa(lp63
S'partmod'
p64
aS'8'
aS'9'
aa(lp65
S'advmod'
p66
aS'11'
p67
aS'10'
p68
aa(lp69
S'advmod'
p70
aS'9'
aS'11'
p71
aasS'srls'
p72
(lp73
(dp74
S'A1'
p75
S'outside place Place indicates another place situated around outside'
p76
sS'A0'
p77
g21
sS'V'
g22
sa(dp78
S'A1'
p79
S'another place situated around outside'
p80
sS'A0'
p81
S'Place  outside place Place'
p82
sS'V'
g26
sa(dp83
S'A1'
p84
S'another place'
p85
sS'AM-LOC'
p86
S'around outside'
p87
sS'V'
g29
sasS'pos_seq'
p88
(lp89
S'NN'
p90
aS'VBZ'
p91
aS'JJ'
p92
aS'NN'
p93
aS'NN'
p94
aS'VBZ'
p95
aS'DT'
p96
aS'NN'
p97
aS'VBN'
p98
aS'RB'
p99
aS'RB'
p100
aS'.'
asS'ner_seq'
p101
(lp102
S'O'
aS'O'
aS'O'
aS'O'
aS'O'
aS'O'
aS'O'
aS'O'
aS'O'
aS'O'
aS'O'
aS'O'
assb.