ccopy_reg
_reconstructor
p1
(c__main__
KBproperty
p2
c__builtin__
object
p3
NtRp4
(dp5
S'comment'
p6
S''
sS'domain'
p7
S''
sS'instances_count'
p8
S'165'
p9
sS'label'
p10
S'sport governing body'
p11
sS'range'
p12
S''
sS'prop_uri'
p13
S"'http://dbpedia.org/ontology/sportGoverningBody'"
p14
sS'annotations'
p15
(dp16
S'bag_of_words'
p17
(lp18
S'sport'
p19
aS'governing'
p20
aS'body'
p21
asS'chunk_seq'
p22
(lp23
S'B-NP'
p24
aS'I-NP'
p25
aS'E-NP'
p26
asS'dep_seq'
p27
(lp28
(lp29
S'nn'
p30
aS'3'
aS'1'
aa(lp31
S'amod'
p32
aS'3'
aS'2'
aa(lp33
S'root'
p34
aS'0'
aS'3'
aasS'srls'
p35
(lp36
(dp37
S'A0'
p38
S'sport body'
p39
sS'V'
g20
sasS'pos_seq'
p40
(lp41
S'NN'
p42
aS'VBG'
p43
aS'NN'
p44
asS'ner_seq'
p45
(lp46
S'O'
aS'O'
aS'O'
assb.