ccopy_reg
_reconstructor
p1
(c__main__
KBproperty
p2
c__builtin__
object
p3
NtRp4
(dp5
S'comment'
p6
S'the person who dubs another person e.g. an actor or a fictional character in movies'
p7
sS'domain'
p8
S'Person '
p9
sS'instances_count'
p10
S'0'
sS'label'
p11
S'dubber'
p12
sS'range'
p13
S'Person '
p14
sS'prop_uri'
p15
S"'http://dbpedia.org/ontology/dubber'"
p16
sS'annotations'
p17
(dp18
S'bag_of_words'
p19
(lp20
S'Person'
p21
aS'dubber'
p22
aS'Person'
p23
aS'the'
p24
aS'person'
p25
aS'who'
p26
aS'dubs'
p27
aS'another'
p28
aS'person'
p29
aS'e.g.'
p30
aS'an'
p31
aS'actor'
p32
aS'or'
p33
aS'a'
aS'fictional'
p34
aS'character'
p35
aS'in'
p36
aS'movies'
p37
asS'chunk_seq'
p38
(lp39
S'B-NP'
p40
aS'I-NP'
p41
aS'E-NP'
p42
aS'B-NP'
p43
aS'E-NP'
p44
aS'S-NP'
p45
aS'S-VP'
p46
aS'B-NP'
p47
aS'E-NP'
p48
aS'S-PP'
p49
aS'B-NP'
p50
aS'E-NP'
p51
aS'O'
aS'B-NP'
p52
aS'I-NP'
p53
aS'E-NP'
p54
aS'S-PP'
p55
aS'S-NP'
p56
asS'dep_seq'
p57
(lp58
(lp59
S'nn'
p60
aS'3'
aS'1'
aa(lp61
S'amod'
p62
aS'3'
aS'2'
aa(lp63
S'dep'
p64
aS'5'
aS'3'
aa(lp65
S'det'
p66
aS'5'
aS'4'
aa(lp67
S'root'
p68
aS'0'
aS'5'
aa(lp69
S'nsubj'
p70
aS'7'
aS'5'
aa(lp71
S'rcmod'
p72
aS'5'
aS'7'
aa(lp73
S'det'
p74
aS'9'
aS'8'
aa(lp75
S'dobj'
p76
aS'7'
aS'9'
aa(lp77
S'det'
p78
aS'12'
p79
aS'11'
p80
aa(lp81
S'prep_e.g.'
p82
aS'7'
aS'12'
p83
aa(lp84
S'det'
p85
aS'16'
p86
aS'14'
p87
aa(lp88
S'amod'
p89
aS'16'
p90
aS'15'
p91
aa(lp92
S'conj_or'
p93
aS'12'
p94
aS'16'
p95
aa(lp96
S'prep_in'
p97
aS'16'
p98
aS'18'
p99
aasS'srls'
p100
(lp101
(dp102
S'R-A0'
p103
g26
sS'AM-MNR'
p104
S'e.g. an actor or a fictional character'
p105
sS'AM-LOC'
p106
S'in movies'
p107
sS'A1'
p108
S'another person'
p109
sS'A0'
p110
S'the person'
p111
sS'V'
g27
sasS'pos_seq'
p112
(lp113
S'NN'
p114
aS'JJR'
p115
aS'NN'
p116
aS'DT'
p117
aS'NN'
p118
aS'WP'
p119
aS'VBZ'
p120
aS'DT'
p121
aS'NN'
p122
aS'IN'
p123
aS'DT'
p124
aS'NN'
p125
aS'CC'
p126
aS'DT'
p127
aS'JJ'
p128
aS'NN'
p129
aS'IN'
p130
aS'NNS'
p131
asS'ner_seq'
p132
(lp133
S'O'
aS'O'
aS'O'
aS'O'
aS'O'
aS'O'
aS'O'
aS'O'
aS'O'
aS'O'
aS'O'
aS'O'
aS'O'
aS'O'
aS'O'
aS'O'
aS'O'
aS'O'
assb.