ccopy_reg
_reconstructor
p1
(c__main__
KBproperty
p2
c__builtin__
object
p3
NtRp4
(dp5
S'comment'
p6
S'CO2 emission g/km'
p7
sS'domain'
p8
S'Automobile Engine '
p9
sS'instances_count'
p10
S'4'
sS'label'
p11
g7
sS'range'
p12
S'double '
p13
sS'prop_uri'
p14
S"'http://dbpedia.org/ontology/co2Emission'"
p15
sS'annotations'
p16
(dp17
S'bag_of_words'
p18
(lp19
S'Automobile'
p20
aS'Engine'
p21
aS'co'
p22
aS'Emission'
p23
aS'double'
p24
aS'CO2'
p25
aS'emission'
p26
aS'g'
aS'/'
aS'km'
p27
asS'chunk_seq'
p28
(lp29
S'B-NP'
p30
aS'I-NP'
p31
aS'I-NP'
p32
aS'I-NP'
p33
aS'I-NP'
p34
aS'I-NP'
p35
aS'I-NP'
p36
aS'E-NP'
p37
aS'O'
aS'O'
asS'dep_seq'
p38
(lp39
(lp40
S'nn'
p41
aS'8'
aS'1'
aa(lp42
S'nn'
p43
aS'8'
aS'2'
aa(lp44
S'nn'
p45
aS'8'
aS'3'
aa(lp46
S'nn'
p47
aS'8'
aS'4'
aa(lp48
S'amod'
p49
aS'8'
aS'5'
aa(lp50
S'nn'
p51
aS'8'
aS'6'
aa(lp52
S'nn'
p53
aS'8'
aS'7'
aa(lp54
S'root'
p55
aS'0'
aS'8'
aa(lp56
S'punct'
p57
aS'8'
aS'9'
aa(lp58
S'punct'
p59
aS'8'
aS'10'
p60
aasS'srls'
p61
(lp62
sS'pos_seq'
p63
(lp64
S'NNP'
p65
aS'NNP'
p66
aS'NN'
p67
aS'NN'
p68
aS'JJ'
p69
aS'NN'
p70
aS'NN'
p71
aS'NN'
p72
aS':'
aS'.'
asS'ner_seq'
p73
(lp74
S'B-MISC'
p75
aS'I-MISC'
p76
aS'I-MISC'
p77
aS'I-MISC'
p78
aS'I-MISC'
p79
aS'E-MISC'
p80
aS'O'
aS'O'
aS'O'
aS'O'
assb.