ccopy_reg
_reconstructor
p1
(c__main__
KBproperty
p2
c__builtin__
object
p3
NtRp4
(dp5
S'comment'
p6
S'The alternative title attributed to a work'
p7
sS'domain'
p8
S'Work '
p9
sS'instances_count'
p10
S'0'
sS'label'
p11
S'alternative title'
p12
sS'range'
p13
S'lang String '
p14
sS'prop_uri'
p15
S"'http://dbpedia.org/ontology/alternativeTitle'"
p16
sS'annotations'
p17
(dp18
S'bag_of_words'
p19
(lp20
S'Work'
p21
aS'alternative'
p22
aS'title'
p23
aS'lang'
p24
aS'String'
p25
aS'The'
p26
aS'alternative'
p27
aS'title'
p28
aS'attributed'
p29
aS'to'
p30
aS'a'
aS'work'
p31
asS'chunk_seq'
p32
(lp33
S'B-NP'
p34
aS'I-NP'
p35
aS'I-NP'
p36
aS'I-NP'
p37
aS'E-NP'
p38
aS'B-NP'
p39
aS'I-NP'
p40
aS'E-NP'
p41
aS'S-VP'
p42
aS'S-PP'
p43
aS'B-NP'
p44
aS'E-NP'
p45
asS'dep_seq'
p46
(lp47
(lp48
S'nn'
p49
aS'3'
aS'1'
aa(lp50
S'amod'
p51
aS'3'
aS'2'
aa(lp52
S'root'
p53
aS'0'
aS'3'
aa(lp54
S'partmod'
p55
aS'3'
aS'4'
aa(lp56
S'dep'
p57
aS'4'
aS'5'
aa(lp58
S'det'
p59
aS'8'
aS'6'
aa(lp60
S'amod'
p61
aS'8'
aS'7'
aa(lp62
S'dobj'
p63
aS'4'
aS'8'
aa(lp64
S'partmod'
p65
aS'8'
aS'9'
aa(lp66
S'det'
p67
aS'12'
p68
aS'11'
p69
aa(lp70
S'prep_to'
p71
aS'9'
aS'12'
p72
aasS'srls'
p73
(lp74
(dp75
S'A1'
p76
S'Work alternative title lang String The alternative title'
p77
sS'A2'
p78
S'to a work'
p79
sS'V'
g29
sasS'pos_seq'
p80
(lp81
S'NN'
p82
aS'JJ'
p83
aS'NN'
p84
aS'VBG'
p85
aS'NN'
p86
aS'DT'
p87
aS'JJ'
p88
aS'NN'
p89
aS'VBN'
p90
aS'TO'
p91
aS'DT'
p92
aS'NN'
p93
asS'ner_seq'
p94
(lp95
S'O'
aS'O'
aS'O'
aS'B-PER'
p96
aS'E-PER'
p97
aS'O'
aS'O'
aS'O'
aS'O'
aS'O'
aS'O'
aS'O'
assb.