ccopy_reg
_reconstructor
p1
(c__main__
KBproperty
p2
c__builtin__
object
p3
NtRp4
(dp5
S'comment'
p6
S'World Register of Marine Species'
p7
sS'domain'
p8
S'Species '
p9
sS'instances_count'
p10
S'0'
sS'label'
p11
S'WoRMS'
p12
sS'range'
p13
S''
sS'prop_uri'
p14
S"'http://dbpedia.org/ontology/woRMS'"
p15
sS'annotations'
p16
(dp17
S'bag_of_words'
p18
(lp19
S'Species'
p20
aS'WoRMS'
p21
aS'World'
p22
aS'Register'
p23
aS'of'
p24
aS'Marine'
p25
aS'Species'
p26
asS'chunk_seq'
p27
(lp28
S'B-NP'
p29
aS'I-NP'
p30
aS'I-NP'
p31
aS'E-NP'
p32
aS'S-PP'
p33
aS'B-NP'
p34
aS'E-NP'
p35
asS'dep_seq'
p36
(lp37
(lp38
S'nn'
p39
aS'3'
aS'1'
aa(lp40
S'nn'
p41
aS'3'
aS'2'
aa(lp42
S'nsubj'
p43
aS'4'
aS'3'
aa(lp44
S'root'
p45
aS'0'
aS'4'
aa(lp46
S'nn'
p47
aS'7'
aS'6'
aa(lp48
S'prep_of'
p49
aS'4'
aS'7'
aasS'srls'
p50
(lp51
sS'pos_seq'
p52
(lp53
S'NNPS'
p54
aS'NNPS'
p55
aS'NNP'
p56
aS'NNP'
p57
aS'IN'
p58
aS'NNP'
p59
aS'NNPS'
p60
asS'ner_seq'
p61
(lp62
S'O'
aS'B-MISC'
p63
aS'I-MISC'
p64
aS'I-MISC'
p65
aS'I-MISC'
p66
aS'I-MISC'
p67
aS'E-MISC'
p68
assb.