ccopy_reg
_reconstructor
p1
(c__main__
KBproperty
p2
c__builtin__
object
p3
NtRp4
(dp5
S'comment'
p6
S''
sS'domain'
p7
S'Populated Place '
p8
sS'instances_count'
p9
S'0'
sS'label'
p10
S'human development index as of'
p11
sS'range'
p12
S'date '
p13
sS'prop_uri'
p14
S"'http://dbpedia.org/ontology/humanDevelopmentIndexAsOf'"
p15
sS'annotations'
p16
(dp17
S'bag_of_words'
p18
(lp19
S'Populated'
p20
aS'Place'
p21
aS'human'
p22
aS'development'
p23
aS'index'
p24
aS'as'
p25
aS'of'
p26
aS'date'
p27
asS'chunk_seq'
p28
(lp29
S'B-NP'
p30
aS'I-NP'
p31
aS'I-NP'
p32
aS'I-NP'
p33
aS'E-NP'
p34
aS'S-PP'
p35
aS'S-PP'
p36
aS'S-NP'
p37
asS'dep_seq'
p38
(lp39
(lp40
S'amod'
p41
aS'5'
aS'1'
aa(lp42
S'nn'
p43
aS'5'
aS'2'
aa(lp44
S'amod'
p45
aS'5'
aS'3'
aa(lp46
S'nn'
p47
aS'5'
aS'4'
aa(lp48
S'root'
p49
aS'0'
aS'5'
aa(lp50
S'prepc_as_of'
p51
aS'5'
aS'7'
aa(lp52
S'pobj'
p53
aS'5'
aS'8'
aasS'srls'
p54
(lp55
sS'pos_seq'
p56
(lp57
S'VBN'
p58
aS'NNP'
p59
aS'JJ'
p60
aS'NN'
p61
aS'NN'
p62
aS'IN'
p63
aS'IN'
p64
aS'NN'
p65
asS'ner_seq'
p66
(lp67
S'O'
aS'O'
aS'O'
aS'O'
aS'O'
aS'O'
aS'O'
aS'O'
assb.