ccopy_reg
_reconstructor
p1
(c__main__
KBproperty
p2
c__builtin__
object
p3
NtRp4
(dp5
S'comment'
p6
S'For persons who are not notable as commanding officers the unit company battalion regiment etc. in which they served.'
p7
sS'domain'
p8
S'Military Person '
p9
sS'instances_count'
p10
S'16041'
p11
sS'label'
p12
S'military unit'
p13
sS'range'
p14
S'Military Unit '
p15
sS'prop_uri'
p16
S"'http://dbpedia.org/ontology/militaryUnit'"
p17
sS'annotations'
p18
(dp19
S'bag_of_words'
p20
(lp21
S'Military'
p22
aS'Person'
p23
aS'military'
p24
aS'unit'
p25
aS'Military'
p26
aS'Unit'
p27
aS'For'
p28
aS'persons'
p29
aS'who'
p30
aS'are'
p31
aS'not'
p32
aS'notable'
p33
aS'as'
p34
aS'commanding'
p35
aS'officers'
p36
aS'the'
p37
aS'unit'
p38
aS'company'
p39
aS'battalion'
p40
aS'regiment'
p41
aS'etc.'
p42
aS'in'
p43
aS'which'
p44
aS'they'
p45
aS'served'
p46
aS'.'
asS'chunk_seq'
p47
(lp48
S'B-NP'
p49
aS'I-NP'
p50
aS'I-NP'
p51
aS'I-NP'
p52
aS'I-NP'
p53
aS'E-NP'
p54
aS'S-PP'
p55
aS'S-NP'
p56
aS'S-NP'
p57
aS'S-VP'
p58
aS'O'
aS'S-ADJP'
p59
aS'S-PP'
p60
aS'B-NP'
p61
aS'E-NP'
p62
aS'B-NP'
p63
aS'I-NP'
p64
aS'I-NP'
p65
aS'I-NP'
p66
aS'I-NP'
p67
aS'E-NP'
p68
aS'S-PP'
p69
aS'S-NP'
p70
aS'S-NP'
p71
aS'S-VP'
p72
aS'O'
asS'dep_seq'
p73
(lp74
(lp75
S'amod'
p76
aS'6'
aS'1'
aa(lp77
S'nn'
p78
aS'6'
aS'2'
aa(lp79
S'amod'
p80
aS'6'
aS'3'
aa(lp81
S'nn'
p82
aS'6'
aS'4'
aa(lp83
S'nn'
p84
aS'6'
aS'5'
aa(lp85
S'root'
p86
aS'0'
aS'6'
aa(lp87
S'prep_for'
p88
aS'6'
aS'8'
aa(lp89
S'nsubj'
p90
aS'21'
p91
aS'8'
aa(lp92
S'cop'
p93
aS'21'
p94
aS'10'
p95
aa(lp96
S'neg'
p97
aS'21'
p98
aS'11'
p99
aa(lp100
S'amod'
p101
aS'21'
p102
aS'12'
p103
aa(lp104
S'amod'
p105
aS'15'
p106
aS'14'
p107
aa(lp108
S'prep_as'
p109
aS'12'
p110
aS'15'
p111
aa(lp112
S'det'
p113
aS'20'
p114
aS'16'
p115
aa(lp116
S'nn'
p117
aS'20'
p118
aS'17'
p119
aa(lp120
S'nn'
p121
aS'20'
p122
aS'18'
p123
aa(lp124
S'nn'
p125
aS'20'
p126
aS'19'
p127
aa(lp128
S'nn'
p129
aS'21'
p130
aS'20'
p131
aa(lp132
S'prep_in'
p133
aS'25'
p134
aS'20'
p135
aa(lp136
S'rcmod'
p137
aS'8'
aS'21'
p138
aa(lp139
S'rel'
p140
aS'25'
p141
aS'22'
p142
aa(lp143
S'nsubj'
p144
aS'25'
p145
aS'24'
p146
aa(lp147
S'rcmod'
p148
aS'20'
p149
aS'25'
p150
aa(lp151
S'ccomp'
p152
aS'21'
p153
aS'25'
p154
aasS'srls'
p155
(lp156
(dp157
S'A0'
p158
g45
sS'V'
g46
sasS'pos_seq'
p159
(lp160
S'JJ'
p161
aS'NN'
p162
aS'JJ'
p163
aS'NN'
p164
aS'NNP'
p165
aS'NNP'
p166
aS'IN'
p167
aS'NNS'
p168
aS'WP'
p169
aS'VBP'
p170
aS'RB'
p171
aS'JJ'
p172
aS'IN'
p173
aS'JJ'
p174
aS'NNS'
p175
aS'DT'
p176
aS'NN'
p177
aS'NN'
p178
aS'NN'
p179
aS'NN'
p180
aS'NN'
p181
aS'IN'
p182
aS'WDT'
p183
aS'PRP'
p184
aS'VBD'
p185
aS'.'
asS'ner_seq'
p186
(lp187
S'O'
aS'O'
aS'O'
aS'O'
aS'O'
aS'O'
aS'O'
aS'O'
aS'O'
aS'O'
aS'O'
aS'O'
aS'O'
aS'O'
aS'O'
aS'O'
aS'O'
aS'O'
aS'O'
aS'O'
aS'O'
aS'O'
aS'O'
aS'O'
aS'O'
aS'O'
assb.