ccopy_reg
_reconstructor
p1
(c__main__
KBproperty
p2
c__builtin__
object
p3
NtRp4
(dp5
S'comment'
p6
S''
sS'domain'
p7
S''
sS'instances_count'
p8
S'2'
sS'label'
p9
S'child left'
p10
sS'range'
p11
S''
sS'prop_uri'
p12
S"'http://dbpedia.org/property/childLeft'"
p13
sS'annotations'
p14
(dp15
S'bag_of_words'
p16
(lp17
S'child'
p18
aS'left'
p19
asS'chunk_seq'
p20
(lp21
S'S-NP'
p22
aS'O'
asS'dep_seq'
p23
(lp24
(lp25
S'root'
p26
aS'0'
aS'1'
aa(lp27
S'amod'
p28
aS'1'
aS'2'
aasS'srls'
p29
(lp30
sS'pos_seq'
p31
(lp32
S'NN'
p33
aS'.'
asS'ner_seq'
p34
(lp35
S'O'
aS'O'
assb.