ccopy_reg
_reconstructor
p1
(c__main__
KBproperty
p2
c__builtin__
object
p3
NtRp4
(dp5
S'comment'
p6
S''
sS'domain'
p7
S''
sS'instances_count'
p8
S'3303'
p9
sS'label'
p10
S'based on'
p11
sS'range'
p12
S''
sS'prop_uri'
p13
S"'http://dbpedia.org/property/basedOn'"
p14
sS'annotations'
p15
(dp16
S'bag_of_words'
p17
(lp18
S'based'
p19
aS'on'
p20
asS'chunk_seq'
p21
(lp22
S'S-PP'
p23
aS'S-PP'
p24
asS'dep_seq'
p25
(lp26
(lp27
S'root'
p28
aS'0'
aS'1'
aa(lp29
S'advmod'
p30
aS'1'
aS'2'
aasS'srls'
p31
(lp32
(dp33
S'V'
S'based on'
p34
sasS'pos_seq'
p35
(lp36
S'VBN'
p37
aS'IN'
p38
asS'ner_seq'
p39
(lp40
S'O'
aS'O'
assb.