ccopy_reg
_reconstructor
p1
(c__main__
KBproperty
p2
c__builtin__
object
p3
NtRp4
(dp5
S'comment'
p6
S'maximum boat beam \\xce\\xbc'
p7
sS'domain'
p8
S'Canal '
p9
sS'instances_count'
p10
S'79'
p11
sS'label'
p12
g7
sS'range'
p13
S'double '
p14
sS'prop_uri'
p15
S"'http://dbpedia.org/ontology/maximumBoatBeam'"
p16
sS'annotations'
p17
(dp18
S'bag_of_words'
p19
(lp20
S'Canal'
p21
aS'maximum'
p22
aS'Boat'
p23
aS'Beam'
p24
aS'double'
p25
aS'maximum'
p26
aS'boat'
p27
aS'beam'
p28
aS'\\'
aS'xce'
p29
aS'\\'
aS'xbc'
p30
asS'chunk_seq'
p31
(lp32
S'B-NP'
p33
aS'I-NP'
p34
aS'I-NP'
p35
aS'E-NP'
p36
aS'B-NP'
p37
aS'I-NP'
p38
aS'I-NP'
p39
aS'E-NP'
p40
aS'O'
aS'O'
aS'O'
aS'O'
asS'dep_seq'
p41
(lp42
(lp43
S'nn'
p44
aS'4'
aS'1'
aa(lp45
S'nn'
p46
aS'4'
aS'2'
aa(lp47
S'nn'
p48
aS'4'
aS'3'
aa(lp49
S'root'
p50
aS'0'
aS'4'
aa(lp51
S'dobj'
p52
aS'9'
aS'4'
aa(lp53
S'amod'
p54
aS'8'
aS'5'
aa(lp55
S'nn'
p56
aS'8'
aS'6'
aa(lp57
S'nn'
p58
aS'8'
aS'7'
aa(lp59
S'nsubj'
p60
aS'9'
aS'8'
aa(lp61
S'rcmod'
p62
aS'4'
aS'9'
aa(lp63
S'discourse'
p64
aS'9'
aS'10'
p65
aa(lp66
S'dep'
p67
aS'10'
p68
aS'11'
p69
aa(lp70
S'dep'
p71
aS'10'
p72
aS'12'
p73
aasS'srls'
p74
(lp75
sS'pos_seq'
p76
(lp77
S'NNP'
p78
aS'NN'
p79
aS'NNP'
p80
aS'NNP'
p81
aS'JJ'
p82
aS'NN'
p83
aS'NN'
p84
aS'NN'
p85
aS'FW'
p86
aS'FW'
p87
aS'FW'
p88
aS'FW'
p89
asS'ner_seq'
p90
(lp91
S'O'
aS'O'
aS'O'
aS'O'
aS'O'
aS'O'
aS'O'
aS'O'
aS'O'
aS'O'
aS'O'
aS'O'
assb.