ccopy_reg
_reconstructor
p1
(c__main__
KBproperty
p2
c__builtin__
object
p3
NtRp4
(dp5
S'comment'
p6
S'HUGO Gene Symbol'
p7
sS'domain'
p8
S'Biomolecule '
p9
sS'instances_count'
p10
S'4289'
p11
sS'label'
p12
S'Symbol'
p13
sS'range'
p14
S'string '
p15
sS'prop_uri'
p16
S"'http://dbpedia.org/ontology/symbol'"
p17
sS'annotations'
p18
(dp19
S'bag_of_words'
p20
(lp21
S'Biomolecule'
p22
aS'Symbol'
p23
aS'string'
p24
aS'HUGO'
p25
aS'Gene'
p26
aS'Symbol'
p27
asS'chunk_seq'
p28
(lp29
S'B-NP'
p30
aS'I-NP'
p31
aS'I-NP'
p32
aS'I-NP'
p33
aS'I-NP'
p34
aS'E-NP'
p35
asS'dep_seq'
p36
(lp37
(lp38
S'amod'
p39
aS'3'
aS'1'
aa(lp40
S'nn'
p41
aS'3'
aS'2'
aa(lp42
S'root'
p43
aS'0'
aS'3'
aa(lp44
S'nn'
p45
aS'6'
aS'4'
aa(lp46
S'nn'
p47
aS'6'
aS'5'
aa(lp48
S'dep'
p49
aS'3'
aS'6'
aasS'srls'
p50
(lp51
sS'pos_seq'
p52
(lp53
S'JJ'
p54
aS'NN'
p55
aS'NN'
p56
aS'NNP'
p57
aS'NNP'
p58
aS'NNP'
p59
asS'ner_seq'
p60
(lp61
S'O'
aS'O'
aS'O'
aS'B-PER'
p62
aS'E-PER'
p63
aS'O'
assb.