ccopy_reg
_reconstructor
p1
(c__main__
KBproperty
p2
c__builtin__
object
p3
NtRp4
(dp5
S'comment'
p6
S'Code assigned to Dutch monuments at the national level deemed to be of national value'
p7
sS'domain'
p8
S'Place '
p9
sS'instances_count'
p10
S'0'
sS'label'
p11
S'monument code national'
p12
sS'range'
p13
S'string '
p14
sS'prop_uri'
p15
S"'http://dbpedia.org/ontology/codeNationalMonument'"
p16
sS'annotations'
p17
(dp18
S'bag_of_words'
p19
(lp20
S'Place'
p21
aS'monument'
p22
aS'code'
p23
aS'national'
p24
aS'string'
p25
aS'Code'
p26
aS'assigned'
p27
aS'to'
p28
aS'Dutch'
p29
aS'monuments'
p30
aS'at'
p31
aS'the'
p32
aS'national'
p33
aS'level'
p34
aS'deemed'
p35
aS'to'
p36
aS'be'
p37
aS'of'
p38
aS'national'
p39
aS'value'
p40
asS'chunk_seq'
p41
(lp42
S'B-NP'
p43
aS'I-NP'
p44
aS'I-NP'
p45
aS'I-NP'
p46
aS'I-NP'
p47
aS'E-NP'
p48
aS'S-VP'
p49
aS'S-PP'
p50
aS'B-NP'
p51
aS'E-NP'
p52
aS'S-PP'
p53
aS'B-NP'
p54
aS'I-NP'
p55
aS'E-NP'
p56
aS'B-VP'
p57
aS'I-VP'
p58
aS'E-VP'
p59
aS'S-PP'
p60
aS'B-NP'
p61
aS'E-NP'
p62
asS'dep_seq'
p63
(lp64
(lp65
S'nn'
p66
aS'6'
aS'1'
aa(lp67
S'nn'
p68
aS'6'
aS'2'
aa(lp69
S'nn'
p70
aS'6'
aS'3'
aa(lp71
S'amod'
p72
aS'6'
aS'4'
aa(lp73
S'nn'
p74
aS'6'
aS'5'
aa(lp75
S'root'
p76
aS'0'
aS'6'
aa(lp77
S'partmod'
p78
aS'6'
aS'7'
aa(lp79
S'amod'
p80
aS'10'
p81
aS'9'
aa(lp82
S'prep_to'
p83
aS'7'
aS'10'
p84
aa(lp85
S'det'
p86
aS'14'
p87
aS'12'
p88
aa(lp89
S'amod'
p90
aS'14'
p91
aS'13'
p92
aa(lp93
S'prep_at'
p94
aS'7'
aS'14'
p95
aa(lp96
S'amod'
p97
aS'14'
p98
aS'15'
p99
aa(lp100
S'aux'
p101
aS'17'
p102
aS'16'
p103
aa(lp104
S'xcomp'
p105
aS'15'
p106
aS'17'
p107
aa(lp108
S'amod'
p109
aS'20'
p110
aS'19'
p111
aa(lp112
S'prep_of'
p113
aS'17'
p114
aS'20'
p115
aasS'srls'
p116
(lp117
(dp118
S'A1'
p119
S'national string Code'
p120
sS'AM-LOC'
p121
S'at the national level'
p122
sS'A2'
p123
S'to Dutch monuments'
p124
sS'V'
g27
sa(dp125
S'A1'
p126
S'the national level'
p127
sS'A2'
p128
S'to be of national value'
p129
sS'V'
g35
sasS'pos_seq'
p130
(lp131
S'NN'
p132
aS'NN'
p133
aS'NN'
p134
aS'JJ'
p135
aS'NN'
p136
aS'NN'
p137
aS'VBN'
p138
aS'TO'
p139
aS'JJ'
p140
aS'NNS'
p141
aS'IN'
p142
aS'DT'
p143
aS'JJ'
p144
aS'NN'
p145
aS'VBN'
p146
aS'TO'
p147
aS'VB'
p148
aS'IN'
p149
aS'JJ'
p150
aS'NN'
p151
asS'ner_seq'
p152
(lp153
S'O'
aS'O'
aS'O'
aS'O'
aS'O'
aS'O'
aS'O'
aS'O'
aS'S-MISC'
p154
aS'O'
aS'O'
aS'O'
aS'O'
aS'O'
aS'O'
aS'O'
aS'O'
aS'O'
aS'O'
aS'O'
assb.