ccopy_reg
_reconstructor
p1
(c__main__
KBproperty
p2
c__builtin__
object
p3
NtRp4
(dp5
S'comment'
p6
S'Colleague of a Person or OfficeHolder not PersonFunction nor CareerStation. Sub-properties include: president vicePresident chancellor viceChancellor governor lieutenant. Points to a Person who may have a general "position" resource or "title" literal.'
p7
sS'domain'
p8
S'Person '
p9
sS'instances_count'
p10
S'0'
sS'label'
p11
S'colleague'
p12
sS'range'
p13
S'Person '
p14
sS'prop_uri'
p15
S"'http://dbpedia.org/ontology/colleague'"
p16
sS'annotations'
p17
(dp18
S'bag_of_words'
p19
(lp20
S'Person'
p21
aS'colleague'
p22
aS'Person'
p23
aS'Colleague'
p24
aS'of'
p25
aS'a'
aS'Person'
p26
aS'or'
p27
aS'OfficeHolder'
p28
aS'not'
p29
aS'PersonFunction'
p30
aS'nor'
p31
aS'CareerStation'
p32
aS'.'
aS'Sub'
p33
aS'-'
aS'properties'
p34
aS'include'
p35
aS':'
aS'president'
p36
aS'vicePresident'
p37
aS'chancellor'
p38
aS'viceChancellor'
p39
aS'governor'
p40
aS'lieutenant'
p41
aS'.'
aS'Points'
p42
aS'to'
p43
aS'a'
aS'Person'
p44
aS'who'
p45
aS'may'
p46
aS'have'
p47
aS'a'
aS'general'
p48
aS'"'
aS'position'
p49
aS'"'
aS'resource'
p50
aS'or'
p51
aS'"'
aS'title'
p52
aS'"'
aS'literal'
p53
aS'.'
asS'chunk_seq'
p54
(lp55
S'B-NP'
p56
aS'I-NP'
p57
aS'I-NP'
p58
aS'E-NP'
p59
aS'S-PP'
p60
aS'B-NP'
p61
aS'E-NP'
p62
aS'O'
aS'B-NP'
p63
aS'I-NP'
p64
aS'I-NP'
p65
aS'I-NP'
p66
aS'I-NP'
p67
aS'I-NP'
p68
aS'I-NP'
p69
aS'I-NP'
p70
aS'E-NP'
p71
aS'S-VP'
p72
aS'O'
aS'B-NP'
p73
aS'I-NP'
p74
aS'I-NP'
p75
aS'I-NP'
p76
aS'I-NP'
p77
aS'E-NP'
p78
aS'O'
aS'S-VP'
p79
aS'S-PP'
p80
aS'B-NP'
p81
aS'E-NP'
p82
aS'S-NP'
p83
aS'B-VP'
p84
aS'E-VP'
p85
aS'B-NP'
p86
aS'I-NP'
p87
aS'I-NP'
p88
aS'I-NP'
p89
aS'I-NP'
p90
aS'I-NP'
p91
aS'I-NP'
p92
aS'I-NP'
p93
aS'E-NP'
p94
aS'B-ADJP'
p95
aS'E-ADJP'
p96
aS'O'
asS'dep_seq'
p97
(lp98
(lp99
S'nn'
p100
aS'4'
aS'1'
aa(lp101
S'nn'
p102
aS'4'
aS'2'
aa(lp103
S'nn'
p104
aS'4'
aS'3'
aa(lp105
S'dep'
p106
aS'28'
p107
aS'4'
aa(lp108
S'prep_of'
p109
aS'4'
aS'6'
aa(lp110
S'nn'
p111
aS'11'
p112
aS'7'
aa(lp113
S'conj_or'
p114
aS'7'
aS'9'
aa(lp115
S'neg'
p116
aS'11'
p117
aS'10'
p118
aa(lp119
S'dep'
p120
aS'6'
aS'11'
p121
aa(lp122
S'nn'
p123
aS'15'
p124
aS'13'
p125
aa(lp126
S'conj_nor'
p127
aS'11'
p128
aS'15'
p129
aa(lp130
S'dep'
p131
aS'4'
aS'17'
p132
aa(lp133
S'dep'
p134
aS'28'
p135
aS'18'
p136
aa(lp137
S'nn'
p138
aS'27'
p139
aS'20'
p140
aa(lp141
S'amod'
p142
aS'27'
p143
aS'21'
p144
aa(lp145
S'nn'
p146
aS'27'
p147
aS'22'
p148
aa(lp149
S'amod'
p150
aS'27'
p151
aS'23'
p152
aa(lp153
S'nn'
p154
aS'27'
p155
aS'24'
p156
aa(lp157
S'nn'
p158
aS'27'
p159
aS'25'
p160
aa(lp161
S'dep'
p162
aS'28'
p163
aS'27'
p164
aa(lp165
S'root'
p166
aS'0'
aS'28'
p167
aa(lp168
S'det'
p169
aS'30'
p170
aS'29'
p171
aa(lp172
S'dep'
p173
aS'28'
p174
aS'30'
p175
aa(lp176
S'dep'
p177
aS'28'
p178
aS'31'
p179
aa(lp180
S'dep'
p181
aS'28'
p182
aS'32'
p183
aa(lp184
S'dep'
p185
aS'28'
p186
aS'33'
p187
aa(lp188
S'det'
p189
aS'37'
p190
aS'34'
p191
aa(lp192
S'amod'
p193
aS'36'
p194
aS'35'
p195
aa(lp196
S'amod'
p197
aS'37'
p198
aS'36'
p199
aa(lp200
S'dep'
p201
aS'28'
p202
aS'37'
p203
aa(lp204
S'amod'
p205
aS'39'
p206
aS'38'
p207
aa(lp208
S'dep'
p209
aS'28'
p210
aS'39'
p211
aa(lp212
S'amod'
p213
aS'42'
p214
aS'41'
p215
aa(lp216
S'conj_or'
p217
aS'28'
p218
aS'42'
p219
aa(lp220
S'dep'
p221
aS'44'
p222
aS'43'
p223
aa(lp224
S'dep'
p225
aS'42'
p226
aS'44'
p227
aasS'srls'
p228
(lp229
(dp230
S'A1'
p231
S'president vicePresident chancellor viceChancellor governor lieutenant . Points to a Person who may have a general " position " resource or " title " literal'
p232
sS'A2'
p233
S'Person colleague Person Colleague of a Person or OfficeHolder not PersonFunction nor CareerStation . Sub - properties'
p234
sS'V'
g35
sa(dp235
S'A1'
p236
S'a general " position " resource or " title " literal'
p237
sS'V'
g47
sS'R-A0'
p238
g45
sS'AM-MOD'
p239
g46
sasS'pos_seq'
p240
(lp241
S'NN'
p242
aS'NN'
p243
aS'NNP'
p244
aS'NNP'
p245
aS'IN'
p246
aS'DT'
p247
aS'NN'
p248
aS'CC'
p249
aS'NNP'
p250
aS'RB'
p251
aS'NNP'
p252
aS'CC'
p253
aS'NNP'
p254
aS'.'
aS'NNP'
p255
aS':'
aS'NNS'
p256
aS'VBP'
p257
aS':'
aS'NN'
p258
aS'JJ'
p259
aS'NN'
p260
aS'JJ'
p261
aS'NN'
p262
aS'NN'
p263
aS'.'
aS'NNS'
p264
aS'TO'
p265
aS'DT'
p266
aS'NN'
p267
aS'WP'
p268
aS'MD'
p269
aS'VB'
p270
aS'DT'
p271
aS'JJ'
p272
aS'JJ'
p273
aS'NN'
p274
aS'JJ'
p275
aS'NN'
p276
aS'CC'
p277
aS'JJ'
p278
aS'NN'
p279
aS'JJ'
p280
aS'JJ'
p281
aS'.'
asS'ner_seq'
p282
(lp283
S'O'
aS'O'
aS'O'
aS'O'
aS'O'
aS'O'
aS'O'
aS'O'
aS'S-PER'
p284
aS'O'
aS'S-LOC'
p285
aS'O'
aS'B-ORG'
p286
aS'I-ORG'
p287
aS'E-ORG'
p288
aS'O'
aS'O'
aS'O'
aS'O'
aS'O'
aS'S-PER'
p289
aS'O'
aS'O'
aS'O'
aS'O'
aS'O'
aS'O'
aS'O'
aS'O'
aS'O'
aS'O'
aS'O'
aS'O'
aS'O'
aS'O'
aS'O'
aS'O'
aS'O'
aS'O'
aS'O'
aS'O'
aS'O'
aS'O'
aS'O'
aS'O'
assb.