ccopy_reg
_reconstructor
p1
(c__main__
KBproperty
p2
c__builtin__
object
p3
NtRp4
(dp5
S'comment'
p6
S'secondary/other fuel type'
p7
sS'domain'
p8
S'Power Station '
p9
sS'instances_count'
p10
S'0'
sS'label'
p11
g7
sS'range'
p12
S''
sS'prop_uri'
p13
S"'http://dbpedia.org/ontology/otherFuelType'"
p14
sS'annotations'
p15
(dp16
S'bag_of_words'
p17
(lp18
S'Power'
p19
aS'Station'
p20
aS'other'
p21
aS'Fuel'
p22
aS'Type'
p23
aS'secondary'
p24
aS'/'
aS'other'
p25
aS'fuel'
p26
aS'type'
p27
asS'chunk_seq'
p28
(lp29
S'B-NP'
p30
aS'E-NP'
p31
aS'B-NP'
p32
aS'I-NP'
p33
aS'I-NP'
p34
aS'I-NP'
p35
aS'I-NP'
p36
aS'I-NP'
p37
aS'I-NP'
p38
aS'E-NP'
p39
asS'dep_seq'
p40
(lp41
(lp42
S'nn'
p43
aS'2'
aS'1'
aa(lp44
S'root'
p45
aS'0'
aS'2'
aa(lp46
S'amod'
p47
aS'5'
aS'3'
aa(lp48
S'nn'
p49
aS'5'
aS'4'
aa(lp50
S'dep'
p51
aS'2'
aS'5'
aa(lp52
S'amod'
p53
aS'5'
aS'6'
aa(lp54
S'punct'
p55
aS'5'
aS'7'
aa(lp56
S'amod'
p57
aS'10'
p58
aS'8'
aa(lp59
S'nn'
p60
aS'10'
p61
aS'9'
aa(lp62
S'dep'
p63
aS'5'
aS'10'
p64
aasS'srls'
p65
(lp66
sS'pos_seq'
p67
(lp68
S'NNP'
p69
aS'NNP'
p70
aS'JJ'
p71
aS'NNP'
p72
aS'NNP'
p73
aS'JJ'
p74
aS':'
aS'JJ'
p75
aS'NN'
p76
aS'NN'
p77
asS'ner_seq'
p78
(lp79
S'B-ORG'
p80
aS'E-ORG'
p81
aS'O'
aS'O'
aS'O'
aS'O'
aS'O'
aS'O'
aS'O'
aS'O'
assb.