ccopy_reg
_reconstructor
p1
(c__main__
KBproperty
p2
c__builtin__
object
p3
NtRp4
(dp5
S'comment'
p6
S'The date that leader was elected.'
p7
sS'domain'
p8
S'Legislature '
p9
sS'instances_count'
p10
S'542'
p11
sS'label'
p12
S'election date leader'
p13
sS'range'
p14
S'date '
p15
sS'prop_uri'
p16
S"'http://dbpedia.org/ontology/electionDateLeader'"
p17
sS'annotations'
p18
(dp19
S'bag_of_words'
p20
(lp21
S'Legislature'
p22
aS'election'
p23
aS'date'
p24
aS'leader'
p25
aS'date'
p26
aS'The'
p27
aS'date'
p28
aS'that'
p29
aS'leader'
p30
aS'was'
p31
aS'elected'
p32
aS'.'
asS'chunk_seq'
p33
(lp34
S'B-NP'
p35
aS'I-NP'
p36
aS'E-NP'
p37
aS'B-NP'
p38
aS'E-NP'
p39
aS'B-NP'
p40
aS'E-NP'
p41
aS'B-NP'
p42
aS'E-NP'
p43
aS'B-VP'
p44
aS'E-VP'
p45
aS'O'
asS'dep_seq'
p46
(lp47
(lp48
S'nn'
p49
aS'5'
aS'1'
aa(lp50
S'nn'
p51
aS'5'
aS'2'
aa(lp52
S'nn'
p53
aS'5'
aS'3'
aa(lp54
S'nn'
p55
aS'5'
aS'4'
aa(lp56
S'nsubjpass'
p57
aS'11'
p58
aS'5'
aa(lp59
S'det'
p60
aS'7'
aS'6'
aa(lp61
S'nsubjpass'
p62
aS'11'
p63
aS'7'
aa(lp64
S'det'
p65
aS'9'
aS'8'
aa(lp66
S'nsubjpass'
p67
aS'11'
p68
aS'9'
aa(lp69
S'auxpass'
p70
aS'11'
p71
aS'10'
p72
aa(lp73
S'root'
p74
aS'0'
aS'11'
p75
aasS'srls'
p76
(lp77
(dp78
S'A1'
p79
S'Legislature election date leader date  that leader'
p80
sS'AM-TMP'
p81
S'The date'
p82
sS'V'
g32
sasS'pos_seq'
p83
(lp84
S'NN'
p85
aS'NN'
p86
aS'NN'
p87
aS'NN'
p88
aS'NN'
p89
aS'DT'
p90
aS'NN'
p91
aS'DT'
p92
aS'NN'
p93
aS'VBD'
p94
aS'VBN'
p95
aS'.'
asS'ner_seq'
p96
(lp97
S'O'
aS'O'
aS'O'
aS'O'
aS'O'
aS'O'
aS'O'
aS'O'
aS'O'
aS'O'
aS'O'
aS'O'
assb.