ccopy_reg
_reconstructor
p1
(c__main__
KBproperty
p2
c__builtin__
object
p3
NtRp4
(dp5
S'comment'
p6
S''
sS'domain'
p7
S'Soccer League Season '
p8
sS'instances_count'
p9
S'0'
sS'label'
p10
S'relegated teams'
p11
sS'range'
p12
S'Sports Team '
p13
sS'prop_uri'
p14
S"'http://dbpedia.org/ontology/soccerLeagueRelegated'"
p15
sS'annotations'
p16
(dp17
S'bag_of_words'
p18
(lp19
S'Soccer'
p20
aS'League'
p21
aS'Season'
p22
aS'relegated'
p23
aS'teams'
p24
aS'Sports'
p25
aS'Team'
p26
asS'chunk_seq'
p27
(lp28
S'B-NP'
p29
aS'I-NP'
p30
aS'E-NP'
p31
aS'S-VP'
p32
aS'B-NP'
p33
aS'I-NP'
p34
aS'E-NP'
p35
asS'dep_seq'
p36
(lp37
(lp38
S'nn'
p39
aS'3'
aS'1'
aa(lp40
S'nn'
p41
aS'3'
aS'2'
aa(lp42
S'nsubj'
p43
aS'4'
aS'3'
aa(lp44
S'root'
p45
aS'0'
aS'4'
aa(lp46
S'nn'
p47
aS'7'
aS'5'
aa(lp48
S'nn'
p49
aS'7'
aS'6'
aa(lp50
S'dobj'
p51
aS'4'
aS'7'
aasS'srls'
p52
(lp53
(dp54
S'A1'
p55
S'teams Sports Team'
p56
sS'A0'
p57
S'Soccer League Season'
p58
sS'V'
g23
sasS'pos_seq'
p59
(lp60
S'NNP'
p61
aS'NNP'
p62
aS'NNP'
p63
aS'VBD'
p64
aS'NNS'
p65
aS'NNP'
p66
aS'NNP'
p67
asS'ner_seq'
p68
(lp69
S'O'
aS'O'
aS'O'
aS'O'
aS'O'
aS'B-ORG'
p70
aS'E-ORG'
p71
assb.