ccopy_reg
_reconstructor
p1
(c__main__
KBproperty
p2
c__builtin__
object
p3
NtRp4
(dp5
S'comment'
p6
S'MusicBrainz is an open music encyclopedia that collects music metadata and makes it available to the public.'
p7
sS'domain'
p8
S''
sS'instances_count'
p9
S'14'
p10
sS'label'
p11
S'MBA Id'
p12
sS'range'
p13
S'string '
p14
sS'prop_uri'
p15
S"'http://dbpedia.org/ontology/mbaId'"
p16
sS'annotations'
p17
(dp18
S'bag_of_words'
p19
(lp20
S'MBA'
p21
aS'Id'
p22
aS'string'
p23
aS'MusicBrainz'
p24
aS'is'
p25
aS'an'
p26
aS'open'
p27
aS'music'
p28
aS'encyclopedia'
p29
aS'that'
p30
aS'collects'
p31
aS'music'
p32
aS'metadata'
p33
aS'and'
p34
aS'makes'
p35
aS'it'
p36
aS'available'
p37
aS'to'
p38
aS'the'
p39
aS'public'
p40
aS'.'
asS'chunk_seq'
p41
(lp42
S'B-NP'
p43
aS'I-NP'
p44
aS'I-NP'
p45
aS'E-NP'
p46
aS'S-VP'
p47
aS'B-NP'
p48
aS'I-NP'
p49
aS'I-NP'
p50
aS'E-NP'
p51
aS'S-NP'
p52
aS'S-VP'
p53
aS'B-NP'
p54
aS'E-NP'
p55
aS'O'
aS'S-VP'
p56
aS'S-NP'
p57
aS'S-ADJP'
p58
aS'S-PP'
p59
aS'B-NP'
p60
aS'E-NP'
p61
aS'O'
asS'dep_seq'
p62
(lp63
(lp64
S'nn'
p65
aS'4'
aS'1'
aa(lp66
S'nn'
p67
aS'4'
aS'2'
aa(lp68
S'nn'
p69
aS'4'
aS'3'
aa(lp70
S'nsubj'
p71
aS'9'
aS'4'
aa(lp72
S'cop'
p73
aS'9'
aS'5'
aa(lp74
S'det'
p75
aS'9'
aS'6'
aa(lp76
S'amod'
p77
aS'9'
aS'7'
aa(lp78
S'nn'
p79
aS'9'
aS'8'
aa(lp80
S'root'
p81
aS'0'
aS'9'
aa(lp82
S'nsubj'
p83
aS'11'
p84
aS'9'
aa(lp85
S'rcmod'
p86
aS'9'
aS'11'
p87
aa(lp88
S'nn'
p89
aS'13'
p90
aS'12'
p91
aa(lp92
S'dobj'
p93
aS'11'
p94
aS'13'
p95
aa(lp96
S'conj_and'
p97
aS'11'
p98
aS'15'
p99
aa(lp100
S'nsubj'
p101
aS'17'
p102
aS'16'
p103
aa(lp104
S'xcomp'
p105
aS'15'
p106
aS'17'
p107
aa(lp108
S'det'
p109
aS'20'
p110
aS'19'
p111
aa(lp112
S'prep_to'
p113
aS'17'
p114
aS'20'
p115
aasS'srls'
p116
(lp117
(dp118
S'A1'
p119
S'music metadata'
p120
sS'A0'
p121
S'an open music encyclopedia'
p122
sS'R-A0'
p123
g30
sS'V'
g31
sa(dp124
S'A1'
p125
g36
sS'A2'
p126
S'available to the public'
p127
sS'V'
g35
sasS'pos_seq'
p128
(lp129
S'NNP'
p130
aS'NNP'
p131
aS'NN'
p132
aS'NNP'
p133
aS'VBZ'
p134
aS'DT'
p135
aS'JJ'
p136
aS'NN'
p137
aS'NN'
p138
aS'WDT'
p139
aS'VBZ'
p140
aS'NN'
p141
aS'NN'
p142
aS'CC'
p143
aS'VBZ'
p144
aS'PRP'
p145
aS'JJ'
p146
aS'TO'
p147
aS'DT'
p148
aS'NN'
p149
aS'.'
asS'ner_seq'
p150
(lp151
S'O'
aS'O'
aS'O'
aS'S-PER'
p152
aS'O'
aS'O'
aS'O'
aS'O'
aS'O'
aS'O'
aS'O'
aS'O'
aS'O'
aS'O'
aS'O'
aS'O'
aS'O'
aS'O'
aS'O'
aS'O'
aS'O'
assb.