ccopy_reg
_reconstructor
p1
(c__main__
KBproperty
p2
c__builtin__
object
p3
NtRp4
(dp5
S'comment'
p6
S''
sS'domain'
p7
S'Building '
p8
sS'instances_count'
p9
S'3424'
p10
sS'label'
p11
S'seating capacity'
p12
sS'range'
p13
S'non Negative Integer '
p14
sS'prop_uri'
p15
S"'http://dbpedia.org/ontology/seatingCapacity'"
p16
sS'annotations'
p17
(dp18
S'bag_of_words'
p19
(lp20
S'Building'
p21
aS'seating'
p22
aS'capacity'
p23
aS'non'
p24
aS'Negative'
p25
aS'Integer'
p26
asS'chunk_seq'
p27
(lp28
S'B-NP'
p29
aS'I-NP'
p30
aS'E-NP'
p31
aS'B-NP'
p32
aS'I-NP'
p33
aS'E-NP'
p34
asS'dep_seq'
p35
(lp36
(lp37
S'amod'
p38
aS'3'
aS'1'
aa(lp39
S'nn'
p40
aS'3'
aS'2'
aa(lp41
S'root'
p42
aS'0'
aS'3'
aa(lp43
S'advmod'
p44
aS'6'
aS'4'
aa(lp45
S'amod'
p46
aS'6'
aS'5'
aa(lp47
S'dep'
p48
aS'3'
aS'6'
aasS'srls'
p49
(lp50
(dp51
S'A1'
p52
S'seating capacity non Negative Integer'
p53
sS'V'
g21
sasS'pos_seq'
p54
(lp55
S'VBG'
p56
aS'NN'
p57
aS'NN'
p58
aS'RB'
p59
aS'JJ'
p60
aS'NN'
p61
asS'ner_seq'
p62
(lp63
S'O'
aS'O'
aS'O'
aS'O'
aS'B-MISC'
p64
aS'E-MISC'
p65
assb.