ccopy_reg
_reconstructor
p1
(c__main__
KBproperty
p2
c__builtin__
object
p3
NtRp4
(dp5
S'comment'
p6
S''
sS'domain'
p7
S'Olympics '
p8
sS'instances_count'
p9
S'0'
sS'label'
p10
S'number of newly introduced sports'
p11
sS'range'
p12
S'non Negative Integer '
p13
sS'prop_uri'
p14
S"'http://dbpedia.org/ontology/numberOfNewlyIntroducedSports'"
p15
sS'annotations'
p16
(dp17
S'bag_of_words'
p18
(lp19
S'Olympics'
p20
aS'number'
p21
aS'of'
p22
aS'newly'
p23
aS'introduced'
p24
aS'sports'
p25
aS'non'
p26
aS'Negative'
p27
aS'Integer'
p28
asS'chunk_seq'
p29
(lp30
S'B-NP'
p31
aS'E-NP'
p32
aS'S-PP'
p33
aS'B-NP'
p34
aS'I-NP'
p35
aS'I-NP'
p36
aS'I-NP'
p37
aS'I-NP'
p38
aS'E-NP'
p39
asS'dep_seq'
p40
(lp41
(lp42
S'nn'
p43
aS'2'
aS'1'
aa(lp44
S'dep'
p45
aS'9'
aS'2'
aa(lp46
S'advmod'
p47
aS'5'
aS'4'
aa(lp48
S'amod'
p49
aS'6'
aS'5'
aa(lp50
S'prep_of'
p51
aS'2'
aS'6'
aa(lp52
S'amod'
p53
aS'8'
aS'7'
aa(lp54
S'amod'
p55
aS'9'
aS'8'
aa(lp56
S'root'
p57
aS'0'
aS'9'
aasS'srls'
p58
(lp59
(dp60
S'A1'
p61
S'sports non Negative Integer'
p62
sS'AM-TMP'
p63
g23
sS'V'
g24
sasS'pos_seq'
p64
(lp65
S'NNS'
p66
aS'NN'
p67
aS'IN'
p68
aS'RB'
p69
aS'VBN'
p70
aS'NNS'
p71
aS'JJ'
p72
aS'JJ'
p73
aS'NN'
p74
asS'ner_seq'
p75
(lp76
S'S-MISC'
p77
aS'O'
aS'O'
aS'O'
aS'O'
aS'O'
aS'O'
aS'B-MISC'
p78
aS'E-MISC'
p79
assb.