ccopy_reg
_reconstructor
p1
(c__main__
KBproperty
p2
c__builtin__
object
p3
NtRp4
(dp5
S'comment'
p6
S''
sS'domain'
p7
S''
sS'instances_count'
p8
S'2'
sS'label'
p9
S'show'
p10
sS'range'
p11
S'Television Show '
p12
sS'prop_uri'
p13
S"'http://dbpedia.org/ontology/show'"
p14
sS'annotations'
p15
(dp16
S'bag_of_words'
p17
(lp18
S'show'
p19
aS'Television'
p20
aS'Show'
p21
asS'chunk_seq'
p22
(lp23
S'B-NP'
p24
aS'I-NP'
p25
aS'E-NP'
p26
asS'dep_seq'
p27
(lp28
(lp29
S'root'
p30
aS'0'
aS'1'
aa(lp31
S'nn'
p32
aS'3'
aS'2'
aa(lp33
S'dobj'
p34
aS'1'
aS'3'
aasS'srls'
p35
(lp36
(dp37
S'A1'
p38
S'Television Show'
p39
sS'V'
g19
sasS'pos_seq'
p40
(lp41
S'VB'
p42
aS'NNP'
p43
aS'NNP'
p44
asS'ner_seq'
p45
(lp46
S'O'
aS'O'
aS'O'
assb.