ccopy_reg
_reconstructor
p1
(c__main__
KBproperty
p2
c__builtin__
object
p3
NtRp4
(dp5
S'comment'
p6
S'victory as manager'
p7
sS'domain'
p8
S'Person '
p9
sS'instances_count'
p10
S'0'
sS'label'
p11
g7
sS'range'
p12
S'non Negative Integer '
p13
sS'prop_uri'
p14
S"'http://dbpedia.org/ontology/victoryAsMgr'"
p15
sS'annotations'
p16
(dp17
S'bag_of_words'
p18
(lp19
S'Person'
p20
aS'victory'
p21
aS'As'
p22
aS'Mgr'
p23
aS'non'
p24
aS'Negative'
p25
aS'Integer'
p26
aS'victory'
p27
aS'as'
p28
aS'manager'
p29
asS'chunk_seq'
p30
(lp31
S'B-NP'
p32
aS'E-NP'
p33
aS'S-PP'
p34
aS'B-NP'
p35
aS'I-NP'
p36
aS'I-NP'
p37
aS'I-NP'
p38
aS'E-NP'
p39
aS'S-PP'
p40
aS'S-NP'
p41
asS'dep_seq'
p42
(lp43
(lp44
S'nn'
p45
aS'2'
aS'1'
aa(lp46
S'root'
p47
aS'0'
aS'2'
aa(lp48
S'nn'
p49
aS'8'
aS'4'
aa(lp50
S'amod'
p51
aS'8'
aS'5'
aa(lp52
S'nn'
p53
aS'8'
aS'6'
aa(lp54
S'nn'
p55
aS'8'
aS'7'
aa(lp56
S'prep_as'
p57
aS'2'
aS'8'
aa(lp58
S'prep_as'
p59
aS'8'
aS'10'
p60
aasS'srls'
p61
(lp62
sS'pos_seq'
p63
(lp64
S'NN'
p65
aS'NN'
p66
aS'IN'
p67
aS'NNP'
p68
aS'JJ'
p69
aS'NNP'
p70
aS'NNP'
p71
aS'NN'
p72
aS'IN'
p73
aS'NN'
p74
asS'ner_seq'
p75
(lp76
S'O'
aS'O'
aS'O'
aS'O'
aS'O'
aS'O'
aS'O'
aS'O'
aS'O'
aS'O'
assb.