ccopy_reg
_reconstructor
p1
(c__main__
KBproperty
p2
c__builtin__
object
p3
NtRp4
(dp5
S'comment'
p6
S'approved rating of the Entertainment Software Self-Regulation Body in Germany'
p7
sS'domain'
p8
S''
sS'instances_count'
p9
S'0'
sS'label'
p10
g7
sS'range'
p11
S'integer '
p12
sS'prop_uri'
p13
S"'http://dbpedia.org/ontology/usk'"
p14
sS'annotations'
p15
(dp16
S'bag_of_words'
p17
(lp18
S'usk'
p19
aS'integer'
p20
aS'approved'
p21
aS'rating'
p22
aS'of'
p23
aS'the'
p24
aS'Entertainment'
p25
aS'Software'
p26
aS'Self-Regulation'
p27
aS'Body'
p28
aS'in'
p29
aS'Germany'
p30
asS'chunk_seq'
p31
(lp32
S'B-NP'
p33
aS'I-NP'
p34
aS'I-NP'
p35
aS'E-NP'
p36
aS'S-PP'
p37
aS'B-NP'
p38
aS'I-NP'
p39
aS'I-NP'
p40
aS'I-NP'
p41
aS'E-NP'
p42
aS'S-PP'
p43
aS'S-NP'
p44
asS'dep_seq'
p45
(lp46
(lp47
S'dep'
p48
aS'4'
aS'1'
aa(lp49
S'nn'
p50
aS'4'
aS'2'
aa(lp51
S'amod'
p52
aS'4'
aS'3'
aa(lp53
S'root'
p54
aS'0'
aS'4'
aa(lp55
S'det'
p56
aS'10'
p57
aS'6'
aa(lp58
S'nn'
p59
aS'10'
p60
aS'7'
aa(lp61
S'nn'
p62
aS'10'
p63
aS'8'
aa(lp64
S'nn'
p65
aS'10'
p66
aS'Regulation'
p67
aa(lp68
S'prep_of'
p69
aS'4'
aS'10'
p70
aa(lp71
S'prep_in'
p72
aS'4'
aS'12'
p73
aasS'srls'
p74
(lp75
sS'pos_seq'
p76
(lp77
S'SYM'
p78
aS'NN'
p79
aS'VBN'
p80
aS'NN'
p81
aS'IN'
p82
aS'DT'
p83
aS'NNP'
p84
aS'NNP'
p85
aS'NNP'
p86
aS'NNP'
p87
aS'IN'
p88
aS'NNP'
p89
asS'ner_seq'
p90
(lp91
S'O'
aS'O'
aS'O'
aS'O'
aS'O'
aS'O'
aS'B-ORG'
p92
aS'I-ORG'
p93
aS'I-ORG'
p94
aS'E-ORG'
p95
aS'O'
aS'S-LOC'
p96
assb.