ccopy_reg
_reconstructor
p1
(c__main__
KBproperty
p2
c__builtin__
object
p3
NtRp4
(dp5
S'comment'
p6
S'distance to Charing Cross \\xce\\xbc'
p7
sS'domain'
p8
S'Settlement '
p9
sS'instances_count'
p10
S'164'
p11
sS'label'
p12
g7
sS'range'
p13
S'double '
p14
sS'prop_uri'
p15
S"'http://dbpedia.org/ontology/distanceToCharingCross'"
p16
sS'annotations'
p17
(dp18
S'bag_of_words'
p19
(lp20
S'Settlement'
p21
aS'distance'
p22
aS'To'
p23
aS'Charing'
p24
aS'Cross'
p25
aS'double'
p26
aS'distance'
p27
aS'to'
p28
aS'Charing'
p29
aS'Cross'
p30
aS'\\'
aS'xce'
p31
aS'\\'
aS'xbc'
p32
asS'chunk_seq'
p33
(lp34
S'B-NP'
p35
aS'E-NP'
p36
aS'S-PP'
p37
aS'B-NP'
p38
aS'I-NP'
p39
aS'I-NP'
p40
aS'E-NP'
p41
aS'S-PP'
p42
aS'B-NP'
p43
aS'E-NP'
p44
aS'O'
aS'O'
aS'O'
aS'O'
asS'dep_seq'
p45
(lp46
(lp47
S'nn'
p48
aS'2'
aS'1'
aa(lp49
S'nsubj'
p50
aS'11'
p51
aS'2'
aa(lp52
S'nn'
p53
aS'5'
aS'4'
aa(lp54
S'prep_to'
p55
aS'2'
aS'5'
aa(lp56
S'amod'
p57
aS'7'
aS'6'
aa(lp58
S'nsubj'
p59
aS'11'
p60
aS'7'
aa(lp61
S'nn'
p62
aS'10'
p63
aS'9'
aa(lp64
S'prep_to'
p65
aS'7'
aS'10'
p66
aa(lp67
S'root'
p68
aS'0'
aS'11'
p69
aa(lp70
S'discourse'
p71
aS'11'
p72
aS'12'
p73
aa(lp74
S'dep'
p75
aS'12'
p76
aS'13'
p77
aa(lp78
S'dep'
p79
aS'12'
p80
aS'14'
p81
aasS'srls'
p82
(lp83
sS'pos_seq'
p84
(lp85
S'NN'
p86
aS'NN'
p87
aS'TO'
p88
aS'NNP'
p89
aS'NNP'
p90
aS'JJ'
p91
aS'NN'
p92
aS'TO'
p93
aS'NNP'
p94
aS'NNP'
p95
aS'FW'
p96
aS'FW'
p97
aS'FW'
p98
aS'FW'
p99
asS'ner_seq'
p100
(lp101
S'O'
aS'O'
aS'O'
aS'B-LOC'
p102
aS'E-LOC'
p103
aS'O'
aS'O'
aS'O'
aS'B-ORG'
p104
aS'E-ORG'
p105
aS'O'
aS'O'
aS'O'
aS'O'
assb.