ccopy_reg
_reconstructor
p1
(c__main__
KBproperty
p2
c__builtin__
object
p3
NtRp4
(dp5
S'comment'
p6
S'winner of a competition in the female double session as in tennis'
p7
sS'domain'
p8
S'Sports Event '
p9
sS'instances_count'
p10
S'346'
p11
sS'label'
p12
S'champion in double female'
p13
sS'range'
p14
S'Athlete '
p15
sS'prop_uri'
p16
S"'http://dbpedia.org/ontology/championInDoubleFemale'"
p17
sS'annotations'
p18
(dp19
S'bag_of_words'
p20
(lp21
S'Sports'
p22
aS'Event'
p23
aS'champion'
p24
aS'in'
p25
aS'double'
p26
aS'female'
p27
aS'Athlete'
p28
aS'winner'
p29
aS'of'
p30
aS'a'
aS'competition'
p31
aS'in'
p32
aS'the'
p33
aS'female'
p34
aS'double'
p35
aS'session'
p36
aS'as'
p37
aS'in'
p38
aS'tennis'
p39
asS'chunk_seq'
p40
(lp41
S'B-NP'
p42
aS'I-NP'
p43
aS'E-NP'
p44
aS'S-PP'
p45
aS'B-NP'
p46
aS'I-NP'
p47
aS'I-NP'
p48
aS'E-NP'
p49
aS'S-PP'
p50
aS'B-NP'
p51
aS'E-NP'
p52
aS'S-PP'
p53
aS'B-NP'
p54
aS'I-NP'
p55
aS'I-NP'
p56
aS'E-NP'
p57
aS'S-PP'
p58
aS'S-PP'
p59
aS'S-NP'
p60
asS'dep_seq'
p61
(lp62
(lp63
S'nn'
p64
aS'3'
aS'1'
aa(lp65
S'nn'
p66
aS'3'
aS'2'
aa(lp67
S'root'
p68
aS'0'
aS'3'
aa(lp69
S'amod'
p70
aS'8'
aS'5'
aa(lp71
S'amod'
p72
aS'8'
aS'6'
aa(lp73
S'nn'
p74
aS'8'
aS'7'
aa(lp75
S'prep_in'
p76
aS'3'
aS'8'
aa(lp77
S'det'
p78
aS'11'
p79
aS'10'
p80
aa(lp81
S'prep_of'
p82
aS'8'
aS'11'
p83
aa(lp84
S'det'
p85
aS'16'
p86
aS'13'
p87
aa(lp88
S'amod'
p89
aS'16'
p90
aS'14'
p91
aa(lp92
S'amod'
p93
aS'16'
p94
aS'15'
p95
aa(lp96
S'prep_in'
p97
aS'11'
p98
aS'16'
p99
aa(lp100
S'prep'
p101
aS'11'
p102
aS'17'
p103
aa(lp104
S'pcomp'
p105
aS'17'
p106
aS'18'
p107
aa(lp108
S'pobj'
p109
aS'18'
p110
aS'19'
p111
aasS'srls'
p112
(lp113
sS'pos_seq'
p114
(lp115
S'NNS'
p116
aS'NN'
p117
aS'NN'
p118
aS'IN'
p119
aS'JJ'
p120
aS'JJ'
p121
aS'NN'
p122
aS'NN'
p123
aS'IN'
p124
aS'DT'
p125
aS'NN'
p126
aS'IN'
p127
aS'DT'
p128
aS'JJ'
p129
aS'JJ'
p130
aS'NN'
p131
aS'IN'
p132
aS'IN'
p133
aS'NN'
p134
asS'ner_seq'
p135
(lp136
S'O'
aS'O'
aS'O'
aS'O'
aS'O'
aS'O'
aS'O'
aS'O'
aS'O'
aS'O'
aS'O'
aS'O'
aS'O'
aS'O'
aS'O'
aS'O'
aS'O'
aS'O'
aS'O'
assb.