ccopy_reg
_reconstructor
p1
(c__main__
KBproperty
p2
c__builtin__
object
p3
NtRp4
(dp5
S'comment'
p6
S'date disappearance of a populated place'
p7
sS'domain'
p8
S'Populated Place '
p9
sS'instances_count'
p10
S'0'
sS'label'
p11
g7
sS'range'
p12
S'date '
p13
sS'prop_uri'
p14
S"'http://dbpedia.org/ontology/disappearanceDate'"
p15
sS'annotations'
p16
(dp17
S'bag_of_words'
p18
(lp19
S'Populated'
p20
aS'Place'
p21
aS'disappearance'
p22
aS'Date'
p23
aS'date'
p24
aS'date'
p25
aS'disappearance'
p26
aS'of'
p27
aS'a'
aS'populated'
p28
aS'place'
p29
asS'chunk_seq'
p30
(lp31
S'B-NP'
p32
aS'I-NP'
p33
aS'I-NP'
p34
aS'E-NP'
p35
aS'S-VP'
p36
aS'B-NP'
p37
aS'E-NP'
p38
aS'S-PP'
p39
aS'B-NP'
p40
aS'I-NP'
p41
aS'E-NP'
p42
asS'dep_seq'
p43
(lp44
(lp45
S'amod'
p46
aS'7'
aS'1'
aa(lp47
S'nn'
p48
aS'7'
aS'2'
aa(lp49
S'nn'
p50
aS'7'
aS'3'
aa(lp51
S'nn'
p52
aS'7'
aS'4'
aa(lp53
S'nn'
p54
aS'7'
aS'5'
aa(lp55
S'nn'
p56
aS'7'
aS'6'
aa(lp57
S'root'
p58
aS'0'
aS'7'
aa(lp59
S'det'
p60
aS'11'
p61
aS'9'
aa(lp62
S'amod'
p63
aS'11'
p64
aS'10'
p65
aa(lp66
S'prep_of'
p67
aS'7'
aS'11'
p68
aasS'srls'
p69
(lp70
sS'pos_seq'
p71
(lp72
S'JJ'
p73
aS'NN'
p74
aS'NN'
p75
aS'NN'
p76
aS'NN'
p77
aS'NN'
p78
aS'NN'
p79
aS'IN'
p80
aS'DT'
p81
aS'JJ'
p82
aS'NN'
p83
asS'ner_seq'
p84
(lp85
S'O'
aS'O'
aS'O'
aS'O'
aS'O'
aS'O'
aS'O'
aS'O'
aS'O'
aS'O'
aS'O'
assb.