ccopy_reg
_reconstructor
p1
(c__main__
KBproperty
p2
c__builtin__
object
p3
NtRp4
(dp5
S'comment'
p6
S''
sS'domain'
p7
S'Political Party '
p8
sS'instances_count'
p9
S'667'
p10
sS'label'
p11
S'merged into party'
p12
sS'range'
p13
S'Political Party '
p14
sS'prop_uri'
p15
S"'http://dbpedia.org/ontology/mergedIntoParty'"
p16
sS'annotations'
p17
(dp18
S'bag_of_words'
p19
(lp20
S'Political'
p21
aS'Party'
p22
aS'merged'
p23
aS'into'
p24
aS'party'
p25
aS'Political'
p26
aS'Party'
p27
asS'chunk_seq'
p28
(lp29
S'B-NP'
p30
aS'E-NP'
p31
aS'S-VP'
p32
aS'S-PP'
p33
aS'B-NP'
p34
aS'I-NP'
p35
aS'E-NP'
p36
asS'dep_seq'
p37
(lp38
(lp39
S'amod'
p40
aS'2'
aS'1'
aa(lp41
S'nsubj'
p42
aS'3'
aS'2'
aa(lp43
S'root'
p44
aS'0'
aS'3'
aa(lp45
S'nn'
p46
aS'7'
aS'5'
aa(lp47
S'amod'
p48
aS'7'
aS'6'
aa(lp49
S'prep_into'
p50
aS'3'
aS'7'
aasS'srls'
p51
(lp52
(dp53
S'A1'
p54
S'Political Party'
p55
sS'A2'
p56
S'into party Political Party'
p57
sS'V'
g23
sasS'pos_seq'
p58
(lp59
S'JJ'
p60
aS'NNP'
p61
aS'VBD'
p62
aS'IN'
p63
aS'NN'
p64
aS'JJ'
p65
aS'NN'
p66
asS'ner_seq'
p67
(lp68
S'B-ORG'
p69
aS'E-ORG'
p70
aS'O'
aS'O'
aS'O'
aS'B-ORG'
p71
aS'E-ORG'
p72
assb.