ccopy_reg
_reconstructor
p1
(c__main__
KBproperty
p2
c__builtin__
object
p3
NtRp4
(dp5
S'comment'
p6
S'Mouse Genomic Informatics ID'
p7
sS'domain'
p8
S'Biomolecule '
p9
sS'instances_count'
p10
S'9'
sS'label'
p11
S'mgiid'
p12
sS'range'
p13
S'string '
p14
sS'prop_uri'
p15
S"'http://dbpedia.org/ontology/mgiid'"
p16
sS'annotations'
p17
(dp18
S'bag_of_words'
p19
(lp20
S'Biomolecule'
p21
aS'mgiid'
p22
aS'string'
p23
aS'Mouse'
p24
aS'Genomic'
p25
aS'Informatics'
p26
aS'ID'
p27
asS'chunk_seq'
p28
(lp29
S'B-NP'
p30
aS'I-NP'
p31
aS'I-NP'
p32
aS'I-NP'
p33
aS'I-NP'
p34
aS'I-NP'
p35
aS'E-NP'
p36
asS'dep_seq'
p37
(lp38
(lp39
S'amod'
p40
aS'2'
aS'1'
aa(lp41
S'amod'
p42
aS'3'
aS'2'
aa(lp43
S'root'
p44
aS'0'
aS'3'
aa(lp45
S'nn'
p46
aS'7'
aS'4'
aa(lp47
S'nn'
p48
aS'7'
aS'5'
aa(lp49
S'nn'
p50
aS'7'
aS'6'
aa(lp51
S'dep'
p52
aS'3'
aS'7'
aasS'srls'
p53
(lp54
sS'pos_seq'
p55
(lp56
S'JJ'
p57
aS'JJ'
p58
aS'NN'
p59
aS'NNP'
p60
aS'NNP'
p61
aS'NNP'
p62
aS'NN'
p63
asS'ner_seq'
p64
(lp65
S'O'
aS'O'
aS'O'
aS'B-ORG'
p66
aS'I-ORG'
p67
aS'E-ORG'
p68
aS'O'
assb.