ccopy_reg
_reconstructor
p1
(c__main__
KBproperty
p2
c__builtin__
object
p3
NtRp4
(dp5
S'comment'
p6
S'distance traveled \\xce\\xbc'
p7
sS'domain'
p8
S'Space Mission '
p9
sS'instances_count'
p10
S'0'
sS'label'
p11
g7
sS'range'
p12
S'double '
p13
sS'prop_uri'
p14
S"'http://dbpedia.org/ontology/distanceTraveled'"
p15
sS'annotations'
p16
(dp17
S'bag_of_words'
p18
(lp19
S'Space'
p20
aS'Mission'
p21
aS'distance'
p22
aS'Traveled'
p23
aS'double'
p24
aS'distance'
p25
aS'traveled'
p26
aS'\\'
aS'xce'
p27
aS'\\'
aS'xbc'
p28
asS'chunk_seq'
p29
(lp30
S'B-NP'
p31
aS'I-NP'
p32
aS'E-NP'
p33
aS'S-VP'
p34
aS'B-NP'
p35
aS'E-NP'
p36
aS'S-VP'
p37
aS'O'
aS'O'
aS'O'
aS'O'
asS'dep_seq'
p38
(lp39
(lp40
S'nn'
p41
aS'3'
aS'1'
aa(lp42
S'nn'
p43
aS'3'
aS'2'
aa(lp44
S'nsubj'
p45
aS'4'
aS'3'
aa(lp46
S'root'
p47
aS'0'
aS'4'
aa(lp48
S'amod'
p49
aS'6'
aS'5'
aa(lp50
S'dobj'
p51
aS'4'
aS'6'
aa(lp52
S'dep'
p53
aS'4'
aS'7'
aa(lp54
S'dep'
p55
aS'4'
aS'8'
aa(lp56
S'discourse'
p57
aS'4'
aS'9'
aa(lp58
S'dep'
p59
aS'9'
aS'10'
p60
aa(lp61
S'dep'
p62
aS'9'
aS'11'
p63
aasS'srls'
p64
(lp65
(dp66
S'A1'
p67
S'double distance'
p68
sS'A0'
p69
S'Space Mission distance'
p70
sS'V'
g23
sa(dp71
S'A1'
p72
S'\\ xce \\ xbc'
p73
sS'A0'
p74
S'Space Mission distance Traveled double distance'
p75
sS'V'
g26
sasS'pos_seq'
p76
(lp77
S'NNP'
p78
aS'NNP'
p79
aS'NN'
p80
aS'VBD'
p81
aS'JJ'
p82
aS'NN'
p83
aS'VBN'
p84
aS'FW'
p85
aS'FW'
p86
aS'FW'
p87
aS'FW'
p88
asS'ner_seq'
p89
(lp90
S'B-ORG'
p91
aS'E-ORG'
p92
aS'O'
aS'O'
aS'O'
aS'O'
aS'O'
aS'O'
aS'O'
aS'O'
aS'O'
assb.