ccopy_reg
_reconstructor
p1
(c__main__
KBproperty
p2
c__builtin__
object
p3
NtRp4
(dp5
S'comment'
p6
S'a subdivision within a Species classis'
p7
sS'domain'
p8
S'Species '
p9
sS'instances_count'
p10
S'0'
sS'label'
p11
S'sub-classis'
p12
sS'range'
p13
S''
sS'prop_uri'
p14
S"'http://dbpedia.org/ontology/subClassis'"
p15
sS'annotations'
p16
(dp17
S'bag_of_words'
p18
(lp19
S'Species'
p20
aS'sub'
p21
aS'-'
aS'classis'
p22
aS'a'
aS'subdivision'
p23
aS'within'
p24
aS'a'
aS'Species'
p25
aS'classis'
p26
asS'chunk_seq'
p27
(lp28
S'B-NP'
p29
aS'I-NP'
p30
aS'I-NP'
p31
aS'E-NP'
p32
aS'B-NP'
p33
aS'E-NP'
p34
aS'S-PP'
p35
aS'B-NP'
p36
aS'E-NP'
p37
aS'S-ADJP'
p38
asS'dep_seq'
p39
(lp40
(lp41
S'nn'
p42
aS'2'
aS'1'
aa(lp43
S'root'
p44
aS'0'
aS'2'
aa(lp45
S'nn'
p46
aS'6'
aS'4'
aa(lp47
S'det'
p48
aS'6'
aS'5'
aa(lp49
S'dep'
p50
aS'2'
aS'6'
aa(lp51
S'det'
p52
aS'9'
aS'8'
aa(lp53
S'prep_within'
p54
aS'6'
aS'9'
aa(lp55
S'punct'
p56
aS'9'
aS'10'
p57
aasS'srls'
p58
(lp59
sS'pos_seq'
p60
(lp61
S'FW'
p62
aS'FW'
p63
aS'FW'
p64
aS'FW'
p65
aS'DT'
p66
aS'NN'
p67
aS'IN'
p68
aS'DT'
p69
aS'NNPS'
p70
aS'.'
asS'ner_seq'
p71
(lp72
S'O'
aS'O'
aS'O'
aS'O'
aS'O'
aS'O'
aS'O'
aS'O'
aS'O'
aS'O'
assb.