ccopy_reg
_reconstructor
p1
(c__main__
KBproperty
p2
c__builtin__
object
p3
NtRp4
(dp5
S'comment'
p6
S'the Alps subsection to which the mountain belongs according to the SOIUSA classification'
p7
sS'domain'
p8
S'Mountain '
p9
sS'instances_count'
p10
S'0'
sS'label'
p11
S'Alps subsection'
p12
sS'range'
p13
S'Mountain Range '
p14
sS'prop_uri'
p15
S"'http://dbpedia.org/ontology/alpsSubsection'"
p16
sS'annotations'
p17
(dp18
S'bag_of_words'
p19
(lp20
S'Mountain'
p21
aS'Alps'
p22
aS'subsection'
p23
aS'Mountain'
p24
aS'Range'
p25
aS'the'
p26
aS'Alps'
p27
aS'subsection'
p28
aS'to'
p29
aS'which'
p30
aS'the'
p31
aS'mountain'
p32
aS'belongs'
p33
aS'according'
p34
aS'to'
p35
aS'the'
p36
aS'SOIUSA'
p37
aS'classification'
p38
asS'chunk_seq'
p39
(lp40
S'B-NP'
p41
aS'I-NP'
p42
aS'I-NP'
p43
aS'I-NP'
p44
aS'E-NP'
p45
aS'B-NP'
p46
aS'I-NP'
p47
aS'E-NP'
p48
aS'S-PP'
p49
aS'S-NP'
p50
aS'B-NP'
p51
aS'E-NP'
p52
aS'S-VP'
p53
aS'S-PP'
p54
aS'S-PP'
p55
aS'B-NP'
p56
aS'I-NP'
p57
aS'E-NP'
p58
asS'dep_seq'
p59
(lp60
(lp61
S'nn'
p62
aS'5'
aS'1'
aa(lp63
S'nn'
p64
aS'5'
aS'2'
aa(lp65
S'nn'
p66
aS'5'
aS'3'
aa(lp67
S'nn'
p68
aS'5'
aS'4'
aa(lp69
S'dep'
p70
aS'8'
aS'5'
aa(lp71
S'det'
p72
aS'8'
aS'6'
aa(lp73
S'nn'
p74
aS'8'
aS'7'
aa(lp75
S'root'
p76
aS'0'
aS'8'
aa(lp77
S'prep_to'
p78
aS'13'
p79
aS'8'
aa(lp80
S'rel'
p81
aS'13'
p82
aS'9'
aa(lp83
S'det'
p84
aS'12'
p85
aS'11'
p86
aa(lp87
S'nsubj'
p88
aS'13'
p89
aS'12'
p90
aa(lp91
S'rcmod'
p92
aS'8'
aS'13'
p93
aa(lp94
S'prepc_according_to'
p95
aS'13'
p96
aS'15'
p97
aa(lp98
S'det'
p99
aS'18'
p100
aS'16'
p101
aa(lp102
S'nn'
p103
aS'18'
p104
aS'17'
p105
aa(lp106
S'pobj'
p107
aS'13'
p108
aS'18'
p109
aasS'srls'
p110
(lp111
(dp112
S'A0'
p113
S'the mountain'
p114
sS'V'
g33
sasS'pos_seq'
p115
(lp116
S'NNP'
p117
aS'NNP'
p118
aS'NN'
p119
aS'NNP'
p120
aS'NNP'
p121
aS'DT'
p122
aS'NNPS'
p123
aS'NN'
p124
aS'TO'
p125
aS'WDT'
p126
aS'DT'
p127
aS'NN'
p128
aS'VBZ'
p129
aS'VBG'
p130
aS'TO'
p131
aS'DT'
p132
aS'NNP'
p133
aS'NN'
p134
asS'ner_seq'
p135
(lp136
S'B-LOC'
p137
aS'E-LOC'
p138
aS'O'
aS'B-LOC'
p139
aS'E-LOC'
p140
aS'O'
aS'S-LOC'
p141
aS'O'
aS'O'
aS'O'
aS'O'
aS'O'
aS'O'
aS'O'
aS'O'
aS'O'
aS'S-ORG'
p142
aS'O'
assb.