ccopy_reg
_reconstructor
p1
(c__main__
KBproperty
p2
c__builtin__
object
p3
NtRp4
(dp5
S'comment'
p6
S'Reserved for DBpedia.'
p7
sS'domain'
p8
S''
sS'instances_count'
p9
S'1611674'
p10
sS'label'
p11
S'thumbnail'
p12
sS'range'
p13
S'Image '
p14
sS'prop_uri'
p15
S"'http://dbpedia.org/ontology/thumbnail'"
p16
sS'annotations'
p17
(dp18
S'bag_of_words'
p19
(lp20
S'thumbnail'
p21
aS'Image'
p22
aS'Reserved'
p23
aS'for'
p24
aS'DBpedia'
p25
aS'.'
asS'chunk_seq'
p26
(lp27
S'B-NP'
p28
aS'E-NP'
p29
aS'S-VP'
p30
aS'S-PP'
p31
aS'S-NP'
p32
aS'O'
asS'dep_seq'
p33
(lp34
(lp35
S'nn'
p36
aS'2'
aS'1'
aa(lp37
S'root'
p38
aS'0'
aS'2'
aa(lp39
S'partmod'
p40
aS'2'
aS'3'
aa(lp41
S'prep_for'
p42
aS'3'
aS'5'
aasS'srls'
p43
(lp44
(dp45
S'A2'
p46
S'for DBpedia'
p47
sS'V'
g23
sasS'pos_seq'
p48
(lp49
S'NN'
p50
aS'NN'
p51
aS'VBN'
p52
aS'IN'
p53
aS'NNP'
p54
aS'.'
asS'ner_seq'
p55
(lp56
S'O'
aS'O'
aS'O'
aS'O'
aS'S-PER'
p57
aS'O'
assb.