ccopy_reg
_reconstructor
p1
(c__main__
KBproperty
p2
c__builtin__
object
p3
NtRp4
(dp5
S'comment'
p6
S''
sS'domain'
p7
S'Place '
p8
sS'instances_count'
p9
S'0'
sS'label'
p10
S'named by language'
p11
sS'range'
p12
S'Place '
p13
sS'prop_uri'
p14
S"'http://dbpedia.org/ontology/namedByLanguage'"
p15
sS'annotations'
p16
(dp17
S'bag_of_words'
p18
(lp19
S'Place'
p20
aS'named'
p21
aS'by'
p22
aS'language'
p23
aS'Place'
p24
asS'chunk_seq'
p25
(lp26
S'S-NP'
p27
aS'S-VP'
p28
aS'S-PP'
p29
aS'B-NP'
p30
aS'E-NP'
p31
asS'dep_seq'
p32
(lp33
(lp34
S'root'
p35
aS'0'
aS'1'
aa(lp36
S'partmod'
p37
aS'1'
aS'2'
aa(lp38
S'nn'
p39
aS'5'
aS'4'
aa(lp40
S'agent'
p41
aS'2'
aS'5'
aasS'srls'
p42
(lp43
(dp44
S'A1'
p45
g20
sS'A0'
p46
S'by language Place'
p47
sS'V'
g21
sasS'pos_seq'
p48
(lp49
S'NN'
p50
aS'VBN'
p51
aS'IN'
p52
aS'NN'
p53
aS'NN'
p54
asS'ner_seq'
p55
(lp56
S'O'
aS'O'
aS'O'
aS'O'
aS'O'
assb.