ccopy_reg
_reconstructor
p1
(c__main__
KBproperty
p2
c__builtin__
object
p3
NtRp4
(dp5
S'comment'
p6
S''
sS'domain'
p7
S'Year In Spaceflight '
p8
sS'instances_count'
p9
S'48'
p10
sS'label'
p11
S'country with first satellite'
p12
sS'range'
p13
S'Country '
p14
sS'prop_uri'
p15
S"'http://dbpedia.org/ontology/countryWithFirstSatellite'"
p16
sS'annotations'
p17
(dp18
S'bag_of_words'
p19
(lp20
S'Year'
p21
aS'In'
p22
aS'Spaceflight'
p23
aS'country'
p24
aS'with'
p25
aS'first'
p26
aS'satellite'
p27
aS'Country'
p28
asS'chunk_seq'
p29
(lp30
S'S-NP'
p31
aS'S-PP'
p32
aS'B-NP'
p33
aS'E-NP'
p34
aS'S-PP'
p35
aS'B-NP'
p36
aS'I-NP'
p37
aS'E-NP'
p38
asS'dep_seq'
p39
(lp40
(lp41
S'root'
p42
aS'0'
aS'1'
aa(lp43
S'nn'
p44
aS'4'
aS'3'
aa(lp45
S'prep_in'
p46
aS'1'
aS'4'
aa(lp47
S'amod'
p48
aS'8'
aS'6'
aa(lp49
S'nn'
p50
aS'8'
aS'7'
aa(lp51
S'prep_with'
p52
aS'1'
aS'8'
aasS'srls'
p53
(lp54
sS'pos_seq'
p55
(lp56
S'NN'
p57
aS'IN'
p58
aS'NNP'
p59
aS'NN'
p60
aS'IN'
p61
aS'JJ'
p62
aS'NN'
p63
aS'NN'
p64
asS'ner_seq'
p65
(lp66
S'O'
aS'O'
aS'O'
aS'O'
aS'O'
aS'O'
aS'O'
aS'S-MISC'
p67
assb.