ccopy_reg
_reconstructor
p1
(c__main__
KBproperty
p2
c__builtin__
object
p3
NtRp4
(dp5
S'comment'
p6
S''
sS'domain'
p7
S'Populated Place '
p8
sS'instances_count'
p9
S'0'
sS'label'
p10
S'human development index HDI category'
p11
sS'range'
p12
S''
sS'prop_uri'
p13
S"'http://dbpedia.org/ontology/humanDevelopmentIndexRankingCategory'"
p14
sS'annotations'
p15
(dp16
S'bag_of_words'
p17
(lp18
S'Populated'
p19
aS'Place'
p20
aS'human'
p21
aS'development'
p22
aS'index'
p23
aS'HDI'
p24
aS'category'
p25
asS'chunk_seq'
p26
(lp27
S'B-NP'
p28
aS'I-NP'
p29
aS'I-NP'
p30
aS'I-NP'
p31
aS'I-NP'
p32
aS'I-NP'
p33
aS'E-NP'
p34
asS'dep_seq'
p35
(lp36
(lp37
S'amod'
p38
aS'4'
aS'1'
aa(lp39
S'nn'
p40
aS'4'
aS'2'
aa(lp41
S'amod'
p42
aS'4'
aS'3'
aa(lp43
S'root'
p44
aS'0'
aS'4'
aa(lp45
S'nn'
p46
aS'7'
aS'5'
aa(lp47
S'nn'
p48
aS'7'
aS'6'
aa(lp49
S'dep'
p50
aS'4'
aS'7'
aasS'srls'
p51
(lp52
sS'pos_seq'
p53
(lp54
S'VBN'
p55
aS'NNP'
p56
aS'JJ'
p57
aS'NN'
p58
aS'NN'
p59
aS'NNP'
p60
aS'NN'
p61
asS'ner_seq'
p62
(lp63
S'O'
aS'O'
aS'O'
aS'O'
aS'O'
aS'S-MISC'
p64
aS'O'
assb.