ccopy_reg
_reconstructor
p1
(c__main__
KBproperty
p2
c__builtin__
object
p3
NtRp4
(dp5
S'comment'
p6
S''
sS'domain'
p7
S'Saint '
p8
sS'instances_count'
p9
S'611'
p10
sS'label'
p11
S'canonized by'
p12
sS'range'
p13
S'Person '
p14
sS'prop_uri'
p15
S"'http://dbpedia.org/ontology/canonizedBy'"
p16
sS'annotations'
p17
(dp18
S'bag_of_words'
p19
(lp20
S'Saint'
p21
aS'canonized'
p22
aS'by'
p23
aS'Person'
p24
asS'chunk_seq'
p25
(lp26
S'S-NP'
p27
aS'S-VP'
p28
aS'S-PP'
p29
aS'S-NP'
p30
asS'dep_seq'
p31
(lp32
(lp33
S'root'
p34
aS'0'
aS'1'
aa(lp35
S'partmod'
p36
aS'1'
aS'2'
aa(lp37
S'agent'
p38
aS'2'
aS'4'
aasS'srls'
p39
(lp40
(dp41
S'A1'
p42
g21
sS'A0'
p43
S'by Person'
p44
sS'V'
g22
sasS'pos_seq'
p45
(lp46
S'NN'
p47
aS'VBN'
p48
aS'IN'
p49
aS'NN'
p50
asS'ner_seq'
p51
(lp52
S'O'
aS'O'
aS'O'
aS'O'
assb.