ccopy_reg
_reconstructor
p1
(c__main__
KBproperty
p2
c__builtin__
object
p3
NtRp4
(dp5
S'comment'
p6
S'The total budget of the research project.'
p7
sS'domain'
p8
S'Research Project '
p9
sS'instances_count'
p10
S'10'
p11
sS'label'
p12
S'project budget total $'
p13
sS'range'
p14
S'double '
p15
sS'prop_uri'
p16
S"'http://dbpedia.org/ontology/projectBudgetTotal'"
p17
sS'annotations'
p18
(dp19
S'bag_of_words'
p20
(lp21
S'Research'
p22
aS'Project'
p23
aS'project'
p24
aS'budget'
p25
aS'total'
p26
aS'$'
aS'double'
p27
aS'The'
p28
aS'total'
p29
aS'budget'
p30
aS'of'
p31
aS'the'
p32
aS'research'
p33
aS'project'
p34
aS'.'
asS'chunk_seq'
p35
(lp36
S'B-NP'
p37
aS'I-NP'
p38
aS'I-NP'
p39
aS'I-NP'
p40
aS'I-NP'
p41
aS'I-NP'
p42
aS'I-NP'
p43
aS'I-NP'
p44
aS'I-NP'
p45
aS'E-NP'
p46
aS'S-PP'
p47
aS'B-NP'
p48
aS'I-NP'
p49
aS'E-NP'
p50
aS'O'
asS'dep_seq'
p51
(lp52
(lp53
S'nn'
p54
aS'4'
aS'1'
aa(lp55
S'nn'
p56
aS'4'
aS'2'
aa(lp57
S'nn'
p58
aS'4'
aS'3'
aa(lp59
S'root'
p60
aS'0'
aS'4'
aa(lp61
S'dep'
p62
aS'4'
aS'5'
aa(lp63
S'dep'
p64
aS'5'
aS'6'
aa(lp65
S'dep'
p66
aS'6'
aS'7'
aa(lp67
S'det'
p68
aS'10'
p69
aS'8'
aa(lp70
S'amod'
p71
aS'10'
p72
aS'9'
aa(lp73
S'dep'
p74
aS'5'
aS'10'
p75
aa(lp76
S'det'
p77
aS'14'
p78
aS'12'
p79
aa(lp80
S'nn'
p81
aS'14'
p82
aS'13'
p83
aa(lp84
S'prep_of'
p85
aS'10'
p86
aS'14'
p87
aasS'srls'
p88
(lp89
sS'pos_seq'
p90
(lp91
S'NNP'
p92
aS'NNP'
p93
aS'NN'
p94
aS'NN'
p95
aS'JJ'
p96
aS'$'
aS'JJ'
p97
aS'DT'
p98
aS'JJ'
p99
aS'NN'
p100
aS'IN'
p101
aS'DT'
p102
aS'NN'
p103
aS'NN'
p104
aS'.'
asS'ner_seq'
p105
(lp106
S'O'
aS'O'
aS'O'
aS'O'
aS'O'
aS'O'
aS'O'
aS'O'
aS'O'
aS'O'
aS'O'
aS'O'
aS'O'
aS'O'
aS'O'
assb.