ccopy_reg
_reconstructor
p1
(c__main__
KBproperty
p2
c__builtin__
object
p3
NtRp4
(dp5
S'comment'
p6
S'The places and time where the play takes place.'
p7
sS'domain'
p8
S'Play '
p9
sS'instances_count'
p10
S'1169'
p11
sS'label'
p12
S'setting of play'
p13
sS'range'
p14
S'string '
p15
sS'prop_uri'
p16
S"'http://dbpedia.org/ontology/settingOfPlay'"
p17
sS'annotations'
p18
(dp19
S'bag_of_words'
p20
(lp21
S'Play'
p22
aS'setting'
p23
aS'of'
p24
aS'play'
p25
aS'string'
p26
aS'The'
p27
aS'places'
p28
aS'and'
p29
aS'time'
p30
aS'where'
p31
aS'the'
p32
aS'play'
p33
aS'takes'
p34
aS'place.'
p35
asS'chunk_seq'
p36
(lp37
S'B-NP'
p38
aS'E-NP'
p39
aS'S-PP'
p40
aS'B-NP'
p41
aS'E-NP'
p42
aS'B-NP'
p43
aS'I-NP'
p44
aS'I-NP'
p45
aS'E-NP'
p46
aS'S-ADVP'
p47
aS'B-NP'
p48
aS'E-NP'
p49
aS'S-VP'
p50
aS'O'
asS'dep_seq'
p51
(lp52
(lp53
S'nn'
p54
aS'2'
aS'1'
aa(lp55
S'dep'
p56
aS'14'
p57
aS'2'
aa(lp58
S'dep'
p59
aS'14'
p60
aS'3'
aa(lp61
S'nn'
p62
aS'5'
aS'4'
aa(lp63
S'pobj'
p64
aS'3'
aS'5'
aa(lp65
S'det'
p66
aS'7'
aS'6'
aa(lp67
S'dep'
p68
aS'14'
p69
aS'7'
aa(lp70
S'conj_and'
p71
aS'7'
aS'9'
aa(lp72
S'advmod'
p73
aS'14'
p74
aS'10'
p75
aa(lp76
S'det'
p77
aS'12'
p78
aS'11'
p79
aa(lp80
S'dep'
p81
aS'14'
p82
aS'12'
p83
aa(lp84
S'dep'
p85
aS'14'
p86
aS'13'
p87
aa(lp88
S'root'
p89
aS'0'
aS'14'
p90
aasS'srls'
p91
(lp92
(dp93
S'A1'
p94
g35
sS'A0'
p95
S'the play'
p96
sS'V'
g34
sasS'pos_seq'
p97
(lp98
S'NN'
p99
aS'NN'
p100
aS'IN'
p101
aS'NN'
p102
aS'NN'
p103
aS'DT'
p104
aS'NNS'
p105
aS'CC'
p106
aS'NN'
p107
aS'WRB'
p108
aS'DT'
p109
aS'NN'
p110
aS'VBZ'
p111
aS'.'
asS'ner_seq'
p112
(lp113
S'O'
aS'O'
aS'O'
aS'O'
aS'O'
aS'O'
aS'O'
aS'O'
aS'O'
aS'O'
aS'O'
aS'O'
aS'O'
aS'O'
assb.