ccopy_reg
_reconstructor
p1
(c__main__
KBproperty
p2
c__builtin__
object
p3
NtRp4
(dp5
S'comment'
p6
S'is used to denote splitting of a Wikidata IRI to one or more IRIs'
p7
sS'domain'
p8
S''
sS'instances_count'
p9
S'0'
sS'label'
p10
S'Wikidata IRI slit'
p11
sS'range'
p12
S''
sS'prop_uri'
p13
S"'http://dbpedia.org/ontology/wikidataSplitIri'"
p14
sS'annotations'
p15
(dp16
S'bag_of_words'
p17
(lp18
S'Wikidata'
p19
aS'IRI'
p20
aS'slit'
p21
aS'is'
p22
aS'used'
p23
aS'to'
p24
aS'denote'
p25
aS'splitting'
p26
aS'of'
p27
aS'a'
aS'Wikidata'
p28
aS'IRI'
p29
aS'to'
p30
aS'one'
p31
aS'or'
p32
aS'more'
p33
aS'IRIs'
p34
asS'chunk_seq'
p35
(lp36
S'B-NP'
p37
aS'E-NP'
p38
aS'S-VP'
p39
aS'B-VP'
p40
aS'E-VP'
p41
aS'B-VP'
p42
aS'E-VP'
p43
aS'S-NP'
p44
aS'S-PP'
p45
aS'B-NP'
p46
aS'I-NP'
p47
aS'E-NP'
p48
aS'S-PP'
p49
aS'S-NP'
p50
aS'O'
aS'B-NP'
p51
aS'E-NP'
p52
asS'dep_seq'
p53
(lp54
(lp55
S'nn'
p56
aS'3'
aS'1'
aa(lp57
S'nn'
p58
aS'3'
aS'2'
aa(lp59
S'nsubjpass'
p60
aS'5'
aS'3'
aa(lp61
S'xsubj'
p62
aS'7'
aS'3'
aa(lp63
S'auxpass'
p64
aS'5'
aS'4'
aa(lp65
S'root'
p66
aS'0'
aS'5'
aa(lp67
S'aux'
p68
aS'7'
aS'6'
aa(lp69
S'xcomp'
p70
aS'5'
aS'7'
aa(lp71
S'dobj'
p72
aS'7'
aS'8'
aa(lp73
S'det'
p74
aS'12'
p75
aS'10'
p76
aa(lp77
S'nn'
p78
aS'12'
p79
aS'11'
p80
aa(lp81
S'prep_of'
p82
aS'8'
aS'12'
p83
aa(lp84
S'num'
p85
aS'17'
p86
aS'14'
p87
aa(lp88
S'conj_or'
p89
aS'14'
p90
aS'16'
p91
aa(lp92
S'prep_to'
p93
aS'7'
aS'17'
p94
aasS'srls'
p95
(lp96
(dp97
S'A1'
p98
S'Wikidata IRI slit'
p99
sS'A2'
p100
S'to denote splitting of a Wikidata IRI to one or more IRIs'
p101
sS'V'
g23
sa(dp102
S'A1'
p103
S'splitting of a Wikidata IRI'
p104
sS'A0'
p105
S'Wikidata IRI slit'
p106
sS'A2'
p107
S'to one or more IRIs'
p108
sS'V'
g25
sasS'pos_seq'
p109
(lp110
S'NNP'
p111
aS'NNP'
p112
aS'NN'
p113
aS'VBZ'
p114
aS'VBN'
p115
aS'TO'
p116
aS'VB'
p117
aS'NN'
p118
aS'IN'
p119
aS'DT'
p120
aS'NNP'
p121
aS'NNP'
p122
aS'TO'
p123
aS'CD'
p124
aS'CC'
p125
aS'JJR'
p126
aS'NNP'
p127
asS'ner_seq'
p128
(lp129
S'B-ORG'
p130
aS'E-ORG'
p131
aS'O'
aS'O'
aS'O'
aS'O'
aS'O'
aS'O'
aS'O'
aS'O'
aS'B-ORG'
p132
aS'E-ORG'
p133
aS'O'
aS'O'
aS'O'
aS'O'
aS'S-PER'
p134
assb.