ccopy_reg
_reconstructor
p1
(c__main__
KBproperty
p2
c__builtin__
object
p3
NtRp4
(dp5
S'comment'
p6
S'Designates the unveiling date'
p7
sS'domain'
p8
S'Monument '
p9
sS'instances_count'
p10
S'0'
sS'label'
p11
S'date unveiled'
p12
sS'range'
p13
S'date '
p14
sS'prop_uri'
p15
S"'http://dbpedia.org/ontology/dateUnveiled'"
p16
sS'annotations'
p17
(dp18
S'bag_of_words'
p19
(lp20
S'Monument'
p21
aS'date'
p22
aS'unveiled'
p23
aS'date'
p24
aS'Designates'
p25
aS'the'
p26
aS'unveiling'
p27
aS'date'
p28
asS'chunk_seq'
p29
(lp30
S'B-NP'
p31
aS'E-NP'
p32
aS'S-VP'
p33
aS'S-NP'
p34
aS'S-VP'
p35
aS'B-NP'
p36
aS'I-NP'
p37
aS'E-NP'
p38
asS'dep_seq'
p39
(lp40
(lp41
S'nn'
p42
aS'2'
aS'1'
aa(lp43
S'root'
p44
aS'0'
aS'2'
aa(lp45
S'partmod'
p46
aS'2'
aS'3'
aa(lp47
S'dobj'
p48
aS'3'
aS'4'
aa(lp49
S'dep'
p50
aS'2'
aS'5'
aa(lp51
S'det'
p52
aS'8'
aS'6'
aa(lp53
S'nn'
p54
aS'8'
aS'7'
aa(lp55
S'dobj'
p56
aS'5'
aS'8'
aasS'srls'
p57
(lp58
(dp59
S'A1'
p60
S'Monument date  date Designates the unveiling date'
p61
sS'V'
g23
sa(dp62
S'A1'
p63
S'the unveiling date'
p64
sS'A0'
p65
S'Monument date unveiled date'
p66
sS'V'
g25
sasS'pos_seq'
p67
(lp68
S'NN'
p69
aS'NN'
p70
aS'VBN'
p71
aS'NN'
p72
aS'VBZ'
p73
aS'DT'
p74
aS'NN'
p75
aS'NN'
p76
asS'ner_seq'
p77
(lp78
S'O'
aS'O'
aS'O'
aS'O'
aS'O'
aS'O'
aS'O'
aS'O'
assb.