ccopy_reg
_reconstructor
p1
(c__main__
KBproperty
p2
c__builtin__
object
p3
NtRp4
(dp5
S'comment'
p6
S''
sS'domain'
p7
S'Olympic Result '
p8
sS'instances_count'
p9
S'591'
p10
sS'label'
p11
S'rank in final medal count'
p12
sS'range'
p13
S'positive Integer '
p14
sS'prop_uri'
p15
S"'http://dbpedia.org/ontology/rankInFinalMedalCount'"
p16
sS'annotations'
p17
(dp18
S'bag_of_words'
p19
(lp20
S'Olympic'
p21
aS'Result'
p22
aS'rank'
p23
aS'in'
p24
aS'final'
p25
aS'medal'
p26
aS'count'
p27
aS'positive'
p28
aS'Integer'
p29
asS'chunk_seq'
p30
(lp31
S'B-NP'
p32
aS'I-NP'
p33
aS'E-NP'
p34
aS'S-PP'
p35
aS'B-NP'
p36
aS'E-NP'
p37
aS'S-VP'
p38
aS'B-NP'
p39
aS'E-NP'
p40
asS'dep_seq'
p41
(lp42
(lp43
S'nn'
p44
aS'3'
aS'1'
aa(lp45
S'nn'
p46
aS'3'
aS'2'
aa(lp47
S'nsubj'
p48
aS'7'
aS'3'
aa(lp49
S'amod'
p50
aS'6'
aS'5'
aa(lp51
S'prep_in'
p52
aS'3'
aS'6'
aa(lp53
S'root'
p54
aS'0'
aS'7'
aa(lp55
S'amod'
p56
aS'9'
aS'8'
aa(lp57
S'dobj'
p58
aS'7'
aS'9'
aasS'srls'
p59
(lp60
(dp61
S'A1'
p62
S'positive Integer'
p63
sS'A0'
p64
S'Olympic Result rank in final medal'
p65
sS'V'
g27
sasS'pos_seq'
p66
(lp67
S'NNP'
p68
aS'NNP'
p69
aS'NN'
p70
aS'IN'
p71
aS'JJ'
p72
aS'NN'
p73
aS'VB'
p74
aS'JJ'
p75
aS'NNP'
p76
asS'ner_seq'
p77
(lp78
S'S-MISC'
p79
aS'O'
aS'O'
aS'O'
aS'O'
aS'O'
aS'O'
aS'O'
aS'O'
assb.