ccopy_reg
_reconstructor
p1
(c__main__
KBproperty
p2
c__builtin__
object
p3
NtRp4
(dp5
S'comment'
p6
S'International Nonproprietary Name given to a pharmaceutical substance'
p7
sS'domain'
p8
S'Chemical Compound '
p9
sS'instances_count'
p10
S'0'
sS'label'
p11
S'INN'
p12
sS'range'
p13
S'string '
p14
sS'prop_uri'
p15
S"'http://dbpedia.org/ontology/inn'"
p16
sS'annotations'
p17
(dp18
S'bag_of_words'
p19
(lp20
S'Chemical'
p21
aS'Compound'
p22
aS'INN'
p23
aS'string'
p24
aS'International'
p25
aS'Nonproprietary'
p26
aS'Name'
p27
aS'given'
p28
aS'to'
p29
aS'a'
aS'pharmaceutical'
p30
aS'substance'
p31
asS'chunk_seq'
p32
(lp33
S'B-NP'
p34
aS'I-NP'
p35
aS'I-NP'
p36
aS'I-NP'
p37
aS'I-NP'
p38
aS'I-NP'
p39
aS'E-NP'
p40
aS'S-PP'
p41
aS'S-PP'
p42
aS'B-NP'
p43
aS'I-NP'
p44
aS'E-NP'
p45
asS'dep_seq'
p46
(lp47
(lp48
S'nn'
p49
aS'7'
aS'1'
aa(lp50
S'nn'
p51
aS'7'
aS'2'
aa(lp52
S'nn'
p53
aS'7'
aS'3'
aa(lp54
S'nn'
p55
aS'7'
aS'4'
aa(lp56
S'nn'
p57
aS'7'
aS'5'
aa(lp58
S'nn'
p59
aS'7'
aS'6'
aa(lp60
S'root'
p61
aS'0'
aS'7'
aa(lp62
S'partmod'
p63
aS'7'
aS'8'
aa(lp64
S'det'
p65
aS'12'
p66
aS'10'
p67
aa(lp68
S'amod'
p69
aS'12'
p70
aS'11'
p71
aa(lp72
S'prep_to'
p73
aS'8'
aS'12'
p74
aasS'srls'
p75
(lp76
(dp77
S'A0'
p78
S'Chemical Compound INN string International Nonproprietary Name'
p79
sS'A2'
p80
S'to a pharmaceutical substance'
p81
sS'V'
g28
sasS'pos_seq'
p82
(lp83
S'NNP'
p84
aS'NNP'
p85
aS'NNP'
p86
aS'NN'
p87
aS'NNP'
p88
aS'NNP'
p89
aS'NNP'
p90
aS'VBN'
p91
aS'TO'
p92
aS'DT'
p93
aS'JJ'
p94
aS'NN'
p95
asS'ner_seq'
p96
(lp97
S'B-MISC'
p98
aS'I-MISC'
p99
aS'I-MISC'
p100
aS'I-MISC'
p101
aS'I-MISC'
p102
aS'I-MISC'
p103
aS'E-MISC'
p104
aS'O'
aS'O'
aS'O'
aS'O'
aS'O'
assb.