ccopy_reg
_reconstructor
p1
(c__main__
KBproperty
p2
c__builtin__
object
p3
NtRp4
(dp5
S'comment'
p6
S'A map of the place.'
p7
sS'domain'
p8
S'Place '
p9
sS'instances_count'
p10
S'114'
p11
sS'label'
p12
S'map'
p13
sS'range'
p14
S''
sS'prop_uri'
p15
S"'http://dbpedia.org/ontology/map'"
p16
sS'annotations'
p17
(dp18
S'bag_of_words'
p19
(lp20
S'Place'
p21
aS'map'
p22
aS'A'
aS'map'
p23
aS'of'
p24
aS'the'
p25
aS'place.'
p26
asS'chunk_seq'
p27
(lp28
S'B-NP'
p29
aS'E-NP'
p30
aS'B-NP'
p31
aS'E-NP'
p32
aS'S-PP'
p33
aS'B-NP'
p34
aS'E-NP'
p35
asS'dep_seq'
p36
(lp37
(lp38
S'nn'
p39
aS'2'
aS'1'
aa(lp40
S'root'
p41
aS'0'
aS'2'
aa(lp42
S'det'
p43
aS'4'
aS'3'
aa(lp44
S'dep'
p45
aS'2'
aS'4'
aa(lp46
S'det'
p47
aS'7'
aS'6'
aa(lp48
S'prep_of'
p49
aS'4'
aS'7'
aasS'srls'
p50
(lp51
sS'pos_seq'
p52
(lp53
S'NN'
p54
aS'NN'
p55
aS'DT'
p56
aS'NN'
p57
aS'IN'
p58
aS'DT'
p59
aS'NN'
p60
asS'ner_seq'
p61
(lp62
S'O'
aS'O'
aS'O'
aS'O'
aS'O'
aS'O'
aS'O'
assb.