ccopy_reg
_reconstructor
p1
(c__main__
KBproperty
p2
c__builtin__
object
p3
NtRp4
(dp5
S'comment'
p6
S'Building end date of an ArchitecturalStructure man-made Lake etc. For older structures this can be just a year or century for newer structures an exact date is preferred'
p7
sS'domain'
p8
S''
sS'instances_count'
p9
S'15867'
p10
sS'label'
p11
S'building end date'
p12
sS'range'
p13
S'string '
p14
sS'prop_uri'
p15
S"'http://dbpedia.org/ontology/buildingEndDate'"
p16
sS'annotations'
p17
(dp18
S'bag_of_words'
p19
(lp20
S'building'
p21
aS'end'
p22
aS'date'
p23
aS'string'
p24
aS'Building'
p25
aS'end'
p26
aS'date'
p27
aS'of'
p28
aS'an'
p29
aS'ArchitecturalStructure'
p30
aS'man-made'
p31
aS'Lake'
p32
aS'etc.'
p33
aS'For'
p34
aS'older'
p35
aS'structures'
p36
aS'this'
p37
aS'can'
p38
aS'be'
p39
aS'just'
p40
aS'a'
aS'year'
p41
aS'or'
p42
aS'century'
p43
aS'for'
p44
aS'newer'
p45
aS'structures'
p46
aS'an'
p47
aS'exact'
p48
aS'date'
p49
aS'is'
p50
aS'preferred'
p51
asS'chunk_seq'
p52
(lp53
S'S-VP'
p54
aS'B-NP'
p55
aS'I-NP'
p56
aS'I-NP'
p57
aS'I-NP'
p58
aS'I-NP'
p59
aS'E-NP'
p60
aS'S-PP'
p61
aS'B-NP'
p62
aS'I-NP'
p63
aS'I-NP'
p64
aS'I-NP'
p65
aS'E-NP'
p66
aS'S-PP'
p67
aS'B-NP'
p68
aS'E-NP'
p69
aS'S-NP'
p70
aS'B-VP'
p71
aS'E-VP'
p72
aS'B-NP'
p73
aS'I-NP'
p74
aS'I-NP'
p75
aS'I-NP'
p76
aS'E-NP'
p77
aS'S-PP'
p78
aS'B-NP'
p79
aS'E-NP'
p80
aS'B-NP'
p81
aS'I-NP'
p82
aS'E-NP'
p83
aS'B-VP'
p84
aS'E-VP'
p85
asS'dep_seq'
p86
(lp87
(lp88
S'root'
p89
aS'0'
aS'1'
aa(lp90
S'nn'
p91
aS'7'
aS'2'
aa(lp92
S'nn'
p93
aS'7'
aS'3'
aa(lp94
S'nn'
p95
aS'7'
aS'4'
aa(lp96
S'nn'
p97
aS'7'
aS'5'
aa(lp98
S'nn'
p99
aS'7'
aS'6'
aa(lp100
S'dobj'
p101
aS'1'
aS'7'
aa(lp102
S'det'
p103
aS'12'
p104
aS'9'
aa(lp105
S'amod'
p106
aS'made'
p107
aS'10'
p108
aa(lp109
S'amod'
p110
aS'12'
p111
aS'made'
p112
aa(lp113
S'nn'
p114
aS'13'
p115
aS'12'
p116
aa(lp117
S'prep_of'
p118
aS'7'
aS'13'
p119
aa(lp120
S'amod'
p121
aS'16'
p122
aS'15'
p123
aa(lp124
S'prep_for'
p125
aS'13'
p126
aS'16'
p127
aa(lp128
S'nsubj'
p129
aS'22'
p130
aS'17'
p131
aa(lp132
S'aux'
p133
aS'22'
p134
aS'18'
p135
aa(lp136
S'cop'
p137
aS'22'
p138
aS'19'
p139
aa(lp140
S'advmod'
p141
aS'22'
p142
aS'20'
p143
aa(lp144
S'det'
p145
aS'22'
p146
aS'21'
p147
aa(lp148
S'rcmod'
p149
aS'12'
p150
aS'22'
p151
aa(lp152
S'ccomp'
p153
aS'13'
p154
aS'22'
p155
aa(lp156
S'conj_or'
p157
aS'22'
p158
aS'24'
p159
aa(lp160
S'amod'
p161
aS'27'
p162
aS'26'
p163
aa(lp164
S'prep_for'
p165
aS'22'
p166
aS'27'
p167
aa(lp168
S'det'
p169
aS'30'
p170
aS'28'
p171
aa(lp172
S'amod'
p173
aS'30'
p174
aS'29'
p175
aa(lp176
S'nsubjpass'
p177
aS'32'
p178
aS'30'
p179
aa(lp180
S'auxpass'
p181
aS'32'
p182
aS'31'
p183
aa(lp184
S'rcmod'
p185
aS'27'
p186
aS'32'
p187
aasS'srls'
p188
(lp189
sS'pos_seq'
p190
(lp191
S'VBG'
p192
aS'NN'
p193
aS'NN'
p194
aS'NN'
p195
aS'NN'
p196
aS'NN'
p197
aS'NN'
p198
aS'IN'
p199
aS'DT'
p200
aS'NNP'
p201
aS'JJ'
p202
aS'NNP'
p203
aS'NN'
p204
aS'IN'
p205
aS'JJR'
p206
aS'NNS'
p207
aS'DT'
p208
aS'MD'
p209
aS'VB'
p210
aS'RB'
p211
aS'DT'
p212
aS'NN'
p213
aS'CC'
p214
aS'NN'
p215
aS'IN'
p216
aS'JJR'
p217
aS'NNS'
p218
aS'DT'
p219
aS'JJ'
p220
aS'NN'
p221
aS'VBZ'
p222
aS'VBN'
p223
asS'ner_seq'
p224
(lp225
S'O'
aS'O'
aS'O'
aS'O'
aS'O'
aS'O'
aS'O'
aS'O'
aS'O'
aS'B-LOC'
p226
aS'I-LOC'
p227
aS'E-LOC'
p228
aS'O'
aS'O'
aS'O'
aS'O'
aS'O'
aS'O'
aS'O'
aS'O'
aS'O'
aS'O'
aS'O'
aS'O'
aS'O'
aS'O'
aS'O'
aS'O'
aS'O'
aS'O'
aS'O'
aS'O'
assb.