ccopy_reg
_reconstructor
p1
(c__main__
KBproperty
p2
c__builtin__
object
p3
NtRp4
(dp5
S'comment'
p6
S''
sS'domain'
p7
S'Populated Place '
p8
sS'instances_count'
p9
S'0'
sS'label'
p10
S'gini coefficient as of'
p11
sS'range'
p12
S'date '
p13
sS'prop_uri'
p14
S"'http://dbpedia.org/ontology/giniCoefficientAsOf'"
p15
sS'annotations'
p16
(dp17
S'bag_of_words'
p18
(lp19
S'Populated'
p20
aS'Place'
p21
aS'gini'
p22
aS'coefficient'
p23
aS'as'
p24
aS'of'
p25
aS'date'
p26
asS'chunk_seq'
p27
(lp28
S'B-NP'
p29
aS'I-NP'
p30
aS'I-NP'
p31
aS'E-NP'
p32
aS'S-PP'
p33
aS'S-PP'
p34
aS'S-NP'
p35
asS'dep_seq'
p36
(lp37
(lp38
S'amod'
p39
aS'4'
aS'1'
aa(lp40
S'nn'
p41
aS'4'
aS'2'
aa(lp42
S'nn'
p43
aS'4'
aS'3'
aa(lp44
S'root'
p45
aS'0'
aS'4'
aa(lp46
S'prepc_as_of'
p47
aS'4'
aS'6'
aa(lp48
S'pobj'
p49
aS'4'
aS'7'
aasS'srls'
p50
(lp51
sS'pos_seq'
p52
(lp53
S'JJ'
p54
aS'NN'
p55
aS'NN'
p56
aS'NN'
p57
aS'IN'
p58
aS'IN'
p59
aS'NN'
p60
asS'ner_seq'
p61
(lp62
S'O'
aS'O'
aS'O'
aS'O'
aS'O'
aS'O'
aS'O'
assb.