ccopy_reg
_reconstructor
p1
(c__main__
KBproperty
p2
c__builtin__
object
p3
NtRp4
(dp5
S'comment'
p6
S''
sS'domain'
p7
S'Athlete '
p8
sS'instances_count'
p9
S'0'
sS'label'
p10
S'final lost team'
p11
sS'range'
p12
S'string '
p13
sS'prop_uri'
p14
S"'http://dbpedia.org/ontology/finalLostTeam'"
p15
sS'annotations'
p16
(dp17
S'bag_of_words'
p18
(lp19
S'Athlete'
p20
aS'final'
p21
aS'lost'
p22
aS'team'
p23
aS'string'
p24
asS'chunk_seq'
p25
(lp26
S'B-NP'
p27
aS'I-NP'
p28
aS'I-NP'
p29
aS'I-NP'
p30
aS'E-NP'
p31
asS'dep_seq'
p32
(lp33
(lp34
S'nn'
p35
aS'5'
aS'1'
aa(lp36
S'amod'
p37
aS'5'
aS'2'
aa(lp38
S'amod'
p39
aS'5'
aS'3'
aa(lp40
S'nn'
p41
aS'5'
aS'4'
aa(lp42
S'root'
p43
aS'0'
aS'5'
aasS'srls'
p44
(lp45
(dp46
S'A1'
p47
S'team string'
p48
sS'A0'
p49
S'Athlete final'
p50
sS'V'
g22
sasS'pos_seq'
p51
(lp52
S'NN'
p53
aS'JJ'
p54
aS'VBN'
p55
aS'NN'
p56
aS'NN'
p57
asS'ner_seq'
p58
(lp59
S'O'
aS'O'
aS'O'
aS'O'
aS'O'
assb.