ccopy_reg
_reconstructor
p1
(c__main__
KBproperty
p2
c__builtin__
object
p3
NtRp4
(dp5
S'comment'
p6
S''
sS'domain'
p7
S''
sS'instances_count'
p8
S'3'
sS'label'
p9
S'r7-surface'
p10
sS'range'
p11
S''
sS'prop_uri'
p12
S"'http://dbpedia.org/property/r7Surface'"
p13
sS'annotations'
p14
(dp15
S'bag_of_words'
p16
(lp17
S'r7'
p18
aS'-'
aS'surface'
p19
asS'chunk_seq'
p20
(lp21
S'S-NP'
p22
aS'O'
aS'O'
asS'dep_seq'
p23
(lp24
(lp25
S'root'
p26
aS'0'
aS'1'
aa(lp27
S'dep'
p28
aS'1'
aS'3'
aasS'srls'
p29
(lp30
sS'pos_seq'
p31
(lp32
S'SYM'
p33
aS':'
aS'NN'
p34
asS'ner_seq'
p35
(lp36
S'O'
aS'O'
aS'O'
assb.