ccopy_reg
_reconstructor
p1
(c__main__
KBproperty
p2
c__builtin__
object
p3
NtRp4
(dp5
S'comment'
p6
S''
sS'domain'
p7
S''
sS'instances_count'
p8
S'386'
p9
sS'label'
p10
S'Vice-Chancellor'
p11
sS'range'
p12
S''
sS'prop_uri'
p13
S"'http://dbpedia.org/property/viceChancellor'"
p14
sS'annotations'
p15
(dp16
S'bag_of_words'
p17
(lp18
S'Vice-Chancellor'
p19
asS'chunk_seq'
p20
(lp21
S'S-NP'
p22
asS'dep_seq'
p23
(lp24
(lp25
S'root'
p26
aS'0'
aS'Chancellor'
p27
aasS'srls'
p28
(lp29
sS'pos_seq'
p30
(lp31
S'NNP'
p32
asS'ner_seq'
p33
(lp34
S'S-ORG'
p35
assb.