ccopy_reg
_reconstructor
p1
(c__main__
KBproperty
p2
c__builtin__
object
p3
NtRp4
(dp5
S'comment'
p6
S'describes in what way this site is accessible for public'
p7
sS'domain'
p8
S''
sS'instances_count'
p9
S'389'
p10
sS'label'
p11
S'publicly accessible'
p12
sS'range'
p13
S'string '
p14
sS'prop_uri'
p15
S"'http://dbpedia.org/ontology/publiclyAccessible'"
p16
sS'annotations'
p17
(dp18
S'bag_of_words'
p19
(lp20
S'publicly'
p21
aS'accessible'
p22
aS'string'
p23
aS'describes'
p24
aS'in'
p25
aS'what'
p26
aS'way'
p27
aS'this'
p28
aS'site'
p29
aS'is'
p30
aS'accessible'
p31
aS'for'
p32
aS'public'
p33
asS'chunk_seq'
p34
(lp35
S'B-NP'
p36
aS'I-NP'
p37
aS'E-NP'
p38
aS'S-VP'
p39
aS'S-PP'
p40
aS'B-NP'
p41
aS'E-NP'
p42
aS'B-NP'
p43
aS'E-NP'
p44
aS'S-VP'
p45
aS'S-ADJP'
p46
aS'S-PP'
p47
aS'S-NP'
p48
asS'dep_seq'
p49
(lp50
(lp51
S'advmod'
p52
aS'2'
aS'1'
aa(lp53
S'amod'
p54
aS'3'
aS'2'
aa(lp55
S'nsubj'
p56
aS'4'
aS'3'
aa(lp57
S'root'
p58
aS'0'
aS'4'
aa(lp59
S'det'
p60
aS'7'
aS'6'
aa(lp61
S'prep_in'
p62
aS'11'
p63
aS'7'
aa(lp64
S'det'
p65
aS'9'
aS'8'
aa(lp66
S'nsubj'
p67
aS'11'
p68
aS'9'
aa(lp69
S'cop'
p70
aS'11'
p71
aS'10'
p72
aa(lp73
S'ccomp'
p74
aS'4'
aS'11'
p75
aa(lp76
S'prep_for'
p77
aS'11'
p78
aS'13'
p79
aasS'srls'
p80
(lp81
(dp82
S'A0'
p83
S'publicly accessible string'
p84
sS'A2'
p85
S'in what way this site is accessible for public'
p86
sS'V'
g24
sasS'pos_seq'
p87
(lp88
S'RB'
p89
aS'JJ'
p90
aS'NN'
p91
aS'VBZ'
p92
aS'IN'
p93
aS'WP'
p94
aS'NN'
p95
aS'DT'
p96
aS'NN'
p97
aS'VBZ'
p98
aS'JJ'
p99
aS'IN'
p100
aS'NN'
p101
asS'ner_seq'
p102
(lp103
S'O'
aS'O'
aS'O'
aS'O'
aS'O'
aS'O'
aS'O'
aS'O'
aS'O'
aS'O'
aS'O'
aS'O'
aS'O'
assb.