ccopy_reg
_reconstructor
p1
(c__main__
KBproperty
p2
c__builtin__
object
p3
NtRp4
(dp5
S'comment'
p6
S'Dutch PPN code is a library cataloguing code for collection items books journals and the like.'
p7
sS'domain'
p8
S'Written Work '
p9
sS'instances_count'
p10
S'0'
sS'label'
p11
S'Dutch PPN code'
p12
sS'range'
p13
S'string '
p14
sS'prop_uri'
p15
S"'http://dbpedia.org/ontology/dutchPPNCode'"
p16
sS'annotations'
p17
(dp18
S'bag_of_words'
p19
(lp20
S'Written'
p21
aS'Work'
p22
aS'Dutch'
p23
aS'PPN'
p24
aS'code'
p25
aS'string'
p26
aS'Dutch'
p27
aS'PPN'
p28
aS'code'
p29
aS'is'
p30
aS'a'
aS'library'
p31
aS'cataloguing'
p32
aS'code'
p33
aS'for'
p34
aS'collection'
p35
aS'items'
p36
aS'books'
p37
aS'journals'
p38
aS'and'
p39
aS'the'
p40
aS'like'
p41
aS'.'
asS'chunk_seq'
p42
(lp43
S'B-NP'
p44
aS'I-NP'
p45
aS'I-NP'
p46
aS'I-NP'
p47
aS'I-NP'
p48
aS'I-NP'
p49
aS'I-NP'
p50
aS'I-NP'
p51
aS'E-NP'
p52
aS'S-VP'
p53
aS'B-NP'
p54
aS'I-NP'
p55
aS'I-NP'
p56
aS'E-NP'
p57
aS'S-PP'
p58
aS'B-NP'
p59
aS'I-NP'
p60
aS'I-NP'
p61
aS'E-NP'
p62
aS'O'
aS'B-NP'
p63
aS'E-NP'
p64
aS'O'
asS'dep_seq'
p65
(lp66
(lp67
S'nn'
p68
aS'9'
aS'1'
aa(lp69
S'nn'
p70
aS'9'
aS'2'
aa(lp71
S'nn'
p72
aS'9'
aS'3'
aa(lp73
S'nn'
p74
aS'9'
aS'4'
aa(lp75
S'nn'
p76
aS'9'
aS'5'
aa(lp77
S'nn'
p78
aS'9'
aS'6'
aa(lp79
S'nn'
p80
aS'9'
aS'7'
aa(lp81
S'nn'
p82
aS'9'
aS'8'
aa(lp83
S'nsubj'
p84
aS'14'
p85
aS'9'
aa(lp86
S'cop'
p87
aS'14'
p88
aS'10'
p89
aa(lp90
S'det'
p91
aS'14'
p92
aS'11'
p93
aa(lp94
S'nn'
p95
aS'14'
p96
aS'12'
p97
aa(lp98
S'amod'
p99
aS'14'
p100
aS'13'
p101
aa(lp102
S'root'
p103
aS'0'
aS'14'
p104
aa(lp105
S'nn'
p106
aS'19'
p107
aS'16'
p108
aa(lp109
S'nn'
p110
aS'19'
p111
aS'17'
p112
aa(lp113
S'nn'
p114
aS'19'
p115
aS'18'
p116
aa(lp117
S'prep_for'
p118
aS'14'
p119
aS'19'
p120
aa(lp121
S'det'
p122
aS'22'
p123
aS'21'
p124
aa(lp125
S'conj_and'
p126
aS'19'
p127
aS'22'
p128
aasS'srls'
p129
(lp130
(dp131
S'A1'
p132
g33
sS'A2'
p133
S'for collection items books journals and the like'
p134
sS'V'
g32
sasS'pos_seq'
p135
(lp136
S'NNP'
p137
aS'NNP'
p138
aS'NNP'
p139
aS'NNP'
p140
aS'NN'
p141
aS'NN'
p142
aS'NNP'
p143
aS'NNP'
p144
aS'NN'
p145
aS'VBZ'
p146
aS'DT'
p147
aS'NN'
p148
aS'VBG'
p149
aS'NN'
p150
aS'IN'
p151
aS'NN'
p152
aS'NNS'
p153
aS'NNS'
p154
aS'NNS'
p155
aS'CC'
p156
aS'DT'
p157
aS'JJ'
p158
aS'.'
asS'ner_seq'
p159
(lp160
S'O'
aS'O'
aS'S-MISC'
p161
aS'S-ORG'
p162
aS'O'
aS'O'
aS'S-MISC'
p163
aS'S-ORG'
p164
aS'O'
aS'O'
aS'O'
aS'O'
aS'O'
aS'O'
aS'O'
aS'O'
aS'O'
aS'O'
aS'O'
aS'O'
aS'O'
aS'O'
aS'O'
assb.