ccopy_reg
_reconstructor
p1
(c__main__
KBproperty
p2
c__builtin__
object
p3
NtRp4
(dp5
S'comment'
p6
S'active years end year manager'
p7
sS'domain'
p8
S'Person '
p9
sS'instances_count'
p10
S'0'
sS'label'
p11
g7
sS'range'
p12
S'g Year '
p13
sS'prop_uri'
p14
S"'http://dbpedia.org/ontology/activeYearsEndYearMgr'"
p15
sS'annotations'
p16
(dp17
S'bag_of_words'
p18
(lp19
S'Person'
p20
aS'active'
p21
aS'Years'
p22
aS'End'
p23
aS'Year'
p24
aS'Mgr'
p25
aS'g'
aS'Year'
p26
aS'active'
p27
aS'years'
p28
aS'end'
p29
aS'year'
p30
aS'manager'
p31
asS'chunk_seq'
p32
(lp33
S'B-NP'
p34
aS'I-NP'
p35
aS'E-NP'
p36
aS'S-VP'
p37
aS'B-NP'
p38
aS'I-NP'
p39
aS'I-NP'
p40
aS'E-NP'
p41
aS'B-NP'
p42
aS'E-NP'
p43
aS'S-VP'
p44
aS'B-NP'
p45
aS'E-NP'
p46
asS'dep_seq'
p47
(lp48
(lp49
S'nn'
p50
aS'5'
aS'1'
aa(lp51
S'amod'
p52
aS'5'
aS'2'
aa(lp53
S'nn'
p54
aS'5'
aS'3'
aa(lp55
S'dep'
p56
aS'5'
aS'4'
aa(lp57
S'dep'
p58
aS'8'
aS'5'
aa(lp59
S'nn'
p60
aS'8'
aS'6'
aa(lp61
S'nn'
p62
aS'8'
aS'7'
aa(lp63
S'root'
p64
aS'0'
aS'8'
aa(lp65
S'amod'
p66
aS'10'
p67
aS'9'
aa(lp68
S'nsubj'
p69
aS'11'
p70
aS'10'
p71
aa(lp72
S'rcmod'
p73
aS'8'
aS'11'
p74
aa(lp75
S'nn'
p76
aS'13'
p77
aS'12'
p78
aa(lp79
S'dobj'
p80
aS'11'
p81
aS'13'
p82
aasS'srls'
p83
(lp84
(dp85
S'A1'
p86
S'Person active Years'
p87
sS'A2'
p88
S'Year Mgr g Year'
p89
sS'V'
g23
sa(dp90
S'A1'
p91
S'Person active Years End Year Mgr g Year active years'
p92
sS'A2'
p93
S'year manager'
p94
sS'V'
g29
sasS'pos_seq'
p95
(lp96
S'NN'
p97
aS'JJ'
p98
aS'NNS'
p99
aS'VBP'
p100
aS'NN'
p101
aS'NNP'
p102
aS'NN'
p103
aS'NN'
p104
aS'JJ'
p105
aS'NNS'
p106
aS'VBP'
p107
aS'NN'
p108
aS'NN'
p109
asS'ner_seq'
p110
(lp111
S'O'
aS'O'
aS'O'
aS'O'
aS'O'
aS'O'
aS'O'
aS'O'
aS'O'
aS'O'
aS'O'
aS'O'
aS'O'
assb.