ccopy_reg
_reconstructor
p1
(c__main__
KBproperty
p2
c__builtin__
object
p3
NtRp4
(dp5
S'comment'
p6
S''
sS'domain'
p7
S''
sS'instances_count'
p8
S'1642'
p9
sS'label'
p10
S'Ship out of service'
p11
sS'range'
p12
S''
sS'prop_uri'
p13
S"'http://dbpedia.org/property/shipOutOfService'"
p14
sS'annotations'
p15
(dp16
S'bag_of_words'
p17
(lp18
S'Ship'
p19
aS'out'
p20
aS'of'
p21
aS'service'
p22
asS'chunk_seq'
p23
(lp24
S'S-NP'
p25
aS'S-PP'
p26
aS'S-PP'
p27
aS'S-NP'
p28
asS'dep_seq'
p29
(lp30
(lp31
S'root'
p32
aS'0'
aS'1'
aa(lp33
S'prepc_out_of'
p34
aS'1'
aS'3'
aa(lp35
S'pobj'
p36
aS'1'
aS'4'
aasS'srls'
p37
(lp38
sS'pos_seq'
p39
(lp40
S'NN'
p41
aS'IN'
p42
aS'IN'
p43
aS'NN'
p44
asS'ner_seq'
p45
(lp46
S'O'
aS'O'
aS'O'
aS'O'
assb.