ccopy_reg
_reconstructor
p1
(c__main__
KBproperty
p2
c__builtin__
object
p3
NtRp4
(dp5
S'comment'
p6
S'Ein Gr\\xc3\\xbcnder oder Gr\\xc3\\xbcndungsmitglied einer Organisation Religion oder eines Ortes.'
p7
sS'domain'
p8
S''
sS'instances_count'
p9
S'1433'
p10
sS'label'
p11
S'founder'
p12
sS'range'
p13
S'Person '
p14
sS'prop_uri'
p15
S"'http://dbpedia.org/ontology/founder'"
p16
sS'annotations'
p17
(dp18
S'bag_of_words'
p19
(lp20
S'founder'
p21
aS'Person'
p22
aS'Ein'
p23
aS'Gr'
p24
aS'\\'
aS'xc3'
p25
aS'\\'
aS'xbcnder'
p26
aS'oder'
p27
aS'Gr'
p28
aS'\\'
aS'xc3'
p29
aS'\\'
aS'xbcndungsmitglied'
p30
aS'einer'
p31
aS'Organisation'
p32
aS'Religion'
p33
aS'oder'
p34
aS'eines'
p35
aS'Ortes'
p36
aS'.'
asS'chunk_seq'
p37
(lp38
S'O'
aS'O'
aS'O'
aS'O'
aS'O'
aS'O'
aS'O'
aS'O'
aS'O'
aS'O'
aS'O'
aS'O'
aS'O'
aS'O'
aS'O'
aS'O'
aS'O'
aS'O'
aS'O'
aS'O'
aS'O'
asS'dep_seq'
p39
(lp40
(lp41
S'nn'
p42
aS'17'
p43
aS'1'
aa(lp44
S'nn'
p45
aS'17'
p46
aS'2'
aa(lp47
S'nn'
p48
aS'17'
p49
aS'3'
aa(lp50
S'nn'
p51
aS'17'
p52
aS'4'
aa(lp53
S'nn'
p54
aS'17'
p55
aS'5'
aa(lp56
S'nn'
p57
aS'17'
p58
aS'6'
aa(lp59
S'nn'
p60
aS'17'
p61
aS'7'
aa(lp62
S'nn'
p63
aS'17'
p64
aS'8'
aa(lp65
S'nn'
p66
aS'17'
p67
aS'9'
aa(lp68
S'nn'
p69
aS'17'
p70
aS'10'
p71
aa(lp72
S'nn'
p73
aS'17'
p74
aS'11'
p75
aa(lp76
S'nn'
p77
aS'17'
p78
aS'12'
p79
aa(lp80
S'nn'
p81
aS'17'
p82
aS'13'
p83
aa(lp84
S'nn'
p85
aS'17'
p86
aS'14'
p87
aa(lp88
S'nn'
p89
aS'17'
p90
aS'15'
p91
aa(lp92
S'nn'
p93
aS'17'
p94
aS'16'
p95
aa(lp96
S'root'
p97
aS'0'
aS'17'
p98
aa(lp99
S'nn'
p100
aS'17'
p101
aS'18'
p102
aa(lp103
S'nn'
p104
aS'17'
p105
aS'19'
p106
aa(lp107
S'dep'
p108
aS'17'
p109
aS'20'
p110
aasS'srls'
p111
(lp112
sS'pos_seq'
p113
(lp114
S'NN'
p115
aS'NNP'
p116
aS'NNP'
p117
aS'NNP'
p118
aS'FW'
p119
aS'FW'
p120
aS'FW'
p121
aS'FW'
p122
aS'FW'
p123
aS'FW'
p124
aS'FW'
p125
aS'FW'
p126
aS'FW'
p127
aS'FW'
p128
aS'FW'
p129
aS'NNP'
p130
aS'NNP'
p131
aS'FW'
p132
aS'FW'
p133
aS'FW'
p134
aS'.'
asS'ner_seq'
p135
(lp136
S'O'
aS'O'
aS'B-PER'
p137
aS'E-PER'
p138
aS'O'
aS'O'
aS'O'
aS'O'
aS'O'
aS'S-MISC'
p139
aS'O'
aS'O'
aS'O'
aS'O'
aS'O'
aS'B-MISC'
p140
aS'I-MISC'
p141
aS'I-MISC'
p142
aS'I-MISC'
p143
aS'E-MISC'
p144
aS'O'
assb.