ccopy_reg
_reconstructor
p1
(c__main__
KBproperty
p2
c__builtin__
object
p3
NtRp4
(dp5
S'comment'
p6
S'population density rural /sqkm'
p7
sS'domain'
p8
S'Populated Place '
p9
sS'instances_count'
p10
S'0'
sS'label'
p11
g7
sS'range'
p12
S'double '
p13
sS'prop_uri'
p14
S"'http://dbpedia.org/ontology/populationRuralDensity'"
p15
sS'annotations'
p16
(dp17
S'bag_of_words'
p18
(lp19
S'Populated'
p20
aS'Place'
p21
aS'population'
p22
aS'Rural'
p23
aS'Density'
p24
aS'double'
p25
aS'population'
p26
aS'density'
p27
aS'rural'
p28
aS'/s'
p29
aS'qkm'
p30
asS'chunk_seq'
p31
(lp32
S'B-NP'
p33
aS'I-NP'
p34
aS'I-NP'
p35
aS'I-NP'
p36
aS'I-NP'
p37
aS'I-NP'
p38
aS'I-NP'
p39
aS'E-NP'
p40
aS'S-ADJP'
p41
aS'O'
aS'O'
asS'dep_seq'
p42
(lp43
(lp44
S'amod'
p45
aS'3'
aS'1'
aa(lp46
S'nn'
p47
aS'3'
aS'2'
aa(lp48
S'dep'
p49
aS'11'
p50
aS'3'
aa(lp51
S'nn'
p52
aS'8'
aS'4'
aa(lp53
S'nn'
p54
aS'8'
aS'5'
aa(lp55
S'amod'
p56
aS'8'
aS'6'
aa(lp57
S'nn'
p58
aS'8'
aS'7'
aa(lp59
S'dep'
p60
aS'11'
p61
aS'8'
aa(lp62
S'amod'
p63
aS'11'
p64
aS'9'
aa(lp65
S'nn'
p66
aS'11'
p67
aS'10'
p68
aa(lp69
S'root'
p70
aS'0'
aS'11'
p71
aasS'srls'
p72
(lp73
sS'pos_seq'
p74
(lp75
S'JJ'
p76
aS'NN'
p77
aS'NN'
p78
aS'NNP'
p79
aS'NNP'
p80
aS'JJ'
p81
aS'NN'
p82
aS'NN'
p83
aS'JJ'
p84
aS'FW'
p85
aS'FW'
p86
asS'ner_seq'
p87
(lp88
S'O'
aS'O'
aS'O'
aS'O'
aS'O'
aS'O'
aS'O'
aS'O'
aS'O'
aS'O'
aS'O'
assb.