ccopy_reg
_reconstructor
p1
(c__main__
KBproperty
p2
c__builtin__
object
p3
NtRp4
(dp5
S'comment'
p6
S'speed km/h'
p7
sS'domain'
p8
S''
sS'instances_count'
p9
S'130'
p10
sS'label'
p11
g7
sS'range'
p12
S''
sS'prop_uri'
p13
S"'http://dbpedia.org/property/speedKm/h'"
p14
sS'annotations'
p15
(dp16
S'bag_of_words'
p17
(lp18
S'h'
aS'speed'
p19
aS'km/h'
p20
asS'chunk_seq'
p21
(lp22
S'B-NP'
p23
aS'I-NP'
p24
aS'E-NP'
p25
asS'dep_seq'
p26
(lp27
(lp28
S'num'
p29
aS'2'
aS'1'
aa(lp30
S'root'
p31
aS'0'
aS'2'
aa(lp32
S'punct'
p33
aS'2'
aS'3'
aasS'srls'
p34
(lp35
sS'pos_seq'
p36
(lp37
S'CD'
p38
aS'NN'
p39
aS'.'
asS'ner_seq'
p40
(lp41
S'O'
aS'O'
aS'O'
assb.