ccopy_reg
_reconstructor
p1
(c__main__
KBproperty
p2
c__builtin__
object
p3
NtRp4
(dp5
S'comment'
p6
S'A rank in the classification of organisms below family and above species; a taxon at that rank'
p7
sS'domain'
p8
S'Species '
p9
sS'instances_count'
p10
S'219377'
p11
sS'label'
p12
S'genus'
p13
sS'range'
p14
S''
sS'prop_uri'
p15
S"'http://dbpedia.org/ontology/genus'"
p16
sS'annotations'
p17
(dp18
S'bag_of_words'
p19
(lp20
S'Species'
p21
aS'genus'
p22
aS'A'
aS'rank'
p23
aS'in'
p24
aS'the'
p25
aS'classification'
p26
aS'of'
p27
aS'organisms'
p28
aS'below'
p29
aS'family'
p30
aS'and'
p31
aS'above'
p32
aS'species'
p33
aS';'
aS'a'
aS'taxon'
p34
aS'at'
p35
aS'that'
p36
aS'rank'
p37
asS'chunk_seq'
p38
(lp39
S'S-NP'
p40
aS'S-VP'
p41
aS'B-NP'
p42
aS'E-NP'
p43
aS'S-PP'
p44
aS'B-NP'
p45
aS'E-NP'
p46
aS'S-PP'
p47
aS'S-NP'
p48
aS'S-PP'
p49
aS'S-NP'
p50
aS'O'
aS'S-PP'
p51
aS'S-NP'
p52
aS'O'
aS'B-NP'
p53
aS'E-NP'
p54
aS'S-PP'
p55
aS'B-NP'
p56
aS'E-NP'
p57
asS'dep_seq'
p58
(lp59
(lp60
S'nsubj'
p61
aS'2'
aS'1'
aa(lp62
S'root'
p63
aS'0'
aS'2'
aa(lp64
S'det'
p65
aS'4'
aS'3'
aa(lp66
S'dobj'
p67
aS'2'
aS'4'
aa(lp68
S'det'
p69
aS'7'
aS'6'
aa(lp70
S'prep_in'
p71
aS'4'
aS'7'
aa(lp72
S'prep_of'
p73
aS'7'
aS'9'
aa(lp74
S'prep_below'
p75
aS'4'
aS'11'
p76
aa(lp77
S'conj_and'
p78
aS'11'
p79
aS'13'
p80
aa(lp81
S'dep'
p82
aS'11'
p83
aS'14'
p84
aa(lp85
S'det'
p86
aS'17'
p87
aS'16'
p88
aa(lp89
S'conj_and'
p90
aS'11'
p91
aS'17'
p92
aa(lp93
S'det'
p94
aS'20'
p95
aS'19'
p96
aa(lp97
S'prep_at'
p98
aS'17'
p99
aS'20'
p100
aasS'srls'
p101
(lp102
(dp103
S'A1'
p104
S'A rank in the classification of organisms below family and above species'
p105
sS'A0'
p106
g21
sS'V'
g22
sasS'pos_seq'
p107
(lp108
S'NNS'
p109
aS'VBP'
p110
aS'DT'
p111
aS'NN'
p112
aS'IN'
p113
aS'DT'
p114
aS'NN'
p115
aS'IN'
p116
aS'NNS'
p117
aS'IN'
p118
aS'NN'
p119
aS'CC'
p120
aS'IN'
p121
aS'NNS'
p122
aS':'
aS'DT'
p123
aS'NN'
p124
aS'IN'
p125
aS'DT'
p126
aS'NN'
p127
asS'ner_seq'
p128
(lp129
S'O'
aS'O'
aS'O'
aS'O'
aS'O'
aS'O'
aS'O'
aS'O'
aS'O'
aS'O'
aS'O'
aS'O'
aS'O'
aS'O'
aS'O'
aS'O'
aS'O'
aS'O'
aS'O'
aS'O'
assb.