ccopy_reg
_reconstructor
p1
(c__main__
KBproperty
p2
c__builtin__
object
p3
NtRp4
(dp5
S'comment'
p6
S''
sS'domain'
p7
S'Route Of Transportation '
p8
sS'instances_count'
p9
S'1'
sS'label'
p10
S'length reference'
p11
sS'range'
p12
S'string '
p13
sS'prop_uri'
p14
S"'http://dbpedia.org/ontology/lengthReference'"
p15
sS'annotations'
p16
(dp17
S'bag_of_words'
p18
(lp19
S'Route'
p20
aS'Of'
p21
aS'Transportation'
p22
aS'length'
p23
aS'reference'
p24
aS'string'
p25
asS'chunk_seq'
p26
(lp27
S'S-NP'
p28
aS'S-PP'
p29
aS'B-NP'
p30
aS'I-NP'
p31
aS'I-NP'
p32
aS'E-NP'
p33
asS'dep_seq'
p34
(lp35
(lp36
S'dep'
p37
aS'6'
aS'1'
aa(lp38
S'prep_of'
p39
aS'1'
aS'3'
aa(lp40
S'nn'
p41
aS'6'
aS'4'
aa(lp42
S'nn'
p43
aS'6'
aS'5'
aa(lp44
S'root'
p45
aS'0'
aS'6'
aasS'srls'
p46
(lp47
sS'pos_seq'
p48
(lp49
S'NNP'
p50
aS'IN'
p51
aS'NN'
p52
aS'NN'
p53
aS'NN'
p54
aS'NN'
p55
asS'ner_seq'
p56
(lp57
S'B-ORG'
p58
aS'I-ORG'
p59
aS'E-ORG'
p60
aS'O'
aS'O'
aS'O'
assb.