ccopy_reg
_reconstructor
p1
(c__main__
KBproperty
p2
c__builtin__
object
p3
NtRp4
(dp5
S'comment'
p6
S'The out written call sign.'
p7
sS'domain'
p8
S'Broadcaster '
p9
sS'instances_count'
p10
S'12809'
p11
sS'label'
p12
S'call sign meaning'
p13
sS'range'
p14
S'string '
p15
sS'prop_uri'
p16
S"'http://dbpedia.org/ontology/callsignMeaning'"
p17
sS'annotations'
p18
(dp19
S'bag_of_words'
p20
(lp21
S'Broadcaster'
p22
aS'call'
p23
aS'sign'
p24
aS'meaning'
p25
aS'string'
p26
aS'The'
p27
aS'out'
p28
aS'written'
p29
aS'call'
p30
aS'sign'
p31
aS'.'
asS'chunk_seq'
p32
(lp33
S'S-NP'
p34
aS'S-VP'
p35
aS'B-NP'
p36
aS'I-NP'
p37
aS'E-NP'
p38
aS'B-NP'
p39
aS'I-NP'
p40
aS'I-NP'
p41
aS'I-NP'
p42
aS'E-NP'
p43
aS'O'
asS'dep_seq'
p44
(lp45
(lp46
S'nsubj'
p47
aS'2'
aS'1'
aa(lp48
S'root'
p49
aS'0'
aS'2'
aa(lp50
S'ccomp'
p51
aS'2'
aS'3'
aa(lp52
S'nn'
p53
aS'5'
aS'4'
aa(lp54
S'nsubj'
p55
aS'10'
p56
aS'5'
aa(lp57
S'det'
p58
aS'10'
p59
aS'6'
aa(lp60
S'dep'
p61
aS'8'
aS'7'
aa(lp62
S'amod'
p63
aS'10'
p64
aS'8'
aa(lp65
S'nn'
p66
aS'10'
p67
aS'9'
aa(lp68
S'xcomp'
p69
aS'3'
aS'10'
p70
aasS'srls'
p71
(lp72
(dp73
S'A0'
p74
g22
sS'V'
g23
sa(dp75
S'A1'
p76
S'call sign'
p77
sS'V'
g29
sasS'pos_seq'
p78
(lp79
S'NNP'
p80
aS'VBP'
p81
aS'NN'
p82
aS'NN'
p83
aS'NN'
p84
aS'DT'
p85
aS'IN'
p86
aS'JJ'
p87
aS'NN'
p88
aS'NN'
p89
aS'.'
asS'ner_seq'
p90
(lp91
S'O'
aS'O'
aS'O'
aS'O'
aS'O'
aS'O'
aS'O'
aS'O'
aS'O'
aS'O'
aS'O'
assb.