ccopy_reg
_reconstructor
p1
(c__main__
KBproperty
p2
c__builtin__
object
p3
NtRp4
(dp5
S'comment'
p6
S''
sS'domain'
p7
S'Brain '
p8
sS'instances_count'
p9
S'89'
p10
sS'label'
p11
S'is part of anatomical structure'
p12
sS'range'
p13
S'Anatomical Structure '
p14
sS'prop_uri'
p15
S"'http://dbpedia.org/ontology/isPartOfAnatomicalStructure'"
p16
sS'annotations'
p17
(dp18
S'bag_of_words'
p19
(lp20
S'Brain'
p21
aS'is'
p22
aS'part'
p23
aS'of'
p24
aS'anatomical'
p25
aS'structure'
p26
aS'Anatomical'
p27
aS'Structure'
p28
asS'chunk_seq'
p29
(lp30
S'S-NP'
p31
aS'S-VP'
p32
aS'S-NP'
p33
aS'S-PP'
p34
aS'B-NP'
p35
aS'I-NP'
p36
aS'I-NP'
p37
aS'E-NP'
p38
asS'dep_seq'
p39
(lp40
(lp41
S'nsubj'
p42
aS'3'
aS'1'
aa(lp43
S'cop'
p44
aS'3'
aS'2'
aa(lp45
S'root'
p46
aS'0'
aS'3'
aa(lp47
S'amod'
p48
aS'8'
aS'5'
aa(lp49
S'nn'
p50
aS'8'
aS'6'
aa(lp51
S'amod'
p52
aS'8'
aS'7'
aa(lp53
S'prep_of'
p54
aS'3'
aS'8'
aasS'srls'
p55
(lp56
sS'pos_seq'
p57
(lp58
S'NN'
p59
aS'VBZ'
p60
aS'NN'
p61
aS'IN'
p62
aS'JJ'
p63
aS'NN'
p64
aS'JJ'
p65
aS'NN'
p66
asS'ner_seq'
p67
(lp68
S'O'
aS'O'
aS'O'
aS'O'
aS'O'
aS'O'
aS'O'
aS'O'
assb.