ccopy_reg
_reconstructor
p1
(c__main__
KBproperty
p2
c__builtin__
object
p3
NtRp4
(dp5
S'comment'
p6
S'The type of the research project. Mostly used for the funding schemes of the European Union for instance: Specific Targeted Research Projects STREP Network of Excellence NoE or Integrated Project.'
p7
sS'domain'
p8
S'Research Project '
p9
sS'instances_count'
p10
S'10'
p11
sS'label'
p12
S'project type'
p13
sS'range'
p14
S'string '
p15
sS'prop_uri'
p16
S"'http://dbpedia.org/ontology/projectType'"
p17
sS'annotations'
p18
(dp19
S'bag_of_words'
p20
(lp21
S'Research'
p22
aS'Project'
p23
aS'project'
p24
aS'type'
p25
aS'string'
p26
aS'The'
p27
aS'type'
p28
aS'of'
p29
aS'the'
p30
aS'research'
p31
aS'project'
p32
aS'.'
aS'Mostly'
p33
aS'used'
p34
aS'for'
p35
aS'the'
p36
aS'funding'
p37
aS'schemes'
p38
aS'of'
p39
aS'the'
p40
aS'European'
p41
aS'Union'
p42
aS'for'
p43
aS'instance'
p44
aS':'
aS'Specific'
p45
aS'Targeted'
p46
aS'Research'
p47
aS'Projects'
p48
aS'STREP'
p49
aS'Network'
p50
aS'of'
p51
aS'Excellence'
p52
aS'NoE'
p53
aS'or'
p54
aS'Integrated'
p55
aS'Project'
p56
aS'.'
asS'chunk_seq'
p57
(lp58
S'B-NP'
p59
aS'I-NP'
p60
aS'I-NP'
p61
aS'I-NP'
p62
aS'E-NP'
p63
aS'B-NP'
p64
aS'E-NP'
p65
aS'S-PP'
p66
aS'B-NP'
p67
aS'I-NP'
p68
aS'E-NP'
p69
aS'O'
aS'B-VP'
p70
aS'E-VP'
p71
aS'S-PP'
p72
aS'B-NP'
p73
aS'I-NP'
p74
aS'E-NP'
p75
aS'S-PP'
p76
aS'B-NP'
p77
aS'I-NP'
p78
aS'E-NP'
p79
aS'S-PP'
p80
aS'S-NP'
p81
aS'O'
aS'B-NP'
p82
aS'I-NP'
p83
aS'I-NP'
p84
aS'I-NP'
p85
aS'I-NP'
p86
aS'E-NP'
p87
aS'S-PP'
p88
aS'B-NP'
p89
aS'E-NP'
p90
aS'O'
aS'B-NP'
p91
aS'E-NP'
p92
aS'O'
asS'dep_seq'
p93
(lp94
(lp95
S'nn'
p96
aS'5'
aS'1'
aa(lp97
S'nn'
p98
aS'5'
aS'2'
aa(lp99
S'nn'
p100
aS'5'
aS'3'
aa(lp101
S'nn'
p102
aS'5'
aS'4'
aa(lp103
S'nsubj'
p104
aS'14'
p105
aS'5'
aa(lp106
S'det'
p107
aS'7'
aS'6'
aa(lp108
S'nsubj'
p109
aS'14'
p110
aS'7'
aa(lp111
S'det'
p112
aS'11'
p113
aS'9'
aa(lp114
S'nn'
p115
aS'11'
p116
aS'10'
p117
aa(lp118
S'prep_of'
p119
aS'7'
aS'11'
p120
aa(lp121
S'advmod'
p122
aS'14'
p123
aS'13'
p124
aa(lp125
S'root'
p126
aS'0'
aS'14'
p127
aa(lp128
S'det'
p129
aS'18'
p130
aS'16'
p131
aa(lp132
S'nn'
p133
aS'18'
p134
aS'17'
p135
aa(lp136
S'prep_for'
p137
aS'14'
p138
aS'18'
p139
aa(lp140
S'det'
p141
aS'22'
p142
aS'20'
p143
aa(lp144
S'nn'
p145
aS'22'
p146
aS'21'
p147
aa(lp148
S'prep_of'
p149
aS'18'
p150
aS'22'
p151
aa(lp152
S'prep_for'
p153
aS'18'
p154
aS'24'
p155
aa(lp156
S'nn'
p157
aS'31'
p158
aS'26'
p159
aa(lp160
S'nn'
p161
aS'31'
p162
aS'27'
p163
aa(lp164
S'nn'
p165
aS'31'
p166
aS'28'
p167
aa(lp168
S'nn'
p169
aS'31'
p170
aS'29'
p171
aa(lp172
S'nn'
p173
aS'31'
p174
aS'30'
p175
aa(lp176
S'dobj'
p177
aS'14'
p178
aS'31'
p179
aa(lp180
S'nn'
p181
aS'34'
p182
aS'33'
p183
aa(lp184
S'prep_of'
p185
aS'31'
p186
aS'34'
p187
aa(lp188
S'nn'
p189
aS'37'
p190
aS'36'
p191
aa(lp192
S'conj_or'
p193
aS'34'
p194
aS'37'
p195
aasS'srls'
p196
(lp197
(dp198
S'AM-ADV'
p199
g33
sS'A0'
p200
S'Research Project project type string The type of the research project'
p201
sS'A1'
p202
S'for the funding schemes of the European Union for instance : Specific Targeted Research Projects STREP Network of Excellence NoE or Integrated Project'
p203
sS'V'
g34
sasS'pos_seq'
p204
(lp205
S'NNP'
p206
aS'NNP'
p207
aS'NN'
p208
aS'NN'
p209
aS'NN'
p210
aS'DT'
p211
aS'NN'
p212
aS'IN'
p213
aS'DT'
p214
aS'NN'
p215
aS'NN'
p216
aS'.'
aS'RB'
p217
aS'VBN'
p218
aS'IN'
p219
aS'DT'
p220
aS'NN'
p221
aS'NNS'
p222
aS'IN'
p223
aS'DT'
p224
aS'NNP'
p225
aS'NNP'
p226
aS'IN'
p227
aS'NN'
p228
aS':'
aS'NNP'
p229
aS'NNP'
p230
aS'NNP'
p231
aS'NNP'
p232
aS'NNP'
p233
aS'NNP'
p234
aS'IN'
p235
aS'NNP'
p236
aS'NNP'
p237
aS'CC'
p238
aS'NNP'
p239
aS'NNP'
p240
aS'.'
asS'ner_seq'
p241
(lp242
S'O'
aS'O'
aS'O'
aS'O'
aS'O'
aS'O'
aS'O'
aS'O'
aS'O'
aS'O'
aS'O'
aS'O'
aS'O'
aS'O'
aS'O'
aS'O'
aS'O'
aS'O'
aS'O'
aS'O'
aS'B-ORG'
p243
aS'E-ORG'
p244
aS'O'
aS'O'
aS'O'
aS'B-ORG'
p245
aS'I-ORG'
p246
aS'I-ORG'
p247
aS'I-ORG'
p248
aS'I-ORG'
p249
aS'I-ORG'
p250
aS'I-ORG'
p251
aS'I-ORG'
p252
aS'I-ORG'
p253
aS'I-ORG'
p254
aS'I-ORG'
p255
aS'E-ORG'
p256
aS'O'
assb.