ccopy_reg
_reconstructor
p1
(c__main__
KBproperty
p2
c__builtin__
object
p3
NtRp4
(dp5
S'comment'
p6
S"This property has been added  because 'buildingType' is much more about the place whereas 'museumType' is about the way the place is being or:was used"
p7
sS'domain'
p8
S'Museum '
p9
sS'instances_count'
p10
S'0'
sS'label'
p11
S'museumType'
p12
sS'range'
p13
S''
sS'prop_uri'
p14
S"'http://dbpedia.org/ontology/museumType'"
p15
sS'annotations'
p16
(dp17
S'bag_of_words'
p18
(lp19
S'Museum'
p20
aS'museumType'
p21
aS'This'
p22
aS'property'
p23
aS'has'
p24
aS'been'
p25
aS'added'
p26
aS'because'
p27
aS"'b"
p28
aS'uildingType'
p29
aS"'"
aS'is'
p30
aS'much'
p31
aS'more'
p32
aS'about'
p33
aS'the'
p34
aS'place'
p35
aS'whereas'
p36
aS"'m"
p37
aS'useumType'
p38
aS"'"
aS'is'
p39
aS'about'
p40
aS'the'
p41
aS'way'
p42
aS'the'
p43
aS'place'
p44
aS'is'
p45
aS'being'
p46
aS'or'
p47
aS':'
aS'was'
p48
aS'used'
p49
asS'chunk_seq'
p50
(lp51
S'B-NP'
p52
aS'E-NP'
p53
aS'B-NP'
p54
aS'E-NP'
p55
aS'B-VP'
p56
aS'I-VP'
p57
aS'E-VP'
p58
aS'S-SBAR'
p59
aS'B-NP'
p60
aS'E-NP'
p61
aS'O'
aS'S-VP'
p62
aS'B-ADJP'
p63
aS'E-ADJP'
p64
aS'S-PP'
p65
aS'B-NP'
p66
aS'E-NP'
p67
aS'S-NP'
p68
aS'S-VP'
p69
aS'S-ADJP'
p70
aS'O'
aS'S-VP'
p71
aS'S-PP'
p72
aS'B-NP'
p73
aS'E-NP'
p74
aS'B-NP'
p75
aS'E-NP'
p76
aS'B-VP'
p77
aS'E-VP'
p78
aS'O'
aS'O'
aS'B-VP'
p79
aS'E-VP'
p80
asS'dep_seq'
p81
(lp82
(lp83
S'nn'
p84
aS'2'
aS'1'
aa(lp85
S'nsubjpass'
p86
aS'33'
p87
aS'2'
aa(lp88
S'det'
p89
aS'4'
aS'3'
aa(lp90
S'nsubjpass'
p91
aS'33'
p92
aS'4'
aa(lp93
S'dep'
p94
aS'33'
p95
aS'5'
aa(lp96
S'dep'
p97
aS'33'
p98
aS'6'
aa(lp99
S'dep'
p100
aS'33'
p101
aS'7'
aa(lp102
S'dep'
p103
aS'33'
p104
aS'8'
aa(lp105
S'nn'
p106
aS'10'
p107
aS'9'
aa(lp108
S'nsubjpass'
p109
aS'33'
p110
aS'10'
p111
aa(lp112
S'dep'
p113
aS'33'
p114
aS'12'
p115
aa(lp116
S'advmod'
p117
aS'14'
p118
aS'13'
p119
aa(lp120
S'nsubj'
p121
aS'22'
p122
aS'14'
p123
aa(lp124
S'det'
p125
aS'17'
p126
aS'16'
p127
aa(lp128
S'prep_about'
p129
aS'14'
p130
aS'17'
p131
aa(lp132
S'dep'
p133
aS'20'
p134
aS'18'
p135
aa(lp136
S'cop'
p137
aS'20'
p138
aS'19'
p139
aa(lp140
S'dep'
p141
aS'17'
p142
aS'20'
p143
aa(lp144
S'dep'
p145
aS'33'
p146
aS'22'
p147
aa(lp148
S'det'
p149
aS'25'
p150
aS'24'
p151
aa(lp152
S'prep_about'
p153
aS'22'
p154
aS'25'
p155
aa(lp156
S'dobj'
p157
aS'29'
p158
aS'25'
p159
aa(lp160
S'det'
p161
aS'27'
p162
aS'26'
p163
aa(lp164
S'nsubj'
p165
aS'29'
p166
aS'27'
p167
aa(lp168
S'aux'
p169
aS'29'
p170
aS'28'
p171
aa(lp172
S'rcmod'
p173
aS'25'
p174
aS'29'
p175
aa(lp176
S'cc'
p177
aS'33'
p178
aS'30'
p179
aa(lp180
S'auxpass'
p181
aS'33'
p182
aS'32'
p183
aa(lp184
S'root'
p185
aS'0'
aS'33'
p186
aasS'srls'
p187
(lp188
(dp189
S'A1'
p190
S'Museum museumType This property'
p191
sS'AM-CAU'
p192
S"because 'b uildingType ' is much more about the place whereas 'm useumType ' is about the way the place is being or"
p193
sS'V'
g26
sasS'pos_seq'
p194
(lp195
S'NNP'
p196
aS'NNP'
p197
aS'DT'
p198
aS'NN'
p199
aS'VBZ'
p200
aS'VBN'
p201
aS'VBN'
p202
aS'IN'
p203
aS'FW'
p204
aS'FW'
p205
aS"''"
p206
aS'VBZ'
p207
aS'RB'
p208
aS'JJR'
p209
aS'IN'
p210
aS'DT'
p211
aS'NN'
p212
aS'WDT'
p213
aS'VBP'
p214
aS'JJ'
p215
aS"''"
p216
aS'VBZ'
p217
aS'IN'
p218
aS'DT'
p219
aS'NN'
p220
aS'DT'
p221
aS'NN'
p222
aS'VBZ'
p223
aS'VBG'
p224
aS'CC'
p225
aS':'
aS'VBD'
p226
aS'VBN'
p227
asS'ner_seq'
p228
(lp229
S'O'
aS'O'
aS'O'
aS'O'
aS'O'
aS'O'
aS'O'
aS'O'
aS'O'
aS'O'
aS'O'
aS'O'
aS'O'
aS'O'
aS'O'
aS'O'
aS'O'
aS'O'
aS'O'
aS'O'
aS'O'
aS'O'
aS'O'
aS'O'
aS'O'
aS'O'
aS'O'
aS'O'
aS'O'
aS'O'
aS'O'
aS'O'
aS'O'
assb.