ccopy_reg
_reconstructor
p1
(c__main__
KBproperty
p2
c__builtin__
object
p3
NtRp4
(dp5
S'comment'
p6
S'area of water m2'
p7
sS'domain'
p8
S'Place '
p9
sS'instances_count'
p10
S'0'
sS'label'
p11
g7
sS'range'
p12
S'double '
p13
sS'prop_uri'
p14
S"'http://dbpedia.org/ontology/waterArea'"
p15
sS'annotations'
p16
(dp17
S'bag_of_words'
p18
(lp19
S'Place'
p20
aS'water'
p21
aS'Area'
p22
aS'double'
p23
aS'area'
p24
aS'of'
p25
aS'water'
p26
aS'm2'
p27
asS'chunk_seq'
p28
(lp29
S'B-NP'
p30
aS'I-NP'
p31
aS'I-NP'
p32
aS'I-NP'
p33
aS'E-NP'
p34
aS'S-PP'
p35
aS'S-NP'
p36
aS'S-ADJP'
p37
asS'dep_seq'
p38
(lp39
(lp40
S'nn'
p41
aS'5'
aS'1'
aa(lp42
S'nn'
p43
aS'5'
aS'2'
aa(lp44
S'nn'
p45
aS'5'
aS'3'
aa(lp46
S'amod'
p47
aS'5'
aS'4'
aa(lp48
S'dep'
p49
aS'8'
aS'5'
aa(lp50
S'prep_of'
p51
aS'5'
aS'7'
aa(lp52
S'root'
p53
aS'0'
aS'8'
aasS'srls'
p54
(lp55
sS'pos_seq'
p56
(lp57
S'NN'
p58
aS'NN'
p59
aS'NN'
p60
aS'JJ'
p61
aS'NN'
p62
aS'IN'
p63
aS'NN'
p64
aS'.'
asS'ner_seq'
p65
(lp66
S'O'
aS'O'
aS'O'
aS'O'
aS'O'
aS'O'
aS'O'
aS'O'
assb.