ccopy_reg
_reconstructor
p1
(c__main__
KBproperty
p2
c__builtin__
object
p3
NtRp4
(dp5
S'comment'
p6
S'Identification of the registry a document is in'
p7
sS'domain'
p8
S'Document '
p9
sS'instances_count'
p10
S'0'
sS'label'
p11
S'registry number'
p12
sS'range'
p13
S'string '
p14
sS'prop_uri'
p15
S"'http://dbpedia.org/ontology/registryNumber'"
p16
sS'annotations'
p17
(dp18
S'bag_of_words'
p19
(lp20
S'Document'
p21
aS'registry'
p22
aS'number'
p23
aS'string'
p24
aS'Identification'
p25
aS'of'
p26
aS'the'
p27
aS'registry'
p28
aS'a'
aS'document'
p29
aS'is'
p30
aS'in'
p31
asS'chunk_seq'
p32
(lp33
S'B-NP'
p34
aS'I-NP'
p35
aS'I-NP'
p36
aS'I-NP'
p37
aS'E-NP'
p38
aS'S-PP'
p39
aS'B-NP'
p40
aS'E-NP'
p41
aS'B-NP'
p42
aS'E-NP'
p43
aS'S-VP'
p44
aS'S-PP'
p45
asS'dep_seq'
p46
(lp47
(lp48
S'nn'
p49
aS'5'
aS'1'
aa(lp50
S'nn'
p51
aS'5'
aS'2'
aa(lp52
S'nn'
p53
aS'5'
aS'3'
aa(lp54
S'nn'
p55
aS'5'
aS'4'
aa(lp56
S'nsubj'
p57
aS'11'
p58
aS'5'
aa(lp59
S'det'
p60
aS'8'
aS'7'
aa(lp61
S'prep_of'
p62
aS'5'
aS'8'
aa(lp63
S'det'
p64
aS'10'
p65
aS'9'
aa(lp66
S'dep'
p67
aS'5'
aS'10'
p68
aa(lp69
S'root'
p70
aS'0'
aS'11'
p71
aa(lp72
S'prep'
p73
aS'11'
p74
aS'12'
p75
aasS'srls'
p76
(lp77
sS'pos_seq'
p78
(lp79
S'NN'
p80
aS'NN'
p81
aS'NN'
p82
aS'NN'
p83
aS'NN'
p84
aS'IN'
p85
aS'DT'
p86
aS'NN'
p87
aS'DT'
p88
aS'NN'
p89
aS'VBZ'
p90
aS'IN'
p91
asS'ner_seq'
p92
(lp93
S'O'
aS'O'
aS'O'
aS'O'
aS'O'
aS'O'
aS'O'
aS'O'
aS'O'
aS'O'
aS'O'
aS'O'
assb.