ccopy_reg
_reconstructor
p1
(c__main__
KBproperty
p2
c__builtin__
object
p3
NtRp4
(dp5
S'comment'
p6
S'position in which a surface occurs in a text'
p7
sS'domain'
p8
S''
sS'instances_count'
p9
S'0'
sS'label'
p10
g7
sS'range'
p11
S'string '
p12
sS'prop_uri'
p13
S"'http://dbpedia.org/ontology/surfaceFormOccurrenceOffset'"
p14
sS'annotations'
p15
(dp16
S'bag_of_words'
p17
(lp18
S'surface'
p19
aS'Form'
p20
aS'Occurrence'
p21
aS'Offset'
p22
aS'string'
p23
aS'position'
p24
aS'in'
p25
aS'which'
p26
aS'a'
aS'surface'
p27
aS'occurs'
p28
aS'in'
p29
aS'a'
aS'text'
p30
asS'chunk_seq'
p31
(lp32
S'B-NP'
p33
aS'I-NP'
p34
aS'I-NP'
p35
aS'I-NP'
p36
aS'I-NP'
p37
aS'E-NP'
p38
aS'S-PP'
p39
aS'S-NP'
p40
aS'B-NP'
p41
aS'E-NP'
p42
aS'S-VP'
p43
aS'S-PP'
p44
aS'B-NP'
p45
aS'E-NP'
p46
asS'dep_seq'
p47
(lp48
(lp49
S'nn'
p50
aS'3'
aS'1'
aa(lp51
S'nn'
p52
aS'3'
aS'2'
aa(lp53
S'nsubj'
p54
aS'4'
aS'3'
aa(lp55
S'root'
p56
aS'0'
aS'4'
aa(lp57
S'nn'
p58
aS'6'
aS'5'
aa(lp59
S'dobj'
p60
aS'4'
aS'6'
aa(lp61
S'prep_in'
p62
aS'11'
p63
aS'6'
aa(lp64
S'rel'
p65
aS'11'
p66
aS'7'
aa(lp67
S'det'
p68
aS'10'
p69
aS'9'
aa(lp70
S'nsubj'
p71
aS'11'
p72
aS'10'
p73
aa(lp74
S'rcmod'
p75
aS'6'
aS'11'
p76
aa(lp77
S'det'
p78
aS'14'
p79
aS'13'
p80
aa(lp81
S'prep_in'
p82
aS'11'
p83
aS'14'
p84
aasS'srls'
p85
(lp86
(dp87
S'A1'
p88
S'string position in which a surface occurs in a text'
p89
sS'A2'
p90
S'surface Form Occurrence'
p91
sS'V'
g22
sa(dp92
S'A1'
p93
S'a surface'
p94
sS'AM-LOC'
p95
S'in a text'
p96
sS'V'
g28
sasS'pos_seq'
p97
(lp98
S'NN'
p99
aS'NN'
p100
aS'NN'
p101
aS'VBN'
p102
aS'NN'
p103
aS'NN'
p104
aS'IN'
p105
aS'WDT'
p106
aS'DT'
p107
aS'NN'
p108
aS'VBZ'
p109
aS'IN'
p110
aS'DT'
p111
aS'NN'
p112
asS'ner_seq'
p113
(lp114
S'O'
aS'O'
aS'O'
aS'O'
aS'O'
aS'O'
aS'O'
aS'O'
aS'O'
aS'O'
aS'O'
aS'O'
aS'O'
aS'O'
assb.