ccopy_reg
_reconstructor
p1
(c__main__
KBproperty
p2
c__builtin__
object
p3
NtRp4
(dp5
S'comment'
p6
S''
sS'domain'
p7
S''
sS'instances_count'
p8
S'1486'
p9
sS'label'
p10
S'number of visitors'
p11
sS'range'
p12
S'non Negative Integer '
p13
sS'prop_uri'
p14
S"'http://dbpedia.org/ontology/numberOfVisitors'"
p15
sS'annotations'
p16
(dp17
S'bag_of_words'
p18
(lp19
S'number'
p20
aS'of'
p21
aS'visitors'
p22
aS'non'
p23
aS'Negative'
p24
aS'Integer'
p25
asS'chunk_seq'
p26
(lp27
S'S-NP'
p28
aS'S-PP'
p29
aS'S-NP'
p30
aS'S-VP'
p31
aS'B-NP'
p32
aS'E-NP'
p33
asS'dep_seq'
p34
(lp35
(lp36
S'root'
p37
aS'0'
aS'1'
aa(lp38
S'prep_of'
p39
aS'1'
aS'3'
aa(lp40
S'dep'
p41
aS'6'
aS'4'
aa(lp42
S'amod'
p43
aS'6'
aS'5'
aa(lp44
S'dep'
p45
aS'1'
aS'6'
aasS'srls'
p46
(lp47
sS'pos_seq'
p48
(lp49
S'NN'
p50
aS'IN'
p51
aS'NNS'
p52
aS'VBP'
p53
aS'JJ'
p54
aS'NN'
p55
asS'ner_seq'
p56
(lp57
S'O'
aS'O'
aS'O'
aS'O'
aS'B-MISC'
p58
aS'E-MISC'
p59
assb.