ccopy_reg
_reconstructor
p1
(c__main__
KBproperty
p2
c__builtin__
object
p3
NtRp4
(dp5
S'comment'
p6
S''
sS'domain'
p7
S'Member Resistance Movement '
p8
sS'instances_count'
p9
S'0'
sS'label'
p10
S'code on List of Honour'
p11
sS'range'
p12
S'string '
p13
sS'prop_uri'
p14
S"'http://dbpedia.org/ontology/codeListOfHonour'"
p15
sS'annotations'
p16
(dp17
S'bag_of_words'
p18
(lp19
S'Member'
p20
aS'Resistance'
p21
aS'Movement'
p22
aS'code'
p23
aS'on'
p24
aS'List'
p25
aS'of'
p26
aS'Honour'
p27
aS'string'
p28
asS'chunk_seq'
p29
(lp30
S'B-NP'
p31
aS'I-NP'
p32
aS'I-NP'
p33
aS'E-NP'
p34
aS'S-PP'
p35
aS'S-NP'
p36
aS'S-PP'
p37
aS'B-NP'
p38
aS'E-NP'
p39
asS'dep_seq'
p40
(lp41
(lp42
S'nn'
p43
aS'4'
aS'1'
aa(lp44
S'nn'
p45
aS'4'
aS'2'
aa(lp46
S'nn'
p47
aS'4'
aS'3'
aa(lp48
S'root'
p49
aS'0'
aS'4'
aa(lp50
S'prep_on'
p51
aS'4'
aS'6'
aa(lp52
S'nn'
p53
aS'9'
aS'8'
aa(lp54
S'prep_of'
p55
aS'6'
aS'9'
aasS'srls'
p56
(lp57
sS'pos_seq'
p58
(lp59
S'NNP'
p60
aS'NNP'
p61
aS'NNP'
p62
aS'NN'
p63
aS'IN'
p64
aS'NNP'
p65
aS'IN'
p66
aS'NNP'
p67
aS'NN'
p68
asS'ner_seq'
p69
(lp70
S'O'
aS'O'
aS'O'
aS'O'
aS'O'
aS'O'
aS'O'
aS'O'
aS'O'
assb.