ccopy_reg
_reconstructor
p1
(c__main__
KBproperty
p2
c__builtin__
object
p3
NtRp4
(dp5
S'comment'
p6
S'Usually used with releaseDate particularly for Films. Often there can be several pairs so our modeling is not precise here...'
p7
sS'domain'
p8
S'Work '
p9
sS'instances_count'
p10
S'4'
sS'label'
p11
S'release location'
p12
sS'range'
p13
S'Place '
p14
sS'prop_uri'
p15
S"'http://dbpedia.org/ontology/releaseLocation'"
p16
sS'annotations'
p17
(dp18
S'bag_of_words'
p19
(lp20
S'Work'
p21
aS'release'
p22
aS'location'
p23
aS'Place'
p24
aS'Usually'
p25
aS'used'
p26
aS'with'
p27
aS'releaseDate'
p28
aS'particularly'
p29
aS'for'
p30
aS'Films'
p31
aS'.'
aS'Often'
p32
aS'there'
p33
aS'can'
p34
aS'be'
p35
aS'several'
p36
aS'pairs'
p37
aS'so'
p38
aS'our'
p39
aS'modeling'
p40
aS'is'
p41
aS'not'
p42
aS'precise'
p43
aS'here'
p44
aS'...'
p45
asS'chunk_seq'
p46
(lp47
S'B-NP'
p48
aS'I-NP'
p49
aS'I-NP'
p50
aS'E-NP'
p51
aS'B-VP'
p52
aS'E-VP'
p53
aS'S-PP'
p54
aS'S-NP'
p55
aS'S-ADVP'
p56
aS'S-PP'
p57
aS'S-NP'
p58
aS'O'
aS'S-ADVP'
p59
aS'S-NP'
p60
aS'B-VP'
p61
aS'E-VP'
p62
aS'B-NP'
p63
aS'E-NP'
p64
aS'O'
aS'B-NP'
p65
aS'E-NP'
p66
aS'S-VP'
p67
aS'O'
aS'S-ADJP'
p68
aS'S-ADVP'
p69
aS'O'
asS'dep_seq'
p70
(lp71
(lp72
S'nn'
p73
aS'4'
aS'1'
aa(lp74
S'nn'
p75
aS'4'
aS'2'
aa(lp76
S'nn'
p77
aS'4'
aS'3'
aa(lp78
S'nsubj'
p79
aS'6'
aS'4'
aa(lp80
S'advmod'
p81
aS'6'
aS'5'
aa(lp82
S'root'
p83
aS'0'
aS'6'
aa(lp84
S'prep_with'
p85
aS'6'
aS'8'
aa(lp86
S'advmod'
p87
aS'6'
aS'9'
aa(lp88
S'prep_for'
p89
aS'6'
aS'11'
p90
aa(lp91
S'advmod'
p92
aS'18'
p93
aS'13'
p94
aa(lp95
S'expl'
p96
aS'18'
p97
aS'14'
p98
aa(lp99
S'aux'
p100
aS'18'
p101
aS'15'
p102
aa(lp103
S'cop'
p104
aS'18'
p105
aS'16'
p106
aa(lp107
S'amod'
p108
aS'18'
p109
aS'17'
p110
aa(lp111
S'parataxis'
p112
aS'6'
aS'18'
p113
aa(lp114
S'mark'
p115
aS'24'
p116
aS'19'
p117
aa(lp118
S'poss'
p119
aS'21'
p120
aS'20'
p121
aa(lp122
S'nsubj'
p123
aS'24'
p124
aS'21'
p125
aa(lp126
S'cop'
p127
aS'24'
p128
aS'22'
p129
aa(lp130
S'neg'
p131
aS'24'
p132
aS'23'
p133
aa(lp134
S'advcl'
p135
aS'18'
p136
aS'24'
p137
aa(lp138
S'advmod'
p139
aS'24'
p140
aS'25'
p141
aasS'srls'
p142
(lp143
(dp144
S'A1'
p145
S'Work release location Place'
p146
sS'A2'
p147
S'with releaseDate particularly for Films'
p148
sS'AM-TMP'
p149
g25
sS'V'
g26
sasS'pos_seq'
p150
(lp151
S'NN'
p152
aS'NN'
p153
aS'NN'
p154
aS'NN'
p155
aS'RB'
p156
aS'VBN'
p157
aS'IN'
p158
aS'JJ'
p159
aS'RB'
p160
aS'IN'
p161
aS'NNS'
p162
aS'.'
aS'RB'
p163
aS'EX'
p164
aS'MD'
p165
aS'VB'
p166
aS'JJ'
p167
aS'NNS'
p168
aS'IN'
p169
aS'PRP$'
p170
aS'NN'
p171
aS'VBZ'
p172
aS'RB'
p173
aS'JJ'
p174
aS'RB'
p175
aS':'
asS'ner_seq'
p176
(lp177
S'O'
aS'O'
aS'O'
aS'O'
aS'O'
aS'O'
aS'O'
aS'S-PER'
p178
aS'O'
aS'O'
aS'S-MISC'
p179
aS'O'
aS'O'
aS'O'
aS'O'
aS'O'
aS'O'
aS'O'
aS'O'
aS'O'
aS'O'
aS'O'
aS'O'
aS'O'
aS'O'
aS'O'
assb.