ccopy_reg
_reconstructor
p1
(c__main__
KBproperty
p2
c__builtin__
object
p3
NtRp4
(dp5
S'comment'
p6
S'Amount of carbohydrates per servingSize of a Food'
p7
sS'domain'
p8
S'Food '
p9
sS'instances_count'
p10
S'2'
sS'label'
p11
S'carbohydrate g'
p12
sS'range'
p13
S'double '
p14
sS'prop_uri'
p15
S"'http://dbpedia.org/ontology/carbohydrate'"
p16
sS'annotations'
p17
(dp18
S'bag_of_words'
p19
(lp20
S'Food'
p21
aS'carbohydrate'
p22
aS'g'
aS'double'
p23
aS'Amount'
p24
aS'of'
p25
aS'carbohydrates'
p26
aS'per'
p27
aS'servingSize'
p28
aS'of'
p29
aS'a'
aS'Food'
p30
asS'chunk_seq'
p31
(lp32
S'B-NP'
p33
aS'I-NP'
p34
aS'I-NP'
p35
aS'I-NP'
p36
aS'E-NP'
p37
aS'S-PP'
p38
aS'S-NP'
p39
aS'S-PP'
p40
aS'S-NP'
p41
aS'S-PP'
p42
aS'B-NP'
p43
aS'E-NP'
p44
asS'dep_seq'
p45
(lp46
(lp47
S'dep'
p48
aS'4'
aS'1'
aa(lp49
S'dep'
p50
aS'4'
aS'2'
aa(lp51
S'npadvmod'
p52
aS'4'
aS'3'
aa(lp53
S'root'
p54
aS'0'
aS'4'
aa(lp55
S'dep'
p56
aS'6'
aS'5'
aa(lp57
S'dep'
p58
aS'4'
aS'6'
aa(lp59
S'pobj'
p60
aS'6'
aS'7'
aa(lp61
S'prep_per'
p62
aS'7'
aS'9'
aa(lp63
S'det'
p64
aS'12'
p65
aS'11'
p66
aa(lp67
S'prep_of'
p68
aS'7'
aS'12'
p69
aasS'srls'
p70
(lp71
sS'pos_seq'
p72
(lp73
S'NN'
p74
aS'NN'
p75
aS'NN'
p76
aS'JJ'
p77
aS'NN'
p78
aS'IN'
p79
aS'NNS'
p80
aS'IN'
p81
aS'NN'
p82
aS'IN'
p83
aS'DT'
p84
aS'NN'
p85
asS'ner_seq'
p86
(lp87
S'O'
aS'O'
aS'O'
aS'O'
aS'O'
aS'O'
aS'O'
aS'O'
aS'S-MISC'
p88
aS'O'
aS'O'
aS'O'
assb.