ccopy_reg
_reconstructor
p1
(c__main__
KBproperty
p2
c__builtin__
object
p3
NtRp4
(dp5
S'comment'
p6
S'The chain of Hotels this instance is associated with.'
p7
sS'domain'
p8
S'Hotel '
p9
sS'instances_count'
p10
S'142'
p11
sS'label'
p12
S'chain'
p13
sS'range'
p14
S'Company '
p15
sS'prop_uri'
p16
S"'http://dbpedia.org/ontology/chain'"
p17
sS'annotations'
p18
(dp19
S'bag_of_words'
p20
(lp21
S'Hotel'
p22
aS'chain'
p23
aS'Company'
p24
aS'The'
p25
aS'chain'
p26
aS'of'
p27
aS'Hotels'
p28
aS'this'
p29
aS'instance'
p30
aS'is'
p31
aS'associated'
p32
aS'with'
p33
aS'.'
asS'chunk_seq'
p34
(lp35
S'B-NP'
p36
aS'I-NP'
p37
aS'E-NP'
p38
aS'B-NP'
p39
aS'E-NP'
p40
aS'S-PP'
p41
aS'S-NP'
p42
aS'B-NP'
p43
aS'E-NP'
p44
aS'B-VP'
p45
aS'E-VP'
p46
aS'S-PP'
p47
aS'O'
asS'dep_seq'
p48
(lp49
(lp50
S'nn'
p51
aS'3'
aS'1'
aa(lp52
S'nn'
p53
aS'3'
aS'2'
aa(lp54
S'nsubjpass'
p55
aS'11'
p56
aS'3'
aa(lp57
S'det'
p58
aS'5'
aS'4'
aa(lp59
S'nsubjpass'
p60
aS'11'
p61
aS'5'
aa(lp62
S'prep_of'
p63
aS'5'
aS'7'
aa(lp64
S'det'
p65
aS'9'
aS'8'
aa(lp66
S'nsubjpass'
p67
aS'11'
p68
aS'9'
aa(lp69
S'auxpass'
p70
aS'11'
p71
aS'10'
p72
aa(lp73
S'root'
p74
aS'0'
aS'11'
p75
aa(lp76
S'prep'
p77
aS'11'
p78
aS'12'
p79
aasS'srls'
p80
(lp81
(dp82
S'A1'
p83
S'Hotel chain Company The chain of Hotels this instance'
p84
sS'V'
g32
sasS'pos_seq'
p85
(lp86
S'NNP'
p87
aS'NN'
p88
aS'NNP'
p89
aS'DT'
p90
aS'NN'
p91
aS'IN'
p92
aS'NNS'
p93
aS'DT'
p94
aS'NN'
p95
aS'VBZ'
p96
aS'VBN'
p97
aS'IN'
p98
aS'.'
asS'ner_seq'
p99
(lp100
S'O'
aS'O'
aS'B-ORG'
p101
aS'I-ORG'
p102
aS'I-ORG'
p103
aS'I-ORG'
p104
aS'E-ORG'
p105
aS'O'
aS'O'
aS'O'
aS'O'
aS'O'
aS'O'
assb.