ccopy_reg
_reconstructor
p1
(c__main__
KBproperty
p2
c__builtin__
object
p3
NtRp4
(dp5
S'comment'
p6
S'Approximate calories per serving.'
p7
sS'domain'
p8
S'Food '
p9
sS'instances_count'
p10
S'10'
p11
sS'label'
p12
S'approximate calories J'
p13
sS'range'
p14
S'double '
p15
sS'prop_uri'
p16
S"'http://dbpedia.org/ontology/approximateCalories'"
p17
sS'annotations'
p18
(dp19
S'bag_of_words'
p20
(lp21
S'Food'
p22
aS'approximate'
p23
aS'calories'
p24
aS'J'
aS'double'
p25
aS'Approximate'
p26
aS'calories'
p27
aS'per'
p28
aS'serving'
p29
aS'.'
asS'chunk_seq'
p30
(lp31
S'B-NP'
p32
aS'I-NP'
p33
aS'I-NP'
p34
aS'I-NP'
p35
aS'I-NP'
p36
aS'I-NP'
p37
aS'E-NP'
p38
aS'S-PP'
p39
aS'S-VP'
p40
aS'O'
asS'dep_seq'
p41
(lp42
(lp43
S'nsubj'
p44
aS'3'
aS'1'
aa(lp45
S'dep'
p46
aS'3'
aS'2'
aa(lp47
S'root'
p48
aS'0'
aS'3'
aa(lp49
S'amod'
p50
aS'5'
aS'4'
aa(lp51
S'amod'
p52
aS'7'
aS'5'
aa(lp53
S'amod'
p54
aS'7'
aS'6'
aa(lp55
S'dobj'
p56
aS'3'
aS'7'
aa(lp57
S'prepc_per'
p58
aS'7'
aS'9'
aasS'srls'
p59
(lp60
(dp61
S'V'
g29
sasS'pos_seq'
p62
(lp63
S'NN'
p64
aS'JJ'
p65
aS'NNS'
p66
aS'NNP'
p67
aS'JJ'
p68
aS'JJ'
p69
aS'NNS'
p70
aS'IN'
p71
aS'VBG'
p72
aS'.'
asS'ner_seq'
p73
(lp74
S'O'
aS'O'
aS'O'
aS'O'
aS'O'
aS'O'
aS'O'
aS'O'
aS'O'
aS'O'
assb.