ccopy_reg
_reconstructor
p1
(c__main__
KBproperty
p2
c__builtin__
object
p3
NtRp4
(dp5
S'comment'
p6
S''
sS'domain'
p7
S''
sS'instances_count'
p8
S'6'
sS'label'
p9
S'named after'
p10
sS'range'
p11
S''
sS'prop_uri'
p12
S"'http://dbpedia.org/property/namedAfter'"
p13
sS'annotations'
p14
(dp15
S'bag_of_words'
p16
(lp17
S'named'
p18
aS'after'
p19
asS'chunk_seq'
p20
(lp21
S'S-VP'
p22
aS'S-PP'
p23
asS'dep_seq'
p24
(lp25
(lp26
S'root'
p27
aS'0'
aS'1'
aa(lp28
S'prep'
p29
aS'1'
aS'2'
aasS'srls'
p30
(lp31
(dp32
S'A2'
p33
g19
sS'V'
g18
sasS'pos_seq'
p34
(lp35
S'VBN'
p36
aS'IN'
p37
asS'ner_seq'
p38
(lp39
S'O'
aS'O'
assb.