ccopy_reg
_reconstructor
p1
(c__main__
KBproperty
p2
c__builtin__
object
p3
NtRp4
(dp5
S'comment'
p6
S'Railway services that serve the station.'
p7
sS'domain'
p8
S'Station '
p9
sS'instances_count'
p10
S'20460'
p11
sS'label'
p12
S'serving railway line'
p13
sS'range'
p14
S''
sS'prop_uri'
p15
S"'http://dbpedia.org/ontology/servingRailwayLine'"
p16
sS'annotations'
p17
(dp18
S'bag_of_words'
p19
(lp20
S'Station'
p21
aS'serving'
p22
aS'railway'
p23
aS'line'
p24
aS'Railway'
p25
aS'services'
p26
aS'that'
p27
aS'serve'
p28
aS'the'
p29
aS'station'
p30
aS'.'
asS'chunk_seq'
p31
(lp32
S'S-NP'
p33
aS'S-VP'
p34
aS'B-NP'
p35
aS'I-NP'
p36
aS'I-NP'
p37
aS'E-NP'
p38
aS'S-NP'
p39
aS'S-VP'
p40
aS'B-NP'
p41
aS'E-NP'
p42
aS'O'
asS'dep_seq'
p43
(lp44
(lp45
S'nn'
p46
aS'6'
aS'1'
aa(lp47
S'amod'
p48
aS'6'
aS'2'
aa(lp49
S'nn'
p50
aS'6'
aS'3'
aa(lp51
S'nn'
p52
aS'6'
aS'4'
aa(lp53
S'nn'
p54
aS'6'
aS'5'
aa(lp55
S'root'
p56
aS'0'
aS'6'
aa(lp57
S'nsubj'
p58
aS'8'
aS'6'
aa(lp59
S'rcmod'
p60
aS'6'
aS'8'
aa(lp61
S'det'
p62
aS'10'
p63
aS'9'
aa(lp64
S'dobj'
p65
aS'8'
aS'10'
p66
aasS'srls'
p67
(lp68
(dp69
S'A1'
p70
S'railway line Railway services that serve the station'
p71
sS'A0'
p72
g21
sS'V'
g22
sa(dp73
S'A0'
p74
S'railway line Railway services'
p75
sS'A2'
p76
S'the station'
p77
sS'R-A0'
p78
g27
sS'V'
g28
sasS'pos_seq'
p79
(lp80
S'NN'
p81
aS'VBG'
p82
aS'NN'
p83
aS'NN'
p84
aS'NNP'
p85
aS'NNS'
p86
aS'WDT'
p87
aS'VBP'
p88
aS'DT'
p89
aS'NN'
p90
aS'.'
asS'ner_seq'
p91
(lp92
S'O'
aS'O'
aS'O'
aS'O'
aS'S-ORG'
p93
aS'O'
aS'O'
aS'O'
aS'O'
aS'O'
aS'O'
assb.