ccopy_reg
_reconstructor
p1
(c__main__
KBproperty
p2
c__builtin__
object
p3
NtRp4
(dp5
S'comment'
p6
S'In chemistry a group also known as a family is a column of elements in the periodic table of the chemical elements.'
p7
sS'domain'
p8
S'Chemical Element '
p9
sS'instances_count'
p10
S'0'
sS'label'
p11
S'element group'
p12
sS'range'
p13
S'non Negative Integer '
p14
sS'prop_uri'
p15
S"'http://dbpedia.org/ontology/elementGroup'"
p16
sS'annotations'
p17
(dp18
S'bag_of_words'
p19
(lp20
S'Chemical'
p21
aS'Element'
p22
aS'element'
p23
aS'group'
p24
aS'non'
p25
aS'Negative'
p26
aS'Integer'
p27
aS'In'
p28
aS'chemistry'
p29
aS'a'
aS'group'
p30
aS'also'
p31
aS'known'
p32
aS'as'
p33
aS'a'
aS'family'
p34
aS'is'
p35
aS'a'
aS'column'
p36
aS'of'
p37
aS'elements'
p38
aS'in'
p39
aS'the'
p40
aS'periodic'
p41
aS'table'
p42
aS'of'
p43
aS'the'
p44
aS'chemical'
p45
aS'elements'
p46
aS'.'
asS'chunk_seq'
p47
(lp48
S'B-NP'
p49
aS'I-NP'
p50
aS'I-NP'
p51
aS'E-NP'
p52
aS'B-NP'
p53
aS'I-NP'
p54
aS'E-NP'
p55
aS'S-PP'
p56
aS'S-NP'
p57
aS'B-NP'
p58
aS'E-NP'
p59
aS'S-ADVP'
p60
aS'S-VP'
p61
aS'S-PP'
p62
aS'B-NP'
p63
aS'E-NP'
p64
aS'S-VP'
p65
aS'B-NP'
p66
aS'E-NP'
p67
aS'S-PP'
p68
aS'S-NP'
p69
aS'S-PP'
p70
aS'B-NP'
p71
aS'I-NP'
p72
aS'E-NP'
p73
aS'S-PP'
p74
aS'B-NP'
p75
aS'I-NP'
p76
aS'E-NP'
p77
aS'O'
asS'dep_seq'
p78
(lp79
(lp80
S'nn'
p81
aS'4'
aS'1'
aa(lp82
S'nn'
p83
aS'4'
aS'2'
aa(lp84
S'nn'
p85
aS'4'
aS'3'
aa(lp86
S'nn'
p87
aS'7'
aS'4'
aa(lp88
S'advmod'
p89
aS'6'
aS'5'
aa(lp90
S'amod'
p91
aS'7'
aS'6'
aa(lp92
S'nsubj'
p93
aS'19'
p94
aS'7'
aa(lp95
S'prep_in'
p96
aS'7'
aS'9'
aa(lp97
S'det'
p98
aS'11'
p99
aS'10'
p100
aa(lp101
S'dep'
p102
aS'7'
aS'11'
p103
aa(lp104
S'advmod'
p105
aS'13'
p106
aS'12'
p107
aa(lp108
S'partmod'
p109
aS'7'
aS'13'
p110
aa(lp111
S'det'
p112
aS'16'
p113
aS'15'
p114
aa(lp115
S'prep_as'
p116
aS'13'
p117
aS'16'
p118
aa(lp119
S'cop'
p120
aS'19'
p121
aS'17'
p122
aa(lp123
S'det'
p124
aS'19'
p125
aS'18'
p126
aa(lp127
S'root'
p128
aS'0'
aS'19'
p129
aa(lp130
S'prep_of'
p131
aS'19'
p132
aS'21'
p133
aa(lp134
S'det'
p135
aS'25'
p136
aS'23'
p137
aa(lp138
S'amod'
p139
aS'25'
p140
aS'24'
p141
aa(lp142
S'prep_in'
p143
aS'21'
p144
aS'25'
p145
aa(lp146
S'det'
p147
aS'29'
p148
aS'27'
p149
aa(lp150
S'nn'
p151
aS'29'
p152
aS'28'
p153
aa(lp154
S'prep_of'
p155
aS'25'
p156
aS'29'
p157
aasS'srls'
p158
(lp159
(dp160
S'A1'
p161
g29
sS'A0'
p162
S'a group'
p163
sS'AM-DIS'
p164
g31
sS'A2'
p165
S'as a family'
p166
sS'V'
g32
sasS'pos_seq'
p167
(lp168
S'NNP'
p169
aS'NNP'
p170
aS'NN'
p171
aS'NN'
p172
aS'RB'
p173
aS'JJ'
p174
aS'NN'
p175
aS'IN'
p176
aS'NN'
p177
aS'DT'
p178
aS'NN'
p179
aS'RB'
p180
aS'VBN'
p181
aS'IN'
p182
aS'DT'
p183
aS'NN'
p184
aS'VBZ'
p185
aS'DT'
p186
aS'NN'
p187
aS'IN'
p188
aS'NNS'
p189
aS'IN'
p190
aS'DT'
p191
aS'JJ'
p192
aS'NN'
p193
aS'IN'
p194
aS'DT'
p195
aS'NN'
p196
aS'NNS'
p197
aS'.'
asS'ner_seq'
p198
(lp199
S'O'
aS'O'
aS'O'
aS'O'
aS'O'
aS'O'
aS'O'
aS'O'
aS'O'
aS'O'
aS'O'
aS'O'
aS'O'
aS'O'
aS'O'
aS'O'
aS'O'
aS'O'
aS'O'
aS'O'
aS'O'
aS'O'
aS'O'
aS'O'
aS'O'
aS'O'
aS'O'
aS'O'
aS'O'
aS'O'
assb.