ccopy_reg
_reconstructor
p1
(c__main__
KBproperty
p2
c__builtin__
object
p3
NtRp4
(dp5
S'comment'
p6
S'mayor title of a hungarian settlement'
p7
sS'domain'
p8
S'Hungary Settlement '
p9
sS'instances_count'
p10
S'0'
sS'label'
p11
g7
sS'range'
p12
S'lang String '
p13
sS'prop_uri'
p14
S"'http://dbpedia.org/ontology/mayorTitle'"
p15
sS'annotations'
p16
(dp17
S'bag_of_words'
p18
(lp19
S'Hungary'
p20
aS'Settlement'
p21
aS'mayor'
p22
aS'Title'
p23
aS'lang'
p24
aS'String'
p25
aS'mayor'
p26
aS'title'
p27
aS'of'
p28
aS'a'
aS'hungarian'
p29
aS'settlement'
p30
asS'chunk_seq'
p31
(lp32
S'B-NP'
p33
aS'I-NP'
p34
aS'I-NP'
p35
aS'I-NP'
p36
aS'I-NP'
p37
aS'I-NP'
p38
aS'I-NP'
p39
aS'E-NP'
p40
aS'S-PP'
p41
aS'B-NP'
p42
aS'I-NP'
p43
aS'E-NP'
p44
asS'dep_seq'
p45
(lp46
(lp47
S'nn'
p48
aS'8'
aS'1'
aa(lp49
S'nn'
p50
aS'8'
aS'2'
aa(lp51
S'nn'
p52
aS'8'
aS'3'
aa(lp53
S'nn'
p54
aS'8'
aS'4'
aa(lp55
S'amod'
p56
aS'8'
aS'5'
aa(lp57
S'nn'
p58
aS'8'
aS'6'
aa(lp59
S'nn'
p60
aS'8'
aS'7'
aa(lp61
S'root'
p62
aS'0'
aS'8'
aa(lp63
S'det'
p64
aS'12'
p65
aS'10'
p66
aa(lp67
S'amod'
p68
aS'12'
p69
aS'11'
p70
aa(lp71
S'prep_of'
p72
aS'8'
aS'12'
p73
aasS'srls'
p74
(lp75
sS'pos_seq'
p76
(lp77
S'NNP'
p78
aS'NNP'
p79
aS'NN'
p80
aS'NN'
p81
aS'VBG'
p82
aS'NN'
p83
aS'NN'
p84
aS'NN'
p85
aS'IN'
p86
aS'DT'
p87
aS'JJ'
p88
aS'NN'
p89
asS'ner_seq'
p90
(lp91
S'S-LOC'
p92
aS'O'
aS'O'
aS'B-MISC'
p93
aS'I-MISC'
p94
aS'E-MISC'
p95
aS'O'
aS'O'
aS'O'
aS'O'
aS'O'
aS'O'
assb.