ccopy_reg
_reconstructor
p1
(c__main__
KBproperty
p2
c__builtin__
object
p3
NtRp4
(dp5
S'comment'
p6
S'The country for which the athlete is participating in championships'
p7
sS'domain'
p8
S'Athlete '
p9
sS'instances_count'
p10
S'182'
p11
sS'label'
p12
S'sport country'
p13
sS'range'
p14
S'Country '
p15
sS'prop_uri'
p16
S"'http://dbpedia.org/ontology/sportCountry'"
p17
sS'annotations'
p18
(dp19
S'bag_of_words'
p20
(lp21
S'Athlete'
p22
aS'sport'
p23
aS'country'
p24
aS'Country'
p25
aS'The'
p26
aS'country'
p27
aS'for'
p28
aS'which'
p29
aS'the'
p30
aS'athlete'
p31
aS'is'
p32
aS'participating'
p33
aS'in'
p34
aS'championships'
p35
asS'chunk_seq'
p36
(lp37
S'B-NP'
p38
aS'I-NP'
p39
aS'I-NP'
p40
aS'E-NP'
p41
aS'B-NP'
p42
aS'E-NP'
p43
aS'S-PP'
p44
aS'S-NP'
p45
aS'B-NP'
p46
aS'E-NP'
p47
aS'B-VP'
p48
aS'E-VP'
p49
aS'S-PP'
p50
aS'S-NP'
p51
asS'dep_seq'
p52
(lp53
(lp54
S'nn'
p55
aS'4'
aS'1'
aa(lp56
S'nn'
p57
aS'4'
aS'2'
aa(lp58
S'nn'
p59
aS'4'
aS'3'
aa(lp60
S'root'
p61
aS'0'
aS'4'
aa(lp62
S'det'
p63
aS'6'
aS'5'
aa(lp64
S'dep'
p65
aS'4'
aS'6'
aa(lp66
S'prep_for'
p67
aS'12'
p68
aS'6'
aa(lp69
S'rel'
p70
aS'12'
p71
aS'7'
aa(lp72
S'det'
p73
aS'10'
p74
aS'9'
aa(lp75
S'nsubj'
p76
aS'12'
p77
aS'10'
p78
aa(lp79
S'aux'
p80
aS'12'
p81
aS'11'
p82
aa(lp83
S'rcmod'
p84
aS'6'
aS'12'
p85
aa(lp86
S'prep_in'
p87
aS'12'
p88
aS'14'
p89
aasS'srls'
p90
(lp91
(dp92
S'A0'
p93
S'Athlete sport country Country The country for which the athlete'
p94
sS'AM-TMP'
p95
S'in championships'
p96
sS'V'
g33
sasS'pos_seq'
p97
(lp98
S'NN'
p99
aS'NN'
p100
aS'NN'
p101
aS'NNP'
p102
aS'DT'
p103
aS'NN'
p104
aS'IN'
p105
aS'WDT'
p106
aS'DT'
p107
aS'NN'
p108
aS'VBZ'
p109
aS'VBG'
p110
aS'IN'
p111
aS'NNS'
p112
asS'ner_seq'
p113
(lp114
S'O'
aS'O'
aS'O'
aS'B-ORG'
p115
aS'E-ORG'
p116
aS'O'
aS'O'
aS'O'
aS'O'
aS'O'
aS'O'
aS'O'
aS'O'
aS'O'
assb.