ccopy_reg
_reconstructor
p1
(c__main__
KBproperty
p2
c__builtin__
object
p3
NtRp4
(dp5
S'comment'
p6
S'the image size expressed in pixels'
p7
sS'domain'
p8
S''
sS'instances_count'
p9
S'1659'
p10
sS'label'
p11
S'image size px'
p12
sS'range'
p13
S'integer '
p14
sS'prop_uri'
p15
S"'http://dbpedia.org/ontology/imageSize'"
p16
sS'annotations'
p17
(dp18
S'bag_of_words'
p19
(lp20
S'image'
p21
aS'size'
p22
aS'px'
p23
aS'integer'
p24
aS'the'
p25
aS'image'
p26
aS'size'
p27
aS'expressed'
p28
aS'in'
p29
aS'pixels'
p30
asS'chunk_seq'
p31
(lp32
S'B-NP'
p33
aS'I-NP'
p34
aS'I-NP'
p35
aS'E-NP'
p36
aS'B-NP'
p37
aS'I-NP'
p38
aS'E-NP'
p39
aS'S-VP'
p40
aS'S-PP'
p41
aS'S-NP'
p42
asS'dep_seq'
p43
(lp44
(lp45
S'nn'
p46
aS'4'
aS'1'
aa(lp47
S'nn'
p48
aS'4'
aS'2'
aa(lp49
S'nn'
p50
aS'4'
aS'3'
aa(lp51
S'dep'
p52
aS'7'
aS'4'
aa(lp53
S'det'
p54
aS'7'
aS'5'
aa(lp55
S'nn'
p56
aS'7'
aS'6'
aa(lp57
S'root'
p58
aS'0'
aS'7'
aa(lp59
S'partmod'
p60
aS'7'
aS'8'
aa(lp61
S'prep_in'
p62
aS'8'
aS'10'
p63
aasS'srls'
p64
(lp65
(dp66
S'A0'
p67
S'image size px integer the image size'
p68
sS'AM-LOC'
p69
S'in pixels'
p70
sS'V'
g28
sasS'pos_seq'
p71
(lp72
S'NN'
p73
aS'NN'
p74
aS'NN'
p75
aS'NN'
p76
aS'DT'
p77
aS'NN'
p78
aS'NN'
p79
aS'VBN'
p80
aS'IN'
p81
aS'NNS'
p82
asS'ner_seq'
p83
(lp84
S'O'
aS'O'
aS'O'
aS'O'
aS'O'
aS'O'
aS'O'
aS'O'
aS'O'
aS'O'
assb.