ccopy_reg
_reconstructor
p1
(c__main__
KBproperty
p2
c__builtin__
object
p3
NtRp4
(dp5
S'comment'
p6
S''
sS'domain'
p7
S'Golf Course '
p8
sS'instances_count'
p9
S'0'
sS'label'
p10
S'number of holes'
p11
sS'range'
p12
S'integer '
p13
sS'prop_uri'
p14
S"'http://dbpedia.org/ontology/numberOfHoles'"
p15
sS'annotations'
p16
(dp17
S'bag_of_words'
p18
(lp19
S'Golf'
p20
aS'Course'
p21
aS'number'
p22
aS'of'
p23
aS'holes'
p24
aS'integer'
p25
asS'chunk_seq'
p26
(lp27
S'B-NP'
p28
aS'I-NP'
p29
aS'E-NP'
p30
aS'S-PP'
p31
aS'S-NP'
p32
aS'S-ADJP'
p33
asS'dep_seq'
p34
(lp35
(lp36
S'nn'
p37
aS'3'
aS'1'
aa(lp38
S'nn'
p39
aS'3'
aS'2'
aa(lp40
S'dep'
p41
aS'6'
aS'3'
aa(lp42
S'prep_of'
p43
aS'3'
aS'5'
aa(lp44
S'root'
p45
aS'0'
aS'6'
aasS'srls'
p46
(lp47
sS'pos_seq'
p48
(lp49
S'NNP'
p50
aS'NNP'
p51
aS'NN'
p52
aS'IN'
p53
aS'NNS'
p54
aS'.'
asS'ner_seq'
p55
(lp56
S'O'
aS'O'
aS'O'
aS'O'
aS'O'
aS'O'
assb.