ccopy_reg
_reconstructor
p1
(c__main__
KBproperty
p2
c__builtin__
object
p3
NtRp4
(dp5
S'comment'
p6
S'Standard iconographic elements used when depicting a Saint: pontifical episcopal insignia martyrdom instruments'
p7
sS'domain'
p8
S'Saint '
p9
sS'instances_count'
p10
S'0'
sS'label'
p11
S'iconographic attributes'
p12
sS'range'
p13
S'lang String '
p14
sS'prop_uri'
p15
S"'http://dbpedia.org/ontology/iconographicAttributes'"
p16
sS'annotations'
p17
(dp18
S'bag_of_words'
p19
(lp20
S'Saint'
p21
aS'iconographic'
p22
aS'attributes'
p23
aS'lang'
p24
aS'String'
p25
aS'Standard'
p26
aS'iconographic'
p27
aS'elements'
p28
aS'used'
p29
aS'when'
p30
aS'depicting'
p31
aS'a'
aS'Saint'
p32
aS':'
aS'pontifical'
p33
aS'episcopal'
p34
aS'insignia'
p35
aS'martyrdom'
p36
aS'instruments'
p37
asS'chunk_seq'
p38
(lp39
S'B-NP'
p40
aS'I-NP'
p41
aS'I-NP'
p42
aS'I-NP'
p43
aS'I-NP'
p44
aS'I-NP'
p45
aS'I-NP'
p46
aS'E-NP'
p47
aS'S-VP'
p48
aS'S-ADVP'
p49
aS'S-VP'
p50
aS'B-NP'
p51
aS'E-NP'
p52
aS'O'
aS'B-NP'
p53
aS'I-NP'
p54
aS'I-NP'
p55
aS'I-NP'
p56
aS'E-NP'
p57
asS'dep_seq'
p58
(lp59
(lp60
S'nn'
p61
aS'3'
aS'1'
aa(lp62
S'amod'
p63
aS'3'
aS'2'
aa(lp64
S'root'
p65
aS'0'
aS'3'
aa(lp66
S'amod'
p67
aS'3'
aS'4'
aa(lp68
S'nn'
p69
aS'8'
aS'5'
aa(lp70
S'nn'
p71
aS'8'
aS'6'
aa(lp72
S'amod'
p73
aS'8'
aS'7'
aa(lp74
S'dep'
p75
aS'3'
aS'8'
aa(lp76
S'partmod'
p77
aS'8'
aS'9'
aa(lp78
S'advmod'
p79
aS'11'
p80
aS'10'
p81
aa(lp82
S'advcl'
p83
aS'9'
aS'11'
p84
aa(lp85
S'det'
p86
aS'13'
p87
aS'12'
p88
aa(lp89
S'dobj'
p90
aS'11'
p91
aS'13'
p92
aa(lp93
S'amod'
p94
aS'19'
p95
aS'15'
p96
aa(lp97
S'amod'
p98
aS'19'
p99
aS'16'
p100
aa(lp101
S'nn'
p102
aS'19'
p103
aS'17'
p104
aa(lp105
S'nn'
p106
aS'19'
p107
aS'18'
p108
aa(lp109
S'dep'
p110
aS'13'
p111
aS'19'
p112
aasS'srls'
p113
(lp114
(dp115
S'A1'
p116
S'Saint iconographic attributes lang String Standard iconographic elements'
p117
sS'AM-TMP'
p118
S'when depicting a Saint : pontifical episcopal insignia martyrdom instruments'
p119
sS'V'
g29
sa(dp120
S'A1'
p121
S'a Saint : pontifical episcopal insignia martyrdom instruments'
p122
sS'A0'
p123
S'Saint iconographic attributes lang String Standard iconographic elements'
p124
sS'V'
g31
sasS'pos_seq'
p125
(lp126
S'NNP'
p127
aS'JJ'
p128
aS'NNS'
p129
aS'VBG'
p130
aS'NNP'
p131
aS'NNP'
p132
aS'JJ'
p133
aS'NNS'
p134
aS'VBN'
p135
aS'WRB'
p136
aS'VBG'
p137
aS'DT'
p138
aS'NNP'
p139
aS':'
aS'JJ'
p140
aS'JJ'
p141
aS'NN'
p142
aS'NN'
p143
aS'NNS'
p144
asS'ner_seq'
p145
(lp146
S'O'
aS'O'
aS'O'
aS'O'
aS'B-MISC'
p147
aS'E-MISC'
p148
aS'O'
aS'O'
aS'O'
aS'O'
aS'O'
aS'O'
aS'O'
aS'O'
aS'O'
aS'O'
aS'O'
aS'O'
aS'O'
assb.