ccopy_reg
_reconstructor
p1
(c__main__
KBproperty
p2
c__builtin__
object
p3
NtRp4
(dp5
S'comment'
p6
S'page number'
p7
sS'domain'
p8
S'Reference '
p9
sS'instances_count'
p10
S'0'
sS'label'
p11
g7
sS'range'
p12
S'string '
p13
sS'prop_uri'
p14
S"'http://dbpedia.org/ontology/atPage'"
p15
sS'annotations'
p16
(dp17
S'bag_of_words'
p18
(lp19
S'Reference'
p20
aS'at'
p21
aS'Page'
p22
aS'string'
p23
aS'page'
p24
aS'number'
p25
asS'chunk_seq'
p26
(lp27
S'S-NP'
p28
aS'S-PP'
p29
aS'B-NP'
p30
aS'I-NP'
p31
aS'I-NP'
p32
aS'E-NP'
p33
asS'dep_seq'
p34
(lp35
(lp36
S'root'
p37
aS'0'
aS'1'
aa(lp38
S'nn'
p39
aS'6'
aS'3'
aa(lp40
S'nn'
p41
aS'6'
aS'4'
aa(lp42
S'nn'
p43
aS'6'
aS'5'
aa(lp44
S'prep_at'
p45
aS'1'
aS'6'
aasS'srls'
p46
(lp47
sS'pos_seq'
p48
(lp49
S'NN'
p50
aS'IN'
p51
aS'NNP'
p52
aS'NN'
p53
aS'NN'
p54
aS'NN'
p55
asS'ner_seq'
p56
(lp57
S'O'
aS'O'
aS'O'
aS'O'
aS'O'
aS'O'
assb.