ccopy_reg
_reconstructor
p1
(c__main__
KBproperty
p2
c__builtin__
object
p3
NtRp4
(dp5
S'comment'
p6
S'A game artist is an artist who creates art for one or more types of games. Game artists are responsible for all of the aspects of game development that call for visual art.'
p7
sS'domain'
p8
S'Video Game '
p9
sS'instances_count'
p10
S'759'
p11
sS'label'
p12
S'game artist'
p13
sS'range'
p14
S'Person '
p15
sS'prop_uri'
p16
S"'http://dbpedia.org/ontology/gameArtist'"
p17
sS'annotations'
p18
(dp19
S'bag_of_words'
p20
(lp21
S'Video'
p22
aS'Game'
p23
aS'game'
p24
aS'artist'
p25
aS'Person'
p26
aS'A'
aS'game'
p27
aS'artist'
p28
aS'is'
p29
aS'an'
p30
aS'artist'
p31
aS'who'
p32
aS'creates'
p33
aS'art'
p34
aS'for'
p35
aS'one'
p36
aS'or'
p37
aS'more'
p38
aS'types'
p39
aS'of'
p40
aS'games'
p41
aS'.'
aS'Game'
p42
aS'artists'
p43
aS'are'
p44
aS'responsible'
p45
aS'for'
p46
aS'all'
p47
aS'of'
p48
aS'the'
p49
aS'aspects'
p50
aS'of'
p51
aS'game'
p52
aS'development'
p53
aS'that'
p54
aS'call'
p55
aS'for'
p56
aS'visual'
p57
aS'art.'
p58
asS'chunk_seq'
p59
(lp60
S'B-NP'
p61
aS'I-NP'
p62
aS'I-NP'
p63
aS'I-NP'
p64
aS'E-NP'
p65
aS'B-NP'
p66
aS'I-NP'
p67
aS'E-NP'
p68
aS'S-VP'
p69
aS'B-NP'
p70
aS'E-NP'
p71
aS'S-NP'
p72
aS'S-VP'
p73
aS'S-NP'
p74
aS'S-PP'
p75
aS'B-NP'
p76
aS'I-NP'
p77
aS'I-NP'
p78
aS'E-NP'
p79
aS'S-PP'
p80
aS'S-NP'
p81
aS'O'
aS'B-NP'
p82
aS'E-NP'
p83
aS'S-VP'
p84
aS'S-ADJP'
p85
aS'S-PP'
p86
aS'S-NP'
p87
aS'S-PP'
p88
aS'B-NP'
p89
aS'E-NP'
p90
aS'S-PP'
p91
aS'B-NP'
p92
aS'E-NP'
p93
aS'S-NP'
p94
aS'S-VP'
p95
aS'S-PP'
p96
aS'B-NP'
p97
aS'E-NP'
p98
asS'dep_seq'
p99
(lp100
(lp101
S'nn'
p102
aS'5'
aS'1'
aa(lp103
S'nn'
p104
aS'5'
aS'2'
aa(lp105
S'nn'
p106
aS'5'
aS'3'
aa(lp107
S'nn'
p108
aS'5'
aS'4'
aa(lp109
S'root'
p110
aS'0'
aS'5'
aa(lp111
S'det'
p112
aS'8'
aS'6'
aa(lp113
S'nn'
p114
aS'8'
aS'7'
aa(lp115
S'nsubj'
p116
aS'9'
aS'8'
aa(lp117
S'rcmod'
p118
aS'5'
aS'9'
aa(lp119
S'det'
p120
aS'11'
p121
aS'10'
p122
aa(lp123
S'nsubj'
p124
aS'13'
p125
aS'11'
p126
aa(lp127
S'nsubj'
p128
aS'26'
p129
aS'11'
p130
aa(lp131
S'rcmod'
p132
aS'11'
p133
aS'13'
p134
aa(lp135
S'dobj'
p136
aS'13'
p137
aS'14'
p138
aa(lp139
S'num'
p140
aS'19'
p141
aS'16'
p142
aa(lp143
S'conj_or'
p144
aS'16'
p145
aS'18'
p146
aa(lp147
S'prep_for'
p148
aS'14'
p149
aS'19'
p150
aa(lp151
S'nn'
p152
aS'24'
p153
aS'21'
p154
aa(lp155
S'nn'
p156
aS'24'
p157
aS'23'
p158
aa(lp159
S'prep_of'
p160
aS'19'
p161
aS'24'
p162
aa(lp163
S'cop'
p164
aS'26'
p165
aS'25'
p166
aa(lp167
S'ccomp'
p168
aS'9'
aS'26'
p169
aa(lp170
S'prep_for'
p171
aS'26'
p172
aS'28'
p173
aa(lp174
S'det'
p175
aS'31'
p176
aS'30'
p177
aa(lp178
S'prep_of'
p179
aS'28'
p180
aS'31'
p181
aa(lp182
S'nsubj'
p183
aS'36'
p184
aS'31'
p185
aa(lp186
S'nn'
p187
aS'34'
p188
aS'33'
p189
aa(lp190
S'prep_of'
p191
aS'31'
p192
aS'34'
p193
aa(lp194
S'rcmod'
p195
aS'31'
p196
aS'36'
p197
aa(lp198
S'prep_for'
p199
aS'36'
p200
aS'38'
p201
aa(lp202
S'punct'
p203
aS'38'
p204
aS'39'
p205
aasS'srls'
p206
(lp207
(dp208
S'A1'
p209
S'art for one or more types of games'
p210
sS'A0'
p211
S'an artist'
p212
sS'R-A0'
p213
g32
sS'V'
g33
sa(dp214
S'A1'
p215
S'for visual art.'
p216
sS'R-A0'
p217
g54
sS'V'
g55
sasS'pos_seq'
p218
(lp219
S'NNP'
p220
aS'NNP'
p221
aS'NN'
p222
aS'NN'
p223
aS'NN'
p224
aS'DT'
p225
aS'NN'
p226
aS'NN'
p227
aS'VBZ'
p228
aS'DT'
p229
aS'NN'
p230
aS'WP'
p231
aS'VBZ'
p232
aS'NN'
p233
aS'IN'
p234
aS'CD'
p235
aS'CC'
p236
aS'JJR'
p237
aS'NNS'
p238
aS'IN'
p239
aS'NNS'
p240
aS'.'
aS'NNP'
p241
aS'NNS'
p242
aS'VBP'
p243
aS'JJ'
p244
aS'IN'
p245
aS'DT'
p246
aS'IN'
p247
aS'DT'
p248
aS'NNS'
p249
aS'IN'
p250
aS'NN'
p251
aS'NN'
p252
aS'WDT'
p253
aS'VBP'
p254
aS'IN'
p255
aS'JJ'
p256
aS'.'
asS'ner_seq'
p257
(lp258
S'O'
aS'O'
aS'O'
aS'O'
aS'O'
aS'O'
aS'O'
aS'O'
aS'O'
aS'O'
aS'O'
aS'O'
aS'O'
aS'O'
aS'O'
aS'O'
aS'O'
aS'O'
aS'O'
aS'O'
aS'O'
aS'O'
aS'O'
aS'O'
aS'O'
aS'O'
aS'O'
aS'O'
aS'O'
aS'O'
aS'O'
aS'O'
aS'O'
aS'O'
aS'O'
aS'O'
aS'O'
aS'O'
aS'O'
assb.