ccopy_reg
_reconstructor
p1
(c__main__
KBproperty
p2
c__builtin__
object
p3
NtRp4
(dp5
S'comment'
p6
S'Dewey Decimal Classification'
p7
sS'domain'
p8
S'Work '
p9
sS'instances_count'
p10
S'5478'
p11
sS'label'
p12
g7
sS'range'
p13
S'string '
p14
sS'prop_uri'
p15
S"'http://dbpedia.org/ontology/dcc'"
p16
sS'annotations'
p17
(dp18
S'bag_of_words'
p19
(lp20
S'Work'
p21
aS'dcc'
p22
aS'string'
p23
aS'Dewey'
p24
aS'Decimal'
p25
aS'Classification'
p26
asS'chunk_seq'
p27
(lp28
S'B-NP'
p29
aS'I-NP'
p30
aS'I-NP'
p31
aS'I-NP'
p32
aS'I-NP'
p33
aS'E-NP'
p34
asS'dep_seq'
p35
(lp36
(lp37
S'root'
p38
aS'0'
aS'1'
aa(lp39
S'nn'
p40
aS'3'
aS'2'
aa(lp41
S'dep'
p42
aS'1'
aS'3'
aa(lp43
S'nn'
p44
aS'6'
aS'4'
aa(lp45
S'nn'
p46
aS'6'
aS'5'
aa(lp47
S'dep'
p48
aS'1'
aS'6'
aasS'srls'
p49
(lp50
sS'pos_seq'
p51
(lp52
S'NN'
p53
aS'NN'
p54
aS'NN'
p55
aS'NNP'
p56
aS'NNP'
p57
aS'NN'
p58
asS'ner_seq'
p59
(lp60
S'O'
aS'O'
aS'O'
aS'B-MISC'
p61
aS'I-MISC'
p62
aS'E-MISC'
p63
assb.