ccopy_reg
_reconstructor
p1
(c__main__
KBproperty
p2
c__builtin__
object
p3
NtRp4
(dp5
S'comment'
p6
S'String designation of the WrittenWork describing the resource'
p7
sS'domain'
p8
S''
sS'instances_count'
p9
S'0'
sS'label'
p10
g7
sS'range'
p11
S'string '
p12
sS'prop_uri'
p13
S"'http://dbpedia.org/ontology/documentDesignation'"
p14
sS'annotations'
p15
(dp16
S'bag_of_words'
p17
(lp18
S'document'
p19
aS'Designation'
p20
aS'string'
p21
aS'String'
p22
aS'designation'
p23
aS'of'
p24
aS'the'
p25
aS'WrittenWork'
p26
aS'describing'
p27
aS'the'
p28
aS'resource'
p29
asS'chunk_seq'
p30
(lp31
S'B-NP'
p32
aS'I-NP'
p33
aS'I-NP'
p34
aS'I-NP'
p35
aS'E-NP'
p36
aS'S-PP'
p37
aS'B-NP'
p38
aS'E-NP'
p39
aS'S-VP'
p40
aS'B-NP'
p41
aS'E-NP'
p42
asS'dep_seq'
p43
(lp44
(lp45
S'nn'
p46
aS'5'
aS'1'
aa(lp47
S'nn'
p48
aS'5'
aS'2'
aa(lp49
S'nn'
p50
aS'5'
aS'3'
aa(lp51
S'nn'
p52
aS'5'
aS'4'
aa(lp53
S'root'
p54
aS'0'
aS'5'
aa(lp55
S'det'
p56
aS'8'
aS'7'
aa(lp57
S'prep_of'
p58
aS'5'
aS'8'
aa(lp59
S'partmod'
p60
aS'5'
aS'9'
aa(lp61
S'det'
p62
aS'11'
p63
aS'10'
p64
aa(lp65
S'dobj'
p66
aS'9'
aS'11'
p67
aasS'srls'
p68
(lp69
(dp70
S'A0'
p71
S'document Designation string String designation of the WrittenWork  the resource'
p72
sS'V'
g27
sasS'pos_seq'
p73
(lp74
S'NN'
p75
aS'NN'
p76
aS'NN'
p77
aS'NN'
p78
aS'NN'
p79
aS'IN'
p80
aS'DT'
p81
aS'NNP'
p82
aS'VBG'
p83
aS'DT'
p84
aS'NN'
p85
asS'ner_seq'
p86
(lp87
S'O'
aS'O'
aS'O'
aS'O'
aS'O'
aS'O'
aS'O'
aS'S-MISC'
p88
aS'O'
aS'O'
aS'O'
assb.