ccopy_reg
_reconstructor
p1
(c__main__
KBproperty
p2
c__builtin__
object
p3
NtRp4
(dp5
S'comment'
p6
S''
sS'domain'
p7
S''
sS'instances_count'
p8
S'5'
sS'label'
p9
S'designated other2 name'
p10
sS'range'
p11
S''
sS'prop_uri'
p12
S"'http://dbpedia.org/property/designatedOther2Name'"
p13
sS'annotations'
p14
(dp15
S'bag_of_words'
p16
(lp17
S'designated'
p18
aS'other2'
p19
aS'name'
p20
asS'chunk_seq'
p21
(lp22
S'B-NP'
p23
aS'I-NP'
p24
aS'E-NP'
p25
asS'dep_seq'
p26
(lp27
(lp28
S'amod'
p29
aS'3'
aS'1'
aa(lp30
S'nn'
p31
aS'3'
aS'2'
aa(lp32
S'root'
p33
aS'0'
aS'3'
aasS'srls'
p34
(lp35
(dp36
S'A1'
p37
g19
sS'V'
g18
sasS'pos_seq'
p38
(lp39
S'VBN'
p40
aS'NNS'
p41
aS'NN'
p42
asS'ner_seq'
p43
(lp44
S'O'
aS'O'
aS'O'
assb.