ccopy_reg
_reconstructor
p1
(c__main__
KBproperty
p2
c__builtin__
object
p3
NtRp4
(dp5
S'comment'
p6
S'Electrification system e.g. Third rail Overhead catenary.'
p7
sS'domain'
p8
S'Route Of Transportation '
p9
sS'instances_count'
p10
S'1677'
p11
sS'label'
p12
S'type of electrification'
p13
sS'range'
p14
S''
sS'prop_uri'
p15
S"'http://dbpedia.org/ontology/typeOfElectrification'"
p16
sS'annotations'
p17
(dp18
S'bag_of_words'
p19
(lp20
S'Route'
p21
aS'Of'
p22
aS'Transportation'
p23
aS'type'
p24
aS'of'
p25
aS'electrification'
p26
aS'Electrification'
p27
aS'system'
p28
aS'e.g.'
p29
aS'Third'
p30
aS'rail'
p31
aS'Overhead'
p32
aS'catenary'
p33
aS'.'
asS'chunk_seq'
p34
(lp35
S'S-NP'
p36
aS'S-PP'
p37
aS'B-NP'
p38
aS'E-NP'
p39
aS'S-PP'
p40
aS'B-NP'
p41
aS'I-NP'
p42
aS'E-NP'
p43
aS'S-PP'
p44
aS'B-NP'
p45
aS'I-NP'
p46
aS'I-NP'
p47
aS'E-NP'
p48
aS'O'
asS'dep_seq'
p49
(lp50
(lp51
S'root'
p52
aS'0'
aS'1'
aa(lp53
S'prep_of'
p54
aS'1'
aS'3'
aa(lp55
S'dep'
p56
aS'1'
aS'4'
aa(lp57
S'nn'
p58
aS'8'
aS'6'
aa(lp59
S'nn'
p60
aS'8'
aS'7'
aa(lp61
S'prep_of'
p62
aS'4'
aS'8'
aa(lp63
S'amod'
p64
aS'13'
p65
aS'10'
p66
aa(lp67
S'nn'
p68
aS'13'
p69
aS'11'
p70
aa(lp71
S'nn'
p72
aS'13'
p73
aS'12'
p74
aa(lp75
S'prep_e.g.'
p76
aS'4'
aS'13'
p77
aasS'srls'
p78
(lp79
sS'pos_seq'
p80
(lp81
S'NNP'
p82
aS'IN'
p83
aS'NNP'
p84
aS'NN'
p85
aS'IN'
p86
aS'NN'
p87
aS'NN'
p88
aS'NN'
p89
aS'IN'
p90
aS'JJ'
p91
aS'NN'
p92
aS'NNP'
p93
aS'NN'
p94
aS'.'
asS'ner_seq'
p95
(lp96
S'B-ORG'
p97
aS'I-ORG'
p98
aS'E-ORG'
p99
aS'O'
aS'O'
aS'O'
aS'O'
aS'O'
aS'O'
aS'O'
aS'O'
aS'O'
aS'O'
aS'O'
assb.