ccopy_reg
_reconstructor
p1
(c__main__
KBproperty
p2
c__builtin__
object
p3
NtRp4
(dp5
S'comment'
p6
S'Reserved for DBpedia.'
p7
sS'domain'
p8
S''
sS'instances_count'
p9
S'15227118'
p10
sS'label'
p11
S'Wikipage revision ID'
p12
sS'range'
p13
S'integer '
p14
sS'prop_uri'
p15
S"'http://dbpedia.org/ontology/wikiPageRevisionID'"
p16
sS'annotations'
p17
(dp18
S'bag_of_words'
p19
(lp20
S'Wikipage'
p21
aS'revision'
p22
aS'ID'
p23
aS'integer'
p24
aS'Reserved'
p25
aS'for'
p26
aS'DBpedia'
p27
aS'.'
asS'chunk_seq'
p28
(lp29
S'B-NP'
p30
aS'I-NP'
p31
aS'I-NP'
p32
aS'E-NP'
p33
aS'S-VP'
p34
aS'S-PP'
p35
aS'S-NP'
p36
aS'O'
asS'dep_seq'
p37
(lp38
(lp39
S'nn'
p40
aS'4'
aS'1'
aa(lp41
S'nn'
p42
aS'4'
aS'2'
aa(lp43
S'nn'
p44
aS'4'
aS'3'
aa(lp45
S'root'
p46
aS'0'
aS'4'
aa(lp47
S'partmod'
p48
aS'4'
aS'5'
aa(lp49
S'prep_for'
p50
aS'5'
aS'7'
aasS'srls'
p51
(lp52
(dp53
S'A1'
p54
S'Wikipage revision ID integer'
p55
sS'A2'
p56
S'for DBpedia'
p57
sS'V'
g25
sasS'pos_seq'
p58
(lp59
S'NNP'
p60
aS'NN'
p61
aS'NN'
p62
aS'NN'
p63
aS'VBN'
p64
aS'IN'
p65
aS'NNP'
p66
aS'.'
asS'ner_seq'
p67
(lp68
S'O'
aS'O'
aS'O'
aS'O'
aS'O'
aS'O'
aS'S-PER'
p69
aS'O'
assb.