ccopy_reg
_reconstructor
p1
(c__main__
KBproperty
p2
c__builtin__
object
p3
NtRp4
(dp5
S'comment'
p6
S'nombre de personnes ayant une license pour pratiquer cette activit\\xc3\\xa9'
p7
sS'domain'
p8
S'Activity '
p9
sS'instances_count'
p10
S'0'
sS'label'
p11
S'number of licensed'
p12
sS'range'
p13
S'non Negative Integer '
p14
sS'prop_uri'
p15
S"'http://dbpedia.org/ontology/numberOfPeopleLicensed'"
p16
sS'annotations'
p17
(dp18
S'bag_of_words'
p19
(lp20
S'Activity'
p21
aS'number'
p22
aS'of'
p23
aS'licensed'
p24
aS'non'
p25
aS'Negative'
p26
aS'Integer'
p27
aS'nombre'
p28
aS'de'
p29
aS'personnes'
p30
aS'ayant'
p31
aS'une'
p32
aS'license'
p33
aS'pour'
p34
aS'pratiquer'
p35
aS'cette'
p36
aS'activit'
p37
aS'\\'
aS'xc3'
p38
aS'\\'
aS'xa9'
p39
asS'chunk_seq'
p40
(lp41
S'B-NP'
p42
aS'E-NP'
p43
aS'S-PP'
p44
aS'B-NP'
p45
aS'I-NP'
p46
aS'I-NP'
p47
aS'I-NP'
p48
aS'I-NP'
p49
aS'I-NP'
p50
aS'I-NP'
p51
aS'I-NP'
p52
aS'I-NP'
p53
aS'I-NP'
p54
aS'I-NP'
p55
aS'I-NP'
p56
aS'I-NP'
p57
aS'E-NP'
p58
aS'O'
aS'O'
aS'O'
aS'O'
asS'dep_seq'
p59
(lp60
(lp61
S'nn'
p62
aS'2'
aS'1'
aa(lp63
S'root'
p64
aS'0'
aS'2'
aa(lp65
S'dep'
p66
aS'8'
aS'3'
aa(lp67
S'amod'
p68
aS'8'
aS'4'
aa(lp69
S'amod'
p70
aS'8'
aS'5'
aa(lp71
S'amod'
p72
aS'8'
aS'6'
aa(lp73
S'nn'
p74
aS'8'
aS'7'
aa(lp75
S'dep'
p76
aS'2'
aS'8'
aa(lp77
S'nn'
p78
aS'8'
aS'9'
aa(lp79
S'nn'
p80
aS'8'
aS'10'
p81
aa(lp82
S'nn'
p83
aS'8'
aS'11'
p84
aa(lp85
S'nn'
p86
aS'8'
aS'12'
p87
aa(lp88
S'nn'
p89
aS'8'
aS'13'
p90
aa(lp91
S'nn'
p92
aS'8'
aS'14'
p93
aa(lp94
S'nn'
p95
aS'8'
aS'15'
p96
aa(lp97
S'nn'
p98
aS'8'
aS'16'
p99
aa(lp100
S'nn'
p101
aS'8'
aS'17'
p102
aa(lp103
S'nn'
p104
aS'8'
aS'18'
p105
aa(lp106
S'nn'
p107
aS'8'
aS'19'
p108
aa(lp109
S'nn'
p110
aS'8'
aS'20'
p111
aa(lp112
S'dep'
p113
aS'8'
aS'21'
p114
aasS'srls'
p115
(lp116
sS'pos_seq'
p117
(lp118
S'NN'
p119
aS'NN'
p120
aS'IN'
p121
aS'JJ'
p122
aS'JJ'
p123
aS'JJ'
p124
aS'NN'
p125
aS'NN'
p126
aS'FW'
p127
aS'FW'
p128
aS'FW'
p129
aS'FW'
p130
aS'FW'
p131
aS'FW'
p132
aS'FW'
p133
aS'FW'
p134
aS'FW'
p135
aS'FW'
p136
aS'FW'
p137
aS'FW'
p138
aS'FW'
p139
asS'ner_seq'
p140
(lp141
S'O'
aS'O'
aS'O'
aS'O'
aS'O'
aS'B-MISC'
p142
aS'E-MISC'
p143
aS'O'
aS'O'
aS'O'
aS'O'
aS'O'
aS'O'
aS'O'
aS'O'
aS'O'
aS'O'
aS'O'
aS'O'
aS'O'
aS'O'
assb.