ccopy_reg
_reconstructor
p1
(c__main__
KBproperty
p2
c__builtin__
object
p3
NtRp4
(dp5
S'comment'
p6
S'A referral to the relevant system of law'
p7
sS'domain'
p8
S'Legal Case '
p9
sS'instances_count'
p10
S'0'
sS'label'
p11
S'system of law'
p12
sS'range'
p13
S'System Of Law '
p14
sS'prop_uri'
p15
S"'http://dbpedia.org/ontology/systemOfLaw'"
p16
sS'annotations'
p17
(dp18
S'bag_of_words'
p19
(lp20
S'Legal'
p21
aS'Case'
p22
aS'system'
p23
aS'of'
p24
aS'law'
p25
aS'System'
p26
aS'Of'
p27
aS'Law'
p28
aS'A'
aS'referral'
p29
aS'to'
p30
aS'the'
p31
aS'relevant'
p32
aS'system'
p33
aS'of'
p34
aS'law'
p35
asS'chunk_seq'
p36
(lp37
S'B-NP'
p38
aS'I-NP'
p39
aS'E-NP'
p40
aS'S-PP'
p41
aS'B-NP'
p42
aS'E-NP'
p43
aS'S-PP'
p44
aS'S-NP'
p45
aS'B-NP'
p46
aS'E-NP'
p47
aS'S-PP'
p48
aS'B-NP'
p49
aS'I-NP'
p50
aS'E-NP'
p51
aS'S-PP'
p52
aS'S-NP'
p53
asS'dep_seq'
p54
(lp55
(lp56
S'nn'
p57
aS'3'
aS'1'
aa(lp58
S'nn'
p59
aS'3'
aS'2'
aa(lp60
S'root'
p61
aS'0'
aS'3'
aa(lp62
S'nn'
p63
aS'6'
aS'5'
aa(lp64
S'prep_of'
p65
aS'3'
aS'6'
aa(lp66
S'prep_of'
p67
aS'6'
aS'8'
aa(lp68
S'det'
p69
aS'10'
p70
aS'9'
aa(lp71
S'dep'
p72
aS'3'
aS'10'
p73
aa(lp74
S'det'
p75
aS'14'
p76
aS'12'
p77
aa(lp78
S'amod'
p79
aS'14'
p80
aS'13'
p81
aa(lp82
S'prep_to'
p83
aS'3'
aS'14'
p84
aa(lp85
S'prep_of'
p86
aS'14'
p87
aS'16'
p88
aasS'srls'
p89
(lp90
sS'pos_seq'
p91
(lp92
S'NNP'
p93
aS'NNP'
p94
aS'NN'
p95
aS'IN'
p96
aS'NN'
p97
aS'NN'
p98
aS'IN'
p99
aS'NN'
p100
aS'DT'
p101
aS'NN'
p102
aS'TO'
p103
aS'DT'
p104
aS'JJ'
p105
aS'NN'
p106
aS'IN'
p107
aS'NN'
p108
asS'ner_seq'
p109
(lp110
S'O'
aS'O'
aS'O'
aS'O'
aS'O'
aS'B-ORG'
p111
aS'I-ORG'
p112
aS'E-ORG'
p113
aS'O'
aS'O'
aS'O'
aS'O'
aS'O'
aS'O'
aS'O'
aS'O'
assb.