ccopy_reg
_reconstructor
p1
(c__main__
KBproperty
p2
c__builtin__
object
p3
NtRp4
(dp5
S'comment'
p6
S'population metro density /sqkm'
p7
sS'domain'
p8
S'Populated Place '
p9
sS'instances_count'
p10
S'246'
p11
sS'label'
p12
g7
sS'range'
p13
S'double '
p14
sS'prop_uri'
p15
S"'http://dbpedia.org/ontology/populationMetroDensity'"
p16
sS'annotations'
p17
(dp18
S'bag_of_words'
p19
(lp20
S'Populated'
p21
aS'Place'
p22
aS'population'
p23
aS'Metro'
p24
aS'Density'
p25
aS'double'
p26
aS'population'
p27
aS'metro'
p28
aS'density'
p29
aS'/s'
p30
aS'qkm'
p31
asS'chunk_seq'
p32
(lp33
S'B-NP'
p34
aS'I-NP'
p35
aS'I-NP'
p36
aS'I-NP'
p37
aS'I-NP'
p38
aS'I-NP'
p39
aS'I-NP'
p40
aS'I-NP'
p41
aS'E-NP'
p42
aS'O'
aS'O'
asS'dep_seq'
p43
(lp44
(lp45
S'amod'
p46
aS'9'
aS'1'
aa(lp47
S'nn'
p48
aS'9'
aS'2'
aa(lp49
S'nn'
p50
aS'9'
aS'3'
aa(lp51
S'nn'
p52
aS'9'
aS'4'
aa(lp53
S'nn'
p54
aS'9'
aS'5'
aa(lp55
S'amod'
p56
aS'9'
aS'6'
aa(lp57
S'nn'
p58
aS'9'
aS'7'
aa(lp59
S'nn'
p60
aS'9'
aS'8'
aa(lp61
S'root'
p62
aS'0'
aS'9'
aa(lp63
S'nn'
p64
aS'9'
aS'10'
p65
aa(lp66
S'dep'
p67
aS'9'
aS'11'
p68
aasS'srls'
p69
(lp70
sS'pos_seq'
p71
(lp72
S'JJ'
p73
aS'NN'
p74
aS'NN'
p75
aS'NNP'
p76
aS'NNP'
p77
aS'JJ'
p78
aS'NN'
p79
aS'NN'
p80
aS'NN'
p81
aS'FW'
p82
aS'FW'
p83
asS'ner_seq'
p84
(lp85
S'O'
aS'O'
aS'O'
aS'B-MISC'
p86
aS'E-MISC'
p87
aS'O'
aS'O'
aS'O'
aS'O'
aS'O'
aS'O'
assb.