ccopy_reg
_reconstructor
p1
(c__main__
KBproperty
p2
c__builtin__
object
p3
NtRp4
(dp5
S'comment'
p6
S'City the thing is located.'
p7
sS'domain'
p8
S'Organisation '
p9
sS'instances_count'
p10
S'26361'
p11
sS'label'
p12
S'location city'
p13
sS'range'
p14
S'City '
p15
sS'prop_uri'
p16
S"'http://dbpedia.org/ontology/locationCity'"
p17
sS'annotations'
p18
(dp19
S'bag_of_words'
p20
(lp21
S'Organisation'
p22
aS'location'
p23
aS'city'
p24
aS'City'
p25
aS'City'
p26
aS'the'
p27
aS'thing'
p28
aS'is'
p29
aS'located'
p30
aS'.'
asS'chunk_seq'
p31
(lp32
S'B-NP'
p33
aS'I-NP'
p34
aS'I-NP'
p35
aS'I-NP'
p36
aS'E-NP'
p37
aS'B-NP'
p38
aS'E-NP'
p39
aS'B-VP'
p40
aS'E-VP'
p41
aS'O'
asS'dep_seq'
p42
(lp43
(lp44
S'nn'
p45
aS'5'
aS'1'
aa(lp46
S'nn'
p47
aS'5'
aS'2'
aa(lp48
S'nn'
p49
aS'5'
aS'3'
aa(lp50
S'nn'
p51
aS'5'
aS'4'
aa(lp52
S'root'
p53
aS'0'
aS'5'
aa(lp54
S'det'
p55
aS'7'
aS'6'
aa(lp56
S'nsubjpass'
p57
aS'9'
aS'7'
aa(lp58
S'auxpass'
p59
aS'9'
aS'8'
aa(lp60
S'rcmod'
p61
aS'5'
aS'9'
aasS'srls'
p62
(lp63
(dp64
S'A1'
p65
S'the thing'
p66
sS'V'
g30
sasS'pos_seq'
p67
(lp68
S'NN'
p69
aS'NN'
p70
aS'NN'
p71
aS'NNP'
p72
aS'NNP'
p73
aS'DT'
p74
aS'NN'
p75
aS'VBZ'
p76
aS'VBN'
p77
aS'.'
asS'ner_seq'
p78
(lp79
S'O'
aS'O'
aS'O'
aS'B-LOC'
p80
aS'E-LOC'
p81
aS'O'
aS'O'
aS'O'
aS'O'
aS'O'
assb.