ccopy_reg
_reconstructor
p1
(c__main__
KBproperty
p2
c__builtin__
object
p3
NtRp4
(dp5
S'comment'
p6
S'article in code book or statute book referred to in this legal case'
p7
sS'domain'
p8
S'Legal Case '
p9
sS'instances_count'
p10
S'0'
sS'label'
p11
S'legal article'
p12
sS'range'
p13
S'string '
p14
sS'prop_uri'
p15
S"'http://dbpedia.org/ontology/legalArticle'"
p16
sS'annotations'
p17
(dp18
S'bag_of_words'
p19
(lp20
S'Legal'
p21
aS'Case'
p22
aS'legal'
p23
aS'article'
p24
aS'string'
p25
aS'article'
p26
aS'in'
p27
aS'code'
p28
aS'book'
p29
aS'or'
p30
aS'statute'
p31
aS'book'
p32
aS'referred'
p33
aS'to'
p34
aS'in'
p35
aS'this'
p36
aS'legal'
p37
aS'case'
p38
asS'chunk_seq'
p39
(lp40
S'B-NP'
p41
aS'I-NP'
p42
aS'I-NP'
p43
aS'I-NP'
p44
aS'I-NP'
p45
aS'E-NP'
p46
aS'S-PP'
p47
aS'B-NP'
p48
aS'E-NP'
p49
aS'O'
aS'B-NP'
p50
aS'E-NP'
p51
aS'S-VP'
p52
aS'S-PP'
p53
aS'S-PP'
p54
aS'B-NP'
p55
aS'I-NP'
p56
aS'E-NP'
p57
asS'dep_seq'
p58
(lp59
(lp60
S'nn'
p61
aS'6'
aS'1'
aa(lp62
S'nn'
p63
aS'6'
aS'2'
aa(lp64
S'amod'
p65
aS'6'
aS'3'
aa(lp66
S'nn'
p67
aS'6'
aS'4'
aa(lp68
S'nn'
p69
aS'6'
aS'5'
aa(lp70
S'nsubj'
p71
aS'13'
p72
aS'6'
aa(lp73
S'nn'
p74
aS'9'
aS'8'
aa(lp75
S'prep_in'
p76
aS'6'
aS'9'
aa(lp77
S'nn'
p78
aS'12'
p79
aS'11'
p80
aa(lp81
S'conj_or'
p82
aS'9'
aS'12'
p83
aa(lp84
S'root'
p85
aS'0'
aS'13'
p86
aa(lp87
S'prep'
p88
aS'13'
p89
aS'14'
p90
aa(lp91
S'pcomp'
p92
aS'14'
p93
aS'15'
p94
aa(lp95
S'det'
p96
aS'18'
p97
aS'16'
p98
aa(lp99
S'amod'
p100
aS'18'
p101
aS'17'
p102
aa(lp103
S'pobj'
p104
aS'15'
p105
aS'18'
p106
aasS'srls'
p107
(lp108
(dp109
S'A1'
p110
S'to in this legal case'
p111
sS'A0'
p112
S'Legal Case legal article string article in code book or statute book'
p113
sS'V'
g33
sasS'pos_seq'
p114
(lp115
S'NNP'
p116
aS'NNP'
p117
aS'JJ'
p118
aS'NN'
p119
aS'NN'
p120
aS'NN'
p121
aS'IN'
p122
aS'NN'
p123
aS'NN'
p124
aS'CC'
p125
aS'NN'
p126
aS'NN'
p127
aS'VBD'
p128
aS'TO'
p129
aS'IN'
p130
aS'DT'
p131
aS'JJ'
p132
aS'NN'
p133
asS'ner_seq'
p134
(lp135
S'O'
aS'O'
aS'O'
aS'O'
aS'O'
aS'O'
aS'O'
aS'O'
aS'O'
aS'O'
aS'O'
aS'O'
aS'O'
aS'O'
aS'O'
aS'O'
aS'O'
aS'O'
assb.