ccopy_reg
_reconstructor
p1
(c__main__
KBproperty
p2
c__builtin__
object
p3
NtRp4
(dp5
S'comment'
p6
S'The date on which regular broadcasts began.'
p7
sS'domain'
p8
S'Broadcaster '
p9
sS'instances_count'
p10
S'13743'
p11
sS'label'
p12
S'first air date'
p13
sS'range'
p14
S'date '
p15
sS'prop_uri'
p16
S"'http://dbpedia.org/ontology/firstAirDate'"
p17
sS'annotations'
p18
(dp19
S'bag_of_words'
p20
(lp21
S'Broadcaster'
p22
aS'first'
p23
aS'air'
p24
aS'date'
p25
aS'date'
p26
aS'The'
p27
aS'date'
p28
aS'on'
p29
aS'which'
p30
aS'regular'
p31
aS'broadcasts'
p32
aS'began'
p33
aS'.'
asS'chunk_seq'
p34
(lp35
S'B-NP'
p36
aS'I-NP'
p37
aS'I-NP'
p38
aS'E-NP'
p39
aS'S-NP'
p40
aS'B-NP'
p41
aS'E-NP'
p42
aS'S-PP'
p43
aS'S-NP'
p44
aS'B-NP'
p45
aS'E-NP'
p46
aS'S-VP'
p47
aS'O'
asS'dep_seq'
p48
(lp49
(lp50
S'nn'
p51
aS'5'
aS'1'
aa(lp52
S'amod'
p53
aS'5'
aS'2'
aa(lp54
S'nn'
p55
aS'5'
aS'3'
aa(lp56
S'nn'
p57
aS'5'
aS'4'
aa(lp58
S'dep'
p59
aS'7'
aS'5'
aa(lp60
S'det'
p61
aS'7'
aS'6'
aa(lp62
S'root'
p63
aS'0'
aS'7'
aa(lp64
S'prep_on'
p65
aS'12'
p66
aS'7'
aa(lp67
S'rel'
p68
aS'12'
p69
aS'8'
aa(lp70
S'amod'
p71
aS'11'
p72
aS'10'
p73
aa(lp74
S'nsubj'
p75
aS'12'
p76
aS'11'
p77
aa(lp78
S'rcmod'
p79
aS'7'
aS'12'
p80
aasS'srls'
p81
(lp82
(dp83
S'A1'
p84
S'regular broadcasts'
p85
sS'R-A2'
p86
g30
sS'V'
g33
sasS'pos_seq'
p87
(lp88
S'NN'
p89
aS'JJ'
p90
aS'NN'
p91
aS'NN'
p92
aS'NN'
p93
aS'DT'
p94
aS'NN'
p95
aS'IN'
p96
aS'WDT'
p97
aS'JJ'
p98
aS'NNS'
p99
aS'VBD'
p100
aS'.'
asS'ner_seq'
p101
(lp102
S'O'
aS'O'
aS'O'
aS'O'
aS'O'
aS'O'
aS'O'
aS'O'
aS'O'
aS'O'
aS'O'
aS'O'
aS'O'
assb.