ccopy_reg
_reconstructor
p1
(c__main__
KBproperty
p2
c__builtin__
object
p3
NtRp4
(dp5
S'comment'
p6
S'winner of a competition in the single session to distinguish from the double session as in tennis'
p7
sS'domain'
p8
S'Sports Event '
p9
sS'instances_count'
p10
S'0'
sS'label'
p11
S'champion in single'
p12
sS'range'
p13
S'Athlete '
p14
sS'prop_uri'
p15
S"'http://dbpedia.org/ontology/championInSingle'"
p16
sS'annotations'
p17
(dp18
S'bag_of_words'
p19
(lp20
S'Sports'
p21
aS'Event'
p22
aS'champion'
p23
aS'in'
p24
aS'single'
p25
aS'Athlete'
p26
aS'winner'
p27
aS'of'
p28
aS'a'
aS'competition'
p29
aS'in'
p30
aS'the'
p31
aS'single'
p32
aS'session'
p33
aS'to'
p34
aS'distinguish'
p35
aS'from'
p36
aS'the'
p37
aS'double'
p38
aS'session'
p39
aS'as'
p40
aS'in'
p41
aS'tennis'
p42
asS'chunk_seq'
p43
(lp44
S'B-NP'
p45
aS'I-NP'
p46
aS'E-NP'
p47
aS'S-PP'
p48
aS'B-NP'
p49
aS'I-NP'
p50
aS'E-NP'
p51
aS'S-PP'
p52
aS'B-NP'
p53
aS'E-NP'
p54
aS'S-PP'
p55
aS'B-NP'
p56
aS'I-NP'
p57
aS'E-NP'
p58
aS'B-VP'
p59
aS'E-VP'
p60
aS'S-PP'
p61
aS'B-NP'
p62
aS'I-NP'
p63
aS'E-NP'
p64
aS'S-PP'
p65
aS'S-PP'
p66
aS'S-NP'
p67
asS'dep_seq'
p68
(lp69
(lp70
S'nn'
p71
aS'3'
aS'1'
aa(lp72
S'nn'
p73
aS'3'
aS'2'
aa(lp74
S'root'
p75
aS'0'
aS'3'
aa(lp76
S'amod'
p77
aS'7'
aS'5'
aa(lp78
S'nn'
p79
aS'7'
aS'6'
aa(lp80
S'prep_in'
p81
aS'3'
aS'7'
aa(lp82
S'det'
p83
aS'10'
p84
aS'9'
aa(lp85
S'prep_of'
p86
aS'7'
aS'10'
p87
aa(lp88
S'det'
p89
aS'14'
p90
aS'12'
p91
aa(lp92
S'amod'
p93
aS'14'
p94
aS'13'
p95
aa(lp96
S'prep_in'
p97
aS'10'
p98
aS'14'
p99
aa(lp100
S'aux'
p101
aS'16'
p102
aS'15'
p103
aa(lp104
S'infmod'
p105
aS'10'
p106
aS'16'
p107
aa(lp108
S'det'
p109
aS'20'
p110
aS'18'
p111
aa(lp112
S'amod'
p113
aS'20'
p114
aS'19'
p115
aa(lp116
S'prep_from'
p117
aS'16'
p118
aS'20'
p119
aa(lp120
S'prep'
p121
aS'16'
p122
aS'21'
p123
aa(lp124
S'pcomp'
p125
aS'21'
p126
aS'22'
p127
aa(lp128
S'pobj'
p129
aS'22'
p130
aS'23'
p131
aasS'srls'
p132
(lp133
(dp134
S'A0'
p135
S'Sports Event champion in single Athlete winner of a competition in the single session'
p136
sS'A2'
p137
S'from the double session  in tennis'
p138
sS'V'
g35
sasS'pos_seq'
p139
(lp140
S'NNS'
p141
aS'NN'
p142
aS'NN'
p143
aS'IN'
p144
aS'JJ'
p145
aS'NN'
p146
aS'NN'
p147
aS'IN'
p148
aS'DT'
p149
aS'NN'
p150
aS'IN'
p151
aS'DT'
p152
aS'JJ'
p153
aS'NN'
p154
aS'TO'
p155
aS'VB'
p156
aS'IN'
p157
aS'DT'
p158
aS'JJ'
p159
aS'NN'
p160
aS'IN'
p161
aS'IN'
p162
aS'NN'
p163
asS'ner_seq'
p164
(lp165
S'O'
aS'O'
aS'O'
aS'O'
aS'O'
aS'O'
aS'O'
aS'O'
aS'O'
aS'O'
aS'O'
aS'O'
aS'O'
aS'O'
aS'O'
aS'O'
aS'O'
aS'O'
aS'O'
aS'O'
aS'O'
aS'O'
aS'O'
assb.