ccopy_reg
_reconstructor
p1
(c__main__
KBproperty
p2
c__builtin__
object
p3
NtRp4
(dp5
S'comment'
p6
S'International Standard Identifier for Libraries and Related Organizations ISIL'
p7
sS'domain'
p8
S'Library '
p9
sS'instances_count'
p10
S'0'
sS'label'
p11
g7
sS'range'
p12
S'string '
p13
sS'prop_uri'
p14
S"'http://dbpedia.org/ontology/isil'"
p15
sS'annotations'
p16
(dp17
S'bag_of_words'
p18
(lp19
S'Library'
p20
aS'isil'
p21
aS'string'
p22
aS'International'
p23
aS'Standard'
p24
aS'Identifier'
p25
aS'for'
p26
aS'Libraries'
p27
aS'and'
p28
aS'Related'
p29
aS'Organizations'
p30
aS'ISIL'
p31
asS'chunk_seq'
p32
(lp33
S'B-NP'
p34
aS'I-NP'
p35
aS'I-NP'
p36
aS'I-NP'
p37
aS'I-NP'
p38
aS'E-NP'
p39
aS'S-PP'
p40
aS'B-NP'
p41
aS'I-NP'
p42
aS'I-NP'
p43
aS'I-NP'
p44
aS'E-NP'
p45
asS'dep_seq'
p46
(lp47
(lp48
S'nn'
p49
aS'6'
aS'1'
aa(lp50
S'amod'
p51
aS'6'
aS'2'
aa(lp52
S'nn'
p53
aS'6'
aS'3'
aa(lp54
S'nn'
p55
aS'6'
aS'4'
aa(lp56
S'nn'
p57
aS'6'
aS'5'
aa(lp58
S'root'
p59
aS'0'
aS'6'
aa(lp60
S'prep_for'
p61
aS'6'
aS'8'
aa(lp62
S'nn'
p63
aS'12'
p64
aS'10'
p65
aa(lp66
S'nn'
p67
aS'12'
p68
aS'11'
p69
aa(lp70
S'conj_and'
p71
aS'6'
aS'12'
p72
aasS'srls'
p73
(lp74
sS'pos_seq'
p75
(lp76
S'NN'
p77
aS'JJ'
p78
aS'NN'
p79
aS'NNP'
p80
aS'NNP'
p81
aS'NNP'
p82
aS'IN'
p83
aS'NNPS'
p84
aS'CC'
p85
aS'NNP'
p86
aS'NNPS'
p87
aS'NNP'
p88
asS'ner_seq'
p89
(lp90
S'O'
aS'O'
aS'O'
aS'B-ORG'
p91
aS'I-ORG'
p92
aS'I-ORG'
p93
aS'I-ORG'
p94
aS'I-ORG'
p95
aS'I-ORG'
p96
aS'I-ORG'
p97
aS'I-ORG'
p98
aS'E-ORG'
p99
assb.