ccopy_reg
_reconstructor
p1
(c__main__
KBproperty
p2
c__builtin__
object
p3
NtRp4
(dp5
S'comment'
p6
S'Type is too general. We should be able to distinguish types of music from types of architecture'
p7
sS'domain'
p8
S'Building '
p9
sS'instances_count'
p10
S'0'
sS'label'
p11
S'buildingType'
p12
sS'range'
p13
S''
sS'prop_uri'
p14
S"'http://dbpedia.org/ontology/buildingType'"
p15
sS'annotations'
p16
(dp17
S'bag_of_words'
p18
(lp19
S'Building'
p20
aS'buildingType'
p21
aS'Type'
p22
aS'is'
p23
aS'too'
p24
aS'general'
p25
aS'.'
aS'We'
p26
aS'should'
p27
aS'be'
p28
aS'able'
p29
aS'to'
p30
aS'distinguish'
p31
aS'types'
p32
aS'of'
p33
aS'music'
p34
aS'from'
p35
aS'types'
p36
aS'of'
p37
aS'architecture'
p38
asS'chunk_seq'
p39
(lp40
S'B-NP'
p41
aS'I-NP'
p42
aS'E-NP'
p43
aS'S-VP'
p44
aS'B-ADJP'
p45
aS'E-ADJP'
p46
aS'O'
aS'S-NP'
p47
aS'B-VP'
p48
aS'E-VP'
p49
aS'S-ADJP'
p50
aS'B-VP'
p51
aS'E-VP'
p52
aS'S-NP'
p53
aS'S-PP'
p54
aS'S-NP'
p55
aS'S-PP'
p56
aS'S-NP'
p57
aS'S-PP'
p58
aS'S-NP'
p59
asS'dep_seq'
p60
(lp61
(lp62
S'nn'
p63
aS'3'
aS'1'
aa(lp64
S'nn'
p65
aS'3'
aS'2'
aa(lp66
S'nsubj'
p67
aS'6'
aS'3'
aa(lp68
S'cop'
p69
aS'6'
aS'4'
aa(lp70
S'advmod'
p71
aS'6'
aS'5'
aa(lp72
S'root'
p73
aS'0'
aS'6'
aa(lp74
S'nsubj'
p75
aS'11'
p76
aS'8'
aa(lp77
S'xsubj'
p78
aS'13'
p79
aS'8'
aa(lp80
S'aux'
p81
aS'11'
p82
aS'9'
aa(lp83
S'cop'
p84
aS'11'
p85
aS'10'
p86
aa(lp87
S'parataxis'
p88
aS'6'
aS'11'
p89
aa(lp90
S'aux'
p91
aS'13'
p92
aS'12'
p93
aa(lp94
S'xcomp'
p95
aS'11'
p96
aS'13'
p97
aa(lp98
S'dobj'
p99
aS'13'
p100
aS'14'
p101
aa(lp102
S'prep_of'
p103
aS'14'
p104
aS'16'
p105
aa(lp106
S'prep_from'
p107
aS'14'
p108
aS'18'
p109
aa(lp110
S'prep_of'
p111
aS'18'
p112
aS'20'
p113
aasS'srls'
p114
(lp115
(dp116
S'A1'
p117
S'types of music'
p118
sS'A0'
p119
g26
sS'A2'
p120
S'from types of architecture'
p121
sS'V'
g31
sasS'pos_seq'
p122
(lp123
S'NNP'
p124
aS'NNP'
p125
aS'NNP'
p126
aS'VBZ'
p127
aS'RB'
p128
aS'JJ'
p129
aS'.'
aS'PRP'
p130
aS'MD'
p131
aS'VB'
p132
aS'JJ'
p133
aS'TO'
p134
aS'VB'
p135
aS'NNS'
p136
aS'IN'
p137
aS'NN'
p138
aS'IN'
p139
aS'NNS'
p140
aS'IN'
p141
aS'NN'
p142
asS'ner_seq'
p143
(lp144
S'O'
aS'O'
aS'O'
aS'O'
aS'O'
aS'O'
aS'O'
aS'O'
aS'O'
aS'O'
aS'O'
aS'O'
aS'O'
aS'O'
aS'O'
aS'O'
aS'O'
aS'O'
aS'O'
aS'O'
assb.