ccopy_reg
_reconstructor
p1
(c__main__
KBproperty
p2
c__builtin__
object
p3
NtRp4
(dp5
S'comment'
p6
S'The date on which the broadcaster made its last broadcast.'
p7
sS'domain'
p8
S'Broadcaster '
p9
sS'instances_count'
p10
S'931'
p11
sS'label'
p12
S'last air date'
p13
sS'range'
p14
S'date '
p15
sS'prop_uri'
p16
S"'http://dbpedia.org/ontology/lastAirDate'"
p17
sS'annotations'
p18
(dp19
S'bag_of_words'
p20
(lp21
S'Broadcaster'
p22
aS'last'
p23
aS'air'
p24
aS'date'
p25
aS'date'
p26
aS'The'
p27
aS'date'
p28
aS'on'
p29
aS'which'
p30
aS'the'
p31
aS'broadcaster'
p32
aS'made'
p33
aS'its'
p34
aS'last'
p35
aS'broadcast'
p36
aS'.'
asS'chunk_seq'
p37
(lp38
S'S-NP'
p39
aS'B-NP'
p40
aS'I-NP'
p41
aS'I-NP'
p42
aS'E-NP'
p43
aS'B-NP'
p44
aS'E-NP'
p45
aS'S-PP'
p46
aS'S-NP'
p47
aS'B-NP'
p48
aS'E-NP'
p49
aS'S-VP'
p50
aS'B-NP'
p51
aS'I-NP'
p52
aS'E-NP'
p53
aS'O'
asS'dep_seq'
p54
(lp55
(lp56
S'nn'
p57
aS'5'
aS'1'
aa(lp58
S'amod'
p59
aS'5'
aS'2'
aa(lp60
S'nn'
p61
aS'5'
aS'3'
aa(lp62
S'nn'
p63
aS'5'
aS'4'
aa(lp64
S'dep'
p65
aS'7'
aS'5'
aa(lp66
S'det'
p67
aS'7'
aS'6'
aa(lp68
S'root'
p69
aS'0'
aS'7'
aa(lp70
S'prep_on'
p71
aS'12'
p72
aS'7'
aa(lp73
S'rel'
p74
aS'12'
p75
aS'8'
aa(lp76
S'det'
p77
aS'11'
p78
aS'10'
p79
aa(lp80
S'nsubj'
p81
aS'12'
p82
aS'11'
p83
aa(lp84
S'rcmod'
p85
aS'7'
aS'12'
p86
aa(lp87
S'poss'
p88
aS'15'
p89
aS'13'
p90
aa(lp91
S'amod'
p92
aS'15'
p93
aS'14'
p94
aa(lp95
S'dobj'
p96
aS'12'
p97
aS'15'
p98
aasS'srls'
p99
(lp100
(dp101
S'A1'
p102
S'its last broadcast'
p103
sS'A0'
p104
S'the broadcaster'
p105
sS'V'
g33
sasS'pos_seq'
p106
(lp107
S'NN'
p108
aS'JJ'
p109
aS'NN'
p110
aS'NN'
p111
aS'NN'
p112
aS'DT'
p113
aS'NN'
p114
aS'IN'
p115
aS'WDT'
p116
aS'DT'
p117
aS'NN'
p118
aS'VBD'
p119
aS'PRP$'
p120
aS'JJ'
p121
aS'NN'
p122
aS'.'
asS'ner_seq'
p123
(lp124
S'O'
aS'O'
aS'O'
aS'O'
aS'O'
aS'O'
aS'O'
aS'O'
aS'O'
aS'O'
aS'O'
aS'O'
aS'O'
aS'O'
aS'O'
aS'O'
assb.