ccopy_reg
_reconstructor
p1
(c__main__
KBproperty
p2
c__builtin__
object
p3
NtRp4
(dp5
S'comment'
p6
S''
sS'domain'
p7
S'Person '
p8
sS'instances_count'
p9
S'43630'
p10
sS'label'
p11
S'known for'
p12
sS'range'
p13
S''
sS'prop_uri'
p14
S"'http://dbpedia.org/ontology/knownFor'"
p15
sS'annotations'
p16
(dp17
S'bag_of_words'
p18
(lp19
S'Person'
p20
aS'known'
p21
aS'for'
p22
asS'chunk_seq'
p23
(lp24
S'S-NP'
p25
aS'S-VP'
p26
aS'S-PP'
p27
asS'dep_seq'
p28
(lp29
(lp30
S'nsubj'
p31
aS'2'
aS'1'
aa(lp32
S'root'
p33
aS'0'
aS'2'
aa(lp34
S'prep'
p35
aS'2'
aS'3'
aasS'srls'
p36
(lp37
(dp38
S'A1'
p39
g20
sS'V'
g21
sasS'pos_seq'
p40
(lp41
S'NN'
p42
aS'VBN'
p43
aS'IN'
p44
asS'ner_seq'
p45
(lp46
S'O'
aS'O'
aS'O'
assb.