ccopy_reg
_reconstructor
p1
(c__main__
KBproperty
p2
c__builtin__
object
p3
NtRp4
(dp5
S'comment'
p6
S''
sS'domain'
p7
S'Space Mission '
p8
sS'instances_count'
p9
S'0'
sS'label'
p10
S'lunar rover'
p11
sS'range'
p12
S'Mean Of Transportation '
p13
sS'prop_uri'
p14
S"'http://dbpedia.org/ontology/lunarRover'"
p15
sS'annotations'
p16
(dp17
S'bag_of_words'
p18
(lp19
S'Space'
p20
aS'Mission'
p21
aS'lunar'
p22
aS'rover'
p23
aS'Mean'
p24
aS'Of'
p25
aS'Transportation'
p26
asS'chunk_seq'
p27
(lp28
S'B-NP'
p29
aS'I-NP'
p30
aS'I-NP'
p31
aS'I-NP'
p32
aS'E-NP'
p33
aS'S-PP'
p34
aS'S-NP'
p35
asS'dep_seq'
p36
(lp37
(lp38
S'nn'
p39
aS'5'
aS'1'
aa(lp40
S'nn'
p41
aS'5'
aS'2'
aa(lp42
S'amod'
p43
aS'5'
aS'3'
aa(lp44
S'nn'
p45
aS'5'
aS'4'
aa(lp46
S'root'
p47
aS'0'
aS'5'
aa(lp48
S'prep_of'
p49
aS'5'
aS'7'
aasS'srls'
p50
(lp51
sS'pos_seq'
p52
(lp53
S'NNP'
p54
aS'NNP'
p55
aS'JJ'
p56
aS'NN'
p57
aS'NNP'
p58
aS'IN'
p59
aS'NN'
p60
asS'ner_seq'
p61
(lp62
S'O'
aS'O'
aS'O'
aS'O'
aS'B-ORG'
p63
aS'I-ORG'
p64
aS'E-ORG'
p65
assb.