ccopy_reg
_reconstructor
p1
(c__main__
KBproperty
p2
c__builtin__
object
p3
NtRp4
(dp5
S'comment'
p6
S''
sS'domain'
p7
S''
sS'instances_count'
p8
S'2964'
p9
sS'label'
p10
S'stations'
p11
sS'range'
p12
S''
sS'prop_uri'
p13
S"'http://dbpedia.org/property/stations'"
p14
sS'annotations'
p15
(dp16
S'bag_of_words'
p17
(lp18
S'stations'
p19
asS'chunk_seq'
p20
(lp21
S'S-NP'
p22
asS'dep_seq'
p23
(lp24
(lp25
S'root'
p26
aS'0'
aS'1'
aasS'srls'
p27
(lp28
sS'pos_seq'
p29
(lp30
S'NNS'
p31
asS'ner_seq'
p32
(lp33
S'O'
assb.