ccopy_reg
_reconstructor
p1
(c__main__
KBproperty
p2
c__builtin__
object
p3
NtRp4
(dp5
S'comment'
p6
S'population percentage female'
p7
sS'domain'
p8
S'Populated Place '
p9
sS'instances_count'
p10
S'0'
sS'label'
p11
g7
sS'range'
p12
S'non Negative Integer '
p13
sS'prop_uri'
p14
S"'http://dbpedia.org/ontology/populationPctWomen'"
p15
sS'annotations'
p16
(dp17
S'bag_of_words'
p18
(lp19
S'Populated'
p20
aS'Place'
p21
aS'population'
p22
aS'Pct'
p23
aS'Women'
p24
aS'non'
p25
aS'Negative'
p26
aS'Integer'
p27
aS'population'
p28
aS'percentage'
p29
aS'female'
p30
asS'chunk_seq'
p31
(lp32
S'B-NP'
p33
aS'I-NP'
p34
aS'I-NP'
p35
aS'I-NP'
p36
aS'E-NP'
p37
aS'B-NP'
p38
aS'I-NP'
p39
aS'I-NP'
p40
aS'I-NP'
p41
aS'I-NP'
p42
aS'E-NP'
p43
asS'dep_seq'
p44
(lp45
(lp46
S'amod'
p47
aS'5'
aS'1'
aa(lp48
S'nn'
p49
aS'5'
aS'2'
aa(lp50
S'nn'
p51
aS'5'
aS'3'
aa(lp52
S'nn'
p53
aS'5'
aS'4'
aa(lp54
S'nsubj'
p55
aS'6'
aS'5'
aa(lp56
S'root'
p57
aS'0'
aS'6'
aa(lp58
S'amod'
p59
aS'11'
p60
aS'7'
aa(lp61
S'nn'
p62
aS'11'
p63
aS'8'
aa(lp64
S'nn'
p65
aS'11'
p66
aS'9'
aa(lp67
S'nn'
p68
aS'11'
p69
aS'10'
p70
aa(lp71
S'dobj'
p72
aS'6'
aS'11'
p73
aasS'srls'
p74
(lp75
sS'pos_seq'
p76
(lp77
S'JJ'
p78
aS'NN'
p79
aS'NN'
p80
aS'NNP'
p81
aS'NNP'
p82
aS'VBP'
p83
aS'JJ'
p84
aS'NN'
p85
aS'NN'
p86
aS'NN'
p87
aS'NN'
p88
asS'ner_seq'
p89
(lp90
S'O'
aS'O'
aS'O'
aS'O'
aS'O'
aS'O'
aS'B-MISC'
p91
aS'E-MISC'
p92
aS'O'
aS'O'
aS'O'
assb.