ccopy_reg
_reconstructor
p1
(c__main__
KBproperty
p2
c__builtin__
object
p3
NtRp4
(dp5
S'comment'
p6
S''
sS'domain'
p7
S'Architectural Structure '
p8
sS'instances_count'
p9
S'0'
sS'label'
p10
S'features'
p11
sS'range'
p12
S'Work '
p13
sS'prop_uri'
p14
S"'http://dbpedia.org/ontology/features'"
p15
sS'annotations'
p16
(dp17
S'bag_of_words'
p18
(lp19
S'Architectural'
p20
aS'Structure'
p21
aS'features'
p22
aS'Work'
p23
asS'chunk_seq'
p24
(lp25
S'B-NP'
p26
aS'E-NP'
p27
aS'S-VP'
p28
aS'S-NP'
p29
asS'dep_seq'
p30
(lp31
(lp32
S'nn'
p33
aS'2'
aS'1'
aa(lp34
S'nsubj'
p35
aS'3'
aS'2'
aa(lp36
S'root'
p37
aS'0'
aS'3'
aa(lp38
S'dobj'
p39
aS'3'
aS'4'
aasS'srls'
p40
(lp41
(dp42
S'A1'
p43
g23
sS'A0'
p44
S'Architectural Structure'
p45
sS'V'
g22
sasS'pos_seq'
p46
(lp47
S'NNP'
p48
aS'NNP'
p49
aS'VBZ'
p50
aS'NNP'
p51
asS'ner_seq'
p52
(lp53
S'O'
aS'O'
aS'O'
aS'O'
assb.