ccopy_reg
_reconstructor
p1
(c__main__
KBproperty
p2
c__builtin__
object
p3
NtRp4
(dp5
S'comment'
p6
S'Number of abstentions from the vote'
p7
sS'domain'
p8
S'Stated Resolution '
p9
sS'instances_count'
p10
S'0'
sS'label'
p11
S'abstentions'
p12
sS'range'
p13
S'non Negative Integer '
p14
sS'prop_uri'
p15
S"http://dbpedia.org/ontology/abstentions'"
p16
sS'annotations'
p17
(dp18
S'bag_of_words'
p19
(lp20
S'Stated'
p21
aS'Resolution'
p22
aS'abstentions'
p23
aS'non'
p24
aS'Negative'
p25
aS'Integer'
p26
aS'Number'
p27
aS'of'
p28
aS'abstentions'
p29
aS'from'
p30
aS'the'
p31
aS'vote'
p32
asS'chunk_seq'
p33
(lp34
S'B-NP'
p35
aS'I-NP'
p36
aS'E-NP'
p37
aS'B-NP'
p38
aS'I-NP'
p39
aS'I-NP'
p40
aS'E-NP'
p41
aS'S-PP'
p42
aS'S-NP'
p43
aS'S-PP'
p44
aS'B-NP'
p45
aS'E-NP'
p46
asS'dep_seq'
p47
(lp48
(lp49
S'amod'
p50
aS'3'
aS'1'
aa(lp51
S'nn'
p52
aS'3'
aS'2'
aa(lp53
S'root'
p54
aS'0'
aS'3'
aa(lp55
S'dep'
p56
aS'7'
aS'4'
aa(lp57
S'amod'
p58
aS'7'
aS'5'
aa(lp59
S'nn'
p60
aS'7'
aS'6'
aa(lp61
S'dep'
p62
aS'3'
aS'7'
aa(lp63
S'prep_of'
p64
aS'7'
aS'9'
aa(lp65
S'det'
p66
aS'12'
p67
aS'11'
p68
aa(lp69
S'prep_from'
p70
aS'9'
aS'12'
p71
aasS'srls'
p72
(lp73
sS'pos_seq'
p74
(lp75
S'VBN'
p76
aS'NN'
p77
aS'NNS'
p78
aS'VBP'
p79
aS'JJ'
p80
aS'NNP'
p81
aS'NNP'
p82
aS'IN'
p83
aS'NNS'
p84
aS'IN'
p85
aS'DT'
p86
aS'NN'
p87
asS'ner_seq'
p88
(lp89
S'O'
aS'O'
aS'O'
aS'O'
aS'O'
aS'O'
aS'O'
aS'O'
aS'O'
aS'O'
aS'O'
aS'O'
assb.