ccopy_reg
_reconstructor
p1
(c__main__
KBproperty
p2
c__builtin__
object
p3
NtRp4
(dp5
S'comment'
p6
S'Link from a Wikipage to a Wikipage in a different language about the same or a related subject.'
p7
sS'domain'
p8
S''
sS'instances_count'
p9
S'0'
sS'label'
p10
g7
sS'range'
p11
S''
sS'prop_uri'
p12
S"'http://dbpedia.org/ontology/wikiPageInterLanguageLink'"
p13
sS'annotations'
p14
(dp15
S'bag_of_words'
p16
(lp17
S'wiki'
p18
aS'Page'
p19
aS'Inter'
p20
aS'Language'
p21
aS'Link'
p22
aS'Link'
p23
aS'from'
p24
aS'a'
aS'Wikipage'
p25
aS'to'
p26
aS'a'
aS'Wikipage'
p27
aS'in'
p28
aS'a'
aS'different'
p29
aS'language'
p30
aS'about'
p31
aS'the'
p32
aS'same'
p33
aS'or'
p34
aS'a'
aS'related'
p35
aS'subject'
p36
aS'.'
asS'chunk_seq'
p37
(lp38
S'B-NP'
p39
aS'I-NP'
p40
aS'I-NP'
p41
aS'I-NP'
p42
aS'I-NP'
p43
aS'E-NP'
p44
aS'S-PP'
p45
aS'B-NP'
p46
aS'E-NP'
p47
aS'S-PP'
p48
aS'B-NP'
p49
aS'E-NP'
p50
aS'S-PP'
p51
aS'B-NP'
p52
aS'I-NP'
p53
aS'E-NP'
p54
aS'S-PP'
p55
aS'B-NP'
p56
aS'E-NP'
p57
aS'O'
aS'B-NP'
p58
aS'I-NP'
p59
aS'E-NP'
p60
aS'O'
asS'dep_seq'
p61
(lp62
(lp63
S'nn'
p64
aS'6'
aS'1'
aa(lp65
S'nn'
p66
aS'6'
aS'2'
aa(lp67
S'nn'
p68
aS'6'
aS'3'
aa(lp69
S'nn'
p70
aS'6'
aS'4'
aa(lp71
S'nn'
p72
aS'6'
aS'5'
aa(lp73
S'root'
p74
aS'0'
aS'6'
aa(lp75
S'det'
p76
aS'9'
aS'8'
aa(lp77
S'prep_from'
p78
aS'6'
aS'9'
aa(lp79
S'det'
p80
aS'12'
p81
aS'11'
p82
aa(lp83
S'prep_to'
p84
aS'6'
aS'12'
p85
aa(lp86
S'det'
p87
aS'16'
p88
aS'14'
p89
aa(lp90
S'amod'
p91
aS'16'
p92
aS'15'
p93
aa(lp94
S'prep_in'
p95
aS'6'
aS'16'
p96
aa(lp97
S'det'
p98
aS'19'
p99
aS'18'
p100
aa(lp101
S'prep_about'
p102
aS'16'
p103
aS'19'
p104
aa(lp105
S'det'
p106
aS'23'
p107
aS'21'
p108
aa(lp109
S'amod'
p110
aS'23'
p111
aS'22'
p112
aa(lp113
S'conj_or'
p114
aS'19'
p115
aS'23'
p116
aasS'srls'
p117
(lp118
(dp119
S'A1'
p120
g36
sS'V'
g35
sasS'pos_seq'
p121
(lp122
S'NN'
p123
aS'NNP'
p124
aS'NNP'
p125
aS'NNP'
p126
aS'NNP'
p127
aS'NNP'
p128
aS'IN'
p129
aS'DT'
p130
aS'NNP'
p131
aS'TO'
p132
aS'DT'
p133
aS'NNP'
p134
aS'IN'
p135
aS'DT'
p136
aS'JJ'
p137
aS'NN'
p138
aS'IN'
p139
aS'DT'
p140
aS'JJ'
p141
aS'CC'
p142
aS'DT'
p143
aS'JJ'
p144
aS'NN'
p145
aS'.'
asS'ner_seq'
p146
(lp147
S'O'
aS'O'
aS'B-MISC'
p148
aS'E-MISC'
p149
aS'O'
aS'O'
aS'O'
aS'O'
aS'S-MISC'
p150
aS'O'
aS'O'
aS'S-MISC'
p151
aS'O'
aS'O'
aS'O'
aS'O'
aS'O'
aS'O'
aS'O'
aS'O'
aS'O'
aS'O'
aS'O'
aS'O'
assb.