ccopy_reg
_reconstructor
p1
(c__main__
KBproperty
p2
c__builtin__
object
p3
NtRp4
(dp5
S'comment'
p6
S'http://www.w3.org/2001/XMLSchema#gYear'
p7
sS'domain'
p8
S'Organisation '
p9
sS'instances_count'
p10
S'2820'
p11
sS'label'
p12
g7
sS'range'
p13
S'Populated Place '
p14
sS'prop_uri'
p15
S"'http://dbpedia.org/ontology/dissolutionYear'"
p16
sS'annotations'
p17
(dp18
S'bag_of_words'
p19
(lp20
S'Organisation'
p21
aS'dissolution'
p22
aS'Year'
p23
aS'Populated'
p24
aS'Place'
p25
aS'http'
p26
aS':'
aS'//'
p27
aS'www'
p28
aS'.'
aS'w3'
p29
aS'.org'
p30
aS'/2001'
p31
aS'/'
aS'XMLSchema'
p32
aS'#'
aS'gYear'
p33
asS'chunk_seq'
p34
(lp35
S'B-NP'
p36
aS'I-NP'
p37
aS'I-NP'
p38
aS'I-NP'
p39
aS'I-NP'
p40
aS'E-NP'
p41
aS'O'
aS'B-NP'
p42
aS'E-NP'
p43
aS'O'
aS'O'
aS'O'
aS'O'
aS'O'
aS'O'
aS'O'
aS'O'
asS'dep_seq'
p44
(lp45
(lp46
S'nn'
p47
aS'6'
aS'1'
aa(lp48
S'nn'
p49
aS'6'
aS'2'
aa(lp50
S'nn'
p51
aS'6'
aS'3'
aa(lp52
S'amod'
p53
aS'6'
aS'4'
aa(lp54
S'nn'
p55
aS'6'
aS'5'
aa(lp56
S'root'
p57
aS'0'
aS'6'
aa(lp58
S'nn'
p59
aS'9'
aS'8'
aa(lp60
S'dep'
p61
aS'6'
aS'9'
aa(lp62
S'nn'
p63
aS'9'
aS'11'
p64
aa(lp65
S'nn'
p66
aS'9'
aS'12'
p67
aa(lp68
S'dep'
p69
aS'9'
aS'13'
p70
aa(lp71
S'dep'
p72
aS'9'
aS'14'
p73
aa(lp74
S'nn'
p75
aS'17'
p76
aS'15'
p77
aa(lp78
S'nn'
p79
aS'17'
p80
aS'16'
p81
aa(lp82
S'dep'
p83
aS'9'
aS'17'
p84
aasS'srls'
p85
(lp86
sS'pos_seq'
p87
(lp88
S'NN'
p89
aS'NN'
p90
aS'NN'
p91
aS'JJ'
p92
aS'NN'
p93
aS'NN'
p94
aS':'
aS'NN'
p95
aS'NN'
p96
aS'.'
aS'FW'
p97
aS'FW'
p98
aS'FW'
p99
aS'FW'
p100
aS'FW'
p101
aS'FW'
p102
aS'FW'
p103
asS'ner_seq'
p104
(lp105
S'O'
aS'O'
aS'O'
aS'O'
aS'O'
aS'O'
aS'O'
aS'O'
aS'O'
aS'O'
aS'O'
aS'O'
aS'O'
aS'O'
aS'O'
aS'O'
aS'S-LOC'
p106
assb.