ccopy_reg
_reconstructor
p1
(c__main__
KBproperty
p2
c__builtin__
object
p3
NtRp4
(dp5
S'comment'
p6
S'displacement \\xce\\xbc\\xc2\\xb3'
p7
sS'domain'
p8
S'Automobile Engine '
p9
sS'instances_count'
p10
S'18795'
p11
sS'label'
p12
g7
sS'range'
p13
S'double '
p14
sS'prop_uri'
p15
S"'http://dbpedia.org/ontology/displacement'"
p16
sS'annotations'
p17
(dp18
S'bag_of_words'
p19
(lp20
S'Automobile'
p21
aS'Engine'
p22
aS'displacement'
p23
aS'double'
p24
aS'displacement'
p25
aS'\\'
aS'xce'
p26
aS'\\'
aS'xbc'
p27
aS'\\'
aS'xc2'
p28
aS'\\'
aS'xb3'
p29
asS'chunk_seq'
p30
(lp31
S'B-NP'
p32
aS'I-NP'
p33
aS'I-NP'
p34
aS'I-NP'
p35
aS'E-NP'
p36
aS'O'
aS'O'
aS'O'
aS'O'
aS'O'
aS'O'
aS'O'
aS'O'
asS'dep_seq'
p37
(lp38
(lp39
S'nn'
p40
aS'3'
aS'1'
aa(lp41
S'nn'
p42
aS'3'
aS'2'
aa(lp43
S'root'
p44
aS'0'
aS'3'
aa(lp45
S'amod'
p46
aS'5'
aS'4'
aa(lp47
S'nn'
p48
aS'3'
aS'5'
aa(lp49
S'dep'
p50
aS'3'
aS'6'
aa(lp51
S'discourse'
p52
aS'3'
aS'7'
aa(lp53
S'dep'
p54
aS'7'
aS'8'
aa(lp55
S'dep'
p56
aS'7'
aS'9'
aa(lp57
S'dep'
p58
aS'7'
aS'10'
p59
aa(lp60
S'dep'
p61
aS'7'
aS'11'
p62
aa(lp63
S'dep'
p64
aS'7'
aS'12'
p65
aa(lp66
S'dep'
p67
aS'7'
aS'13'
p68
aasS'srls'
p69
(lp70
sS'pos_seq'
p71
(lp72
S'NN'
p73
aS'NN'
p74
aS'NN'
p75
aS'JJ'
p76
aS'NN'
p77
aS'FW'
p78
aS'FW'
p79
aS'FW'
p80
aS'FW'
p81
aS'FW'
p82
aS'FW'
p83
aS'FW'
p84
aS'FW'
p85
asS'ner_seq'
p86
(lp87
S'O'
aS'O'
aS'O'
aS'O'
aS'O'
aS'O'
aS'O'
aS'O'
aS'O'
aS'O'
aS'O'
aS'O'
aS'O'
assb.