ccopy_reg
_reconstructor
p1
(c__main__
KBproperty
p2
c__builtin__
object
p3
NtRp4
(dp5
S'comment'
p6
S''
sS'domain'
p7
S'Settlement '
p8
sS'instances_count'
p9
S'0'
sS'label'
p10
S'settlement attached'
p11
sS'range'
p12
S'Place '
p13
sS'prop_uri'
p14
S"'http://dbpedia.org/ontology/settlementAttached'"
p15
sS'annotations'
p16
(dp17
S'bag_of_words'
p18
(lp19
S'Settlement'
p20
aS'settlement'
p21
aS'attached'
p22
aS'Place'
p23
asS'chunk_seq'
p24
(lp25
S'B-NP'
p26
aS'I-NP'
p27
aS'I-NP'
p28
aS'E-NP'
p29
asS'dep_seq'
p30
(lp31
(lp32
S'nn'
p33
aS'4'
aS'1'
aa(lp34
S'nn'
p35
aS'4'
aS'2'
aa(lp36
S'amod'
p37
aS'4'
aS'3'
aa(lp38
S'root'
p39
aS'0'
aS'4'
aasS'srls'
p40
(lp41
(dp42
S'A1'
p43
S'Settlement settlement Place'
p44
sS'V'
g22
sasS'pos_seq'
p45
(lp46
S'NN'
p47
aS'NN'
p48
aS'VBN'
p49
aS'NN'
p50
asS'ner_seq'
p51
(lp52
S'O'
aS'O'
aS'O'
aS'O'
assb.