ccopy_reg
_reconstructor
p1
(c__main__
KBproperty
p2
c__builtin__
object
p3
NtRp4
(dp5
S'comment'
p6
S'cylinder bore \\xce\\xbc'
p7
sS'domain'
p8
S'Automobile Engine '
p9
sS'instances_count'
p10
S'498'
p11
sS'label'
p12
g7
sS'range'
p13
S'double '
p14
sS'prop_uri'
p15
S"'http://dbpedia.org/ontology/cylinderBore'"
p16
sS'annotations'
p17
(dp18
S'bag_of_words'
p19
(lp20
S'Automobile'
p21
aS'Engine'
p22
aS'cylinder'
p23
aS'Bore'
p24
aS'double'
p25
aS'cylinder'
p26
aS'bore'
p27
aS'\\'
aS'xce'
p28
aS'\\'
aS'xbc'
p29
asS'chunk_seq'
p30
(lp31
S'B-NP'
p32
aS'I-NP'
p33
aS'I-NP'
p34
aS'I-NP'
p35
aS'I-NP'
p36
aS'E-NP'
p37
aS'O'
aS'O'
aS'O'
aS'O'
aS'O'
asS'dep_seq'
p38
(lp39
(lp40
S'nn'
p41
aS'4'
aS'1'
aa(lp42
S'nn'
p43
aS'4'
aS'2'
aa(lp44
S'nn'
p45
aS'4'
aS'3'
aa(lp46
S'root'
p47
aS'0'
aS'4'
aa(lp48
S'amod'
p49
aS'6'
aS'5'
aa(lp50
S'dep'
p51
aS'4'
aS'6'
aa(lp52
S'dep'
p53
aS'6'
aS'7'
aa(lp54
S'nn'
p55
aS'11'
p56
aS'8'
aa(lp57
S'nn'
p58
aS'11'
p59
aS'9'
aa(lp60
S'nn'
p61
aS'11'
p62
aS'10'
p63
aa(lp64
S'dep'
p65
aS'6'
aS'11'
p66
aasS'srls'
p67
(lp68
sS'pos_seq'
p69
(lp70
S'NNP'
p71
aS'NNP'
p72
aS'NN'
p73
aS'NNP'
p74
aS'JJ'
p75
aS'NN'
p76
aS'FW'
p77
aS'FW'
p78
aS'FW'
p79
aS'FW'
p80
aS'FW'
p81
asS'ner_seq'
p82
(lp83
S'O'
aS'O'
aS'O'
aS'O'
aS'O'
aS'O'
aS'O'
aS'O'
aS'O'
aS'O'
aS'O'
assb.