ccopy_reg
_reconstructor
p1
(c__main__
KBproperty
p2
c__builtin__
object
p3
NtRp4
(dp5
S'comment'
p6
S'vastest lake'
p7
sS'domain'
p8
S'Place '
p9
sS'instances_count'
p10
S'2371'
p11
sS'label'
p12
g7
sS'range'
p13
S'Body Of Water '
p14
sS'prop_uri'
p15
S"'http://dbpedia.org/ontology/lake'"
p16
sS'annotations'
p17
(dp18
S'bag_of_words'
p19
(lp20
S'Place'
p21
aS'lake'
p22
aS'Body'
p23
aS'Of'
p24
aS'Water'
p25
aS'vastest'
p26
aS'lake'
p27
asS'chunk_seq'
p28
(lp29
S'B-NP'
p30
aS'I-NP'
p31
aS'E-NP'
p32
aS'S-PP'
p33
aS'B-NP'
p34
aS'I-NP'
p35
aS'E-NP'
p36
asS'dep_seq'
p37
(lp38
(lp39
S'nn'
p40
aS'3'
aS'1'
aa(lp41
S'nn'
p42
aS'3'
aS'2'
aa(lp43
S'root'
p44
aS'0'
aS'3'
aa(lp45
S'prep_of'
p46
aS'3'
aS'5'
aa(lp47
S'amod'
p48
aS'7'
aS'6'
aa(lp49
S'dep'
p50
aS'3'
aS'7'
aasS'srls'
p51
(lp52
sS'pos_seq'
p53
(lp54
S'NN'
p55
aS'NN'
p56
aS'NN'
p57
aS'IN'
p58
aS'NNP'
p59
aS'JJ'
p60
aS'NN'
p61
asS'ner_seq'
p62
(lp63
S'O'
aS'O'
aS'B-ORG'
p64
aS'I-ORG'
p65
aS'E-ORG'
p66
aS'O'
aS'O'
assb.