ccopy_reg
_reconstructor
p1
(c__main__
KBproperty
p2
c__builtin__
object
p3
NtRp4
(dp5
S'comment'
p6
S'Described at http://en.wikipedia.org/wiki/International_Designator'
p7
sS'domain'
p8
S''
sS'instances_count'
p9
S'1583'
p10
sS'label'
p11
S'COSPAR id'
p12
sS'range'
p13
S'string '
p14
sS'prop_uri'
p15
S"'http://dbpedia.org/ontology/cosparId'"
p16
sS'annotations'
p17
(dp18
S'bag_of_words'
p19
(lp20
S'COSPAR'
p21
aS'id'
p22
aS'string'
p23
aS'Described'
p24
aS'at'
p25
aS'http'
p26
aS':'
aS'//'
p27
aS'en'
p28
aS'.'
aS'wikipedia'
p29
aS'.org'
p30
aS'/'
aS'wiki'
p31
aS'/I'
p32
aS'nternational'
p33
aS'_'
aS'Designator'
p34
asS'chunk_seq'
p35
(lp36
S'B-NP'
p37
aS'I-NP'
p38
aS'E-NP'
p39
aS'S-VP'
p40
aS'S-PP'
p41
aS'S-NP'
p42
aS'O'
aS'O'
aS'O'
aS'O'
aS'O'
aS'O'
aS'O'
aS'O'
aS'O'
aS'O'
aS'O'
aS'O'
asS'dep_seq'
p43
(lp44
(lp45
S'nn'
p46
aS'3'
aS'1'
aa(lp47
S'nn'
p48
aS'3'
aS'2'
aa(lp49
S'root'
p50
aS'0'
aS'3'
aa(lp51
S'partmod'
p52
aS'3'
aS'4'
aa(lp53
S'prep_at'
p54
aS'4'
aS'6'
aa(lp55
S'dep'
p56
aS'3'
aS'8'
aa(lp57
S'advmod'
p58
aS'8'
aS'9'
aa(lp59
S'nn'
p60
aS'18'
p61
aS'11'
p62
aa(lp63
S'nn'
p64
aS'18'
p65
aS'12'
p66
aa(lp67
S'nn'
p68
aS'18'
p69
aS'13'
p70
aa(lp71
S'nn'
p72
aS'18'
p73
aS'14'
p74
aa(lp75
S'nn'
p76
aS'18'
p77
aS'15'
p78
aa(lp79
S'nn'
p80
aS'18'
p81
aS'16'
p82
aa(lp83
S'nn'
p84
aS'18'
p85
aS'17'
p86
aa(lp87
S'dep'
p88
aS'8'
aS'18'
p89
aasS'srls'
p90
(lp91
(dp92
S'A1'
p93
S'COSPAR id string'
p94
sS'AM-LOC'
p95
S'at http : // en . wikipedia .org / wiki /I nternational _ Designator'
p96
sS'V'
g24
sasS'pos_seq'
p97
(lp98
S'NNP'
p99
aS'NN'
p100
aS'NN'
p101
aS'VBN'
p102
aS'IN'
p103
aS'NN'
p104
aS':'
aS'FW'
p105
aS'FW'
p106
aS'FW'
p107
aS'FW'
p108
aS'FW'
p109
aS'FW'
p110
aS'FW'
p111
aS'FW'
p112
aS'FW'
p113
aS'FW'
p114
aS'NNP'
p115
asS'ner_seq'
p116
(lp117
S'S-MISC'
p118
aS'O'
aS'O'
aS'O'
aS'O'
aS'O'
aS'O'
aS'O'
aS'O'
aS'O'
aS'O'
aS'O'
aS'O'
aS'O'
aS'O'
aS'O'
aS'O'
aS'O'
assb.