ccopy_reg
_reconstructor
p1
(c__main__
KBproperty
p2
c__builtin__
object
p3
NtRp4
(dp5
S'comment'
p6
S'Release date of a Work or another product eg Aircraft or other MeansOfTransportation'
p7
sS'domain'
p8
S''
sS'instances_count'
p9
S'204819'
p10
sS'label'
p11
S'release date'
p12
sS'range'
p13
S'date '
p14
sS'prop_uri'
p15
S"'http://dbpedia.org/ontology/releaseDate'"
p16
sS'annotations'
p17
(dp18
S'bag_of_words'
p19
(lp20
S'release'
p21
aS'date'
p22
aS'date'
p23
aS'Release'
p24
aS'date'
p25
aS'of'
p26
aS'a'
aS'Work'
p27
aS'or'
p28
aS'another'
p29
aS'product'
p30
aS'eg'
p31
aS'Aircraft'
p32
aS'or'
p33
aS'other'
p34
aS'MeansOfTransportation'
p35
asS'chunk_seq'
p36
(lp37
S'B-NP'
p38
aS'E-NP'
p39
aS'B-NP'
p40
aS'I-NP'
p41
aS'E-NP'
p42
aS'S-PP'
p43
aS'B-NP'
p44
aS'E-NP'
p45
aS'O'
aS'B-NP'
p46
aS'E-NP'
p47
aS'S-PP'
p48
aS'S-NP'
p49
aS'O'
aS'B-NP'
p50
aS'E-NP'
p51
asS'dep_seq'
p52
(lp53
(lp54
S'nn'
p55
aS'3'
aS'1'
aa(lp56
S'nn'
p57
aS'3'
aS'2'
aa(lp58
S'dep'
p59
aS'5'
aS'3'
aa(lp60
S'nn'
p61
aS'5'
aS'4'
aa(lp62
S'root'
p63
aS'0'
aS'5'
aa(lp64
S'det'
p65
aS'8'
aS'7'
aa(lp66
S'prep_of'
p67
aS'5'
aS'8'
aa(lp68
S'det'
p69
aS'11'
p70
aS'10'
p71
aa(lp72
S'conj_or'
p73
aS'8'
aS'11'
p74
aa(lp75
S'prep_eg'
p76
aS'5'
aS'13'
p77
aa(lp78
S'amod'
p79
aS'16'
p80
aS'15'
p81
aa(lp82
S'conj_or'
p83
aS'13'
p84
aS'16'
p85
aasS'srls'
p86
(lp87
sS'pos_seq'
p88
(lp89
S'NN'
p90
aS'NN'
p91
aS'NN'
p92
aS'NN'
p93
aS'NN'
p94
aS'IN'
p95
aS'DT'
p96
aS'NNP'
p97
aS'CC'
p98
aS'DT'
p99
aS'NN'
p100
aS'IN'
p101
aS'NNP'
p102
aS'CC'
p103
aS'JJ'
p104
aS'NNP'
p105
asS'ner_seq'
p106
(lp107
S'O'
aS'O'
aS'O'
aS'O'
aS'O'
aS'O'
aS'O'
aS'O'
aS'O'
aS'O'
aS'O'
aS'O'
aS'O'
aS'O'
aS'O'
aS'S-MISC'
p108
assb.