ccopy_reg
_reconstructor
p1
(c__main__
KBproperty
p2
c__builtin__
object
p3
NtRp4
(dp5
S'comment'
p6
S'colour hex code of away jersey or its parts'
p7
sS'domain'
p8
S''
sS'instances_count'
p9
S'0'
sS'label'
p10
g7
sS'range'
p11
S'string '
p12
sS'prop_uri'
p13
S"'http://dbpedia.org/ontology/awayColourHexCode'"
p14
sS'annotations'
p15
(dp16
S'bag_of_words'
p17
(lp18
S'away'
p19
aS'Colour'
p20
aS'Hex'
p21
aS'Code'
p22
aS'string'
p23
aS'colour'
p24
aS'hex'
p25
aS'code'
p26
aS'of'
p27
aS'away'
p28
aS'jersey'
p29
aS'or'
p30
aS'its'
p31
aS'parts'
p32
asS'chunk_seq'
p33
(lp34
S'S-ADVP'
p35
aS'B-NP'
p36
aS'I-NP'
p37
aS'I-NP'
p38
aS'I-NP'
p39
aS'I-NP'
p40
aS'I-NP'
p41
aS'E-NP'
p42
aS'S-PP'
p43
aS'B-NP'
p44
aS'E-NP'
p45
aS'O'
aS'B-NP'
p46
aS'E-NP'
p47
asS'dep_seq'
p48
(lp49
(lp50
S'dep'
p51
aS'8'
aS'1'
aa(lp52
S'nn'
p53
aS'8'
aS'2'
aa(lp54
S'nn'
p55
aS'8'
aS'3'
aa(lp56
S'nn'
p57
aS'8'
aS'4'
aa(lp58
S'nn'
p59
aS'8'
aS'5'
aa(lp60
S'nn'
p61
aS'8'
aS'6'
aa(lp62
S'nn'
p63
aS'8'
aS'7'
aa(lp64
S'root'
p65
aS'0'
aS'8'
aa(lp66
S'advmod'
p67
aS'8'
aS'10'
p68
aa(lp69
S'prep_of'
p70
aS'8'
aS'11'
p71
aa(lp72
S'poss'
p73
aS'14'
p74
aS'13'
p75
aa(lp76
S'conj_or'
p77
aS'11'
p78
aS'14'
p79
aasS'srls'
p80
(lp81
sS'pos_seq'
p82
(lp83
S'RB'
p84
aS'NNP'
p85
aS'NNP'
p86
aS'NNP'
p87
aS'NN'
p88
aS'NN'
p89
aS'NN'
p90
aS'NN'
p91
aS'IN'
p92
aS'RB'
p93
aS'NN'
p94
aS'CC'
p95
aS'PRP$'
p96
aS'NNS'
p97
asS'ner_seq'
p98
(lp99
S'O'
aS'O'
aS'O'
aS'O'
aS'O'
aS'O'
aS'O'
aS'O'
aS'O'
aS'O'
aS'O'
aS'O'
aS'O'
aS'O'
assb.