ccopy_reg
_reconstructor
p1
(c__main__
KBproperty
p2
c__builtin__
object
p3
NtRp4
(dp5
S'comment'
p6
S'A participating organisation of the project.'
p7
sS'domain'
p8
S'Research Project '
p9
sS'instances_count'
p10
S'84'
p11
sS'label'
p12
S'project participant'
p13
sS'range'
p14
S'Organisation '
p15
sS'prop_uri'
p16
S"'http://dbpedia.org/ontology/projectParticipant'"
p17
sS'annotations'
p18
(dp19
S'bag_of_words'
p20
(lp21
S'Research'
p22
aS'Project'
p23
aS'project'
p24
aS'participant'
p25
aS'Organisation'
p26
aS'A'
aS'participating'
p27
aS'organisation'
p28
aS'of'
p29
aS'the'
p30
aS'project'
p31
aS'.'
asS'chunk_seq'
p32
(lp33
S'B-NP'
p34
aS'I-NP'
p35
aS'I-NP'
p36
aS'I-NP'
p37
aS'E-NP'
p38
aS'B-NP'
p39
aS'I-NP'
p40
aS'E-NP'
p41
aS'S-PP'
p42
aS'B-NP'
p43
aS'E-NP'
p44
aS'O'
asS'dep_seq'
p45
(lp46
(lp47
S'nn'
p48
aS'5'
aS'1'
aa(lp49
S'nn'
p50
aS'5'
aS'2'
aa(lp51
S'nn'
p52
aS'5'
aS'3'
aa(lp53
S'nn'
p54
aS'5'
aS'4'
aa(lp55
S'dep'
p56
aS'8'
aS'5'
aa(lp57
S'det'
p58
aS'8'
aS'6'
aa(lp59
S'amod'
p60
aS'8'
aS'7'
aa(lp61
S'root'
p62
aS'0'
aS'8'
aa(lp63
S'det'
p64
aS'11'
p65
aS'10'
p66
aa(lp67
S'prep_of'
p68
aS'8'
aS'11'
p69
aasS'srls'
p70
(lp71
(dp72
S'A0'
p73
g28
sS'V'
g27
sasS'pos_seq'
p74
(lp75
S'NNP'
p76
aS'NNP'
p77
aS'NN'
p78
aS'NN'
p79
aS'NN'
p80
aS'DT'
p81
aS'VBG'
p82
aS'NN'
p83
aS'IN'
p84
aS'DT'
p85
aS'NN'
p86
aS'.'
asS'ner_seq'
p87
(lp88
S'O'
aS'O'
aS'O'
aS'O'
aS'S-ORG'
p89
aS'O'
aS'O'
aS'O'
aS'O'
aS'O'
aS'O'
aS'O'
assb.