ccopy_reg
_reconstructor
p1
(c__main__
KBproperty
p2
c__builtin__
object
p3
NtRp4
(dp5
S'comment'
p6
S''
sS'domain'
p7
S'Building '
p8
sS'instances_count'
p9
S'0'
sS'label'
p10
S'elevator count'
p11
sS'range'
p12
S'non Negative Integer '
p13
sS'prop_uri'
p14
S"'http://dbpedia.org/ontology/elevatorCount'"
p15
sS'annotations'
p16
(dp17
S'bag_of_words'
p18
(lp19
S'Building'
p20
aS'elevator'
p21
aS'count'
p22
aS'non'
p23
aS'Negative'
p24
aS'Integer'
p25
asS'chunk_seq'
p26
(lp27
S'B-NP'
p28
aS'E-NP'
p29
aS'S-VP'
p30
aS'B-NP'
p31
aS'I-NP'
p32
aS'E-NP'
p33
asS'dep_seq'
p34
(lp35
(lp36
S'amod'
p37
aS'2'
aS'1'
aa(lp38
S'nsubj'
p39
aS'3'
aS'2'
aa(lp40
S'root'
p41
aS'0'
aS'3'
aa(lp42
S'amod'
p43
aS'6'
aS'4'
aa(lp44
S'amod'
p45
aS'6'
aS'5'
aa(lp46
S'dobj'
p47
aS'3'
aS'6'
aasS'srls'
p48
(lp49
(dp50
S'A1'
p51
S'elevator count non Negative Integer'
p52
sS'V'
g20
sa(dp53
S'A1'
p54
S'non Negative Integer'
p55
sS'A0'
p56
S'Building elevator'
p57
sS'V'
g22
sasS'pos_seq'
p58
(lp59
S'VBG'
p60
aS'NN'
p61
aS'VBP'
p62
aS'JJ'
p63
aS'JJ'
p64
aS'NN'
p65
asS'ner_seq'
p66
(lp67
S'O'
aS'O'
aS'O'
aS'O'
aS'B-MISC'
p68
aS'E-MISC'
p69
assb.