ccopy_reg
_reconstructor
p1
(c__main__
KBproperty
p2
c__builtin__
object
p3
NtRp4
(dp5
S'comment'
p6
S''
sS'domain'
p7
S'Athlete '
p8
sS'instances_count'
p9
S'0'
sS'label'
p10
S'superbowl win'
p11
sS'range'
p12
S'string '
p13
sS'prop_uri'
p14
S"'http://dbpedia.org/ontology/superbowlWin'"
p15
sS'annotations'
p16
(dp17
S'bag_of_words'
p18
(lp19
S'Athlete'
p20
aS'superbowl'
p21
aS'win'
p22
aS'string'
p23
asS'chunk_seq'
p24
(lp25
S'B-NP'
p26
aS'E-NP'
p27
aS'S-VP'
p28
aS'O'
asS'dep_seq'
p29
(lp30
(lp31
S'nn'
p32
aS'4'
aS'1'
aa(lp33
S'dep'
p34
aS'4'
aS'2'
aa(lp35
S'dep'
p36
aS'4'
aS'3'
aa(lp37
S'root'
p38
aS'0'
aS'4'
aasS'srls'
p39
(lp40
(dp41
S'A1'
p42
g23
sS'A0'
p43
g20
sS'V'
g22
sS'AM-MOD'
p44
g21
sasS'pos_seq'
p45
(lp46
S'NN'
p47
aS'WDT'
p48
aS'VBP'
p49
aS'NN'
p50
asS'ner_seq'
p51
(lp52
S'O'
aS'O'
aS'O'
aS'O'
assb.