ccopy_reg
_reconstructor
p1
(c__main__
KBproperty
p2
c__builtin__
object
p3
NtRp4
(dp5
S'comment'
p6
S'ISO 4217 currency designators.'
p7
sS'domain'
p8
S'Place '
p9
sS'instances_count'
p10
S'0'
sS'label'
p11
S'currency code'
p12
sS'range'
p13
S'string '
p14
sS'prop_uri'
p15
S"'http://dbpedia.org/ontology/currencyCode'"
p16
sS'annotations'
p17
(dp18
S'bag_of_words'
p19
(lp20
S'Place'
p21
aS'currency'
p22
aS'code'
p23
aS'string'
p24
aS'ISO'
p25
aS'4217'
p26
aS'currency'
p27
aS'designators'
p28
aS'.'
asS'chunk_seq'
p29
(lp30
S'B-NP'
p31
aS'I-NP'
p32
aS'I-NP'
p33
aS'I-NP'
p34
aS'I-NP'
p35
aS'I-NP'
p36
aS'I-NP'
p37
aS'E-NP'
p38
aS'O'
asS'dep_seq'
p39
(lp40
(lp41
S'nn'
p42
aS'8'
aS'1'
aa(lp43
S'nn'
p44
aS'8'
aS'2'
aa(lp45
S'nn'
p46
aS'8'
aS'3'
aa(lp47
S'nn'
p48
aS'8'
aS'4'
aa(lp49
S'nn'
p50
aS'8'
aS'5'
aa(lp51
S'num'
p52
aS'8'
aS'6'
aa(lp53
S'nn'
p54
aS'8'
aS'7'
aa(lp55
S'root'
p56
aS'0'
aS'8'
aasS'srls'
p57
(lp58
sS'pos_seq'
p59
(lp60
S'NN'
p61
aS'NN'
p62
aS'NN'
p63
aS'NN'
p64
aS'NNP'
p65
aS'CD'
p66
aS'NN'
p67
aS'NNS'
p68
aS'.'
asS'ner_seq'
p69
(lp70
S'O'
aS'O'
aS'O'
aS'O'
aS'B-MISC'
p71
aS'E-MISC'
p72
aS'O'
aS'O'
aS'O'
assb.