ccopy_reg
_reconstructor
p1
(c__main__
KBproperty
p2
c__builtin__
object
p3
NtRp4
(dp5
S'comment'
p6
S'gross domestic product GDP $'
p7
sS'domain'
p8
S'Populated Place '
p9
sS'instances_count'
p10
S'20'
p11
sS'label'
p12
g7
sS'range'
p13
S'double '
p14
sS'prop_uri'
p15
S"'http://dbpedia.org/ontology/grossDomesticProduct'"
p16
sS'annotations'
p17
(dp18
S'bag_of_words'
p19
(lp20
S'Populated'
p21
aS'Place'
p22
aS'gross'
p23
aS'Domestic'
p24
aS'Product'
p25
aS'double'
p26
aS'gross'
p27
aS'domestic'
p28
aS'product'
p29
aS'GDP'
p30
aS'$'
asS'chunk_seq'
p31
(lp32
S'B-NP'
p33
aS'I-NP'
p34
aS'I-NP'
p35
aS'I-NP'
p36
aS'I-NP'
p37
aS'I-NP'
p38
aS'I-NP'
p39
aS'I-NP'
p40
aS'I-NP'
p41
aS'E-NP'
p42
aS'S-ADJP'
p43
asS'dep_seq'
p44
(lp45
(lp46
S'amod'
p47
aS'2'
aS'1'
aa(lp48
S'dep'
p49
aS'10'
p50
aS'2'
aa(lp51
S'amod'
p52
aS'5'
aS'3'
aa(lp53
S'nn'
p54
aS'5'
aS'4'
aa(lp55
S'dep'
p56
aS'2'
aS'5'
aa(lp57
S'amod'
p58
aS'10'
p59
aS'6'
aa(lp60
S'amod'
p61
aS'10'
p62
aS'7'
aa(lp63
S'amod'
p64
aS'10'
p65
aS'8'
aa(lp66
S'nn'
p67
aS'10'
p68
aS'9'
aa(lp69
S'root'
p70
aS'0'
aS'10'
p71
aa(lp72
S'advmod'
p73
aS'10'
p74
aS'11'
p75
aasS'srls'
p76
(lp77
sS'pos_seq'
p78
(lp79
S'VBN'
p80
aS'NNP'
p81
aS'JJ'
p82
aS'NNP'
p83
aS'NNP'
p84
aS'JJ'
p85
aS'JJ'
p86
aS'JJ'
p87
aS'NN'
p88
aS'NNP'
p89
aS'$'
asS'ner_seq'
p90
(lp91
S'O'
aS'O'
aS'O'
aS'O'
aS'O'
aS'O'
aS'O'
aS'O'
aS'O'
aS'O'
aS'O'
assb.