ccopy_reg
_reconstructor
p1
(c__main__
KBproperty
p2
c__builtin__
object
p3
NtRp4
(dp5
S'comment'
p6
S''
sS'domain'
p7
S'Boxer '
p8
sS'instances_count'
p9
S'0'
sS'label'
p10
S'amateur victory'
p11
sS'range'
p12
S'non Negative Integer '
p13
sS'prop_uri'
p14
S"'http://dbpedia.org/ontology/amateurVictory'"
p15
sS'annotations'
p16
(dp17
S'bag_of_words'
p18
(lp19
S'Boxer'
p20
aS'amateur'
p21
aS'victory'
p22
aS'non'
p23
aS'Negative'
p24
aS'Integer'
p25
asS'chunk_seq'
p26
(lp27
S'B-NP'
p28
aS'I-NP'
p29
aS'I-NP'
p30
aS'I-NP'
p31
aS'I-NP'
p32
aS'E-NP'
p33
asS'dep_seq'
p34
(lp35
(lp36
S'root'
p37
aS'0'
aS'1'
aa(lp38
S'amod'
p39
aS'3'
aS'2'
aa(lp40
S'dobj'
p41
aS'1'
aS'3'
aa(lp42
S'iobj'
p43
aS'1'
aS'3'
aa(lp44
S'amod'
p45
aS'6'
aS'4'
aa(lp46
S'amod'
p47
aS'6'
aS'5'
aa(lp48
S'dobj'
p49
aS'1'
aS'6'
aa(lp50
S'dep'
p51
aS'3'
aS'6'
aasS'srls'
p52
(lp53
(dp54
S'A1'
p55
S'amateur victory non Negative Integer'
p56
sS'V'
g20
sasS'pos_seq'
p57
(lp58
S'VB'
p59
aS'JJ'
p60
aS'NN'
p61
aS'JJ'
p62
aS'JJ'
p63
aS'NN'
p64
asS'ner_seq'
p65
(lp66
S'O'
aS'O'
aS'O'
aS'O'
aS'B-MISC'
p67
aS'E-MISC'
p68
assb.