ccopy_reg
_reconstructor
p1
(c__main__
KBproperty
p2
c__builtin__
object
p3
NtRp4
(dp5
S'comment'
p6
S'The official colour of the EducationalInstitution represented by the colour name e.g.: red or green.'
p7
sS'domain'
p8
S'Educational Institution '
p9
sS'instances_count'
p10
S'10847'
p11
sS'label'
p12
S'official school colour'
p13
sS'range'
p14
S'string '
p15
sS'prop_uri'
p16
S"'http://dbpedia.org/ontology/officialSchoolColour'"
p17
sS'annotations'
p18
(dp19
S'bag_of_words'
p20
(lp21
S'Educational'
p22
aS'Institution'
p23
aS'official'
p24
aS'school'
p25
aS'colour'
p26
aS'string'
p27
aS'The'
p28
aS'official'
p29
aS'colour'
p30
aS'of'
p31
aS'the'
p32
aS'EducationalInstitution'
p33
aS'represented'
p34
aS'by'
p35
aS'the'
p36
aS'colour'
p37
aS'name'
p38
aS'e.g.'
p39
aS':'
aS'red'
p40
aS'or'
p41
aS'green'
p42
aS'.'
asS'chunk_seq'
p43
(lp44
S'B-NP'
p45
aS'I-NP'
p46
aS'I-NP'
p47
aS'I-NP'
p48
aS'I-NP'
p49
aS'E-NP'
p50
aS'B-NP'
p51
aS'I-NP'
p52
aS'E-NP'
p53
aS'S-PP'
p54
aS'B-NP'
p55
aS'E-NP'
p56
aS'S-VP'
p57
aS'S-PP'
p58
aS'B-NP'
p59
aS'I-NP'
p60
aS'E-NP'
p61
aS'S-ADVP'
p62
aS'O'
aS'B-NP'
p63
aS'I-NP'
p64
aS'E-NP'
p65
aS'O'
asS'dep_seq'
p66
(lp67
(lp68
S'nn'
p69
aS'6'
aS'1'
aa(lp70
S'nn'
p71
aS'6'
aS'2'
aa(lp72
S'amod'
p73
aS'6'
aS'3'
aa(lp74
S'nn'
p75
aS'6'
aS'4'
aa(lp76
S'nn'
p77
aS'6'
aS'5'
aa(lp78
S'dep'
p79
aS'9'
aS'6'
aa(lp80
S'det'
p81
aS'9'
aS'7'
aa(lp82
S'amod'
p83
aS'9'
aS'8'
aa(lp84
S'root'
p85
aS'0'
aS'9'
aa(lp86
S'det'
p87
aS'12'
p88
aS'11'
p89
aa(lp90
S'prep_of'
p91
aS'9'
aS'12'
p92
aa(lp93
S'partmod'
p94
aS'9'
aS'13'
p95
aa(lp96
S'det'
p97
aS'17'
p98
aS'15'
p99
aa(lp100
S'nn'
p101
aS'17'
p102
aS'16'
p103
aa(lp104
S'agent'
p105
aS'13'
p106
aS'17'
p107
aa(lp108
S'advmod'
p109
aS'13'
p110
aS'18'
p111
aa(lp112
S'amod'
p113
aS'9'
aS'20'
p114
aa(lp115
S'conj_or'
p116
aS'20'
p117
aS'22'
p118
aasS'srls'
p119
(lp120
(dp121
S'A0'
p122
S'by the colour name e.g.'
p123
sS'V'
g34
sasS'pos_seq'
p124
(lp125
S'NNP'
p126
aS'NNP'
p127
aS'JJ'
p128
aS'NN'
p129
aS'NN'
p130
aS'NN'
p131
aS'DT'
p132
aS'JJ'
p133
aS'NN'
p134
aS'IN'
p135
aS'DT'
p136
aS'NNP'
p137
aS'VBN'
p138
aS'IN'
p139
aS'DT'
p140
aS'NN'
p141
aS'NN'
p142
aS'RB'
p143
aS':'
aS'JJ'
p144
aS'CC'
p145
aS'JJ'
p146
aS'.'
asS'ner_seq'
p147
(lp148
S'B-ORG'
p149
aS'E-ORG'
p150
aS'O'
aS'O'
aS'O'
aS'O'
aS'O'
aS'O'
aS'O'
aS'O'
aS'O'
aS'S-PER'
p151
aS'O'
aS'O'
aS'O'
aS'O'
aS'O'
aS'O'
aS'O'
aS'O'
aS'O'
aS'O'
aS'O'
assb.