ccopy_reg
_reconstructor
p1
(c__main__
KBproperty
p2
c__builtin__
object
p3
NtRp4
(dp5
S'comment'
p6
S'Default serving size eg "100 g" for the standard 100 g serving size. approximateCalories apply to this serving size'
p7
sS'domain'
p8
S'Food '
p9
sS'instances_count'
p10
S'51'
p11
sS'label'
p12
S'serving size g'
p13
sS'range'
p14
S'double '
p15
sS'prop_uri'
p16
S"'http://dbpedia.org/ontology/servingSize'"
p17
sS'annotations'
p18
(dp19
S'bag_of_words'
p20
(lp21
S'Food'
p22
aS'serving'
p23
aS'size'
p24
aS'g'
aS'double'
p25
aS'Default'
p26
aS'serving'
p27
aS'size'
p28
aS'eg'
p29
aS'"'
aS'100'
p30
aS'g'
aS'"'
aS'for'
p31
aS'the'
p32
aS'standard'
p33
aS'100'
p34
aS'g'
aS'serving'
p35
aS'size'
p36
aS'.'
aS'approximateCalories'
p37
aS'apply'
p38
aS'to'
p39
aS'this'
p40
aS'serving'
p41
aS'size'
p42
asS'chunk_seq'
p43
(lp44
S'B-NP'
p45
aS'I-NP'
p46
aS'I-NP'
p47
aS'I-NP'
p48
aS'I-NP'
p49
aS'E-NP'
p50
aS'S-VP'
p51
aS'B-NP'
p52
aS'E-NP'
p53
aS'B-NP'
p54
aS'I-NP'
p55
aS'I-NP'
p56
aS'E-NP'
p57
aS'S-PP'
p58
aS'B-NP'
p59
aS'I-NP'
p60
aS'I-NP'
p61
aS'E-NP'
p62
aS'S-VP'
p63
aS'S-NP'
p64
aS'O'
aS'S-NP'
p65
aS'S-VP'
p66
aS'S-PP'
p67
aS'B-NP'
p68
aS'I-NP'
p69
aS'E-NP'
p70
asS'dep_seq'
p71
(lp72
(lp73
S'nn'
p74
aS'8'
aS'1'
aa(lp75
S'amod'
p76
aS'8'
aS'2'
aa(lp77
S'nn'
p78
aS'8'
aS'3'
aa(lp79
S'nn'
p80
aS'8'
aS'4'
aa(lp81
S'amod'
p82
aS'8'
aS'5'
aa(lp83
S'nn'
p84
aS'8'
aS'6'
aa(lp85
S'amod'
p86
aS'8'
aS'7'
aa(lp87
S'ccomp'
p88
aS'23'
p89
aS'8'
aa(lp90
S'nn'
p91
aS'8'
aS'9'
aa(lp92
S'nn'
p93
aS'8'
aS'10'
p94
aa(lp95
S'nn'
p96
aS'8'
aS'11'
p97
aa(lp98
S'nn'
p99
aS'8'
aS'12'
p100
aa(lp101
S'dep'
p102
aS'8'
aS'13'
p103
aa(lp104
S'det'
p105
aS'20'
p106
aS'15'
p107
aa(lp108
S'amod'
p109
aS'20'
p110
aS'16'
p111
aa(lp112
S'num'
p113
aS'20'
p114
aS'17'
p115
aa(lp116
S'nn'
p117
aS'20'
p118
aS'18'
p119
aa(lp120
S'amod'
p121
aS'20'
p122
aS'19'
p123
aa(lp124
S'prep_for'
p125
aS'8'
aS'20'
p126
aa(lp127
S'nsubj'
p128
aS'23'
p129
aS'22'
p130
aa(lp131
S'root'
p132
aS'0'
aS'23'
p133
aa(lp134
S'det'
p135
aS'27'
p136
aS'25'
p137
aa(lp138
S'amod'
p139
aS'27'
p140
aS'26'
p141
aa(lp142
S'prep_to'
p143
aS'23'
p144
aS'27'
p145
aasS'srls'
p146
(lp147
(dp148
S'A0'
p149
g22
sS'A2'
p150
S'size g double Default'
p151
sS'V'
g23
sa(dp152
S'A1'
p153
g28
sS'A0'
p154
S'Food serving size g double Default'
p155
sS'C-A0'
p156
S'eg " 100 g " for the standard 100 g serving size'
p157
sS'V'
g27
sa(dp158
S'A0'
p159
S'the standard 100 g'
p160
sS'A2'
p161
g36
sS'V'
g35
sa(dp162
S'A0'
p163
g37
sS'A2'
p164
S'to this serving size'
p165
sS'V'
g38
sa(dp166
S'A0'
p167
g37
sS'A2'
p168
g42
sS'V'
g41
sasS'pos_seq'
p169
(lp170
S'NN'
p171
aS'VBG'
p172
aS'NN'
p173
aS'NN'
p174
aS'JJ'
p175
aS'NN'
p176
aS'VBG'
p177
aS'NN'
p178
aS'FW'
p179
aS'FW'
p180
aS'FW'
p181
aS'FW'
p182
aS'FW'
p183
aS'IN'
p184
aS'DT'
p185
aS'JJ'
p186
aS'CD'
p187
aS'NN'
p188
aS'VBG'
p189
aS'NN'
p190
aS'.'
aS'NNS'
p191
aS'VBP'
p192
aS'TO'
p193
aS'DT'
p194
aS'VBG'
p195
aS'NN'
p196
asS'ner_seq'
p197
(lp198
S'O'
aS'O'
aS'O'
aS'O'
aS'O'
aS'O'
aS'O'
aS'O'
aS'O'
aS'O'
aS'O'
aS'O'
aS'O'
aS'O'
aS'O'
aS'O'
aS'O'
aS'O'
aS'O'
aS'O'
aS'O'
aS'O'
aS'O'
aS'O'
aS'O'
aS'O'
aS'O'
assb.