ccopy_reg
_reconstructor
p1
(c__main__
KBproperty
p2
c__builtin__
object
p3
NtRp4
(dp5
S'comment'
p6
S'Main ingredient used to prepare a specific Food or Beverage. For strings use ingredientName for objects use ingredient.'
p7
sS'domain'
p8
S'Food '
p9
sS'instances_count'
p10
S'12458'
p11
sS'label'
p12
S'ingredient'
p13
sS'range'
p14
S''
sS'prop_uri'
p15
S"'http://dbpedia.org/ontology/ingredient'"
p16
sS'annotations'
p17
(dp18
S'bag_of_words'
p19
(lp20
S'Food'
p21
aS'ingredient'
p22
aS'Main'
p23
aS'ingredient'
p24
aS'used'
p25
aS'to'
p26
aS'prepare'
p27
aS'a'
aS'specific'
p28
aS'Food'
p29
aS'or'
p30
aS'Beverage'
p31
aS'.'
aS'For'
p32
aS'strings'
p33
aS'use'
p34
aS'ingredientName'
p35
aS'for'
p36
aS'objects'
p37
aS'use'
p38
aS'ingredient'
p39
aS'.'
asS'chunk_seq'
p40
(lp41
S'B-NP'
p42
aS'I-NP'
p43
aS'I-NP'
p44
aS'E-NP'
p45
aS'S-VP'
p46
aS'B-VP'
p47
aS'E-VP'
p48
aS'B-NP'
p49
aS'I-NP'
p50
aS'I-NP'
p51
aS'I-NP'
p52
aS'E-NP'
p53
aS'O'
aS'S-PP'
p54
aS'S-NP'
p55
aS'S-VP'
p56
aS'S-ADJP'
p57
aS'S-PP'
p58
aS'S-NP'
p59
aS'S-VP'
p60
aS'S-NP'
p61
aS'O'
asS'dep_seq'
p62
(lp63
(lp64
S'nn'
p65
aS'4'
aS'1'
aa(lp66
S'nn'
p67
aS'4'
aS'2'
aa(lp68
S'nn'
p69
aS'4'
aS'3'
aa(lp70
S'nsubj'
p71
aS'20'
p72
aS'4'
aa(lp73
S'partmod'
p74
aS'4'
aS'5'
aa(lp75
S'aux'
p76
aS'7'
aS'6'
aa(lp77
S'xcomp'
p78
aS'5'
aS'7'
aa(lp79
S'det'
p80
aS'10'
p81
aS'8'
aa(lp82
S'amod'
p83
aS'10'
p84
aS'9'
aa(lp85
S'dobj'
p86
aS'7'
aS'10'
p87
aa(lp88
S'conj_or'
p89
aS'10'
p90
aS'12'
p91
aa(lp92
S'prep_for'
p93
aS'20'
p94
aS'15'
p95
aa(lp96
S'dep'
p97
aS'15'
p98
aS'16'
p99
aa(lp100
S'dobj'
p101
aS'16'
p102
aS'17'
p103
aa(lp104
S'prep_for'
p105
aS'16'
p106
aS'19'
p107
aa(lp108
S'root'
p109
aS'0'
aS'20'
p110
aa(lp111
S'dobj'
p112
aS'20'
p113
aS'21'
p114
aasS'srls'
p115
(lp116
(dp117
S'V'
g25
sa(dp118
S'A1'
p119
S'a specific Food or Beverage'
p120
sS'A0'
p121
S'Food ingredient Main ingredient'
p122
sS'V'
g27
sa(dp123
S'A1'
p124
g35
sS'A0'
p125
g33
sS'A2'
p126
S'for objects use ingredient'
p127
sS'V'
g34
sa(dp128
S'A1'
p129
g39
sS'A0'
p130
g37
sS'V'
g38
sasS'pos_seq'
p131
(lp132
S'NN'
p133
aS'NN'
p134
aS'NNP'
p135
aS'NN'
p136
aS'VBN'
p137
aS'TO'
p138
aS'VB'
p139
aS'DT'
p140
aS'JJ'
p141
aS'NNP'
p142
aS'CC'
p143
aS'NNP'
p144
aS'.'
aS'IN'
p145
aS'NNS'
p146
aS'VBP'
p147
aS'JJ'
p148
aS'IN'
p149
aS'NNS'
p150
aS'VBP'
p151
aS'NN'
p152
aS'.'
asS'ner_seq'
p153
(lp154
S'O'
aS'O'
aS'O'
aS'O'
aS'O'
aS'O'
aS'O'
aS'O'
aS'O'
aS'O'
aS'O'
aS'O'
aS'O'
aS'O'
aS'O'
aS'O'
aS'O'
aS'O'
aS'O'
aS'O'
aS'O'
aS'O'
assb.