ccopy_reg
_reconstructor
p1
(c__main__
KBproperty
p2
c__builtin__
object
p3
NtRp4
(dp5
S'comment'
p6
S'The route type abbreviation eg.: I for Interstate M for Motorway or NJ for New Jersey Route.'
p7
sS'domain'
p8
S'Route Of Transportation '
p9
sS'instances_count'
p10
S'17595'
p11
sS'label'
p12
S'route type abbreviation'
p13
sS'range'
p14
S'string '
p15
sS'prop_uri'
p16
S"'http://dbpedia.org/ontology/routeTypeAbbreviation'"
p17
sS'annotations'
p18
(dp19
S'bag_of_words'
p20
(lp21
S'Route'
p22
aS'Of'
p23
aS'Transportation'
p24
aS'route'
p25
aS'type'
p26
aS'abbreviation'
p27
aS'string'
p28
aS'The'
p29
aS'route'
p30
aS'type'
p31
aS'abbreviation'
p32
aS'eg.'
p33
aS':'
aS'I'
aS'for'
p34
aS'Interstate'
p35
aS'M'
aS'for'
p36
aS'Motorway'
p37
aS'or'
p38
aS'NJ'
p39
aS'for'
p40
aS'New'
p41
aS'Jersey'
p42
aS'Route'
p43
aS'.'
asS'chunk_seq'
p44
(lp45
S'S-NP'
p46
aS'S-PP'
p47
aS'B-NP'
p48
aS'I-NP'
p49
aS'I-NP'
p50
aS'I-NP'
p51
aS'E-NP'
p52
aS'B-NP'
p53
aS'I-NP'
p54
aS'I-NP'
p55
aS'I-NP'
p56
aS'E-NP'
p57
aS'O'
aS'S-NP'
p58
aS'S-PP'
p59
aS'B-NP'
p60
aS'E-NP'
p61
aS'S-PP'
p62
aS'B-NP'
p63
aS'I-NP'
p64
aS'E-NP'
p65
aS'S-PP'
p66
aS'B-NP'
p67
aS'I-NP'
p68
aS'E-NP'
p69
aS'O'
asS'dep_seq'
p70
(lp71
(lp72
S'root'
p73
aS'0'
aS'1'
aa(lp74
S'prep_of'
p75
aS'1'
aS'3'
aa(lp76
S'nn'
p77
aS'5'
aS'4'
aa(lp78
S'nn'
p79
aS'7'
aS'5'
aa(lp80
S'nn'
p81
aS'7'
aS'6'
aa(lp82
S'dep'
p83
aS'1'
aS'7'
aa(lp84
S'det'
p85
aS'11'
p86
aS'8'
aa(lp87
S'nn'
p88
aS'11'
p89
aS'9'
aa(lp90
S'nn'
p91
aS'11'
p92
aS'10'
p93
aa(lp94
S'nn'
p95
aS'12'
p96
aS'11'
p97
aa(lp98
S'dep'
p99
aS'1'
aS'12'
p100
aa(lp101
S'dep'
p102
aS'12'
p103
aS'14'
p104
aa(lp105
S'nn'
p106
aS'17'
p107
aS'16'
p108
aa(lp109
S'prep_for'
p110
aS'14'
p111
aS'17'
p112
aa(lp113
S'prep_for'
p114
aS'14'
p115
aS'19'
p116
aa(lp117
S'conj_or'
p118
aS'19'
p119
aS'21'
p120
aa(lp121
S'nn'
p122
aS'25'
p123
aS'23'
p124
aa(lp125
S'nn'
p126
aS'25'
p127
aS'24'
p128
aa(lp129
S'prep_for'
p130
aS'14'
p131
aS'25'
p132
aasS'srls'
p133
(lp134
sS'pos_seq'
p135
(lp136
S'NNP'
p137
aS'IN'
p138
aS'NNP'
p139
aS'NN'
p140
aS'NN'
p141
aS'NN'
p142
aS'NN'
p143
aS'DT'
p144
aS'NN'
p145
aS'NN'
p146
aS'NN'
p147
aS'NN'
p148
aS':'
aS'PRP'
p149
aS'IN'
p150
aS'NNP'
p151
aS'NNP'
p152
aS'IN'
p153
aS'NNP'
p154
aS'CC'
p155
aS'NNP'
p156
aS'IN'
p157
aS'NNP'
p158
aS'NNP'
p159
aS'NNP'
p160
aS'.'
asS'ner_seq'
p161
(lp162
S'B-ORG'
p163
aS'I-ORG'
p164
aS'E-ORG'
p165
aS'O'
aS'O'
aS'O'
aS'O'
aS'O'
aS'O'
aS'O'
aS'O'
aS'O'
aS'O'
aS'O'
aS'O'
aS'O'
aS'O'
aS'O'
aS'O'
aS'O'
aS'S-LOC'
p166
aS'O'
aS'B-LOC'
p167
aS'E-LOC'
p168
aS'O'
aS'O'
assb.