ccopy_reg
_reconstructor
p1
(c__main__
KBproperty
p2
c__builtin__
object
p3
NtRp4
(dp5
S'comment'
p6
S'The International Standard Book Number ISBN is a unique numeric commercial book identifier based upon the 9-digit Standard Book Numbering SBN code.'
p7
sS'domain'
p8
S'Written Work '
p9
sS'instances_count'
p10
S'24086'
p11
sS'label'
p12
S'ISBN'
p13
sS'range'
p14
S'string '
p15
sS'prop_uri'
p16
S"'http://dbpedia.org/ontology/isbn'"
p17
sS'annotations'
p18
(dp19
S'bag_of_words'
p20
(lp21
S'Written'
p22
aS'Work'
p23
aS'ISBN'
p24
aS'string'
p25
aS'The'
p26
aS'International'
p27
aS'Standard'
p28
aS'Book'
p29
aS'Number'
p30
aS'ISBN'
p31
aS'is'
p32
aS'a'
aS'unique'
p33
aS'numeric'
p34
aS'commercial'
p35
aS'book'
p36
aS'identifier'
p37
aS'based'
p38
aS'upon'
p39
aS'the'
p40
aS'9-d'
p41
aS'igit'
p42
aS'Standard'
p43
aS'Book'
p44
aS'Numbering'
p45
aS'SBN'
p46
aS'code'
p47
aS'.'
asS'chunk_seq'
p48
(lp49
S'B-NP'
p50
aS'I-NP'
p51
aS'I-NP'
p52
aS'E-NP'
p53
aS'B-NP'
p54
aS'I-NP'
p55
aS'I-NP'
p56
aS'I-NP'
p57
aS'I-NP'
p58
aS'E-NP'
p59
aS'S-VP'
p60
aS'B-NP'
p61
aS'I-NP'
p62
aS'I-NP'
p63
aS'I-NP'
p64
aS'I-NP'
p65
aS'E-NP'
p66
aS'S-VP'
p67
aS'S-PP'
p68
aS'B-NP'
p69
aS'I-NP'
p70
aS'I-NP'
p71
aS'I-NP'
p72
aS'I-NP'
p73
aS'I-NP'
p74
aS'I-NP'
p75
aS'E-NP'
p76
aS'O'
asS'dep_seq'
p77
(lp78
(lp79
S'nn'
p80
aS'4'
aS'1'
aa(lp81
S'nn'
p82
aS'4'
aS'2'
aa(lp83
S'nn'
p84
aS'4'
aS'3'
aa(lp85
S'nsubj'
p86
aS'17'
p87
aS'4'
aa(lp88
S'det'
p89
aS'10'
p90
aS'5'
aa(lp91
S'nn'
p92
aS'10'
p93
aS'6'
aa(lp94
S'nn'
p95
aS'10'
p96
aS'7'
aa(lp97
S'nn'
p98
aS'10'
p99
aS'8'
aa(lp100
S'nn'
p101
aS'10'
p102
aS'9'
aa(lp103
S'nsubj'
p104
aS'17'
p105
aS'10'
p106
aa(lp107
S'cop'
p108
aS'17'
p109
aS'11'
p110
aa(lp111
S'det'
p112
aS'17'
p113
aS'12'
p114
aa(lp115
S'amod'
p116
aS'17'
p117
aS'13'
p118
aa(lp119
S'amod'
p120
aS'17'
p121
aS'14'
p122
aa(lp123
S'amod'
p124
aS'17'
p125
aS'15'
p126
aa(lp127
S'nn'
p128
aS'17'
p129
aS'16'
p130
aa(lp131
S'root'
p132
aS'0'
aS'17'
p133
aa(lp134
S'prep'
p135
aS'17'
p136
aS'18'
p137
aa(lp138
S'pcomp'
p139
aS'18'
p140
aS'19'
p141
aa(lp142
S'det'
p143
aS'27'
p144
aS'20'
p145
aa(lp146
S'amod'
p147
aS'27'
p148
aS'd'
aa(lp149
S'amod'
p150
aS'27'
p151
aS'22'
p152
aa(lp153
S'nn'
p154
aS'27'
p155
aS'23'
p156
aa(lp157
S'nn'
p158
aS'27'
p159
aS'24'
p160
aa(lp161
S'nn'
p162
aS'27'
p163
aS'25'
p164
aa(lp165
S'nn'
p166
aS'27'
p167
aS'26'
p168
aa(lp169
S'pobj'
p170
aS'19'
p171
aS'27'
p172
aasS'srls'
p173
(lp174
(dp175
S'A1'
p176
S'a unique numeric commercial book identifier'
p177
sS'A2'
p178
S'upon the 9-d igit Standard Book Numbering SBN code'
p179
sS'V'
g38
sasS'pos_seq'
p180
(lp181
S'NNP'
p182
aS'NNP'
p183
aS'NNP'
p184
aS'NN'
p185
aS'DT'
p186
aS'NNP'
p187
aS'NNP'
p188
aS'NNP'
p189
aS'NNP'
p190
aS'NNP'
p191
aS'VBZ'
p192
aS'DT'
p193
aS'JJ'
p194
aS'JJ'
p195
aS'JJ'
p196
aS'NN'
p197
aS'NN'
p198
aS'VBN'
p199
aS'IN'
p200
aS'DT'
p201
aS'JJ'
p202
aS'JJ'
p203
aS'NNP'
p204
aS'NNP'
p205
aS'NNP'
p206
aS'NNP'
p207
aS'NN'
p208
aS'.'
asS'ner_seq'
p209
(lp210
S'O'
aS'O'
aS'O'
aS'O'
aS'O'
aS'B-MISC'
p211
aS'I-MISC'
p212
aS'E-MISC'
p213
aS'O'
aS'O'
aS'O'
aS'O'
aS'O'
aS'O'
aS'O'
aS'O'
aS'O'
aS'O'
aS'O'
aS'O'
aS'O'
aS'O'
aS'B-MISC'
p214
aS'I-MISC'
p215
aS'I-MISC'
p216
aS'E-MISC'
p217
aS'O'
aS'O'
assb.