ccopy_reg
_reconstructor
p1
(c__main__
KBproperty
p2
c__builtin__
object
p3
NtRp4
(dp5
S'comment'
p6
S'average depth \\xce\\xbc'
p7
sS'domain'
p8
S'Place '
p9
sS'instances_count'
p10
S'2421'
p11
sS'label'
p12
g7
sS'range'
p13
S'double '
p14
sS'prop_uri'
p15
S"'http://dbpedia.org/ontology/averageDepth'"
p16
sS'annotations'
p17
(dp18
S'bag_of_words'
p19
(lp20
S'Place'
p21
aS'average'
p22
aS'Depth'
p23
aS'double'
p24
aS'average'
p25
aS'depth'
p26
aS'\\'
aS'xce'
p27
aS'\\'
aS'xbc'
p28
asS'chunk_seq'
p29
(lp30
S'B-NP'
p31
aS'I-NP'
p32
aS'I-NP'
p33
aS'I-NP'
p34
aS'I-NP'
p35
aS'E-NP'
p36
aS'O'
aS'O'
aS'O'
aS'O'
asS'dep_seq'
p37
(lp38
(lp39
S'root'
p40
aS'0'
aS'1'
aa(lp41
S'amod'
p42
aS'3'
aS'2'
aa(lp43
S'dep'
p44
aS'1'
aS'3'
aa(lp45
S'amod'
p46
aS'6'
aS'4'
aa(lp47
S'amod'
p48
aS'6'
aS'5'
aa(lp49
S'dep'
p50
aS'1'
aS'6'
aa(lp51
S'dep'
p52
aS'6'
aS'7'
aa(lp53
S'discourse'
p54
aS'6'
aS'8'
aa(lp55
S'dep'
p56
aS'8'
aS'9'
aa(lp57
S'dep'
p58
aS'8'
aS'10'
p59
aasS'srls'
p60
(lp61
sS'pos_seq'
p62
(lp63
S'NN'
p64
aS'JJ'
p65
aS'NNP'
p66
aS'JJ'
p67
aS'JJ'
p68
aS'NN'
p69
aS'FW'
p70
aS'FW'
p71
aS'FW'
p72
aS'FW'
p73
asS'ner_seq'
p74
(lp75
S'O'
aS'O'
aS'O'
aS'O'
aS'O'
aS'O'
aS'O'
aS'O'
aS'O'
aS'O'
assb.