ccopy_reg
_reconstructor
p1
(c__main__
KBproperty
p2
c__builtin__
object
p3
NtRp4
(dp5
S'comment'
p6
S'number of matches or caps'
p7
sS'domain'
p8
S'Career Station '
p9
sS'instances_count'
p10
S'605421'
p11
sS'label'
p12
g7
sS'range'
p13
S'integer '
p14
sS'prop_uri'
p15
S"'http://dbpedia.org/ontology/numberOfMatches'"
p16
sS'annotations'
p17
(dp18
S'bag_of_words'
p19
(lp20
S'Career'
p21
aS'Station'
p22
aS'number'
p23
aS'Of'
p24
aS'Matches'
p25
aS'integer'
p26
aS'number'
p27
aS'of'
p28
aS'matches'
p29
aS'or'
p30
aS'caps'
p31
asS'chunk_seq'
p32
(lp33
S'B-NP'
p34
aS'I-NP'
p35
aS'E-NP'
p36
aS'S-PP'
p37
aS'B-NP'
p38
aS'I-NP'
p39
aS'E-NP'
p40
aS'S-PP'
p41
aS'B-NP'
p42
aS'I-NP'
p43
aS'E-NP'
p44
asS'dep_seq'
p45
(lp46
(lp47
S'nn'
p48
aS'3'
aS'1'
aa(lp49
S'nn'
p50
aS'3'
aS'2'
aa(lp51
S'dep'
p52
aS'7'
aS'3'
aa(lp53
S'prep_of'
p54
aS'3'
aS'5'
aa(lp55
S'nn'
p56
aS'7'
aS'6'
aa(lp57
S'root'
p58
aS'0'
aS'7'
aa(lp59
S'prep_of'
p60
aS'7'
aS'9'
aa(lp61
S'conj_or'
p62
aS'9'
aS'11'
p63
aasS'srls'
p64
(lp65
sS'pos_seq'
p66
(lp67
S'NNP'
p68
aS'NNP'
p69
aS'NN'
p70
aS'IN'
p71
aS'NNPS'
p72
aS'NN'
p73
aS'NN'
p74
aS'IN'
p75
aS'NNS'
p76
aS'CC'
p77
aS'NNS'
p78
asS'ner_seq'
p79
(lp80
S'O'
aS'O'
aS'O'
aS'O'
aS'O'
aS'O'
aS'O'
aS'O'
aS'O'
aS'O'
aS'O'
assb.