ccopy_reg
_reconstructor
p1
(c__main__
KBproperty
p2
c__builtin__
object
p3
NtRp4
(dp5
S'comment'
p6
S'Amount of fat per servingSize of a Food'
p7
sS'domain'
p8
S'Food '
p9
sS'instances_count'
p10
S'2'
sS'label'
p11
S'fat g'
p12
sS'range'
p13
S'double '
p14
sS'prop_uri'
p15
S"'http://dbpedia.org/ontology/fat'"
p16
sS'annotations'
p17
(dp18
S'bag_of_words'
p19
(lp20
S'Food'
p21
aS'fat'
p22
aS'g'
aS'double'
p23
aS'Amount'
p24
aS'of'
p25
aS'fat'
p26
aS'per'
p27
aS'servingSize'
p28
aS'of'
p29
aS'a'
aS'Food'
p30
asS'chunk_seq'
p31
(lp32
S'B-NP'
p33
aS'I-NP'
p34
aS'I-NP'
p35
aS'I-NP'
p36
aS'E-NP'
p37
aS'S-PP'
p38
aS'S-NP'
p39
aS'S-PP'
p40
aS'S-NP'
p41
aS'S-PP'
p42
aS'B-NP'
p43
aS'E-NP'
p44
asS'dep_seq'
p45
(lp46
(lp47
S'nn'
p48
aS'5'
aS'1'
aa(lp49
S'amod'
p50
aS'5'
aS'2'
aa(lp51
S'nn'
p52
aS'5'
aS'3'
aa(lp53
S'amod'
p54
aS'5'
aS'4'
aa(lp55
S'root'
p56
aS'0'
aS'5'
aa(lp57
S'prep_of'
p58
aS'5'
aS'7'
aa(lp59
S'prep_per'
p60
aS'5'
aS'9'
aa(lp61
S'det'
p62
aS'12'
p63
aS'11'
p64
aa(lp65
S'prep_of'
p66
aS'9'
aS'12'
p67
aasS'srls'
p68
(lp69
sS'pos_seq'
p70
(lp71
S'NN'
p72
aS'JJ'
p73
aS'NN'
p74
aS'JJ'
p75
aS'NN'
p76
aS'IN'
p77
aS'JJ'
p78
aS'IN'
p79
aS'NN'
p80
aS'IN'
p81
aS'DT'
p82
aS'NN'
p83
asS'ner_seq'
p84
(lp85
S'O'
aS'O'
aS'O'
aS'O'
aS'O'
aS'O'
aS'O'
aS'O'
aS'O'
aS'O'
aS'O'
aS'O'
assb.