ccopy_reg
_reconstructor
p1
(c__main__
KBproperty
p2
c__builtin__
object
p3
NtRp4
(dp5
S'comment'
p6
S''
sS'domain'
p7
S''
sS'instances_count'
p8
S'0'
sS'label'
p9
S'Member of Parliament'
p10
sS'range'
p11
S'Person '
p12
sS'prop_uri'
p13
S"'http://dbpedia.org/ontology/memberOfParliament'"
p14
sS'annotations'
p15
(dp16
S'bag_of_words'
p17
(lp18
S'Member'
p19
aS'of'
p20
aS'Parliament'
p21
aS'Person'
p22
asS'chunk_seq'
p23
(lp24
S'S-NP'
p25
aS'S-PP'
p26
aS'B-NP'
p27
aS'E-NP'
p28
asS'dep_seq'
p29
(lp30
(lp31
S'root'
p32
aS'0'
aS'1'
aa(lp33
S'nn'
p34
aS'4'
aS'3'
aa(lp35
S'prep_of'
p36
aS'1'
aS'4'
aasS'srls'
p37
(lp38
sS'pos_seq'
p39
(lp40
S'NN'
p41
aS'IN'
p42
aS'NNP'
p43
aS'NNP'
p44
asS'ner_seq'
p45
(lp46
S'O'
aS'O'
aS'O'
aS'O'
assb.