ccopy_reg
_reconstructor
p1
(c__main__
KBproperty
p2
c__builtin__
object
p3
NtRp4
(dp5
S'comment'
p6
S'There are many types of business entity defined in the legal systems of various countries. These include corporations cooperatives partnerships sole traders limited liability company and other specialized types of organization.'
p7
sS'domain'
p8
S'Organisation '
p9
sS'instances_count'
p10
S'357'
p11
sS'label'
p12
S'legal form'
p13
sS'range'
p14
S''
sS'prop_uri'
p15
S"'http://dbpedia.org/ontology/legalForm'"
p16
sS'annotations'
p17
(dp18
S'bag_of_words'
p19
(lp20
S'Organisation'
p21
aS'legal'
p22
aS'form'
p23
aS'There'
p24
aS'are'
p25
aS'many'
p26
aS'types'
p27
aS'of'
p28
aS'business'
p29
aS'entity'
p30
aS'defined'
p31
aS'in'
p32
aS'the'
p33
aS'legal'
p34
aS'systems'
p35
aS'of'
p36
aS'various'
p37
aS'countries.'
p38
aS'These'
p39
aS'include'
p40
aS'corporations'
p41
aS'cooperatives'
p42
aS'partnerships'
p43
aS'sole'
p44
aS'traders'
p45
aS'limited'
p46
aS'liability'
p47
aS'company'
p48
aS'and'
p49
aS'other'
p50
aS'specialized'
p51
aS'types'
p52
aS'of'
p53
aS'organization'
p54
aS'.'
asS'chunk_seq'
p55
(lp56
S'B-NP'
p57
aS'I-NP'
p58
aS'E-NP'
p59
aS'S-NP'
p60
aS'S-VP'
p61
aS'B-NP'
p62
aS'E-NP'
p63
aS'S-PP'
p64
aS'B-NP'
p65
aS'E-NP'
p66
aS'S-VP'
p67
aS'S-PP'
p68
aS'B-NP'
p69
aS'I-NP'
p70
aS'E-NP'
p71
aS'S-PP'
p72
aS'B-NP'
p73
aS'E-NP'
p74
aS'S-NP'
p75
aS'S-VP'
p76
aS'B-NP'
p77
aS'I-NP'
p78
aS'I-NP'
p79
aS'I-NP'
p80
aS'I-NP'
p81
aS'I-NP'
p82
aS'I-NP'
p83
aS'E-NP'
p84
aS'O'
aS'B-NP'
p85
aS'I-NP'
p86
aS'E-NP'
p87
aS'S-PP'
p88
aS'S-NP'
p89
aS'O'
asS'dep_seq'
p90
(lp91
(lp92
S'nn'
p93
aS'3'
aS'1'
aa(lp94
S'amod'
p95
aS'3'
aS'2'
aa(lp96
S'nsubj'
p97
aS'20'
p98
aS'3'
aa(lp99
S'expl'
p100
aS'5'
aS'4'
aa(lp101
S'rcmod'
p102
aS'3'
aS'5'
aa(lp103
S'amod'
p104
aS'7'
aS'6'
aa(lp105
S'nsubj'
p106
aS'5'
aS'7'
aa(lp107
S'nn'
p108
aS'10'
p109
aS'9'
aa(lp110
S'prep_of'
p111
aS'7'
aS'10'
p112
aa(lp113
S'partmod'
p114
aS'10'
p115
aS'11'
p116
aa(lp117
S'det'
p118
aS'15'
p119
aS'13'
p120
aa(lp121
S'amod'
p122
aS'15'
p123
aS'14'
p124
aa(lp125
S'prep_in'
p126
aS'11'
p127
aS'15'
p128
aa(lp129
S'amod'
p130
aS'18'
p131
aS'17'
p132
aa(lp133
S'prep_of'
p134
aS'15'
p135
aS'18'
p136
aa(lp137
S'nsubj'
p138
aS'20'
p139
aS'19'
p140
aa(lp141
S'root'
p142
aS'0'
aS'20'
p143
aa(lp144
S'nn'
p145
aS'25'
p146
aS'21'
p147
aa(lp148
S'nn'
p149
aS'25'
p150
aS'22'
p151
aa(lp152
S'nn'
p153
aS'25'
p154
aS'23'
p155
aa(lp156
S'amod'
p157
aS'25'
p158
aS'24'
p159
aa(lp160
S'nsubj'
p161
aS'26'
p162
aS'25'
p163
aa(lp164
S'ccomp'
p165
aS'20'
p166
aS'26'
p167
aa(lp168
S'nn'
p169
aS'28'
p170
aS'27'
p171
aa(lp172
S'dobj'
p173
aS'26'
p174
aS'28'
p175
aa(lp176
S'amod'
p177
aS'32'
p178
aS'30'
p179
aa(lp180
S'amod'
p181
aS'32'
p182
aS'31'
p183
aa(lp184
S'conj_and'
p185
aS'20'
p186
aS'32'
p187
aa(lp188
S'prep_of'
p189
aS'32'
p190
aS'34'
p191
aasS'srls'
p192
(lp193
(dp194
S'A1'
p195
S'many types of business entity'
p196
sS'A2'
p197
S'in the legal systems of various countries. These include corporations cooperatives partnerships sole traders limited liability company and other specialized types of organization'
p198
sS'V'
g31
sa(dp199
S'A1'
p200
S'corporations cooperatives partnerships sole traders limited liability company and other specialized types of organization'
p201
sS'A2'
p202
S'many types of business entity defined in the legal systems of various countries. These'
p203
sS'V'
g40
sa(dp204
S'A1'
p205
S'liability company and other specialized types of organization'
p206
sS'A0'
p207
S'corporations cooperatives partnerships sole traders'
p208
sS'V'
g46
sa(dp209
S'A1'
p210
g52
sS'V'
g51
sasS'pos_seq'
p211
(lp212
S'NN'
p213
aS'JJ'
p214
aS'NN'
p215
aS'EX'
p216
aS'VBP'
p217
aS'JJ'
p218
aS'NNS'
p219
aS'IN'
p220
aS'NN'
p221
aS'NN'
p222
aS'VBN'
p223
aS'IN'
p224
aS'DT'
p225
aS'JJ'
p226
aS'NNS'
p227
aS'IN'
p228
aS'JJ'
p229
aS'NNS'
p230
aS'DT'
p231
aS'VBP'
p232
aS'NNS'
p233
aS'NNS'
p234
aS'NNS'
p235
aS'JJ'
p236
aS'NNS'
p237
aS'VBD'
p238
aS'NN'
p239
aS'NN'
p240
aS'CC'
p241
aS'JJ'
p242
aS'JJ'
p243
aS'NNS'
p244
aS'IN'
p245
aS'NN'
p246
aS'.'
asS'ner_seq'
p247
(lp248
S'O'
aS'O'
aS'O'
aS'O'
aS'O'
aS'O'
aS'O'
aS'O'
aS'O'
aS'O'
aS'O'
aS'O'
aS'O'
aS'O'
aS'O'
aS'O'
aS'O'
aS'O'
aS'O'
aS'O'
aS'O'
aS'O'
aS'O'
aS'O'
aS'O'
aS'O'
aS'O'
aS'O'
aS'O'
aS'O'
aS'O'
aS'O'
aS'O'
aS'O'
aS'O'
assb.