ccopy_reg
_reconstructor
p1
(c__main__
KBproperty
p2
c__builtin__
object
p3
NtRp4
(dp5
S'comment'
p6
S''
sS'domain'
p7
S'National Collegiate Athletic Association Athlete '
p8
sS'instances_count'
p9
S'14'
p10
sS'label'
p11
S'former highschool'
p12
sS'range'
p13
S'Educational Institution '
p14
sS'prop_uri'
p15
S"'http://dbpedia.org/ontology/formerHighschool'"
p16
sS'annotations'
p17
(dp18
S'bag_of_words'
p19
(lp20
S'National'
p21
aS'Collegiate'
p22
aS'Athletic'
p23
aS'Association'
p24
aS'Athlete'
p25
aS'former'
p26
aS'highschool'
p27
aS'Educational'
p28
aS'Institution'
p29
asS'chunk_seq'
p30
(lp31
S'B-NP'
p32
aS'I-NP'
p33
aS'I-NP'
p34
aS'I-NP'
p35
aS'I-NP'
p36
aS'I-NP'
p37
aS'I-NP'
p38
aS'I-NP'
p39
aS'E-NP'
p40
asS'dep_seq'
p41
(lp42
(lp43
S'nn'
p44
aS'5'
aS'1'
aa(lp45
S'nn'
p46
aS'5'
aS'2'
aa(lp47
S'nn'
p48
aS'5'
aS'3'
aa(lp49
S'nn'
p50
aS'5'
aS'4'
aa(lp51
S'root'
p52
aS'0'
aS'5'
aa(lp53
S'amod'
p54
aS'9'
aS'6'
aa(lp55
S'nn'
p56
aS'9'
aS'7'
aa(lp57
S'nn'
p58
aS'9'
aS'8'
aa(lp59
S'dep'
p60
aS'5'
aS'9'
aasS'srls'
p61
(lp62
sS'pos_seq'
p63
(lp64
S'NNP'
p65
aS'NNP'
p66
aS'NNP'
p67
aS'NNP'
p68
aS'NNP'
p69
aS'JJ'
p70
aS'NN'
p71
aS'NNP'
p72
aS'NNP'
p73
asS'ner_seq'
p74
(lp75
S'B-ORG'
p76
aS'I-ORG'
p77
aS'I-ORG'
p78
aS'I-ORG'
p79
aS'E-ORG'
p80
aS'O'
aS'O'
aS'B-ORG'
p81
aS'E-ORG'
p82
assb.