ccopy_reg
_reconstructor
p1
(c__main__
KBproperty
p2
c__builtin__
object
p3
NtRp4
(dp5
S'comment'
p6
S''
sS'domain'
p7
S''
sS'instances_count'
p8
S'554'
p9
sS'label'
p10
S'area urban km'
p11
sS'range'
p12
S''
sS'prop_uri'
p13
S"'http://dbpedia.org/property/areaUrbanKm'"
p14
sS'annotations'
p15
(dp16
S'bag_of_words'
p17
(lp18
S'area'
p19
aS'urban'
p20
aS'km'
p21
asS'chunk_seq'
p22
(lp23
S'B-NP'
p24
aS'I-NP'
p25
aS'E-NP'
p26
asS'dep_seq'
p27
(lp28
(lp29
S'root'
p30
aS'0'
aS'1'
aa(lp31
S'amod'
p32
aS'1'
aS'2'
aa(lp33
S'punct'
p34
aS'1'
aS'3'
aasS'srls'
p35
(lp36
sS'pos_seq'
p37
(lp38
S'NN'
p39
aS'JJ'
p40
aS'.'
asS'ner_seq'
p41
(lp42
S'O'
aS'O'
aS'O'
assb.