ccopy_reg
_reconstructor
p1
(c__main__
KBproperty
p2
c__builtin__
object
p3
NtRp4
(dp5
S'comment'
p6
S'Org/Group'
p7
sS'domain'
p8
S''
sS'instances_count'
p9
S'1106'
p10
sS'label'
p11
g7
sS'range'
p12
S''
sS'prop_uri'
p13
S"'http://dbpedia.org/property/org/group'"
p14
sS'annotations'
p15
(dp16
S'bag_of_words'
p17
(lp18
S'group'
p19
aS'Org'
p20
aS'/'
aS'Group'
p21
asS'chunk_seq'
p22
(lp23
S'B-NP'
p24
aS'I-NP'
p25
aS'I-NP'
p26
aS'E-NP'
p27
asS'dep_seq'
p28
(lp29
(lp30
S'nn'
p31
aS'4'
aS'1'
aa(lp32
S'nn'
p33
aS'4'
aS'2'
aa(lp34
S'punct'
p35
aS'4'
aS'3'
aa(lp36
S'root'
p37
aS'0'
aS'4'
aasS'srls'
p38
(lp39
sS'pos_seq'
p40
(lp41
S'NN'
p42
aS'NNP'
p43
aS':'
aS'NN'
p44
asS'ner_seq'
p45
(lp46
S'O'
aS'B-ORG'
p47
aS'I-ORG'
p48
aS'E-ORG'
p49
assb.