ccopy_reg
_reconstructor
p1
(c__main__
KBproperty
p2
c__builtin__
object
p3
NtRp4
(dp5
S'comment'
p6
S'perimeter \\xce\\xbc'
p7
sS'domain'
p8
S'Place '
p9
sS'instances_count'
p10
S'0'
sS'label'
p11
g7
sS'range'
p12
S'double '
p13
sS'prop_uri'
p14
S"'http://dbpedia.org/ontology/perimeter'"
p15
sS'annotations'
p16
(dp17
S'bag_of_words'
p18
(lp19
S'Place'
p20
aS'perimeter'
p21
aS'double'
p22
aS'perimeter'
p23
aS'\\'
aS'xce'
p24
aS'\\'
aS'xbc'
p25
asS'chunk_seq'
p26
(lp27
S'B-NP'
p28
aS'I-NP'
p29
aS'I-NP'
p30
aS'E-NP'
p31
aS'O'
aS'O'
aS'O'
aS'O'
asS'dep_seq'
p32
(lp33
(lp34
S'root'
p35
aS'0'
aS'1'
aa(lp36
S'dep'
p37
aS'1'
aS'2'
aa(lp38
S'dep'
p39
aS'1'
aS'3'
aa(lp40
S'dep'
p41
aS'1'
aS'4'
aa(lp42
S'dep'
p43
aS'1'
aS'5'
aa(lp44
S'dep'
p45
aS'1'
aS'6'
aa(lp46
S'dep'
p47
aS'1'
aS'7'
aa(lp48
S'dep'
p49
aS'1'
aS'8'
aasS'srls'
p50
(lp51
sS'pos_seq'
p52
(lp53
S'NN'
p54
aS'NN'
p55
aS'JJ'
p56
aS'NN'
p57
aS'FW'
p58
aS'FW'
p59
aS'FW'
p60
aS'FW'
p61
asS'ner_seq'
p62
(lp63
S'O'
aS'O'
aS'O'
aS'O'
aS'O'
aS'O'
aS'O'
aS'O'
assb.