ccopy_reg
_reconstructor
p1
(c__main__
KBproperty
p2
c__builtin__
object
p3
NtRp4
(dp5
S'comment'
p6
S''
sS'domain'
p7
S'Person '
p8
sS'instances_count'
p9
S'520'
p10
sS'label'
p11
S'resting place position'
p12
sS'range'
p13
S'Spatial Thing '
p14
sS'prop_uri'
p15
S"'http://dbpedia.org/ontology/restingPlacePosition'"
p16
sS'annotations'
p17
(dp18
S'bag_of_words'
p19
(lp20
S'Person'
p21
aS'resting'
p22
aS'place'
p23
aS'position'
p24
aS'Spatial'
p25
aS'Thing'
p26
asS'chunk_seq'
p27
(lp28
S'B-NP'
p29
aS'I-NP'
p30
aS'I-NP'
p31
aS'E-NP'
p32
aS'B-NP'
p33
aS'E-NP'
p34
asS'dep_seq'
p35
(lp36
(lp37
S'nn'
p38
aS'6'
aS'1'
aa(lp39
S'amod'
p40
aS'6'
aS'2'
aa(lp41
S'nn'
p42
aS'6'
aS'3'
aa(lp43
S'nn'
p44
aS'6'
aS'4'
aa(lp45
S'amod'
p46
aS'6'
aS'5'
aa(lp47
S'root'
p48
aS'0'
aS'6'
aasS'srls'
p49
(lp50
(dp51
S'A1'
p52
S'Person  place position Spatial Thing'
p53
sS'V'
g22
sasS'pos_seq'
p54
(lp55
S'NN'
p56
aS'VBG'
p57
aS'NN'
p58
aS'NN'
p59
aS'JJ'
p60
aS'NN'
p61
asS'ner_seq'
p62
(lp63
S'O'
aS'O'
aS'O'
aS'O'
aS'O'
aS'O'
assb.