ccopy_reg
_reconstructor
p1
(c__main__
KBproperty
p2
c__builtin__
object
p3
NtRp4
(dp5
S'comment'
p6
S'number of launches with unknown outcomes or in progress'
p7
sS'domain'
p8
S'Rocket '
p9
sS'instances_count'
p10
S'0'
sS'label'
p11
S'unknown outcomes'
p12
sS'range'
p13
S'non Negative Integer '
p14
sS'prop_uri'
p15
S"'http://dbpedia.org/ontology/unknownOutcomes'"
p16
sS'annotations'
p17
(dp18
S'bag_of_words'
p19
(lp20
S'Rocket'
p21
aS'unknown'
p22
aS'outcomes'
p23
aS'non'
p24
aS'Negative'
p25
aS'Integer'
p26
aS'number'
p27
aS'of'
p28
aS'launches'
p29
aS'with'
p30
aS'unknown'
p31
aS'outcomes'
p32
aS'or'
p33
aS'in'
p34
aS'progress'
p35
asS'chunk_seq'
p36
(lp37
S'B-NP'
p38
aS'I-NP'
p39
aS'E-NP'
p40
aS'B-NP'
p41
aS'I-NP'
p42
aS'I-NP'
p43
aS'E-NP'
p44
aS'S-PP'
p45
aS'S-NP'
p46
aS'S-PP'
p47
aS'B-NP'
p48
aS'E-NP'
p49
aS'O'
aS'S-PP'
p50
aS'S-NP'
p51
asS'dep_seq'
p52
(lp53
(lp54
S'nn'
p55
aS'3'
aS'1'
aa(lp56
S'amod'
p57
aS'3'
aS'2'
aa(lp58
S'dep'
p59
aS'7'
aS'3'
aa(lp60
S'dep'
p61
aS'7'
aS'4'
aa(lp62
S'amod'
p63
aS'7'
aS'5'
aa(lp64
S'nn'
p65
aS'7'
aS'6'
aa(lp66
S'root'
p67
aS'0'
aS'7'
aa(lp68
S'prep_of'
p69
aS'7'
aS'9'
aa(lp70
S'conj_or'
p71
aS'9'
aS"9'"
p72
aa(lp73
S'amod'
p74
aS'12'
p75
aS'11'
p76
aa(lp77
S'prep_with'
p78
aS'9'
aS'12'
p79
aa(lp80
S'prep_in'
p81
aS"9'"
p82
aS'15'
p83
aasS'srls'
p84
(lp85
sS'pos_seq'
p86
(lp87
S'NNP'
p88
aS'JJ'
p89
aS'NNS'
p90
aS'VBP'
p91
aS'JJ'
p92
aS'NN'
p93
aS'NN'
p94
aS'IN'
p95
aS'NNS'
p96
aS'IN'
p97
aS'JJ'
p98
aS'NNS'
p99
aS'CC'
p100
aS'IN'
p101
aS'NN'
p102
asS'ner_seq'
p103
(lp104
S'O'
aS'O'
aS'O'
aS'O'
aS'O'
aS'O'
aS'O'
aS'O'
aS'O'
aS'O'
aS'O'
aS'O'
aS'O'
aS'O'
aS'O'
assb.