ccopy_reg
_reconstructor
p1
(c__main__
KBproperty
p2
c__builtin__
object
p3
NtRp4
(dp5
S'comment'
p6
S'Plants from which another plant or cultivar has been developed from'
p7
sS'domain'
p8
S'Plant '
p9
sS'instances_count'
p10
S'1921'
p11
sS'label'
p12
S'hybrid'
p13
sS'range'
p14
S'Plant '
p15
sS'prop_uri'
p16
S"'http://dbpedia.org/ontology/hybrid'"
p17
sS'annotations'
p18
(dp19
S'bag_of_words'
p20
(lp21
S'Plant'
p22
aS'hybrid'
p23
aS'Plant'
p24
aS'Plants'
p25
aS'from'
p26
aS'which'
p27
aS'another'
p28
aS'plant'
p29
aS'or'
p30
aS'cultivar'
p31
aS'has'
p32
aS'been'
p33
aS'developed'
p34
aS'from'
p35
asS'chunk_seq'
p36
(lp37
S'B-NP'
p38
aS'I-NP'
p39
aS'I-NP'
p40
aS'E-NP'
p41
aS'S-PP'
p42
aS'S-NP'
p43
aS'B-NP'
p44
aS'I-NP'
p45
aS'I-NP'
p46
aS'E-NP'
p47
aS'B-VP'
p48
aS'I-VP'
p49
aS'E-VP'
p50
aS'S-PP'
p51
asS'dep_seq'
p52
(lp53
(lp54
S'nn'
p55
aS'4'
aS'1'
aa(lp56
S'nn'
p57
aS'4'
aS'2'
aa(lp58
S'nn'
p59
aS'4'
aS'3'
aa(lp60
S'root'
p61
aS'0'
aS'4'
aa(lp62
S'prep_from'
p63
aS'4'
aS'6'
aa(lp64
S'det'
p65
aS'8'
aS'7'
aa(lp66
S'prep_from'
p67
aS'4'
aS'8'
aa(lp68
S'conj_or'
p69
aS'8'
aS'10'
p70
aa(lp71
S'dep'
p72
aS'4'
aS'11'
p73
aa(lp74
S'dep'
p75
aS'4'
aS'12'
p76
aa(lp77
S'dep'
p78
aS'4'
aS'13'
p79
aa(lp80
S'dep'
p81
aS'4'
aS'14'
p82
aasS'srls'
p83
(lp84
(dp85
S'A1'
p86
S'Plant hybrid Plant Plants from which another plant or cultivar'
p87
sS'V'
g34
sasS'pos_seq'
p88
(lp89
S'NN'
p90
aS'NN'
p91
aS'NN'
p92
aS'NNS'
p93
aS'IN'
p94
aS'WDT'
p95
aS'DT'
p96
aS'NN'
p97
aS'CC'
p98
aS'NN'
p99
aS'VBZ'
p100
aS'VBN'
p101
aS'VBN'
p102
aS'IN'
p103
asS'ner_seq'
p104
(lp105
S'O'
aS'O'
aS'O'
aS'O'
aS'O'
aS'O'
aS'O'
aS'O'
aS'O'
aS'O'
aS'O'
aS'O'
aS'O'
aS'O'
assb.