ccopy_reg
_reconstructor
p1
(c__main__
KBproperty
p2
c__builtin__
object
p3
NtRp4
(dp5
S'comment'
p6
S''
sS'domain'
p7
S'Gridiron Football Player '
p8
sS'instances_count'
p9
S'10377'
p10
sS'label'
p11
S'draft pick'
p12
sS'range'
p13
S'string '
p14
sS'prop_uri'
p15
S"'http://dbpedia.org/ontology/draftPick'"
p16
sS'annotations'
p17
(dp18
S'bag_of_words'
p19
(lp20
S'Gridiron'
p21
aS'Football'
p22
aS'Player'
p23
aS'draft'
p24
aS'pick'
p25
aS'string'
p26
asS'chunk_seq'
p27
(lp28
S'B-NP'
p29
aS'I-NP'
p30
aS'I-NP'
p31
aS'E-NP'
p32
aS'S-VP'
p33
aS'S-NP'
p34
asS'dep_seq'
p35
(lp36
(lp37
S'nn'
p38
aS'4'
aS'1'
aa(lp39
S'nn'
p40
aS'4'
aS'2'
aa(lp41
S'nn'
p42
aS'4'
aS'3'
aa(lp43
S'nsubj'
p44
aS'5'
aS'4'
aa(lp45
S'root'
p46
aS'0'
aS'5'
aa(lp47
S'dobj'
p48
aS'5'
aS'6'
aasS'srls'
p49
(lp50
(dp51
S'A0'
p52
S'Gridiron Football Player draft'
p53
sS'A2'
p54
g26
sS'V'
g25
sasS'pos_seq'
p55
(lp56
S'NNP'
p57
aS'NNP'
p58
aS'NNP'
p59
aS'NN'
p60
aS'VB'
p61
aS'NN'
p62
asS'ner_seq'
p63
(lp64
S'B-ORG'
p65
aS'I-ORG'
p66
aS'E-ORG'
p67
aS'O'
aS'O'
aS'O'
assb.