ccopy_reg
_reconstructor
p1
(c__main__
KBproperty
p2
c__builtin__
object
p3
NtRp4
(dp5
S'comment'
p6
S''
sS'domain'
p7
S'Golf Player '
p8
sS'instances_count'
p9
S'13'
p10
sS'label'
p11
S'wins at pga'
p12
sS'range'
p13
S''
sS'prop_uri'
p14
S"'http://dbpedia.org/ontology/winsAtPGA'"
p15
sS'annotations'
p16
(dp17
S'bag_of_words'
p18
(lp19
S'Golf'
p20
aS'Player'
p21
aS'wins'
p22
aS'at'
p23
aS'pga'
p24
asS'chunk_seq'
p25
(lp26
S'B-NP'
p27
aS'E-NP'
p28
aS'S-VP'
p29
aS'S-PP'
p30
aS'S-NP'
p31
asS'dep_seq'
p32
(lp33
(lp34
S'nn'
p35
aS'2'
aS'1'
aa(lp36
S'nsubj'
p37
aS'3'
aS'2'
aa(lp38
S'root'
p39
aS'0'
aS'3'
aa(lp40
S'prep_at'
p41
aS'3'
aS'5'
aasS'srls'
p42
(lp43
(dp44
S'A0'
p45
S'Golf Player'
p46
sS'AM-LOC'
p47
S'at pga'
p48
sS'V'
g22
sasS'pos_seq'
p49
(lp50
S'NNP'
p51
aS'NNP'
p52
aS'VBZ'
p53
aS'IN'
p54
aS'NN'
p55
asS'ner_seq'
p56
(lp57
S'B-ORG'
p58
aS'E-ORG'
p59
aS'O'
aS'O'
aS'O'
assb.