ccopy_reg
_reconstructor
p1
(c__main__
KBproperty
p2
c__builtin__
object
p3
NtRp4
(dp5
S'comment'
p6
S'This property is to accommodate the list field that contains a list of e.g. monuments in the same town'
p7
sS'domain'
p8
S'Place '
p9
sS'instances_count'
p10
S'0'
sS'label'
p11
S'related places'
p12
sS'range'
p13
S'List '
p14
sS'prop_uri'
p15
S"'http://dbpedia.org/ontology/relatedPlaces'"
p16
sS'annotations'
p17
(dp18
S'bag_of_words'
p19
(lp20
S'Place'
p21
aS'related'
p22
aS'places'
p23
aS'List'
p24
aS'This'
p25
aS'property'
p26
aS'is'
p27
aS'to'
p28
aS'accommodate'
p29
aS'the'
p30
aS'list'
p31
aS'field'
p32
aS'that'
p33
aS'contains'
p34
aS'a'
aS'list'
p35
aS'of'
p36
aS'e.g.'
p37
aS'monuments'
p38
aS'in'
p39
aS'the'
p40
aS'same'
p41
aS'town'
p42
asS'chunk_seq'
p43
(lp44
S'B-NP'
p45
aS'I-NP'
p46
aS'I-NP'
p47
aS'E-NP'
p48
aS'B-NP'
p49
aS'E-NP'
p50
aS'S-VP'
p51
aS'B-VP'
p52
aS'E-VP'
p53
aS'B-NP'
p54
aS'I-NP'
p55
aS'E-NP'
p56
aS'S-NP'
p57
aS'S-VP'
p58
aS'B-NP'
p59
aS'E-NP'
p60
aS'S-PP'
p61
aS'B-NP'
p62
aS'E-NP'
p63
aS'S-PP'
p64
aS'B-NP'
p65
aS'I-NP'
p66
aS'E-NP'
p67
asS'dep_seq'
p68
(lp69
(lp70
S'dep'
p71
aS'4'
aS'1'
aa(lp72
S'amod'
p73
aS'3'
aS'2'
aa(lp74
S'nn'
p75
aS'4'
aS'3'
aa(lp76
S'root'
p77
aS'0'
aS'4'
aa(lp78
S'det'
p79
aS'6'
aS'5'
aa(lp80
S'nsubj'
p81
aS'7'
aS'6'
aa(lp82
S'xsubj'
p83
aS'9'
aS'6'
aa(lp84
S'rcmod'
p85
aS'3'
aS'7'
aa(lp86
S'ccomp'
p87
aS'4'
aS'7'
aa(lp88
S'aux'
p89
aS'9'
aS'8'
aa(lp90
S'xcomp'
p91
aS'7'
aS'9'
aa(lp92
S'det'
p93
aS'12'
p94
aS'10'
p95
aa(lp96
S'nn'
p97
aS'12'
p98
aS'11'
p99
aa(lp100
S'dobj'
p101
aS'9'
aS'12'
p102
aa(lp103
S'nsubj'
p104
aS'14'
p105
aS'12'
p106
aa(lp107
S'rcmod'
p108
aS'12'
p109
aS'14'
p110
aa(lp111
S'det'
p112
aS'16'
p113
aS'15'
p114
aa(lp115
S'dobj'
p116
aS'14'
p117
aS'16'
p118
aa(lp119
S'amod'
p120
aS'19'
p121
aS'18'
p122
aa(lp123
S'prep_of'
p124
aS'16'
p125
aS'19'
p126
aa(lp127
S'det'
p128
aS'23'
p129
aS'21'
p130
aa(lp131
S'amod'
p132
aS'23'
p133
aS'22'
p134
aa(lp135
S'prep_in'
p136
aS'19'
p137
aS'23'
p138
aasS'srls'
p139
(lp140
(dp141
S'A1'
p142
g23
sS'V'
g22
sa(dp143
S'A1'
p144
S'the list field that contains a list of e.g. monuments in the same town'
p145
sS'V'
g29
sa(dp146
S'A1'
p147
S'a list of e.g. monuments in the same town'
p148
sS'A0'
p149
S'the list field'
p150
sS'R-A0'
p151
g33
sS'V'
g34
sasS'pos_seq'
p152
(lp153
S'NN'
p154
aS'JJ'
p155
aS'NNS'
p156
aS'NN'
p157
aS'DT'
p158
aS'NN'
p159
aS'VBZ'
p160
aS'TO'
p161
aS'VB'
p162
aS'DT'
p163
aS'NN'
p164
aS'NN'
p165
aS'WDT'
p166
aS'VBZ'
p167
aS'DT'
p168
aS'NN'
p169
aS'IN'
p170
aS'JJ'
p171
aS'NNS'
p172
aS'IN'
p173
aS'DT'
p174
aS'JJ'
p175
aS'NN'
p176
asS'ner_seq'
p177
(lp178
S'O'
aS'O'
aS'O'
aS'O'
aS'O'
aS'O'
aS'O'
aS'O'
aS'O'
aS'O'
aS'O'
aS'O'
aS'O'
aS'O'
aS'O'
aS'O'
aS'O'
aS'O'
aS'O'
aS'O'
aS'O'
aS'O'
aS'O'
assb.