ccopy_reg
_reconstructor
p1
(c__main__
KBproperty
p2
c__builtin__
object
p3
NtRp4
(dp5
S'comment'
p6
S''
sS'domain'
p7
S'Athlete '
p8
sS'instances_count'
p9
S'0'
sS'label'
p10
S'state of origin point'
p11
sS'range'
p12
S'non Negative Integer '
p13
sS'prop_uri'
p14
S"'http://dbpedia.org/ontology/stateOfOriginPoint'"
p15
sS'annotations'
p16
(dp17
S'bag_of_words'
p18
(lp19
S'Athlete'
p20
aS'state'
p21
aS'of'
p22
aS'origin'
p23
aS'point'
p24
aS'non'
p25
aS'Negative'
p26
aS'Integer'
p27
asS'chunk_seq'
p28
(lp29
S'B-NP'
p30
aS'E-NP'
p31
aS'S-PP'
p32
aS'B-NP'
p33
aS'E-NP'
p34
aS'B-NP'
p35
aS'I-NP'
p36
aS'E-NP'
p37
asS'dep_seq'
p38
(lp39
(lp40
S'nn'
p41
aS'2'
aS'1'
aa(lp42
S'root'
p43
aS'0'
aS'2'
aa(lp44
S'prep_of'
p45
aS'2'
aS'4'
aa(lp46
S'dep'
p47
aS'2'
aS'5'
aa(lp48
S'advmod'
p49
aS'8'
aS'6'
aa(lp50
S'amod'
p51
aS'8'
aS'7'
aa(lp52
S'dobj'
p53
aS'5'
aS'8'
aasS'srls'
p54
(lp55
sS'pos_seq'
p56
(lp57
S'NN'
p58
aS'NN'
p59
aS'IN'
p60
aS'NN'
p61
aS'NN'
p62
aS'RB'
p63
aS'JJ'
p64
aS'NN'
p65
asS'ner_seq'
p66
(lp67
S'O'
aS'O'
aS'O'
aS'O'
aS'O'
aS'O'
aS'O'
aS'O'
assb.