ccopy_reg
_reconstructor
p1
(c__main__
KBproperty
p2
c__builtin__
object
p3
NtRp4
(dp5
S'comment'
p6
S'Number of spans or arches.'
p7
sS'domain'
p8
S'Bridge '
p9
sS'instances_count'
p10
S'761'
p11
sS'label'
p12
S'number of spans'
p13
sS'range'
p14
S'non Negative Integer '
p15
sS'prop_uri'
p16
S"'http://dbpedia.org/ontology/numberOfSpans'"
p17
sS'annotations'
p18
(dp19
S'bag_of_words'
p20
(lp21
S'Bridge'
p22
aS'number'
p23
aS'of'
p24
aS'spans'
p25
aS'non'
p26
aS'Negative'
p27
aS'Integer'
p28
aS'Number'
p29
aS'of'
p30
aS'spans'
p31
aS'or'
p32
aS'arches'
p33
aS'.'
asS'chunk_seq'
p34
(lp35
S'B-NP'
p36
aS'E-NP'
p37
aS'S-PP'
p38
aS'S-VP'
p39
aS'B-NP'
p40
aS'I-NP'
p41
aS'I-NP'
p42
aS'E-NP'
p43
aS'S-PP'
p44
aS'B-NP'
p45
aS'I-NP'
p46
aS'E-NP'
p47
aS'O'
asS'dep_seq'
p48
(lp49
(lp50
S'nn'
p51
aS'2'
aS'1'
aa(lp52
S'root'
p53
aS'0'
aS'2'
aa(lp54
S'dep'
p55
aS'4'
aS'3'
aa(lp56
S'rcmod'
p57
aS'2'
aS'4'
aa(lp58
S'amod'
p59
aS'8'
aS'5'
aa(lp60
S'nn'
p61
aS'8'
aS'6'
aa(lp62
S'nn'
p63
aS'8'
aS'7'
aa(lp64
S'dobj'
p65
aS'4'
aS'8'
aa(lp66
S'prep_of'
p67
aS'8'
aS'10'
p68
aa(lp69
S'conj_or'
p70
aS'10'
p71
aS'12'
p72
aasS'srls'
p73
(lp74
(dp75
S'A1'
p76
S'non Negative Integer Number of spans or arches'
p77
sS'V'
g25
sasS'pos_seq'
p78
(lp79
S'NN'
p80
aS'NN'
p81
aS'IN'
p82
aS'VBZ'
p83
aS'JJ'
p84
aS'NNP'
p85
aS'NNP'
p86
aS'NNP'
p87
aS'IN'
p88
aS'NNS'
p89
aS'CC'
p90
aS'NNS'
p91
aS'.'
asS'ner_seq'
p92
(lp93
S'O'
aS'O'
aS'O'
aS'O'
aS'O'
aS'O'
aS'O'
aS'O'
aS'O'
aS'O'
aS'O'
aS'O'
aS'O'
assb.