ccopy_reg
_reconstructor
p1
(c__main__
KBproperty
p2
c__builtin__
object
p3
NtRp4
(dp5
S'comment'
p6
S''
sS'domain'
p7
S''
sS'instances_count'
p8
S'9841'
p9
sS'label'
p10
S'production start year'
p11
sS'range'
p12
S'g Year '
p13
sS'prop_uri'
p14
S"'http://dbpedia.org/ontology/productionStartYear'"
p15
sS'annotations'
p16
(dp17
S'bag_of_words'
p18
(lp19
S'production'
p20
aS'start'
p21
aS'year'
p22
aS'g'
aS'Year'
p23
asS'chunk_seq'
p24
(lp25
S'B-NP'
p26
aS'I-NP'
p27
aS'I-NP'
p28
aS'I-NP'
p29
aS'E-NP'
p30
asS'dep_seq'
p31
(lp32
(lp33
S'nn'
p34
aS'3'
aS'1'
aa(lp35
S'nn'
p36
aS'3'
aS'2'
aa(lp37
S'root'
p38
aS'0'
aS'3'
aa(lp39
S'nn'
p40
aS'5'
aS'4'
aa(lp41
S'dep'
p42
aS'3'
aS'5'
aasS'srls'
p43
(lp44
sS'pos_seq'
p45
(lp46
S'NN'
p47
aS'NN'
p48
aS'NN'
p49
aS'NN'
p50
aS'NN'
p51
asS'ner_seq'
p52
(lp53
S'O'
aS'O'
aS'O'
aS'O'
aS'O'
assb.