ccopy_reg
_reconstructor
p1
(c__main__
KBproperty
p2
c__builtin__
object
p3
NtRp4
(dp5
S'comment'
p6
S'Number of vehicles used in the transit system.'
p7
sS'domain'
p8
S'Public Transit System '
p9
sS'instances_count'
p10
S'409'
p11
sS'label'
p12
S'number of vehicles'
p13
sS'range'
p14
S'non Negative Integer '
p15
sS'prop_uri'
p16
S"'http://dbpedia.org/ontology/numberOfVehicles'"
p17
sS'annotations'
p18
(dp19
S'bag_of_words'
p20
(lp21
S'Public'
p22
aS'Transit'
p23
aS'System'
p24
aS'number'
p25
aS'of'
p26
aS'vehicles'
p27
aS'non'
p28
aS'Negative'
p29
aS'Integer'
p30
aS'Number'
p31
aS'of'
p32
aS'vehicles'
p33
aS'used'
p34
aS'in'
p35
aS'the'
p36
aS'transit'
p37
aS'system.'
p38
asS'chunk_seq'
p39
(lp40
S'B-NP'
p41
aS'I-NP'
p42
aS'I-NP'
p43
aS'E-NP'
p44
aS'S-PP'
p45
aS'S-NP'
p46
aS'B-NP'
p47
aS'I-NP'
p48
aS'I-NP'
p49
aS'E-NP'
p50
aS'S-PP'
p51
aS'S-NP'
p52
aS'S-VP'
p53
aS'S-PP'
p54
aS'B-NP'
p55
aS'I-NP'
p56
aS'E-NP'
p57
asS'dep_seq'
p58
(lp59
(lp60
S'nn'
p61
aS'4'
aS'1'
aa(lp62
S'nn'
p63
aS'4'
aS'2'
aa(lp64
S'nn'
p65
aS'4'
aS'3'
aa(lp66
S'dep'
p67
aS'10'
p68
aS'4'
aa(lp69
S'prep_of'
p70
aS'4'
aS'6'
aa(lp71
S'possessive'
p72
aS'10'
p73
aS'7'
aa(lp74
S'nn'
p75
aS'10'
p76
aS'8'
aa(lp77
S'nn'
p78
aS'10'
p79
aS'9'
aa(lp80
S'root'
p81
aS'0'
aS'10'
p82
aa(lp83
S'prep_of'
p84
aS'10'
p85
aS'12'
p86
aa(lp87
S'partmod'
p88
aS'12'
p89
aS'13'
p90
aa(lp91
S'det'
p92
aS'17'
p93
aS'15'
p94
aa(lp95
S'nn'
p96
aS'17'
p97
aS'16'
p98
aa(lp99
S'prep_in'
p100
aS'13'
p101
aS'17'
p102
aasS'srls'
p103
(lp104
(dp105
S'A1'
p106
S'vehicles non Negative Integer Number of vehicles'
p107
sS'AM-LOC'
p108
S'in the transit system.'
p109
sS'V'
g34
sasS'pos_seq'
p110
(lp111
S'NNP'
p112
aS'NNP'
p113
aS'NNP'
p114
aS'NN'
p115
aS'IN'
p116
aS'NNS'
p117
aS'POS'
p118
aS'NNP'
p119
aS'NNP'
p120
aS'NNP'
p121
aS'IN'
p122
aS'NNS'
p123
aS'VBN'
p124
aS'IN'
p125
aS'DT'
p126
aS'NN'
p127
aS'NN'
p128
asS'ner_seq'
p129
(lp130
S'B-ORG'
p131
aS'I-ORG'
p132
aS'E-ORG'
p133
aS'O'
aS'O'
aS'O'
aS'O'
aS'O'
aS'O'
aS'O'
aS'O'
aS'O'
aS'O'
aS'O'
aS'O'
aS'O'
aS'O'
assb.