ccopy_reg
_reconstructor
p1
(c__main__
KBproperty
p2
c__builtin__
object
p3
NtRp4
(dp5
S'comment'
p6
S''
sS'domain'
p7
S'Person '
p8
sS'instances_count'
p9
S'12'
p10
sS'label'
p11
S'date of burial'
p12
sS'range'
p13
S'date '
p14
sS'prop_uri'
p15
S"'http://dbpedia.org/ontology/dateOfBurial'"
p16
sS'annotations'
p17
(dp18
S'bag_of_words'
p19
(lp20
S'Person'
p21
aS'date'
p22
aS'of'
p23
aS'burial'
p24
aS'date'
p25
asS'chunk_seq'
p26
(lp27
S'B-NP'
p28
aS'E-NP'
p29
aS'S-PP'
p30
aS'B-NP'
p31
aS'E-NP'
p32
asS'dep_seq'
p33
(lp34
(lp35
S'nn'
p36
aS'2'
aS'1'
aa(lp37
S'root'
p38
aS'0'
aS'2'
aa(lp39
S'nn'
p40
aS'5'
aS'4'
aa(lp41
S'prep_of'
p42
aS'2'
aS'5'
aasS'srls'
p43
(lp44
sS'pos_seq'
p45
(lp46
S'NN'
p47
aS'NN'
p48
aS'IN'
p49
aS'NN'
p50
aS'NN'
p51
asS'ner_seq'
p52
(lp53
S'O'
aS'O'
aS'O'
aS'O'
aS'O'
assb.