ccopy_reg
_reconstructor
p1
(c__main__
KBproperty
p2
c__builtin__
object
p3
NtRp4
(dp5
S'comment'
p6
S'the highway system that a route is part of'
p7
sS'domain'
p8
S'Road '
p9
sS'instances_count'
p10
S'51'
p11
sS'label'
p12
S'highway system'
p13
sS'range'
p14
S''
sS'prop_uri'
p15
S"'http://dbpedia.org/ontology/highwaySystem'"
p16
sS'annotations'
p17
(dp18
S'bag_of_words'
p19
(lp20
S'Road'
p21
aS'highway'
p22
aS'system'
p23
aS'the'
p24
aS'highway'
p25
aS'system'
p26
aS'that'
p27
aS'a'
aS'route'
p28
aS'is'
p29
aS'part'
p30
aS'of'
p31
asS'chunk_seq'
p32
(lp33
S'B-NP'
p34
aS'I-NP'
p35
aS'E-NP'
p36
aS'B-NP'
p37
aS'I-NP'
p38
aS'E-NP'
p39
aS'S-NP'
p40
aS'B-NP'
p41
aS'E-NP'
p42
aS'S-VP'
p43
aS'S-NP'
p44
aS'S-PP'
p45
asS'dep_seq'
p46
(lp47
(lp48
S'nn'
p49
aS'3'
aS'1'
aa(lp50
S'nn'
p51
aS'3'
aS'2'
aa(lp52
S'dep'
p53
aS'6'
aS'3'
aa(lp54
S'det'
p55
aS'6'
aS'4'
aa(lp56
S'nn'
p57
aS'6'
aS'5'
aa(lp58
S'root'
p59
aS'0'
aS'6'
aa(lp60
S'dobj'
p61
aS'11'
p62
aS'6'
aa(lp63
S'rel'
p64
aS'11'
p65
aS'7'
aa(lp66
S'det'
p67
aS'9'
aS'8'
aa(lp68
S'nsubj'
p69
aS'11'
p70
aS'9'
aa(lp71
S'cop'
p72
aS'11'
p73
aS'10'
p74
aa(lp75
S'rcmod'
p76
aS'6'
aS'11'
p77
aa(lp78
S'prep'
p79
aS'11'
p80
aS'12'
p81
aasS'srls'
p82
(lp83
sS'pos_seq'
p84
(lp85
S'NN'
p86
aS'NN'
p87
aS'NN'
p88
aS'DT'
p89
aS'NN'
p90
aS'NN'
p91
aS'IN'
p92
aS'DT'
p93
aS'NN'
p94
aS'VBZ'
p95
aS'NN'
p96
aS'IN'
p97
asS'ner_seq'
p98
(lp99
S'O'
aS'O'
aS'O'
aS'O'
aS'O'
aS'O'
aS'O'
aS'O'
aS'O'
aS'O'
aS'O'
aS'O'
assb.