ccopy_reg
_reconstructor
p1
(c__main__
KBproperty
p2
c__builtin__
object
p3
NtRp4
(dp5
S'comment'
p6
S''
sS'domain'
p7
S'Work '
p8
sS'instances_count'
p9
S'3926'
p10
sS'label'
p11
S'based on'
p12
sS'range'
p13
S'Work '
p14
sS'prop_uri'
p15
S"'http://dbpedia.org/ontology/basedOn'"
p16
sS'annotations'
p17
(dp18
S'bag_of_words'
p19
(lp20
S'Work'
p21
aS'based'
p22
aS'on'
p23
aS'Work'
p24
asS'chunk_seq'
p25
(lp26
S'S-NP'
p27
aS'S-PP'
p28
aS'S-PP'
p29
aS'S-NP'
p30
asS'dep_seq'
p31
(lp32
(lp33
S'root'
p34
aS'0'
aS'1'
aa(lp35
S'prepc_based_on'
p36
aS'1'
aS'3'
aa(lp37
S'pobj'
p38
aS'1'
aS'4'
aasS'srls'
p39
(lp40
(dp41
S'A1'
p42
g21
sS'AM-LOC'
p43
S'on Work'
p44
sS'V'
g22
sasS'pos_seq'
p45
(lp46
S'NN'
p47
aS'VBN'
p48
aS'IN'
p49
aS'NN'
p50
asS'ner_seq'
p51
(lp52
S'O'
aS'O'
aS'O'
aS'O'
assb.