ccopy_reg
_reconstructor
p1
(c__main__
KBproperty
p2
c__builtin__
object
p3
NtRp4
(dp5
S'comment'
p6
S''
sS'domain'
p7
S''
sS'instances_count'
p8
S'7'
sS'label'
p9
S'last date'
p10
sS'range'
p11
S''
sS'prop_uri'
p12
S"'http://dbpedia.org/property/lastDate'"
p13
sS'annotations'
p14
(dp15
S'bag_of_words'
p16
(lp17
S'last'
p18
aS'date'
p19
asS'chunk_seq'
p20
(lp21
S'B-NP'
p22
aS'E-NP'
p23
asS'dep_seq'
p24
(lp25
(lp26
S'amod'
p27
aS'2'
aS'1'
aa(lp28
S'root'
p29
aS'0'
aS'2'
aasS'srls'
p30
(lp31
sS'pos_seq'
p32
(lp33
S'JJ'
p34
aS'NN'
p35
asS'ner_seq'
p36
(lp37
S'O'
aS'O'
assb.