ccopy_reg
_reconstructor
p1
(c__main__
KBproperty
p2
c__builtin__
object
p3
NtRp4
(dp5
S'comment'
p6
S''
sS'domain'
p7
S'River '
p8
sS'instances_count'
p9
S'20838'
p10
sS'label'
p11
S'river mouth'
p12
sS'range'
p13
S'Body Of Water '
p14
sS'prop_uri'
p15
S"'http://dbpedia.org/ontology/riverMouth'"
p16
sS'annotations'
p17
(dp18
S'bag_of_words'
p19
(lp20
S'River'
p21
aS'river'
p22
aS'mouth'
p23
aS'Body'
p24
aS'Of'
p25
aS'Water'
p26
asS'chunk_seq'
p27
(lp28
S'B-NP'
p29
aS'I-NP'
p30
aS'I-NP'
p31
aS'E-NP'
p32
aS'S-PP'
p33
aS'S-NP'
p34
asS'dep_seq'
p35
(lp36
(lp37
S'nn'
p38
aS'4'
aS'1'
aa(lp39
S'nn'
p40
aS'4'
aS'2'
aa(lp41
S'nn'
p42
aS'4'
aS'3'
aa(lp43
S'root'
p44
aS'0'
aS'4'
aa(lp45
S'prep_of'
p46
aS'4'
aS'6'
aasS'srls'
p47
(lp48
sS'pos_seq'
p49
(lp50
S'NN'
p51
aS'NN'
p52
aS'NN'
p53
aS'NN'
p54
aS'IN'
p55
aS'NN'
p56
asS'ner_seq'
p57
(lp58
S'B-LOC'
p59
aS'E-LOC'
p60
aS'O'
aS'B-ORG'
p61
aS'I-ORG'
p62
aS'E-ORG'
p63
assb.