ccopy_reg
_reconstructor
p1
(c__main__
KBproperty
p2
c__builtin__
object
p3
NtRp4
(dp5
S'comment'
p6
S'A organisation financing the research project.'
p7
sS'domain'
p8
S'Research Project '
p9
sS'instances_count'
p10
S'9'
sS'label'
p11
S'funded by'
p12
sS'range'
p13
S'Organisation '
p14
sS'prop_uri'
p15
S"'http://dbpedia.org/ontology/fundedBy'"
p16
sS'annotations'
p17
(dp18
S'bag_of_words'
p19
(lp20
S'Research'
p21
aS'Project'
p22
aS'funded'
p23
aS'by'
p24
aS'Organisation'
p25
aS'A'
aS'organisation'
p26
aS'financing'
p27
aS'the'
p28
aS'research'
p29
aS'project'
p30
aS'.'
asS'chunk_seq'
p31
(lp32
S'B-NP'
p33
aS'E-NP'
p34
aS'S-VP'
p35
aS'S-PP'
p36
aS'B-NP'
p37
aS'I-NP'
p38
aS'E-NP'
p39
aS'S-VP'
p40
aS'B-NP'
p41
aS'I-NP'
p42
aS'E-NP'
p43
aS'O'
asS'dep_seq'
p44
(lp45
(lp46
S'nn'
p47
aS'2'
aS'1'
aa(lp48
S'nsubj'
p49
aS'3'
aS'2'
aa(lp50
S'root'
p51
aS'0'
aS'3'
aa(lp52
S'nn'
p53
aS'7'
aS'5'
aa(lp54
S'nn'
p55
aS'7'
aS'6'
aa(lp56
S'prep_by'
p57
aS'3'
aS'7'
aa(lp58
S'amod'
p59
aS'7'
aS'8'
aa(lp60
S'det'
p61
aS'11'
p62
aS'9'
aa(lp63
S'nn'
p64
aS'11'
p65
aS'10'
p66
aa(lp67
S'dobj'
p68
aS'3'
aS'11'
p69
aasS'srls'
p70
(lp71
(dp72
S'A1'
p73
S'Research Project'
p74
sS'A0'
p75
S'by Organisation A organisation'
p76
sS'V'
g23
sa(dp77
S'A1'
p78
S'the research project'
p79
sS'A0'
p80
S'Research Project funded by Organisation A organisation'
p81
sS'V'
g27
sasS'pos_seq'
p82
(lp83
S'NNP'
p84
aS'NNP'
p85
aS'VBN'
p86
aS'IN'
p87
aS'NNP'
p88
aS'NNP'
p89
aS'NN'
p90
aS'VBG'
p91
aS'DT'
p92
aS'NN'
p93
aS'NN'
p94
aS'.'
asS'ner_seq'
p95
(lp96
S'O'
aS'O'
aS'O'
aS'O'
aS'S-ORG'
p97
aS'O'
aS'O'
aS'O'
aS'O'
aS'O'
aS'O'
aS'O'
assb.