ccopy_reg
_reconstructor
p1
(c__main__
KBproperty
p2
c__builtin__
object
p3
NtRp4
(dp5
S'comment'
p6
S'Number of levels of platforms at the station.'
p7
sS'domain'
p8
S'Station '
p9
sS'instances_count'
p10
S'984'
p11
sS'label'
p12
S'number of platform levels'
p13
sS'range'
p14
S'integer '
p15
sS'prop_uri'
p16
S"'http://dbpedia.org/ontology/numberOfPlatformLevels'"
p17
sS'annotations'
p18
(dp19
S'bag_of_words'
p20
(lp21
S'Station'
p22
aS'number'
p23
aS'of'
p24
aS'platform'
p25
aS'levels'
p26
aS'integer'
p27
aS'Number'
p28
aS'of'
p29
aS'levels'
p30
aS'of'
p31
aS'platforms'
p32
aS'at'
p33
aS'the'
p34
aS'station'
p35
aS'.'
asS'chunk_seq'
p36
(lp37
S'B-NP'
p38
aS'E-NP'
p39
aS'S-PP'
p40
aS'B-NP'
p41
aS'E-NP'
p42
aS'S-VP'
p43
aS'S-NP'
p44
aS'S-PP'
p45
aS'S-NP'
p46
aS'S-PP'
p47
aS'S-NP'
p48
aS'S-PP'
p49
aS'B-NP'
p50
aS'E-NP'
p51
aS'O'
asS'dep_seq'
p52
(lp53
(lp54
S'nn'
p55
aS'2'
aS'1'
aa(lp56
S'nsubj'
p57
aS'6'
aS'2'
aa(lp58
S'nn'
p59
aS'5'
aS'4'
aa(lp60
S'prep_of'
p61
aS'2'
aS'5'
aa(lp62
S'root'
p63
aS'0'
aS'6'
aa(lp64
S'dobj'
p65
aS'6'
aS'7'
aa(lp66
S'prep_of'
p67
aS'7'
aS'9'
aa(lp68
S'prep_of'
p69
aS'9'
aS'11'
p70
aa(lp71
S'det'
p72
aS'14'
p73
aS'13'
p74
aa(lp75
S'prep_at'
p76
aS'7'
aS'14'
p77
aasS'srls'
p78
(lp79
(dp80
S'A0'
p81
S'platform levels'
p82
sS'V'
g27
sasS'pos_seq'
p83
(lp84
S'NN'
p85
aS'NN'
p86
aS'IN'
p87
aS'NN'
p88
aS'NNS'
p89
aS'VBP'
p90
aS'NN'
p91
aS'IN'
p92
aS'NNS'
p93
aS'IN'
p94
aS'NNS'
p95
aS'IN'
p96
aS'DT'
p97
aS'NN'
p98
aS'.'
asS'ner_seq'
p99
(lp100
S'O'
aS'O'
aS'O'
aS'O'
aS'O'
aS'O'
aS'O'
aS'O'
aS'O'
aS'O'
aS'O'
aS'O'
aS'O'
aS'O'
aS'O'
assb.