ccopy_reg
_reconstructor
p1
(c__main__
KBproperty
p2
c__builtin__
object
p3
NtRp4
(dp5
S'comment'
p6
S'Notable work of a person eg Artist Engineer etc'
p7
sS'domain'
p8
S'Person '
p9
sS'instances_count'
p10
S'6443'
p11
sS'label'
p12
S'notable work'
p13
sS'range'
p14
S'Work '
p15
sS'prop_uri'
p16
S"'http://dbpedia.org/ontology/notableWork'"
p17
sS'annotations'
p18
(dp19
S'bag_of_words'
p20
(lp21
S'Person'
p22
aS'notable'
p23
aS'work'
p24
aS'Work'
p25
aS'Notable'
p26
aS'work'
p27
aS'of'
p28
aS'a'
aS'person'
p29
aS'eg'
p30
aS'Artist'
p31
aS'Engineer'
p32
aS'etc'
p33
asS'chunk_seq'
p34
(lp35
S'O'
aS'B-NP'
p36
aS'I-NP'
p37
aS'I-NP'
p38
aS'I-NP'
p39
aS'E-NP'
p40
aS'S-PP'
p41
aS'B-NP'
p42
aS'E-NP'
p43
aS'S-PP'
p44
aS'B-NP'
p45
aS'E-NP'
p46
aS'O'
asS'dep_seq'
p47
(lp48
(lp49
S'nn'
p50
aS'6'
aS'1'
aa(lp51
S'amod'
p52
aS'6'
aS'2'
aa(lp53
S'nn'
p54
aS'6'
aS'3'
aa(lp55
S'nn'
p56
aS'6'
aS'4'
aa(lp57
S'amod'
p58
aS'6'
aS'5'
aa(lp59
S'root'
p60
aS'0'
aS'6'
aa(lp61
S'det'
p62
aS'9'
aS'8'
aa(lp63
S'prep_of'
p64
aS'6'
aS'9'
aa(lp65
S'nn'
p66
aS'12'
p67
aS'11'
p68
aa(lp69
S'prep_eg'
p70
aS'6'
aS'12'
p71
aa(lp72
S'punct'
p73
aS'12'
p74
aS'13'
p75
aasS'srls'
p76
(lp77
sS'pos_seq'
p78
(lp79
S'NN'
p80
aS'JJ'
p81
aS'NN'
p82
aS'NN'
p83
aS'JJ'
p84
aS'NN'
p85
aS'IN'
p86
aS'DT'
p87
aS'NN'
p88
aS'IN'
p89
aS'NNP'
p90
aS'NNP'
p91
aS'.'
asS'ner_seq'
p92
(lp93
S'O'
aS'O'
aS'O'
aS'O'
aS'O'
aS'O'
aS'O'
aS'O'
aS'O'
aS'O'
aS'O'
aS'O'
aS'O'
assb.