ccopy_reg
_reconstructor
p1
(c__main__
KBproperty
p2
c__builtin__
object
p3
NtRp4
(dp5
S'comment'
p6
S''
sS'domain'
p7
S'Document '
p8
sS'instances_count'
p9
S'0'
sS'label'
p10
S'Date Last Updated'
p11
sS'range'
p12
S'date '
p13
sS'prop_uri'
p14
S"'http://dbpedia.org/ontology/dateLastUpdated'"
p15
sS'annotations'
p16
(dp17
S'bag_of_words'
p18
(lp19
S'Document'
p20
aS'Date'
p21
aS'Last'
p22
aS'Updated'
p23
aS'date'
p24
asS'chunk_seq'
p25
(lp26
S'B-NP'
p27
aS'E-NP'
p28
aS'B-NP'
p29
aS'I-NP'
p30
aS'E-NP'
p31
asS'dep_seq'
p32
(lp33
(lp34
S'nn'
p35
aS'2'
aS'1'
aa(lp36
S'root'
p37
aS'0'
aS'2'
aa(lp38
S'amod'
p39
aS'5'
aS'3'
aa(lp40
S'amod'
p41
aS'5'
aS'4'
aa(lp42
S'dep'
p43
aS'2'
aS'5'
aasS'srls'
p44
(lp45
(dp46
S'A1'
p47
g24
sS'V'
g23
sasS'pos_seq'
p48
(lp49
S'NN'
p50
aS'NN'
p51
aS'JJ'
p52
aS'VBN'
p53
aS'NN'
p54
asS'ner_seq'
p55
(lp56
S'O'
aS'O'
aS'O'
aS'O'
aS'O'
assb.