ccopy_reg
_reconstructor
p1
(c__main__
KBproperty
p2
c__builtin__
object
p3
NtRp4
(dp5
S'comment'
p6
S'The general direction of the route eg. North-South.'
p7
sS'domain'
p8
S'Route Of Transportation '
p9
sS'instances_count'
p10
S'0'
sS'label'
p11
S'route direction'
p12
sS'range'
p13
S'string '
p14
sS'prop_uri'
p15
S"'http://dbpedia.org/ontology/routeDirection'"
p16
sS'annotations'
p17
(dp18
S'bag_of_words'
p19
(lp20
S'Route'
p21
aS'Of'
p22
aS'Transportation'
p23
aS'route'
p24
aS'direction'
p25
aS'string'
p26
aS'The'
p27
aS'general'
p28
aS'direction'
p29
aS'of'
p30
aS'the'
p31
aS'route'
p32
aS'eg.'
p33
aS'North-South'
p34
aS'.'
asS'chunk_seq'
p35
(lp36
S'S-NP'
p37
aS'S-PP'
p38
aS'S-NP'
p39
aS'B-NP'
p40
aS'E-NP'
p41
aS'S-VP'
p42
aS'B-NP'
p43
aS'I-NP'
p44
aS'E-NP'
p45
aS'S-PP'
p46
aS'B-NP'
p47
aS'E-NP'
p48
aS'S-PP'
p49
aS'S-NP'
p50
aS'O'
asS'dep_seq'
p51
(lp52
(lp53
S'root'
p54
aS'0'
aS'1'
aa(lp55
S'prep_of'
p56
aS'1'
aS'3'
aa(lp57
S'nn'
p58
aS'5'
aS'4'
aa(lp59
S'dep'
p60
aS'1'
aS'5'
aa(lp61
S'dep'
p62
aS'1'
aS'6'
aa(lp63
S'det'
p64
aS'9'
aS'7'
aa(lp65
S'amod'
p66
aS'9'
aS'8'
aa(lp67
S'dobj'
p68
aS'6'
aS'9'
aa(lp69
S'det'
p70
aS'12'
p71
aS'11'
p72
aa(lp73
S'prep_of'
p74
aS'9'
aS'12'
p75
aa(lp76
S'prep_eg.'
p77
aS'9'
aS'South'
p78
aasS'srls'
p79
(lp80
(dp81
S'A0'
p82
S'Route Of Transportation route direction'
p83
sS'A2'
p84
S'The general direction of the route eg. North-South'
p85
sS'V'
g26
sasS'pos_seq'
p86
(lp87
S'NNP'
p88
aS'IN'
p89
aS'NNP'
p90
aS'NN'
p91
aS'NN'
p92
aS'VBG'
p93
aS'DT'
p94
aS'JJ'
p95
aS'NN'
p96
aS'IN'
p97
aS'DT'
p98
aS'NN'
p99
aS'IN'
p100
aS'NNP'
p101
aS'.'
asS'ner_seq'
p102
(lp103
S'B-ORG'
p104
aS'I-ORG'
p105
aS'E-ORG'
p106
aS'O'
aS'O'
aS'O'
aS'O'
aS'O'
aS'O'
aS'O'
aS'O'
aS'O'
aS'O'
aS'O'
aS'O'
assb.