ccopy_reg
_reconstructor
p1
(c__main__
KBproperty
p2
c__builtin__
object
p3
NtRp4
(dp5
S'comment'
p6
S''
sS'domain'
p7
S'Boxer '
p8
sS'instances_count'
p9
S'0'
sS'label'
p10
S'defeat'
p11
sS'range'
p12
S'non Negative Integer '
p13
sS'prop_uri'
p14
S"'http://dbpedia.org/ontology/defeat'"
p15
sS'annotations'
p16
(dp17
S'bag_of_words'
p18
(lp19
S'Boxer'
p20
aS'defeat'
p21
aS'non'
p22
aS'Negative'
p23
aS'Integer'
p24
asS'chunk_seq'
p25
(lp26
S'S-NP'
p27
aS'S-VP'
p28
aS'B-NP'
p29
aS'I-NP'
p30
aS'E-NP'
p31
asS'dep_seq'
p32
(lp33
(lp34
S'dep'
p35
aS'2'
aS'1'
aa(lp36
S'root'
p37
aS'0'
aS'2'
aa(lp38
S'amod'
p39
aS'5'
aS'3'
aa(lp40
S'amod'
p41
aS'5'
aS'4'
aa(lp42
S'dobj'
p43
aS'2'
aS'5'
aasS'srls'
p44
(lp45
(dp46
S'A1'
p47
S'non Negative Integer'
p48
sS'V'
g21
sasS'pos_seq'
p49
(lp50
S'NN'
p51
aS'VB'
p52
aS'JJ'
p53
aS'JJ'
p54
aS'NN'
p55
asS'ner_seq'
p56
(lp57
S'O'
aS'O'
aS'O'
aS'O'
aS'O'
assb.