ccopy_reg
_reconstructor
p1
(c__main__
KBproperty
p2
c__builtin__
object
p3
NtRp4
(dp5
S'comment'
p6
S''
sS'domain'
p7
S''
sS'instances_count'
p8
S'1600'
p9
sS'label'
p10
S'Fl\\xc3\\xa4che'
p11
sS'range'
p12
S''
sS'prop_uri'
p13
S"'http://dbpedia.org/property/fl\\xc3\\xa4che'"
p14
sS'annotations'
p15
(dp16
S'bag_of_words'
p17
(lp18
S'Fl'
p19
aS'\\'
aS'xc3'
p20
aS'\\'
aS'xa4che'
p21
asS'chunk_seq'
p22
(lp23
S'S-NP'
p24
aS'O'
aS'O'
aS'O'
aS'O'
asS'dep_seq'
p25
(lp26
(lp27
S'root'
p28
aS'0'
aS'1'
aa(lp29
S'nn'
p30
aS'1'
aS'2'
aa(lp31
S'nn'
p32
aS'1'
aS'3'
aa(lp33
S'nn'
p34
aS'1'
aS'4'
aa(lp35
S'dep'
p36
aS'1'
aS'5'
aasS'srls'
p37
(lp38
sS'pos_seq'
p39
(lp40
S'NNP'
p41
aS'FW'
p42
aS'FW'
p43
aS'FW'
p44
aS'FW'
p45
asS'ner_seq'
p46
(lp47
S'O'
aS'O'
aS'O'
aS'O'
aS'O'
assb.