ccopy_reg
_reconstructor
p1
(c__main__
KBproperty
p2
c__builtin__
object
p3
NtRp4
(dp5
S'comment'
p6
S'A block of the periodic table of elements is a set of adjacent groups.'
p7
sS'domain'
p8
S'Chemical Element '
p9
sS'instances_count'
p10
S'0'
sS'label'
p11
S'element block'
p12
sS'range'
p13
S'string '
p14
sS'prop_uri'
p15
S"'http://dbpedia.org/ontology/elementBlock'"
p16
sS'annotations'
p17
(dp18
S'bag_of_words'
p19
(lp20
S'Chemical'
p21
aS'Element'
p22
aS'element'
p23
aS'block'
p24
aS'string'
p25
aS'A'
aS'block'
p26
aS'of'
p27
aS'the'
p28
aS'periodic'
p29
aS'table'
p30
aS'of'
p31
aS'elements'
p32
aS'is'
p33
aS'a'
aS'set'
p34
aS'of'
p35
aS'adjacent'
p36
aS'groups'
p37
aS'.'
asS'chunk_seq'
p38
(lp39
S'B-NP'
p40
aS'I-NP'
p41
aS'I-NP'
p42
aS'I-NP'
p43
aS'E-NP'
p44
aS'B-NP'
p45
aS'E-NP'
p46
aS'S-PP'
p47
aS'B-NP'
p48
aS'I-NP'
p49
aS'E-NP'
p50
aS'S-PP'
p51
aS'S-NP'
p52
aS'S-VP'
p53
aS'B-NP'
p54
aS'E-NP'
p55
aS'S-PP'
p56
aS'B-NP'
p57
aS'E-NP'
p58
aS'O'
asS'dep_seq'
p59
(lp60
(lp61
S'nn'
p62
aS'5'
aS'1'
aa(lp63
S'nn'
p64
aS'5'
aS'2'
aa(lp65
S'nn'
p66
aS'5'
aS'3'
aa(lp67
S'nn'
p68
aS'5'
aS'4'
aa(lp69
S'nsubj'
p70
aS'16'
p71
aS'5'
aa(lp72
S'det'
p73
aS'7'
aS'6'
aa(lp74
S'nsubj'
p75
aS'16'
p76
aS'7'
aa(lp77
S'det'
p78
aS'11'
p79
aS'9'
aa(lp80
S'amod'
p81
aS'11'
p82
aS'10'
p83
aa(lp84
S'prep_of'
p85
aS'7'
aS'11'
p86
aa(lp87
S'prep_of'
p88
aS'11'
p89
aS'13'
p90
aa(lp91
S'cop'
p92
aS'16'
p93
aS'14'
p94
aa(lp95
S'det'
p96
aS'16'
p97
aS'15'
p98
aa(lp99
S'root'
p100
aS'0'
aS'16'
p101
aa(lp102
S'amod'
p103
aS'19'
p104
aS'18'
p105
aa(lp106
S'prep_of'
p107
aS'16'
p108
aS'19'
p109
aasS'srls'
p110
(lp111
sS'pos_seq'
p112
(lp113
S'NNP'
p114
aS'NNP'
p115
aS'NN'
p116
aS'NN'
p117
aS'NN'
p118
aS'DT'
p119
aS'NN'
p120
aS'IN'
p121
aS'DT'
p122
aS'JJ'
p123
aS'NN'
p124
aS'IN'
p125
aS'NNS'
p126
aS'VBZ'
p127
aS'DT'
p128
aS'NN'
p129
aS'IN'
p130
aS'JJ'
p131
aS'NNS'
p132
aS'.'
asS'ner_seq'
p133
(lp134
S'O'
aS'O'
aS'O'
aS'O'
aS'O'
aS'O'
aS'O'
aS'O'
aS'O'
aS'O'
aS'O'
aS'O'
aS'O'
aS'O'
aS'O'
aS'O'
aS'O'
aS'O'
aS'O'
aS'O'
assb.