ccopy_reg
_reconstructor
p1
(c__main__
KBproperty
p2
c__builtin__
object
p3
NtRp4
(dp5
S'comment'
p6
S'System the passengers are using from which the passenger statistics are.'
p7
sS'domain'
p8
S'Station '
p9
sS'instances_count'
p10
S'284'
p11
sS'label'
p12
S'passengers used system'
p13
sS'range'
p14
S'string '
p15
sS'prop_uri'
p16
S"'http://dbpedia.org/ontology/passengersUsedSystem'"
p17
sS'annotations'
p18
(dp19
S'bag_of_words'
p20
(lp21
S'Station'
p22
aS'passengers'
p23
aS'used'
p24
aS'system'
p25
aS'string'
p26
aS'System'
p27
aS'the'
p28
aS'passengers'
p29
aS'are'
p30
aS'using'
p31
aS'from'
p32
aS'which'
p33
aS'the'
p34
aS'passenger'
p35
aS'statistics'
p36
aS'are'
p37
aS'.'
asS'chunk_seq'
p38
(lp39
S'B-NP'
p40
aS'I-NP'
p41
aS'I-NP'
p42
aS'I-NP'
p43
aS'I-NP'
p44
aS'E-NP'
p45
aS'B-NP'
p46
aS'E-NP'
p47
aS'B-VP'
p48
aS'E-VP'
p49
aS'S-PP'
p50
aS'S-NP'
p51
aS'B-NP'
p52
aS'I-NP'
p53
aS'E-NP'
p54
aS'S-VP'
p55
aS'O'
asS'dep_seq'
p56
(lp57
(lp58
S'nn'
p59
aS'6'
aS'1'
aa(lp60
S'nn'
p61
aS'6'
aS'2'
aa(lp62
S'amod'
p63
aS'6'
aS'3'
aa(lp64
S'nn'
p65
aS'6'
aS'4'
aa(lp66
S'nn'
p67
aS'6'
aS'5'
aa(lp68
S'nsubj'
p69
aS'10'
p70
aS'6'
aa(lp71
S'det'
p72
aS'8'
aS'7'
aa(lp73
S'nsubj'
p74
aS'10'
p75
aS'8'
aa(lp76
S'aux'
p77
aS'10'
p78
aS'9'
aa(lp79
S'root'
p80
aS'0'
aS'10'
p81
aa(lp82
S'dobj'
p83
aS'16'
p84
aS'12'
p85
aa(lp86
S'det'
p87
aS'15'
p88
aS'13'
p89
aa(lp90
S'nn'
p91
aS'15'
p92
aS'14'
p93
aa(lp94
S'nsubj'
p95
aS'16'
p96
aS'15'
p97
aa(lp98
S'prepc_from'
p99
aS'10'
p100
aS'16'
p101
aasS'srls'
p102
(lp103
(dp104
S'A1'
p105
S'system string System'
p106
sS'A0'
p107
S'Station passengers'
p108
sS'A2'
p109
S'the passengers'
p110
sS'V'
g24
sa(dp111
S'A1'
p112
S'the passengers'
p113
sS'A2'
p114
S'Station passengers used system string System  from which the passenger statistics'
p115
sS'V'
g31
sasS'pos_seq'
p116
(lp117
S'NN'
p118
aS'NNS'
p119
aS'VBN'
p120
aS'NN'
p121
aS'NN'
p122
aS'NNP'
p123
aS'DT'
p124
aS'NNS'
p125
aS'VBP'
p126
aS'VBG'
p127
aS'IN'
p128
aS'WDT'
p129
aS'DT'
p130
aS'NN'
p131
aS'NNS'
p132
aS'VBP'
p133
aS'.'
asS'ner_seq'
p134
(lp135
S'O'
aS'O'
aS'O'
aS'O'
aS'O'
aS'O'
aS'O'
aS'O'
aS'O'
aS'O'
aS'O'
aS'O'
aS'O'
aS'O'
aS'O'
aS'O'
aS'O'
assb.