ccopy_reg
_reconstructor
p1
(c__main__
KBproperty
p2
c__builtin__
object
p3
NtRp4
(dp5
S'comment'
p6
S''
sS'domain'
p7
S'Globularswarm '
p8
sS'instances_count'
p9
S'0'
sS'label'
p10
S'V_hb'
p11
sS'range'
p12
S'integer '
p13
sS'prop_uri'
p14
S"'http://dbpedia.org/ontology/v_hb'"
p15
sS'annotations'
p16
(dp17
S'bag_of_words'
p18
(lp19
S'Globularswarm'
p20
aS'V'
aS'_'
aS'hb'
p21
aS'integer'
p22
asS'chunk_seq'
p23
(lp24
S'S-NP'
p25
aS'O'
aS'O'
aS'O'
aS'O'
asS'dep_seq'
p26
(lp27
(lp28
S'nn'
p29
aS'2'
aS'1'
aa(lp30
S'root'
p31
aS'0'
aS'2'
aa(lp32
S'nn'
p33
aS'2'
aS'3'
aa(lp34
S'nn'
p35
aS'2'
aS'4'
aa(lp36
S'dep'
p37
aS'2'
aS'5'
aasS'srls'
p38
(lp39
sS'pos_seq'
p40
(lp41
S'NNP'
p42
aS'NNP'
p43
aS'FW'
p44
aS'FW'
p45
aS'FW'
p46
asS'ner_seq'
p47
(lp48
S'O'
aS'O'
aS'O'
aS'O'
aS'O'
assb.