ccopy_reg
_reconstructor
p1
(c__main__
KBproperty
p2
c__builtin__
object
p3
NtRp4
(dp5
S'comment'
p6
S''
sS'domain'
p7
S'Mean Of Transportation '
p8
sS'instances_count'
p9
S'1443'
p10
sS'label'
p11
S'model start year'
p12
sS'range'
p13
S'g Year '
p14
sS'prop_uri'
p15
S"'http://dbpedia.org/ontology/modelStartYear'"
p16
sS'annotations'
p17
(dp18
S'bag_of_words'
p19
(lp20
S'Mean'
p21
aS'Of'
p22
aS'Transportation'
p23
aS'model'
p24
aS'start'
p25
aS'year'
p26
aS'g'
aS'Year'
p27
asS'chunk_seq'
p28
(lp29
S'S-NP'
p30
aS'S-PP'
p31
aS'B-NP'
p32
aS'I-NP'
p33
aS'I-NP'
p34
aS'I-NP'
p35
aS'I-NP'
p36
aS'E-NP'
p37
asS'dep_seq'
p38
(lp39
(lp40
S'nn'
p41
aS'4'
aS'1'
aa(lp42
S'prep_of'
p43
aS'4'
aS'3'
aa(lp44
S'nsubj'
p45
aS'5'
aS'4'
aa(lp46
S'root'
p47
aS'0'
aS'5'
aa(lp48
S'tmod'
p49
aS'5'
aS'6'
aa(lp50
S'nn'
p51
aS'8'
aS'7'
aa(lp52
S'dep'
p53
aS'6'
aS'8'
aasS'srls'
p54
(lp55
sS'pos_seq'
p56
(lp57
S'NNP'
p58
aS'IN'
p59
aS'NNP'
p60
aS'NN'
p61
aS'NN'
p62
aS'NN'
p63
aS'NN'
p64
aS'NN'
p65
asS'ner_seq'
p66
(lp67
S'O'
aS'B-ORG'
p68
aS'E-ORG'
p69
aS'O'
aS'O'
aS'O'
aS'O'
aS'O'
assb.