ccopy_reg
_reconstructor
p1
(c__main__
KBproperty
p2
c__builtin__
object
p3
NtRp4
(dp5
S'comment'
p6
S'red list code for treatened species NL different from IUCN'
p7
sS'domain'
p8
S'Species '
p9
sS'instances_count'
p10
S'0'
sS'label'
p11
S'red list ID NL'
p12
sS'range'
p13
S'integer '
p14
sS'prop_uri'
p15
S"'http://dbpedia.org/ontology/redListIdNL'"
p16
sS'annotations'
p17
(dp18
S'bag_of_words'
p19
(lp20
S'Species'
p21
aS'red'
p22
aS'list'
p23
aS'ID'
p24
aS'NL'
p25
aS'integer'
p26
aS'red'
p27
aS'list'
p28
aS'code'
p29
aS'for'
p30
aS'treatened'
p31
aS'species'
p32
aS'NL'
p33
aS'different'
p34
aS'from'
p35
aS'IUCN'
p36
asS'chunk_seq'
p37
(lp38
S'B-NP'
p39
aS'I-NP'
p40
aS'I-NP'
p41
aS'I-NP'
p42
aS'I-NP'
p43
aS'I-NP'
p44
aS'I-NP'
p45
aS'I-NP'
p46
aS'E-NP'
p47
aS'S-PP'
p48
aS'B-NP'
p49
aS'E-NP'
p50
aS'B-ADJP'
p51
aS'E-ADJP'
p52
aS'S-PP'
p53
aS'S-NP'
p54
asS'dep_seq'
p55
(lp56
(lp57
S'nn'
p58
aS'9'
aS'1'
aa(lp59
S'amod'
p60
aS'9'
aS'2'
aa(lp61
S'nn'
p62
aS'9'
aS'3'
aa(lp63
S'nn'
p64
aS'9'
aS'4'
aa(lp65
S'nn'
p66
aS'9'
aS'5'
aa(lp67
S'nn'
p68
aS'9'
aS'6'
aa(lp69
S'amod'
p70
aS'9'
aS'7'
aa(lp71
S'nn'
p72
aS'9'
aS'8'
aa(lp73
S'root'
p74
aS'0'
aS'9'
aa(lp75
S'amod'
p76
aS'13'
p77
aS'11'
p78
aa(lp79
S'nn'
p80
aS'13'
p81
aS'12'
p82
aa(lp83
S'prep_for'
p84
aS'9'
aS'13'
p85
aa(lp86
S'amod'
p87
aS'9'
aS'14'
p88
aa(lp89
S'prep_from'
p90
aS'14'
p91
aS'16'
p92
aasS'srls'
p93
(lp94
sS'pos_seq'
p95
(lp96
S'NNS'
p97
aS'JJ'
p98
aS'NN'
p99
aS'NNP'
p100
aS'NNP'
p101
aS'NN'
p102
aS'JJ'
p103
aS'NN'
p104
aS'NN'
p105
aS'IN'
p106
aS'JJ'
p107
aS'NNS'
p108
aS'NNP'
p109
aS'JJ'
p110
aS'IN'
p111
aS'NNP'
p112
asS'ner_seq'
p113
(lp114
S'O'
aS'O'
aS'O'
aS'O'
aS'S-ORG'
p115
aS'O'
aS'O'
aS'O'
aS'O'
aS'O'
aS'O'
aS'O'
aS'S-ORG'
p116
aS'O'
aS'O'
aS'S-ORG'
p117
assb.