ccopy_reg
_reconstructor
p1
(c__main__
KBproperty
p2
c__builtin__
object
p3
NtRp4
(dp5
S'comment'
p6
S'Place of the building in the list of the highest buildings in the city'
p7
sS'domain'
p8
S'Skyscraper '
p9
sS'instances_count'
p10
S'0'
sS'label'
p11
S'city rank'
p12
sS'range'
p13
S'non Negative Integer '
p14
sS'prop_uri'
p15
S"'http://dbpedia.org/ontology/cityRank'"
p16
sS'annotations'
p17
(dp18
S'bag_of_words'
p19
(lp20
S'Skyscraper'
p21
aS'city'
p22
aS'rank'
p23
aS'non'
p24
aS'Negative'
p25
aS'Integer'
p26
aS'Place'
p27
aS'of'
p28
aS'the'
p29
aS'building'
p30
aS'in'
p31
aS'the'
p32
aS'list'
p33
aS'of'
p34
aS'the'
p35
aS'highest'
p36
aS'buildings'
p37
aS'in'
p38
aS'the'
p39
aS'city'
p40
asS'chunk_seq'
p41
(lp42
S'B-NP'
p43
aS'I-NP'
p44
aS'I-NP'
p45
aS'I-NP'
p46
aS'I-NP'
p47
aS'I-NP'
p48
aS'E-NP'
p49
aS'S-PP'
p50
aS'B-NP'
p51
aS'E-NP'
p52
aS'S-PP'
p53
aS'B-NP'
p54
aS'E-NP'
p55
aS'S-PP'
p56
aS'B-NP'
p57
aS'I-NP'
p58
aS'E-NP'
p59
aS'S-PP'
p60
aS'B-NP'
p61
aS'E-NP'
p62
asS'dep_seq'
p63
(lp64
(lp65
S'nn'
p66
aS'3'
aS'1'
aa(lp67
S'nn'
p68
aS'3'
aS'2'
aa(lp69
S'dep'
p70
aS'7'
aS'3'
aa(lp71
S'amod'
p72
aS'7'
aS'4'
aa(lp73
S'nn'
p74
aS'7'
aS'5'
aa(lp75
S'nn'
p76
aS'7'
aS'6'
aa(lp77
S'root'
p78
aS'0'
aS'7'
aa(lp79
S'det'
p80
aS'10'
p81
aS'9'
aa(lp82
S'prep_of'
p83
aS'7'
aS'10'
p84
aa(lp85
S'det'
p86
aS'13'
p87
aS'12'
p88
aa(lp89
S'prep_in'
p90
aS'7'
aS'13'
p91
aa(lp92
S'det'
p93
aS'17'
p94
aS'15'
p95
aa(lp96
S'amod'
p97
aS'17'
p98
aS'16'
p99
aa(lp100
S'prep_of'
p101
aS'13'
p102
aS'17'
p103
aa(lp104
S'det'
p105
aS'20'
p106
aS'19'
p107
aa(lp108
S'prep_in'
p109
aS'17'
p110
aS'20'
p111
aasS'srls'
p112
(lp113
sS'pos_seq'
p114
(lp115
S'NN'
p116
aS'NN'
p117
aS'NN'
p118
aS'JJ'
p119
aS'NNP'
p120
aS'NNP'
p121
aS'NNP'
p122
aS'IN'
p123
aS'DT'
p124
aS'NN'
p125
aS'IN'
p126
aS'DT'
p127
aS'NN'
p128
aS'IN'
p129
aS'DT'
p130
aS'JJS'
p131
aS'NNS'
p132
aS'IN'
p133
aS'DT'
p134
aS'NN'
p135
asS'ner_seq'
p136
(lp137
S'O'
aS'O'
aS'O'
aS'O'
aS'O'
aS'O'
aS'O'
aS'O'
aS'O'
aS'O'
aS'O'
aS'O'
aS'O'
aS'O'
aS'O'
aS'O'
aS'O'
aS'O'
aS'O'
aS'O'
assb.