ccopy_reg
_reconstructor
p1
(c__main__
KBproperty
p2
c__builtin__
object
p3
NtRp4
(dp5
S'comment'
p6
S'Registered at Stock Exchange'
p7
sS'domain'
p8
S'Company '
p9
sS'instances_count'
p10
S'0'
sS'label'
p11
g7
sS'range'
p12
S'string '
p13
sS'prop_uri'
p14
S"'http://dbpedia.org/ontology/stockExchange'"
p15
sS'annotations'
p16
(dp17
S'bag_of_words'
p18
(lp19
S'Company'
p20
aS'stock'
p21
aS'Exchange'
p22
aS'string'
p23
aS'Registered'
p24
aS'at'
p25
aS'Stock'
p26
aS'Exchange'
p27
asS'chunk_seq'
p28
(lp29
S'B-NP'
p30
aS'I-NP'
p31
aS'I-NP'
p32
aS'E-NP'
p33
aS'S-VP'
p34
aS'S-PP'
p35
aS'B-NP'
p36
aS'E-NP'
p37
asS'dep_seq'
p38
(lp39
(lp40
S'nn'
p41
aS'4'
aS'1'
aa(lp42
S'nn'
p43
aS'4'
aS'2'
aa(lp44
S'nn'
p45
aS'4'
aS'3'
aa(lp46
S'root'
p47
aS'0'
aS'4'
aa(lp48
S'partmod'
p49
aS'4'
aS'5'
aa(lp50
S'nn'
p51
aS'8'
aS'7'
aa(lp52
S'prep_at'
p53
aS'5'
aS'8'
aasS'srls'
p54
(lp55
(dp56
S'A1'
p57
S'Company stock Exchange string'
p58
sS'AM-LOC'
p59
S'at Stock Exchange'
p60
sS'V'
g24
sasS'pos_seq'
p61
(lp62
S'NN'
p63
aS'NN'
p64
aS'NNP'
p65
aS'NN'
p66
aS'VBN'
p67
aS'IN'
p68
aS'NNP'
p69
aS'NNP'
p70
asS'ner_seq'
p71
(lp72
S'O'
aS'O'
aS'O'
aS'O'
aS'O'
aS'O'
aS'B-ORG'
p73
aS'E-ORG'
p74
assb.