ccopy_reg
_reconstructor
p1
(c__main__
KBproperty
p2
c__builtin__
object
p3
NtRp4
(dp5
S'comment'
p6
S''
sS'domain'
p7
S'Beverage '
p8
sS'instances_count'
p9
S'0'
sS'label'
p10
S'discontinued'
p11
sS'range'
p12
S'date '
p13
sS'prop_uri'
p14
S"'http://dbpedia.org/ontology/discontinued'"
p15
sS'annotations'
p16
(dp17
S'bag_of_words'
p18
(lp19
S'Beverage'
p20
aS'discontinued'
p21
aS'date'
p22
asS'chunk_seq'
p23
(lp24
S'B-NP'
p25
aS'I-NP'
p26
aS'E-NP'
p27
asS'dep_seq'
p28
(lp29
(lp30
S'nn'
p31
aS'3'
aS'1'
aa(lp32
S'amod'
p33
aS'3'
aS'2'
aa(lp34
S'root'
p35
aS'0'
aS'3'
aasS'srls'
p36
(lp37
(dp38
S'A1'
p39
S'Beverage date'
p40
sS'V'
g21
sasS'pos_seq'
p41
(lp42
S'NN'
p43
aS'VBN'
p44
aS'NN'
p45
asS'ner_seq'
p46
(lp47
S'O'
aS'O'
aS'O'
assb.