ccopy_reg
_reconstructor
p1
(c__main__
KBproperty
p2
c__builtin__
object
p3
NtRp4
(dp5
S'comment'
p6
S'voice type of a singer or an actor'
p7
sS'domain'
p8
S'Artist '
p9
sS'instances_count'
p10
S'113'
p11
sS'label'
p12
S'voice type'
p13
sS'range'
p14
S''
sS'prop_uri'
p15
S"'http://dbpedia.org/ontology/voiceType'"
p16
sS'annotations'
p17
(dp18
S'bag_of_words'
p19
(lp20
S'Artist'
p21
aS'voice'
p22
aS'type'
p23
aS'voice'
p24
aS'type'
p25
aS'of'
p26
aS'a'
aS'singer'
p27
aS'or'
p28
aS'an'
p29
aS'actor'
p30
asS'chunk_seq'
p31
(lp32
S'B-NP'
p33
aS'I-NP'
p34
aS'I-NP'
p35
aS'I-NP'
p36
aS'E-NP'
p37
aS'S-PP'
p38
aS'B-NP'
p39
aS'E-NP'
p40
aS'O'
aS'B-NP'
p41
aS'E-NP'
p42
asS'dep_seq'
p43
(lp44
(lp45
S'nn'
p46
aS'5'
aS'1'
aa(lp47
S'nn'
p48
aS'5'
aS'2'
aa(lp49
S'nn'
p50
aS'5'
aS'3'
aa(lp51
S'nn'
p52
aS'5'
aS'4'
aa(lp53
S'root'
p54
aS'0'
aS'5'
aa(lp55
S'det'
p56
aS'8'
aS'7'
aa(lp57
S'prep_of'
p58
aS'5'
aS'8'
aa(lp59
S'det'
p60
aS'11'
p61
aS'10'
p62
aa(lp63
S'conj_or'
p64
aS'8'
aS'11'
p65
aasS'srls'
p66
(lp67
sS'pos_seq'
p68
(lp69
S'NNP'
p70
aS'NN'
p71
aS'NN'
p72
aS'NN'
p73
aS'NN'
p74
aS'IN'
p75
aS'DT'
p76
aS'NN'
p77
aS'CC'
p78
aS'DT'
p79
aS'NN'
p80
asS'ner_seq'
p81
(lp82
S'O'
aS'O'
aS'O'
aS'O'
aS'O'
aS'O'
aS'O'
aS'O'
aS'O'
aS'O'
aS'O'
assb.