ccopy_reg
_reconstructor
p1
(c__main__
KBproperty
p2
c__builtin__
object
p3
NtRp4
(dp5
S'comment'
p6
S'Contains a WikiText representation of this thing'
p7
sS'domain'
p8
S''
sS'instances_count'
p9
S'0'
sS'label'
p10
g7
sS'range'
p11
S'string '
p12
sS'prop_uri'
p13
S"'http://dbpedia.org/ontology/asWikiText'"
p14
sS'annotations'
p15
(dp16
S'bag_of_words'
p17
(lp18
S'as'
p19
aS'Wiki'
p20
aS'Text'
p21
aS'string'
p22
aS'Contains'
p23
aS'a'
aS'WikiText'
p24
aS'representation'
p25
aS'of'
p26
aS'this'
p27
aS'thing'
p28
asS'chunk_seq'
p29
(lp30
S'S-SBAR'
p31
aS'B-NP'
p32
aS'I-NP'
p33
aS'E-NP'
p34
aS'S-VP'
p35
aS'B-NP'
p36
aS'I-NP'
p37
aS'E-NP'
p38
aS'S-PP'
p39
aS'B-NP'
p40
aS'E-NP'
p41
asS'dep_seq'
p42
(lp43
(lp44
S'mark'
p45
aS'5'
aS'1'
aa(lp46
S'nn'
p47
aS'4'
aS'2'
aa(lp48
S'nn'
p49
aS'4'
aS'3'
aa(lp50
S'nsubj'
p51
aS'5'
aS'4'
aa(lp52
S'root'
p53
aS'0'
aS'5'
aa(lp54
S'det'
p55
aS'8'
aS'6'
aa(lp56
S'amod'
p57
aS'8'
aS'7'
aa(lp58
S'dobj'
p59
aS'5'
aS'8'
aa(lp60
S'det'
p61
aS'11'
p62
aS'10'
p63
aa(lp64
S'prep_of'
p65
aS'8'
aS'11'
p66
aasS'srls'
p67
(lp68
(dp69
S'A1'
p70
S'a WikiText representation of this thing'
p71
sS'A0'
p72
S'Wiki Text string'
p73
sS'V'
g23
sasS'pos_seq'
p74
(lp75
S'IN'
p76
aS'NNP'
p77
aS'NNP'
p78
aS'NN'
p79
aS'VBZ'
p80
aS'DT'
p81
aS'JJ'
p82
aS'NN'
p83
aS'IN'
p84
aS'DT'
p85
aS'NN'
p86
asS'ner_seq'
p87
(lp88
S'O'
aS'O'
aS'O'
aS'O'
aS'O'
aS'O'
aS'S-MISC'
p89
aS'O'
aS'O'
aS'O'
aS'O'
assb.