ccopy_reg
_reconstructor
p1
(c__main__
KBproperty
p2
c__builtin__
object
p3
NtRp4
(dp5
S'comment'
p6
S'number of seats in the land parlement'
p7
sS'domain'
p8
S'Administrative Region '
p9
sS'instances_count'
p10
S'0'
sS'label'
p11
g7
sS'range'
p12
S'non Negative Integer '
p13
sS'prop_uri'
p14
S"'http://dbpedia.org/ontology/seatNumber'"
p15
sS'annotations'
p16
(dp17
S'bag_of_words'
p18
(lp19
S'Administrative'
p20
aS'Region'
p21
aS'seat'
p22
aS'Number'
p23
aS'non'
p24
aS'Negative'
p25
aS'Integer'
p26
aS'number'
p27
aS'of'
p28
aS'seats'
p29
aS'in'
p30
aS'the'
p31
aS'land'
p32
aS'parlement'
p33
asS'chunk_seq'
p34
(lp35
S'B-NP'
p36
aS'I-NP'
p37
aS'I-NP'
p38
aS'I-NP'
p39
aS'I-NP'
p40
aS'I-NP'
p41
aS'I-NP'
p42
aS'E-NP'
p43
aS'S-PP'
p44
aS'S-NP'
p45
aS'S-PP'
p46
aS'B-NP'
p47
aS'I-NP'
p48
aS'E-NP'
p49
asS'dep_seq'
p50
(lp51
(lp52
S'nn'
p53
aS'4'
aS'1'
aa(lp54
S'nn'
p55
aS'4'
aS'2'
aa(lp56
S'nn'
p57
aS'4'
aS'3'
aa(lp58
S'dep'
p59
aS'8'
aS'4'
aa(lp60
S'amod'
p61
aS'8'
aS'5'
aa(lp62
S'amod'
p63
aS'8'
aS'6'
aa(lp64
S'nn'
p65
aS'8'
aS'7'
aa(lp66
S'root'
p67
aS'0'
aS'8'
aa(lp68
S'prep_of'
p69
aS'8'
aS'10'
p70
aa(lp71
S'det'
p72
aS'14'
p73
aS'12'
p74
aa(lp75
S'nn'
p76
aS'14'
p77
aS'13'
p78
aa(lp79
S'prep_in'
p80
aS'10'
p81
aS'14'
p82
aasS'srls'
p83
(lp84
sS'pos_seq'
p85
(lp86
S'NNP'
p87
aS'NNP'
p88
aS'NN'
p89
aS'NNP'
p90
aS'JJ'
p91
aS'JJ'
p92
aS'NN'
p93
aS'NN'
p94
aS'IN'
p95
aS'NNS'
p96
aS'IN'
p97
aS'DT'
p98
aS'NN'
p99
aS'NN'
p100
asS'ner_seq'
p101
(lp102
S'B-MISC'
p103
aS'E-MISC'
p104
aS'O'
aS'O'
aS'O'
aS'O'
aS'O'
aS'O'
aS'O'
aS'O'
aS'O'
aS'O'
aS'O'
aS'O'
assb.