ccopy_reg
_reconstructor
p1
(c__main__
KBproperty
p2
c__builtin__
object
p3
NtRp4
(dp5
S'comment'
p6
S'The impact factor often abbreviated IF is a measure reflecting the average number of citations to articles published in science and social science journals.'
p7
sS'domain'
p8
S'Academic Journal '
p9
sS'instances_count'
p10
S'3598'
p11
sS'label'
p12
S'impact factor'
p13
sS'range'
p14
S'double '
p15
sS'prop_uri'
p16
S"'http://dbpedia.org/ontology/impactFactor'"
p17
sS'annotations'
p18
(dp19
S'bag_of_words'
p20
(lp21
S'Academic'
p22
aS'Journal'
p23
aS'impact'
p24
aS'factor'
p25
aS'double'
p26
aS'The'
p27
aS'impact'
p28
aS'factor'
p29
aS'often'
p30
aS'abbreviated'
p31
aS'IF'
p32
aS'is'
p33
aS'a'
aS'measure'
p34
aS'reflecting'
p35
aS'the'
p36
aS'average'
p37
aS'number'
p38
aS'of'
p39
aS'citations'
p40
aS'to'
p41
aS'articles'
p42
aS'published'
p43
aS'in'
p44
aS'science'
p45
aS'and'
p46
aS'social'
p47
aS'science'
p48
aS'journals'
p49
aS'.'
asS'chunk_seq'
p50
(lp51
S'B-NP'
p52
aS'I-NP'
p53
aS'I-NP'
p54
aS'E-NP'
p55
aS'B-NP'
p56
aS'I-NP'
p57
aS'I-NP'
p58
aS'E-NP'
p59
aS'B-VP'
p60
aS'E-VP'
p61
aS'S-SBAR'
p62
aS'S-VP'
p63
aS'B-NP'
p64
aS'E-NP'
p65
aS'S-VP'
p66
aS'B-NP'
p67
aS'I-NP'
p68
aS'E-NP'
p69
aS'S-PP'
p70
aS'S-NP'
p71
aS'S-PP'
p72
aS'S-NP'
p73
aS'S-VP'
p74
aS'S-PP'
p75
aS'B-NP'
p76
aS'I-NP'
p77
aS'I-NP'
p78
aS'I-NP'
p79
aS'E-NP'
p80
aS'O'
asS'dep_seq'
p81
(lp82
(lp83
S'nn'
p84
aS'4'
aS'1'
aa(lp85
S'nn'
p86
aS'4'
aS'2'
aa(lp87
S'nn'
p88
aS'4'
aS'3'
aa(lp89
S'nsubj'
p90
aS'5'
aS'4'
aa(lp91
S'root'
p92
aS'0'
aS'5'
aa(lp93
S'dep'
p94
aS'10'
p95
aS'6'
aa(lp96
S'dep'
p97
aS'10'
p98
aS'7'
aa(lp99
S'dep'
p100
aS'10'
p101
aS'8'
aa(lp102
S'advmod'
p103
aS'10'
p104
aS'9'
aa(lp105
S'ccomp'
p106
aS'5'
aS'10'
p107
aa(lp108
S'mark'
p109
aS'14'
p110
aS'11'
p111
aa(lp112
S'cop'
p113
aS'14'
p114
aS'12'
p115
aa(lp116
S'det'
p117
aS'14'
p118
aS'13'
p119
aa(lp120
S'advcl'
p121
aS'10'
p122
aS'14'
p123
aa(lp124
S'partmod'
p125
aS'14'
p126
aS'15'
p127
aa(lp128
S'det'
p129
aS'18'
p130
aS'16'
p131
aa(lp132
S'amod'
p133
aS'18'
p134
aS'17'
p135
aa(lp136
S'dobj'
p137
aS'15'
p138
aS'18'
p139
aa(lp140
S'prep_of'
p141
aS'18'
p142
aS'20'
p143
aa(lp144
S'prep_to'
p145
aS'20'
p146
aS'22'
p147
aa(lp148
S'partmod'
p149
aS'22'
p150
aS'23'
p151
aa(lp152
S'prep_in'
p153
aS'23'
p154
aS'25'
p155
aa(lp156
S'amod'
p157
aS'29'
p158
aS'27'
p159
aa(lp160
S'nn'
p161
aS'29'
p162
aS'28'
p163
aa(lp164
S'conj_and'
p165
aS'25'
p166
aS'29'
p167
aasS'srls'
p168
(lp169
(dp170
S'A1'
p171
S'Academic Journal impact factor double The impact factor'
p172
sS'AM-TMP'
p173
g30
sS'V'
g31
sa(dp174
S'A1'
p175
S'the average number of citations to articles published in science and social science journals'
p176
sS'A2'
p177
S'a measure'
p178
sS'V'
g35
sa(dp179
S'A1'
p180
g42
sS'AM-LOC'
p181
S'in science and social science journals'
p182
sS'V'
g43
sasS'pos_seq'
p183
(lp184
S'NNP'
p185
aS'NNP'
p186
aS'NN'
p187
aS'NN'
p188
aS'RB'
p189
aS'DT'
p190
aS'NN'
p191
aS'NN'
p192
aS'RB'
p193
aS'VBN'
p194
aS'IN'
p195
aS'VBZ'
p196
aS'DT'
p197
aS'NN'
p198
aS'VBG'
p199
aS'DT'
p200
aS'JJ'
p201
aS'NN'
p202
aS'IN'
p203
aS'NNS'
p204
aS'TO'
p205
aS'NNS'
p206
aS'VBN'
p207
aS'IN'
p208
aS'NN'
p209
aS'CC'
p210
aS'JJ'
p211
aS'NN'
p212
aS'NNS'
p213
aS'.'
asS'ner_seq'
p214
(lp215
S'B-ORG'
p216
aS'E-ORG'
p217
aS'O'
aS'O'
aS'O'
aS'O'
aS'O'
aS'O'
aS'O'
aS'O'
aS'O'
aS'O'
aS'O'
aS'O'
aS'O'
aS'O'
aS'O'
aS'O'
aS'O'
aS'O'
aS'O'
aS'O'
aS'O'
aS'O'
aS'O'
aS'O'
aS'O'
aS'O'
aS'O'
aS'O'
assb.