ccopy_reg
_reconstructor
p1
(c__main__
KBproperty
p2
c__builtin__
object
p3
NtRp4
(dp5
S'comment'
p6
S'A wise and trusted counselor or teacher'
p7
sS'domain'
p8
S'Artist '
p9
sS'instances_count'
p10
S'0'
sS'label'
p11
S'mentor'
p12
sS'range'
p13
S'Artist '
p14
sS'prop_uri'
p15
S"'http://dbpedia.org/ontology/mentor'"
p16
sS'annotations'
p17
(dp18
S'bag_of_words'
p19
(lp20
S'Artist'
p21
aS'mentor'
p22
aS'Artist'
p23
aS'A'
aS'wise'
p24
aS'and'
p25
aS'trusted'
p26
aS'counselor'
p27
aS'or'
p28
aS'teacher'
p29
asS'chunk_seq'
p30
(lp31
S'B-NP'
p32
aS'I-NP'
p33
aS'E-NP'
p34
aS'B-NP'
p35
aS'I-NP'
p36
aS'I-NP'
p37
aS'I-NP'
p38
aS'I-NP'
p39
aS'I-NP'
p40
aS'E-NP'
p41
asS'dep_seq'
p42
(lp43
(lp44
S'nn'
p45
aS'3'
aS'1'
aa(lp46
S'nn'
p47
aS'3'
aS'2'
aa(lp48
S'root'
p49
aS'0'
aS'3'
aa(lp50
S'dep'
p51
aS'3'
aS'4'
aa(lp52
S'amod'
p53
aS'4'
aS'5'
aa(lp54
S'conj_and'
p55
aS'4'
aS'7'
aa(lp56
S'partmod'
p57
aS'4'
aS'7'
aa(lp58
S'dobj'
p59
aS'7'
aS'8'
aa(lp60
S'conj_or'
p61
aS'8'
aS'10'
p62
aasS'srls'
p63
(lp64
sS'pos_seq'
p65
(lp66
S'NN'
p67
aS'NN'
p68
aS'NNP'
p69
aS'NNP'
p70
aS'JJ'
p71
aS'CC'
p72
aS'VBN'
p73
aS'NN'
p74
aS'CC'
p75
aS'NN'
p76
asS'ner_seq'
p77
(lp78
S'O'
aS'O'
aS'O'
aS'O'
aS'O'
aS'O'
aS'O'
aS'O'
aS'O'
aS'O'
assb.