ccopy_reg
_reconstructor
p1
(c__main__
KBproperty
p2
c__builtin__
object
p3
NtRp4
(dp5
S'comment'
p6
S''
sS'domain'
p7
S'Chemical Substance '
p8
sS'instances_count'
p9
S'0'
sS'label'
p10
S'boiling point K'
p11
sS'range'
p12
S'double '
p13
sS'prop_uri'
p14
S"'http://dbpedia.org/ontology/boilingPoint'"
p15
sS'annotations'
p16
(dp17
S'bag_of_words'
p18
(lp19
S'Chemical'
p20
aS'Substance'
p21
aS'boiling'
p22
aS'point'
p23
aS'K'
aS'double'
p24
asS'chunk_seq'
p25
(lp26
S'B-NP'
p27
aS'E-NP'
p28
aS'S-VP'
p29
aS'B-NP'
p30
aS'E-NP'
p31
aS'S-ADVP'
p32
asS'dep_seq'
p33
(lp34
(lp35
S'nn'
p36
aS'2'
aS'1'
aa(lp37
S'nsubj'
p38
aS'3'
aS'2'
aa(lp39
S'root'
p40
aS'0'
aS'3'
aa(lp41
S'nn'
p42
aS'5'
aS'4'
aa(lp43
S'dobj'
p44
aS'3'
aS'5'
aa(lp45
S'advmod'
p46
aS'3'
aS'6'
aasS'srls'
p47
(lp48
(dp49
S'A1'
p50
S'Chemical Substance  K double'
p51
sS'A3'
p52
g23
sS'V'
g22
sasS'pos_seq'
p53
(lp54
S'NNP'
p55
aS'NNP'
p56
aS'VBG'
p57
aS'NN'
p58
aS'NNP'
p59
aS'RB'
p60
asS'ner_seq'
p61
(lp62
S'O'
aS'O'
aS'O'
aS'O'
aS'O'
aS'O'
assb.