ccopy_reg
_reconstructor
p1
(c__main__
KBproperty
p2
c__builtin__
object
p3
NtRp4
(dp5
S'comment'
p6
S'school a person goes or went to'
p7
sS'domain'
p8
S'Person '
p9
sS'instances_count'
p10
S'5289'
p11
sS'label'
p12
S'school'
p13
sS'range'
p14
S'Educational Institution '
p15
sS'prop_uri'
p16
S"'http://dbpedia.org/ontology/school'"
p17
sS'annotations'
p18
(dp19
S'bag_of_words'
p20
(lp21
S'Person'
p22
aS'school'
p23
aS'Educational'
p24
aS'Institution'
p25
aS'school'
p26
aS'a'
aS'person'
p27
aS'goes'
p28
aS'or'
p29
aS'went'
p30
aS'to'
p31
asS'chunk_seq'
p32
(lp33
S'B-NP'
p34
aS'I-NP'
p35
aS'I-NP'
p36
aS'I-NP'
p37
aS'E-NP'
p38
aS'B-NP'
p39
aS'E-NP'
p40
aS'S-VP'
p41
aS'O'
aS'S-VP'
p42
aS'S-PP'
p43
asS'dep_seq'
p44
(lp45
(lp46
S'nn'
p47
aS'5'
aS'1'
aa(lp48
S'nn'
p49
aS'5'
aS'2'
aa(lp50
S'nn'
p51
aS'5'
aS'3'
aa(lp52
S'nn'
p53
aS'5'
aS'4'
aa(lp54
S'nsubj'
p55
aS'8'
aS'5'
aa(lp56
S'det'
p57
aS'7'
aS'6'
aa(lp58
S'nsubj'
p59
aS'8'
aS'7'
aa(lp60
S'root'
p61
aS'0'
aS'8'
aa(lp62
S'conj_or'
p63
aS'8'
aS'10'
p64
aa(lp65
S'prep'
p66
aS'10'
p67
aS'11'
p68
aasS'srls'
p69
(lp70
(dp71
S'A1'
p72
S'Person school Educational Institution school a person'
p73
sS'V'
g28
sa(dp74
S'A1'
p75
S'Person school Educational Institution school a person'
p76
sS'V'
g30
sasS'pos_seq'
p77
(lp78
S'NN'
p79
aS'NN'
p80
aS'NNP'
p81
aS'NNP'
p82
aS'NN'
p83
aS'DT'
p84
aS'NN'
p85
aS'VBZ'
p86
aS'CC'
p87
aS'VBD'
p88
aS'TO'
p89
asS'ner_seq'
p90
(lp91
S'O'
aS'O'
aS'B-ORG'
p92
aS'E-ORG'
p93
aS'O'
aS'O'
aS'O'
aS'O'
aS'O'
aS'O'
aS'O'
assb.