ccopy_reg
_reconstructor
p1
(c__main__
KBproperty
p2
c__builtin__
object
p3
NtRp4
(dp5
S'comment'
p6
S'Type of vehicles the bridge carries.'
p7
sS'domain'
p8
S'Bridge '
p9
sS'instances_count'
p10
S'3181'
p11
sS'label'
p12
S'bridge carries'
p13
sS'range'
p14
S'string '
p15
sS'prop_uri'
p16
S"'http://dbpedia.org/ontology/bridgeCarries'"
p17
sS'annotations'
p18
(dp19
S'bag_of_words'
p20
(lp21
S'Bridge'
p22
aS'bridge'
p23
aS'carries'
p24
aS'string'
p25
aS'Type'
p26
aS'of'
p27
aS'vehicles'
p28
aS'the'
p29
aS'bridge'
p30
aS'carries'
p31
aS'.'
asS'chunk_seq'
p32
(lp33
S'B-NP'
p34
aS'E-NP'
p35
aS'S-VP'
p36
aS'B-NP'
p37
aS'E-NP'
p38
aS'S-PP'
p39
aS'S-NP'
p40
aS'B-NP'
p41
aS'E-NP'
p42
aS'S-VP'
p43
aS'O'
asS'dep_seq'
p44
(lp45
(lp46
S'nn'
p47
aS'2'
aS'1'
aa(lp48
S'nsubj'
p49
aS'3'
aS'2'
aa(lp50
S'root'
p51
aS'0'
aS'3'
aa(lp52
S'nn'
p53
aS'5'
aS'4'
aa(lp54
S'dobj'
p55
aS'3'
aS'5'
aa(lp56
S'dobj'
p57
aS'10'
p58
aS'5'
aa(lp59
S'prep_of'
p60
aS'5'
aS'7'
aa(lp61
S'det'
p62
aS'9'
aS'8'
aa(lp63
S'nsubj'
p64
aS'10'
p65
aS'9'
aa(lp66
S'rcmod'
p67
aS'5'
aS'10'
p68
aasS'srls'
p69
(lp70
(dp71
S'A1'
p72
S'string Type of vehicles the bridge carries'
p73
sS'A0'
p74
S'Bridge bridge'
p75
sS'V'
g24
sa(dp76
S'A1'
p77
g28
sS'A0'
p78
S'the bridge'
p79
sS'V'
g31
sasS'pos_seq'
p80
(lp81
S'NNP'
p82
aS'NN'
p83
aS'VBZ'
p84
aS'NN'
p85
aS'NN'
p86
aS'IN'
p87
aS'NNS'
p88
aS'DT'
p89
aS'NN'
p90
aS'VBZ'
p91
aS'.'
asS'ner_seq'
p92
(lp93
S'O'
aS'O'
aS'O'
aS'O'
aS'O'
aS'O'
aS'O'
aS'O'
aS'O'
aS'O'
aS'O'
assb.