ccopy_reg
_reconstructor
p1
(c__main__
KBproperty
p2
c__builtin__
object
p3
NtRp4
(dp5
S'comment'
p6
S'http://www.w3.org/2001/XMLSchema#string'
p7
sS'domain'
p8
S'Mountain '
p9
sS'instances_count'
p10
S'0'
sS'label'
p11
g7
sS'range'
p12
S'Volcano '
p13
sS'prop_uri'
p14
S"'http://dbpedia.org/ontology/firstAscent'"
p15
sS'annotations'
p16
(dp17
S'bag_of_words'
p18
(lp19
S'Mountain'
p20
aS'first'
p21
aS'Ascent'
p22
aS'Volcano'
p23
aS'http'
p24
aS':'
aS'//'
p25
aS'www'
p26
aS'.'
aS'w3'
p27
aS'.org'
p28
aS'/2001'
p29
aS'/'
aS'XMLSchema'
p30
aS'#'
aS'string'
p31
asS'chunk_seq'
p32
(lp33
S'B-NP'
p34
aS'I-NP'
p35
aS'I-NP'
p36
aS'I-NP'
p37
aS'E-NP'
p38
aS'O'
aS'B-NP'
p39
aS'E-NP'
p40
aS'O'
aS'O'
aS'O'
aS'O'
aS'O'
aS'O'
aS'B-NP'
p41
aS'E-NP'
p42
asS'dep_seq'
p43
(lp44
(lp45
S'nn'
p46
aS'5'
aS'1'
aa(lp47
S'amod'
p48
aS'5'
aS'2'
aa(lp49
S'nn'
p50
aS'5'
aS'3'
aa(lp51
S'nn'
p52
aS'5'
aS'4'
aa(lp53
S'root'
p54
aS'0'
aS'5'
aa(lp55
S'nn'
p56
aS'8'
aS'7'
aa(lp57
S'dep'
p58
aS'5'
aS'8'
aa(lp59
S'nn'
p60
aS'8'
aS'10'
p61
aa(lp62
S'nn'
p63
aS'8'
aS'11'
p64
aa(lp65
S'dep'
p66
aS'8'
aS'12'
p67
aa(lp68
S'dep'
p69
aS'8'
aS'13'
p70
aa(lp71
S'dep'
p72
aS'16'
p73
aS'14'
p74
aa(lp75
S'nn'
p76
aS'16'
p77
aS'15'
p78
aa(lp79
S'dep'
p80
aS'8'
aS'16'
p81
aasS'srls'
p82
(lp83
sS'pos_seq'
p84
(lp85
S'NN'
p86
aS'JJ'
p87
aS'NNP'
p88
aS'NNP'
p89
aS'NN'
p90
aS':'
aS'NN'
p91
aS'NN'
p92
aS'.'
aS'FW'
p93
aS'FW'
p94
aS'FW'
p95
aS'FW'
p96
aS'FW'
p97
aS'FW'
p98
aS'NN'
p99
asS'ner_seq'
p100
(lp101
S'S-ORG'
p102
aS'O'
aS'O'
aS'O'
aS'O'
aS'O'
aS'O'
aS'O'
aS'O'
aS'O'
aS'O'
aS'O'
aS'O'
aS'O'
aS'O'
aS'O'
assb.