ccopy_reg
_reconstructor
p1
(c__main__
KBproperty
p2
c__builtin__
object
p3
NtRp4
(dp5
S'comment'
p6
S''
sS'domain'
p7
S'Canal '
p8
sS'instances_count'
p9
S'14'
p10
sS'label'
p11
S'date use'
p12
sS'range'
p13
S'date '
p14
sS'prop_uri'
p15
S"'http://dbpedia.org/ontology/dateUse'"
p16
sS'annotations'
p17
(dp18
S'bag_of_words'
p19
(lp20
S'Canal'
p21
aS'date'
p22
aS'use'
p23
aS'date'
p24
asS'chunk_seq'
p25
(lp26
S'B-NP'
p27
aS'I-NP'
p28
aS'I-NP'
p29
aS'E-NP'
p30
asS'dep_seq'
p31
(lp32
(lp33
S'nn'
p34
aS'2'
aS'1'
aa(lp35
S'nn'
p36
aS'3'
aS'2'
aa(lp37
S'root'
p38
aS'0'
aS'3'
aa(lp39
S'dep'
p40
aS'3'
aS'4'
aasS'srls'
p41
(lp42
sS'pos_seq'
p43
(lp44
S'NN'
p45
aS'NN'
p46
aS'NN'
p47
aS'NN'
p48
asS'ner_seq'
p49
(lp50
S'O'
aS'O'
aS'O'
aS'O'
assb.