ccopy_reg
_reconstructor
p1
(c__main__
KBproperty
p2
c__builtin__
object
p3
NtRp4
(dp5
S'comment'
p6
S'Human Development Index HDI'
p7
sS'domain'
p8
S'Populated Place '
p9
sS'instances_count'
p10
S'0'
sS'label'
p11
g7
sS'range'
p12
S'float '
p13
sS'prop_uri'
p14
S"'http://dbpedia.org/ontology/humanDevelopmentIndex'"
p15
sS'annotations'
p16
(dp17
S'bag_of_words'
p18
(lp19
S'Populated'
p20
aS'Place'
p21
aS'human'
p22
aS'Development'
p23
aS'Index'
p24
aS'float'
p25
aS'Human'
p26
aS'Development'
p27
aS'Index'
p28
aS'HDI'
p29
asS'chunk_seq'
p30
(lp31
S'B-NP'
p32
aS'I-NP'
p33
aS'I-NP'
p34
aS'I-NP'
p35
aS'E-NP'
p36
aS'S-VP'
p37
aS'B-NP'
p38
aS'I-NP'
p39
aS'I-NP'
p40
aS'E-NP'
p41
asS'dep_seq'
p42
(lp43
(lp44
S'amod'
p45
aS'5'
aS'1'
aa(lp46
S'nn'
p47
aS'5'
aS'2'
aa(lp48
S'amod'
p49
aS'5'
aS'3'
aa(lp50
S'nn'
p51
aS'5'
aS'4'
aa(lp52
S'dep'
p53
aS'10'
p54
aS'5'
aa(lp55
S'nn'
p56
aS'8'
aS'6'
aa(lp57
S'nn'
p58
aS'8'
aS'7'
aa(lp59
S'dep'
p60
aS'10'
p61
aS'8'
aa(lp62
S'nn'
p63
aS'10'
p64
aS'9'
aa(lp65
S'root'
p66
aS'0'
aS'10'
p67
aasS'srls'
p68
(lp69
(dp70
S'A1'
p71
S'Populated Place human Development Index  Human Development Index HDI'
p72
sS'V'
g25
sasS'pos_seq'
p73
(lp74
S'VBN'
p75
aS'NNP'
p76
aS'JJ'
p77
aS'NNP'
p78
aS'NNP'
p79
aS'NN'
p80
aS'NNP'
p81
aS'NNP'
p82
aS'NNP'
p83
aS'NNP'
p84
asS'ner_seq'
p85
(lp86
S'O'
aS'O'
aS'O'
aS'B-MISC'
p87
aS'E-MISC'
p88
aS'O'
aS'B-MISC'
p89
aS'I-MISC'
p90
aS'I-MISC'
p91
aS'E-MISC'
p92
assb.