ccopy_reg
_reconstructor
p1
(c__main__
KBproperty
p2
c__builtin__
object
p3
NtRp4
(dp5
S'comment'
p6
S''
sS'domain'
p7
S'Event '
p8
sS'instances_count'
p9
S'4927'
p10
sS'label'
p11
S'following event'
p12
sS'range'
p13
S'Event '
p14
sS'prop_uri'
p15
S"'http://dbpedia.org/ontology/followingEvent'"
p16
sS'annotations'
p17
(dp18
S'bag_of_words'
p19
(lp20
S'Event'
p21
aS'following'
p22
aS'event'
p23
aS'Event'
p24
asS'chunk_seq'
p25
(lp26
S'S-NP'
p27
aS'S-PP'
p28
aS'B-NP'
p29
aS'E-NP'
p30
asS'dep_seq'
p31
(lp32
(lp33
S'nn'
p34
aS'4'
aS'1'
aa(lp35
S'amod'
p36
aS'4'
aS'2'
aa(lp37
S'nn'
p38
aS'4'
aS'3'
aa(lp39
S'root'
p40
aS'0'
aS'4'
aasS'srls'
p41
(lp42
(dp43
S'A2'
p44
S'event Event'
p45
sS'V'
g22
sasS'pos_seq'
p46
(lp47
S'NN'
p48
aS'VBG'
p49
aS'NN'
p50
aS'NN'
p51
asS'ner_seq'
p52
(lp53
S'O'
aS'O'
aS'O'
aS'O'
assb.