ccopy_reg
_reconstructor
p1
(c__main__
KBproperty
p2
c__builtin__
object
p3
NtRp4
(dp5
S'comment'
p6
S''
sS'domain'
p7
S'Wine Region '
p8
sS'instances_count'
p9
S'504'
p10
sS'label'
p11
S'is part of wine region'
p12
sS'range'
p13
S'Wine Region '
p14
sS'prop_uri'
p15
S"'http://dbpedia.org/ontology/isPartOfWineRegion'"
p16
sS'annotations'
p17
(dp18
S'bag_of_words'
p19
(lp20
S'Wine'
p21
aS'Region'
p22
aS'is'
p23
aS'part'
p24
aS'of'
p25
aS'wine'
p26
aS'region'
p27
aS'Wine'
p28
aS'Region'
p29
asS'chunk_seq'
p30
(lp31
S'B-NP'
p32
aS'E-NP'
p33
aS'S-VP'
p34
aS'S-NP'
p35
aS'S-PP'
p36
aS'B-NP'
p37
aS'I-NP'
p38
aS'I-NP'
p39
aS'E-NP'
p40
asS'dep_seq'
p41
(lp42
(lp43
S'nn'
p44
aS'2'
aS'1'
aa(lp45
S'nsubj'
p46
aS'4'
aS'2'
aa(lp47
S'cop'
p48
aS'4'
aS'3'
aa(lp49
S'root'
p50
aS'0'
aS'4'
aa(lp51
S'nn'
p52
aS'9'
aS'6'
aa(lp53
S'nn'
p54
aS'9'
aS'7'
aa(lp55
S'nn'
p56
aS'9'
aS'8'
aa(lp57
S'prep_of'
p58
aS'4'
aS'9'
aasS'srls'
p59
(lp60
sS'pos_seq'
p61
(lp62
S'NNP'
p63
aS'NNP'
p64
aS'VBZ'
p65
aS'NN'
p66
aS'IN'
p67
aS'NN'
p68
aS'NN'
p69
aS'NNP'
p70
aS'NNP'
p71
asS'ner_seq'
p72
(lp73
S'O'
aS'O'
aS'O'
aS'O'
aS'O'
aS'O'
aS'O'
aS'B-MISC'
p74
aS'E-MISC'
p75
assb.