ccopy_reg
_reconstructor
p1
(c__main__
KBproperty
p2
c__builtin__
object
p3
NtRp4
(dp5
S'comment'
p6
S''
sS'domain'
p7
S''
sS'instances_count'
p8
S'0'
sS'label'
p9
S'setup time s'
p10
sS'range'
p11
S'double '
p12
sS'prop_uri'
p13
S"'http://dbpedia.org/ontology/setupTime'"
p14
sS'annotations'
p15
(dp16
S'bag_of_words'
p17
(lp18
S'setup'
p19
aS'time'
p20
aS's'
aS'double'
p21
asS'chunk_seq'
p22
(lp23
S'S-VP'
p24
aS'S-NP'
p25
aS'B-ADVP'
p26
aS'E-ADVP'
p27
asS'dep_seq'
p28
(lp29
(lp30
S'nn'
p31
aS'2'
aS'1'
aa(lp32
S'root'
p33
aS'0'
aS'2'
aa(lp34
S'advmod'
p35
aS'2'
aS'3'
aa(lp36
S'advmod'
p37
aS'2'
aS'4'
aasS'srls'
p38
(lp39
sS'pos_seq'
p40
(lp41
S'NN'
p42
aS'NN'
p43
aS'RB'
p44
aS'RB'
p45
asS'ner_seq'
p46
(lp47
S'O'
aS'O'
aS'O'
aS'O'
assb.