ccopy_reg
_reconstructor
p1
(c__main__
KBproperty
p2
c__builtin__
object
p3
NtRp4
(dp5
S'comment'
p6
S''
sS'domain'
p7
S''
sS'instances_count'
p8
S'0'
sS'label'
p9
S'source state'
p10
sS'range'
p11
S'Populated Place '
p12
sS'prop_uri'
p13
S"'http://dbpedia.org/ontology/sourceState'"
p14
sS'annotations'
p15
(dp16
S'bag_of_words'
p17
(lp18
S'source'
p19
aS'state'
p20
aS'Populated'
p21
aS'Place'
p22
asS'chunk_seq'
p23
(lp24
S'B-NP'
p25
aS'I-NP'
p26
aS'I-NP'
p27
aS'E-NP'
p28
asS'dep_seq'
p29
(lp30
(lp31
S'nn'
p32
aS'4'
aS'1'
aa(lp33
S'nn'
p34
aS'4'
aS'2'
aa(lp35
S'amod'
p36
aS'4'
aS'3'
aa(lp37
S'root'
p38
aS'0'
aS'4'
aasS'srls'
p39
(lp40
(dp41
S'A1'
p42
S'source state Place'
p43
sS'V'
g21
sasS'pos_seq'
p44
(lp45
S'NN'
p46
aS'NN'
p47
aS'VBN'
p48
aS'NN'
p49
asS'ner_seq'
p50
(lp51
S'O'
aS'O'
aS'O'
aS'O'
assb.