ccopy_reg
_reconstructor
p1
(c__main__
KBproperty
p2
c__builtin__
object
p3
NtRp4
(dp5
S'comment'
p6
S'The parent broadcast network to which the broadcaster belongs.'
p7
sS'domain'
p8
S'Broadcaster '
p9
sS'instances_count'
p10
S'12343'
p11
sS'label'
p12
S'broadcast network'
p13
sS'range'
p14
S'Broadcast Network '
p15
sS'prop_uri'
p16
S"'http://dbpedia.org/ontology/broadcastNetwork'"
p17
sS'annotations'
p18
(dp19
S'bag_of_words'
p20
(lp21
S'Broadcaster'
p22
aS'broadcast'
p23
aS'network'
p24
aS'Broadcast'
p25
aS'Network'
p26
aS'The'
p27
aS'parent'
p28
aS'broadcast'
p29
aS'network'
p30
aS'to'
p31
aS'which'
p32
aS'the'
p33
aS'broadcaster'
p34
aS'belongs'
p35
aS'.'
asS'chunk_seq'
p36
(lp37
S'B-NP'
p38
aS'I-NP'
p39
aS'I-NP'
p40
aS'I-NP'
p41
aS'E-NP'
p42
aS'B-NP'
p43
aS'I-NP'
p44
aS'I-NP'
p45
aS'E-NP'
p46
aS'S-PP'
p47
aS'S-NP'
p48
aS'B-NP'
p49
aS'E-NP'
p50
aS'S-VP'
p51
aS'O'
asS'dep_seq'
p52
(lp53
(lp54
S'nn'
p55
aS'9'
aS'1'
aa(lp56
S'nn'
p57
aS'9'
aS'2'
aa(lp58
S'nn'
p59
aS'9'
aS'3'
aa(lp60
S'nn'
p61
aS'9'
aS'4'
aa(lp62
S'nn'
p63
aS'9'
aS'5'
aa(lp64
S'det'
p65
aS'9'
aS'6'
aa(lp66
S'nn'
p67
aS'9'
aS'7'
aa(lp68
S'nn'
p69
aS'9'
aS'8'
aa(lp70
S'root'
p71
aS'0'
aS'9'
aa(lp72
S'prep_to'
p73
aS'14'
p74
aS'9'
aa(lp75
S'rel'
p76
aS'14'
p77
aS'10'
p78
aa(lp79
S'det'
p80
aS'13'
p81
aS'12'
p82
aa(lp83
S'nsubj'
p84
aS'14'
p85
aS'13'
p86
aa(lp87
S'rcmod'
p88
aS'9'
aS'14'
p89
aasS'srls'
p90
(lp91
(dp92
S'A0'
p93
S'Broadcaster broadcast network Broadcast Network The parent broadcast network to which the broadcaster'
p94
sS'V'
g35
sasS'pos_seq'
p95
(lp96
S'NN'
p97
aS'NN'
p98
aS'NN'
p99
aS'NNP'
p100
aS'NNP'
p101
aS'DT'
p102
aS'NN'
p103
aS'NN'
p104
aS'NN'
p105
aS'TO'
p106
aS'WDT'
p107
aS'DT'
p108
aS'NN'
p109
aS'VBZ'
p110
aS'.'
asS'ner_seq'
p111
(lp112
S'O'
aS'O'
aS'O'
aS'B-MISC'
p113
aS'I-MISC'
p114
aS'E-MISC'
p115
aS'O'
aS'O'
aS'O'
aS'O'
aS'O'
aS'O'
aS'O'
aS'O'
aS'O'
assb.