ccopy_reg
_reconstructor
p1
(c__main__
KBproperty
p2
c__builtin__
object
p3
NtRp4
(dp5
S'comment'
p6
S''
sS'domain'
p7
S'Spacecraft '
p8
sS'instances_count'
p9
S'0'
sS'label'
p10
S'docked time s'
p11
sS'range'
p12
S'double '
p13
sS'prop_uri'
p14
S"'http://dbpedia.org/ontology/dockedTime'"
p15
sS'annotations'
p16
(dp17
S'bag_of_words'
p18
(lp19
S'Spacecraft'
p20
aS'docked'
p21
aS'time'
p22
aS's'
aS'double'
p23
asS'chunk_seq'
p24
(lp25
S'S-NP'
p26
aS'S-VP'
p27
aS'S-NP'
p28
aS'B-ADVP'
p29
aS'E-ADVP'
p30
asS'dep_seq'
p31
(lp32
(lp33
S'nsubj'
p34
aS'2'
aS'1'
aa(lp35
S'root'
p36
aS'0'
aS'2'
aa(lp37
S'iobj'
p38
aS'2'
aS'3'
aa(lp39
S'advmod'
p40
aS'5'
aS'4'
aa(lp41
S'dobj'
p42
aS'2'
aS'5'
aasS'srls'
p43
(lp44
(dp45
S'A0'
p46
g20
sS'AM-TMP'
p47
S'time s double'
p48
sS'V'
g21
sasS'pos_seq'
p49
(lp50
S'NN'
p51
aS'VBD'
p52
aS'NN'
p53
aS'RB'
p54
aS'RB'
p55
asS'ner_seq'
p56
(lp57
S'O'
aS'O'
aS'O'
aS'O'
aS'O'
assb.