ccopy_reg
_reconstructor
p1
(c__main__
KBproperty
p2
c__builtin__
object
p3
NtRp4
(dp5
S'comment'
p6
S''
sS'domain'
p7
S''
sS'instances_count'
p8
S'41615'
p9
sS'label'
p10
S'opening year'
p11
sS'range'
p12
S'g Year '
p13
sS'prop_uri'
p14
S"'http://dbpedia.org/ontology/openingYear'"
p15
sS'annotations'
p16
(dp17
S'bag_of_words'
p18
(lp19
S'opening'
p20
aS'year'
p21
aS'g'
aS'Year'
p22
asS'chunk_seq'
p23
(lp24
S'S-VP'
p25
aS'B-NP'
p26
aS'I-NP'
p27
aS'E-NP'
p28
asS'dep_seq'
p29
(lp30
(lp31
S'amod'
p32
aS'4'
aS'1'
aa(lp33
S'nn'
p34
aS'4'
aS'2'
aa(lp35
S'nn'
p36
aS'4'
aS'3'
aa(lp37
S'root'
p38
aS'0'
aS'4'
aasS'srls'
p39
(lp40
(dp41
S'A1'
p42
g21
sS'V'
g20
sasS'pos_seq'
p43
(lp44
S'VBG'
p45
aS'NN'
p46
aS'NN'
p47
aS'NN'
p48
asS'ner_seq'
p49
(lp50
S'O'
aS'O'
aS'O'
aS'O'
assb.