ccopy_reg
_reconstructor
p1
(c__main__
KBproperty
p2
c__builtin__
object
p3
NtRp4
(dp5
S'comment'
p6
S'Structured reference providing info about the subject'
p7
sS'domain'
p8
S'Reference '
p9
sS'instances_count'
p10
S'0'
sS'label'
p11
S'reference'
p12
sS'range'
p13
S'string '
p14
sS'prop_uri'
p15
S"'http://dbpedia.org/ontology/reference'"
p16
sS'annotations'
p17
(dp18
S'bag_of_words'
p19
(lp20
S'Reference'
p21
aS'reference'
p22
aS'string'
p23
aS'Structured'
p24
aS'reference'
p25
aS'providing'
p26
aS'info'
p27
aS'about'
p28
aS'the'
p29
aS'subject'
p30
asS'chunk_seq'
p31
(lp32
S'B-NP'
p33
aS'I-NP'
p34
aS'I-NP'
p35
aS'I-NP'
p36
aS'E-NP'
p37
aS'S-VP'
p38
aS'S-NP'
p39
aS'S-PP'
p40
aS'B-NP'
p41
aS'E-NP'
p42
asS'dep_seq'
p43
(lp44
(lp45
S'nn'
p46
aS'5'
aS'1'
aa(lp47
S'nn'
p48
aS'5'
aS'2'
aa(lp49
S'nn'
p50
aS'5'
aS'3'
aa(lp51
S'amod'
p52
aS'5'
aS'4'
aa(lp53
S'root'
p54
aS'0'
aS'5'
aa(lp55
S'partmod'
p56
aS'5'
aS'6'
aa(lp57
S'dobj'
p58
aS'6'
aS'7'
aa(lp59
S'det'
p60
aS'10'
p61
aS'9'
aa(lp62
S'prep_about'
p63
aS'7'
aS'10'
p64
aasS'srls'
p65
(lp66
(dp67
S'A1'
p68
S'info about the subject'
p69
sS'A0'
p70
S'Reference reference string Structured reference'
p71
sS'V'
g26
sasS'pos_seq'
p72
(lp73
S'NN'
p74
aS'NN'
p75
aS'NN'
p76
aS'JJ'
p77
aS'NN'
p78
aS'VBG'
p79
aS'NNS'
p80
aS'IN'
p81
aS'DT'
p82
aS'NN'
p83
asS'ner_seq'
p84
(lp85
S'O'
aS'O'
aS'O'
aS'O'
aS'O'
aS'O'
aS'O'
aS'O'
aS'O'
aS'O'
assb.