ccopy_reg
_reconstructor
p1
(c__main__
KBproperty
p2
c__builtin__
object
p3
NtRp4
(dp5
S'comment'
p6
S'Payload mass in a typical Low Earth orbit'
p7
sS'domain'
p8
S'Rocket '
p9
sS'instances_count'
p10
S'55'
p11
sS'label'
p12
S'lower earth orbit payload g'
p13
sS'range'
p14
S'double '
p15
sS'prop_uri'
p16
S"'http://dbpedia.org/ontology/lowerEarthOrbitPayload'"
p17
sS'annotations'
p18
(dp19
S'bag_of_words'
p20
(lp21
S'Rocket'
p22
aS'lower'
p23
aS'earth'
p24
aS'orbit'
p25
aS'payload'
p26
aS'g'
aS'double'
p27
aS'Payload'
p28
aS'mass'
p29
aS'in'
p30
aS'a'
aS'typical'
p31
aS'Low'
p32
aS'Earth'
p33
aS'orbit'
p34
asS'chunk_seq'
p35
(lp36
S'B-NP'
p37
aS'I-NP'
p38
aS'I-NP'
p39
aS'I-NP'
p40
aS'I-NP'
p41
aS'I-NP'
p42
aS'I-NP'
p43
aS'I-NP'
p44
aS'E-NP'
p45
aS'S-PP'
p46
aS'B-NP'
p47
aS'I-NP'
p48
aS'I-NP'
p49
aS'I-NP'
p50
aS'E-NP'
p51
asS'dep_seq'
p52
(lp53
(lp54
S'nn'
p55
aS'9'
aS'1'
aa(lp56
S'amod'
p57
aS'9'
aS'2'
aa(lp58
S'nn'
p59
aS'9'
aS'3'
aa(lp60
S'nn'
p61
aS'9'
aS'4'
aa(lp62
S'nn'
p63
aS'9'
aS'5'
aa(lp64
S'nn'
p65
aS'9'
aS'6'
aa(lp66
S'amod'
p67
aS'9'
aS'7'
aa(lp68
S'nn'
p69
aS'9'
aS'8'
aa(lp70
S'dep'
p71
aS'10'
p72
aS'9'
aa(lp73
S'root'
p74
aS'0'
aS'10'
p75
aa(lp76
S'det'
p77
aS'15'
p78
aS'11'
p79
aa(lp80
S'amod'
p81
aS'15'
p82
aS'12'
p83
aa(lp84
S'amod'
p85
aS'15'
p86
aS'13'
p87
aa(lp88
S'nn'
p89
aS'15'
p90
aS'14'
p91
aa(lp92
S'pobj'
p93
aS'10'
p94
aS'15'
p95
aasS'srls'
p96
(lp97
sS'pos_seq'
p98
(lp99
S'NNP'
p100
aS'JJR'
p101
aS'NN'
p102
aS'NN'
p103
aS'NN'
p104
aS'NN'
p105
aS'JJ'
p106
aS'NN'
p107
aS'NN'
p108
aS'IN'
p109
aS'DT'
p110
aS'JJ'
p111
aS'JJ'
p112
aS'NN'
p113
aS'NN'
p114
asS'ner_seq'
p115
(lp116
S'O'
aS'O'
aS'O'
aS'O'
aS'O'
aS'O'
aS'O'
aS'O'
aS'O'
aS'O'
aS'O'
aS'O'
aS'B-LOC'
p117
aS'E-LOC'
p118
aS'O'
assb.