ccopy_reg
_reconstructor
p1
(c__main__
KBproperty
p2
c__builtin__
object
p3
NtRp4
(dp5
S'comment'
p6
S'jr/sr'
p7
sS'domain'
p8
S''
sS'instances_count'
p9
S'441'
p10
sS'label'
p11
g7
sS'range'
p12
S''
sS'prop_uri'
p13
S"'http://dbpedia.org/property/jr/sr'"
p14
sS'annotations'
p15
(dp16
S'bag_of_words'
p17
(lp18
S'sr'
p19
aS'jr'
p20
aS'/s'
p21
aS'r'
asS'chunk_seq'
p22
(lp23
S'S-NP'
p24
aS'O'
aS'O'
aS'O'
asS'dep_seq'
p25
(lp26
(lp27
S'nn'
p28
aS'3'
aS'1'
aa(lp29
S'nn'
p30
aS'3'
aS'2'
aa(lp31
S'root'
p32
aS'0'
aS'3'
aa(lp33
S'punct'
p34
aS'3'
aS'4'
aasS'srls'
p35
(lp36
sS'pos_seq'
p37
(lp38
S'FW'
p39
aS'FW'
p40
aS'FW'
p41
aS'.'
asS'ner_seq'
p42
(lp43
S'O'
aS'O'
aS'O'
aS'O'
assb.