ccopy_reg
_reconstructor
p1
(c__main__
KBproperty
p2
c__builtin__
object
p3
NtRp4
(dp5
S'comment'
p6
S'Syst\\xc3\\xa8me universitaire de documentation id French collaborative library catalog.\\nhttp://www.idref.fr/$1'
p7
sS'domain'
p8
S''
sS'instances_count'
p9
S'58'
p10
sS'label'
p11
S'SUDOC id'
p12
sS'range'
p13
S'string '
p14
sS'prop_uri'
p15
S"'http://dbpedia.org/ontology/sudocId'"
p16
sS'annotations'
p17
(dp18
S'bag_of_words'
p19
(lp20
S'SUDOC'
p21
aS'id'
p22
aS'string'
p23
aS'Syst'
p24
aS'\\'
aS'xc3'
p25
aS'\\'
aS'xa8me'
p26
aS'universitaire'
p27
aS'de'
p28
aS'documentation'
p29
aS'id'
p30
aS'French'
p31
aS'collaborative'
p32
aS'library'
p33
aS'catalog'
p34
aS'.'
aS'\\'
aS'nhttp'
p35
aS':'
aS'//'
p36
aS'www'
p37
aS'.'
aS'idref'
p38
aS'.'
aS'fr'
p39
aS'/'
aS'$'
aS'1'
asS'chunk_seq'
p40
(lp41
S'B-NP'
p42
aS'I-NP'
p43
aS'E-NP'
p44
aS'O'
aS'O'
aS'O'
aS'O'
aS'O'
aS'B-NP'
p45
aS'I-NP'
p46
aS'I-NP'
p47
aS'I-NP'
p48
aS'I-NP'
p49
aS'I-NP'
p50
aS'I-NP'
p51
aS'E-NP'
p52
aS'O'
aS'O'
aS'O'
aS'O'
aS'B-NP'
p53
aS'I-NP'
p54
aS'I-NP'
p55
aS'I-NP'
p56
aS'I-NP'
p57
aS'E-NP'
p58
aS'O'
aS'B-NP'
p59
aS'E-NP'
p60
asS'dep_seq'
p61
(lp62
(lp63
S'nn'
p64
aS'3'
aS'1'
aa(lp65
S'nn'
p66
aS'3'
aS'2'
aa(lp67
S'root'
p68
aS'0'
aS'3'
aa(lp69
S'advmod'
p70
aS'3'
aS'4'
aa(lp71
S'dep'
p72
aS'3'
aS'5'
aa(lp73
S'nn'
p74
aS'19'
p75
aS'6'
aa(lp76
S'nn'
p77
aS'19'
p78
aS'7'
aa(lp79
S'nn'
p80
aS'19'
p81
aS'8'
aa(lp82
S'nn'
p83
aS'19'
p84
aS'9'
aa(lp85
S'nn'
p86
aS'19'
p87
aS'10'
p88
aa(lp89
S'nn'
p90
aS'19'
p91
aS'11'
p92
aa(lp93
S'nn'
p94
aS'19'
p95
aS'12'
p96
aa(lp97
S'amod'
p98
aS'19'
p99
aS'13'
p100
aa(lp101
S'amod'
p102
aS'19'
p103
aS'14'
p104
aa(lp105
S'nn'
p106
aS'19'
p107
aS'15'
p108
aa(lp109
S'nn'
p110
aS'19'
p111
aS'16'
p112
aa(lp113
S'punct'
p114
aS'19'
p115
aS'18'
p116
aa(lp117
S'dep'
p118
aS'3'
aS'19'
p119
aa(lp120
S'nn'
p121
aS'26'
p122
aS'21'
p123
aa(lp124
S'nn'
p125
aS'26'
p126
aS'22'
p127
aa(lp128
S'amod'
p129
aS'26'
p130
aS'24'
p131
aa(lp132
S'dep'
p133
aS'3'
aS'26'
p134
aa(lp135
S'punct'
p136
aS'3'
aS'27'
p137
aa(lp138
S'dep'
p139
aS'3'
aS'28'
p140
aa(lp141
S'num'
p142
aS'28'
p143
aS'29'
p144
aasS'srls'
p145
(lp146
sS'pos_seq'
p147
(lp148
S'NNP'
p149
aS'NN'
p150
aS'NN'
p151
aS'FW'
p152
aS'FW'
p153
aS'FW'
p154
aS'FW'
p155
aS'FW'
p156
aS'FW'
p157
aS'FW'
p158
aS'NN'
p159
aS'NN'
p160
aS'JJ'
p161
aS'JJ'
p162
aS'NN'
p163
aS'NN'
p164
aS'.'
aS'-RRB-'
p165
aS'NN'
p166
aS':'
aS'NN'
p167
aS'NN'
p168
aS'.'
aS'JJ'
p169
aS'.'
aS'NN'
p170
aS':'
aS'$'
aS'CD'
p171
asS'ner_seq'
p172
(lp173
S'S-MISC'
p174
aS'O'
aS'O'
aS'S-PER'
p175
aS'O'
aS'O'
aS'O'
aS'O'
aS'O'
aS'O'
aS'O'
aS'O'
aS'S-MISC'
p176
aS'O'
aS'O'
aS'O'
aS'O'
aS'O'
aS'O'
aS'O'
aS'O'
aS'O'
aS'O'
aS'O'
aS'O'
aS'O'
aS'O'
aS'O'
aS'O'
assb.