ccopy_reg
_reconstructor
p1
(c__main__
KBproperty
p2
c__builtin__
object
p3
NtRp4
(dp5
S'comment'
p6
S''
sS'domain'
p7
S'Wine Region '
p8
sS'instances_count'
p9
S'3257'
p10
sS'label'
p11
S'growing grape'
p12
sS'range'
p13
S'Grape '
p14
sS'prop_uri'
p15
S"'http://dbpedia.org/ontology/growingGrape'"
p16
sS'annotations'
p17
(dp18
S'bag_of_words'
p19
(lp20
S'Wine'
p21
aS'Region'
p22
aS'growing'
p23
aS'grape'
p24
aS'Grape'
p25
asS'chunk_seq'
p26
(lp27
S'B-NP'
p28
aS'E-NP'
p29
aS'S-VP'
p30
aS'B-NP'
p31
aS'E-NP'
p32
asS'dep_seq'
p33
(lp34
(lp35
S'nn'
p36
aS'2'
aS'1'
aa(lp37
S'nsubj'
p38
aS'3'
aS'2'
aa(lp39
S'root'
p40
aS'0'
aS'3'
aa(lp41
S'nn'
p42
aS'5'
aS'4'
aa(lp43
S'dobj'
p44
aS'3'
aS'5'
aasS'srls'
p45
(lp46
(dp47
S'A1'
p48
S'Wine Region  grape Grape'
p49
sS'V'
g23
sasS'pos_seq'
p50
(lp51
S'NNP'
p52
aS'NNP'
p53
aS'VBG'
p54
aS'NN'
p55
aS'NNP'
p56
asS'ner_seq'
p57
(lp58
S'O'
aS'O'
aS'O'
aS'O'
aS'S-MISC'
p59
assb.