ccopy_reg
_reconstructor
p1
(c__main__
KBproperty
p2
c__builtin__
object
p3
NtRp4
(dp5
S'comment'
p6
S'where the person was born'
p7
sS'domain'
p8
S'Person '
p9
sS'instances_count'
p10
S'1131397'
p11
sS'label'
p12
S'birth place'
p13
sS'range'
p14
S'Place '
p15
sS'prop_uri'
p16
S"'http://dbpedia.org/ontology/birthPlace'"
p17
sS'annotations'
p18
(dp19
S'bag_of_words'
p20
(lp21
S'Person'
p22
aS'birth'
p23
aS'place'
p24
aS'Place'
p25
aS'where'
p26
aS'the'
p27
aS'person'
p28
aS'was'
p29
aS'born'
p30
asS'chunk_seq'
p31
(lp32
S'B-NP'
p33
aS'I-NP'
p34
aS'I-NP'
p35
aS'E-NP'
p36
aS'S-ADVP'
p37
aS'B-NP'
p38
aS'E-NP'
p39
aS'B-VP'
p40
aS'E-VP'
p41
asS'dep_seq'
p42
(lp43
(lp44
S'nn'
p45
aS'4'
aS'1'
aa(lp46
S'nn'
p47
aS'4'
aS'2'
aa(lp48
S'nn'
p49
aS'4'
aS'3'
aa(lp50
S'root'
p51
aS'0'
aS'4'
aa(lp52
S'advmod'
p53
aS'9'
aS'5'
aa(lp54
S'det'
p55
aS'7'
aS'6'
aa(lp56
S'nsubjpass'
p57
aS'9'
aS'7'
aa(lp58
S'auxpass'
p59
aS'9'
aS'8'
aa(lp60
S'rcmod'
p61
aS'4'
aS'9'
aasS'srls'
p62
(lp63
sS'pos_seq'
p64
(lp65
S'NN'
p66
aS'NN'
p67
aS'NN'
p68
aS'NN'
p69
aS'WRB'
p70
aS'DT'
p71
aS'NN'
p72
aS'VBD'
p73
aS'VBN'
p74
asS'ner_seq'
p75
(lp76
S'O'
aS'O'
aS'O'
aS'O'
aS'O'
aS'O'
aS'O'
aS'O'
aS'O'
assb.