ccopy_reg
_reconstructor
p1
(c__main__
KBproperty
p2
c__builtin__
object
p3
NtRp4
(dp5
S'comment'
p6
S'A colour represented by its hex code e.g.: #FF0000 or #40E0D0.'
p7
sS'domain'
p8
S''
sS'instances_count'
p9
S'1097'
p10
sS'label'
p11
S'colour hex code'
p12
sS'range'
p13
S'string '
p14
sS'prop_uri'
p15
S"'http://dbpedia.org/ontology/colourHexCode'"
p16
sS'annotations'
p17
(dp18
S'bag_of_words'
p19
(lp20
S'colour'
p21
aS'hex'
p22
aS'code'
p23
aS'string'
p24
aS'A'
aS'colour'
p25
aS'represented'
p26
aS'by'
p27
aS'its'
p28
aS'hex'
p29
aS'code'
p30
aS'e.g.'
p31
aS':'
aS'#'
aS'FF0000'
p32
aS'or'
p33
aS'#40'
p34
aS'E0D0'
p35
aS'.'
asS'chunk_seq'
p36
(lp37
S'S-NP'
p38
aS'S-VP'
p39
aS'B-NP'
p40
aS'E-NP'
p41
aS'B-NP'
p42
aS'E-NP'
p43
aS'S-VP'
p44
aS'S-PP'
p45
aS'B-NP'
p46
aS'I-NP'
p47
aS'E-NP'
p48
aS'S-ADVP'
p49
aS'O'
aS'B-NP'
p50
aS'I-NP'
p51
aS'I-NP'
p52
aS'I-NP'
p53
aS'E-NP'
p54
aS'O'
asS'dep_seq'
p55
(lp56
(lp57
S'nn'
p58
aS'4'
aS'1'
aa(lp59
S'dep'
p60
aS'4'
aS'2'
aa(lp61
S'nn'
p62
aS'4'
aS'3'
aa(lp63
S'root'
p64
aS'0'
aS'4'
aa(lp65
S'det'
p66
aS'6'
aS'5'
aa(lp67
S'dep'
p68
aS'4'
aS'6'
aa(lp69
S'partmod'
p70
aS'6'
aS'7'
aa(lp71
S'poss'
p72
aS'11'
p73
aS'9'
aa(lp74
S'nn'
p75
aS'11'
p76
aS'10'
p77
aa(lp78
S'agent'
p79
aS'7'
aS'11'
p80
aa(lp81
S'advmod'
p82
aS'11'
p83
aS'12'
p84
aa(lp85
S'amod'
p86
aS'15'
p87
aS'14'
p88
aa(lp89
S'dep'
p90
aS'11'
p91
aS'15'
p92
aa(lp93
S'amod'
p94
aS'18'
p95
aS'17'
p96
aa(lp97
S'conj_or'
p98
aS'15'
p99
aS'18'
p100
aasS'srls'
p101
(lp102
(dp103
S'A1'
p104
S'colour  code string'
p105
sS'V'
g22
sa(dp106
S'A1'
p107
S'A colour'
p108
sS'A0'
p109
S'by its hex code e.g.'
p110
sS'V'
g26
sasS'pos_seq'
p111
(lp112
S'NN'
p113
aS'VBP'
p114
aS'NN'
p115
aS'NN'
p116
aS'DT'
p117
aS'NN'
p118
aS'VBN'
p119
aS'IN'
p120
aS'PRP$'
p121
aS'NN'
p122
aS'NN'
p123
aS'RB'
p124
aS':'
aS'IN'
p125
aS'NNP'
p126
aS'CC'
p127
aS'JJ'
p128
aS'NNP'
p129
aS'.'
asS'ner_seq'
p130
(lp131
S'O'
aS'O'
aS'O'
aS'O'
aS'O'
aS'O'
aS'O'
aS'O'
aS'O'
aS'O'
aS'O'
aS'O'
aS'O'
aS'O'
aS'O'
aS'O'
aS'O'
aS'S-LOC'
p132
aS'O'
assb.