ccopy_reg
_reconstructor
p1
(c__main__
KBproperty
p2
c__builtin__
object
p3
NtRp4
(dp5
S'comment'
p6
S'active years start date manager'
p7
sS'domain'
p8
S'Person '
p9
sS'instances_count'
p10
S'0'
sS'label'
p11
g7
sS'range'
p12
S'date '
p13
sS'prop_uri'
p14
S"'http://dbpedia.org/ontology/activeYearsStartDateMgr'"
p15
sS'annotations'
p16
(dp17
S'bag_of_words'
p18
(lp19
S'Person'
p20
aS'active'
p21
aS'Years'
p22
aS'Start'
p23
aS'Date'
p24
aS'Mgr'
p25
aS'date'
p26
aS'active'
p27
aS'years'
p28
aS'start'
p29
aS'date'
p30
aS'manager'
p31
asS'chunk_seq'
p32
(lp33
S'B-NP'
p34
aS'I-NP'
p35
aS'E-NP'
p36
aS'S-VP'
p37
aS'B-NP'
p38
aS'I-NP'
p39
aS'E-NP'
p40
aS'B-NP'
p41
aS'E-NP'
p42
aS'S-VP'
p43
aS'B-NP'
p44
aS'E-NP'
p45
asS'dep_seq'
p46
(lp47
(lp48
S'nn'
p49
aS'3'
aS'1'
aa(lp50
S'amod'
p51
aS'3'
aS'2'
aa(lp52
S'nsubj'
p53
aS'4'
aS'3'
aa(lp54
S'root'
p55
aS'0'
aS'4'
aa(lp56
S'dobj'
p57
aS'4'
aS'5'
aa(lp58
S'nn'
p59
aS'7'
aS'6'
aa(lp60
S'dep'
p61
aS'5'
aS'7'
aa(lp62
S'amod'
p63
aS'9'
aS'8'
aa(lp64
S'nsubj'
p65
aS'10'
p66
aS'9'
aa(lp67
S'rcmod'
p68
aS'5'
aS'10'
p69
aa(lp70
S'nn'
p71
aS'12'
p72
aS'11'
p73
aa(lp74
S'dobj'
p75
aS'10'
p76
aS'12'
p77
aasS'srls'
p78
(lp79
(dp80
S'A1'
p81
S'Person active Years Start Date Mgr date active years'
p82
sS'A2'
p83
S'date manager'
p84
sS'V'
g29
sasS'pos_seq'
p85
(lp86
S'NN'
p87
aS'JJ'
p88
aS'NNS'
p89
aS'VBP'
p90
aS'NN'
p91
aS'NNP'
p92
aS'NN'
p93
aS'JJ'
p94
aS'NNS'
p95
aS'VBP'
p96
aS'NN'
p97
aS'NN'
p98
asS'ner_seq'
p99
(lp100
S'O'
aS'O'
aS'O'
aS'O'
aS'O'
aS'O'
aS'O'
aS'O'
aS'O'
aS'O'
aS'O'
aS'O'
assb.