ccopy_reg
_reconstructor
p1
(c__main__
KBproperty
p2
c__builtin__
object
p3
NtRp4
(dp5
S'comment'
p6
S''
sS'domain'
p7
S''
sS'instances_count'
p8
S'1'
sS'label'
p9
S'area rural sq mi'
p10
sS'range'
p11
S''
sS'prop_uri'
p12
S"'http://dbpedia.org/property/areaRuralSqMi'"
p13
sS'annotations'
p14
(dp15
S'bag_of_words'
p16
(lp17
S'area'
p18
aS'rural'
p19
aS'sq'
p20
aS'mi'
p21
asS'chunk_seq'
p22
(lp23
S'S-NP'
p24
aS'S-ADJP'
p25
aS'O'
aS'O'
asS'dep_seq'
p26
(lp27
(lp28
S'root'
p29
aS'0'
aS'1'
aa(lp30
S'amod'
p31
aS'3'
aS'2'
aa(lp32
S'dep'
p33
aS'1'
aS'3'
aa(lp34
S'punct'
p35
aS'3'
aS'4'
aasS'srls'
p36
(lp37
sS'pos_seq'
p38
(lp39
S'NN'
p40
aS'JJ'
p41
aS'CD'
p42
aS'.'
asS'ner_seq'
p43
(lp44
S'O'
aS'O'
aS'O'
aS'O'
assb.