ccopy_reg
_reconstructor
p1
(c__main__
KBproperty
p2
c__builtin__
object
p3
NtRp4
(dp5
S'comment'
p6
S'piston stroke \\xce\\xbc'
p7
sS'domain'
p8
S'Automobile Engine '
p9
sS'instances_count'
p10
S'474'
p11
sS'label'
p12
g7
sS'range'
p13
S'double '
p14
sS'prop_uri'
p15
S"'http://dbpedia.org/ontology/pistonStroke'"
p16
sS'annotations'
p17
(dp18
S'bag_of_words'
p19
(lp20
S'Automobile'
p21
aS'Engine'
p22
aS'piston'
p23
aS'Stroke'
p24
aS'double'
p25
aS'piston'
p26
aS'stroke'
p27
aS'\\'
aS'xce'
p28
aS'\\'
aS'xbc'
p29
asS'chunk_seq'
p30
(lp31
S'B-NP'
p32
aS'I-NP'
p33
aS'I-NP'
p34
aS'I-NP'
p35
aS'I-NP'
p36
aS'I-NP'
p37
aS'E-NP'
p38
aS'O'
aS'O'
aS'O'
aS'O'
asS'dep_seq'
p39
(lp40
(lp41
S'nn'
p42
aS'7'
aS'1'
aa(lp43
S'nn'
p44
aS'7'
aS'2'
aa(lp45
S'nn'
p46
aS'7'
aS'3'
aa(lp47
S'nn'
p48
aS'7'
aS'4'
aa(lp49
S'amod'
p50
aS'7'
aS'5'
aa(lp51
S'nn'
p52
aS'7'
aS'6'
aa(lp53
S'root'
p54
aS'0'
aS'7'
aa(lp55
S'dep'
p56
aS'7'
aS'8'
aa(lp57
S'discourse'
p58
aS'7'
aS'9'
aa(lp59
S'dep'
p60
aS'9'
aS'10'
p61
aa(lp62
S'dep'
p63
aS'9'
aS'11'
p64
aasS'srls'
p65
(lp66
sS'pos_seq'
p67
(lp68
S'NNP'
p69
aS'NNP'
p70
aS'NN'
p71
aS'NN'
p72
aS'JJ'
p73
aS'NN'
p74
aS'NN'
p75
aS'FW'
p76
aS'FW'
p77
aS'FW'
p78
aS'FW'
p79
asS'ner_seq'
p80
(lp81
S'O'
aS'O'
aS'O'
aS'O'
aS'O'
aS'O'
aS'O'
aS'O'
aS'O'
aS'O'
aS'O'
assb.