ccopy_reg
_reconstructor
p1
(c__main__
KBproperty
p2
c__builtin__
object
p3
NtRp4
(dp5
S'comment'
p6
S'Union List of Artist Names id Getty Research Institute. ULAN has 293000 names and other information about artists. Names in ULAN may include given names pseudonyms variant spellings names in multiple languages and names that have changed over time e.g. married names.\\nhttp://vocab.getty.edu/ulan/$1'
p7
sS'domain'
p8
S''
sS'instances_count'
p9
S'9'
sS'label'
p10
S'ULAN id'
p11
sS'range'
p12
S'string '
p13
sS'prop_uri'
p14
S"'http://dbpedia.org/ontology/ulanId'"
p15
sS'annotations'
p16
(dp17
S'bag_of_words'
p18
(lp19
S'ULAN'
p20
aS'id'
p21
aS'string'
p22
aS'Union'
p23
aS'List'
p24
aS'of'
p25
aS'Artist'
p26
aS'Names'
p27
aS'id'
p28
aS'Getty'
p29
aS'Research'
p30
aS'Institute'
p31
aS'.'
aS'ULAN'
p32
aS'has'
p33
aS'293000'
p34
aS'names'
p35
aS'and'
p36
aS'other'
p37
aS'information'
p38
aS'about'
p39
aS'artists'
p40
aS'.'
aS'Names'
p41
aS'in'
p42
aS'ULAN'
p43
aS'may'
p44
aS'include'
p45
aS'given'
p46
aS'names'
p47
aS'pseudonyms'
p48
aS'variant'
p49
aS'spellings'
p50
aS'names'
p51
aS'in'
p52
aS'multiple'
p53
aS'languages'
p54
aS'and'
p55
aS'names'
p56
aS'that'
p57
aS'have'
p58
aS'changed'
p59
aS'over'
p60
aS'time'
p61
aS'e.g.'
p62
aS'married'
p63
aS'names'
p64
aS'.'
aS'\\'
aS'nhttp'
p65
aS':'
aS'//'
p66
aS'vocab'
p67
aS'.'
aS'getty'
p68
aS'.'
aS'edu'
p69
aS'/'
aS'ulan'
p70
aS'/'
aS'$'
aS'1'
asS'chunk_seq'
p71
(lp72
S'B-NP'
p73
aS'I-NP'
p74
aS'I-NP'
p75
aS'I-NP'
p76
aS'E-NP'
p77
aS'S-PP'
p78
aS'B-NP'
p79
aS'I-NP'
p80
aS'I-NP'
p81
aS'I-NP'
p82
aS'I-NP'
p83
aS'E-NP'
p84
aS'O'
aS'S-NP'
p85
aS'S-VP'
p86
aS'B-NP'
p87
aS'E-NP'
p88
aS'O'
aS'B-NP'
p89
aS'E-NP'
p90
aS'S-PP'
p91
aS'S-NP'
p92
aS'O'
aS'S-NP'
p93
aS'S-PP'
p94
aS'S-NP'
p95
aS'B-VP'
p96
aS'I-VP'
p97
aS'E-VP'
p98
aS'B-NP'
p99
aS'I-NP'
p100
aS'I-NP'
p101
aS'E-NP'
p102
aS'S-VP'
p103
aS'S-PP'
p104
aS'B-NP'
p105
aS'I-NP'
p106
aS'I-NP'
p107
aS'E-NP'
p108
aS'S-NP'
p109
aS'B-VP'
p110
aS'E-VP'
p111
aS'S-PP'
p112
aS'S-NP'
p113
aS'S-ADVP'
p114
aS'B-NP'
p115
aS'E-NP'
p116
aS'O'
aS'O'
aS'O'
aS'O'
aS'B-NP'
p117
aS'I-NP'
p118
aS'I-NP'
p119
aS'E-NP'
p120
aS'O'
aS'S-NP'
p121
aS'O'
aS'O'
aS'O'
aS'O'
aS'O'
asS'dep_seq'
p122
(lp123
(lp124
S'nn'
p125
aS'5'
aS'1'
aa(lp126
S'nn'
p127
aS'5'
aS'2'
aa(lp128
S'nn'
p129
aS'5'
aS'3'
aa(lp130
S'nn'
p131
aS'5'
aS'4'
aa(lp132
S'nsubj'
p133
aS'28'
p134
aS'5'
aa(lp135
S'nn'
p136
aS'14'
p137
aS'7'
aa(lp138
S'nn'
p139
aS'14'
p140
aS'8'
aa(lp141
S'nn'
p142
aS'14'
p143
aS'9'
aa(lp144
S'nn'
p145
aS'14'
p146
aS'10'
p147
aa(lp148
S'nn'
p149
aS'14'
p150
aS'11'
p151
aa(lp152
S'nn'
p153
aS'14'
p154
aS'12'
p155
aa(lp156
S'prep_of'
p157
aS'5'
aS'14'
p158
aa(lp159
S'dep'
p160
aS'28'
p161
aS'15'
p162
aa(lp163
S'num'
p164
aS'17'
p165
aS'16'
p166
aa(lp167
S'nsubj'
p168
aS'28'
p169
aS'17'
p170
aa(lp171
S'amod'
p172
aS'20'
p173
aS'19'
p174
aa(lp175
S'conj_and'
p176
aS'28'
p177
aS'20'
p178
aa(lp179
S'nsubj'
p180
aS'28'
p181
aS'20'
p182
aa(lp183
S'dep'
p184
aS'28'
p185
aS'21'
p186
aa(lp187
S'nsubj'
p188
aS'28'
p189
aS'22'
p190
aa(lp191
S'nsubj'
p192
aS'28'
p193
aS'24'
p194
aa(lp195
S'prep_in'
p196
aS'24'
p197
aS'26'
p198
aa(lp199
S'aux'
p200
aS'28'
p201
aS'27'
p202
aa(lp203
S'root'
p204
aS'0'
aS'28'
p205
aa(lp206
S'prep'
p207
aS'28'
p208
aS'29'
p209
aa(lp210
S'nn'
p211
aS'34'
p212
aS'30'
p213
aa(lp214
S'nn'
p215
aS'34'
p216
aS'31'
p217
aa(lp218
S'nn'
p219
aS'34'
p220
aS'32'
p221
aa(lp222
S'nn'
p223
aS'34'
p224
aS'33'
p225
aa(lp226
S'dep'
p227
aS'29'
p228
aS'34'
p229
aa(lp230
S'amod'
p231
aS'37'
p232
aS'36'
p233
aa(lp234
S'prep_in'
p235
aS'34'
p236
aS'37'
p237
aa(lp238
S'conj_and'
p239
aS'37'
p240
aS'39'
p241
aa(lp242
S'nn'
p243
aS'37'
p244
aS'39'
p245
aa(lp246
S'nsubj'
p247
aS'42'
p248
aS'39'
p249
aa(lp250
S'aux'
p251
aS'42'
p252
aS'41'
p253
aa(lp254
S'rcmod'
p255
aS'39'
p256
aS'42'
p257
aa(lp258
S'nn'
p259
aS'47'
p260
aS'44'
p261
aa(lp262
S'advmod'
p263
aS'46'
p264
aS'45'
p265
aa(lp266
S'amod'
p267
aS'47'
p268
aS'46'
p269
aa(lp270
S'prep_over'
p271
aS'42'
p272
aS'47'
p273
aa(lp274
S'nn'
p275
aS'37'
p276
aS'49'
p277
aa(lp278
S'nn'
p279
aS'37'
p280
aS'50'
p281
aa(lp282
S'nn'
p283
aS'55'
p284
aS'52'
p285
aa(lp286
S'nn'
p287
aS'55'
p288
aS'53'
p289
aa(lp290
S'dep'
p291
aS'37'
p292
aS'55'
p293
aa(lp294
S'dep'
p295
aS'55'
p296
aS'57'
p297
aa(lp298
S'nn'
p299
aS'55'
p300
aS'58'
p301
aa(lp302
S'nn'
p303
aS'55'
p304
aS'59'
p305
aa(lp306
S'dep'
p307
aS'55'
p308
aS'60'
p309
aa(lp310
S'nn'
p311
aS'62'
p312
aS'61'
p313
aa(lp314
S'dep'
p315
aS'55'
p316
aS'62'
p317
aasS'srls'
p318
(lp319
(dp320
S'A1'
p321
S'293000 names and other information about artists . Names in ULAN may include given names pseudonyms variant spellings names in multiple languages and names that have changed over time e.g. married names . \\ nhttp : // vocab . getty . edu / ulan / $ 1'
p322
sS'A0'
p323
g32
sS'V'
g33
sa(dp324
S'A1'
p325
S'given names pseudonyms variant spellings names in multiple languages and names that have changed over time e.g. married names . \\ nhttp : // vocab . getty . edu / ulan / $ 1'
p326
sS'V'
g45
sS'A2'
p327
S'Names in ULAN'
p328
sS'AM-MOD'
p329
g44
sa(dp330
S'A1'
p331
S'names pseudonyms variant spellings names in multiple languages and names that have changed over time e.g. married names . \\ nhttp : // vocab . getty . edu / ulan / $ 1'
p332
sS'V'
g46
sa(dp333
S'A1'
p334
S'multiple languages and names  time e.g. married names . \\ nhttp : // vocab . getty . edu / ulan / $ 1'
p335
sS'R-A1'
p336
g57
sS'V'
S'changed over'
p337
sasS'pos_seq'
p338
(lp339
S'NNP'
p340
aS'NN'
p341
aS'NN'
p342
aS'NNP'
p343
aS'NNP'
p344
aS'IN'
p345
aS'NNP'
p346
aS'NNP'
p347
aS'NN'
p348
aS'NNP'
p349
aS'NNP'
p350
aS'NNP'
p351
aS'.'
aS'NNP'
p352
aS'VBZ'
p353
aS'CD'
p354
aS'NNS'
p355
aS'CC'
p356
aS'JJ'
p357
aS'NN'
p358
aS'IN'
p359
aS'NNS'
p360
aS'.'
aS'NNPS'
p361
aS'IN'
p362
aS'NNP'
p363
aS'MD'
p364
aS'VB'
p365
aS'VBN'
p366
aS'NNS'
p367
aS'NNS'
p368
aS'NN'
p369
aS'NNS'
p370
aS'NNS'
p371
aS'IN'
p372
aS'JJ'
p373
aS'NNS'
p374
aS'CC'
p375
aS'NNS'
p376
aS'WDT'
p377
aS'VBP'
p378
aS'VBN'
p379
aS'IN'
p380
aS'NN'
p381
aS'RB'
p382
aS'JJ'
p383
aS'NNS'
p384
aS'.'
aS'FW'
p385
aS'FW'
p386
aS'FW'
p387
aS'FW'
p388
aS'FW'
p389
aS'.'
aS'NN'
p390
aS'.'
aS'FW'
p391
aS'FW'
p392
aS'FW'
p393
aS'FW'
p394
aS'FW'
p395
aS'FW'
p396
asS'ner_seq'
p397
(lp398
S'S-ORG'
p399
aS'O'
aS'O'
aS'B-ORG'
p400
aS'I-ORG'
p401
aS'I-ORG'
p402
aS'I-ORG'
p403
aS'E-ORG'
p404
aS'O'
aS'B-ORG'
p405
aS'I-ORG'
p406
aS'E-ORG'
p407
aS'O'
aS'S-ORG'
p408
aS'O'
aS'O'
aS'O'
aS'O'
aS'O'
aS'O'
aS'O'
aS'O'
aS'O'
aS'S-MISC'
p409
aS'O'
aS'S-ORG'
p410
aS'O'
aS'O'
aS'O'
aS'O'
aS'O'
aS'O'
aS'O'
aS'O'
aS'O'
aS'O'
aS'O'
aS'O'
aS'O'
aS'O'
aS'O'
aS'O'
aS'O'
aS'O'
aS'O'
aS'O'
aS'O'
aS'O'
aS'O'
aS'O'
aS'O'
aS'O'
aS'O'
aS'O'
aS'O'
aS'O'
aS'O'
aS'O'
aS'O'
aS'O'
aS'O'
aS'O'
assb.