ccopy_reg
_reconstructor
p1
(c__main__
KBproperty
p2
c__builtin__
object
p3
NtRp4
(dp5
S'comment'
p6
S''
sS'domain'
p7
S''
sS'instances_count'
p8
S'23'
p9
sS'label'
p10
S'a engineer'
p11
sS'range'
p12
S''
sS'prop_uri'
p13
S"'http://dbpedia.org/property/aEngineer'"
p14
sS'annotations'
p15
(dp16
S'bag_of_words'
p17
(lp18
S'a'
aS'engineer'
p19
asS'chunk_seq'
p20
(lp21
S'B-NP'
p22
aS'E-NP'
p23
asS'dep_seq'
p24
(lp25
(lp26
S'det'
p27
aS'2'
aS'1'
aa(lp28
S'root'
p29
aS'0'
aS'2'
aasS'srls'
p30
(lp31
sS'pos_seq'
p32
(lp33
S'DT'
p34
aS'NN'
p35
asS'ner_seq'
p36
(lp37
S'O'
aS'O'
assb.