ccopy_reg
_reconstructor
p1
(c__main__
KBproperty
p2
c__builtin__
object
p3
NtRp4
(dp5
S'comment'
p6
S'number of office holder'
p7
sS'domain'
p8
S''
sS'instances_count'
p9
S'43'
p10
sS'label'
p11
S'speaker'
p12
sS'range'
p13
S'integer '
p14
sS'prop_uri'
p15
S"'http://dbpedia.org/ontology/speaker'"
p16
sS'annotations'
p17
(dp18
S'bag_of_words'
p19
(lp20
S'speaker'
p21
aS'integer'
p22
aS'number'
p23
aS'of'
p24
aS'office'
p25
aS'holder'
p26
asS'chunk_seq'
p27
(lp28
S'B-NP'
p29
aS'I-NP'
p30
aS'E-NP'
p31
aS'S-PP'
p32
aS'B-NP'
p33
aS'E-NP'
p34
asS'dep_seq'
p35
(lp36
(lp37
S'nn'
p38
aS'3'
aS'1'
aa(lp39
S'nn'
p40
aS'3'
aS'2'
aa(lp41
S'root'
p42
aS'0'
aS'3'
aa(lp43
S'nn'
p44
aS'6'
aS'5'
aa(lp45
S'prep_of'
p46
aS'3'
aS'6'
aasS'srls'
p47
(lp48
sS'pos_seq'
p49
(lp50
S'NN'
p51
aS'NN'
p52
aS'NN'
p53
aS'IN'
p54
aS'NN'
p55
aS'NN'
p56
asS'ner_seq'
p57
(lp58
S'O'
aS'O'
aS'O'
aS'O'
aS'O'
aS'O'
assb.