ccopy_reg
_reconstructor
p1
(c__main__
KBproperty
p2
c__builtin__
object
p3
NtRp4
(dp5
S'comment'
p6
S''
sS'domain'
p7
S'Populated Place '
p8
sS'instances_count'
p9
S'0'
sS'label'
p10
S'gross domestic product nominal per capita'
p11
sS'range'
p12
S'Gross Domestic Product Per Capita '
p13
sS'prop_uri'
p14
S"'http://dbpedia.org/ontology/grossDomesticProductNominalPerCapita'"
p15
sS'annotations'
p16
(dp17
S'bag_of_words'
p18
(lp19
S'Populated'
p20
aS'Place'
p21
aS'gross'
p22
aS'domestic'
p23
aS'product'
p24
aS'nominal'
p25
aS'per'
p26
aS'capita'
p27
aS'Gross'
p28
aS'Domestic'
p29
aS'Product'
p30
aS'Per'
p31
aS'Capita'
p32
asS'chunk_seq'
p33
(lp34
S'B-NP'
p35
aS'I-NP'
p36
aS'I-NP'
p37
aS'I-NP'
p38
aS'E-NP'
p39
aS'S-ADJP'
p40
aS'S-PP'
p41
aS'B-NP'
p42
aS'I-NP'
p43
aS'I-NP'
p44
aS'E-NP'
p45
aS'B-NP'
p46
aS'E-NP'
p47
asS'dep_seq'
p48
(lp49
(lp50
S'amod'
p51
aS'5'
aS'1'
aa(lp52
S'nn'
p53
aS'5'
aS'2'
aa(lp54
S'amod'
p55
aS'5'
aS'3'
aa(lp56
S'amod'
p57
aS'5'
aS'4'
aa(lp58
S'root'
p59
aS'0'
aS'5'
aa(lp60
S'amod'
p61
aS'5'
aS'6'
aa(lp62
S'nn'
p63
aS'13'
p64
aS'8'
aa(lp65
S'nn'
p66
aS'13'
p67
aS'9'
aa(lp68
S'nn'
p69
aS'13'
p70
aS'10'
p71
aa(lp72
S'nn'
p73
aS'13'
p74
aS'11'
p75
aa(lp76
S'nn'
p77
aS'13'
p78
aS'12'
p79
aa(lp80
S'prep_per'
p81
aS'6'
aS'13'
p82
aasS'srls'
p83
(lp84
sS'pos_seq'
p85
(lp86
S'VBN'
p87
aS'NN'
p88
aS'JJ'
p89
aS'JJ'
p90
aS'NN'
p91
aS'JJ'
p92
aS'IN'
p93
aS'NN'
p94
aS'NNP'
p95
aS'NNP'
p96
aS'NNP'
p97
aS'NNP'
p98
aS'NNP'
p99
asS'ner_seq'
p100
(lp101
S'O'
aS'O'
aS'O'
aS'O'
aS'O'
aS'O'
aS'O'
aS'O'
aS'O'
aS'O'
aS'O'
aS'O'
aS'O'
assb.