ccopy_reg
_reconstructor
p1
(c__main__
KBproperty
p2
c__builtin__
object
p3
NtRp4
(dp5
S'comment'
p6
S'The last election date for the house.'
p7
sS'domain'
p8
S'Legislature '
p9
sS'instances_count'
p10
S'844'
p11
sS'label'
p12
S'last election date'
p13
sS'range'
p14
S'date '
p15
sS'prop_uri'
p16
S"'http://dbpedia.org/ontology/lastElectionDate'"
p17
sS'annotations'
p18
(dp19
S'bag_of_words'
p20
(lp21
S'Legislature'
p22
aS'last'
p23
aS'election'
p24
aS'date'
p25
aS'date'
p26
aS'The'
p27
aS'last'
p28
aS'election'
p29
aS'date'
p30
aS'for'
p31
aS'the'
p32
aS'house'
p33
aS'.'
asS'chunk_seq'
p34
(lp35
S'S-NP'
p36
aS'B-NP'
p37
aS'I-NP'
p38
aS'E-NP'
p39
aS'S-VP'
p40
aS'B-NP'
p41
aS'I-NP'
p42
aS'I-NP'
p43
aS'E-NP'
p44
aS'S-PP'
p45
aS'B-NP'
p46
aS'E-NP'
p47
aS'O'
asS'dep_seq'
p48
(lp49
(lp50
S'dep'
p51
aS'9'
aS'1'
aa(lp52
S'amod'
p53
aS'5'
aS'2'
aa(lp54
S'nn'
p55
aS'5'
aS'3'
aa(lp56
S'nn'
p57
aS'5'
aS'4'
aa(lp58
S'dep'
p59
aS'9'
aS'5'
aa(lp60
S'det'
p61
aS'9'
aS'6'
aa(lp62
S'amod'
p63
aS'9'
aS'7'
aa(lp64
S'nn'
p65
aS'9'
aS'8'
aa(lp66
S'root'
p67
aS'0'
aS'9'
aa(lp68
S'det'
p69
aS'12'
p70
aS'11'
p71
aa(lp72
S'prep_for'
p73
aS'9'
aS'12'
p74
aasS'srls'
p75
(lp76
sS'pos_seq'
p77
(lp78
S'NNP'
p79
aS'JJ'
p80
aS'NN'
p81
aS'NN'
p82
aS'NN'
p83
aS'DT'
p84
aS'JJ'
p85
aS'NN'
p86
aS'NN'
p87
aS'IN'
p88
aS'DT'
p89
aS'NN'
p90
aS'.'
asS'ner_seq'
p91
(lp92
S'O'
aS'O'
aS'O'
aS'O'
aS'O'
aS'O'
aS'O'
aS'O'
aS'O'
aS'O'
aS'O'
aS'O'
aS'O'
assb.