ccopy_reg
_reconstructor
p1
(c__main__
KBproperty
p2
c__builtin__
object
p3
NtRp4
(dp5
S'comment'
p6
S'The reference identification of the project.'
p7
sS'domain'
p8
S'Research Project '
p9
sS'instances_count'
p10
S'7'
sS'label'
p11
S'project reference ID'
p12
sS'range'
p13
S'string '
p14
sS'prop_uri'
p15
S"'http://dbpedia.org/ontology/projectReferenceID'"
p16
sS'annotations'
p17
(dp18
S'bag_of_words'
p19
(lp20
S'Research'
p21
aS'Project'
p22
aS'project'
p23
aS'reference'
p24
aS'ID'
p25
aS'string'
p26
aS'The'
p27
aS'reference'
p28
aS'identification'
p29
aS'of'
p30
aS'the'
p31
aS'project'
p32
aS'.'
asS'chunk_seq'
p33
(lp34
S'B-NP'
p35
aS'I-NP'
p36
aS'I-NP'
p37
aS'I-NP'
p38
aS'I-NP'
p39
aS'E-NP'
p40
aS'B-NP'
p41
aS'I-NP'
p42
aS'E-NP'
p43
aS'S-PP'
p44
aS'B-NP'
p45
aS'E-NP'
p46
aS'O'
asS'dep_seq'
p47
(lp48
(lp49
S'nn'
p50
aS'6'
aS'1'
aa(lp51
S'nn'
p52
aS'6'
aS'2'
aa(lp53
S'nn'
p54
aS'6'
aS'3'
aa(lp55
S'nn'
p56
aS'6'
aS'4'
aa(lp57
S'nn'
p58
aS'6'
aS'5'
aa(lp59
S'dep'
p60
aS'9'
aS'6'
aa(lp61
S'det'
p62
aS'9'
aS'7'
aa(lp63
S'nn'
p64
aS'9'
aS'8'
aa(lp65
S'root'
p66
aS'0'
aS'9'
aa(lp67
S'det'
p68
aS'12'
p69
aS'11'
p70
aa(lp71
S'prep_of'
p72
aS'9'
aS'12'
p73
aasS'srls'
p74
(lp75
sS'pos_seq'
p76
(lp77
S'NNP'
p78
aS'NNP'
p79
aS'NN'
p80
aS'NN'
p81
aS'NN'
p82
aS'NN'
p83
aS'DT'
p84
aS'NN'
p85
aS'NN'
p86
aS'IN'
p87
aS'DT'
p88
aS'NN'
p89
aS'.'
asS'ner_seq'
p90
(lp91
S'O'
aS'O'
aS'O'
aS'O'
aS'O'
aS'O'
aS'O'
aS'O'
aS'O'
aS'O'
aS'O'
aS'O'
aS'O'
assb.