ccopy_reg
_reconstructor
p1
(c__main__
KBproperty
p2
c__builtin__
object
p3
NtRp4
(dp5
S'comment'
p6
S''
sS'domain'
p7
S'Currency '
p8
sS'instances_count'
p9
S'449'
p10
sS'label'
p11
S'using country'
p12
sS'range'
p13
S'Country '
p14
sS'prop_uri'
p15
S"'http://dbpedia.org/ontology/usingCountry'"
p16
sS'annotations'
p17
(dp18
S'bag_of_words'
p19
(lp20
S'Currency'
p21
aS'using'
p22
aS'country'
p23
aS'Country'
p24
asS'chunk_seq'
p25
(lp26
S'S-NP'
p27
aS'S-VP'
p28
aS'B-NP'
p29
aS'E-NP'
p30
asS'dep_seq'
p31
(lp32
(lp33
S'root'
p34
aS'0'
aS'1'
aa(lp35
S'nn'
p36
aS'4'
aS'3'
aa(lp37
S'prep_using'
p38
aS'1'
aS'4'
aasS'srls'
p39
(lp40
(dp41
S'A1'
p42
S'country Country'
p43
sS'A0'
p44
g21
sS'V'
g22
sasS'pos_seq'
p45
(lp46
S'NN'
p47
aS'VBG'
p48
aS'NN'
p49
aS'NN'
p50
asS'ner_seq'
p51
(lp52
S'O'
aS'O'
aS'O'
aS'S-MISC'
p53
assb.