ccopy_reg
_reconstructor
p1
(c__main__
KBproperty
p2
c__builtin__
object
p3
NtRp4
(dp5
S'comment'
p6
S''
sS'domain'
p7
S'Person '
p8
sS'instances_count'
p9
S'4923'
p10
sS'label'
p11
S'death cause'
p12
sS'range'
p13
S''
sS'prop_uri'
p14
S"'http://dbpedia.org/ontology/deathCause'"
p15
sS'annotations'
p16
(dp17
S'bag_of_words'
p18
(lp19
S'Person'
p20
aS'death'
p21
aS'cause'
p22
asS'chunk_seq'
p23
(lp24
S'B-NP'
p25
aS'I-NP'
p26
aS'E-NP'
p27
asS'dep_seq'
p28
(lp29
(lp30
S'nn'
p31
aS'3'
aS'1'
aa(lp32
S'nn'
p33
aS'3'
aS'2'
aa(lp34
S'root'
p35
aS'0'
aS'3'
aasS'srls'
p36
(lp37
sS'pos_seq'
p38
(lp39
S'NN'
p40
aS'NN'
p41
aS'NN'
p42
asS'ner_seq'
p43
(lp44
S'O'
aS'O'
aS'O'
assb.