ccopy_reg
_reconstructor
p1
(c__main__
KBproperty
p2
c__builtin__
object
p3
NtRp4
(dp5
S'comment'
p6
S'A rank in the classification of organisms below genus ; a taxon at that rank'
p7
sS'domain'
p8
S'Species '
p9
sS'instances_count'
p10
S'0'
sS'label'
p11
S'subgenus'
p12
sS'range'
p13
S''
sS'prop_uri'
p14
S"'http://dbpedia.org/ontology/subGenus'"
p15
sS'annotations'
p16
(dp17
S'bag_of_words'
p18
(lp19
S'Species'
p20
aS'subgenus'
p21
aS'A'
aS'rank'
p22
aS'in'
p23
aS'the'
p24
aS'classification'
p25
aS'of'
p26
aS'organisms'
p27
aS'below'
p28
aS'genus'
p29
aS';'
aS'a'
aS'taxon'
p30
aS'at'
p31
aS'that'
p32
aS'rank'
p33
asS'chunk_seq'
p34
(lp35
S'S-NP'
p36
aS'S-VP'
p37
aS'B-NP'
p38
aS'E-NP'
p39
aS'S-PP'
p40
aS'B-NP'
p41
aS'E-NP'
p42
aS'S-PP'
p43
aS'S-NP'
p44
aS'S-PP'
p45
aS'S-NP'
p46
aS'O'
aS'B-NP'
p47
aS'E-NP'
p48
aS'S-PP'
p49
aS'B-NP'
p50
aS'E-NP'
p51
asS'dep_seq'
p52
(lp53
(lp54
S'nsubj'
p55
aS'2'
aS'1'
aa(lp56
S'root'
p57
aS'0'
aS'2'
aa(lp58
S'det'
p59
aS'4'
aS'3'
aa(lp60
S'dobj'
p61
aS'2'
aS'4'
aa(lp62
S'det'
p63
aS'7'
aS'6'
aa(lp64
S'prep_in'
p65
aS'4'
aS'7'
aa(lp66
S'prep_of'
p67
aS'7'
aS'9'
aa(lp68
S'prep_below'
p69
aS'4'
aS'11'
p70
aa(lp71
S'det'
p72
aS'14'
p73
aS'13'
p74
aa(lp75
S'dep'
p76
aS'11'
p77
aS'14'
p78
aa(lp79
S'det'
p80
aS'17'
p81
aS'16'
p82
aa(lp83
S'prep_at'
p84
aS'14'
p85
aS'17'
p86
aasS'srls'
p87
(lp88
(dp89
S'A1'
p90
S'A rank'
p91
sS'A0'
p92
g20
sS'A2'
p93
S'in the classification of organisms below genus'
p94
sS'V'
g21
sasS'pos_seq'
p95
(lp96
S'NNS'
p97
aS'VBP'
p98
aS'DT'
p99
aS'NN'
p100
aS'IN'
p101
aS'DT'
p102
aS'NN'
p103
aS'IN'
p104
aS'NNS'
p105
aS'IN'
p106
aS'NN'
p107
aS':'
aS'DT'
p108
aS'NN'
p109
aS'IN'
p110
aS'DT'
p111
aS'NN'
p112
asS'ner_seq'
p113
(lp114
S'O'
aS'O'
aS'O'
aS'O'
aS'O'
aS'O'
aS'O'
aS'O'
aS'O'
aS'O'
aS'O'
aS'O'
aS'O'
aS'O'
aS'O'
aS'O'
aS'O'
assb.