ccopy_reg
_reconstructor
p1
(c__main__
KBproperty
p2
c__builtin__
object
p3
NtRp4
(dp5
S'comment'
p6
S''
sS'domain'
p7
S''
sS'instances_count'
p8
S'39'
p9
sS'label'
p10
S'population density metro sq mi'
p11
sS'range'
p12
S''
sS'prop_uri'
p13
S"'http://dbpedia.org/property/populationDensityMetroSqMi'"
p14
sS'annotations'
p15
(dp16
S'bag_of_words'
p17
(lp18
S'population'
p19
aS'density'
p20
aS'metro'
p21
aS'sq'
p22
aS'mi'
p23
asS'chunk_seq'
p24
(lp25
S'B-NP'
p26
aS'I-NP'
p27
aS'E-NP'
p28
aS'O'
aS'O'
asS'dep_seq'
p29
(lp30
(lp31
S'nn'
p32
aS'2'
aS'1'
aa(lp33
S'root'
p34
aS'0'
aS'2'
aa(lp35
S'dep'
p36
aS'2'
aS'3'
aa(lp37
S'num'
p38
aS'3'
aS'4'
aa(lp39
S'punct'
p40
aS'3'
aS'5'
aasS'srls'
p41
(lp42
sS'pos_seq'
p43
(lp44
S'NN'
p45
aS'NN'
p46
aS'NN'
p47
aS'CD'
p48
aS'.'
asS'ner_seq'
p49
(lp50
S'O'
aS'O'
aS'O'
aS'O'
aS'O'
assb.