ccopy_reg
_reconstructor
p1
(c__main__
KBproperty
p2
c__builtin__
object
p3
NtRp4
(dp5
S'comment'
p6
S'maximum ELO rating'
p7
sS'domain'
p8
S'Chess Player '
p9
sS'instances_count'
p10
S'0'
sS'label'
p11
g7
sS'range'
p12
S'non Negative Integer '
p13
sS'prop_uri'
p14
S"'http://dbpedia.org/ontology/eloRecord'"
p15
sS'annotations'
p16
(dp17
S'bag_of_words'
p18
(lp19
S'Chess'
p20
aS'Player'
p21
aS'elo'
p22
aS'Record'
p23
aS'non'
p24
aS'Negative'
p25
aS'Integer'
p26
aS'maximum'
p27
aS'ELO'
p28
aS'rating'
p29
asS'chunk_seq'
p30
(lp31
S'B-NP'
p32
aS'I-NP'
p33
aS'I-NP'
p34
aS'I-NP'
p35
aS'I-NP'
p36
aS'I-NP'
p37
aS'I-NP'
p38
aS'I-NP'
p39
aS'I-NP'
p40
aS'E-NP'
p41
asS'dep_seq'
p42
(lp43
(lp44
S'dep'
p45
aS'7'
aS'1'
aa(lp46
S'dep'
p47
aS'7'
aS'2'
aa(lp48
S'nn'
p49
aS'7'
aS'3'
aa(lp50
S'nn'
p51
aS'7'
aS'4'
aa(lp52
S'amod'
p53
aS'7'
aS'5'
aa(lp54
S'amod'
p55
aS'5'
aS'6'
aa(lp56
S'root'
p57
aS'0'
aS'7'
aa(lp58
S'prep'
p59
aS'7'
aS'8'
aa(lp60
S'nn'
p61
aS'10'
p62
aS'9'
aa(lp63
S'dep'
p64
aS'8'
aS'10'
p65
aasS'srls'
p66
(lp67
sS'pos_seq'
p68
(lp69
S'NNP'
p70
aS'NNP'
p71
aS'NNP'
p72
aS'NNP'
p73
aS'JJ'
p74
aS'NNP'
p75
aS'NNP'
p76
aS'NN'
p77
aS'NNP'
p78
aS'NN'
p79
asS'ner_seq'
p80
(lp81
S'B-ORG'
p82
aS'E-ORG'
p83
aS'O'
aS'O'
aS'O'
aS'B-MISC'
p84
aS'E-MISC'
p85
aS'O'
aS'S-MISC'
p86
aS'O'
assb.