ccopy_reg
_reconstructor
p1
(c__main__
KBproperty
p2
c__builtin__
object
p3
NtRp4
(dp5
S'comment'
p6
S'The format of the album: EP Single etc.'
p7
sS'domain'
p8
S'Album '
p9
sS'instances_count'
p10
S'0'
sS'label'
p11
S'musicFormat'
p12
sS'range'
p13
S'string '
p14
sS'prop_uri'
p15
S"'http://dbpedia.org/ontology/musicFormat'"
p16
sS'annotations'
p17
(dp18
S'bag_of_words'
p19
(lp20
S'Album'
p21
aS'musicFormat'
p22
aS'string'
p23
aS'The'
p24
aS'format'
p25
aS'of'
p26
aS'the'
p27
aS'album'
p28
aS':'
aS'EP'
p29
aS'Single'
p30
aS'etc.'
p31
asS'chunk_seq'
p32
(lp33
S'B-NP'
p34
aS'I-NP'
p35
aS'E-NP'
p36
aS'B-NP'
p37
aS'E-NP'
p38
aS'S-PP'
p39
aS'B-NP'
p40
aS'E-NP'
p41
aS'O'
aS'B-NP'
p42
aS'E-NP'
p43
aS'O'
asS'dep_seq'
p44
(lp45
(lp46
S'nn'
p47
aS'3'
aS'1'
aa(lp48
S'amod'
p49
aS'3'
aS'2'
aa(lp50
S'root'
p51
aS'0'
aS'3'
aa(lp52
S'det'
p53
aS'5'
aS'4'
aa(lp54
S'dep'
p55
aS'3'
aS'5'
aa(lp56
S'det'
p57
aS'8'
aS'7'
aa(lp58
S'prep_of'
p59
aS'5'
aS'8'
aa(lp60
S'dep'
p61
aS'3'
aS'10'
p62
aa(lp63
S'amod'
p64
aS'10'
p65
aS'11'
p66
aa(lp67
S'punct'
p68
aS'10'
p69
aS'12'
p70
aasS'srls'
p71
(lp72
sS'pos_seq'
p73
(lp74
S'NN'
p75
aS'JJ'
p76
aS'NN'
p77
aS'DT'
p78
aS'NN'
p79
aS'IN'
p80
aS'DT'
p81
aS'NN'
p82
aS':'
aS'NN'
p83
aS'JJ'
p84
aS'.'
asS'ner_seq'
p85
(lp86
S'O'
aS'O'
aS'O'
aS'O'
aS'O'
aS'O'
aS'O'
aS'O'
aS'O'
aS'O'
aS'O'
aS'O'
assb.