ccopy_reg
_reconstructor
p1
(c__main__
KBproperty
p2
c__builtin__
object
p3
NtRp4
(dp5
S'comment'
p6
S'target space station station'
p7
sS'domain'
p8
S'Spacecraft '
p9
sS'instances_count'
p10
S'0'
sS'label'
p11
g7
sS'range'
p12
S'Space Station '
p13
sS'prop_uri'
p14
S"'http://dbpedia.org/ontology/targetSpaceStation'"
p15
sS'annotations'
p16
(dp17
S'bag_of_words'
p18
(lp19
S'Spacecraft'
p20
aS'target'
p21
aS'Space'
p22
aS'Station'
p23
aS'Space'
p24
aS'Station'
p25
aS'target'
p26
aS'space'
p27
aS'station'
p28
aS'station'
p29
asS'chunk_seq'
p30
(lp31
S'B-NP'
p32
aS'I-NP'
p33
aS'I-NP'
p34
aS'I-NP'
p35
aS'I-NP'
p36
aS'I-NP'
p37
aS'I-NP'
p38
aS'I-NP'
p39
aS'I-NP'
p40
aS'E-NP'
p41
asS'dep_seq'
p42
(lp43
(lp44
S'nn'
p45
aS'10'
p46
aS'1'
aa(lp47
S'nn'
p48
aS'10'
p49
aS'2'
aa(lp50
S'nn'
p51
aS'10'
p52
aS'3'
aa(lp53
S'nn'
p54
aS'10'
p55
aS'4'
aa(lp56
S'nn'
p57
aS'10'
p58
aS'5'
aa(lp59
S'nn'
p60
aS'10'
p61
aS'6'
aa(lp62
S'nn'
p63
aS'10'
p64
aS'7'
aa(lp65
S'nn'
p66
aS'10'
p67
aS'8'
aa(lp68
S'nn'
p69
aS'10'
p70
aS'9'
aa(lp71
S'root'
p72
aS'0'
aS'10'
p73
aasS'srls'
p74
(lp75
sS'pos_seq'
p76
(lp77
S'NN'
p78
aS'NN'
p79
aS'NNP'
p80
aS'NNP'
p81
aS'NNP'
p82
aS'NNP'
p83
aS'NN'
p84
aS'NN'
p85
aS'NN'
p86
aS'NN'
p87
asS'ner_seq'
p88
(lp89
S'O'
aS'O'
aS'B-ORG'
p90
aS'I-ORG'
p91
aS'I-ORG'
p92
aS'E-ORG'
p93
aS'O'
aS'O'
aS'O'
aS'O'
assb.