ccopy_reg
_reconstructor
p1
(c__main__
KBproperty
p2
c__builtin__
object
p3
NtRp4
(dp5
S'comment'
p6
S'the number of studio albums released by the musical artist'
p7
sS'domain'
p8
S'Musical Artist '
p9
sS'instances_count'
p10
S'0'
sS'label'
p11
S'number of studio albums'
p12
sS'range'
p13
S'non Negative Integer '
p14
sS'prop_uri'
p15
S"'http://dbpedia.org/ontology/numberOfStudioAlbums'"
p16
sS'annotations'
p17
(dp18
S'bag_of_words'
p19
(lp20
S'Musical'
p21
aS'Artist'
p22
aS'number'
p23
aS'of'
p24
aS'studio'
p25
aS'albums'
p26
aS'non'
p27
aS'Negative'
p28
aS'Integer'
p29
aS'the'
p30
aS'number'
p31
aS'of'
p32
aS'studio'
p33
aS'albums'
p34
aS'released'
p35
aS'by'
p36
aS'the'
p37
aS'musical'
p38
aS'artist'
p39
asS'chunk_seq'
p40
(lp41
S'B-NP'
p42
aS'I-NP'
p43
aS'E-NP'
p44
aS'S-PP'
p45
aS'B-NP'
p46
aS'I-NP'
p47
aS'I-NP'
p48
aS'I-NP'
p49
aS'E-NP'
p50
aS'B-NP'
p51
aS'E-NP'
p52
aS'S-PP'
p53
aS'B-NP'
p54
aS'E-NP'
p55
aS'S-VP'
p56
aS'S-PP'
p57
aS'B-NP'
p58
aS'I-NP'
p59
aS'E-NP'
p60
asS'dep_seq'
p61
(lp62
(lp63
S'amod'
p64
aS'3'
aS'1'
aa(lp65
S'nn'
p66
aS'3'
aS'2'
aa(lp67
S'nsubj'
p68
aS'7'
aS'3'
aa(lp69
S'nn'
p70
aS'6'
aS'5'
aa(lp71
S'prep_of'
p72
aS'3'
aS'6'
aa(lp73
S'root'
p74
aS'0'
aS'7'
aa(lp75
S'dep'
p76
aS'7'
aS'8'
aa(lp77
S'dep'
p78
aS'7'
aS'9'
aa(lp79
S'det'
p80
aS'11'
p81
aS'10'
p82
aa(lp83
S'dobj'
p84
aS'7'
aS'11'
p85
aa(lp86
S'nn'
p87
aS'14'
p88
aS'13'
p89
aa(lp90
S'prep_of'
p91
aS'11'
p92
aS'14'
p93
aa(lp94
S'partmod'
p95
aS'11'
p96
aS'15'
p97
aa(lp98
S'det'
p99
aS'19'
p100
aS'17'
p101
aa(lp102
S'amod'
p103
aS'19'
p104
aS'18'
p105
aa(lp106
S'agent'
p107
aS'15'
p108
aS'19'
p109
aasS'srls'
p110
(lp111
(dp112
S'A1'
p113
S'studio albums'
p114
sS'A0'
p115
S'by the musical artist'
p116
sS'V'
g35
sasS'pos_seq'
p117
(lp118
S'JJ'
p119
aS'NNP'
p120
aS'NN'
p121
aS'IN'
p122
aS'NN'
p123
aS'NNS'
p124
aS'JJ'
p125
aS'NNP'
p126
aS'NNP'
p127
aS'DT'
p128
aS'NN'
p129
aS'IN'
p130
aS'NN'
p131
aS'NNS'
p132
aS'VBN'
p133
aS'IN'
p134
aS'DT'
p135
aS'JJ'
p136
aS'NN'
p137
asS'ner_seq'
p138
(lp139
S'O'
aS'O'
aS'O'
aS'O'
aS'O'
aS'O'
aS'O'
aS'O'
aS'O'
aS'O'
aS'O'
aS'O'
aS'O'
aS'O'
aS'O'
aS'O'
aS'O'
aS'O'
aS'O'
assb.