ccopy_reg
_reconstructor
p1
(c__main__
KBproperty
p2
c__builtin__
object
p3
NtRp4
(dp5
S'comment'
p6
S'The recommended dress code for an establishment or event.'
p7
sS'domain'
p8
S'Restaurant '
p9
sS'instances_count'
p10
S'194'
p11
sS'label'
p12
S'dress code'
p13
sS'range'
p14
S'string '
p15
sS'prop_uri'
p16
S"'http://dbpedia.org/ontology/dressCode'"
p17
sS'annotations'
p18
(dp19
S'bag_of_words'
p20
(lp21
S'Restaurant'
p22
aS'dress'
p23
aS'code'
p24
aS'string'
p25
aS'The'
p26
aS'recommended'
p27
aS'dress'
p28
aS'code'
p29
aS'for'
p30
aS'an'
p31
aS'establishment'
p32
aS'or'
p33
aS'event'
p34
aS'.'
asS'chunk_seq'
p35
(lp36
S'B-NP'
p37
aS'I-NP'
p38
aS'I-NP'
p39
aS'E-NP'
p40
aS'B-NP'
p41
aS'I-NP'
p42
aS'I-NP'
p43
aS'E-NP'
p44
aS'S-PP'
p45
aS'B-NP'
p46
aS'I-NP'
p47
aS'I-NP'
p48
aS'E-NP'
p49
aS'O'
asS'dep_seq'
p50
(lp51
(lp52
S'nn'
p53
aS'4'
aS'1'
aa(lp54
S'nn'
p55
aS'4'
aS'2'
aa(lp56
S'nn'
p57
aS'4'
aS'3'
aa(lp58
S'dep'
p59
aS'8'
aS'4'
aa(lp60
S'det'
p61
aS'8'
aS'5'
aa(lp62
S'amod'
p63
aS'8'
aS'6'
aa(lp64
S'nn'
p65
aS'8'
aS'7'
aa(lp66
S'root'
p67
aS'0'
aS'8'
aa(lp68
S'det'
p69
aS'11'
p70
aS'10'
p71
aa(lp72
S'prep_for'
p73
aS'8'
aS'11'
p74
aa(lp75
S'conj_or'
p76
aS'11'
p77
aS'13'
p78
aasS'srls'
p79
(lp80
(dp81
S'A1'
p82
S'dress code'
p83
sS'V'
g27
sasS'pos_seq'
p84
(lp85
S'NN'
p86
aS'NN'
p87
aS'NN'
p88
aS'NN'
p89
aS'DT'
p90
aS'JJ'
p91
aS'NN'
p92
aS'NN'
p93
aS'IN'
p94
aS'DT'
p95
aS'NN'
p96
aS'CC'
p97
aS'NN'
p98
aS'.'
asS'ner_seq'
p99
(lp100
S'O'
aS'O'
aS'O'
aS'O'
aS'O'
aS'O'
aS'O'
aS'O'
aS'O'
aS'O'
aS'O'
aS'O'
aS'O'
aS'O'
assb.