ccopy_reg
_reconstructor
p1
(c__main__
KBproperty
p2
c__builtin__
object
p3
NtRp4
(dp5
S'comment'
p6
S''
sS'domain'
p7
S'Political Party '
p8
sS'instances_count'
p9
S'0'
sS'label'
p10
S'number of members as of'
p11
sS'range'
p12
S'date '
p13
sS'prop_uri'
p14
S"'http://dbpedia.org/ontology/numberOfMembersAsOf'"
p15
sS'annotations'
p16
(dp17
S'bag_of_words'
p18
(lp19
S'Political'
p20
aS'Party'
p21
aS'number'
p22
aS'of'
p23
aS'members'
p24
aS'as'
p25
aS'of'
p26
aS'date'
p27
asS'chunk_seq'
p28
(lp29
S'B-NP'
p30
aS'I-NP'
p31
aS'E-NP'
p32
aS'S-PP'
p33
aS'S-NP'
p34
aS'S-PP'
p35
aS'S-PP'
p36
aS'S-NP'
p37
asS'dep_seq'
p38
(lp39
(lp40
S'amod'
p41
aS'3'
aS'1'
aa(lp42
S'nn'
p43
aS'3'
aS'2'
aa(lp44
S'root'
p45
aS'0'
aS'3'
aa(lp46
S'prep_of'
p47
aS'3'
aS'5'
aa(lp48
S'prepc_as_of'
p49
aS'3'
aS'7'
aa(lp50
S'pobj'
p51
aS'3'
aS'8'
aasS'srls'
p52
(lp53
sS'pos_seq'
p54
(lp55
S'JJ'
p56
aS'NNP'
p57
aS'NN'
p58
aS'IN'
p59
aS'NNS'
p60
aS'IN'
p61
aS'IN'
p62
aS'NN'
p63
asS'ner_seq'
p64
(lp65
S'O'
aS'O'
aS'O'
aS'O'
aS'O'
aS'O'
aS'O'
aS'O'
assb.