ccopy_reg
_reconstructor
p1
(c__main__
KBproperty
p2
c__builtin__
object
p3
NtRp4
(dp5
S'comment'
p6
S''
sS'domain'
p7
S'Chemical Substance '
p8
sS'instances_count'
p9
S'0'
sS'label'
p10
S'not soluble in'
p11
sS'range'
p12
S'Chemical Substance '
p13
sS'prop_uri'
p14
S"'http://dbpedia.org/ontology/notSolubleIn'"
p15
sS'annotations'
p16
(dp17
S'bag_of_words'
p18
(lp19
S'Chemical'
p20
aS'Substance'
p21
aS'not'
p22
aS'soluble'
p23
aS'in'
p24
aS'Chemical'
p25
aS'Substance'
p26
asS'chunk_seq'
p27
(lp28
S'B-NP'
p29
aS'E-NP'
p30
aS'O'
aS'S-ADJP'
p31
aS'S-PP'
p32
aS'B-NP'
p33
aS'E-NP'
p34
asS'dep_seq'
p35
(lp36
(lp37
S'nn'
p38
aS'2'
aS'1'
aa(lp39
S'root'
p40
aS'0'
aS'2'
aa(lp41
S'neg'
p42
aS'2'
aS'3'
aa(lp43
S'amod'
p44
aS'2'
aS'4'
aa(lp45
S'nn'
p46
aS'7'
aS'6'
aa(lp47
S'prep_in'
p48
aS'4'
aS'7'
aasS'srls'
p49
(lp50
sS'pos_seq'
p51
(lp52
S'NNP'
p53
aS'NNP'
p54
aS'RB'
p55
aS'JJ'
p56
aS'IN'
p57
aS'NNP'
p58
aS'NN'
p59
asS'ner_seq'
p60
(lp61
S'O'
aS'O'
aS'O'
aS'O'
aS'O'
aS'O'
aS'O'
assb.