ccopy_reg
_reconstructor
p1
(c__main__
KBproperty
p2
c__builtin__
object
p3
NtRp4
(dp5
S'comment'
p6
S''
sS'domain'
p7
S'Wine Region '
p8
sS'instances_count'
p9
S'43'
p10
sS'label'
p11
S'wine produced'
p12
sS'range'
p13
S''
sS'prop_uri'
p14
S"'http://dbpedia.org/ontology/wineProduced'"
p15
sS'annotations'
p16
(dp17
S'bag_of_words'
p18
(lp19
S'Wine'
p20
aS'Region'
p21
aS'wine'
p22
aS'produced'
p23
asS'chunk_seq'
p24
(lp25
S'B-NP'
p26
aS'I-NP'
p27
aS'E-NP'
p28
aS'S-VP'
p29
asS'dep_seq'
p30
(lp31
(lp32
S'nn'
p33
aS'3'
aS'1'
aa(lp34
S'nn'
p35
aS'3'
aS'2'
aa(lp36
S'root'
p37
aS'0'
aS'3'
aa(lp38
S'amod'
p39
aS'3'
aS'4'
aasS'srls'
p40
(lp41
sS'pos_seq'
p42
(lp43
S'NNP'
p44
aS'NNP'
p45
aS'NN'
p46
aS'VBN'
p47
asS'ner_seq'
p48
(lp49
S'B-MISC'
p50
aS'E-MISC'
p51
aS'O'
aS'O'
assb.