ccopy_reg
_reconstructor
p1
(c__main__
KBproperty
p2
c__builtin__
object
p3
NtRp4
(dp5
S'comment'
p6
S'apoapsis \\xce\\xbc'
p7
sS'domain'
p8
S'Celestial Body '
p9
sS'instances_count'
p10
S'3018'
p11
sS'label'
p12
g7
sS'range'
p13
S'double '
p14
sS'prop_uri'
p15
S"'http://dbpedia.org/ontology/apoapsis'"
p16
sS'annotations'
p17
(dp18
S'bag_of_words'
p19
(lp20
S'Celestial'
p21
aS'Body'
p22
aS'apoapsis'
p23
aS'double'
p24
aS'apoapsis'
p25
aS'\\'
aS'xce'
p26
aS'\\'
aS'xbc'
p27
asS'chunk_seq'
p28
(lp29
S'B-NP'
p30
aS'E-NP'
p31
aS'S-NP'
p32
aS'S-VP'
p33
aS'O'
aS'O'
aS'O'
aS'O'
aS'O'
asS'dep_seq'
p34
(lp35
(lp36
S'amod'
p37
aS'2'
aS'1'
aa(lp38
S'nsubj'
p39
aS'9'
aS'2'
aa(lp40
S'dep'
p41
aS'9'
aS'3'
aa(lp42
S'nn'
p43
aS'9'
aS'4'
aa(lp44
S'nn'
p45
aS'9'
aS'5'
aa(lp46
S'nn'
p47
aS'9'
aS'6'
aa(lp48
S'nn'
p49
aS'9'
aS'7'
aa(lp50
S'nn'
p51
aS'9'
aS'8'
aa(lp52
S'root'
p53
aS'0'
aS'9'
aasS'srls'
p54
(lp55
sS'pos_seq'
p56
(lp57
S'JJ'
p58
aS'NN'
p59
aS'FW'
p60
aS'FW'
p61
aS'FW'
p62
aS'FW'
p63
aS'FW'
p64
aS'FW'
p65
aS'FW'
p66
asS'ner_seq'
p67
(lp68
S'O'
aS'O'
aS'O'
aS'O'
aS'O'
aS'O'
aS'O'
aS'O'
aS'O'
assb.