ccopy_reg
_reconstructor
p1
(c__main__
KBproperty
p2
c__builtin__
object
p3
NtRp4
(dp5
S'comment'
p6
S'wins at Senior Euro'
p7
sS'domain'
p8
S'Golf Player '
p9
sS'instances_count'
p10
S'0'
sS'label'
p11
g7
sS'range'
p12
S''
sS'prop_uri'
p13
S"'http://dbpedia.org/ontology/winsAtSenEuro'"
p14
sS'annotations'
p15
(dp16
S'bag_of_words'
p17
(lp18
S'Golf'
p19
aS'Player'
p20
aS'wins'
p21
aS'At'
p22
aS'Sen'
p23
aS'Euro'
p24
aS'wins'
p25
aS'at'
p26
aS'Senior'
p27
aS'Euro'
p28
asS'chunk_seq'
p29
(lp30
S'B-NP'
p31
aS'E-NP'
p32
aS'S-VP'
p33
aS'S-PP'
p34
aS'B-NP'
p35
aS'E-NP'
p36
aS'S-VP'
p37
aS'S-PP'
p38
aS'B-NP'
p39
aS'E-NP'
p40
asS'dep_seq'
p41
(lp42
(lp43
S'nn'
p44
aS'2'
aS'1'
aa(lp45
S'nsubj'
p46
aS'3'
aS'2'
aa(lp47
S'root'
p48
aS'0'
aS'3'
aa(lp49
S'nn'
p50
aS'6'
aS'5'
aa(lp51
S'prep_at'
p52
aS'3'
aS'6'
aa(lp53
S'dep'
p54
aS'3'
aS'7'
aa(lp55
S'nn'
p56
aS'10'
p57
aS'9'
aa(lp58
S'prep_at'
p59
aS'7'
aS'10'
p60
aasS'srls'
p61
(lp62
(dp63
S'A1'
p64
S'At Sen Euro'
p65
sS'A0'
p66
S'Golf Player'
p67
sS'V'
g21
sa(dp68
S'A0'
p69
g24
sS'AM-LOC'
p70
S'at Senior Euro'
p71
sS'V'
g25
sasS'pos_seq'
p72
(lp73
S'NNP'
p74
aS'NNP'
p75
aS'VBZ'
p76
aS'IN'
p77
aS'NNP'
p78
aS'NNP'
p79
aS'VBZ'
p80
aS'IN'
p81
aS'NNP'
p82
aS'NNP'
p83
asS'ner_seq'
p84
(lp85
S'B-ORG'
p86
aS'E-ORG'
p87
aS'O'
aS'O'
aS'B-LOC'
p88
aS'E-LOC'
p89
aS'O'
aS'O'
aS'B-MISC'
p90
aS'E-MISC'
p91
assb.