ccopy_reg
_reconstructor
p1
(c__main__
KBproperty
p2
c__builtin__
object
p3
NtRp4
(dp5
S'comment'
p6
S"Refers to the famous 1918 edition of Gray's Anatomy."
p7
sS'domain'
p8
S'Anatomical Structure '
p9
sS'instances_count'
p10
S'2835'
p11
sS'label'
p12
S'Gray page'
p13
sS'range'
p14
S'positive Integer '
p15
sS'prop_uri'
p16
S"'http://dbpedia.org/ontology/grayPage'"
p17
sS'annotations'
p18
(dp19
S'bag_of_words'
p20
(lp21
S'Anatomical'
p22
aS'Structure'
p23
aS'Gray'
p24
aS'page'
p25
aS'positive'
p26
aS'Integer'
p27
aS'Refers'
p28
aS'to'
p29
aS'the'
p30
aS'famous'
p31
aS'1918'
p32
aS'edition'
p33
aS'of'
p34
aS'Gray'
p35
aS"'s"
p36
aS'Anatomy'
p37
aS'.'
asS'chunk_seq'
p38
(lp39
S'B-NP'
p40
aS'I-NP'
p41
aS'I-NP'
p42
aS'I-NP'
p43
aS'I-NP'
p44
aS'I-NP'
p45
aS'E-NP'
p46
aS'S-PP'
p47
aS'B-NP'
p48
aS'I-NP'
p49
aS'I-NP'
p50
aS'E-NP'
p51
aS'S-PP'
p52
aS'S-NP'
p53
aS'B-NP'
p54
aS'E-NP'
p55
aS'O'
asS'dep_seq'
p56
(lp57
(lp58
S'nn'
p59
aS'3'
aS'1'
aa(lp60
S'nn'
p61
aS'3'
aS'2'
aa(lp62
S'nsubj'
p63
aS'4'
aS'3'
aa(lp64
S'root'
p65
aS'0'
aS'4'
aa(lp66
S'amod'
p67
aS'7'
aS'5'
aa(lp68
S'nn'
p69
aS'7'
aS'6'
aa(lp70
S'dobj'
p71
aS'4'
aS'7'
aa(lp72
S'det'
p73
aS'12'
p74
aS'9'
aa(lp75
S'amod'
p76
aS'12'
p77
aS'10'
p78
aa(lp79
S'num'
p80
aS'12'
p81
aS'11'
p82
aa(lp83
S'prep_to'
p84
aS'4'
aS'12'
p85
aa(lp86
S'poss'
p87
aS'16'
p88
aS'14'
p89
aa(lp90
S'prep_of'
p91
aS'12'
p92
aS'16'
p93
aasS'srls'
p94
(lp95
sS'pos_seq'
p96
(lp97
S'NNP'
p98
aS'NNP'
p99
aS'NNP'
p100
aS'VBP'
p101
aS'JJ'
p102
aS'NNP'
p103
aS'NNP'
p104
aS'TO'
p105
aS'DT'
p106
aS'JJ'
p107
aS'CD'
p108
aS'NN'
p109
aS'IN'
p110
aS'NNP'
p111
aS'POS'
p112
aS'NNP'
p113
aS'.'
asS'ner_seq'
p114
(lp115
S'O'
aS'O'
aS'O'
aS'O'
aS'O'
aS'O'
aS'O'
aS'O'
aS'O'
aS'O'
aS'O'
aS'O'
aS'O'
aS'B-MISC'
p116
aS'I-MISC'
p117
aS'E-MISC'
p118
aS'O'
assb.