ccopy_reg
_reconstructor
p1
(c__main__
KBproperty
p2
c__builtin__
object
p3
NtRp4
(dp5
S'comment'
p6
S''
sS'domain'
p7
S'Ice Hockey Player '
p8
sS'instances_count'
p9
S'14017'
p10
sS'label'
p11
S'shoots'
p12
sS'range'
p13
S'string '
p14
sS'prop_uri'
p15
S"'http://dbpedia.org/ontology/shoots'"
p16
sS'annotations'
p17
(dp18
S'bag_of_words'
p19
(lp20
S'Ice'
p21
aS'Hockey'
p22
aS'Player'
p23
aS'shoots'
p24
aS'string'
p25
asS'chunk_seq'
p26
(lp27
S'B-NP'
p28
aS'I-NP'
p29
aS'E-NP'
p30
aS'S-VP'
p31
aS'S-NP'
p32
asS'dep_seq'
p33
(lp34
(lp35
S'nn'
p36
aS'3'
aS'1'
aa(lp37
S'nn'
p38
aS'3'
aS'2'
aa(lp39
S'nsubj'
p40
aS'4'
aS'3'
aa(lp41
S'root'
p42
aS'0'
aS'4'
aa(lp43
S'dobj'
p44
aS'4'
aS'5'
aasS'srls'
p45
(lp46
(dp47
S'A1'
p48
g25
sS'A0'
p49
S'Ice Hockey Player'
p50
sS'V'
g24
sasS'pos_seq'
p51
(lp52
S'NNP'
p53
aS'NNP'
p54
aS'NNP'
p55
aS'VBZ'
p56
aS'NN'
p57
asS'ner_seq'
p58
(lp59
S'B-MISC'
p60
aS'I-MISC'
p61
aS'E-MISC'
p62
aS'O'
aS'O'
assb.