ccopy_reg
_reconstructor
p1
(c__main__
KBproperty
p2
c__builtin__
object
p3
NtRp4
(dp5
S'comment'
p6
S''
sS'domain'
p7
S''
sS'instances_count'
p8
S'1611'
p9
sS'label'
p10
S'H\\xc3\\xb6he'
p11
sS'range'
p12
S''
sS'prop_uri'
p13
S"'http://dbpedia.org/property/h\\xc3\\xb6he'"
p14
sS'annotations'
p15
(dp16
S'bag_of_words'
p17
(lp18
S'H'
aS'\\'
aS'xc3'
p19
aS'\\'
aS'xb6he'
p20
asS'chunk_seq'
p21
(lp22
S'S-NP'
p23
aS'O'
aS'O'
aS'O'
aS'O'
asS'dep_seq'
p24
(lp25
(lp26
S'root'
p27
aS'0'
aS'1'
aa(lp28
S'nn'
p29
aS'1'
aS'2'
aa(lp30
S'nn'
p31
aS'1'
aS'3'
aa(lp32
S'nn'
p33
aS'1'
aS'4'
aa(lp34
S'dep'
p35
aS'1'
aS'5'
aasS'srls'
p36
(lp37
sS'pos_seq'
p38
(lp39
S'NNP'
p40
aS'FW'
p41
aS'FW'
p42
aS'FW'
p43
aS'FW'
p44
asS'ner_seq'
p45
(lp46
S'O'
aS'O'
aS'O'
aS'O'
aS'O'
assb.