ccopy_reg
_reconstructor
p1
(c__main__
KBproperty
p2
c__builtin__
object
p3
NtRp4
(dp5
S'comment'
p6
S'An identifying system for scientific authors. The system was introduced in January 2008 by Thomson Reuters. The combined use of the Digital Object Identifier with the ResearcherID allows for a unique association of authors and scientific articles.'
p7
sS'domain'
p8
S''
sS'instances_count'
p9
S'0'
sS'label'
p10
S'RID Id'
p11
sS'range'
p12
S'string '
p13
sS'prop_uri'
p14
S"'http://dbpedia.org/ontology/ridId'"
p15
sS'annotations'
p16
(dp17
S'bag_of_words'
p18
(lp19
S'RID'
p20
aS'Id'
p21
aS'string'
p22
aS'An'
p23
aS'identifying'
p24
aS'system'
p25
aS'for'
p26
aS'scientific'
p27
aS'authors'
p28
aS'.'
aS'The'
p29
aS'system'
p30
aS'was'
p31
aS'introduced'
p32
aS'in'
p33
aS'January'
p34
aS'2008'
p35
aS'by'
p36
aS'Thomson'
p37
aS'Reuters'
p38
aS'.'
aS'The'
p39
aS'combined'
p40
aS'use'
p41
aS'of'
p42
aS'the'
p43
aS'Digital'
p44
aS'Object'
p45
aS'Identifier'
p46
aS'with'
p47
aS'the'
p48
aS'ResearcherID'
p49
aS'allows'
p50
aS'for'
p51
aS'a'
aS'unique'
p52
aS'association'
p53
aS'of'
p54
aS'authors'
p55
aS'and'
p56
aS'scientific'
p57
aS'articles'
p58
aS'.'
asS'chunk_seq'
p59
(lp60
S'S-VP'
p61
aS'B-NP'
p62
aS'E-NP'
p63
aS'B-NP'
p64
aS'I-NP'
p65
aS'E-NP'
p66
aS'S-PP'
p67
aS'B-NP'
p68
aS'E-NP'
p69
aS'O'
aS'B-NP'
p70
aS'E-NP'
p71
aS'B-VP'
p72
aS'E-VP'
p73
aS'S-PP'
p74
aS'B-NP'
p75
aS'E-NP'
p76
aS'S-PP'
p77
aS'B-NP'
p78
aS'E-NP'
p79
aS'O'
aS'B-NP'
p80
aS'I-NP'
p81
aS'E-NP'
p82
aS'S-PP'
p83
aS'B-NP'
p84
aS'I-NP'
p85
aS'I-NP'
p86
aS'E-NP'
p87
aS'S-PP'
p88
aS'B-NP'
p89
aS'E-NP'
p90
aS'S-VP'
p91
aS'S-PP'
p92
aS'B-NP'
p93
aS'I-NP'
p94
aS'E-NP'
p95
aS'S-PP'
p96
aS'S-NP'
p97
aS'O'
aS'B-NP'
p98
aS'E-NP'
p99
aS'O'
asS'dep_seq'
p100
(lp101
(lp102
S'root'
p103
aS'0'
aS'1'
aa(lp104
S'nn'
p105
aS'3'
aS'2'
aa(lp106
S'iobj'
p107
aS'1'
aS'3'
aa(lp108
S'det'
p109
aS'6'
aS'4'
aa(lp110
S'amod'
p111
aS'6'
aS'5'
aa(lp112
S'dobj'
p113
aS'1'
aS'6'
aa(lp114
S'amod'
p115
aS'9'
aS'8'
aa(lp116
S'prep_for'
p117
aS'6'
aS'9'
aa(lp118
S'det'
p119
aS'12'
p120
aS'11'
p121
aa(lp122
S'nsubj'
p123
aS'1'
aS'12'
p124
aa(lp125
S'dep'
p126
aS'1'
aS'13'
p127
aa(lp128
S'dep'
p129
aS'1'
aS'14'
p130
aa(lp131
S'prep_in'
p132
aS'1'
aS'16'
p133
aa(lp134
S'num'
p135
aS'16'
p136
aS'17'
p137
aa(lp138
S'dep'
p139
aS'1'
aS'18'
p140
aa(lp141
S'nn'
p142
aS'20'
p143
aS'19'
p144
aa(lp145
S'nsubj'
p146
aS'1'
aS'20'
p147
aa(lp148
S'det'
p149
aS'24'
p150
aS'22'
p151
aa(lp152
S'amod'
p153
aS'24'
p154
aS'23'
p155
aa(lp156
S'nsubj'
p157
aS'1'
aS'24'
p158
aa(lp159
S'det'
p160
aS'29'
p161
aS'26'
p162
aa(lp163
S'nn'
p164
aS'29'
p165
aS'27'
p166
aa(lp167
S'nn'
p168
aS'29'
p169
aS'28'
p170
aa(lp171
S'prep_of'
p172
aS'24'
p173
aS'29'
p174
aa(lp175
S'det'
p176
aS'32'
p177
aS'31'
p178
aa(lp179
S'prep_with'
p180
aS'24'
p181
aS'32'
p182
aa(lp183
S'dep'
p184
aS'1'
aS'33'
p185
aa(lp186
S'det'
p187
aS'37'
p188
aS'35'
p189
aa(lp190
S'amod'
p191
aS'37'
p192
aS'36'
p193
aa(lp194
S'prep_for'
p195
aS'33'
p196
aS'37'
p197
aa(lp198
S'prep_of'
p199
aS'37'
p200
aS'39'
p201
aa(lp202
S'amod'
p203
aS'42'
p204
aS'41'
p205
aa(lp206
S'conj_and'
p207
aS'39'
p208
aS'42'
p209
aasS'srls'
p210
(lp211
(dp212
S'A1'
p213
S'Id string An identifying system for scientific authors'
p214
sS'V'
g20
sa(dp215
S'A0'
p216
g25
sS'V'
g24
sa(dp217
S'A1'
p218
S'The system'
p219
sS'A0'
p220
S'by Thomson Reuters'
p221
sS'AM-TMP'
p222
S'in January 2008'
p223
sS'V'
g32
sa(dp224
S'A3'
p225
g41
sS'V'
g40
sa(dp226
S'A1'
p227
S'for a unique association of authors and scientific articles'
p228
sS'A0'
p229
S'the ResearcherID'
p230
sS'V'
g50
sasS'pos_seq'
p231
(lp232
S'VB'
p233
aS'NN'
p234
aS'NN'
p235
aS'DT'
p236
aS'VBG'
p237
aS'NN'
p238
aS'IN'
p239
aS'JJ'
p240
aS'NNS'
p241
aS'.'
aS'DT'
p242
aS'NN'
p243
aS'VBD'
p244
aS'VBN'
p245
aS'IN'
p246
aS'NNP'
p247
aS'CD'
p248
aS'IN'
p249
aS'NNP'
p250
aS'NNP'
p251
aS'.'
aS'DT'
p252
aS'JJ'
p253
aS'NN'
p254
aS'IN'
p255
aS'DT'
p256
aS'NNP'
p257
aS'NNP'
p258
aS'NNP'
p259
aS'IN'
p260
aS'DT'
p261
aS'NNP'
p262
aS'VBZ'
p263
aS'IN'
p264
aS'DT'
p265
aS'JJ'
p266
aS'NN'
p267
aS'IN'
p268
aS'NNS'
p269
aS'CC'
p270
aS'JJ'
p271
aS'NNS'
p272
aS'.'
asS'ner_seq'
p273
(lp274
S'O'
aS'O'
aS'O'
aS'O'
aS'O'
aS'O'
aS'O'
aS'O'
aS'O'
aS'O'
aS'O'
aS'O'
aS'O'
aS'O'
aS'O'
aS'O'
aS'O'
aS'O'
aS'B-ORG'
p275
aS'E-ORG'
p276
aS'O'
aS'O'
aS'O'
aS'O'
aS'O'
aS'O'
aS'B-MISC'
p277
aS'I-MISC'
p278
aS'E-MISC'
p279
aS'O'
aS'O'
aS'S-MISC'
p280
aS'O'
aS'O'
aS'O'
aS'O'
aS'O'
aS'O'
aS'O'
aS'O'
aS'O'
aS'O'
aS'O'
assb.