ccopy_reg
_reconstructor
p1
(c__main__
KBproperty
p2
c__builtin__
object
p3
NtRp4
(dp5
S'comment'
p6
S'A call sign is not the name of a broadcaster! In broadcasting and radio communications a call sign also known as a call name or call letters or abbreviated as a call is a unique designation for a transmitting station.'
p7
sS'domain'
p8
S''
sS'instances_count'
p9
S'3685'
p10
sS'label'
p11
S'call sign'
p12
sS'range'
p13
S'string '
p14
sS'prop_uri'
p15
S"'http://dbpedia.org/ontology/callSign'"
p16
sS'annotations'
p17
(dp18
S'bag_of_words'
p19
(lp20
S'call'
p21
aS'sign'
p22
aS'string'
p23
aS'A'
aS'call'
p24
aS'sign'
p25
aS'is'
p26
aS'not'
p27
aS'the'
p28
aS'name'
p29
aS'of'
p30
aS'a'
aS'broadcaster'
p31
aS'!'
aS'In'
p32
aS'broadcasting'
p33
aS'and'
p34
aS'radio'
p35
aS'communications'
p36
aS'a'
aS'call'
p37
aS'sign'
p38
aS'also'
p39
aS'known'
p40
aS'as'
p41
aS'a'
aS'call'
p42
aS'name'
p43
aS'or'
p44
aS'call'
p45
aS'letters'
p46
aS'or'
p47
aS'abbreviated'
p48
aS'as'
p49
aS'a'
aS'call'
p50
aS'is'
p51
aS'a'
aS'unique'
p52
aS'designation'
p53
aS'for'
p54
aS'a'
aS'transmitting'
p55
aS'station'
p56
aS'.'
asS'chunk_seq'
p57
(lp58
S'B-NP'
p59
aS'I-NP'
p60
aS'E-NP'
p61
aS'B-NP'
p62
aS'I-NP'
p63
aS'E-NP'
p64
aS'S-VP'
p65
aS'O'
aS'B-NP'
p66
aS'E-NP'
p67
aS'S-PP'
p68
aS'B-NP'
p69
aS'E-NP'
p70
aS'O'
aS'S-PP'
p71
aS'S-NP'
p72
aS'O'
aS'B-NP'
p73
aS'E-NP'
p74
aS'B-NP'
p75
aS'I-NP'
p76
aS'E-NP'
p77
aS'S-ADVP'
p78
aS'S-VP'
p79
aS'S-PP'
p80
aS'B-NP'
p81
aS'I-NP'
p82
aS'E-NP'
p83
aS'O'
aS'S-VP'
p84
aS'S-NP'
p85
aS'O'
aS'S-VP'
p86
aS'S-PP'
p87
aS'B-NP'
p88
aS'E-NP'
p89
aS'S-VP'
p90
aS'B-NP'
p91
aS'I-NP'
p92
aS'E-NP'
p93
aS'S-PP'
p94
aS'B-NP'
p95
aS'I-NP'
p96
aS'E-NP'
p97
aS'O'
asS'dep_seq'
p98
(lp99
(lp100
S'amod'
p101
aS'6'
aS'1'
aa(lp102
S'nn'
p103
aS'6'
aS'2'
aa(lp104
S'nn'
p105
aS'6'
aS'3'
aa(lp106
S'det'
p107
aS'6'
aS'4'
aa(lp108
S'nn'
p109
aS'6'
aS'5'
aa(lp110
S'csubj'
p111
aS'10'
p112
aS'6'
aa(lp113
S'cop'
p114
aS'10'
p115
aS'7'
aa(lp116
S'neg'
p117
aS'10'
p118
aS'8'
aa(lp119
S'det'
p120
aS'10'
p121
aS'9'
aa(lp122
S'root'
p123
aS'0'
aS'10'
p124
aa(lp125
S'det'
p126
aS'13'
p127
aS'12'
p128
aa(lp129
S'prep_of'
p130
aS'10'
p131
aS'13'
p132
aa(lp133
S'prep_in'
p134
aS'10'
p135
aS'16'
p136
aa(lp137
S'nn'
p138
aS'19'
p139
aS'18'
p140
aa(lp141
S'conj_and'
p142
aS'16'
p143
aS'19'
p144
aa(lp145
S'det'
p146
aS'22'
p147
aS'20'
p148
aa(lp149
S'nn'
p150
aS'22'
p151
aS'21'
p152
aa(lp153
S'dep'
p154
aS'10'
p155
aS'22'
p156
aa(lp157
S'advmod'
p158
aS'24'
p159
aS'23'
p160
aa(lp161
S'dep'
p162
aS'22'
p163
aS'24'
p164
aa(lp165
S'det'
p166
aS'28'
p167
aS'26'
p168
aa(lp169
S'nn'
p170
aS'28'
p171
aS'27'
p172
aa(lp173
S'prep_as'
p174
aS'24'
p175
aS'28'
p176
aa(lp177
S'conj_or'
p178
aS'24'
p179
aS'30'
p180
aa(lp181
S'dobj'
p182
aS'30'
p183
aS'31'
p184
aa(lp185
S'conj_or'
p186
aS'24'
p187
aS'33'
p188
aa(lp189
S'det'
p190
aS'36'
p191
aS'35'
p192
aa(lp193
S'prep_as'
p194
aS'33'
p195
aS'36'
p196
aa(lp197
S'cop'
p198
aS'40'
p199
aS'37'
p200
aa(lp201
S'det'
p202
aS'40'
p203
aS'38'
p204
aa(lp205
S'amod'
p206
aS'40'
p207
aS'39'
p208
aa(lp209
S'dep'
p210
aS'10'
p211
aS'40'
p212
aa(lp213
S'det'
p214
aS'44'
p215
aS'42'
p216
aa(lp217
S'amod'
p218
aS'44'
p219
aS'43'
p220
aa(lp221
S'prep_for'
p222
aS'40'
p223
aS'44'
p224
aasS'srls'
p225
(lp226
(dp227
S'A1'
p228
S'a call sign'
p229
sS'AM-DIS'
p230
g39
sS'A2'
p231
S'as a call name'
p232
sS'V'
g40
sa(dp233
S'A1'
p234
g46
sS'V'
g45
sa(dp235
S'A2'
p236
S'as a call'
p237
sS'V'
g48
sa(dp238
S'A0'
p239
g56
sS'V'
g55
sasS'pos_seq'
p240
(lp241
S'JJ'
p242
aS'NN'
p243
aS'NN'
p244
aS'DT'
p245
aS'NN'
p246
aS'NN'
p247
aS'VBZ'
p248
aS'RB'
p249
aS'DT'
p250
aS'NN'
p251
aS'IN'
p252
aS'DT'
p253
aS'NN'
p254
aS'.'
aS'IN'
p255
aS'NN'
p256
aS'CC'
p257
aS'NN'
p258
aS'NNS'
p259
aS'DT'
p260
aS'NN'
p261
aS'NN'
p262
aS'RB'
p263
aS'VBN'
p264
aS'IN'
p265
aS'DT'
p266
aS'NN'
p267
aS'NN'
p268
aS'CC'
p269
aS'VB'
p270
aS'NNS'
p271
aS'CC'
p272
aS'VBN'
p273
aS'IN'
p274
aS'DT'
p275
aS'NN'
p276
aS'VBZ'
p277
aS'DT'
p278
aS'JJ'
p279
aS'NN'
p280
aS'IN'
p281
aS'DT'
p282
aS'VBG'
p283
aS'NN'
p284
aS'.'
asS'ner_seq'
p285
(lp286
S'O'
aS'O'
aS'O'
aS'O'
aS'O'
aS'O'
aS'O'
aS'O'
aS'O'
aS'O'
aS'O'
aS'O'
aS'O'
aS'O'
aS'O'
aS'O'
aS'O'
aS'O'
aS'O'
aS'O'
aS'O'
aS'O'
aS'O'
aS'O'
aS'O'
aS'O'
aS'O'
aS'O'
aS'O'
aS'O'
aS'O'
aS'O'
aS'O'
aS'O'
aS'O'
aS'O'
aS'O'
aS'O'
aS'O'
aS'O'
aS'O'
aS'O'
aS'O'
aS'O'
aS'O'
assb.