ccopy_reg
_reconstructor
p1
(c__main__
KBproperty
p2
c__builtin__
object
p3
NtRp4
(dp5
S'comment'
p6
S'http://dbpedia.org/ontology/Diocese'
p7
sS'domain'
p8
S'Parish '
p9
sS'instances_count'
p10
S'0'
sS'label'
p11
g7
sS'range'
p12
S'Deanery '
p13
sS'prop_uri'
p14
S"'http://dbpedia.org/ontology/diocese'"
p15
sS'annotations'
p16
(dp17
S'bag_of_words'
p18
(lp19
S'Parish'
p20
aS'diocese'
p21
aS'Deanery'
p22
aS'http'
p23
aS':'
aS'//'
p24
aS'dbpedia'
p25
aS'.org'
p26
aS'/'
aS'ontology'
p27
aS'/'
aS'Diocese'
p28
asS'chunk_seq'
p29
(lp30
S'B-NP'
p31
aS'I-NP'
p32
aS'I-NP'
p33
aS'E-NP'
p34
aS'O'
aS'O'
aS'O'
aS'O'
aS'O'
aS'O'
aS'O'
aS'O'
asS'dep_seq'
p35
(lp36
(lp37
S'nn'
p38
aS'4'
aS'1'
aa(lp39
S'nn'
p40
aS'4'
aS'2'
aa(lp41
S'nn'
p42
aS'4'
aS'3'
aa(lp43
S'root'
p44
aS'0'
aS'4'
aa(lp45
S'nn'
p46
aS'10'
p47
aS'6'
aa(lp48
S'nn'
p49
aS'10'
p50
aS'7'
aa(lp51
S'nn'
p52
aS'10'
p53
aS'8'
aa(lp54
S'dep'
p55
aS'10'
p56
aS'9'
aa(lp57
S'dep'
p58
aS'4'
aS'10'
p59
aa(lp60
S'prep'
p61
aS'10'
p62
aS'11'
p63
aa(lp64
S'pobj'
p65
aS'11'
p66
aS'12'
p67
aasS'srls'
p68
(lp69
sS'pos_seq'
p70
(lp71
S'NN'
p72
aS'NN'
p73
aS'NNP'
p74
aS'NN'
p75
aS':'
aS'FW'
p76
aS'FW'
p77
aS'FW'
p78
aS'FW'
p79
aS'FW'
p80
aS'FW'
p81
aS'NNP'
p82
asS'ner_seq'
p83
(lp84
S'B-LOC'
p85
aS'I-LOC'
p86
aS'E-LOC'
p87
aS'O'
aS'O'
aS'O'
aS'O'
aS'O'
aS'O'
aS'O'
aS'O'
aS'O'
assb.