ccopy_reg
_reconstructor
p1
(c__main__
KBproperty
p2
c__builtin__
object
p3
NtRp4
(dp5
S'comment'
p6
S''
sS'domain'
p7
S''
sS'instances_count'
p8
S'99'
p9
sS'label'
p10
S'area urban sq mi'
p11
sS'range'
p12
S''
sS'prop_uri'
p13
S"'http://dbpedia.org/property/areaUrbanSqMi'"
p14
sS'annotations'
p15
(dp16
S'bag_of_words'
p17
(lp18
S'area'
p19
aS'urban'
p20
aS'sq'
p21
aS'mi'
p22
asS'chunk_seq'
p23
(lp24
S'B-NP'
p25
aS'I-NP'
p26
aS'E-NP'
p27
aS'O'
asS'dep_seq'
p28
(lp29
(lp30
S'root'
p31
aS'0'
aS'1'
aa(lp32
S'amod'
p33
aS'1'
aS'2'
aa(lp34
S'dep'
p35
aS'1'
aS'3'
aa(lp36
S'punct'
p37
aS'3'
aS'4'
aasS'srls'
p38
(lp39
sS'pos_seq'
p40
(lp41
S'NN'
p42
aS'JJ'
p43
aS'CD'
p44
aS'.'
asS'ner_seq'
p45
(lp46
S'O'
aS'O'
aS'O'
aS'O'
assb.