ccopy_reg
_reconstructor
p1
(c__main__
KBproperty
p2
c__builtin__
object
p3
NtRp4
(dp5
S'comment'
p6
S''
sS'domain'
p7
S''
sS'instances_count'
p8
S'28'
p9
sS'label'
p10
S'secondPopularVote'
p11
sS'range'
p12
S'Person '
p13
sS'prop_uri'
p14
S"'http://dbpedia.org/ontology/secondPopularVote'"
p15
sS'annotations'
p16
(dp17
S'bag_of_words'
p18
(lp19
S'secondPopularVote'
p20
aS'Person'
p21
asS'chunk_seq'
p22
(lp23
S'B-NP'
p24
aS'E-NP'
p25
asS'dep_seq'
p26
(lp27
(lp28
S'amod'
p29
aS'2'
aS'1'
aa(lp30
S'root'
p31
aS'0'
aS'2'
aasS'srls'
p32
(lp33
sS'pos_seq'
p34
(lp35
S'JJ'
p36
aS'NN'
p37
asS'ner_seq'
p38
(lp39
S'O'
aS'O'
assb.