ccopy_reg
_reconstructor
p1
(c__main__
KBproperty
p2
c__builtin__
object
p3
NtRp4
(dp5
S'comment'
p6
S'can be used to include more informations e.g. the name of the artist that a tribute album is in honor of'
p7
sS'domain'
p8
S'Album '
p9
sS'instances_count'
p10
S'1779'
p11
sS'label'
p12
S'longtype'
p13
sS'range'
p14
S'string '
p15
sS'prop_uri'
p16
S"'http://dbpedia.org/ontology/longtype'"
p17
sS'annotations'
p18
(dp19
S'bag_of_words'
p20
(lp21
S'Album'
p22
aS'longtype'
p23
aS'string'
p24
aS'can'
p25
aS'be'
p26
aS'used'
p27
aS'to'
p28
aS'include'
p29
aS'more'
p30
aS'informations'
p31
aS'e.g.'
p32
aS'the'
p33
aS'name'
p34
aS'of'
p35
aS'the'
p36
aS'artist'
p37
aS'that'
p38
aS'a'
aS'tribute'
p39
aS'album'
p40
aS'is'
p41
aS'in'
p42
aS'honor'
p43
aS'of'
p44
asS'chunk_seq'
p45
(lp46
S'B-NP'
p47
aS'I-NP'
p48
aS'E-NP'
p49
aS'B-VP'
p50
aS'I-VP'
p51
aS'E-VP'
p52
aS'B-VP'
p53
aS'E-VP'
p54
aS'B-NP'
p55
aS'E-NP'
p56
aS'S-PP'
p57
aS'B-NP'
p58
aS'E-NP'
p59
aS'S-PP'
p60
aS'B-NP'
p61
aS'E-NP'
p62
aS'S-SBAR'
p63
aS'B-NP'
p64
aS'I-NP'
p65
aS'E-NP'
p66
aS'S-VP'
p67
aS'S-PP'
p68
aS'S-NP'
p69
aS'S-PP'
p70
asS'dep_seq'
p71
(lp72
(lp73
S'nn'
p74
aS'3'
aS'1'
aa(lp75
S'amod'
p76
aS'3'
aS'2'
aa(lp77
S'nsubjpass'
p78
aS'6'
aS'3'
aa(lp79
S'xsubj'
p80
aS'8'
aS'3'
aa(lp81
S'aux'
p82
aS'6'
aS'4'
aa(lp83
S'auxpass'
p84
aS'6'
aS'5'
aa(lp85
S'root'
p86
aS'0'
aS'6'
aa(lp87
S'aux'
p88
aS'8'
aS'7'
aa(lp89
S'xcomp'
p90
aS'6'
aS'8'
aa(lp91
S'amod'
p92
aS'10'
p93
aS'9'
aa(lp94
S'dobj'
p95
aS'8'
aS'10'
p96
aa(lp97
S'det'
p98
aS'13'
p99
aS'12'
p100
aa(lp101
S'prep_e.g.'
p102
aS'10'
p103
aS'13'
p104
aa(lp105
S'det'
p106
aS'16'
p107
aS'15'
p108
aa(lp109
S'prep_of'
p110
aS'13'
p111
aS'16'
p112
aa(lp113
S'mark'
p114
aS'21'
p115
aS'17'
p116
aa(lp117
S'det'
p118
aS'20'
p119
aS'18'
p120
aa(lp121
S'nn'
p122
aS'20'
p123
aS'19'
p124
aa(lp125
S'nsubj'
p126
aS'21'
p127
aS'20'
p128
aa(lp129
S'dep'
p130
aS'10'
p131
aS'21'
p132
aa(lp133
S'prep_in'
p134
aS'21'
p135
aS'23'
p136
aa(lp137
S'prep'
p138
aS'21'
p139
aS'24'
p140
aasS'srls'
p141
(lp142
(dp143
S'A1'
p144
S'Album longtype string'
p145
sS'V'
g27
sS'A2'
p146
S'to include more informations e.g. the name of the artist that a tribute album is in honor of'
p147
sS'AM-MOD'
p148
g25
sa(dp149
S'A1'
p150
S'more informations e.g. the name of the artist that a tribute album is in honor of'
p151
sS'A2'
p152
S'Album longtype string'
p153
sS'V'
g29
sasS'pos_seq'
p154
(lp155
S'NN'
p156
aS'JJ'
p157
aS'NN'
p158
aS'MD'
p159
aS'VB'
p160
aS'VBN'
p161
aS'TO'
p162
aS'VB'
p163
aS'JJR'
p164
aS'NNS'
p165
aS'IN'
p166
aS'DT'
p167
aS'NN'
p168
aS'IN'
p169
aS'DT'
p170
aS'NN'
p171
aS'IN'
p172
aS'DT'
p173
aS'NN'
p174
aS'NN'
p175
aS'VBZ'
p176
aS'IN'
p177
aS'NN'
p178
aS'IN'
p179
asS'ner_seq'
p180
(lp181
S'O'
aS'O'
aS'O'
aS'O'
aS'O'
aS'O'
aS'O'
aS'O'
aS'O'
aS'O'
aS'O'
aS'O'
aS'O'
aS'O'
aS'O'
aS'O'
aS'O'
aS'O'
aS'O'
aS'O'
aS'O'
aS'O'
aS'O'
aS'O'
assb.