ccopy_reg
_reconstructor
p1
(c__main__
KBproperty
p2
c__builtin__
object
p3
NtRp4
(dp5
S'comment'
p6
S'Number of tracks of a railway or railway station.'
p7
sS'domain'
p8
S'Infrastructure '
p9
sS'instances_count'
p10
S'10766'
p11
sS'label'
p12
S'number of tracks'
p13
sS'range'
p14
S'non Negative Integer '
p15
sS'prop_uri'
p16
S"'http://dbpedia.org/ontology/numberOfTracks'"
p17
sS'annotations'
p18
(dp19
S'bag_of_words'
p20
(lp21
S'Infrastructure'
p22
aS'number'
p23
aS'of'
p24
aS'tracks'
p25
aS'non'
p26
aS'Negative'
p27
aS'Integer'
p28
aS'Number'
p29
aS'of'
p30
aS'tracks'
p31
aS'of'
p32
aS'a'
aS'railway'
p33
aS'or'
p34
aS'railway'
p35
aS'station'
p36
aS'.'
asS'chunk_seq'
p37
(lp38
S'B-NP'
p39
aS'E-NP'
p40
aS'S-PP'
p41
aS'S-NP'
p42
aS'B-NP'
p43
aS'I-NP'
p44
aS'I-NP'
p45
aS'E-NP'
p46
aS'S-PP'
p47
aS'S-NP'
p48
aS'S-PP'
p49
aS'B-NP'
p50
aS'I-NP'
p51
aS'I-NP'
p52
aS'I-NP'
p53
aS'E-NP'
p54
aS'O'
asS'dep_seq'
p55
(lp56
(lp57
S'nn'
p58
aS'2'
aS'1'
aa(lp59
S'root'
p60
aS'0'
aS'2'
aa(lp61
S'prep_of'
p62
aS'2'
aS'4'
aa(lp63
S'amod'
p64
aS'8'
aS'5'
aa(lp65
S'nn'
p66
aS'8'
aS'6'
aa(lp67
S'nn'
p68
aS'8'
aS'7'
aa(lp69
S'dep'
p70
aS'2'
aS'8'
aa(lp71
S'prep_of'
p72
aS'8'
aS'10'
p73
aa(lp74
S'det'
p75
aS'16'
p76
aS'12'
p77
aa(lp78
S'nn'
p79
aS'16'
p80
aS'13'
p81
aa(lp82
S'conj_or'
p83
aS'13'
p84
aS'15'
p85
aa(lp86
S'prep_of'
p87
aS'10'
p88
aS'16'
p89
aasS'srls'
p90
(lp91
sS'pos_seq'
p92
(lp93
S'NN'
p94
aS'NN'
p95
aS'IN'
p96
aS'NNS'
p97
aS'JJ'
p98
aS'NNP'
p99
aS'NNP'
p100
aS'NNP'
p101
aS'IN'
p102
aS'NNS'
p103
aS'IN'
p104
aS'DT'
p105
aS'NN'
p106
aS'CC'
p107
aS'NN'
p108
aS'NN'
p109
aS'.'
asS'ner_seq'
p110
(lp111
S'O'
aS'O'
aS'O'
aS'O'
aS'O'
aS'O'
aS'O'
aS'O'
aS'O'
aS'O'
aS'O'
aS'O'
aS'O'
aS'O'
aS'O'
aS'O'
aS'O'
assb.