ccopy_reg
_reconstructor
p1
(c__main__
KBproperty
p2
c__builtin__
object
p3
NtRp4
(dp5
S'comment'
p6
S'Rijksbureau voor Kunsthistorische Documentatie RKD artists database id.\\nhttp://rkd.nl/explore/artists/$1'
p7
sS'domain'
p8
S''
sS'instances_count'
p9
S'1'
sS'label'
p10
S'RKDartists id'
p11
sS'range'
p12
S'string '
p13
sS'prop_uri'
p14
S"'http://dbpedia.org/ontology/rkdArtistsId'"
p15
sS'annotations'
p16
(dp17
S'bag_of_words'
p18
(lp19
S'RKDartists'
p20
aS'id'
p21
aS'string'
p22
aS'Rijksbureau'
p23
aS'voor'
p24
aS'Kunsthistorische'
p25
aS'Documentatie'
p26
aS'RKD'
p27
aS'artists'
p28
aS'database'
p29
aS'id.'
p30
aS'\\'
aS'nhttp'
p31
aS':'
aS'//'
p32
aS'rkd'
p33
aS'.'
aS'nl'
p34
aS'/'
aS'explore'
p35
aS'/'
aS'artists'
p36
aS'/'
aS'$'
aS'1'
asS'chunk_seq'
p37
(lp38
S'B-NP'
p39
aS'I-NP'
p40
aS'I-NP'
p41
aS'I-NP'
p42
aS'I-NP'
p43
aS'I-NP'
p44
aS'I-NP'
p45
aS'I-NP'
p46
aS'I-NP'
p47
aS'E-NP'
p48
aS'O'
aS'O'
aS'O'
aS'O'
aS'B-NP'
p49
aS'E-NP'
p50
aS'O'
aS'O'
aS'O'
aS'O'
aS'O'
aS'S-NP'
p51
aS'O'
aS'B-NP'
p52
aS'E-NP'
p53
asS'dep_seq'
p54
(lp55
(lp56
S'nn'
p57
aS'10'
p58
aS'1'
aa(lp59
S'nn'
p60
aS'10'
p61
aS'2'
aa(lp62
S'nn'
p63
aS'10'
p64
aS'3'
aa(lp65
S'nn'
p66
aS'10'
p67
aS'4'
aa(lp68
S'nn'
p69
aS'10'
p70
aS'5'
aa(lp71
S'nn'
p72
aS'10'
p73
aS'6'
aa(lp74
S'nn'
p75
aS'10'
p76
aS'7'
aa(lp77
S'nn'
p78
aS'10'
p79
aS'8'
aa(lp80
S'nn'
p81
aS'10'
p82
aS'9'
aa(lp83
S'dep'
p84
aS'18'
p85
aS'10'
p86
aa(lp87
S'nn'
p88
aS'10'
p89
aS'11'
p90
aa(lp91
S'nn'
p92
aS'10'
p93
aS'12'
p94
aa(lp95
S'dep'
p96
aS'10'
p97
aS'13'
p98
aa(lp99
S'nn'
p100
aS'18'
p101
aS'15'
p102
aa(lp103
S'nn'
p104
aS'18'
p105
aS'16'
p106
aa(lp107
S'root'
p108
aS'0'
aS'18'
p109
aa(lp110
S'nn'
p111
aS'18'
p112
aS'19'
p113
aa(lp114
S'nn'
p115
aS'18'
p116
aS'20'
p117
aa(lp118
S'dep'
p119
aS'18'
p120
aS'21'
p121
aa(lp122
S'dep'
p123
aS'18'
p124
aS'22'
p125
aa(lp126
S'punct'
p127
aS'18'
p128
aS'23'
p129
aa(lp130
S'dep'
p131
aS'18'
p132
aS'24'
p133
aa(lp134
S'num'
p135
aS'24'
p136
aS'25'
p137
aasS'srls'
p138
(lp139
sS'pos_seq'
p140
(lp141
S'NNS'
p142
aS'NN'
p143
aS'NN'
p144
aS'NNP'
p145
aS'NNP'
p146
aS'NNP'
p147
aS'NNP'
p148
aS'NNP'
p149
aS'NNS'
p150
aS'NN'
p151
aS'FW'
p152
aS'FW'
p153
aS'FW'
p154
aS'FW'
p155
aS'FW'
p156
aS'FW'
p157
aS'FW'
p158
aS'FW'
p159
aS'FW'
p160
aS'FW'
p161
aS'FW'
p162
aS'NNS'
p163
aS':'
aS'$'
aS'CD'
p164
asS'ner_seq'
p165
(lp166
S'S-MISC'
p167
aS'O'
aS'O'
aS'B-MISC'
p168
aS'I-MISC'
p169
aS'I-MISC'
p170
aS'I-MISC'
p171
aS'E-MISC'
p172
aS'O'
aS'O'
aS'O'
aS'O'
aS'O'
aS'O'
aS'O'
aS'O'
aS'O'
aS'O'
aS'O'
aS'O'
aS'O'
aS'O'
aS'O'
aS'O'
aS'O'
assb.