ccopy_reg
_reconstructor
p1
(c__main__
KBproperty
p2
c__builtin__
object
p3
NtRp4
(dp5
S'comment'
p6
S''
sS'domain'
p7
S'Settlement '
p8
sS'instances_count'
p9
S'0'
sS'label'
p10
S'total population reference'
p11
sS'range'
p12
S''
sS'prop_uri'
p13
S"'http://dbpedia.org/ontology/populationTotalReference'"
p14
sS'annotations'
p15
(dp16
S'bag_of_words'
p17
(lp18
S'Settlement'
p19
aS'total'
p20
aS'population'
p21
aS'reference'
p22
asS'chunk_seq'
p23
(lp24
S'B-NP'
p25
aS'I-NP'
p26
aS'I-NP'
p27
aS'E-NP'
p28
asS'dep_seq'
p29
(lp30
(lp31
S'nn'
p32
aS'4'
aS'1'
aa(lp33
S'amod'
p34
aS'4'
aS'2'
aa(lp35
S'nn'
p36
aS'4'
aS'3'
aa(lp37
S'root'
p38
aS'0'
aS'4'
aasS'srls'
p39
(lp40
sS'pos_seq'
p41
(lp42
S'NN'
p43
aS'JJ'
p44
aS'NN'
p45
aS'NN'
p46
asS'ner_seq'
p47
(lp48
S'O'
aS'O'
aS'O'
aS'O'
assb.