ccopy_reg
_reconstructor
p1
(c__main__
KBproperty
p2
c__builtin__
object
p3
NtRp4
(dp5
S'comment'
p6
S''
sS'domain'
p7
S'Populated Place '
p8
sS'instances_count'
p9
S'0'
sS'label'
p10
S'purchasing power parity year'
p11
sS'range'
p12
S'string '
p13
sS'prop_uri'
p14
S"'http://dbpedia.org/ontology/purchasingPowerParityYear'"
p15
sS'annotations'
p16
(dp17
S'bag_of_words'
p18
(lp19
S'Populated'
p20
aS'Place'
p21
aS'purchasing'
p22
aS'power'
p23
aS'parity'
p24
aS'year'
p25
aS'string'
p26
asS'chunk_seq'
p27
(lp28
S'B-NP'
p29
aS'E-NP'
p30
aS'S-VP'
p31
aS'B-NP'
p32
aS'I-NP'
p33
aS'I-NP'
p34
aS'E-NP'
p35
asS'dep_seq'
p36
(lp37
(lp38
S'amod'
p39
aS'7'
aS'1'
aa(lp40
S'nn'
p41
aS'7'
aS'2'
aa(lp42
S'amod'
p43
aS'7'
aS'3'
aa(lp44
S'nn'
p45
aS'7'
aS'4'
aa(lp46
S'nn'
p47
aS'7'
aS'5'
aa(lp48
S'nn'
p49
aS'7'
aS'6'
aa(lp50
S'root'
p51
aS'0'
aS'7'
aasS'srls'
p52
(lp53
(dp54
S'A1'
p55
S'power parity year string'
p56
sS'A0'
p57
S'Populated Place'
p58
sS'V'
g22
sasS'pos_seq'
p59
(lp60
S'JJ'
p61
aS'NN'
p62
aS'VBG'
p63
aS'NN'
p64
aS'NN'
p65
aS'NN'
p66
aS'NN'
p67
asS'ner_seq'
p68
(lp69
S'O'
aS'O'
aS'O'
aS'O'
aS'O'
aS'O'
aS'O'
assb.