ccopy_reg
_reconstructor
p1
(c__main__
KBproperty
p2
c__builtin__
object
p3
NtRp4
(dp5
S'comment'
p6
S'maximum discharge m\\xc2\\xb3/s'
p7
sS'domain'
p8
S''
sS'instances_count'
p9
S'982'
p10
sS'label'
p11
g7
sS'range'
p12
S'double '
p13
sS'prop_uri'
p14
S"'http://dbpedia.org/ontology/maximumDischarge'"
p15
sS'annotations'
p16
(dp17
S'bag_of_words'
p18
(lp19
S'maximum'
p20
aS'Discharge'
p21
aS'double'
p22
aS'maximum'
p23
aS'discharge'
p24
aS'm'
aS'\\'
aS'xc2'
p25
aS'\\'
aS'xb3'
p26
aS'/s'
p27
asS'chunk_seq'
p28
(lp29
S'B-NP'
p30
aS'I-NP'
p31
aS'I-NP'
p32
aS'I-NP'
p33
aS'E-NP'
p34
aS'S-NP'
p35
aS'O'
aS'O'
aS'O'
aS'O'
aS'O'
asS'dep_seq'
p36
(lp37
(lp38
S'amod'
p39
aS'2'
aS'1'
aa(lp40
S'root'
p41
aS'0'
aS'2'
aa(lp42
S'amod'
p43
aS'5'
aS'3'
aa(lp44
S'nn'
p45
aS'5'
aS'4'
aa(lp46
S'dep'
p47
aS'2'
aS'5'
aa(lp48
S'nn'
p49
aS'10'
p50
aS'6'
aa(lp51
S'nn'
p52
aS'10'
p53
aS'7'
aa(lp54
S'nn'
p55
aS'10'
p56
aS'8'
aa(lp57
S'nn'
p58
aS'10'
p59
aS'9'
aa(lp60
S'dep'
p61
aS'2'
aS'10'
p62
aa(lp63
S'punct'
p64
aS'10'
p65
aS'11'
p66
aasS'srls'
p67
(lp68
sS'pos_seq'
p69
(lp70
S'JJ'
p71
aS'NN'
p72
aS'JJ'
p73
aS'NN'
p74
aS'NN'
p75
aS'FW'
p76
aS'FW'
p77
aS'FW'
p78
aS'FW'
p79
aS'FW'
p80
aS'.'
asS'ner_seq'
p81
(lp82
S'O'
aS'O'
aS'O'
aS'O'
aS'O'
aS'O'
aS'O'
aS'O'
aS'O'
aS'O'
aS'O'
assb.