ccopy_reg
_reconstructor
p1
(c__main__
KBproperty
p2
c__builtin__
object
p3
NtRp4
(dp5
S'comment'
p6
S''
sS'domain'
p7
S'Formula One Racer '
p8
sS'instances_count'
p9
S'757'
p10
sS'label'
p11
S'poles'
p12
sS'range'
p13
S'non Negative Integer '
p14
sS'prop_uri'
p15
S"'http://dbpedia.org/ontology/poles'"
p16
sS'annotations'
p17
(dp18
S'bag_of_words'
p19
(lp20
S'Formula'
p21
aS'One'
p22
aS'Racer'
p23
aS'poles'
p24
aS'non'
p25
aS'Negative'
p26
aS'Integer'
p27
asS'chunk_seq'
p28
(lp29
S'B-NP'
p30
aS'I-NP'
p31
aS'I-NP'
p32
aS'E-NP'
p33
aS'B-NP'
p34
aS'I-NP'
p35
aS'E-NP'
p36
asS'dep_seq'
p37
(lp38
(lp39
S'nn'
p40
aS'3'
aS'1'
aa(lp41
S'num'
p42
aS'3'
aS'2'
aa(lp43
S'nsubj'
p44
aS'4'
aS'3'
aa(lp45
S'root'
p46
aS'0'
aS'4'
aa(lp47
S'advmod'
p48
aS'7'
aS'5'
aa(lp49
S'amod'
p50
aS'7'
aS'6'
aa(lp51
S'dobj'
p52
aS'4'
aS'7'
aasS'srls'
p53
(lp54
(dp55
S'A1'
p56
S'non Negative Integer'
p57
sS'A0'
p58
S'Formula One Racer'
p59
sS'V'
g24
sasS'pos_seq'
p60
(lp61
S'NN'
p62
aS'CD'
p63
aS'NN'
p64
aS'VBZ'
p65
aS'RB'
p66
aS'JJ'
p67
aS'NN'
p68
asS'ner_seq'
p69
(lp70
S'O'
aS'O'
aS'O'
aS'O'
aS'O'
aS'B-MISC'
p71
aS'E-MISC'
p72
assb.