ccopy_reg
_reconstructor
p1
(c__main__
KBproperty
p2
c__builtin__
object
p3
NtRp4
(dp5
S'comment'
p6
S'most recent average ACT scores'
p7
sS'domain'
p8
S'School '
p9
sS'instances_count'
p10
S'8'
sS'label'
p11
S'ACT score'
p12
sS'range'
p13
S''
sS'prop_uri'
p14
S"'http://dbpedia.org/ontology/actScore'"
p15
sS'annotations'
p16
(dp17
S'bag_of_words'
p18
(lp19
S'School'
p20
aS'ACT'
p21
aS'score'
p22
aS'most'
p23
aS'recent'
p24
aS'average'
p25
aS'ACT'
p26
aS'scores'
p27
asS'chunk_seq'
p28
(lp29
S'B-NP'
p30
aS'E-NP'
p31
aS'S-VP'
p32
aS'B-NP'
p33
aS'I-NP'
p34
aS'I-NP'
p35
aS'I-NP'
p36
aS'E-NP'
p37
asS'dep_seq'
p38
(lp39
(lp40
S'nn'
p41
aS'2'
aS'1'
aa(lp42
S'nsubj'
p43
aS'3'
aS'2'
aa(lp44
S'root'
p45
aS'0'
aS'3'
aa(lp46
S'advmod'
p47
aS'8'
aS'4'
aa(lp48
S'amod'
p49
aS'8'
aS'5'
aa(lp50
S'amod'
p51
aS'8'
aS'6'
aa(lp52
S'nn'
p53
aS'8'
aS'7'
aa(lp54
S'dobj'
p55
aS'3'
aS'8'
aasS'srls'
p56
(lp57
(dp58
S'A1'
p59
S'most recent average ACT scores'
p60
sS'A0'
p61
S'School ACT'
p62
sS'V'
g22
sasS'pos_seq'
p63
(lp64
S'NNP'
p65
aS'NNP'
p66
aS'VBP'
p67
aS'RBS'
p68
aS'JJ'
p69
aS'JJ'
p70
aS'NN'
p71
aS'NNS'
p72
asS'ner_seq'
p73
(lp74
S'O'
aS'O'
aS'O'
aS'O'
aS'O'
aS'O'
aS'O'
aS'O'
assb.