ccopy_reg
_reconstructor
p1
(c__main__
KBproperty
p2
c__builtin__
object
p3
NtRp4
(dp5
S'comment'
p6
S'number of goals scored'
p7
sS'domain'
p8
S'Career Station '
p9
sS'instances_count'
p10
S'611062'
p11
sS'label'
p12
g7
sS'range'
p13
S'integer '
p14
sS'prop_uri'
p15
S"'http://dbpedia.org/ontology/numberOfGoals'"
p16
sS'annotations'
p17
(dp18
S'bag_of_words'
p19
(lp20
S'Career'
p21
aS'Station'
p22
aS'number'
p23
aS'Of'
p24
aS'Goals'
p25
aS'integer'
p26
aS'number'
p27
aS'of'
p28
aS'goals'
p29
aS'scored'
p30
asS'chunk_seq'
p31
(lp32
S'B-NP'
p33
aS'I-NP'
p34
aS'E-NP'
p35
aS'S-PP'
p36
aS'B-NP'
p37
aS'I-NP'
p38
aS'E-NP'
p39
aS'S-PP'
p40
aS'S-NP'
p41
aS'S-VP'
p42
asS'dep_seq'
p43
(lp44
(lp45
S'nn'
p46
aS'3'
aS'1'
aa(lp47
S'nn'
p48
aS'3'
aS'2'
aa(lp49
S'root'
p50
aS'0'
aS'3'
aa(lp51
S'prep_of'
p52
aS'3'
aS'5'
aa(lp53
S'nn'
p54
aS'7'
aS'6'
aa(lp55
S'dep'
p56
aS'3'
aS'7'
aa(lp57
S'prep_of'
p58
aS'3'
aS'9'
aa(lp59
S'dep'
p60
aS'3'
aS'10'
p61
aasS'srls'
p62
(lp63
sS'pos_seq'
p64
(lp65
S'NNP'
p66
aS'NNP'
p67
aS'NN'
p68
aS'IN'
p69
aS'NNS'
p70
aS'NN'
p71
aS'NN'
p72
aS'IN'
p73
aS'NNS'
p74
aS'VBD'
p75
asS'ner_seq'
p76
(lp77
S'O'
aS'O'
aS'O'
aS'O'
aS'O'
aS'O'
aS'O'
aS'O'
aS'O'
aS'O'
assb.