ccopy_reg
_reconstructor
p1
(c__main__
KBproperty
p2
c__builtin__
object
p3
NtRp4
(dp5
S'comment'
p6
S'Modus the game can be played in'
p7
sS'domain'
p8
S''
sS'instances_count'
p9
S'0'
sS'label'
p10
g7
sS'range'
p11
S'string '
p12
sS'prop_uri'
p13
S"'http://dbpedia.org/ontology/gameModus'"
p14
sS'annotations'
p15
(dp16
S'bag_of_words'
p17
(lp18
S'game'
p19
aS'Modus'
p20
aS'string'
p21
aS'Modus'
p22
aS'the'
p23
aS'game'
p24
aS'can'
p25
aS'be'
p26
aS'played'
p27
aS'in'
p28
asS'chunk_seq'
p29
(lp30
S'B-NP'
p31
aS'I-NP'
p32
aS'I-NP'
p33
aS'I-NP'
p34
aS'I-NP'
p35
aS'E-NP'
p36
aS'B-VP'
p37
aS'I-VP'
p38
aS'E-VP'
p39
aS'S-PP'
p40
asS'dep_seq'
p41
(lp42
(lp43
S'nn'
p44
aS'6'
aS'1'
aa(lp45
S'nn'
p46
aS'6'
aS'2'
aa(lp47
S'nn'
p48
aS'6'
aS'3'
aa(lp49
S'nn'
p50
aS'6'
aS'4'
aa(lp51
S'det'
p52
aS'6'
aS'5'
aa(lp53
S'nsubjpass'
p54
aS'9'
aS'6'
aa(lp55
S'aux'
p56
aS'9'
aS'7'
aa(lp57
S'auxpass'
p58
aS'9'
aS'8'
aa(lp59
S'root'
p60
aS'0'
aS'9'
aa(lp61
S'advmod'
p62
aS'9'
aS'10'
p63
aasS'srls'
p64
(lp65
(dp66
S'A1'
p67
S'game Modus string Modus the game'
p68
sS'V'
g27
sS'AM-MOD'
p69
g25
sasS'pos_seq'
p70
(lp71
S'NN'
p72
aS'NNP'
p73
aS'NN'
p74
aS'NNP'
p75
aS'DT'
p76
aS'NN'
p77
aS'MD'
p78
aS'VB'
p79
aS'VBN'
p80
aS'IN'
p81
asS'ner_seq'
p82
(lp83
S'O'
aS'B-MISC'
p84
aS'I-MISC'
p85
aS'E-MISC'
p86
aS'O'
aS'O'
aS'O'
aS'O'
aS'O'
aS'O'
assb.