ccopy_reg
_reconstructor
p1
(c__main__
KBproperty
p2
c__builtin__
object
p3
NtRp4
(dp5
S'comment'
p6
S'phone prefix label of a settlement'
p7
sS'domain'
p8
S'Settlement '
p9
sS'instances_count'
p10
S'0'
sS'label'
p11
g7
sS'range'
p12
S'lang String '
p13
sS'prop_uri'
p14
S"'http://dbpedia.org/ontology/phonePrefixLabel'"
p15
sS'annotations'
p16
(dp17
S'bag_of_words'
p18
(lp19
S'Settlement'
p20
aS'phone'
p21
aS'Prefix'
p22
aS'Label'
p23
aS'lang'
p24
aS'String'
p25
aS'phone'
p26
aS'prefix'
p27
aS'label'
p28
aS'of'
p29
aS'a'
aS'settlement'
p30
asS'chunk_seq'
p31
(lp32
S'B-NP'
p33
aS'I-NP'
p34
aS'I-NP'
p35
aS'I-NP'
p36
aS'I-NP'
p37
aS'I-NP'
p38
aS'I-NP'
p39
aS'I-NP'
p40
aS'E-NP'
p41
aS'S-PP'
p42
aS'B-NP'
p43
aS'E-NP'
p44
asS'dep_seq'
p45
(lp46
(lp47
S'nn'
p48
aS'9'
aS'1'
aa(lp49
S'nn'
p50
aS'9'
aS'2'
aa(lp51
S'nn'
p52
aS'9'
aS'3'
aa(lp53
S'nn'
p54
aS'9'
aS'4'
aa(lp55
S'amod'
p56
aS'9'
aS'5'
aa(lp57
S'nn'
p58
aS'9'
aS'6'
aa(lp59
S'nn'
p60
aS'9'
aS'7'
aa(lp61
S'nn'
p62
aS'9'
aS'8'
aa(lp63
S'root'
p64
aS'0'
aS'9'
aa(lp65
S'det'
p66
aS'12'
p67
aS'11'
p68
aa(lp69
S'prep_of'
p70
aS'9'
aS'12'
p71
aasS'srls'
p72
(lp73
(dp74
S'A1'
p75
S'String phone prefix label of a settlement'
p76
sS'A0'
p77
S'Settlement phone Prefix Label'
p78
sS'V'
g24
sasS'pos_seq'
p79
(lp80
S'NN'
p81
aS'NN'
p82
aS'NNP'
p83
aS'NNP'
p84
aS'VBG'
p85
aS'NN'
p86
aS'NN'
p87
aS'NN'
p88
aS'NN'
p89
aS'IN'
p90
aS'DT'
p91
aS'NN'
p92
asS'ner_seq'
p93
(lp94
S'O'
aS'O'
aS'B-MISC'
p95
aS'I-MISC'
p96
aS'I-MISC'
p97
aS'E-MISC'
p98
aS'O'
aS'O'
aS'O'
aS'O'
aS'O'
aS'O'
assb.