ccopy_reg
_reconstructor
p1
(c__main__
KBproperty
p2
c__builtin__
object
p3
NtRp4
(dp5
S'comment'
p6
S'The Simplified Molecular-Input Line-Entry System or SMILES is a specification in form of a line notation for describing the structure of chemical molecules using short ASCII strings.'
p7
sS'domain'
p8
S'Chemical Compound '
p9
sS'instances_count'
p10
S'1'
sS'label'
p11
S'SMILES'
p12
sS'range'
p13
S'string '
p14
sS'prop_uri'
p15
S"'http://dbpedia.org/ontology/smiles'"
p16
sS'annotations'
p17
(dp18
S'bag_of_words'
p19
(lp20
S'Chemical'
p21
aS'Compound'
p22
aS'SMILES'
p23
aS'string'
p24
aS'The'
p25
aS'Simplified'
p26
aS'Molecular'
p27
aS'-'
aS'Input'
p28
aS'Line'
p29
aS'-'
aS'Entry'
p30
aS'System'
p31
aS'or'
p32
aS'SMILES'
p33
aS'is'
p34
aS'a'
aS'specification'
p35
aS'in'
p36
aS'form'
p37
aS'of'
p38
aS'a'
aS'line'
p39
aS'notation'
p40
aS'for'
p41
aS'describing'
p42
aS'the'
p43
aS'structure'
p44
aS'of'
p45
aS'chemical'
p46
aS'molecules'
p47
aS'using'
p48
aS'short'
p49
aS'ASCII'
p50
aS'strings'
p51
aS'.'
asS'chunk_seq'
p52
(lp53
S'B-NP'
p54
aS'E-NP'
p55
aS'S-VP'
p56
aS'S-NP'
p57
aS'B-NP'
p58
aS'I-NP'
p59
aS'I-NP'
p60
aS'I-NP'
p61
aS'I-NP'
p62
aS'E-NP'
p63
aS'O'
aS'B-NP'
p64
aS'E-NP'
p65
aS'O'
aS'S-NP'
p66
aS'S-VP'
p67
aS'B-NP'
p68
aS'E-NP'
p69
aS'S-PP'
p70
aS'S-NP'
p71
aS'S-PP'
p72
aS'B-NP'
p73
aS'I-NP'
p74
aS'E-NP'
p75
aS'S-PP'
p76
aS'S-VP'
p77
aS'B-NP'
p78
aS'E-NP'
p79
aS'S-PP'
p80
aS'B-NP'
p81
aS'E-NP'
p82
aS'S-VP'
p83
aS'B-NP'
p84
aS'I-NP'
p85
aS'E-NP'
p86
aS'O'
asS'dep_seq'
p87
(lp88
(lp89
S'nn'
p90
aS'4'
aS'1'
aa(lp91
S'nn'
p92
aS'4'
aS'2'
aa(lp93
S'dep'
p94
aS'4'
aS'3'
aa(lp95
S'nsubj'
p96
aS'18'
p97
aS'4'
aa(lp98
S'det'
p99
aS'7'
aS'5'
aa(lp100
S'amod'
p101
aS'7'
aS'6'
aa(lp102
S'nsubj'
p103
aS'18'
p104
aS'7'
aa(lp105
S'nn'
p106
aS'10'
p107
aS'9'
aa(lp108
S'dep'
p109
aS'7'
aS'10'
p110
aa(lp111
S'nn'
p112
aS'13'
p113
aS'12'
p114
aa(lp115
S'dep'
p116
aS'7'
aS'13'
p117
aa(lp118
S'conj_or'
p119
aS'13'
p120
aS'15'
p121
aa(lp122
S'cop'
p123
aS'18'
p124
aS'16'
p125
aa(lp126
S'det'
p127
aS'18'
p128
aS'17'
p129
aa(lp130
S'root'
p131
aS'0'
aS'18'
p132
aa(lp133
S'prep_in'
p134
aS'18'
p135
aS'20'
p136
aa(lp137
S'det'
p138
aS'24'
p139
aS'22'
p140
aa(lp141
S'nn'
p142
aS'24'
p143
aS'23'
p144
aa(lp145
S'prep_of'
p146
aS'20'
p147
aS'24'
p148
aa(lp149
S'prepc_for'
p150
aS'24'
p151
aS'26'
p152
aa(lp153
S'det'
p154
aS'28'
p155
aS'27'
p156
aa(lp157
S'dobj'
p158
aS'26'
p159
aS'28'
p160
aa(lp161
S'nn'
p162
aS'31'
p163
aS'30'
p164
aa(lp165
S'prep_of'
p166
aS'28'
p167
aS'31'
p168
aa(lp169
S'partmod'
p170
aS'31'
p171
aS'32'
p172
aa(lp173
S'amod'
p174
aS'35'
p175
aS'33'
p176
aa(lp177
S'nn'
p178
aS'35'
p179
aS'34'
p180
aa(lp181
S'dobj'
p182
aS'32'
p183
aS'35'
p184
aasS'srls'
p185
(lp186
(dp187
S'A1'
p188
S'string The Simplified Molecular - Input Line - Entry System or SMILES'
p189
sS'A0'
p190
S'Chemical Compound'
p191
sS'V'
g23
sa(dp192
S'A1'
p193
S'the structure of chemical molecules using short ASCII strings'
p194
sS'V'
g42
sa(dp195
S'A1'
p196
S'short ASCII strings'
p197
sS'A0'
p198
S'chemical molecules'
p199
sS'V'
g48
sasS'pos_seq'
p200
(lp201
S'NNP'
p202
aS'NNP'
p203
aS'VBZ'
p204
aS'NN'
p205
aS'DT'
p206
aS'JJ'
p207
aS'NNP'
p208
aS':'
aS'NNP'
p209
aS'NNP'
p210
aS':'
aS'NNP'
p211
aS'NNP'
p212
aS'CC'
p213
aS'NNP'
p214
aS'VBZ'
p215
aS'DT'
p216
aS'NN'
p217
aS'IN'
p218
aS'NN'
p219
aS'IN'
p220
aS'DT'
p221
aS'NN'
p222
aS'NN'
p223
aS'IN'
p224
aS'VBG'
p225
aS'DT'
p226
aS'NN'
p227
aS'IN'
p228
aS'NN'
p229
aS'NNS'
p230
aS'VBG'
p231
aS'JJ'
p232
aS'NNP'
p233
aS'NNS'
p234
aS'.'
asS'ner_seq'
p235
(lp236
S'O'
aS'O'
aS'O'
aS'O'
aS'O'
aS'O'
aS'O'
aS'O'
aS'O'
aS'O'
aS'O'
aS'O'
aS'O'
aS'O'
aS'S-PER'
p237
aS'O'
aS'O'
aS'O'
aS'O'
aS'O'
aS'O'
aS'O'
aS'O'
aS'O'
aS'O'
aS'O'
aS'O'
aS'O'
aS'O'
aS'O'
aS'O'
aS'O'
aS'O'
aS'S-MISC'
p238
aS'O'
aS'O'
assb.