ccopy_reg
_reconstructor
p1
(c__main__
KBproperty
p2
c__builtin__
object
p3
NtRp4
(dp5
S'comment'
p6
S'Award won by a Person Musical or other Work RaceHorse Building etc'
p7
sS'domain'
p8
S''
sS'instances_count'
p9
S'85994'
p10
sS'label'
p11
S'award'
p12
sS'range'
p13
S'Award '
p14
sS'prop_uri'
p15
S"'http://dbpedia.org/ontology/award'"
p16
sS'annotations'
p17
(dp18
S'bag_of_words'
p19
(lp20
S'award'
p21
aS'Award'
p22
aS'Award'
p23
aS'won'
p24
aS'by'
p25
aS'a'
aS'Person'
p26
aS'Musical'
p27
aS'or'
p28
aS'other'
p29
aS'Work'
p30
aS'RaceHorse'
p31
aS'Building'
p32
aS'etc'
p33
asS'chunk_seq'
p34
(lp35
S'B-NP'
p36
aS'I-NP'
p37
aS'E-NP'
p38
aS'S-VP'
p39
aS'S-PP'
p40
aS'B-NP'
p41
aS'I-NP'
p42
aS'I-NP'
p43
aS'I-NP'
p44
aS'I-NP'
p45
aS'I-NP'
p46
aS'I-NP'
p47
aS'E-NP'
p48
aS'O'
asS'dep_seq'
p49
(lp50
(lp51
S'nn'
p52
aS'3'
aS'1'
aa(lp53
S'nn'
p54
aS'3'
aS'2'
aa(lp55
S'root'
p56
aS'0'
aS'3'
aa(lp57
S'partmod'
p58
aS'3'
aS'4'
aa(lp59
S'det'
p60
aS'13'
p61
aS'6'
aa(lp62
S'nn'
p63
aS'13'
p64
aS'7'
aa(lp65
S'amod'
p66
aS'13'
p67
aS'8'
aa(lp68
S'conj_or'
p69
aS'8'
aS'10'
p70
aa(lp71
S'nn'
p72
aS'13'
p73
aS'11'
p74
aa(lp75
S'nn'
p76
aS'13'
p77
aS'12'
p78
aa(lp79
S'agent'
p80
aS'4'
aS'13'
p81
aa(lp82
S'punct'
p83
aS'3'
aS'14'
p84
aasS'srls'
p85
(lp86
(dp87
S'A1'
p88
S'Musical or other Work RaceHorse Building etc'
p89
sS'A0'
p90
S'award Award Award'
p91
sS'AM-MNR'
p92
S'by a Person'
p93
sS'V'
g24
sasS'pos_seq'
p94
(lp95
S'NN'
p96
aS'NNP'
p97
aS'NNP'
p98
aS'VBD'
p99
aS'IN'
p100
aS'DT'
p101
aS'NN'
p102
aS'JJ'
p103
aS'CC'
p104
aS'JJ'
p105
aS'NNP'
p106
aS'NNP'
p107
aS'NNP'
p108
aS'.'
asS'ner_seq'
p109
(lp110
S'O'
aS'O'
aS'O'
aS'O'
aS'O'
aS'O'
aS'O'
aS'O'
aS'O'
aS'O'
aS'B-ORG'
p111
aS'I-ORG'
p112
aS'E-ORG'
p113
aS'O'
assb.