ccopy_reg
_reconstructor
p1
(c__main__
KBproperty
p2
c__builtin__
object
p3
NtRp4
(dp5
S'comment'
p6
S''
sS'domain'
p7
S'Athlete '
p8
sS'instances_count'
p9
S'0'
sS'label'
p10
S'state of origin year'
p11
sS'range'
p12
S'string '
p13
sS'prop_uri'
p14
S"'http://dbpedia.org/ontology/stateOfOriginYear'"
p15
sS'annotations'
p16
(dp17
S'bag_of_words'
p18
(lp19
S'Athlete'
p20
aS'state'
p21
aS'of'
p22
aS'origin'
p23
aS'year'
p24
aS'string'
p25
asS'chunk_seq'
p26
(lp27
S'B-NP'
p28
aS'E-NP'
p29
aS'S-PP'
p30
aS'B-NP'
p31
aS'I-NP'
p32
aS'E-NP'
p33
asS'dep_seq'
p34
(lp35
(lp36
S'nn'
p37
aS'2'
aS'1'
aa(lp38
S'root'
p39
aS'0'
aS'2'
aa(lp40
S'nn'
p41
aS'6'
aS'4'
aa(lp42
S'nn'
p43
aS'6'
aS'5'
aa(lp44
S'prep_of'
p45
aS'2'
aS'6'
aasS'srls'
p46
(lp47
sS'pos_seq'
p48
(lp49
S'NN'
p50
aS'NN'
p51
aS'IN'
p52
aS'NN'
p53
aS'NN'
p54
aS'NN'
p55
asS'ner_seq'
p56
(lp57
S'O'
aS'O'
aS'O'
aS'O'
aS'O'
aS'O'
assb.