ccopy_reg
_reconstructor
p1
(c__main__
KBproperty
p2
c__builtin__
object
p3
NtRp4
(dp5
S'comment'
p6
S"Information on station's bicycle facilities."
p7
sS'domain'
p8
S'Station '
p9
sS'instances_count'
p10
S'2078'
p11
sS'label'
p12
S'bicycle information'
p13
sS'range'
p14
S'string '
p15
sS'prop_uri'
p16
S"'http://dbpedia.org/ontology/bicycleInformation'"
p17
sS'annotations'
p18
(dp19
S'bag_of_words'
p20
(lp21
S'Station'
p22
aS'bicycle'
p23
aS'information'
p24
aS'string'
p25
aS'Information'
p26
aS'on'
p27
aS'station'
p28
aS"'s"
p29
aS'bicycle'
p30
aS'facilities'
p31
aS'.'
asS'chunk_seq'
p32
(lp33
S'B-NP'
p34
aS'I-NP'
p35
aS'I-NP'
p36
aS'I-NP'
p37
aS'E-NP'
p38
aS'S-PP'
p39
aS'S-NP'
p40
aS'B-NP'
p41
aS'I-NP'
p42
aS'E-NP'
p43
aS'O'
asS'dep_seq'
p44
(lp45
(lp46
S'nn'
p47
aS'5'
aS'1'
aa(lp48
S'nn'
p49
aS'5'
aS'2'
aa(lp50
S'nn'
p51
aS'5'
aS'3'
aa(lp52
S'nn'
p53
aS'5'
aS'4'
aa(lp54
S'root'
p55
aS'0'
aS'5'
aa(lp56
S'poss'
p57
aS'10'
p58
aS'7'
aa(lp59
S'nn'
p60
aS'10'
p61
aS'9'
aa(lp62
S'prep_on'
p63
aS'5'
aS'10'
p64
aasS'srls'
p65
(lp66
sS'pos_seq'
p67
(lp68
S'NN'
p69
aS'NN'
p70
aS'NN'
p71
aS'NN'
p72
aS'NN'
p73
aS'IN'
p74
aS'NN'
p75
aS'POS'
p76
aS'NN'
p77
aS'NNS'
p78
aS'.'
asS'ner_seq'
p79
(lp80
S'O'
aS'O'
aS'O'
aS'O'
aS'O'
aS'O'
aS'O'
aS'O'
aS'O'
aS'O'
aS'O'
assb.