ccopy_reg
_reconstructor
p1
(c__main__
KBproperty
p2
c__builtin__
object
p3
NtRp4
(dp5
S'comment'
p6
S'coast line \\xce\\xbc'
p7
sS'domain'
p8
S'Settlement '
p9
sS'instances_count'
p10
S'0'
sS'label'
p11
g7
sS'range'
p12
S'double '
p13
sS'prop_uri'
p14
S"'http://dbpedia.org/ontology/coastLine'"
p15
sS'annotations'
p16
(dp17
S'bag_of_words'
p18
(lp19
S'Settlement'
p20
aS'coast'
p21
aS'Line'
p22
aS'double'
p23
aS'coast'
p24
aS'line'
p25
aS'\\'
aS'xce'
p26
aS'\\'
aS'xbc'
p27
asS'chunk_seq'
p28
(lp29
S'B-NP'
p30
aS'I-NP'
p31
aS'I-NP'
p32
aS'I-NP'
p33
aS'I-NP'
p34
aS'E-NP'
p35
aS'O'
aS'O'
aS'O'
aS'O'
asS'dep_seq'
p36
(lp37
(lp38
S'nn'
p39
aS'6'
aS'1'
aa(lp40
S'nn'
p41
aS'6'
aS'2'
aa(lp42
S'nn'
p43
aS'6'
aS'3'
aa(lp44
S'amod'
p45
aS'6'
aS'4'
aa(lp46
S'nn'
p47
aS'6'
aS'5'
aa(lp48
S'root'
p49
aS'0'
aS'6'
aa(lp50
S'dep'
p51
aS'6'
aS'7'
aa(lp52
S'discourse'
p53
aS'6'
aS'8'
aa(lp54
S'dep'
p55
aS'8'
aS'9'
aa(lp56
S'dep'
p57
aS'8'
aS'10'
p58
aasS'srls'
p59
(lp60
sS'pos_seq'
p61
(lp62
S'NN'
p63
aS'NN'
p64
aS'NN'
p65
aS'JJ'
p66
aS'NN'
p67
aS'NN'
p68
aS'FW'
p69
aS'FW'
p70
aS'FW'
p71
aS'FW'
p72
asS'ner_seq'
p73
(lp74
S'O'
aS'O'
aS'O'
aS'O'
aS'O'
aS'O'
aS'O'
aS'O'
aS'O'
aS'O'
assb.