ccopy_reg
_reconstructor
p1
(c__main__
KBproperty
p2
c__builtin__
object
p3
NtRp4
(dp5
S'comment'
p6
S'discharge cuft/s'
p7
sS'domain'
p8
S''
sS'instances_count'
p9
S'51'
p10
sS'label'
p11
g7
sS'range'
p12
S''
sS'prop_uri'
p13
S"'http://dbpedia.org/property/dischargeCuft/s'"
p14
sS'annotations'
p15
(dp16
S'bag_of_words'
p17
(lp18
S's'
aS'discharge'
p19
aS'cuft'
p20
aS'/s'
p21
asS'chunk_seq'
p22
(lp23
S'B-NP'
p24
aS'E-NP'
p25
aS'S-NP'
p26
aS'O'
asS'dep_seq'
p27
(lp28
(lp29
S'dep'
p30
aS'3'
aS'1'
aa(lp31
S'nn'
p32
aS'3'
aS'2'
aa(lp33
S'root'
p34
aS'0'
aS'3'
aa(lp35
S'punct'
p36
aS'3'
aS'4'
aasS'srls'
p37
(lp38
(dp39
S'A1'
p40
S'cuft /s'
p41
sS'A0'
p42
S's'
sS'V'
g19
sasS'pos_seq'
p43
(lp44
S'SYM'
p45
aS'NN'
p46
aS'NN'
p47
aS'.'
asS'ner_seq'
p48
(lp49
S'O'
aS'O'
aS'O'
aS'O'
assb.