ccopy_reg
_reconstructor
p1
(c__main__
KBproperty
p2
c__builtin__
object
p3
NtRp4
(dp5
S'comment'
p6
S'author of preface'
p7
sS'domain'
p8
S'Written Work '
p9
sS'instances_count'
p10
S'0'
sS'label'
p11
g7
sS'range'
p12
S'Person '
p13
sS'prop_uri'
p14
S"'http://dbpedia.org/ontology/prefaceBy'"
p15
sS'annotations'
p16
(dp17
S'bag_of_words'
p18
(lp19
S'Written'
p20
aS'Work'
p21
aS'preface'
p22
aS'By'
p23
aS'Person'
p24
aS'author'
p25
aS'of'
p26
aS'preface'
p27
asS'chunk_seq'
p28
(lp29
S'B-NP'
p30
aS'I-NP'
p31
aS'E-NP'
p32
aS'S-PP'
p33
aS'B-NP'
p34
aS'E-NP'
p35
aS'S-PP'
p36
aS'S-NP'
p37
asS'dep_seq'
p38
(lp39
(lp40
S'nn'
p41
aS'3'
aS'1'
aa(lp42
S'nn'
p43
aS'3'
aS'2'
aa(lp44
S'root'
p45
aS'0'
aS'3'
aa(lp46
S'nn'
p47
aS'6'
aS'5'
aa(lp48
S'prep_by'
p49
aS'3'
aS'6'
aa(lp50
S'prep_of'
p51
aS'6'
aS'8'
aasS'srls'
p52
(lp53
sS'pos_seq'
p54
(lp55
S'NNP'
p56
aS'NNP'
p57
aS'NN'
p58
aS'IN'
p59
aS'NN'
p60
aS'NN'
p61
aS'IN'
p62
aS'NN'
p63
asS'ner_seq'
p64
(lp65
S'O'
aS'O'
aS'O'
aS'O'
aS'O'
aS'O'
aS'O'
aS'O'
assb.