ccopy_reg
_reconstructor
p1
(c__main__
KBproperty
p2
c__builtin__
object
p3
NtRp4
(dp5
S'comment'
p6
S'Jersey number of an Athlete sports player eg "99" or sequential number of an Album eg "Third studio album'
p7
sS'domain'
p8
S''
sS'instances_count'
p9
S'67853'
p10
sS'label'
p11
S'number'
p12
sS'range'
p13
S'string '
p14
sS'prop_uri'
p15
S"'http://dbpedia.org/ontology/number'"
p16
sS'annotations'
p17
(dp18
S'bag_of_words'
p19
(lp20
S'number'
p21
aS'string'
p22
aS'Jersey'
p23
aS'number'
p24
aS'of'
p25
aS'an'
p26
aS'Athlete'
p27
aS'sports'
p28
aS'player'
p29
aS'eg'
p30
aS'"'
aS'99'
p31
aS'"'
aS'or'
p32
aS'sequential'
p33
aS'number'
p34
aS'of'
p35
aS'an'
p36
aS'Album'
p37
aS'eg'
p38
aS'"'
aS'Third'
p39
aS'studio'
p40
aS'album'
p41
asS'chunk_seq'
p42
(lp43
S'B-NP'
p44
aS'I-NP'
p45
aS'I-NP'
p46
aS'E-NP'
p47
aS'S-PP'
p48
aS'B-NP'
p49
aS'I-NP'
p50
aS'I-NP'
p51
aS'E-NP'
p52
aS'S-VP'
p53
aS'B-NP'
p54
aS'I-NP'
p55
aS'I-NP'
p56
aS'I-NP'
p57
aS'I-NP'
p58
aS'E-NP'
p59
aS'S-PP'
p60
aS'B-NP'
p61
aS'E-NP'
p62
aS'S-VP'
p63
aS'S-PP'
p64
aS'B-NP'
p65
aS'I-NP'
p66
aS'E-NP'
p67
asS'dep_seq'
p68
(lp69
(lp70
S'nn'
p71
aS'4'
aS'1'
aa(lp72
S'nn'
p73
aS'4'
aS'2'
aa(lp74
S'nn'
p75
aS'4'
aS'3'
aa(lp76
S'nsubj'
p77
aS'20'
p78
aS'4'
aa(lp79
S'det'
p80
aS'7'
aS'6'
aa(lp81
S'prep_of'
p82
aS'4'
aS'7'
aa(lp83
S'nn'
p84
aS'7'
aS'8'
aa(lp85
S'nn'
p86
aS'7'
aS'9'
aa(lp87
S'nn'
p88
aS'7'
aS'10'
p89
aa(lp90
S'nn'
p91
aS'7'
aS'11'
p92
aa(lp93
S'nn'
p94
aS'7'
aS'12'
p95
aa(lp96
S'dep'
p97
aS'7'
aS'13'
p98
aa(lp99
S'amod'
p100
aS'16'
p101
aS'15'
p102
aa(lp103
S'conj_or'
p104
aS'7'
aS'16'
p105
aa(lp106
S'det'
p107
aS'19'
p108
aS'18'
p109
aa(lp110
S'prep_of'
p111
aS'4'
aS'19'
p112
aa(lp113
S'root'
p114
aS'0'
aS'20'
p115
aa(lp116
S'amod'
p117
aS'24'
p118
aS'22'
p119
aa(lp120
S'nn'
p121
aS'24'
p122
aS'23'
p123
aa(lp124
S'prep_"'
p125
aS'20'
p126
aS'24'
p127
aasS'srls'
p128
(lp129
sS'pos_seq'
p130
(lp131
S'NN'
p132
aS'NN'
p133
aS'NNP'
p134
aS'NN'
p135
aS'IN'
p136
aS'DT'
p137
aS'NNP'
p138
aS'FW'
p139
aS'FW'
p140
aS'FW'
p141
aS'FW'
p142
aS'FW'
p143
aS'FW'
p144
aS'CC'
p145
aS'JJ'
p146
aS'NN'
p147
aS'IN'
p148
aS'DT'
p149
aS'NN'
p150
aS'NN'
p151
aS'IN'
p152
aS'JJ'
p153
aS'NN'
p154
aS'NN'
p155
asS'ner_seq'
p156
(lp157
S'O'
aS'O'
aS'S-MISC'
p158
aS'O'
aS'O'
aS'O'
aS'O'
aS'O'
aS'O'
aS'O'
aS'O'
aS'O'
aS'O'
aS'O'
aS'O'
aS'O'
aS'O'
aS'O'
aS'O'
aS'O'
aS'O'
aS'O'
aS'O'
aS'O'
assb.