ccopy_reg
_reconstructor
p1
(c__main__
KBproperty
p2
c__builtin__
object
p3
NtRp4
(dp5
S'comment'
p6
S'Building start date of an ArchitecturalStructure man-made Lake etc. For older structures this can be just a year or century for newer structures an exact date is preferred'
p7
sS'domain'
p8
S''
sS'instances_count'
p9
S'12007'
p10
sS'label'
p11
S'building start date'
p12
sS'range'
p13
S'string '
p14
sS'prop_uri'
p15
S"'http://dbpedia.org/ontology/buildingStartDate'"
p16
sS'annotations'
p17
(dp18
S'bag_of_words'
p19
(lp20
S'building'
p21
aS'start'
p22
aS'date'
p23
aS'string'
p24
aS'Building'
p25
aS'start'
p26
aS'date'
p27
aS'of'
p28
aS'an'
p29
aS'ArchitecturalStructure'
p30
aS'man-made'
p31
aS'Lake'
p32
aS'etc.'
p33
aS'For'
p34
aS'older'
p35
aS'structures'
p36
aS'this'
p37
aS'can'
p38
aS'be'
p39
aS'just'
p40
aS'a'
aS'year'
p41
aS'or'
p42
aS'century'
p43
aS'for'
p44
aS'newer'
p45
aS'structures'
p46
aS'an'
p47
aS'exact'
p48
aS'date'
p49
aS'is'
p50
aS'preferred'
p51
asS'chunk_seq'
p52
(lp53
S'B-NP'
p54
aS'I-NP'
p55
aS'I-NP'
p56
aS'I-NP'
p57
aS'I-NP'
p58
aS'I-NP'
p59
aS'E-NP'
p60
aS'S-PP'
p61
aS'B-NP'
p62
aS'I-NP'
p63
aS'I-NP'
p64
aS'I-NP'
p65
aS'E-NP'
p66
aS'S-PP'
p67
aS'B-NP'
p68
aS'E-NP'
p69
aS'S-NP'
p70
aS'B-VP'
p71
aS'E-VP'
p72
aS'B-NP'
p73
aS'I-NP'
p74
aS'I-NP'
p75
aS'I-NP'
p76
aS'E-NP'
p77
aS'S-PP'
p78
aS'B-NP'
p79
aS'E-NP'
p80
aS'B-NP'
p81
aS'I-NP'
p82
aS'E-NP'
p83
aS'B-VP'
p84
aS'E-VP'
p85
asS'dep_seq'
p86
(lp87
(lp88
S'nn'
p89
aS'7'
aS'1'
aa(lp90
S'nn'
p91
aS'7'
aS'2'
aa(lp92
S'nn'
p93
aS'7'
aS'3'
aa(lp94
S'nn'
p95
aS'7'
aS'4'
aa(lp96
S'nn'
p97
aS'7'
aS'5'
aa(lp98
S'nn'
p99
aS'7'
aS'6'
aa(lp100
S'nsubj'
p101
aS'22'
p102
aS'7'
aa(lp103
S'det'
p104
aS'13'
p105
aS'9'
aa(lp106
S'nn'
p107
aS'13'
p108
aS'10'
p109
aa(lp110
S'amod'
p111
aS'13'
p112
aS'made'
p113
aa(lp114
S'nn'
p115
aS'13'
p116
aS'12'
p117
aa(lp118
S'prep_of'
p119
aS'7'
aS'13'
p120
aa(lp121
S'amod'
p122
aS'16'
p123
aS'15'
p124
aa(lp125
S'prep_for'
p126
aS'7'
aS'16'
p127
aa(lp128
S'dep'
p129
aS'7'
aS'17'
p130
aa(lp131
S'aux'
p132
aS'22'
p133
aS'18'
p134
aa(lp135
S'cop'
p136
aS'22'
p137
aS'19'
p138
aa(lp139
S'advmod'
p140
aS'22'
p141
aS'20'
p142
aa(lp143
S'det'
p144
aS'22'
p145
aS'21'
p146
aa(lp147
S'root'
p148
aS'0'
aS'22'
p149
aa(lp150
S'conj_or'
p151
aS'22'
p152
aS'24'
p153
aa(lp154
S'amod'
p155
aS'27'
p156
aS'26'
p157
aa(lp158
S'prep_for'
p159
aS'22'
p160
aS'27'
p161
aa(lp162
S'det'
p163
aS'30'
p164
aS'28'
p165
aa(lp166
S'amod'
p167
aS'30'
p168
aS'29'
p169
aa(lp170
S'nsubjpass'
p171
aS'32'
p172
aS'30'
p173
aa(lp174
S'auxpass'
p175
aS'32'
p176
aS'31'
p177
aa(lp178
S'rcmod'
p179
aS'27'
p180
aS'32'
p181
aasS'srls'
p182
(lp183
sS'pos_seq'
p184
(lp185
S'NN'
p186
aS'NN'
p187
aS'NN'
p188
aS'NN'
p189
aS'NN'
p190
aS'NN'
p191
aS'NN'
p192
aS'IN'
p193
aS'DT'
p194
aS'NNP'
p195
aS'JJ'
p196
aS'NNP'
p197
aS'NN'
p198
aS'IN'
p199
aS'JJR'
p200
aS'NNS'
p201
aS'DT'
p202
aS'MD'
p203
aS'VB'
p204
aS'RB'
p205
aS'DT'
p206
aS'NN'
p207
aS'CC'
p208
aS'NN'
p209
aS'IN'
p210
aS'JJR'
p211
aS'NNS'
p212
aS'DT'
p213
aS'JJ'
p214
aS'NN'
p215
aS'VBZ'
p216
aS'VBN'
p217
asS'ner_seq'
p218
(lp219
S'O'
aS'O'
aS'O'
aS'O'
aS'O'
aS'O'
aS'O'
aS'O'
aS'O'
aS'B-LOC'
p220
aS'I-LOC'
p221
aS'E-LOC'
p222
aS'O'
aS'O'
aS'O'
aS'O'
aS'O'
aS'O'
aS'O'
aS'O'
aS'O'
aS'O'
aS'O'
aS'O'
aS'O'
aS'O'
aS'O'
aS'O'
aS'O'
aS'O'
aS'O'
aS'O'
assb.