ccopy_reg
_reconstructor
p1
(c__main__
KBproperty
p2
c__builtin__
object
p3
NtRp4
(dp5
S'comment'
p6
S'Wikipage page ID'
p7
sS'domain'
p8
S''
sS'instances_count'
p9
S'15227118'
p10
sS'label'
p11
g7
sS'range'
p12
S'integer '
p13
sS'prop_uri'
p14
S"'http://dbpedia.org/ontology/wikiPageID'"
p15
sS'annotations'
p16
(dp17
S'bag_of_words'
p18
(lp19
S'wiki'
p20
aS'Page'
p21
aS'integer'
p22
aS'Wikipage'
p23
aS'page'
p24
aS'ID'
p25
asS'chunk_seq'
p26
(lp27
S'B-NP'
p28
aS'I-NP'
p29
aS'I-NP'
p30
aS'I-NP'
p31
aS'I-NP'
p32
aS'E-NP'
p33
asS'dep_seq'
p34
(lp35
(lp36
S'nn'
p37
aS'6'
aS'1'
aa(lp38
S'nn'
p39
aS'6'
aS'2'
aa(lp40
S'nn'
p41
aS'6'
aS'3'
aa(lp42
S'nn'
p43
aS'6'
aS'4'
aa(lp44
S'nn'
p45
aS'6'
aS'5'
aa(lp46
S'root'
p47
aS'0'
aS'6'
aasS'srls'
p48
(lp49
sS'pos_seq'
p50
(lp51
S'NN'
p52
aS'NNP'
p53
aS'NN'
p54
aS'NNP'
p55
aS'NN'
p56
aS'NN'
p57
asS'ner_seq'
p58
(lp59
S'O'
aS'O'
aS'O'
aS'O'
aS'O'
aS'O'
assb.