ccopy_reg
_reconstructor
p1
(c__main__
KBproperty
p2
c__builtin__
object
p3
NtRp4
(dp5
S'comment'
p6
S'Indication as to the size of the collection of this library'
p7
sS'domain'
p8
S'Library '
p9
sS'instances_count'
p10
S'0'
sS'label'
p11
S'number of items in collection'
p12
sS'range'
p13
S'integer '
p14
sS'prop_uri'
p15
S"'http://dbpedia.org/ontology/numberOfCollectionItems'"
p16
sS'annotations'
p17
(dp18
S'bag_of_words'
p19
(lp20
S'Library'
p21
aS'number'
p22
aS'of'
p23
aS'items'
p24
aS'in'
p25
aS'collection'
p26
aS'integer'
p27
aS'Indication'
p28
aS'as'
p29
aS'to'
p30
aS'the'
p31
aS'size'
p32
aS'of'
p33
aS'the'
p34
aS'collection'
p35
aS'of'
p36
aS'this'
p37
aS'library'
p38
asS'chunk_seq'
p39
(lp40
S'B-NP'
p41
aS'E-NP'
p42
aS'S-PP'
p43
aS'S-NP'
p44
aS'S-PP'
p45
aS'B-NP'
p46
aS'I-NP'
p47
aS'E-NP'
p48
aS'S-PP'
p49
aS'S-PP'
p50
aS'B-NP'
p51
aS'E-NP'
p52
aS'S-PP'
p53
aS'B-NP'
p54
aS'E-NP'
p55
aS'S-PP'
p56
aS'B-NP'
p57
aS'E-NP'
p58
asS'dep_seq'
p59
(lp60
(lp61
S'nn'
p62
aS'2'
aS'1'
aa(lp63
S'root'
p64
aS'0'
aS'2'
aa(lp65
S'prep_of'
p66
aS'2'
aS'4'
aa(lp67
S'nn'
p68
aS'8'
aS'6'
aa(lp69
S'nn'
p70
aS'8'
aS'7'
aa(lp71
S'prep_in'
p72
aS'4'
aS'8'
aa(lp73
S'prepc_as_to'
p74
aS'4'
aS'10'
p75
aa(lp76
S'det'
p77
aS'12'
p78
aS'11'
p79
aa(lp80
S'pobj'
p81
aS'4'
aS'12'
p82
aa(lp83
S'det'
p84
aS'15'
p85
aS'14'
p86
aa(lp87
S'prep_of'
p88
aS'12'
p89
aS'15'
p90
aa(lp91
S'det'
p92
aS'18'
p93
aS'17'
p94
aa(lp95
S'prep_of'
p96
aS'15'
p97
aS'18'
p98
aasS'srls'
p99
(lp100
sS'pos_seq'
p101
(lp102
S'NN'
p103
aS'NN'
p104
aS'IN'
p105
aS'NNS'
p106
aS'IN'
p107
aS'NN'
p108
aS'NN'
p109
aS'NN'
p110
aS'IN'
p111
aS'TO'
p112
aS'DT'
p113
aS'NN'
p114
aS'IN'
p115
aS'DT'
p116
aS'NN'
p117
aS'IN'
p118
aS'DT'
p119
aS'NN'
p120
asS'ner_seq'
p121
(lp122
S'O'
aS'O'
aS'O'
aS'O'
aS'O'
aS'O'
aS'O'
aS'O'
aS'O'
aS'O'
aS'O'
aS'O'
aS'O'
aS'O'
aS'O'
aS'O'
aS'O'
aS'O'
assb.