ccopy_reg
_reconstructor
p1
(c__main__
KBproperty
p2
c__builtin__
object
p3
NtRp4
(dp5
S'comment'
p6
S'Code assigned to Dutch monuments at the municipal level deemed to be of local value'
p7
sS'domain'
p8
S'Place '
p9
sS'instances_count'
p10
S'0'
sS'label'
p11
S'monument code municipal'
p12
sS'range'
p13
S'string '
p14
sS'prop_uri'
p15
S"'http://dbpedia.org/ontology/codeMunicipalMonument'"
p16
sS'annotations'
p17
(dp18
S'bag_of_words'
p19
(lp20
S'Place'
p21
aS'monument'
p22
aS'code'
p23
aS'municipal'
p24
aS'string'
p25
aS'Code'
p26
aS'assigned'
p27
aS'to'
p28
aS'Dutch'
p29
aS'monuments'
p30
aS'at'
p31
aS'the'
p32
aS'municipal'
p33
aS'level'
p34
aS'deemed'
p35
aS'to'
p36
aS'be'
p37
aS'of'
p38
aS'local'
p39
aS'value'
p40
asS'chunk_seq'
p41
(lp42
S'B-NP'
p43
aS'I-NP'
p44
aS'I-NP'
p45
aS'I-NP'
p46
aS'I-NP'
p47
aS'E-NP'
p48
aS'S-VP'
p49
aS'S-PP'
p50
aS'B-NP'
p51
aS'E-NP'
p52
aS'S-PP'
p53
aS'B-NP'
p54
aS'I-NP'
p55
aS'E-NP'
p56
aS'B-VP'
p57
aS'I-VP'
p58
aS'E-VP'
p59
aS'S-PP'
p60
aS'B-NP'
p61
aS'E-NP'
p62
asS'dep_seq'
p63
(lp64
(lp65
S'nn'
p66
aS'6'
aS'1'
aa(lp67
S'nn'
p68
aS'6'
aS'2'
aa(lp69
S'nn'
p70
aS'6'
aS'3'
aa(lp71
S'amod'
p72
aS'6'
aS'4'
aa(lp73
S'nn'
p74
aS'6'
aS'5'
aa(lp75
S'root'
p76
aS'0'
aS'6'
aa(lp77
S'partmod'
p78
aS'6'
aS'7'
aa(lp79
S'amod'
p80
aS'10'
p81
aS'9'
aa(lp82
S'prep_to'
p83
aS'7'
aS'10'
p84
aa(lp85
S'det'
p86
aS'14'
p87
aS'12'
p88
aa(lp89
S'amod'
p90
aS'14'
p91
aS'13'
p92
aa(lp93
S'prep_at'
p94
aS'7'
aS'14'
p95
aa(lp96
S'acomp'
p97
aS'7'
aS'15'
p98
aa(lp99
S'aux'
p100
aS'17'
p101
aS'16'
p102
aa(lp103
S'xcomp'
p104
aS'15'
p105
aS'17'
p106
aa(lp107
S'amod'
p108
aS'20'
p109
aS'19'
p110
aa(lp111
S'prep_of'
p112
aS'17'
p113
aS'20'
p114
aasS'srls'
p115
(lp116
(dp117
S'A1'
p118
S'Place monument code municipal string Code'
p119
sS'AM-LOC'
p120
S'at the municipal level'
p121
sS'A2'
p122
S'to Dutch monuments'
p123
sS'V'
g27
sa(dp124
S'A1'
p125
S'the municipal level'
p126
sS'A2'
p127
S'to be of local value'
p128
sS'V'
g35
sasS'pos_seq'
p129
(lp130
S'NN'
p131
aS'NN'
p132
aS'NN'
p133
aS'JJ'
p134
aS'NN'
p135
aS'NN'
p136
aS'VBN'
p137
aS'TO'
p138
aS'JJ'
p139
aS'NNS'
p140
aS'IN'
p141
aS'DT'
p142
aS'JJ'
p143
aS'NN'
p144
aS'VBN'
p145
aS'TO'
p146
aS'VB'
p147
aS'IN'
p148
aS'JJ'
p149
aS'NN'
p150
asS'ner_seq'
p151
(lp152
S'O'
aS'O'
aS'O'
aS'O'
aS'O'
aS'O'
aS'O'
aS'O'
aS'S-MISC'
p153
aS'O'
aS'O'
aS'O'
aS'O'
aS'O'
aS'O'
aS'O'
aS'O'
aS'O'
aS'O'
aS'O'
assb.