ccopy_reg
_reconstructor
p1
(c__main__
KBproperty
p2
c__builtin__
object
p3
NtRp4
(dp5
S'comment'
p6
S'Print / On-line then binding types etc. if relevant'
p7
sS'domain'
p8
S'Written Work '
p9
sS'instances_count'
p10
S'20656'
p11
sS'label'
p12
S'media type'
p13
sS'range'
p14
S''
sS'prop_uri'
p15
S"'http://dbpedia.org/ontology/mediaType'"
p16
sS'annotations'
p17
(dp18
S'bag_of_words'
p19
(lp20
S'Written'
p21
aS'Work'
p22
aS'media'
p23
aS'type'
p24
aS'Print'
p25
aS'/'
aS'On-line'
p26
aS'then'
p27
aS'binding'
p28
aS'types'
p29
aS'etc.'
p30
aS'if'
p31
aS'relevant'
p32
asS'chunk_seq'
p33
(lp34
S'B-NP'
p35
aS'I-NP'
p36
aS'I-NP'
p37
aS'I-NP'
p38
aS'I-NP'
p39
aS'I-NP'
p40
aS'I-NP'
p41
aS'I-NP'
p42
aS'I-NP'
p43
aS'E-NP'
p44
aS'O'
aS'S-SBAR'
p45
aS'S-ADJP'
p46
asS'dep_seq'
p47
(lp48
(lp49
S'nn'
p50
aS'10'
p51
aS'1'
aa(lp52
S'nn'
p53
aS'10'
p54
aS'2'
aa(lp55
S'nn'
p56
aS'10'
p57
aS'3'
aa(lp58
S'nn'
p59
aS'10'
p60
aS'4'
aa(lp61
S'nn'
p62
aS'10'
p63
aS'5'
aa(lp64
S'punct'
p65
aS'10'
p66
aS'6'
aa(lp67
S'amod'
p68
aS'10'
p69
aS'line'
p70
aa(lp71
S'advmod'
p72
aS'10'
p73
aS'8'
aa(lp74
S'amod'
p75
aS'10'
p76
aS'9'
aa(lp77
S'root'
p78
aS'0'
aS'10'
p79
aa(lp80
S'cc'
p81
aS'10'
p82
aS'11'
p83
aa(lp84
S'dep'
p85
aS'10'
p86
aS'12'
p87
aa(lp88
S'dep'
p89
aS'12'
p90
aS'13'
p91
aasS'srls'
p92
(lp93
(dp94
S'A0'
p95
S'Written Work media type Print / On-line types'
p96
sS'AM-TMP'
p97
g27
sS'V'
g28
sasS'pos_seq'
p98
(lp99
S'NNP'
p100
aS'NNP'
p101
aS'NNS'
p102
aS'NN'
p103
aS'NN'
p104
aS':'
aS'JJ'
p105
aS'RB'
p106
aS'VBG'
p107
aS'NNS'
p108
aS'CC'
p109
aS'IN'
p110
aS'JJ'
p111
asS'ner_seq'
p112
(lp113
S'O'
aS'O'
aS'O'
aS'O'
aS'O'
aS'O'
aS'O'
aS'O'
aS'O'
aS'O'
aS'O'
aS'O'
aS'O'
assb.