ccopy_reg
_reconstructor
p1
(c__main__
KBproperty
p2
c__builtin__
object
p3
NtRp4
(dp5
S'comment'
p6
S''
sS'domain'
p7
S''
sS'instances_count'
p8
S'569'
p9
sS'label'
p10
S'discharge min imperial'
p11
sS'range'
p12
S''
sS'prop_uri'
p13
S"'http://dbpedia.org/property/dischargeMinImperial'"
p14
sS'annotations'
p15
(dp16
S'bag_of_words'
p17
(lp18
S'discharge'
p19
aS'min'
p20
aS'imperial'
p21
asS'chunk_seq'
p22
(lp23
S'B-NP'
p24
aS'E-NP'
p25
aS'S-ADJP'
p26
asS'dep_seq'
p27
(lp28
(lp29
S'root'
p30
aS'0'
aS'1'
aa(lp31
S'dep'
p32
aS'1'
aS'2'
aa(lp33
S'amod'
p34
aS'2'
aS'3'
aasS'srls'
p35
(lp36
(dp37
S'A1'
p38
S'min imperial'
p39
sS'V'
g19
sasS'pos_seq'
p40
(lp41
S'NN'
p42
aS'NN'
p43
aS'JJ'
p44
asS'ner_seq'
p45
(lp46
S'O'
aS'O'
aS'O'
assb.