ccopy_reg
_reconstructor
p1
(c__main__
KBproperty
p2
c__builtin__
object
p3
NtRp4
(dp5
S'comment'
p6
S''
sS'domain'
p7
S'Place '
p8
sS'instances_count'
p9
S'0'
sS'label'
p10
S'linked space'
p11
sS'range'
p12
S'string '
p13
sS'prop_uri'
p14
S"'http://dbpedia.org/ontology/linkedSpace'"
p15
sS'annotations'
p16
(dp17
S'bag_of_words'
p18
(lp19
S'Place'
p20
aS'linked'
p21
aS'space'
p22
aS'string'
p23
asS'chunk_seq'
p24
(lp25
S'S-NP'
p26
aS'S-VP'
p27
aS'B-NP'
p28
aS'E-NP'
p29
asS'dep_seq'
p30
(lp31
(lp32
S'nn'
p33
aS'4'
aS'1'
aa(lp34
S'amod'
p35
aS'4'
aS'2'
aa(lp36
S'nn'
p37
aS'4'
aS'3'
aa(lp38
S'root'
p39
aS'0'
aS'4'
aasS'srls'
p40
(lp41
(dp42
S'A1'
p43
S'space string'
p44
sS'A0'
p45
g20
sS'V'
g21
sasS'pos_seq'
p46
(lp47
S'NN'
p48
aS'VBN'
p49
aS'NN'
p50
aS'NN'
p51
asS'ner_seq'
p52
(lp53
S'O'
aS'O'
aS'O'
aS'O'
assb.