ccopy_reg
_reconstructor
p1
(c__main__
KBproperty
p2
c__builtin__
object
p3
NtRp4
(dp5
S'comment'
p6
S''
sS'domain'
p7
S'Disease '
p8
sS'instances_count'
p9
S'0'
sS'label'
p10
S'geneReviewsName'
p11
sS'range'
p12
S'lang String '
p13
sS'prop_uri'
p14
S"'http://dbpedia.org/ontology/geneReviewsName'"
p15
sS'annotations'
p16
(dp17
S'bag_of_words'
p18
(lp19
S'Disease'
p20
aS'geneReviewsName'
p21
aS'lang'
p22
aS'String'
p23
asS'chunk_seq'
p24
(lp25
S'B-NP'
p26
aS'I-NP'
p27
aS'I-NP'
p28
aS'E-NP'
p29
asS'dep_seq'
p30
(lp31
(lp32
S'nsubj'
p33
aS'2'
aS'1'
aa(lp34
S'root'
p35
aS'0'
aS'2'
aa(lp36
S'amod'
p37
aS'4'
aS'3'
aa(lp38
S'dobj'
p39
aS'2'
aS'4'
aasS'srls'
p40
(lp41
sS'pos_seq'
p42
(lp43
S'NN'
p44
aS'VBD'
p45
aS'VBG'
p46
aS'NN'
p47
asS'ner_seq'
p48
(lp49
S'O'
aS'B-PER'
p50
aS'I-PER'
p51
aS'E-PER'
p52
assb.