ccopy_reg
_reconstructor
p1
(c__main__
KBproperty
p2
c__builtin__
object
p3
NtRp4
(dp5
S'comment'
p6
S''
sS'domain'
p7
S'Golf Player '
p8
sS'instances_count'
p9
S'4'
sS'label'
p10
S'wins at pro tournaments'
p11
sS'range'
p12
S''
sS'prop_uri'
p13
S"'http://dbpedia.org/ontology/winsAtProTournaments'"
p14
sS'annotations'
p15
(dp16
S'bag_of_words'
p17
(lp18
S'Golf'
p19
aS'Player'
p20
aS'wins'
p21
aS'at'
p22
aS'pro'
p23
aS'tournaments'
p24
asS'chunk_seq'
p25
(lp26
S'B-NP'
p27
aS'E-NP'
p28
aS'S-VP'
p29
aS'S-PP'
p30
aS'B-NP'
p31
aS'E-NP'
p32
asS'dep_seq'
p33
(lp34
(lp35
S'nn'
p36
aS'2'
aS'1'
aa(lp37
S'nsubj'
p38
aS'3'
aS'2'
aa(lp39
S'root'
p40
aS'0'
aS'3'
aa(lp41
S'amod'
p42
aS'6'
aS'5'
aa(lp43
S'prep_at'
p44
aS'3'
aS'6'
aasS'srls'
p45
(lp46
(dp47
S'A0'
p48
S'Golf Player'
p49
sS'AM-MNR'
p50
S'at pro tournaments'
p51
sS'V'
g21
sasS'pos_seq'
p52
(lp53
S'NNP'
p54
aS'NNP'
p55
aS'VBZ'
p56
aS'IN'
p57
aS'JJ'
p58
aS'NNS'
p59
asS'ner_seq'
p60
(lp61
S'B-ORG'
p62
aS'E-ORG'
p63
aS'O'
aS'O'
aS'O'
aS'O'
assb.