ccopy_reg
_reconstructor
p1
(c__main__
KBproperty
p2
c__builtin__
object
p3
NtRp4
(dp5
S'comment'
p6
S''
sS'domain'
p7
S'Saint '
p8
sS'instances_count'
p9
S'4671'
p10
sS'label'
p11
S'venerated in'
p12
sS'range'
p13
S'Organisation '
p14
sS'prop_uri'
p15
S"'http://dbpedia.org/ontology/veneratedIn'"
p16
sS'annotations'
p17
(dp18
S'bag_of_words'
p19
(lp20
S'Saint'
p21
aS'venerated'
p22
aS'in'
p23
aS'Organisation'
p24
asS'chunk_seq'
p25
(lp26
S'O'
aS'S-VP'
p27
aS'S-PP'
p28
aS'S-NP'
p29
asS'dep_seq'
p30
(lp31
(lp32
S'nsubj'
p33
aS'2'
aS'1'
aa(lp34
S'root'
p35
aS'0'
aS'2'
aa(lp36
S'prep_in'
p37
aS'2'
aS'4'
aasS'srls'
p38
(lp39
(dp40
S'A1'
p41
g21
sS'AM-LOC'
p42
S'in Organisation'
p43
sS'V'
g22
sasS'pos_seq'
p44
(lp45
S'NNP'
p46
aS'VBN'
p47
aS'IN'
p48
aS'NN'
p49
asS'ner_seq'
p50
(lp51
S'O'
aS'O'
aS'O'
aS'O'
assb.