ccopy_reg
_reconstructor
p1
(c__main__
KBproperty
p2
c__builtin__
object
p3
NtRp4
(dp5
S'comment'
p6
S'ICAO designation for airline companies'
p7
sS'domain'
p8
S'Airline '
p9
sS'instances_count'
p10
S'3356'
p11
sS'label'
p12
S'ICAO code'
p13
sS'range'
p14
S'string '
p15
sS'prop_uri'
p16
S"'http://dbpedia.org/ontology/icaoAirlineCode'"
p17
sS'annotations'
p18
(dp19
S'bag_of_words'
p20
(lp21
S'Airline'
p22
aS'ICAO'
p23
aS'code'
p24
aS'string'
p25
aS'ICAO'
p26
aS'designation'
p27
aS'for'
p28
aS'airline'
p29
aS'companies'
p30
asS'chunk_seq'
p31
(lp32
S'B-NP'
p33
aS'I-NP'
p34
aS'I-NP'
p35
aS'I-NP'
p36
aS'I-NP'
p37
aS'E-NP'
p38
aS'S-PP'
p39
aS'B-NP'
p40
aS'E-NP'
p41
asS'dep_seq'
p42
(lp43
(lp44
S'nn'
p45
aS'6'
aS'1'
aa(lp46
S'nn'
p47
aS'6'
aS'2'
aa(lp48
S'nn'
p49
aS'6'
aS'3'
aa(lp50
S'nn'
p51
aS'6'
aS'4'
aa(lp52
S'nn'
p53
aS'6'
aS'5'
aa(lp54
S'root'
p55
aS'0'
aS'6'
aa(lp56
S'nn'
p57
aS'9'
aS'8'
aa(lp58
S'prep_for'
p59
aS'6'
aS'9'
aasS'srls'
p60
(lp61
sS'pos_seq'
p62
(lp63
S'NNP'
p64
aS'NNP'
p65
aS'NN'
p66
aS'NN'
p67
aS'NNP'
p68
aS'NN'
p69
aS'IN'
p70
aS'NN'
p71
aS'NNS'
p72
asS'ner_seq'
p73
(lp74
S'B-ORG'
p75
aS'E-ORG'
p76
aS'O'
aS'O'
aS'S-ORG'
p77
aS'O'
aS'O'
aS'O'
aS'O'
assb.