ccopy_reg
_reconstructor
p1
(c__main__
KBproperty
p2
c__builtin__
object
p3
NtRp4
(dp5
S'comment'
p6
S'Identify which company or entity holds the licence mostly string are used in Wikipedia therefore range is xsd:sting.'
p7
sS'domain'
p8
S''
sS'instances_count'
p9
S'8921'
p10
sS'label'
p11
S'licensee'
p12
sS'range'
p13
S'string '
p14
sS'prop_uri'
p15
S"'http://dbpedia.org/ontology/licensee'"
p16
sS'annotations'
p17
(dp18
S'bag_of_words'
p19
(lp20
S'licensee'
p21
aS'string'
p22
aS'Identify'
p23
aS'which'
p24
aS'company'
p25
aS'or'
p26
aS'entity'
p27
aS'holds'
p28
aS'the'
p29
aS'licence'
p30
aS'mostly'
p31
aS'string'
p32
aS'are'
p33
aS'used'
p34
aS'in'
p35
aS'Wikipedia'
p36
aS'therefore'
p37
aS'range'
p38
aS'is'
p39
aS'xsd'
p40
aS':'
aS'sting'
p41
aS'.'
asS'chunk_seq'
p42
(lp43
S'B-NP'
p44
aS'I-NP'
p45
aS'I-NP'
p46
aS'I-NP'
p47
aS'I-NP'
p48
aS'I-NP'
p49
aS'E-NP'
p50
aS'S-VP'
p51
aS'B-NP'
p52
aS'E-NP'
p53
aS'B-NP'
p54
aS'E-NP'
p55
aS'B-VP'
p56
aS'E-VP'
p57
aS'S-PP'
p58
aS'S-NP'
p59
aS'S-ADVP'
p60
aS'S-NP'
p61
aS'S-VP'
p62
aS'S-ADJP'
p63
aS'O'
aS'S-NP'
p64
aS'O'
asS'dep_seq'
p65
(lp66
(lp67
S'nn'
p68
aS'5'
aS'1'
aa(lp69
S'nn'
p70
aS'5'
aS'2'
aa(lp71
S'nn'
p72
aS'5'
aS'3'
aa(lp73
S'dep'
p74
aS'5'
aS'4'
aa(lp75
S'nsubj'
p76
aS'20'
p77
aS'5'
aa(lp78
S'conj_or'
p79
aS'5'
aS'7'
aa(lp80
S'dep'
p81
aS'20'
p82
aS'8'
aa(lp83
S'det'
p84
aS'12'
p85
aS'9'
aa(lp86
S'nn'
p87
aS'12'
p88
aS'10'
p89
aa(lp90
S'advmod'
p91
aS'12'
p92
aS'11'
p93
aa(lp94
S'nsubj'
p95
aS'20'
p96
aS'12'
p97
aa(lp98
S'dep'
p99
aS'20'
p100
aS'13'
p101
aa(lp102
S'dep'
p103
aS'20'
p104
aS'14'
p105
aa(lp106
S'prep_in'
p107
aS'20'
p108
aS'16'
p109
aa(lp110
S'advmod'
p111
aS'20'
p112
aS'17'
p113
aa(lp114
S'dep'
p115
aS'20'
p116
aS'18'
p117
aa(lp118
S'cop'
p119
aS'20'
p120
aS'19'
p121
aa(lp122
S'root'
p123
aS'0'
aS'20'
p124
aa(lp125
S'attr'
p126
aS'20'
p127
aS'22'
p128
aasS'srls'
p129
(lp130
(dp131
S'A1'
p132
S'the licence'
p133
sS'A0'
p134
S'licensee string Identify which company or entity'
p135
sS'V'
g28
sa(dp136
S'AM-LOC'
p137
S'in Wikipedia'
p138
sS'V'
g34
sasS'pos_seq'
p139
(lp140
S'NN'
p141
aS'NN'
p142
aS'NNP'
p143
aS'WDT'
p144
aS'NN'
p145
aS'CC'
p146
aS'NN'
p147
aS'VBZ'
p148
aS'DT'
p149
aS'NN'
p150
aS'RB'
p151
aS'NN'
p152
aS'VBP'
p153
aS'VBN'
p154
aS'IN'
p155
aS'NNP'
p156
aS'RB'
p157
aS'NN'
p158
aS'VBZ'
p159
aS'JJ'
p160
aS':'
aS'NN'
p161
aS'.'
asS'ner_seq'
p162
(lp163
S'O'
aS'O'
aS'O'
aS'O'
aS'O'
aS'O'
aS'O'
aS'O'
aS'O'
aS'O'
aS'O'
aS'O'
aS'O'
aS'O'
aS'O'
aS'S-LOC'
p164
aS'O'
aS'O'
aS'O'
aS'O'
aS'O'
aS'O'
aS'O'
assb.