ccopy_reg
_reconstructor
p1
(c__main__
KBproperty
p2
c__builtin__
object
p3
NtRp4
(dp5
S'comment'
p6
S'Cover artist'
p7
sS'domain'
p8
S'Work '
p9
sS'instances_count'
p10
S'3931'
p11
sS'label'
p12
S'cover artist'
p13
sS'range'
p14
S'Person '
p15
sS'prop_uri'
p16
S"'http://dbpedia.org/ontology/coverArtist'"
p17
sS'annotations'
p18
(dp19
S'bag_of_words'
p20
(lp21
S'Work'
p22
aS'cover'
p23
aS'artist'
p24
aS'Person'
p25
aS'Cover'
p26
aS'artist'
p27
asS'chunk_seq'
p28
(lp29
S'S-NP'
p30
aS'S-VP'
p31
aS'O'
aS'O'
aS'S-VP'
p32
aS'O'
asS'dep_seq'
p33
(lp34
(lp35
S'nn'
p36
aS'5'
aS'1'
aa(lp37
S'nn'
p38
aS'5'
aS'2'
aa(lp39
S'nn'
p40
aS'5'
aS'3'
aa(lp41
S'nn'
p42
aS'5'
aS'4'
aa(lp43
S'root'
p44
aS'0'
aS'5'
aa(lp45
S'punct'
p46
aS'5'
aS'6'
aasS'srls'
p47
(lp48
sS'pos_seq'
p49
(lp50
S'NN'
p51
aS'NN'
p52
aS'NN'
p53
aS'NNP'
p54
aS'NNP'
p55
aS'.'
asS'ner_seq'
p56
(lp57
S'O'
aS'O'
aS'O'
aS'O'
aS'O'
aS'O'
assb.