ccopy_reg
_reconstructor
p1
(c__main__
KBproperty
p2
c__builtin__
object
p3
NtRp4
(dp5
S'comment'
p6
S''
sS'domain'
p7
S''
sS'instances_count'
p8
S'12'
p9
sS'label'
p10
S'restore date'
p11
sS'range'
p12
S'date '
p13
sS'prop_uri'
p14
S"'http://dbpedia.org/ontology/restoreDate'"
p15
sS'annotations'
p16
(dp17
S'bag_of_words'
p18
(lp19
S'restore'
p20
aS'date'
p21
aS'date'
p22
asS'chunk_seq'
p23
(lp24
S'S-VP'
p25
aS'B-NP'
p26
aS'E-NP'
p27
asS'dep_seq'
p28
(lp29
(lp30
S'root'
p31
aS'0'
aS'1'
aa(lp32
S'dobj'
p33
aS'1'
aS'2'
aa(lp34
S'iobj'
p35
aS'1'
aS'2'
aa(lp36
S'dobj'
p37
aS'1'
aS'3'
aa(lp38
S'dep'
p39
aS'2'
aS'3'
aasS'srls'
p40
(lp41
(dp42
S'A1'
p43
S'date date'
p44
sS'V'
g20
sasS'pos_seq'
p45
(lp46
S'VB'
p47
aS'NN'
p48
aS'NN'
p49
asS'ner_seq'
p50
(lp51
S'O'
aS'O'
aS'O'
assb.