ccopy_reg
_reconstructor
p1
(c__main__
KBproperty
p2
c__builtin__
object
p3
NtRp4
(dp5
S'comment'
p6
S'The theatre and/or city the play was first performed in.'
p7
sS'domain'
p8
S'Play '
p9
sS'instances_count'
p10
S'1902'
p11
sS'label'
p12
S'premiere place'
p13
sS'range'
p14
S''
sS'prop_uri'
p15
S"'http://dbpedia.org/ontology/premierePlace'"
p16
sS'annotations'
p17
(dp18
S'bag_of_words'
p19
(lp20
S'Play'
p21
aS'premiere'
p22
aS'place'
p23
aS'The'
p24
aS'theatre'
p25
aS'and/or'
p26
aS'city'
p27
aS'the'
p28
aS'play'
p29
aS'was'
p30
aS'first'
p31
aS'performed'
p32
aS'in.'
p33
asS'chunk_seq'
p34
(lp35
S'S-VP'
p36
aS'B-NP'
p37
aS'E-NP'
p38
aS'B-NP'
p39
aS'E-NP'
p40
aS'S-PP'
p41
aS'S-NP'
p42
aS'B-NP'
p43
aS'E-NP'
p44
aS'B-VP'
p45
aS'I-VP'
p46
aS'E-VP'
p47
aS'O'
asS'dep_seq'
p48
(lp49
(lp50
S'root'
p51
aS'0'
aS'1'
aa(lp52
S'nn'
p53
aS'3'
aS'2'
aa(lp54
S'iobj'
p55
aS'1'
aS'3'
aa(lp56
S'det'
p57
aS'5'
aS'4'
aa(lp58
S'dobj'
p59
aS'1'
aS'5'
aa(lp60
S'prep_and/or'
p61
aS'5'
aS'7'
aa(lp62
S'det'
p63
aS'9'
aS'8'
aa(lp64
S'dep'
p65
aS'7'
aS'9'
aa(lp66
S'dep'
p67
aS'1'
aS'10'
p68
aa(lp69
S'advmod'
p70
aS'1'
aS'11'
p71
aa(lp72
S'dep'
p73
aS'1'
aS'12'
p74
aa(lp75
S'punct'
p76
aS'1'
aS'13'
p77
aasS'srls'
p78
(lp79
(dp80
S'A1'
p81
S'premiere place The theatre and/or city the play'
p82
sS'V'
g21
sa(dp83
S'A1'
p84
S'the play'
p85
sS'AM-TMP'
p86
g31
sS'V'
g32
sasS'pos_seq'
p87
(lp88
S'VB'
p89
aS'NN'
p90
aS'NN'
p91
aS'DT'
p92
aS'NN'
p93
aS'IN'
p94
aS'NN'
p95
aS'DT'
p96
aS'NN'
p97
aS'VBD'
p98
aS'RB'
p99
aS'VBN'
p100
aS'.'
asS'ner_seq'
p101
(lp102
S'O'
aS'O'
aS'O'
aS'O'
aS'O'
aS'O'
aS'O'
aS'O'
aS'O'
aS'O'
aS'O'
aS'O'
aS'O'
assb.