ccopy_reg
_reconstructor
p1
(c__main__
KBproperty
p2
c__builtin__
object
p3
NtRp4
(dp5
S'comment'
p6
S'discharge average m\\xc2\\xb3/s'
p7
sS'domain'
p8
S'Mean Of Transportation '
p9
sS'instances_count'
p10
S'152'
p11
sS'label'
p12
g7
sS'range'
p13
S'double '
p14
sS'prop_uri'
p15
S"'http://dbpedia.org/ontology/dischargeAverage'"
p16
sS'annotations'
p17
(dp18
S'bag_of_words'
p19
(lp20
S'Mean'
p21
aS'Of'
p22
aS'Transportation'
p23
aS'discharge'
p24
aS'Average'
p25
aS'double'
p26
aS'discharge'
p27
aS'average'
p28
aS'm'
aS'\\'
aS'xc2'
p29
aS'\\'
aS'xb3'
p30
aS'/s'
p31
asS'chunk_seq'
p32
(lp33
S'S-NP'
p34
aS'S-PP'
p35
aS'B-NP'
p36
aS'I-NP'
p37
aS'I-NP'
p38
aS'I-NP'
p39
aS'E-NP'
p40
aS'S-NP'
p41
aS'O'
aS'O'
aS'O'
aS'O'
aS'O'
aS'O'
asS'dep_seq'
p42
(lp43
(lp44
S'nsubj'
p45
aS'4'
aS'1'
aa(lp46
S'prep_of'
p47
aS'4'
aS'3'
aa(lp48
S'root'
p49
aS'0'
aS'4'
aa(lp50
S'amod'
p51
aS'8'
aS'5'
aa(lp52
S'amod'
p53
aS'8'
aS'6'
aa(lp54
S'nn'
p55
aS'8'
aS'7'
aa(lp56
S'dobj'
p57
aS'4'
aS'8'
aa(lp58
S'nn'
p59
aS'8'
aS'9'
aa(lp60
S'nn'
p61
aS'8'
aS'10'
p62
aa(lp63
S'nn'
p64
aS'8'
aS'11'
p65
aa(lp66
S'nn'
p67
aS'8'
aS'12'
p68
aa(lp69
S'dep'
p70
aS'8'
aS'13'
p71
aa(lp72
S'punct'
p73
aS'8'
aS'14'
p74
aasS'srls'
p75
(lp76
sS'pos_seq'
p77
(lp78
S'NNP'
p79
aS'IN'
p80
aS'NN'
p81
aS'NN'
p82
aS'JJ'
p83
aS'JJ'
p84
aS'NN'
p85
aS'NN'
p86
aS'FW'
p87
aS'FW'
p88
aS'FW'
p89
aS'FW'
p90
aS'FW'
p91
aS'.'
asS'ner_seq'
p92
(lp93
S'O'
aS'O'
aS'O'
aS'O'
aS'O'
aS'O'
aS'O'
aS'O'
aS'O'
aS'O'
aS'O'
aS'O'
aS'O'
aS'O'
assb.