ccopy_reg
_reconstructor
p1
(c__main__
KBproperty
p2
c__builtin__
object
p3
NtRp4
(dp5
S'comment'
p6
S''
sS'domain'
p7
S'Body Of Water '
p8
sS'instances_count'
p9
S'432'
p10
sS'label'
p11
S'frozen'
p12
sS'range'
p13
S'string '
p14
sS'prop_uri'
p15
S"'http://dbpedia.org/ontology/frozen'"
p16
sS'annotations'
p17
(dp18
S'bag_of_words'
p19
(lp20
S'Body'
p21
aS'Of'
p22
aS'Water'
p23
aS'frozen'
p24
aS'string'
p25
asS'chunk_seq'
p26
(lp27
S'S-NP'
p28
aS'S-PP'
p29
aS'B-NP'
p30
aS'I-NP'
p31
aS'E-NP'
p32
asS'dep_seq'
p33
(lp34
(lp35
S'dep'
p36
aS'5'
aS'1'
aa(lp37
S'prep_of'
p38
aS'1'
aS'3'
aa(lp39
S'amod'
p40
aS'5'
aS'4'
aa(lp41
S'root'
p42
aS'0'
aS'5'
aasS'srls'
p43
(lp44
sS'pos_seq'
p45
(lp46
S'NN'
p47
aS'IN'
p48
aS'NNP'
p49
aS'JJ'
p50
aS'NN'
p51
asS'ner_seq'
p52
(lp53
S'B-ORG'
p54
aS'I-ORG'
p55
aS'E-ORG'
p56
aS'O'
aS'O'
assb.