ccopy_reg
_reconstructor
p1
(c__main__
KBproperty
p2
c__builtin__
object
p3
NtRp4
(dp5
S'comment'
p6
S'End of the route. The opposite of OntologyProperty:routeStartDirection.'
p7
sS'domain'
p8
S'Route Of Transportation '
p9
sS'instances_count'
p10
S'15582'
p11
sS'label'
p12
S'road end direction'
p13
sS'range'
p14
S'string '
p15
sS'prop_uri'
p16
S"'http://dbpedia.org/ontology/routeEndDirection'"
p17
sS'annotations'
p18
(dp19
S'bag_of_words'
p20
(lp21
S'Route'
p22
aS'Of'
p23
aS'Transportation'
p24
aS'road'
p25
aS'end'
p26
aS'direction'
p27
aS'string'
p28
aS'End'
p29
aS'of'
p30
aS'the'
p31
aS'route'
p32
aS'.'
aS'The'
p33
aS'opposite'
p34
aS'of'
p35
aS'OntologyProperty'
p36
aS':'
aS'routeStartDirection'
p37
aS'.'
asS'chunk_seq'
p38
(lp39
S'S-NP'
p40
aS'S-PP'
p41
aS'B-NP'
p42
aS'I-NP'
p43
aS'I-NP'
p44
aS'I-NP'
p45
aS'I-NP'
p46
aS'E-NP'
p47
aS'S-PP'
p48
aS'B-NP'
p49
aS'E-NP'
p50
aS'O'
aS'B-NP'
p51
aS'E-NP'
p52
aS'S-PP'
p53
aS'S-NP'
p54
aS'O'
aS'S-NP'
p55
aS'O'
asS'dep_seq'
p56
(lp57
(lp58
S'dep'
p59
aS'14'
p60
aS'1'
aa(lp61
S'nn'
p62
aS'8'
aS'3'
aa(lp63
S'nn'
p64
aS'8'
aS'4'
aa(lp65
S'nn'
p66
aS'8'
aS'5'
aa(lp67
S'nn'
p68
aS'8'
aS'6'
aa(lp69
S'nn'
p70
aS'8'
aS'7'
aa(lp71
S'prep_of'
p72
aS'14'
p73
aS'8'
aa(lp74
S'det'
p75
aS'11'
p76
aS'10'
p77
aa(lp78
S'prep_of'
p79
aS'8'
aS'11'
p80
aa(lp81
S'det'
p82
aS'14'
p83
aS'13'
p84
aa(lp85
S'root'
p86
aS'0'
aS'14'
p87
aa(lp88
S'prep_of'
p89
aS'14'
p90
aS'16'
p91
aa(lp92
S'dep'
p93
aS'14'
p94
aS'18'
p95
aasS'srls'
p96
(lp97
sS'pos_seq'
p98
(lp99
S'NNP'
p100
aS'IN'
p101
aS'NNP'
p102
aS'NN'
p103
aS'NN'
p104
aS'NN'
p105
aS'NN'
p106
aS'NN'
p107
aS'IN'
p108
aS'DT'
p109
aS'NN'
p110
aS'.'
aS'DT'
p111
aS'NN'
p112
aS'IN'
p113
aS'NNP'
p114
aS':'
aS'NN'
p115
aS'.'
asS'ner_seq'
p116
(lp117
S'B-ORG'
p118
aS'I-ORG'
p119
aS'E-ORG'
p120
aS'O'
aS'O'
aS'O'
aS'O'
aS'O'
aS'O'
aS'O'
aS'O'
aS'O'
aS'O'
aS'O'
aS'O'
aS'S-LOC'
p121
aS'O'
aS'S-LOC'
p122
aS'O'
assb.