ccopy_reg
_reconstructor
p1
(c__main__
KBproperty
p2
c__builtin__
object
p3
NtRp4
(dp5
S'comment'
p6
S''
sS'domain'
p7
S''
sS'instances_count'
p8
S'174157'
p9
sS'label'
p10
S'utc offset DST'
p11
sS'range'
p12
S''
sS'prop_uri'
p13
S"'http://dbpedia.org/property/utcOffsetDst'"
p14
sS'annotations'
p15
(dp16
S'bag_of_words'
p17
(lp18
S'utc'
p19
aS'offset'
p20
aS'DST'
p21
asS'chunk_seq'
p22
(lp23
S'B-NP'
p24
aS'I-NP'
p25
aS'E-NP'
p26
asS'dep_seq'
p27
(lp28
(lp29
S'dep'
p30
aS'3'
aS'1'
aa(lp31
S'dep'
p32
aS'3'
aS'2'
aa(lp33
S'root'
p34
aS'0'
aS'3'
aasS'srls'
p35
(lp36
(dp37
S'A1'
p38
g21
sS'A2'
p39
g19
sS'V'
g20
sasS'pos_seq'
p40
(lp41
S'FW'
p42
aS'FW'
p43
aS'NNP'
p44
asS'ner_seq'
p45
(lp46
S'O'
aS'O'
aS'S-LOC'
p47
assb.