ccopy_reg
_reconstructor
p1
(c__main__
KBproperty
p2
c__builtin__
object
p3
NtRp4
(dp5
S'comment'
p6
S'population percentage under 12 years'
p7
sS'domain'
p8
S'Populated Place '
p9
sS'instances_count'
p10
S'0'
sS'label'
p11
g7
sS'range'
p12
S'non Negative Integer '
p13
sS'prop_uri'
p14
S"'http://dbpedia.org/ontology/populationPctChildren'"
p15
sS'annotations'
p16
(dp17
S'bag_of_words'
p18
(lp19
S'Populated'
p20
aS'Place'
p21
aS'population'
p22
aS'Pct'
p23
aS'Children'
p24
aS'non'
p25
aS'Negative'
p26
aS'Integer'
p27
aS'population'
p28
aS'percentage'
p29
aS'under'
p30
aS'12'
p31
aS'years'
p32
asS'chunk_seq'
p33
(lp34
S'B-NP'
p35
aS'I-NP'
p36
aS'E-NP'
p37
aS'B-NP'
p38
aS'E-NP'
p39
aS'B-NP'
p40
aS'I-NP'
p41
aS'I-NP'
p42
aS'I-NP'
p43
aS'E-NP'
p44
aS'S-PP'
p45
aS'B-NP'
p46
aS'E-NP'
p47
asS'dep_seq'
p48
(lp49
(lp50
S'amod'
p51
aS'4'
aS'1'
aa(lp52
S'nn'
p53
aS'4'
aS'2'
aa(lp54
S'nn'
p55
aS'4'
aS'3'
aa(lp56
S'dep'
p57
aS'10'
p58
aS'4'
aa(lp59
S'nn'
p60
aS'10'
p61
aS'5'
aa(lp62
S'amod'
p63
aS'7'
aS'6'
aa(lp64
S'amod'
p65
aS'10'
p66
aS'7'
aa(lp67
S'nn'
p68
aS'10'
p69
aS'8'
aa(lp70
S'nn'
p71
aS'10'
p72
aS'9'
aa(lp73
S'root'
p74
aS'0'
aS'10'
p75
aa(lp76
S'num'
p77
aS'13'
p78
aS'12'
p79
aa(lp80
S'prep_under'
p81
aS'10'
p82
aS'13'
p83
aasS'srls'
p84
(lp85
sS'pos_seq'
p86
(lp87
S'JJ'
p88
aS'NN'
p89
aS'NN'
p90
aS'NNP'
p91
aS'NNP'
p92
aS'JJ'
p93
aS'JJ'
p94
aS'NN'
p95
aS'NN'
p96
aS'NN'
p97
aS'IN'
p98
aS'CD'
p99
aS'NNS'
p100
asS'ner_seq'
p101
(lp102
S'O'
aS'O'
aS'O'
aS'O'
aS'O'
aS'O'
aS'B-MISC'
p103
aS'E-MISC'
p104
aS'O'
aS'O'
aS'O'
aS'O'
aS'O'
assb.