ccopy_reg
_reconstructor
p1
(c__main__
KBproperty
p2
c__builtin__
object
p3
NtRp4
(dp5
S'comment'
p6
S'Number of lawyers or attorneys in the company.'
p7
sS'domain'
p8
S'Law Firm '
p9
sS'instances_count'
p10
S'415'
p11
sS'label'
p12
S'number of lawyers'
p13
sS'range'
p14
S'non Negative Integer '
p15
sS'prop_uri'
p16
S"'http://dbpedia.org/ontology/numberOfLawyers'"
p17
sS'annotations'
p18
(dp19
S'bag_of_words'
p20
(lp21
S'Law'
p22
aS'Firm'
p23
aS'number'
p24
aS'of'
p25
aS'lawyers'
p26
aS'non'
p27
aS'Negative'
p28
aS'Integer'
p29
aS'Number'
p30
aS'of'
p31
aS'lawyers'
p32
aS'or'
p33
aS'attorneys'
p34
aS'in'
p35
aS'the'
p36
aS'company.'
p37
asS'chunk_seq'
p38
(lp39
S'B-NP'
p40
aS'I-NP'
p41
aS'E-NP'
p42
aS'S-PP'
p43
aS'S-NP'
p44
aS'B-NP'
p45
aS'I-NP'
p46
aS'I-NP'
p47
aS'E-NP'
p48
aS'S-PP'
p49
aS'B-NP'
p50
aS'I-NP'
p51
aS'E-NP'
p52
aS'S-PP'
p53
aS'B-NP'
p54
aS'E-NP'
p55
asS'dep_seq'
p56
(lp57
(lp58
S'nn'
p59
aS'3'
aS'1'
aa(lp60
S'nn'
p61
aS'3'
aS'2'
aa(lp62
S'nn'
p63
aS'9'
aS'3'
aa(lp64
S'prep_of'
p65
aS'9'
aS'5'
aa(lp66
S'possessive'
p67
aS'9'
aS'6'
aa(lp68
S'nn'
p69
aS'9'
aS'7'
aa(lp70
S'nn'
p71
aS'9'
aS'8'
aa(lp72
S'root'
p73
aS'0'
aS'9'
aa(lp74
S'prep_of'
p75
aS'9'
aS'11'
p76
aa(lp77
S'conj_or'
p78
aS'11'
p79
aS'13'
p80
aa(lp81
S'dep'
p82
aS'9'
aS'14'
p83
aa(lp84
S'det'
p85
aS'16'
p86
aS'15'
p87
aa(lp88
S'pobj'
p89
aS'14'
p90
aS'16'
p91
aasS'srls'
p92
(lp93
sS'pos_seq'
p94
(lp95
S'NNP'
p96
aS'NNP'
p97
aS'NN'
p98
aS'IN'
p99
aS'NNS'
p100
aS'POS'
p101
aS'NNP'
p102
aS'NNP'
p103
aS'NNP'
p104
aS'IN'
p105
aS'NNS'
p106
aS'CC'
p107
aS'NNS'
p108
aS'IN'
p109
aS'DT'
p110
aS'NN'
p111
asS'ner_seq'
p112
(lp113
S'O'
aS'O'
aS'O'
aS'O'
aS'O'
aS'O'
aS'O'
aS'O'
aS'O'
aS'O'
aS'O'
aS'O'
aS'O'
aS'O'
aS'O'
aS'O'
assb.