ccopy_reg
_reconstructor
p1
(c__main__
KBproperty
p2
c__builtin__
object
p3
NtRp4
(dp5
S'comment'
p6
S''
sS'domain'
p7
S'Populated Place '
p8
sS'instances_count'
p9
S'0'
sS'label'
p10
S'gross domestic product purchasing power parity per capita'
p11
sS'range'
p12
S'Gross Domestic Product Per Capita '
p13
sS'prop_uri'
p14
S"'http://dbpedia.org/ontology/grossDomesticProductPurchasingPowerParityPerCapita'"
p15
sS'annotations'
p16
(dp17
S'bag_of_words'
p18
(lp19
S'Populated'
p20
aS'Place'
p21
aS'gross'
p22
aS'domestic'
p23
aS'product'
p24
aS'purchasing'
p25
aS'power'
p26
aS'parity'
p27
aS'per'
p28
aS'capita'
p29
aS'Gross'
p30
aS'Domestic'
p31
aS'Product'
p32
aS'Per'
p33
aS'Capita'
p34
asS'chunk_seq'
p35
(lp36
S'B-NP'
p37
aS'I-NP'
p38
aS'I-NP'
p39
aS'I-NP'
p40
aS'E-NP'
p41
aS'S-VP'
p42
aS'B-NP'
p43
aS'E-NP'
p44
aS'S-PP'
p45
aS'B-NP'
p46
aS'I-NP'
p47
aS'I-NP'
p48
aS'E-NP'
p49
aS'B-NP'
p50
aS'E-NP'
p51
asS'dep_seq'
p52
(lp53
(lp54
S'amod'
p55
aS'8'
aS'1'
aa(lp56
S'nn'
p57
aS'8'
aS'2'
aa(lp58
S'amod'
p59
aS'8'
aS'3'
aa(lp60
S'amod'
p61
aS'8'
aS'4'
aa(lp62
S'nn'
p63
aS'8'
aS'5'
aa(lp64
S'amod'
p65
aS'8'
aS'6'
aa(lp66
S'nn'
p67
aS'8'
aS'7'
aa(lp68
S'root'
p69
aS'0'
aS'8'
aa(lp70
S'nn'
p71
aS'15'
p72
aS'10'
p73
aa(lp74
S'nn'
p75
aS'15'
p76
aS'11'
p77
aa(lp78
S'nn'
p79
aS'15'
p80
aS'12'
p81
aa(lp82
S'nn'
p83
aS'15'
p84
aS'13'
p85
aa(lp86
S'nn'
p87
aS'15'
p88
aS'14'
p89
aa(lp90
S'prep_per'
p91
aS'8'
aS'15'
p92
aasS'srls'
p93
(lp94
(dp95
S'V'
g25
sasS'pos_seq'
p96
(lp97
S'VBN'
p98
aS'NN'
p99
aS'JJ'
p100
aS'JJ'
p101
aS'NN'
p102
aS'VBG'
p103
aS'NN'
p104
aS'NN'
p105
aS'IN'
p106
aS'NN'
p107
aS'NNP'
p108
aS'NNP'
p109
aS'NNP'
p110
aS'NNP'
p111
aS'NNP'
p112
asS'ner_seq'
p113
(lp114
S'O'
aS'O'
aS'O'
aS'O'
aS'O'
aS'O'
aS'O'
aS'O'
aS'O'
aS'O'
aS'O'
aS'O'
aS'O'
aS'O'
aS'O'
assb.