ccopy_reg
_reconstructor
p1
(c__main__
KBproperty
p2
c__builtin__
object
p3
NtRp4
(dp5
S'comment'
p6
S"specifies the colour type of the film i.e. 'colour' or 'b/w'"
p7
sS'domain'
p8
S'Film '
p9
sS'instances_count'
p10
S'0'
sS'label'
p11
S'film colour type'
p12
sS'range'
p13
S'string '
p14
sS'prop_uri'
p15
S"'http://dbpedia.org/ontology/filmColourType'"
p16
sS'annotations'
p17
(dp18
S'bag_of_words'
p19
(lp20
S'Film'
p21
aS'film'
p22
aS'colour'
p23
aS'type'
p24
aS'string'
p25
aS'specifies'
p26
aS'the'
p27
aS'colour'
p28
aS'type'
p29
aS'of'
p30
aS'the'
p31
aS'film'
p32
aS'i.e.'
p33
aS"'c"
p34
aS'olour'
p35
aS"'"
aS'or'
p36
aS"'b"
p37
aS'/'
aS'w'
aS"'"
asS'chunk_seq'
p38
(lp39
S'B-NP'
p40
aS'I-NP'
p41
aS'I-NP'
p42
aS'I-NP'
p43
aS'E-NP'
p44
aS'S-VP'
p45
aS'B-NP'
p46
aS'I-NP'
p47
aS'E-NP'
p48
aS'S-PP'
p49
aS'B-NP'
p50
aS'E-NP'
p51
aS'O'
aS'O'
aS'S-NP'
p52
aS'O'
aS'O'
aS'S-NP'
p53
aS'O'
aS'O'
aS'O'
asS'dep_seq'
p54
(lp55
(lp56
S'nn'
p57
aS'5'
aS'1'
aa(lp58
S'nn'
p59
aS'5'
aS'2'
aa(lp60
S'nn'
p61
aS'5'
aS'3'
aa(lp62
S'nn'
p63
aS'5'
aS'4'
aa(lp64
S'dep'
p65
aS'20'
p66
aS'5'
aa(lp67
S'dep'
p68
aS'20'
p69
aS'6'
aa(lp70
S'det'
p71
aS'9'
aS'7'
aa(lp72
S'nn'
p73
aS'9'
aS'8'
aa(lp74
S'dep'
p75
aS'20'
p76
aS'9'
aa(lp77
S'det'
p78
aS'12'
p79
aS'11'
p80
aa(lp81
S'prep_of'
p82
aS'9'
aS'12'
p83
aa(lp84
S'dep'
p85
aS'20'
p86
aS'13'
p87
aa(lp88
S'nn'
p89
aS'20'
p90
aS'14'
p91
aa(lp92
S'nn'
p93
aS'20'
p94
aS'15'
p95
aa(lp96
S'nn'
p97
aS'20'
p98
aS'17'
p99
aa(lp100
S'nn'
p101
aS'20'
p102
aS'18'
p103
aa(lp104
S'nn'
p105
aS'20'
p106
aS'19'
p107
aa(lp108
S'root'
p109
aS'0'
aS'20'
p110
aasS'srls'
p111
(lp112
(dp113
S'A1'
p114
S"the colour type of the film i.e. 'c olour ' or 'b / w '"
p115
sS'A0'
p116
S'Film film colour type string'
p117
sS'V'
g26
sasS'pos_seq'
p118
(lp119
S'NN'
p120
aS'NN'
p121
aS'NN'
p122
aS'NN'
p123
aS'NN'
p124
aS'VBZ'
p125
aS'DT'
p126
aS'NN'
p127
aS'NN'
p128
aS'IN'
p129
aS'DT'
p130
aS'NN'
p131
aS'FW'
p132
aS'FW'
p133
aS'FW'
p134
aS'FW'
p135
aS'FW'
p136
aS'FW'
p137
aS'FW'
p138
aS'FW'
p139
aS"''"
p140
asS'ner_seq'
p141
(lp142
S'O'
aS'O'
aS'O'
aS'O'
aS'O'
aS'O'
aS'O'
aS'O'
aS'O'
aS'O'
aS'O'
aS'O'
aS'O'
aS'O'
aS'O'
aS'O'
aS'O'
aS'O'
aS'O'
aS'O'
aS'O'
assb.