ccopy_reg
_reconstructor
p1
(c__main__
KBproperty
p2
c__builtin__
object
p3
NtRp4
(dp5
S'comment'
p6
S'Indexing code used by the Bulgarian National Statistical Institute to identify populated places'
p7
sS'domain'
p8
S'Populated Place '
p9
sS'instances_count'
p10
S'0'
sS'label'
p11
S'EKATTE code'
p12
sS'range'
p13
S'string '
p14
sS'prop_uri'
p15
S"'http://dbpedia.org/ontology/ekatteCode'"
p16
sS'annotations'
p17
(dp18
S'bag_of_words'
p19
(lp20
S'Populated'
p21
aS'Place'
p22
aS'EKATTE'
p23
aS'code'
p24
aS'string'
p25
aS'Indexing'
p26
aS'code'
p27
aS'used'
p28
aS'by'
p29
aS'the'
p30
aS'Bulgarian'
p31
aS'National'
p32
aS'Statistical'
p33
aS'Institute'
p34
aS'to'
p35
aS'identify'
p36
aS'populated'
p37
aS'places'
p38
asS'chunk_seq'
p39
(lp40
S'B-NP'
p41
aS'I-NP'
p42
aS'I-NP'
p43
aS'I-NP'
p44
aS'I-NP'
p45
aS'I-NP'
p46
aS'E-NP'
p47
aS'S-VP'
p48
aS'S-PP'
p49
aS'B-NP'
p50
aS'I-NP'
p51
aS'I-NP'
p52
aS'I-NP'
p53
aS'E-NP'
p54
aS'B-VP'
p55
aS'E-VP'
p56
aS'B-NP'
p57
aS'E-NP'
p58
asS'dep_seq'
p59
(lp60
(lp61
S'amod'
p62
aS'7'
aS'1'
aa(lp63
S'nn'
p64
aS'7'
aS'2'
aa(lp65
S'nn'
p66
aS'7'
aS'3'
aa(lp67
S'nn'
p68
aS'7'
aS'4'
aa(lp69
S'nn'
p70
aS'7'
aS'5'
aa(lp71
S'nn'
p72
aS'7'
aS'6'
aa(lp73
S'root'
p74
aS'0'
aS'7'
aa(lp75
S'partmod'
p76
aS'7'
aS'8'
aa(lp77
S'det'
p78
aS'14'
p79
aS'10'
p80
aa(lp81
S'amod'
p82
aS'14'
p83
aS'11'
p84
aa(lp85
S'nn'
p86
aS'14'
p87
aS'12'
p88
aa(lp89
S'nn'
p90
aS'14'
p91
aS'13'
p92
aa(lp93
S'agent'
p94
aS'8'
aS'14'
p95
aa(lp96
S'aux'
p97
aS'16'
p98
aS'15'
p99
aa(lp100
S'infmod'
p101
aS'7'
aS'16'
p102
aa(lp103
S'amod'
p104
aS'18'
p105
aS'17'
p106
aa(lp107
S'dobj'
p108
aS'16'
p109
aS'18'
p110
aasS'srls'
p111
(lp112
(dp113
S'A1'
p114
S'EKATTE code string Indexing code'
p115
sS'A0'
p116
S'by the Bulgarian National Statistical Institute'
p117
sS'AM-PNC'
p118
S'to identify populated places'
p119
sS'V'
g28
sa(dp120
S'A1'
p121
S'populated places'
p122
sS'A0'
p123
S'Populated Place EKATTE code string Indexing code used by the Bulgarian National Statistical Institute'
p124
sS'V'
g36
sasS'pos_seq'
p125
(lp126
S'VBN'
p127
aS'NNP'
p128
aS'NNP'
p129
aS'NN'
p130
aS'NN'
p131
aS'NN'
p132
aS'NN'
p133
aS'VBN'
p134
aS'IN'
p135
aS'DT'
p136
aS'JJ'
p137
aS'NNP'
p138
aS'NNP'
p139
aS'NNP'
p140
aS'TO'
p141
aS'VB'
p142
aS'JJ'
p143
aS'NNS'
p144
asS'ner_seq'
p145
(lp146
S'O'
aS'O'
aS'S-MISC'
p147
aS'O'
aS'O'
aS'O'
aS'O'
aS'O'
aS'O'
aS'O'
aS'B-ORG'
p148
aS'I-ORG'
p149
aS'I-ORG'
p150
aS'E-ORG'
p151
aS'O'
aS'O'
aS'O'
aS'O'
assb.