ccopy_reg
_reconstructor
p1
(c__main__
KBproperty
p2
c__builtin__
object
p3
NtRp4
(dp5
S'comment'
p6
S''
sS'domain'
p7
S''
sS'instances_count'
p8
S'3'
sS'label'
p9
S'r7-number'
p10
sS'range'
p11
S''
sS'prop_uri'
p12
S"'http://dbpedia.org/property/r7Number'"
p13
sS'annotations'
p14
(dp15
S'bag_of_words'
p16
(lp17
S'r7'
p18
aS'-'
aS'number'
p19
asS'chunk_seq'
p20
(lp21
S'B-NP'
p22
aS'I-NP'
p23
aS'E-NP'
p24
asS'dep_seq'
p25
(lp26
(lp27
S'dep'
p28
aS'3'
aS'1'
aa(lp29
S'root'
p30
aS'0'
aS'3'
aasS'srls'
p31
(lp32
sS'pos_seq'
p33
(lp34
S'SYM'
p35
aS':'
aS'NN'
p36
asS'ner_seq'
p37
(lp38
S'O'
aS'O'
aS'O'
assb.