ccopy_reg
_reconstructor
p1
(c__main__
KBproperty
p2
c__builtin__
object
p3
NtRp4
(dp5
S'comment'
p6
S'lethal when given to rats'
p7
sS'domain'
p8
S'Chemical Substance '
p9
sS'instances_count'
p10
S'0'
sS'label'
p11
g7
sS'range'
p12
S'string '
p13
sS'prop_uri'
p14
S"'http://dbpedia.org/ontology/lethalOnRats'"
p15
sS'annotations'
p16
(dp17
S'bag_of_words'
p18
(lp19
S'Chemical'
p20
aS'Substance'
p21
aS'lethal'
p22
aS'On'
p23
aS'Rats'
p24
aS'string'
p25
aS'lethal'
p26
aS'when'
p27
aS'given'
p28
aS'to'
p29
aS'rats'
p30
asS'chunk_seq'
p31
(lp32
S'B-NP'
p33
aS'E-NP'
p34
aS'S-ADJP'
p35
aS'S-PP'
p36
aS'S-NP'
p37
aS'S-VP'
p38
aS'S-ADJP'
p39
aS'S-ADVP'
p40
aS'S-PP'
p41
aS'S-PP'
p42
aS'S-NP'
p43
asS'dep_seq'
p44
(lp45
(lp46
S'nn'
p47
aS'2'
aS'1'
aa(lp48
S'root'
p49
aS'0'
aS'2'
aa(lp50
S'amod'
p51
aS'2'
aS'3'
aa(lp52
S'nn'
p53
aS'6'
aS'5'
aa(lp54
S'prep_on'
p55
aS'2'
aS'6'
aa(lp56
S'amod'
p57
aS'2'
aS'7'
aa(lp58
S'advmod'
p59
aS'9'
aS'8'
aa(lp60
S'prep'
p61
aS'7'
aS'9'
aa(lp62
S'pcomp'
p63
aS'9'
aS'10'
p64
aa(lp65
S'pobj'
p66
aS'10'
p67
aS'11'
p68
aasS'srls'
p69
(lp70
(dp71
S'A2'
p72
S'to rats'
p73
sS'V'
g28
sasS'pos_seq'
p74
(lp75
S'NNP'
p76
aS'NNP'
p77
aS'JJ'
p78
aS'IN'
p79
aS'NNS'
p80
aS'NN'
p81
aS'JJ'
p82
aS'WRB'
p83
aS'VBN'
p84
aS'TO'
p85
aS'NNS'
p86
asS'ner_seq'
p87
(lp88
S'O'
aS'O'
aS'O'
aS'O'
aS'O'
aS'O'
aS'O'
aS'O'
aS'O'
aS'O'
aS'O'
assb.