ccopy_reg
_reconstructor
p1
(c__main__
KBproperty
p2
c__builtin__
object
p3
NtRp4
(dp5
S'comment'
p6
S'The common name of an entity. Frequently foaf:name is used for all of the different names of a person; this property just defines the most commonly used name.'
p7
sS'domain'
p8
S''
sS'instances_count'
p9
S'5'
sS'label'
p10
S'common name'
p11
sS'range'
p12
S'lang String '
p13
sS'prop_uri'
p14
S"'http://dbpedia.org/ontology/commonName'"
p15
sS'annotations'
p16
(dp17
S'bag_of_words'
p18
(lp19
S'common'
p20
aS'name'
p21
aS'lang'
p22
aS'String'
p23
aS'The'
p24
aS'common'
p25
aS'name'
p26
aS'of'
p27
aS'an'
p28
aS'entity'
p29
aS'.'
aS'Frequently'
p30
aS'foaf'
p31
aS':'
aS'name'
p32
aS'is'
p33
aS'used'
p34
aS'for'
p35
aS'all'
p36
aS'of'
p37
aS'the'
p38
aS'different'
p39
aS'names'
p40
aS'of'
p41
aS'a'
aS'person'
p42
aS';'
aS'this'
p43
aS'property'
p44
aS'just'
p45
aS'defines'
p46
aS'the'
p47
aS'most'
p48
aS'commonly'
p49
aS'used'
p50
aS'name'
p51
aS'.'
asS'chunk_seq'
p52
(lp53
S'B-NP'
p54
aS'I-NP'
p55
aS'I-NP'
p56
aS'E-NP'
p57
aS'B-NP'
p58
aS'I-NP'
p59
aS'E-NP'
p60
aS'S-PP'
p61
aS'B-NP'
p62
aS'E-NP'
p63
aS'O'
aS'S-ADVP'
p64
aS'S-VP'
p65
aS'O'
aS'S-NP'
p66
aS'B-VP'
p67
aS'E-VP'
p68
aS'S-PP'
p69
aS'S-NP'
p70
aS'S-PP'
p71
aS'B-NP'
p72
aS'I-NP'
p73
aS'E-NP'
p74
aS'S-PP'
p75
aS'B-NP'
p76
aS'E-NP'
p77
aS'O'
aS'B-NP'
p78
aS'E-NP'
p79
aS'S-ADVP'
p80
aS'S-VP'
p81
aS'B-NP'
p82
aS'I-NP'
p83
aS'I-NP'
p84
aS'I-NP'
p85
aS'E-NP'
p86
aS'O'
asS'dep_seq'
p87
(lp88
(lp89
S'amod'
p90
aS'4'
aS'1'
aa(lp91
S'nn'
p92
aS'4'
aS'2'
aa(lp93
S'amod'
p94
aS'4'
aS'3'
aa(lp95
S'root'
p96
aS'0'
aS'4'
aa(lp97
S'det'
p98
aS'7'
aS'5'
aa(lp99
S'amod'
p100
aS'7'
aS'6'
aa(lp101
S'dep'
p102
aS'4'
aS'7'
aa(lp103
S'det'
p104
aS'10'
p105
aS'9'
aa(lp106
S'prep_of'
p107
aS'7'
aS'10'
p108
aa(lp109
S'advmod'
p110
aS'13'
p111
aS'12'
p112
aa(lp113
S'dep'
p114
aS'4'
aS'13'
p115
aa(lp116
S'nsubjpass'
p117
aS'17'
p118
aS'15'
p119
aa(lp120
S'auxpass'
p121
aS'17'
p122
aS'16'
p123
aa(lp124
S'dep'
p125
aS'4'
aS'17'
p126
aa(lp127
S'prep_for'
p128
aS'17'
p129
aS'19'
p130
aa(lp131
S'det'
p132
aS'23'
p133
aS'21'
p134
aa(lp135
S'amod'
p136
aS'23'
p137
aS'22'
p138
aa(lp139
S'prep_of'
p140
aS'19'
p141
aS'23'
p142
aa(lp143
S'det'
p144
aS'26'
p145
aS'25'
p146
aa(lp147
S'prep_of'
p148
aS'23'
p149
aS'26'
p150
aa(lp151
S'det'
p152
aS'29'
p153
aS'28'
p154
aa(lp155
S'nsubj'
p156
aS'31'
p157
aS'29'
p158
aa(lp159
S'advmod'
p160
aS'31'
p161
aS'30'
p162
aa(lp163
S'parataxis'
p164
aS'17'
p165
aS'31'
p166
aa(lp167
S'det'
p168
aS'36'
p169
aS'32'
p170
aa(lp171
S'advmod'
p172
aS'34'
p173
aS'33'
p174
aa(lp175
S'advmod'
p176
aS'36'
p177
aS'34'
p178
aa(lp179
S'amod'
p180
aS'36'
p181
aS'35'
p182
aa(lp183
S'dobj'
p184
aS'31'
p185
aS'36'
p186
aasS'srls'
p187
(lp188
(dp189
S'A0'
p190
S'common name lang String'
p191
sS'AM-TMP'
p192
g30
sS'V'
g31
sa(dp193
S'A1'
p194
g32
sS'A2'
p195
S'for all of the different names of a person'
p196
sS'V'
g34
sa(dp197
S'AM-ADV'
p198
g45
sS'A0'
p199
S'this property'
p200
sS'A1'
p201
S'the most commonly used name'
p202
sS'V'
g46
sa(dp203
S'AM-ADV'
p204
g49
sS'A1'
p205
g51
sS'V'
g50
sasS'pos_seq'
p206
(lp207
S'JJ'
p208
aS'NN'
p209
aS'VBG'
p210
aS'NN'
p211
aS'DT'
p212
aS'JJ'
p213
aS'NN'
p214
aS'IN'
p215
aS'DT'
p216
aS'NN'
p217
aS'.'
aS'RB'
p218
aS'VBP'
p219
aS':'
aS'NN'
p220
aS'VBZ'
p221
aS'VBN'
p222
aS'IN'
p223
aS'DT'
p224
aS'IN'
p225
aS'DT'
p226
aS'JJ'
p227
aS'NNS'
p228
aS'IN'
p229
aS'DT'
p230
aS'NN'
p231
aS':'
aS'DT'
p232
aS'NN'
p233
aS'RB'
p234
aS'VBZ'
p235
aS'DT'
p236
aS'RBS'
p237
aS'RB'
p238
aS'VBN'
p239
aS'NN'
p240
aS'.'
asS'ner_seq'
p241
(lp242
S'O'
aS'O'
aS'B-PER'
p243
aS'E-PER'
p244
aS'O'
aS'O'
aS'O'
aS'O'
aS'O'
aS'O'
aS'O'
aS'O'
aS'O'
aS'O'
aS'O'
aS'O'
aS'O'
aS'O'
aS'O'
aS'O'
aS'O'
aS'O'
aS'O'
aS'O'
aS'O'
aS'O'
aS'O'
aS'O'
aS'O'
aS'O'
aS'O'
aS'O'
aS'O'
aS'O'
aS'O'
aS'O'
aS'O'
assb.