ccopy_reg
_reconstructor
p1
(c__main__
KBproperty
p2
c__builtin__
object
p3
NtRp4
(dp5
S'comment'
p6
S'Connecting services that serve the station such as bus etc.'
p7
sS'domain'
p8
S'Station '
p9
sS'instances_count'
p10
S'5203'
p11
sS'label'
p12
S'other serving lines'
p13
sS'range'
p14
S'string '
p15
sS'prop_uri'
p16
S"'http://dbpedia.org/ontology/otherServingLines'"
p17
sS'annotations'
p18
(dp19
S'bag_of_words'
p20
(lp21
S'Station'
p22
aS'other'
p23
aS'serving'
p24
aS'lines'
p25
aS'string'
p26
aS'Connecting'
p27
aS'services'
p28
aS'that'
p29
aS'serve'
p30
aS'the'
p31
aS'station'
p32
aS'such'
p33
aS'as'
p34
aS'bus'
p35
aS'etc.'
p36
asS'chunk_seq'
p37
(lp38
S'B-NP'
p39
aS'I-NP'
p40
aS'I-NP'
p41
aS'I-NP'
p42
aS'I-NP'
p43
aS'I-NP'
p44
aS'E-NP'
p45
aS'S-NP'
p46
aS'S-VP'
p47
aS'B-NP'
p48
aS'E-NP'
p49
aS'B-PP'
p50
aS'E-PP'
p51
aS'B-NP'
p52
aS'E-NP'
p53
asS'dep_seq'
p54
(lp55
(lp56
S'nn'
p57
aS'7'
aS'1'
aa(lp58
S'amod'
p59
aS'7'
aS'2'
aa(lp60
S'amod'
p61
aS'7'
aS'3'
aa(lp62
S'nn'
p63
aS'7'
aS'4'
aa(lp64
S'nn'
p65
aS'7'
aS'5'
aa(lp66
S'amod'
p67
aS'7'
aS'6'
aa(lp68
S'root'
p69
aS'0'
aS'7'
aa(lp70
S'nsubj'
p71
aS'9'
aS'7'
aa(lp72
S'rcmod'
p73
aS'7'
aS'9'
aa(lp74
S'det'
p75
aS'11'
p76
aS'10'
p77
aa(lp78
S'dobj'
p79
aS'9'
aS'11'
p80
aa(lp81
S'prep_such_as'
p82
aS'11'
p83
aS'14'
p84
aa(lp85
S'punct'
p86
aS'7'
aS'15'
p87
aasS'srls'
p88
(lp89
(dp90
S'A0'
p91
g25
sS'V'
g24
sa(dp92
S'A1'
p93
g28
sS'V'
g27
sa(dp94
S'A0'
p95
S'Station other serving lines string Connecting services'
p96
sS'A2'
p97
S'the station such as bus etc.'
p98
sS'R-A0'
p99
g29
sS'V'
g30
sasS'pos_seq'
p100
(lp101
S'NN'
p102
aS'JJ'
p103
aS'VBG'
p104
aS'NNS'
p105
aS'NN'
p106
aS'VBG'
p107
aS'NNS'
p108
aS'WDT'
p109
aS'VBP'
p110
aS'DT'
p111
aS'NN'
p112
aS'JJ'
p113
aS'IN'
p114
aS'NN'
p115
aS'.'
asS'ner_seq'
p116
(lp117
S'O'
aS'O'
aS'O'
aS'O'
aS'O'
aS'O'
aS'O'
aS'O'
aS'O'
aS'O'
aS'O'
aS'O'
aS'O'
aS'O'
aS'O'
assb.