ccopy_reg
_reconstructor
p1
(c__main__
KBproperty
p2
c__builtin__
object
p3
NtRp4
(dp5
S'comment'
p6
S'Number of lines in the transit system.'
p7
sS'domain'
p8
S'Public Transit System '
p9
sS'instances_count'
p10
S'899'
p11
sS'label'
p12
S'number of lines'
p13
sS'range'
p14
S'non Negative Integer '
p15
sS'prop_uri'
p16
S"'http://dbpedia.org/ontology/numberOfLines'"
p17
sS'annotations'
p18
(dp19
S'bag_of_words'
p20
(lp21
S'Public'
p22
aS'Transit'
p23
aS'System'
p24
aS'number'
p25
aS'of'
p26
aS'lines'
p27
aS'non'
p28
aS'Negative'
p29
aS'Integer'
p30
aS'Number'
p31
aS'of'
p32
aS'lines'
p33
aS'in'
p34
aS'the'
p35
aS'transit'
p36
aS'system.'
p37
asS'chunk_seq'
p38
(lp39
S'B-NP'
p40
aS'I-NP'
p41
aS'I-NP'
p42
aS'E-NP'
p43
aS'S-PP'
p44
aS'S-NP'
p45
aS'B-NP'
p46
aS'I-NP'
p47
aS'I-NP'
p48
aS'E-NP'
p49
aS'S-PP'
p50
aS'S-NP'
p51
aS'S-PP'
p52
aS'B-NP'
p53
aS'I-NP'
p54
aS'E-NP'
p55
asS'dep_seq'
p56
(lp57
(lp58
S'nn'
p59
aS'4'
aS'1'
aa(lp60
S'nn'
p61
aS'4'
aS'2'
aa(lp62
S'nn'
p63
aS'4'
aS'3'
aa(lp64
S'root'
p65
aS'0'
aS'4'
aa(lp66
S'nn'
p67
aS'10'
p68
aS'6'
aa(lp69
S'dep'
p70
aS'8'
aS'7'
aa(lp71
S'amod'
p72
aS'10'
p73
aS'8'
aa(lp74
S'nn'
p75
aS'10'
p76
aS'9'
aa(lp77
S'prep_of'
p78
aS'4'
aS'10'
p79
aa(lp80
S'prep_of'
p81
aS'4'
aS'12'
p82
aa(lp83
S'det'
p84
aS'16'
p85
aS'14'
p86
aa(lp87
S'nn'
p88
aS'16'
p89
aS'15'
p90
aa(lp91
S'prep_in'
p92
aS'4'
aS'16'
p93
aasS'srls'
p94
(lp95
sS'pos_seq'
p96
(lp97
S'NNP'
p98
aS'NNP'
p99
aS'NNP'
p100
aS'NN'
p101
aS'IN'
p102
aS'NNS'
p103
aS'VBP'
p104
aS'JJ'
p105
aS'NNP'
p106
aS'NNP'
p107
aS'IN'
p108
aS'NNS'
p109
aS'IN'
p110
aS'DT'
p111
aS'NN'
p112
aS'NN'
p113
asS'ner_seq'
p114
(lp115
S'B-ORG'
p116
aS'I-ORG'
p117
aS'E-ORG'
p118
aS'O'
aS'O'
aS'O'
aS'O'
aS'O'
aS'O'
aS'O'
aS'O'
aS'O'
aS'O'
aS'O'
aS'O'
aS'O'
assb.