ccopy_reg
_reconstructor
p1
(c__main__
KBproperty
p2
c__builtin__
object
p3
NtRp4
(dp5
S'comment'
p6
S'the number corresponding to the chromosome on which the gene is located'
p7
sS'domain'
p8
S'Gene Location '
p9
sS'instances_count'
p10
S'82'
p11
sS'label'
p12
S'on chromosome'
p13
sS'range'
p14
S'integer '
p15
sS'prop_uri'
p16
S"'http://dbpedia.org/ontology/onChromosome'"
p17
sS'annotations'
p18
(dp19
S'bag_of_words'
p20
(lp21
S'Gene'
p22
aS'Location'
p23
aS'on'
p24
aS'chromosome'
p25
aS'integer'
p26
aS'the'
p27
aS'number'
p28
aS'corresponding'
p29
aS'to'
p30
aS'the'
p31
aS'chromosome'
p32
aS'on'
p33
aS'which'
p34
aS'the'
p35
aS'gene'
p36
aS'is'
p37
aS'located'
p38
asS'chunk_seq'
p39
(lp40
S'B-NP'
p41
aS'E-NP'
p42
aS'S-PP'
p43
aS'B-NP'
p44
aS'E-NP'
p45
aS'B-NP'
p46
aS'E-NP'
p47
aS'S-VP'
p48
aS'S-PP'
p49
aS'B-NP'
p50
aS'E-NP'
p51
aS'S-PP'
p52
aS'S-NP'
p53
aS'B-NP'
p54
aS'E-NP'
p55
aS'B-VP'
p56
aS'E-VP'
p57
asS'dep_seq'
p58
(lp59
(lp60
S'nn'
p61
aS'2'
aS'1'
aa(lp62
S'root'
p63
aS'0'
aS'2'
aa(lp64
S'nn'
p65
aS'5'
aS'4'
aa(lp66
S'prep_on'
p67
aS'2'
aS'5'
aa(lp68
S'det'
p69
aS'7'
aS'6'
aa(lp70
S'dep'
p71
aS'2'
aS'7'
aa(lp72
S'partmod'
p73
aS'2'
aS'8'
aa(lp74
S'det'
p75
aS'11'
p76
aS'10'
p77
aa(lp78
S'prep_to'
p79
aS'8'
aS'11'
p80
aa(lp81
S'prep_on'
p82
aS'17'
p83
aS'13'
p84
aa(lp85
S'det'
p86
aS'15'
p87
aS'14'
p88
aa(lp89
S'nsubjpass'
p90
aS'17'
p91
aS'15'
p92
aa(lp93
S'auxpass'
p94
aS'17'
p95
aS'16'
p96
aa(lp97
S'ccomp'
p98
aS'8'
aS'17'
p99
aasS'srls'
p100
(lp101
sS'pos_seq'
p102
(lp103
S'NNP'
p104
aS'NNP'
p105
aS'IN'
p106
aS'NN'
p107
aS'NN'
p108
aS'DT'
p109
aS'NN'
p110
aS'VBG'
p111
aS'TO'
p112
aS'DT'
p113
aS'NN'
p114
aS'IN'
p115
aS'WDT'
p116
aS'DT'
p117
aS'NN'
p118
aS'VBZ'
p119
aS'VBN'
p120
asS'ner_seq'
p121
(lp122
S'O'
aS'O'
aS'O'
aS'O'
aS'O'
aS'O'
aS'O'
aS'O'
aS'O'
aS'O'
aS'O'
aS'O'
aS'O'
aS'O'
aS'O'
aS'O'
aS'O'
assb.