ccopy_reg
_reconstructor
p1
(c__main__
KBproperty
p2
c__builtin__
object
p3
NtRp4
(dp5
S'comment'
p6
S'number of rocket stages'
p7
sS'domain'
p8
S'Rocket '
p9
sS'instances_count'
p10
S'192'
p11
sS'label'
p12
g7
sS'range'
p13
S'non Negative Integer '
p14
sS'prop_uri'
p15
S"'http://dbpedia.org/ontology/rocketStages'"
p16
sS'annotations'
p17
(dp18
S'bag_of_words'
p19
(lp20
S'Rocket'
p21
aS'rocket'
p22
aS'Stages'
p23
aS'non'
p24
aS'Negative'
p25
aS'Integer'
p26
aS'number'
p27
aS'of'
p28
aS'rocket'
p29
aS'stages'
p30
asS'chunk_seq'
p31
(lp32
S'B-NP'
p33
aS'I-NP'
p34
aS'E-NP'
p35
aS'B-NP'
p36
aS'I-NP'
p37
aS'I-NP'
p38
aS'E-NP'
p39
aS'S-PP'
p40
aS'B-NP'
p41
aS'E-NP'
p42
asS'dep_seq'
p43
(lp44
(lp45
S'nn'
p46
aS'3'
aS'1'
aa(lp47
S'nn'
p48
aS'3'
aS'2'
aa(lp49
S'root'
p50
aS'0'
aS'3'
aa(lp51
S'amod'
p52
aS'7'
aS'4'
aa(lp53
S'nn'
p54
aS'7'
aS'5'
aa(lp55
S'nn'
p56
aS'7'
aS'6'
aa(lp57
S'dep'
p58
aS'3'
aS'7'
aa(lp59
S'nn'
p60
aS'10'
p61
aS'9'
aa(lp62
S'prep_of'
p63
aS'7'
aS'10'
p64
aasS'srls'
p65
(lp66
sS'pos_seq'
p67
(lp68
S'NNP'
p69
aS'NN'
p70
aS'NNS'
p71
aS'JJ'
p72
aS'NNP'
p73
aS'NNP'
p74
aS'NN'
p75
aS'IN'
p76
aS'NN'
p77
aS'NNS'
p78
asS'ner_seq'
p79
(lp80
S'O'
aS'O'
aS'O'
aS'O'
aS'O'
aS'O'
aS'O'
aS'O'
aS'O'
aS'O'
assb.