ccopy_reg
_reconstructor
p1
(c__main__
KBproperty
p2
c__builtin__
object
p3
NtRp4
(dp5
S'comment'
p6
S''
sS'domain'
p7
S'Person '
p8
sS'instances_count'
p9
S'0'
sS'label'
p10
S'killed by'
p11
sS'range'
p12
S'string '
p13
sS'prop_uri'
p14
S"'http://dbpedia.org/ontology/killedBy'"
p15
sS'annotations'
p16
(dp17
S'bag_of_words'
p18
(lp19
S'Person'
p20
aS'killed'
p21
aS'by'
p22
aS'string'
p23
asS'chunk_seq'
p24
(lp25
S'S-NP'
p26
aS'S-VP'
p27
aS'S-PP'
p28
aS'S-NP'
p29
asS'dep_seq'
p30
(lp31
(lp32
S'root'
p33
aS'0'
aS'1'
aa(lp34
S'partmod'
p35
aS'1'
aS'2'
aa(lp36
S'agent'
p37
aS'2'
aS'4'
aasS'srls'
p38
(lp39
(dp40
S'A1'
p41
g20
sS'AM-MNR'
p42
S'by string'
p43
sS'V'
g21
sasS'pos_seq'
p44
(lp45
S'NN'
p46
aS'VBN'
p47
aS'IN'
p48
aS'NN'
p49
asS'ner_seq'
p50
(lp51
S'O'
aS'O'
aS'O'
aS'O'
assb.