ccopy_reg
_reconstructor
p1
(c__main__
KBproperty
p2
c__builtin__
object
p3
NtRp4
(dp5
S'comment'
p6
S'A reporting mark is a two- three- or four-letter alphabetic code used to identify owners or lessees of rolling stock and other equipment used on the North American railroad network.'
p7
sS'domain'
p8
S'Public Transit System '
p9
sS'instances_count'
p10
S'194'
p11
sS'label'
p12
S'reporting mark'
p13
sS'range'
p14
S'string '
p15
sS'prop_uri'
p16
S"'http://dbpedia.org/ontology/reportingMark'"
p17
sS'annotations'
p18
(dp19
S'bag_of_words'
p20
(lp21
S'Public'
p22
aS'Transit'
p23
aS'System'
p24
aS'reporting'
p25
aS'mark'
p26
aS'string'
p27
aS'A'
aS'reporting'
p28
aS'mark'
p29
aS'is'
p30
aS'a'
aS'two-'
p31
aS'three-'
p32
aS'or'
p33
aS'four-'
p34
aS'letter'
p35
aS'alphabetic'
p36
aS'code'
p37
aS'used'
p38
aS'to'
p39
aS'identify'
p40
aS'owners'
p41
aS'or'
p42
aS'lessees'
p43
aS'of'
p44
aS'rolling'
p45
aS'stock'
p46
aS'and'
p47
aS'other'
p48
aS'equipment'
p49
aS'used'
p50
aS'on'
p51
aS'the'
p52
aS'North'
p53
aS'American'
p54
aS'railroad'
p55
aS'network'
p56
aS'.'
asS'chunk_seq'
p57
(lp58
S'B-NP'
p59
aS'I-NP'
p60
aS'E-NP'
p61
aS'S-VP'
p62
aS'B-NP'
p63
aS'E-NP'
p64
aS'B-NP'
p65
aS'I-NP'
p66
aS'E-NP'
p67
aS'S-VP'
p68
aS'B-NP'
p69
aS'I-NP'
p70
aS'I-NP'
p71
aS'I-NP'
p72
aS'I-NP'
p73
aS'I-NP'
p74
aS'I-NP'
p75
aS'E-NP'
p76
aS'S-VP'
p77
aS'B-VP'
p78
aS'E-VP'
p79
aS'S-NP'
p80
aS'O'
aS'S-NP'
p81
aS'S-PP'
p82
aS'B-NP'
p83
aS'E-NP'
p84
aS'O'
aS'B-NP'
p85
aS'E-NP'
p86
aS'S-VP'
p87
aS'S-PP'
p88
aS'B-NP'
p89
aS'I-NP'
p90
aS'I-NP'
p91
aS'I-NP'
p92
aS'E-NP'
p93
aS'O'
asS'dep_seq'
p94
(lp95
(lp96
S'nn'
p97
aS'3'
aS'1'
aa(lp98
S'nn'
p99
aS'3'
aS'2'
aa(lp100
S'nsubj'
p101
aS''
aS'3'
aa(lp102
S'partmod'
p103
aS'3'
aS'4'
aa(lp104
S'nn'
p105
aS'6'
aS'5'
aa(lp106
S'iobj'
p107
aS'4'
aS'6'
aa(lp108
S'det'
p109
aS'9'
aS'7'
aa(lp110
S'nn'
p111
aS'9'
aS'8'
aa(lp112
S'dobj'
p113
aS'4'
aS'9'
aa(lp114
S'cop'
p115
aS''
aS'10'
p116
aa(lp117
S'det'
p118
aS''
aS'11'
p119
aa(lp120
S'amod'
p121
aS''
aS''
aa(lp122
S'root'
p123
aS'0'
aS''
aa(lp124
S'amod'
p125
aS'18'
p126
aS''
aa(lp127
S'nn'
p128
aS'18'
p129
aS'16'
p130
aa(lp131
S'amod'
p132
aS'18'
p133
aS'17'
p134
aa(lp135
S'conj_or'
p136
aS''
aS'18'
p137
aa(lp138
S'partmod'
p139
aS''
aS'19'
p140
aa(lp141
S'aux'
p142
aS'21'
p143
aS'20'
p144
aa(lp145
S'xcomp'
p146
aS'19'
p147
aS'21'
p148
aa(lp149
S'dobj'
p150
aS'21'
p151
aS'22'
p152
aa(lp153
S'conj_or'
p154
aS'22'
p155
aS'24'
p156
aa(lp157
S'amod'
p158
aS'27'
p159
aS'26'
p160
aa(lp161
S'prep_of'
p162
aS'24'
p163
aS'27'
p164
aa(lp165
S'amod'
p166
aS'30'
p167
aS'29'
p168
aa(lp169
S'conj_and'
p170
aS'27'
p171
aS'30'
p172
aa(lp173
S'partmod'
p174
aS'27'
p175
aS'31'
p176
aa(lp177
S'det'
p178
aS'37'
p179
aS'33'
p180
aa(lp181
S'amod'
p182
aS'35'
p183
aS'34'
p184
aa(lp185
S'amod'
p186
aS'37'
p187
aS'35'
p188
aa(lp189
S'nn'
p190
aS'37'
p191
aS'36'
p192
aa(lp193
S'prep_on'
p194
aS'31'
p195
aS'37'
p196
aasS'srls'
p197
(lp198
(dp199
S'A1'
p200
S'mark string A reporting mark is a two- three- or four- letter alphabetic code used to identify owners or lessees of rolling stock and other equipment used on the North American railroad network'
p201
sS'A0'
p202
S'Public Transit System'
p203
sS'V'
g25
sa(dp204
S'A2'
p205
S'to identify owners or lessees of rolling stock'
p206
sS'V'
g38
sa(dp207
S'A1'
p208
S'owners or lessees of rolling stock and other equipment used on the North American railroad network'
p209
sS'A0'
p210
S'alphabetic code'
p211
sS'V'
g40
sS'AM-MOD'
p212
g38
sa(dp213
S'A1'
p214
g46
sS'V'
g45
sa(dp215
S'A1'
p216
S'other equipment'
p217
sS'AM-LOC'
p218
S'on the North American railroad network'
p219
sS'V'
g50
sasS'pos_seq'
p220
(lp221
S'NNP'
p222
aS'NNP'
p223
aS'NNP'
p224
aS'VBG'
p225
aS'NN'
p226
aS'NN'
p227
aS'DT'
p228
aS'NN'
p229
aS'NN'
p230
aS'VBZ'
p231
aS'DT'
p232
aS'JJ'
p233
aS'NN'
p234
aS'CC'
p235
aS'JJ'
p236
aS'NN'
p237
aS'JJ'
p238
aS'NN'
p239
aS'VBN'
p240
aS'TO'
p241
aS'VB'
p242
aS'NNS'
p243
aS'CC'
p244
aS'NNS'
p245
aS'IN'
p246
aS'VBG'
p247
aS'NN'
p248
aS'CC'
p249
aS'JJ'
p250
aS'NN'
p251
aS'VBN'
p252
aS'IN'
p253
aS'DT'
p254
aS'JJ'
p255
aS'JJ'
p256
aS'NN'
p257
aS'NN'
p258
aS'.'
asS'ner_seq'
p259
(lp260
S'B-ORG'
p261
aS'I-ORG'
p262
aS'E-ORG'
p263
aS'O'
aS'O'
aS'O'
aS'O'
aS'O'
aS'O'
aS'O'
aS'O'
aS'O'
aS'O'
aS'O'
aS'O'
aS'O'
aS'O'
aS'O'
aS'O'
aS'O'
aS'O'
aS'O'
aS'O'
aS'O'
aS'O'
aS'O'
aS'O'
aS'O'
aS'O'
aS'O'
aS'O'
aS'O'
aS'O'
aS'B-MISC'
p264
aS'E-MISC'
p265
aS'O'
aS'O'
aS'O'
assb.