ccopy_reg
_reconstructor
p1
(c__main__
KBproperty
p2
c__builtin__
object
p3
NtRp4
(dp5
S'comment'
p6
S'Cost of building an ArchitecturalStructure Ship etc'
p7
sS'domain'
p8
S''
sS'instances_count'
p9
S'4795'
p10
sS'label'
p11
S'cost $'
p12
sS'range'
p13
S'double '
p14
sS'prop_uri'
p15
S"'http://dbpedia.org/ontology/cost'"
p16
sS'annotations'
p17
(dp18
S'bag_of_words'
p19
(lp20
S'cost'
p21
aS'$'
aS'double'
p22
aS'Cost'
p23
aS'of'
p24
aS'building'
p25
aS'an'
p26
aS'ArchitecturalStructure'
p27
aS'Ship'
p28
aS'etc'
p29
asS'chunk_seq'
p30
(lp31
S'S-VP'
p32
aS'B-NP'
p33
aS'I-NP'
p34
aS'E-NP'
p35
aS'S-PP'
p36
aS'S-VP'
p37
aS'B-NP'
p38
aS'I-NP'
p39
aS'E-NP'
p40
aS'O'
asS'dep_seq'
p41
(lp42
(lp43
S'root'
p44
aS'0'
aS'1'
aa(lp45
S'amod'
p46
aS'4'
aS'2'
aa(lp47
S'dep'
p48
aS'2'
aS'3'
aa(lp49
S'dobj'
p50
aS'1'
aS'4'
aa(lp51
S'prepc_of'
p52
aS'4'
aS'6'
aa(lp53
S'det'
p54
aS'9'
aS'7'
aa(lp55
S'nn'
p56
aS'9'
aS'8'
aa(lp57
S'dobj'
p58
aS'6'
aS'9'
aa(lp59
S'punct'
p60
aS'1'
aS'10'
p61
aasS'srls'
p62
(lp63
(dp64
S'A2'
p65
S'$ double Cost of building an ArchitecturalStructure Ship etc'
p66
sS'V'
g21
sa(dp67
S'A1'
p68
S'an ArchitecturalStructure Ship etc'
p69
sS'V'
g25
sasS'pos_seq'
p70
(lp71
S'VB'
p72
aS'$'
aS'JJ'
p73
aS'NN'
p74
aS'IN'
p75
aS'VBG'
p76
aS'DT'
p77
aS'NNP'
p78
aS'NNP'
p79
aS'.'
asS'ner_seq'
p80
(lp81
S'O'
aS'O'
aS'O'
aS'O'
aS'O'
aS'O'
aS'O'
aS'B-LOC'
p82
aS'E-LOC'
p83
aS'O'
assb.