ccopy_reg
_reconstructor
p1
(c__main__
KBproperty
p2
c__builtin__
object
p3
NtRp4
(dp5
S'comment'
p6
S'National Diet Library of Japan identificator. http://id.ndl.go.jp/auth/ndlna/$1'
p7
sS'domain'
p8
S''
sS'instances_count'
p9
S'24'
p10
sS'label'
p11
S'NDL id'
p12
sS'range'
p13
S'string '
p14
sS'prop_uri'
p15
S"'http://dbpedia.org/ontology/ndlId'"
p16
sS'annotations'
p17
(dp18
S'bag_of_words'
p19
(lp20
S'NDL'
p21
aS'id'
p22
aS'string'
p23
aS'National'
p24
aS'Diet'
p25
aS'Library'
p26
aS'of'
p27
aS'Japan'
p28
aS'identificator'
p29
aS'.'
aS'http'
p30
aS':'
aS'//'
p31
aS'id.'
p32
aS'ndl'
p33
aS'.'
aS'go'
p34
aS'.'
aS'jp'
p35
aS'/'
aS'auth'
p36
aS'/'
aS'ndlna'
p37
aS'/'
aS'$'
aS'1'
asS'chunk_seq'
p38
(lp39
S'B-NP'
p40
aS'I-NP'
p41
aS'I-NP'
p42
aS'I-NP'
p43
aS'I-NP'
p44
aS'E-NP'
p45
aS'S-PP'
p46
aS'B-NP'
p47
aS'I-NP'
p48
aS'I-NP'
p49
aS'E-NP'
p50
aS'O'
aS'B-NP'
p51
aS'I-NP'
p52
aS'E-NP'
p53
aS'O'
aS'S-VP'
p54
aS'O'
aS'O'
aS'O'
aS'O'
aS'O'
aS'O'
aS'O'
aS'O'
aS'O'
asS'dep_seq'
p55
(lp56
(lp57
S'nn'
p58
aS'6'
aS'1'
aa(lp59
S'nn'
p60
aS'6'
aS'2'
aa(lp61
S'nn'
p62
aS'6'
aS'3'
aa(lp63
S'nn'
p64
aS'6'
aS'4'
aa(lp65
S'nn'
p66
aS'6'
aS'5'
aa(lp67
S'dep'
p68
aS'26'
p69
aS'6'
aa(lp70
S'dep'
p71
aS'26'
p72
aS'7'
aa(lp73
S'pobj'
p74
aS'7'
aS'8'
aa(lp75
S'dep'
p76
aS'26'
p77
aS'9'
aa(lp78
S'dep'
p79
aS'26'
p80
aS'11'
p81
aa(lp82
S'nn'
p83
aS'26'
p84
aS'13'
p85
aa(lp86
S'nn'
p87
aS'26'
p88
aS'14'
p89
aa(lp90
S'nn'
p91
aS'26'
p92
aS'15'
p93
aa(lp94
S'dep'
p95
aS'26'
p96
aS'17'
p97
aa(lp98
S'nn'
p99
aS'26'
p100
aS'19'
p101
aa(lp102
S'nn'
p103
aS'26'
p104
aS'20'
p105
aa(lp106
S'nn'
p107
aS'26'
p108
aS'21'
p109
aa(lp110
S'nn'
p111
aS'26'
p112
aS'22'
p113
aa(lp114
S'nn'
p115
aS'26'
p116
aS'23'
p117
aa(lp118
S'nn'
p119
aS'26'
p120
aS'24'
p121
aa(lp122
S'nn'
p123
aS'26'
p124
aS'25'
p125
aa(lp126
S'root'
p127
aS'0'
aS'26'
p128
aasS'srls'
p129
(lp130
(dp131
S'A1'
p132
S'jp / auth / ndlna / $ 1'
p133
sS'V'
g34
sasS'pos_seq'
p134
(lp135
S'NNP'
p136
aS'NN'
p137
aS'NN'
p138
aS'NNP'
p139
aS'NNP'
p140
aS'NNP'
p141
aS'IN'
p142
aS'NNP'
p143
aS'NN'
p144
aS'.'
aS'NN'
p145
aS':'
aS'FW'
p146
aS'FW'
p147
aS'FW'
p148
aS'.'
aS'VB'
p149
aS'.'
aS'FW'
p150
aS'FW'
p151
aS'FW'
p152
aS'FW'
p153
aS'FW'
p154
aS'FW'
p155
aS'FW'
p156
aS'FW'
p157
asS'ner_seq'
p158
(lp159
S'S-MISC'
p160
aS'O'
aS'O'
aS'B-ORG'
p161
aS'I-ORG'
p162
aS'I-ORG'
p163
aS'I-ORG'
p164
aS'E-ORG'
p165
aS'O'
aS'O'
aS'O'
aS'O'
aS'O'
aS'O'
aS'O'
aS'O'
aS'O'
aS'O'
aS'O'
aS'O'
aS'O'
aS'O'
aS'O'
aS'O'
aS'O'
aS'O'
assb.