ccopy_reg
_reconstructor
p1
(c__main__
KBproperty
p2
c__builtin__
object
p3
NtRp4
(dp5
S'comment'
p6
S''
sS'domain'
p7
S'Ice Hockey Player '
p8
sS'instances_count'
p9
S'347'
p10
sS'label'
p11
S'wha draft team'
p12
sS'range'
p13
S'Hockey Team '
p14
sS'prop_uri'
p15
S"'http://dbpedia.org/ontology/whaDraftTeam'"
p16
sS'annotations'
p17
(dp18
S'bag_of_words'
p19
(lp20
S'Ice'
p21
aS'Hockey'
p22
aS'Player'
p23
aS'wha'
p24
aS'draft'
p25
aS'team'
p26
aS'Hockey'
p27
aS'Team'
p28
asS'chunk_seq'
p29
(lp30
S'B-NP'
p31
aS'I-NP'
p32
aS'I-NP'
p33
aS'I-NP'
p34
aS'I-NP'
p35
aS'I-NP'
p36
aS'I-NP'
p37
aS'E-NP'
p38
asS'dep_seq'
p39
(lp40
(lp41
S'nn'
p42
aS'3'
aS'1'
aa(lp43
S'nn'
p44
aS'3'
aS'2'
aa(lp45
S'nsubj'
p46
aS'4'
aS'3'
aa(lp47
S'root'
p48
aS'0'
aS'4'
aa(lp49
S'dep'
p50
aS'4'
aS'5'
aa(lp51
S'nn'
p52
aS'8'
aS'6'
aa(lp53
S'nn'
p54
aS'8'
aS'7'
aa(lp55
S'dobj'
p56
aS'4'
aS'8'
aasS'srls'
p57
(lp58
sS'pos_seq'
p59
(lp60
S'NNP'
p61
aS'NNP'
p62
aS'NNP'
p63
aS'NN'
p64
aS'NN'
p65
aS'NN'
p66
aS'NNP'
p67
aS'NNP'
p68
asS'ner_seq'
p69
(lp70
S'B-MISC'
p71
aS'I-MISC'
p72
aS'E-MISC'
p73
aS'O'
aS'O'
aS'O'
aS'B-ORG'
p74
aS'E-ORG'
p75
assb.