ccopy_reg
_reconstructor
p1
(c__main__
KBproperty
p2
c__builtin__
object
p3
NtRp4
(dp5
S'comment'
p6
S''
sS'domain'
p7
S'Member Resistance Movement '
p8
sS'instances_count'
p9
S'0'
sS'label'
p10
S'code on index'
p11
sS'range'
p12
S'string '
p13
sS'prop_uri'
p14
S"'http://dbpedia.org/ontology/codeIndex'"
p15
sS'annotations'
p16
(dp17
S'bag_of_words'
p18
(lp19
S'Member'
p20
aS'Resistance'
p21
aS'Movement'
p22
aS'code'
p23
aS'on'
p24
aS'index'
p25
aS'string'
p26
asS'chunk_seq'
p27
(lp28
S'B-NP'
p29
aS'I-NP'
p30
aS'I-NP'
p31
aS'E-NP'
p32
aS'S-PP'
p33
aS'B-NP'
p34
aS'E-NP'
p35
asS'dep_seq'
p36
(lp37
(lp38
S'nn'
p39
aS'4'
aS'1'
aa(lp40
S'nn'
p41
aS'4'
aS'2'
aa(lp42
S'nn'
p43
aS'4'
aS'3'
aa(lp44
S'root'
p45
aS'0'
aS'4'
aa(lp46
S'nn'
p47
aS'7'
aS'6'
aa(lp48
S'prep_on'
p49
aS'4'
aS'7'
aasS'srls'
p50
(lp51
sS'pos_seq'
p52
(lp53
S'NNP'
p54
aS'NNP'
p55
aS'NNP'
p56
aS'NN'
p57
aS'IN'
p58
aS'NN'
p59
aS'NN'
p60
asS'ner_seq'
p61
(lp62
S'O'
aS'O'
aS'O'
aS'O'
aS'O'
aS'O'
aS'O'
assb.