ccopy_reg
_reconstructor
p1
(c__main__
KBproperty
p2
c__builtin__
object
p3
NtRp4
(dp5
S'comment'
p6
S''
sS'domain'
p7
S'Person '
p8
sS'instances_count'
p9
S'0'
sS'label'
p10
S'pole position'
p11
sS'range'
p12
S'non Negative Integer '
p13
sS'prop_uri'
p14
S"'http://dbpedia.org/ontology/polePosition'"
p15
sS'annotations'
p16
(dp17
S'bag_of_words'
p18
(lp19
S'Person'
p20
aS'pole'
p21
aS'position'
p22
aS'non'
p23
aS'Negative'
p24
aS'Integer'
p25
asS'chunk_seq'
p26
(lp27
S'O'
aS'B-NP'
p28
aS'E-NP'
p29
aS'B-NP'
p30
aS'I-NP'
p31
aS'E-NP'
p32
asS'dep_seq'
p33
(lp34
(lp35
S'nn'
p36
aS'2'
aS'1'
aa(lp37
S'nsubj'
p38
aS'3'
aS'2'
aa(lp39
S'root'
p40
aS'0'
aS'3'
aa(lp41
S'amod'
p42
aS'6'
aS'4'
aa(lp43
S'amod'
p44
aS'6'
aS'5'
aa(lp45
S'dobj'
p46
aS'3'
aS'6'
aasS'srls'
p47
(lp48
sS'pos_seq'
p49
(lp50
S'NN'
p51
aS'NN'
p52
aS'NN'
p53
aS'JJ'
p54
aS'JJ'
p55
aS'NN'
p56
asS'ner_seq'
p57
(lp58
S'O'
aS'O'
aS'O'
aS'O'
aS'B-MISC'
p59
aS'E-MISC'
p60
assb.