ccopy_reg
_reconstructor
p1
(c__main__
KBproperty
p2
c__builtin__
object
p3
NtRp4
(dp5
S'comment'
p6
S'Short description of a person'
p7
sS'domain'
p8
S''
sS'instances_count'
p9
S'13151'
p10
sS'label'
p11
S'description'
p12
sS'range'
p13
S'lang String '
p14
sS'prop_uri'
p15
S"'http://dbpedia.org/ontology/description'"
p16
sS'annotations'
p17
(dp18
S'bag_of_words'
p19
(lp20
S'description'
p21
aS'lang'
p22
aS'String'
p23
aS'Short'
p24
aS'description'
p25
aS'of'
p26
aS'a'
aS'person'
p27
asS'chunk_seq'
p28
(lp29
S'B-NP'
p30
aS'I-NP'
p31
aS'I-NP'
p32
aS'I-NP'
p33
aS'E-NP'
p34
aS'S-PP'
p35
aS'B-NP'
p36
aS'E-NP'
p37
asS'dep_seq'
p38
(lp39
(lp40
S'nn'
p41
aS'5'
aS'1'
aa(lp42
S'amod'
p43
aS'5'
aS'2'
aa(lp44
S'nn'
p45
aS'5'
aS'3'
aa(lp46
S'amod'
p47
aS'5'
aS'4'
aa(lp48
S'root'
p49
aS'0'
aS'5'
aa(lp50
S'det'
p51
aS'8'
aS'7'
aa(lp52
S'prep_of'
p53
aS'5'
aS'8'
aasS'srls'
p54
(lp55
(dp56
S'A1'
p57
g23
sS'V'
g22
sasS'pos_seq'
p58
(lp59
S'NN'
p60
aS'VBG'
p61
aS'NN'
p62
aS'JJ'
p63
aS'NN'
p64
aS'IN'
p65
aS'DT'
p66
aS'NN'
p67
asS'ner_seq'
p68
(lp69
S'O'
aS'B-PER'
p70
aS'E-PER'
p71
aS'O'
aS'O'
aS'O'
aS'O'
aS'O'
assb.