ccopy_reg
_reconstructor
p1
(c__main__
KBproperty
p2
c__builtin__
object
p3
NtRp4
(dp5
S'comment'
p6
S''
sS'domain'
p7
S'Musical '
p8
sS'instances_count'
p9
S'1448'
p10
sS'label'
p11
S'music by'
p12
sS'range'
p13
S'Person '
p14
sS'prop_uri'
p15
S"'http://dbpedia.org/ontology/musicBy'"
p16
sS'annotations'
p17
(dp18
S'bag_of_words'
p19
(lp20
S'Musical'
p21
aS'music'
p22
aS'by'
p23
aS'Person'
p24
asS'chunk_seq'
p25
(lp26
S'B-NP'
p27
aS'E-NP'
p28
aS'S-PP'
p29
aS'S-NP'
p30
asS'dep_seq'
p31
(lp32
(lp33
S'amod'
p34
aS'2'
aS'1'
aa(lp35
S'root'
p36
aS'0'
aS'2'
aa(lp37
S'prep_by'
p38
aS'2'
aS'4'
aasS'srls'
p39
(lp40
sS'pos_seq'
p41
(lp42
S'JJ'
p43
aS'NN'
p44
aS'IN'
p45
aS'NN'
p46
asS'ner_seq'
p47
(lp48
S'O'
aS'O'
aS'O'
aS'O'
assb.