ccopy_reg
_reconstructor
p1
(c__main__
KBproperty
p2
c__builtin__
object
p3
NtRp4
(dp5
S'comment'
p6
S'The subject was influenced by the object. inverseOf influenced. Subject and object can be Persons or Works eg ProgrammingLanguage'
p7
sS'domain'
p8
S''
sS'instances_count'
p9
S'22978'
p10
sS'label'
p11
S'influenced by'
p12
sS'range'
p13
S''
sS'prop_uri'
p14
S"'http://dbpedia.org/ontology/influencedBy'"
p15
sS'annotations'
p16
(dp17
S'bag_of_words'
p18
(lp19
S'influenced'
p20
aS'by'
p21
aS'The'
p22
aS'subject'
p23
aS'was'
p24
aS'influenced'
p25
aS'by'
p26
aS'the'
p27
aS'object'
p28
aS'.'
aS'inverseOf'
p29
aS'influenced'
p30
aS'.'
aS'Subject'
p31
aS'and'
p32
aS'object'
p33
aS'can'
p34
aS'be'
p35
aS'Persons'
p36
aS'or'
p37
aS'Works'
p38
aS'eg'
p39
aS'ProgrammingLanguage'
p40
asS'chunk_seq'
p41
(lp42
S'S-VP'
p43
aS'S-PP'
p44
aS'B-NP'
p45
aS'E-NP'
p46
aS'B-VP'
p47
aS'E-VP'
p48
aS'S-PP'
p49
aS'B-NP'
p50
aS'E-NP'
p51
aS'O'
aS'S-NP'
p52
aS'S-VP'
p53
aS'O'
aS'B-NP'
p54
aS'I-NP'
p55
aS'E-NP'
p56
aS'B-VP'
p57
aS'E-VP'
p58
aS'B-NP'
p59
aS'I-NP'
p60
aS'E-NP'
p61
aS'S-PP'
p62
aS'S-NP'
p63
asS'dep_seq'
p64
(lp65
(lp66
S'root'
p67
aS'0'
aS'1'
aa(lp68
S'dep'
p69
aS'19'
p70
aS'2'
aa(lp71
S'det'
p72
aS'4'
aS'3'
aa(lp73
S'nsubjpass'
p74
aS'6'
aS'4'
aa(lp75
S'auxpass'
p76
aS'6'
aS'5'
aa(lp77
S'pcomp'
p78
aS'2'
aS'6'
aa(lp79
S'det'
p80
aS'12'
p81
aS'8'
aa(lp82
S'nn'
p83
aS'12'
p84
aS'9'
aa(lp85
S'conj_and'
p86
aS'12'
p87
aS'11'
p88
aa(lp89
S'nn'
p90
aS'12'
p91
aS'11'
p92
aa(lp93
S'agent'
p94
aS'6'
aS'12'
p95
aa(lp96
S'conj_and'
p97
aS'12'
p98
aS'14'
p99
aa(lp100
S'nn'
p101
aS'12'
p102
aS'14'
p103
aa(lp104
S'conj_and'
p105
aS'12'
p106
aS'16'
p107
aa(lp108
S'aux'
p109
aS'19'
p110
aS'17'
p111
aa(lp112
S'cop'
p113
aS'19'
p114
aS'18'
p115
aa(lp116
S'ccomp'
p117
aS'1'
aS'19'
p118
aa(lp119
S'conj_or'
p120
aS'19'
p121
aS'21'
p122
aa(lp123
S'prep_eg'
p124
aS'19'
p125
aS'23'
p126
aasS'srls'
p127
(lp128
(dp129
S'A0'
p130
S'by The subject'
p131
sS'V'
g20
sa(dp132
S'A1'
p133
S'The subject'
p134
sS'A0'
p135
S'by the object'
p136
sS'V'
g25
sa(dp137
S'A1'
p138
S'Subject and object can be Persons or Works eg ProgrammingLanguage'
p139
sS'A0'
p140
g29
sS'V'
g30
sasS'pos_seq'
p141
(lp142
S'VBN'
p143
aS'IN'
p144
aS'DT'
p145
aS'NN'
p146
aS'VBD'
p147
aS'VBN'
p148
aS'IN'
p149
aS'DT'
p150
aS'NN'
p151
aS'.'
aS'NNP'
p152
aS'VBD'
p153
aS'.'
aS'NNP'
p154
aS'CC'
p155
aS'NN'
p156
aS'MD'
p157
aS'VB'
p158
aS'NNPS'
p159
aS'CC'
p160
aS'NNP'
p161
aS'IN'
p162
aS'NNP'
p163
asS'ner_seq'
p164
(lp165
S'O'
aS'O'
aS'O'
aS'O'
aS'O'
aS'O'
aS'O'
aS'O'
aS'O'
aS'O'
aS'S-ORG'
p166
aS'O'
aS'O'
aS'O'
aS'O'
aS'O'
aS'O'
aS'O'
aS'O'
aS'O'
aS'O'
aS'O'
aS'S-ORG'
p167
assb.