ccopy_reg
_reconstructor
p1
(c__main__
KBproperty
p2
c__builtin__
object
p3
NtRp4
(dp5
S'comment'
p6
S'mandate of a prefect of a romanian settlement'
p7
sS'domain'
p8
S'Romania Settlement '
p9
sS'instances_count'
p10
S'0'
sS'label'
p11
g7
sS'range'
p12
S'string '
p13
sS'prop_uri'
p14
S"'http://dbpedia.org/ontology/prefectMandate'"
p15
sS'annotations'
p16
(dp17
S'bag_of_words'
p18
(lp19
S'Romania'
p20
aS'Settlement'
p21
aS'prefect'
p22
aS'Mandate'
p23
aS'string'
p24
aS'mandate'
p25
aS'of'
p26
aS'a'
aS'prefect'
p27
aS'of'
p28
aS'a'
aS'romanian'
p29
aS'settlement'
p30
asS'chunk_seq'
p31
(lp32
S'B-NP'
p33
aS'I-NP'
p34
aS'I-NP'
p35
aS'I-NP'
p36
aS'I-NP'
p37
aS'E-NP'
p38
aS'S-PP'
p39
aS'B-NP'
p40
aS'E-NP'
p41
aS'S-PP'
p42
aS'B-NP'
p43
aS'I-NP'
p44
aS'E-NP'
p45
asS'dep_seq'
p46
(lp47
(lp48
S'nn'
p49
aS'6'
aS'1'
aa(lp50
S'nn'
p51
aS'6'
aS'2'
aa(lp52
S'nn'
p53
aS'6'
aS'3'
aa(lp54
S'nn'
p55
aS'6'
aS'4'
aa(lp56
S'nn'
p57
aS'6'
aS'5'
aa(lp58
S'root'
p59
aS'0'
aS'6'
aa(lp60
S'det'
p61
aS'9'
aS'8'
aa(lp62
S'prep_of'
p63
aS'6'
aS'9'
aa(lp64
S'det'
p65
aS'13'
p66
aS'11'
p67
aa(lp68
S'amod'
p69
aS'13'
p70
aS'12'
p71
aa(lp72
S'prep_of'
p73
aS'9'
aS'13'
p74
aasS'srls'
p75
(lp76
sS'pos_seq'
p77
(lp78
S'NNP'
p79
aS'NNP'
p80
aS'NN'
p81
aS'NN'
p82
aS'NN'
p83
aS'NN'
p84
aS'IN'
p85
aS'DT'
p86
aS'NN'
p87
aS'IN'
p88
aS'DT'
p89
aS'JJ'
p90
aS'NN'
p91
asS'ner_seq'
p92
(lp93
S'S-LOC'
p94
aS'O'
aS'O'
aS'O'
aS'O'
aS'O'
aS'O'
aS'O'
aS'O'
aS'O'
aS'O'
aS'O'
aS'O'
assb.