ccopy_reg
_reconstructor
p1
(c__main__
KBproperty
p2
c__builtin__
object
p3
NtRp4
(dp5
S'comment'
p6
S'the person who is responsible for the film special effects'
p7
sS'domain'
p8
S'Film '
p9
sS'instances_count'
p10
S'0'
sS'label'
p11
S'special effects'
p12
sS'range'
p13
S'Person '
p14
sS'prop_uri'
p15
S"'http://dbpedia.org/ontology/specialEffects'"
p16
sS'annotations'
p17
(dp18
S'bag_of_words'
p19
(lp20
S'Film'
p21
aS'special'
p22
aS'effects'
p23
aS'Person'
p24
aS'the'
p25
aS'person'
p26
aS'who'
p27
aS'is'
p28
aS'responsible'
p29
aS'for'
p30
aS'the'
p31
aS'film'
p32
aS'special'
p33
aS'effects'
p34
asS'chunk_seq'
p35
(lp36
S'B-NP'
p37
aS'I-NP'
p38
aS'I-NP'
p39
aS'E-NP'
p40
aS'B-NP'
p41
aS'E-NP'
p42
aS'S-NP'
p43
aS'S-VP'
p44
aS'S-ADJP'
p45
aS'S-PP'
p46
aS'B-NP'
p47
aS'I-NP'
p48
aS'I-NP'
p49
aS'E-NP'
p50
asS'dep_seq'
p51
(lp52
(lp53
S'nn'
p54
aS'4'
aS'1'
aa(lp55
S'amod'
p56
aS'4'
aS'2'
aa(lp57
S'nn'
p58
aS'4'
aS'3'
aa(lp59
S'dep'
p60
aS'6'
aS'4'
aa(lp61
S'det'
p62
aS'6'
aS'5'
aa(lp63
S'root'
p64
aS'0'
aS'6'
aa(lp65
S'nsubj'
p66
aS'9'
aS'6'
aa(lp67
S'cop'
p68
aS'9'
aS'8'
aa(lp69
S'rcmod'
p70
aS'6'
aS'9'
aa(lp71
S'det'
p72
aS'14'
p73
aS'11'
p74
aa(lp75
S'nn'
p76
aS'14'
p77
aS'12'
p78
aa(lp79
S'amod'
p80
aS'14'
p81
aS'13'
p82
aa(lp83
S'prep_for'
p84
aS'9'
aS'14'
p85
aasS'srls'
p86
(lp87
sS'pos_seq'
p88
(lp89
S'NNP'
p90
aS'JJ'
p91
aS'NNS'
p92
aS'NNP'
p93
aS'DT'
p94
aS'NN'
p95
aS'WP'
p96
aS'VBZ'
p97
aS'JJ'
p98
aS'IN'
p99
aS'DT'
p100
aS'NN'
p101
aS'JJ'
p102
aS'NNS'
p103
asS'ner_seq'
p104
(lp105
S'O'
aS'O'
aS'O'
aS'O'
aS'O'
aS'O'
aS'O'
aS'O'
aS'O'
aS'O'
aS'O'
aS'O'
aS'O'
aS'O'
assb.