ccopy_reg
_reconstructor
p1
(c__main__
KBproperty
p2
c__builtin__
object
p3
NtRp4
(dp5
S'comment'
p6
S''
sS'domain'
p7
S'Poker Player '
p8
sS'instances_count'
p9
S'0'
sS'label'
p10
S'best wsop rank'
p11
sS'range'
p12
S'non Negative Integer '
p13
sS'prop_uri'
p14
S"'http://dbpedia.org/ontology/bestWsopRank'"
p15
sS'annotations'
p16
(dp17
S'bag_of_words'
p18
(lp19
S'Poker'
p20
aS'Player'
p21
aS'best'
p22
aS'wsop'
p23
aS'rank'
p24
aS'non'
p25
aS'Negative'
p26
aS'Integer'
p27
asS'chunk_seq'
p28
(lp29
S'B-NP'
p30
aS'E-NP'
p31
aS'B-NP'
p32
aS'I-NP'
p33
aS'I-NP'
p34
aS'I-NP'
p35
aS'I-NP'
p36
aS'E-NP'
p37
asS'dep_seq'
p38
(lp39
(lp40
S'nn'
p41
aS'2'
aS'1'
aa(lp42
S'dep'
p43
aS'8'
aS'2'
aa(lp44
S'dep'
p45
aS'2'
aS'3'
aa(lp46
S'nn'
p47
aS'5'
aS'4'
aa(lp48
S'dep'
p49
aS'2'
aS'5'
aa(lp50
S'nn'
p51
aS'8'
aS'6'
aa(lp52
S'nn'
p53
aS'8'
aS'7'
aa(lp54
S'root'
p55
aS'0'
aS'8'
aasS'srls'
p56
(lp57
sS'pos_seq'
p58
(lp59
S'NNP'
p60
aS'NNP'
p61
aS'FW'
p62
aS'FW'
p63
aS'FW'
p64
aS'FW'
p65
aS'NNP'
p66
aS'NNP'
p67
asS'ner_seq'
p68
(lp69
S'O'
aS'O'
aS'O'
aS'O'
aS'O'
aS'O'
aS'O'
aS'O'
assb.