ccopy_reg
_reconstructor
p1
(c__main__
KBproperty
p2
c__builtin__
object
p3
NtRp4
(dp5
S'comment'
p6
S'head of government of Ireland'
p7
sS'domain'
p8
S''
sS'instances_count'
p9
S'5'
sS'label'
p10
S'taoiseach'
p11
sS'range'
p12
S'Person '
p13
sS'prop_uri'
p14
S"'http://dbpedia.org/ontology/taoiseach'"
p15
sS'annotations'
p16
(dp17
S'bag_of_words'
p18
(lp19
S'taoiseach'
p20
aS'Person'
p21
aS'head'
p22
aS'of'
p23
aS'government'
p24
aS'of'
p25
aS'Ireland'
p26
asS'chunk_seq'
p27
(lp28
S'B-NP'
p29
aS'I-NP'
p30
aS'E-NP'
p31
aS'S-PP'
p32
aS'S-NP'
p33
aS'S-PP'
p34
aS'S-NP'
p35
asS'dep_seq'
p36
(lp37
(lp38
S'nn'
p39
aS'3'
aS'1'
aa(lp40
S'nn'
p41
aS'3'
aS'2'
aa(lp42
S'root'
p43
aS'0'
aS'3'
aa(lp44
S'prep_of'
p45
aS'3'
aS'5'
aa(lp46
S'prep_of'
p47
aS'5'
aS'7'
aasS'srls'
p48
(lp49
sS'pos_seq'
p50
(lp51
S'NN'
p52
aS'NN'
p53
aS'NN'
p54
aS'IN'
p55
aS'NN'
p56
aS'IN'
p57
aS'NNP'
p58
asS'ner_seq'
p59
(lp60
S'O'
aS'O'
aS'O'
aS'O'
aS'O'
aS'O'
aS'S-LOC'
p61
assb.