ccopy_reg
_reconstructor
p1
(c__main__
KBproperty
p2
c__builtin__
object
p3
NtRp4
(dp5
S'comment'
p6
S'There are five types of court surface used in professional play. Each surface is different in the speed and height of the bounce of the ball.'
p7
sS'domain'
p8
S''
sS'instances_count'
p9
S'736'
p10
sS'label'
p11
S'type of tennis surface'
p12
sS'range'
p13
S'string '
p14
sS'prop_uri'
p15
S"'http://dbpedia.org/ontology/tennisSurfaceType'"
p16
sS'annotations'
p17
(dp18
S'bag_of_words'
p19
(lp20
S'type'
p21
aS'of'
p22
aS'tennis'
p23
aS'surface'
p24
aS'string'
p25
aS'There'
p26
aS'are'
p27
aS'five'
p28
aS'types'
p29
aS'of'
p30
aS'court'
p31
aS'surface'
p32
aS'used'
p33
aS'in'
p34
aS'professional'
p35
aS'play'
p36
aS'.'
aS'Each'
p37
aS'surface'
p38
aS'is'
p39
aS'different'
p40
aS'in'
p41
aS'the'
p42
aS'speed'
p43
aS'and'
p44
aS'height'
p45
aS'of'
p46
aS'the'
p47
aS'bounce'
p48
aS'of'
p49
aS'the'
p50
aS'ball'
p51
aS'.'
asS'chunk_seq'
p52
(lp53
S'S-NP'
p54
aS'S-PP'
p55
aS'B-NP'
p56
aS'I-NP'
p57
aS'E-NP'
p58
aS'S-NP'
p59
aS'S-VP'
p60
aS'B-NP'
p61
aS'E-NP'
p62
aS'S-PP'
p63
aS'B-NP'
p64
aS'E-NP'
p65
aS'S-VP'
p66
aS'S-PP'
p67
aS'B-NP'
p68
aS'E-NP'
p69
aS'O'
aS'B-NP'
p70
aS'E-NP'
p71
aS'S-VP'
p72
aS'S-ADJP'
p73
aS'S-PP'
p74
aS'B-NP'
p75
aS'I-NP'
p76
aS'I-NP'
p77
aS'E-NP'
p78
aS'S-PP'
p79
aS'B-NP'
p80
aS'E-NP'
p81
aS'S-PP'
p82
aS'B-NP'
p83
aS'E-NP'
p84
aS'O'
asS'dep_seq'
p85
(lp86
(lp87
S'nsubj'
p88
aS'20'
p89
aS'1'
aa(lp90
S'nn'
p91
aS'5'
aS'3'
aa(lp92
S'nn'
p93
aS'5'
aS'4'
aa(lp94
S'prep_of'
p95
aS'1'
aS'5'
aa(lp96
S'expl'
p97
aS'7'
aS'6'
aa(lp98
S'rcmod'
p99
aS'1'
aS'7'
aa(lp100
S'num'
p101
aS'9'
aS'8'
aa(lp102
S'nsubj'
p103
aS'7'
aS'9'
aa(lp104
S'nn'
p105
aS'12'
p106
aS'11'
p107
aa(lp108
S'prep_of'
p109
aS'9'
aS'12'
p110
aa(lp111
S'partmod'
p112
aS'9'
aS'13'
p113
aa(lp114
S'amod'
p115
aS'16'
p116
aS'15'
p117
aa(lp118
S'prep_in'
p119
aS'13'
p120
aS'16'
p121
aa(lp122
S'det'
p123
aS'19'
p124
aS'18'
p125
aa(lp126
S'nsubj'
p127
aS'20'
p128
aS'19'
p129
aa(lp130
S'root'
p131
aS'0'
aS'20'
p132
aa(lp133
S'acomp'
p134
aS'20'
p135
aS'21'
p136
aa(lp137
S'det'
p138
aS'24'
p139
aS'23'
p140
aa(lp141
S'prep_in'
p142
aS'21'
p143
aS'24'
p144
aa(lp145
S'conj_and'
p146
aS'24'
p147
aS'26'
p148
aa(lp149
S'det'
p150
aS'29'
p151
aS'28'
p152
aa(lp153
S'prep_of'
p154
aS'24'
p155
aS'29'
p156
aa(lp157
S'det'
p158
aS'32'
p159
aS'31'
p160
aa(lp161
S'prep_of'
p162
aS'29'
p163
aS'32'
p164
aasS'srls'
p165
(lp166
(dp167
S'A1'
p168
S'five types  court surface'
p169
sS'AM-LOC'
p170
S'in professional play'
p171
sS'V'
g33
sasS'pos_seq'
p172
(lp173
S'NN'
p174
aS'IN'
p175
aS'NN'
p176
aS'NN'
p177
aS'NN'
p178
aS'EX'
p179
aS'VBP'
p180
aS'CD'
p181
aS'NNS'
p182
aS'IN'
p183
aS'NN'
p184
aS'NN'
p185
aS'VBN'
p186
aS'IN'
p187
aS'JJ'
p188
aS'NN'
p189
aS'.'
aS'DT'
p190
aS'NN'
p191
aS'VBZ'
p192
aS'JJ'
p193
aS'IN'
p194
aS'DT'
p195
aS'NN'
p196
aS'CC'
p197
aS'NN'
p198
aS'IN'
p199
aS'DT'
p200
aS'NN'
p201
aS'IN'
p202
aS'DT'
p203
aS'NN'
p204
aS'.'
asS'ner_seq'
p205
(lp206
S'O'
aS'O'
aS'O'
aS'O'
aS'O'
aS'O'
aS'O'
aS'O'
aS'O'
aS'O'
aS'O'
aS'O'
aS'O'
aS'O'
aS'O'
aS'O'
aS'O'
aS'O'
aS'O'
aS'O'
aS'O'
aS'O'
aS'O'
aS'O'
aS'O'
aS'O'
aS'O'
aS'O'
aS'O'
aS'O'
aS'O'
aS'O'
aS'O'
assb.