ccopy_reg
_reconstructor
p1
(c__main__
KBproperty
p2
c__builtin__
object
p3
NtRp4
(dp5
S'comment'
p6
S''
sS'domain'
p7
S'Educational Institution '
p8
sS'instances_count'
p9
S'48'
p10
sS'label'
p11
S'closed'
p12
sS'range'
p13
S'date '
p14
sS'prop_uri'
p15
S"'http://dbpedia.org/ontology/closed'"
p16
sS'annotations'
p17
(dp18
S'bag_of_words'
p19
(lp20
S'Educational'
p21
aS'Institution'
p22
aS'closed'
p23
aS'date'
p24
asS'chunk_seq'
p25
(lp26
S'B-NP'
p27
aS'E-NP'
p28
aS'S-VP'
p29
aS'S-NP'
p30
asS'dep_seq'
p31
(lp32
(lp33
S'nn'
p34
aS'2'
aS'1'
aa(lp35
S'nsubj'
p36
aS'3'
aS'2'
aa(lp37
S'root'
p38
aS'0'
aS'3'
aa(lp39
S'dobj'
p40
aS'3'
aS'4'
aasS'srls'
p41
(lp42
(dp43
S'A1'
p44
S'Educational Institution date'
p45
sS'V'
g23
sasS'pos_seq'
p46
(lp47
S'NNP'
p48
aS'NNP'
p49
aS'VBD'
p50
aS'NN'
p51
asS'ner_seq'
p52
(lp53
S'B-ORG'
p54
aS'E-ORG'
p55
aS'O'
aS'O'
assb.