ccopy_reg
_reconstructor
p1
(c__main__
KBproperty
p2
c__builtin__
object
p3
NtRp4
(dp5
S'comment'
p6
S'The URL to the webcast of the Thing.'
p7
sS'domain'
p8
S''
sS'instances_count'
p9
S'8727'
p10
sS'label'
p11
S'webcast'
p12
sS'range'
p13
S''
sS'prop_uri'
p14
S"'http://dbpedia.org/ontology/webcast'"
p15
sS'annotations'
p16
(dp17
S'bag_of_words'
p18
(lp19
S'webcast'
p20
aS'The'
p21
aS'URL'
p22
aS'to'
p23
aS'the'
p24
aS'webcast'
p25
aS'of'
p26
aS'the'
p27
aS'Thing'
p28
aS'.'
asS'chunk_seq'
p29
(lp30
S'S-VP'
p31
aS'B-NP'
p32
aS'E-NP'
p33
aS'S-PP'
p34
aS'B-NP'
p35
aS'E-NP'
p36
aS'S-PP'
p37
aS'B-NP'
p38
aS'E-NP'
p39
aS'O'
asS'dep_seq'
p40
(lp41
(lp42
S'root'
p43
aS'0'
aS'1'
aa(lp44
S'det'
p45
aS'3'
aS'2'
aa(lp46
S'dobj'
p47
aS'1'
aS'3'
aa(lp48
S'det'
p49
aS'6'
aS'5'
aa(lp50
S'prep_to'
p51
aS'1'
aS'6'
aa(lp52
S'det'
p53
aS'9'
aS'8'
aa(lp54
S'prep_of'
p55
aS'6'
aS'9'
aasS'srls'
p56
(lp57
(dp58
S'A1'
p59
S'The URL'
p60
sS'A2'
p61
S'to the webcast of the Thing'
p62
sS'V'
g20
sasS'pos_seq'
p63
(lp64
S'VB'
p65
aS'DT'
p66
aS'NN'
p67
aS'TO'
p68
aS'DT'
p69
aS'NN'
p70
aS'IN'
p71
aS'DT'
p72
aS'NN'
p73
aS'.'
asS'ner_seq'
p74
(lp75
S'O'
aS'O'
aS'O'
aS'O'
aS'O'
aS'O'
aS'O'
aS'O'
aS'O'
aS'O'
assb.