ccopy_reg
_reconstructor
p1
(c__main__
KBproperty
p2
c__builtin__
object
p3
NtRp4
(dp5
S'comment'
p6
S'The start date of the event.'
p7
sS'domain'
p8
S'Event '
p9
sS'instances_count'
p10
S'9444'
p11
sS'label'
p12
S'start date'
p13
sS'range'
p14
S'date '
p15
sS'prop_uri'
p16
S"'http://dbpedia.org/ontology/startDate'"
p17
sS'annotations'
p18
(dp19
S'bag_of_words'
p20
(lp21
S'Event'
p22
aS'start'
p23
aS'date'
p24
aS'date'
p25
aS'The'
p26
aS'start'
p27
aS'date'
p28
aS'of'
p29
aS'the'
p30
aS'event'
p31
aS'.'
asS'chunk_seq'
p32
(lp33
S'S-NP'
p34
aS'S-VP'
p35
aS'B-NP'
p36
aS'E-NP'
p37
aS'B-NP'
p38
aS'I-NP'
p39
aS'E-NP'
p40
aS'S-PP'
p41
aS'B-NP'
p42
aS'E-NP'
p43
aS'O'
asS'dep_seq'
p44
(lp45
(lp46
S'nn'
p47
aS'4'
aS'1'
aa(lp48
S'dep'
p49
aS'4'
aS'2'
aa(lp50
S'nn'
p51
aS'4'
aS'3'
aa(lp52
S'dep'
p53
aS'7'
aS'4'
aa(lp54
S'det'
p55
aS'7'
aS'5'
aa(lp56
S'nn'
p57
aS'7'
aS'6'
aa(lp58
S'root'
p59
aS'0'
aS'7'
aa(lp60
S'det'
p61
aS'10'
p62
aS'9'
aa(lp63
S'prep_of'
p64
aS'7'
aS'10'
p65
aasS'srls'
p66
(lp67
(dp68
S'A1'
p69
g22
sS'AM-TMP'
p70
S'date date The start date of the event'
p71
sS'V'
g23
sasS'pos_seq'
p72
(lp73
S'NN'
p74
aS'VBP'
p75
aS'NN'
p76
aS'NN'
p77
aS'DT'
p78
aS'NN'
p79
aS'NN'
p80
aS'IN'
p81
aS'DT'
p82
aS'NN'
p83
aS'.'
asS'ner_seq'
p84
(lp85
S'O'
aS'O'
aS'O'
aS'O'
aS'O'
aS'O'
aS'O'
aS'O'
aS'O'
aS'O'
aS'O'
assb.