ccopy_reg
_reconstructor
p1
(c__main__
KBproperty
p2
c__builtin__
object
p3
NtRp4
(dp5
S'comment'
p6
S''
sS'domain'
p7
S'Populated Place '
p8
sS'instances_count'
p9
S'0'
sS'label'
p10
S'city since'
p11
sS'range'
p12
S'string '
p13
sS'prop_uri'
p14
S"'http://dbpedia.org/ontology/citySince'"
p15
sS'annotations'
p16
(dp17
S'bag_of_words'
p18
(lp19
S'Populated'
p20
aS'Place'
p21
aS'city'
p22
aS'since'
p23
aS'string'
p24
asS'chunk_seq'
p25
(lp26
S'B-NP'
p27
aS'I-NP'
p28
aS'E-NP'
p29
aS'S-PP'
p30
aS'S-NP'
p31
asS'dep_seq'
p32
(lp33
(lp34
S'amod'
p35
aS'3'
aS'1'
aa(lp36
S'nn'
p37
aS'3'
aS'2'
aa(lp38
S'root'
p39
aS'0'
aS'3'
aa(lp40
S'prep_since'
p41
aS'3'
aS'5'
aasS'srls'
p42
(lp43
sS'pos_seq'
p44
(lp45
S'JJ'
p46
aS'NN'
p47
aS'NN'
p48
aS'IN'
p49
aS'NN'
p50
asS'ner_seq'
p51
(lp52
S'O'
aS'O'
aS'O'
aS'O'
aS'O'
assb.