ccopy_reg
_reconstructor
p1
(c__main__
KBproperty
p2
c__builtin__
object
p3
NtRp4
(dp5
S'comment'
p6
S'Different from eMedicineSubject which see'
p7
sS'domain'
p8
S'Disease '
p9
sS'instances_count'
p10
S'0'
sS'label'
p11
S'eMedicine topic'
p12
sS'range'
p13
S'lang String '
p14
sS'prop_uri'
p15
S"'http://dbpedia.org/ontology/eMedicineTopic'"
p16
sS'annotations'
p17
(dp18
S'bag_of_words'
p19
(lp20
S'Disease'
p21
aS'eMedicine'
p22
aS'topic'
p23
aS'lang'
p24
aS'String'
p25
aS'Different'
p26
aS'from'
p27
aS'eMedicineSubject'
p28
aS'which'
p29
aS'see'
p30
asS'chunk_seq'
p31
(lp32
S'B-NP'
p33
aS'I-NP'
p34
aS'I-NP'
p35
aS'I-NP'
p36
aS'E-NP'
p37
aS'S-ADJP'
p38
aS'S-PP'
p39
aS'S-NP'
p40
aS'S-NP'
p41
aS'S-VP'
p42
asS'dep_seq'
p43
(lp44
(lp45
S'nn'
p46
aS'5'
aS'1'
aa(lp47
S'amod'
p48
aS'5'
aS'2'
aa(lp49
S'nn'
p50
aS'5'
aS'3'
aa(lp51
S'amod'
p52
aS'5'
aS'4'
aa(lp53
S'root'
p54
aS'0'
aS'5'
aa(lp55
S'amod'
p56
aS'5'
aS'6'
aa(lp57
S'prep_from'
p58
aS'6'
aS'8'
aa(lp59
S'dep'
p60
aS'5'
aS'9'
aa(lp61
S'dep'
p62
aS'5'
aS'10'
p63
aasS'srls'
p64
(lp65
(dp66
S'A1'
p67
g25
sS'V'
g24
sasS'pos_seq'
p68
(lp69
S'NN'
p70
aS'JJ'
p71
aS'NN'
p72
aS'VBG'
p73
aS'NN'
p74
aS'JJ'
p75
aS'IN'
p76
aS'NN'
p77
aS'WDT'
p78
aS'VBP'
p79
asS'ner_seq'
p80
(lp81
S'O'
aS'O'
aS'O'
aS'O'
aS'B-MISC'
p82
aS'I-MISC'
p83
aS'I-MISC'
p84
aS'E-MISC'
p85
aS'O'
aS'O'
assb.