ccopy_reg
_reconstructor
p1
(c__main__
KBproperty
p2
c__builtin__
object
p3
NtRp4
(dp5
S'comment'
p6
S'colour hex code of home jersey or its parts'
p7
sS'domain'
p8
S''
sS'instances_count'
p9
S'0'
sS'label'
p10
g7
sS'range'
p11
S'string '
p12
sS'prop_uri'
p13
S"'http://dbpedia.org/ontology/homeColourHexCode'"
p14
sS'annotations'
p15
(dp16
S'bag_of_words'
p17
(lp18
S'home'
p19
aS'Colour'
p20
aS'Hex'
p21
aS'Code'
p22
aS'string'
p23
aS'colour'
p24
aS'hex'
p25
aS'code'
p26
aS'of'
p27
aS'home'
p28
aS'jersey'
p29
aS'or'
p30
aS'its'
p31
aS'parts'
p32
asS'chunk_seq'
p33
(lp34
S'B-NP'
p35
aS'I-NP'
p36
aS'I-NP'
p37
aS'I-NP'
p38
aS'I-NP'
p39
aS'I-NP'
p40
aS'I-NP'
p41
aS'E-NP'
p42
aS'S-PP'
p43
aS'B-NP'
p44
aS'E-NP'
p45
aS'O'
aS'B-NP'
p46
aS'E-NP'
p47
asS'dep_seq'
p48
(lp49
(lp50
S'nn'
p51
aS'8'
aS'1'
aa(lp52
S'nn'
p53
aS'8'
aS'2'
aa(lp54
S'nn'
p55
aS'8'
aS'3'
aa(lp56
S'nn'
p57
aS'8'
aS'4'
aa(lp58
S'nn'
p59
aS'8'
aS'5'
aa(lp60
S'nn'
p61
aS'8'
aS'6'
aa(lp62
S'nn'
p63
aS'8'
aS'7'
aa(lp64
S'root'
p65
aS'0'
aS'8'
aa(lp66
S'nn'
p67
aS'11'
p68
aS'10'
p69
aa(lp70
S'prep_of'
p71
aS'8'
aS'11'
p72
aa(lp73
S'poss'
p74
aS'14'
p75
aS'13'
p76
aa(lp77
S'conj_or'
p78
aS'11'
p79
aS'14'
p80
aasS'srls'
p81
(lp82
sS'pos_seq'
p83
(lp84
S'NN'
p85
aS'NNP'
p86
aS'NNP'
p87
aS'NNP'
p88
aS'NN'
p89
aS'NN'
p90
aS'NN'
p91
aS'NN'
p92
aS'IN'
p93
aS'NN'
p94
aS'NN'
p95
aS'CC'
p96
aS'PRP$'
p97
aS'NNS'
p98
asS'ner_seq'
p99
(lp100
S'O'
aS'O'
aS'O'
aS'O'
aS'O'
aS'O'
aS'O'
aS'O'
aS'O'
aS'O'
aS'O'
aS'O'
aS'O'
aS'O'
assb.