ccopy_reg
_reconstructor
p1
(c__main__
KBproperty
p2
c__builtin__
object
p3
NtRp4
(dp5
S'comment'
p6
S'winner of a competition in the single female session to distinguish from the double session as in tennis'
p7
sS'domain'
p8
S'Sports Event '
p9
sS'instances_count'
p10
S'176'
p11
sS'label'
p12
S'champion in single female'
p13
sS'range'
p14
S'Athlete '
p15
sS'prop_uri'
p16
S"'http://dbpedia.org/ontology/championInSingleFemale'"
p17
sS'annotations'
p18
(dp19
S'bag_of_words'
p20
(lp21
S'Sports'
p22
aS'Event'
p23
aS'champion'
p24
aS'in'
p25
aS'single'
p26
aS'female'
p27
aS'Athlete'
p28
aS'winner'
p29
aS'of'
p30
aS'a'
aS'competition'
p31
aS'in'
p32
aS'the'
p33
aS'single'
p34
aS'female'
p35
aS'session'
p36
aS'to'
p37
aS'distinguish'
p38
aS'from'
p39
aS'the'
p40
aS'double'
p41
aS'session'
p42
aS'as'
p43
aS'in'
p44
aS'tennis'
p45
asS'chunk_seq'
p46
(lp47
S'B-NP'
p48
aS'I-NP'
p49
aS'E-NP'
p50
aS'S-PP'
p51
aS'B-NP'
p52
aS'I-NP'
p53
aS'I-NP'
p54
aS'E-NP'
p55
aS'S-PP'
p56
aS'B-NP'
p57
aS'E-NP'
p58
aS'S-PP'
p59
aS'B-NP'
p60
aS'I-NP'
p61
aS'I-NP'
p62
aS'E-NP'
p63
aS'B-VP'
p64
aS'E-VP'
p65
aS'S-PP'
p66
aS'B-NP'
p67
aS'I-NP'
p68
aS'E-NP'
p69
aS'S-PP'
p70
aS'S-PP'
p71
aS'S-NP'
p72
asS'dep_seq'
p73
(lp74
(lp75
S'nn'
p76
aS'3'
aS'1'
aa(lp77
S'nn'
p78
aS'3'
aS'2'
aa(lp79
S'root'
p80
aS'0'
aS'3'
aa(lp81
S'amod'
p82
aS'8'
aS'5'
aa(lp83
S'amod'
p84
aS'8'
aS'6'
aa(lp85
S'nn'
p86
aS'8'
aS'7'
aa(lp87
S'prep_in'
p88
aS'3'
aS'8'
aa(lp89
S'det'
p90
aS'11'
p91
aS'10'
p92
aa(lp93
S'prep_of'
p94
aS'8'
aS'11'
p95
aa(lp96
S'det'
p97
aS'16'
p98
aS'13'
p99
aa(lp100
S'amod'
p101
aS'16'
p102
aS'14'
p103
aa(lp104
S'amod'
p105
aS'16'
p106
aS'15'
p107
aa(lp108
S'prep_in'
p109
aS'11'
p110
aS'16'
p111
aa(lp112
S'aux'
p113
aS'18'
p114
aS'17'
p115
aa(lp116
S'infmod'
p117
aS'11'
p118
aS'18'
p119
aa(lp120
S'det'
p121
aS'22'
p122
aS'20'
p123
aa(lp124
S'amod'
p125
aS'22'
p126
aS'21'
p127
aa(lp128
S'prep_from'
p129
aS'18'
p130
aS'22'
p131
aa(lp132
S'prep'
p133
aS'22'
p134
aS'23'
p135
aa(lp136
S'pcomp'
p137
aS'23'
p138
aS'24'
p139
aa(lp140
S'pobj'
p141
aS'24'
p142
aS'25'
p143
aasS'srls'
p144
(lp145
(dp146
S'A0'
p147
S'Sports Event champion in single female Athlete winner of a competition in the single female session'
p148
sS'A2'
p149
S'from the double session  in tennis'
p150
sS'V'
g38
sasS'pos_seq'
p151
(lp152
S'NNS'
p153
aS'NN'
p154
aS'NN'
p155
aS'IN'
p156
aS'JJ'
p157
aS'JJ'
p158
aS'NN'
p159
aS'NN'
p160
aS'IN'
p161
aS'DT'
p162
aS'NN'
p163
aS'IN'
p164
aS'DT'
p165
aS'JJ'
p166
aS'JJ'
p167
aS'NN'
p168
aS'TO'
p169
aS'VB'
p170
aS'IN'
p171
aS'DT'
p172
aS'JJ'
p173
aS'NN'
p174
aS'IN'
p175
aS'IN'
p176
aS'NN'
p177
asS'ner_seq'
p178
(lp179
S'O'
aS'O'
aS'O'
aS'O'
aS'O'
aS'O'
aS'O'
aS'O'
aS'O'
aS'O'
aS'O'
aS'O'
aS'O'
aS'O'
aS'O'
aS'O'
aS'O'
aS'O'
aS'O'
aS'O'
aS'O'
aS'O'
aS'O'
aS'O'
aS'O'
assb.