ccopy_reg
_reconstructor
p1
(c__main__
KBproperty
p2
c__builtin__
object
p3
NtRp4
(dp5
S'comment'
p6
S'Organisation or city who is the operator of an ArchitecturalStructure PublicTransitSystem etc. Not to confuse with maintainer or the owner.'
p7
sS'domain'
p8
S''
sS'instances_count'
p9
S'7371'
p10
sS'label'
p11
S'operated by'
p12
sS'range'
p13
S''
sS'prop_uri'
p14
S"'http://dbpedia.org/ontology/operatedBy'"
p15
sS'annotations'
p16
(dp17
S'bag_of_words'
p18
(lp19
S'operated'
p20
aS'by'
p21
aS'Organisation'
p22
aS'or'
p23
aS'city'
p24
aS'who'
p25
aS'is'
p26
aS'the'
p27
aS'operator'
p28
aS'of'
p29
aS'an'
p30
aS'ArchitecturalStructure'
p31
aS'PublicTransitSystem'
p32
aS'etc.'
p33
aS'Not'
p34
aS'to'
p35
aS'confuse'
p36
aS'with'
p37
aS'maintainer'
p38
aS'or'
p39
aS'the'
p40
aS'owner'
p41
aS'.'
asS'chunk_seq'
p42
(lp43
S'S-VP'
p44
aS'S-PP'
p45
aS'B-NP'
p46
aS'I-NP'
p47
aS'E-NP'
p48
aS'S-NP'
p49
aS'S-VP'
p50
aS'B-NP'
p51
aS'E-NP'
p52
aS'S-PP'
p53
aS'B-NP'
p54
aS'I-NP'
p55
aS'E-NP'
p56
aS'B-VP'
p57
aS'I-VP'
p58
aS'I-VP'
p59
aS'E-VP'
p60
aS'S-PP'
p61
aS'S-NP'
p62
aS'O'
aS'B-NP'
p63
aS'E-NP'
p64
aS'O'
asS'dep_seq'
p65
(lp66
(lp67
S'root'
p68
aS'0'
aS'1'
aa(lp69
S'prep_by'
p70
aS'1'
aS'3'
aa(lp71
S'nsubj'
p72
aS'9'
aS'3'
aa(lp73
S'conj_or'
p74
aS'3'
aS'5'
aa(lp75
S'cop'
p76
aS'9'
aS'7'
aa(lp77
S'det'
p78
aS'9'
aS'8'
aa(lp79
S'rcmod'
p80
aS'3'
aS'9'
aa(lp81
S'det'
p82
aS'13'
p83
aS'11'
p84
aa(lp85
S'nn'
p86
aS'13'
p87
aS'12'
p88
aa(lp89
S'prep_of'
p90
aS'9'
aS'13'
p91
aa(lp92
S'dep'
p93
aS'1'
aS'14'
p94
aa(lp95
S'neg'
p96
aS'17'
p97
aS'15'
p98
aa(lp99
S'aux'
p100
aS'17'
p101
aS'16'
p102
aa(lp103
S'xcomp'
p104
aS'1'
aS'17'
p105
aa(lp106
S'prep_with'
p107
aS'17'
p108
aS'19'
p109
aa(lp110
S'det'
p111
aS'22'
p112
aS'21'
p113
aa(lp114
S'conj_or'
p115
aS'19'
p116
aS'22'
p117
aasS'srls'
p118
(lp119
(dp120
S'A0'
p121
S'by Organisation or city who is the operator of an ArchitecturalStructure PublicTransitSystem'
p122
sS'V'
g20
sa(dp123
S'A1'
p124
S'an ArchitecturalStructure PublicTransitSystem'
p125
sS'A2'
p126
S'with maintainer or the owner'
p127
sS'AM-NEG'
p128
g34
sS'V'
g36
sasS'pos_seq'
p129
(lp130
S'VBN'
p131
aS'IN'
p132
aS'NNP'
p133
aS'CC'
p134
aS'NN'
p135
aS'WP'
p136
aS'VBZ'
p137
aS'DT'
p138
aS'NN'
p139
aS'IN'
p140
aS'DT'
p141
aS'NNP'
p142
aS'NNP'
p143
aS'MD'
p144
aS'RB'
p145
aS'TO'
p146
aS'VB'
p147
aS'IN'
p148
aS'NN'
p149
aS'CC'
p150
aS'DT'
p151
aS'NN'
p152
aS'.'
asS'ner_seq'
p153
(lp154
S'O'
aS'O'
aS'O'
aS'O'
aS'O'
aS'O'
aS'O'
aS'O'
aS'O'
aS'O'
aS'O'
aS'B-PER'
p155
aS'E-PER'
p156
aS'O'
aS'O'
aS'O'
aS'O'
aS'O'
aS'O'
aS'O'
aS'O'
aS'O'
aS'O'
assb.