ccopy_reg
_reconstructor
p1
(c__main__
KBproperty
p2
c__builtin__
object
p3
NtRp4
(dp5
S'comment'
p6
S'Identifier for serial titles. More precise than issn'
p7
sS'domain'
p8
S'Periodical Literature '
p9
sS'instances_count'
p10
S'0'
sS'label'
p11
S'zdb'
p12
sS'range'
p13
S'string '
p14
sS'prop_uri'
p15
S"'http://dbpedia.org/ontology/zdb'"
p16
sS'annotations'
p17
(dp18
S'bag_of_words'
p19
(lp20
S'Periodical'
p21
aS'Literature'
p22
aS'zdb'
p23
aS'string'
p24
aS'Identifier'
p25
aS'for'
p26
aS'serial'
p27
aS'titles'
p28
aS'.'
aS'More'
p29
aS'precise'
p30
aS'than'
p31
aS'issn'
p32
asS'chunk_seq'
p33
(lp34
S'B-NP'
p35
aS'I-NP'
p36
aS'I-NP'
p37
aS'I-NP'
p38
aS'E-NP'
p39
aS'S-PP'
p40
aS'B-NP'
p41
aS'E-NP'
p42
aS'O'
aS'B-ADJP'
p43
aS'E-ADJP'
p44
aS'S-PP'
p45
aS'S-NP'
p46
asS'dep_seq'
p47
(lp48
(lp49
S'nn'
p50
aS'5'
aS'1'
aa(lp51
S'nn'
p52
aS'5'
aS'2'
aa(lp53
S'possessive'
p54
aS'5'
aS'3'
aa(lp55
S'nn'
p56
aS'5'
aS'4'
aa(lp57
S'root'
p58
aS'0'
aS'5'
aa(lp59
S'amod'
p60
aS'8'
aS'7'
aa(lp61
S'prep_for'
p62
aS'5'
aS'8'
aa(lp63
S'advmod'
p64
aS'11'
p65
aS'10'
p66
aa(lp67
S'amod'
p68
aS'5'
aS'11'
p69
aa(lp70
S'prep_than'
p71
aS'11'
p72
aS'13'
p73
aasS'srls'
p74
(lp75
sS'pos_seq'
p76
(lp77
S'NNP'
p78
aS'NNP'
p79
aS'POS'
p80
aS'NN'
p81
aS'NN'
p82
aS'IN'
p83
aS'JJ'
p84
aS'NNS'
p85
aS'.'
aS'RBR'
p86
aS'JJ'
p87
aS'IN'
p88
aS'NN'
p89
asS'ner_seq'
p90
(lp91
S'B-MISC'
p92
aS'E-MISC'
p93
aS'O'
aS'O'
aS'O'
aS'O'
aS'O'
aS'O'
aS'O'
aS'O'
aS'O'
aS'O'
aS'O'
assb.