ccopy_reg
_reconstructor
p1
(c__main__
KBproperty
p2
c__builtin__
object
p3
NtRp4
(dp5
S'comment'
p6
S''
sS'domain'
p7
S'Olympics '
p8
sS'instances_count'
p9
S'0'
sS'label'
p10
S'olympic oath sworn by'
p11
sS'range'
p12
S'Person '
p13
sS'prop_uri'
p14
S"'http://dbpedia.org/ontology/olympicOathSwornBy'"
p15
sS'annotations'
p16
(dp17
S'bag_of_words'
p18
(lp19
S'Olympics'
p20
aS'olympic'
p21
aS'oath'
p22
aS'sworn'
p23
aS'by'
p24
aS'Person'
p25
asS'chunk_seq'
p26
(lp27
S'B-NP'
p28
aS'I-NP'
p29
aS'E-NP'
p30
aS'S-VP'
p31
aS'S-PP'
p32
aS'S-NP'
p33
asS'dep_seq'
p34
(lp35
(lp36
S'nn'
p37
aS'3'
aS'1'
aa(lp38
S'amod'
p39
aS'3'
aS'2'
aa(lp40
S'root'
p41
aS'0'
aS'3'
aa(lp42
S'amod'
p43
aS'3'
aS'4'
aa(lp44
S'prep_by'
p45
aS'4'
aS'6'
aasS'srls'
p46
(lp47
(dp48
S'A1'
p49
S'Olympics olympic oath'
p50
sS'A0'
p51
S'by Person'
p52
sS'V'
g23
sasS'pos_seq'
p53
(lp54
S'NNS'
p55
aS'JJ'
p56
aS'NN'
p57
aS'VBN'
p58
aS'IN'
p59
aS'NN'
p60
asS'ner_seq'
p61
(lp62
S'S-MISC'
p63
aS'O'
aS'O'
aS'O'
aS'O'
aS'O'
assb.