ccopy_reg
_reconstructor
p1
(c__main__
KBproperty
p2
c__builtin__
object
p3
NtRp4
(dp5
S'comment'
p6
S'The genre of the thing music group film etc.'
p7
sS'domain'
p8
S''
sS'instances_count'
p9
S'556300'
p10
sS'label'
p11
S'genre'
p12
sS'range'
p13
S'Genre '
p14
sS'prop_uri'
p15
S"'http://dbpedia.org/ontology/genre'"
p16
sS'annotations'
p17
(dp18
S'bag_of_words'
p19
(lp20
S'genre'
p21
aS'Genre'
p22
aS'The'
p23
aS'genre'
p24
aS'of'
p25
aS'the'
p26
aS'thing'
p27
aS'music'
p28
aS'group'
p29
aS'film'
p30
aS'etc.'
p31
asS'chunk_seq'
p32
(lp33
S'B-NP'
p34
aS'E-NP'
p35
aS'B-NP'
p36
aS'E-NP'
p37
aS'S-PP'
p38
aS'B-NP'
p39
aS'I-NP'
p40
aS'I-NP'
p41
aS'I-NP'
p42
aS'E-NP'
p43
aS'O'
asS'dep_seq'
p44
(lp45
(lp46
S'nn'
p47
aS'2'
aS'1'
aa(lp48
S'dep'
p49
aS'4'
aS'2'
aa(lp50
S'det'
p51
aS'4'
aS'3'
aa(lp52
S'root'
p53
aS'0'
aS'4'
aa(lp54
S'det'
p55
aS'10'
p56
aS'6'
aa(lp57
S'nn'
p58
aS'10'
p59
aS'7'
aa(lp60
S'nn'
p61
aS'10'
p62
aS'8'
aa(lp63
S'nn'
p64
aS'10'
p65
aS'9'
aa(lp66
S'prep_of'
p67
aS'4'
aS'10'
p68
aa(lp69
S'punct'
p70
aS'4'
aS'11'
p71
aasS'srls'
p72
(lp73
sS'pos_seq'
p74
(lp75
S'NN'
p76
aS'NNP'
p77
aS'DT'
p78
aS'NN'
p79
aS'IN'
p80
aS'DT'
p81
aS'NN'
p82
aS'NN'
p83
aS'NN'
p84
aS'NN'
p85
aS'.'
asS'ner_seq'
p86
(lp87
S'O'
aS'O'
aS'O'
aS'O'
aS'O'
aS'O'
aS'O'
aS'O'
aS'O'
aS'O'
aS'O'
assb.