ccopy_reg
_reconstructor
p1
(c__main__
KBproperty
p2
c__builtin__
object
p3
NtRp4
(dp5
S'comment'
p6
S'Type of station structure underground at-grade or elevated.'
p7
sS'domain'
p8
S'Station '
p9
sS'instances_count'
p10
S'6954'
p11
sS'label'
p12
S'station structure'
p13
sS'range'
p14
S'string '
p15
sS'prop_uri'
p16
S"'http://dbpedia.org/ontology/stationStructure'"
p17
sS'annotations'
p18
(dp19
S'bag_of_words'
p20
(lp21
S'Station'
p22
aS'station'
p23
aS'structure'
p24
aS'string'
p25
aS'Type'
p26
aS'of'
p27
aS'station'
p28
aS'structure'
p29
aS'underground'
p30
aS'at'
p31
aS'-'
aS'grade'
p32
aS'or'
p33
aS'elevated'
p34
aS'.'
asS'chunk_seq'
p35
(lp36
S'B-NP'
p37
aS'I-NP'
p38
aS'I-NP'
p39
aS'I-NP'
p40
aS'E-NP'
p41
aS'S-PP'
p42
aS'B-NP'
p43
aS'E-NP'
p44
aS'S-ADVP'
p45
aS'S-PP'
p46
aS'O'
aS'O'
aS'O'
aS'S-VP'
p47
aS'O'
asS'dep_seq'
p48
(lp49
(lp50
S'nn'
p51
aS'5'
aS'1'
aa(lp52
S'nn'
p53
aS'5'
aS'2'
aa(lp54
S'nn'
p55
aS'5'
aS'3'
aa(lp56
S'nn'
p57
aS'5'
aS'4'
aa(lp58
S'root'
p59
aS'0'
aS'5'
aa(lp60
S'nn'
p61
aS'8'
aS'7'
aa(lp62
S'prep_of'
p63
aS'5'
aS'8'
aa(lp64
S'advmod'
p65
aS'10'
p66
aS'9'
aa(lp67
S'dep'
p68
aS'5'
aS'10'
p69
aa(lp70
S'conj_or'
p71
aS'10'
p72
aS'12'
p73
aa(lp74
S'conj_or'
p75
aS'10'
p76
aS'14'
p77
aasS'srls'
p78
(lp79
(dp80
S'A1'
p81
S'Station station structure string Type of station structure'
p82
sS'V'
g34
sasS'pos_seq'
p83
(lp84
S'NN'
p85
aS'NN'
p86
aS'NN'
p87
aS'NN'
p88
aS'NN'
p89
aS'IN'
p90
aS'NN'
p91
aS'NN'
p92
aS'RB'
p93
aS'IN'
p94
aS':'
aS'NN'
p95
aS'CC'
p96
aS'VBN'
p97
aS'.'
asS'ner_seq'
p98
(lp99
S'O'
aS'O'
aS'O'
aS'O'
aS'O'
aS'O'
aS'O'
aS'O'
aS'O'
aS'O'
aS'O'
aS'O'
aS'O'
aS'O'
aS'O'
assb.