ccopy_reg
_reconstructor
p1
(c__main__
KBproperty
p2
c__builtin__
object
p3
NtRp4
(dp5
S'comment'
p6
S''
sS'domain'
p7
S'Space Mission '
p8
sS'instances_count'
p9
S'0'
sS'label'
p10
S'orbital inclination'
p11
sS'range'
p12
S'float '
p13
sS'prop_uri'
p14
S"'http://dbpedia.org/ontology/orbitalInclination'"
p15
sS'annotations'
p16
(dp17
S'bag_of_words'
p18
(lp19
S'Space'
p20
aS'Mission'
p21
aS'orbital'
p22
aS'inclination'
p23
aS'float'
p24
asS'chunk_seq'
p25
(lp26
S'B-NP'
p27
aS'I-NP'
p28
aS'I-NP'
p29
aS'E-NP'
p30
aS'S-VP'
p31
asS'dep_seq'
p32
(lp33
(lp34
S'nn'
p35
aS'5'
aS'1'
aa(lp36
S'nn'
p37
aS'5'
aS'2'
aa(lp38
S'amod'
p39
aS'5'
aS'3'
aa(lp40
S'nn'
p41
aS'5'
aS'4'
aa(lp42
S'root'
p43
aS'0'
aS'5'
aasS'srls'
p44
(lp45
sS'pos_seq'
p46
(lp47
S'NNP'
p48
aS'NNP'
p49
aS'JJ'
p50
aS'NN'
p51
aS'NN'
p52
asS'ner_seq'
p53
(lp54
S'B-ORG'
p55
aS'E-ORG'
p56
aS'O'
aS'O'
aS'O'
assb.