ccopy_reg
_reconstructor
p1
(c__main__
KBproperty
p2
c__builtin__
object
p3
NtRp4
(dp5
S'comment'
p6
S'lchf draft year'
p7
sS'domain'
p8
S'Ice Hockey Player '
p9
sS'instances_count'
p10
S'0'
sS'label'
p11
g7
sS'range'
p12
S'string '
p13
sS'prop_uri'
p14
S"'http://dbpedia.org/ontology/lchfDraft'"
p15
sS'annotations'
p16
(dp17
S'bag_of_words'
p18
(lp19
S'Ice'
p20
aS'Hockey'
p21
aS'Player'
p22
aS'lchf'
p23
aS'Draft'
p24
aS'string'
p25
aS'lchf'
p26
aS'draft'
p27
aS'year'
p28
asS'chunk_seq'
p29
(lp30
S'B-NP'
p31
aS'I-NP'
p32
aS'I-NP'
p33
aS'I-NP'
p34
aS'I-NP'
p35
aS'I-NP'
p36
aS'I-NP'
p37
aS'I-NP'
p38
aS'E-NP'
p39
asS'dep_seq'
p40
(lp41
(lp42
S'nn'
p43
aS'9'
aS'1'
aa(lp44
S'nn'
p45
aS'9'
aS'2'
aa(lp46
S'nn'
p47
aS'9'
aS'3'
aa(lp48
S'nn'
p49
aS'9'
aS'4'
aa(lp50
S'nn'
p51
aS'9'
aS'5'
aa(lp52
S'nn'
p53
aS'9'
aS'6'
aa(lp54
S'nn'
p55
aS'9'
aS'7'
aa(lp56
S'nn'
p57
aS'9'
aS'8'
aa(lp58
S'root'
p59
aS'0'
aS'9'
aasS'srls'
p60
(lp61
sS'pos_seq'
p62
(lp63
S'NNP'
p64
aS'NNP'
p65
aS'NNP'
p66
aS'NN'
p67
aS'NNP'
p68
aS'NN'
p69
aS'NN'
p70
aS'NN'
p71
aS'NN'
p72
asS'ner_seq'
p73
(lp74
S'B-MISC'
p75
aS'I-MISC'
p76
aS'I-MISC'
p77
aS'I-MISC'
p78
aS'E-MISC'
p79
aS'O'
aS'O'
aS'O'
aS'O'
assb.