ccopy_reg
_reconstructor
p1
(c__main__
KBproperty
p2
c__builtin__
object
p3
NtRp4
(dp5
S'comment'
p6
S''
sS'domain'
p7
S''
sS'instances_count'
p8
S'0'
sS'label'
p9
S'melting point K'
p10
sS'range'
p11
S'double '
p12
sS'prop_uri'
p13
S"'http://dbpedia.org/ontology/meltingPoint'"
p14
sS'annotations'
p15
(dp16
S'bag_of_words'
p17
(lp18
S'melting'
p19
aS'point'
p20
aS'K'
aS'double'
p21
asS'chunk_seq'
p22
(lp23
S'B-NP'
p24
aS'E-NP'
p25
aS'B-NP'
p26
aS'E-NP'
p27
asS'dep_seq'
p28
(lp29
(lp30
S'amod'
p31
aS'3'
aS'1'
aa(lp32
S'nn'
p33
aS'3'
aS'2'
aa(lp34
S'root'
p35
aS'0'
aS'3'
aa(lp36
S'advmod'
p37
aS'3'
aS'4'
aasS'srls'
p38
(lp39
(dp40
S'A1'
p41
S'point K double'
p42
sS'V'
g19
sasS'pos_seq'
p43
(lp44
S'VBG'
p45
aS'NN'
p46
aS'NNP'
p47
aS'RB'
p48
asS'ner_seq'
p49
(lp50
S'O'
aS'O'
aS'O'
aS'O'
assb.