ccopy_reg
_reconstructor
p1
(c__main__
KBproperty
p2
c__builtin__
object
p3
NtRp4
(dp5
S'comment'
p6
S''
sS'domain'
p7
S'Architectural Structure '
p8
sS'instances_count'
p9
S'0'
sS'label'
p10
S'visitors total'
p11
sS'range'
p12
S'non Negative Integer '
p13
sS'prop_uri'
p14
S"'http://dbpedia.org/ontology/visitorsTotal'"
p15
sS'annotations'
p16
(dp17
S'bag_of_words'
p18
(lp19
S'Architectural'
p20
aS'Structure'
p21
aS'visitors'
p22
aS'total'
p23
aS'non'
p24
aS'Negative'
p25
aS'Integer'
p26
asS'chunk_seq'
p27
(lp28
S'B-NP'
p29
aS'E-NP'
p30
aS'S-NP'
p31
aS'S-VP'
p32
aS'B-NP'
p33
aS'I-NP'
p34
aS'E-NP'
p35
asS'dep_seq'
p36
(lp37
(lp38
S'amod'
p39
aS'3'
aS'1'
aa(lp40
S'nn'
p41
aS'3'
aS'2'
aa(lp42
S'nsubj'
p43
aS'4'
aS'3'
aa(lp44
S'root'
p45
aS'0'
aS'4'
aa(lp46
S'amod'
p47
aS'7'
aS'5'
aa(lp48
S'amod'
p49
aS'7'
aS'6'
aa(lp50
S'dobj'
p51
aS'4'
aS'7'
aasS'srls'
p52
(lp53
(dp54
S'A1'
p55
S'Architectural Structure visitors'
p56
sS'A2'
p57
S'non Negative Integer'
p58
sS'V'
g23
sasS'pos_seq'
p59
(lp60
S'JJ'
p61
aS'NN'
p62
aS'NNS'
p63
aS'VBP'
p64
aS'JJ'
p65
aS'JJ'
p66
aS'NN'
p67
asS'ner_seq'
p68
(lp69
S'O'
aS'O'
aS'O'
aS'O'
aS'O'
aS'O'
aS'O'
assb.