ccopy_reg
_reconstructor
p1
(c__main__
KBproperty
p2
c__builtin__
object
p3
NtRp4
(dp5
S'comment'
p6
S'most down point of a norwegian settlement'
p7
sS'domain'
p8
S'Norway Settlement '
p9
sS'instances_count'
p10
S'0'
sS'label'
p11
g7
sS'range'
p12
S'Place '
p13
sS'prop_uri'
p14
S"'http://dbpedia.org/ontology/mostDownPoint'"
p15
sS'annotations'
p16
(dp17
S'bag_of_words'
p18
(lp19
S'Norway'
p20
aS'Settlement'
p21
aS'most'
p22
aS'Down'
p23
aS'Point'
p24
aS'Place'
p25
aS'most'
p26
aS'down'
p27
aS'point'
p28
aS'of'
p29
aS'a'
aS'norwegian'
p30
aS'settlement'
p31
asS'chunk_seq'
p32
(lp33
S'B-NP'
p34
aS'E-NP'
p35
aS'B-ADVP'
p36
aS'E-ADVP'
p37
aS'B-NP'
p38
aS'E-NP'
p39
aS'S-ADVP'
p40
aS'S-PP'
p41
aS'S-NP'
p42
aS'S-PP'
p43
aS'B-NP'
p44
aS'I-NP'
p45
aS'E-NP'
p46
asS'dep_seq'
p47
(lp48
(lp49
S'nn'
p50
aS'2'
aS'1'
aa(lp51
S'root'
p52
aS'0'
aS'2'
aa(lp53
S'advmod'
p54
aS'6'
aS'3'
aa(lp55
S'amod'
p56
aS'6'
aS'4'
aa(lp57
S'nn'
p58
aS'6'
aS'5'
aa(lp59
S'dep'
p60
aS'2'
aS'6'
aa(lp61
S'advmod'
p62
aS'8'
aS'7'
aa(lp63
S'advmod'
p64
aS'6'
aS'8'
aa(lp65
S'dep'
p66
aS'8'
aS'9'
aa(lp67
S'det'
p68
aS'13'
p69
aS'11'
p70
aa(lp71
S'amod'
p72
aS'13'
p73
aS'12'
p74
aa(lp75
S'prep_of'
p76
aS'6'
aS'13'
p77
aasS'srls'
p78
(lp79
sS'pos_seq'
p80
(lp81
S'NNP'
p82
aS'NNP'
p83
aS'RBS'
p84
aS'JJ'
p85
aS'NN'
p86
aS'NN'
p87
aS'RBS'
p88
aS'IN'
p89
aS'NN'
p90
aS'IN'
p91
aS'DT'
p92
aS'JJ'
p93
aS'NN'
p94
asS'ner_seq'
p95
(lp96
S'S-LOC'
p97
aS'O'
aS'O'
aS'O'
aS'O'
aS'O'
aS'O'
aS'O'
aS'O'
aS'O'
aS'O'
aS'O'
aS'O'
assb.