ccopy_reg
_reconstructor
p1
(c__main__
KBproperty
p2
c__builtin__
object
p3
NtRp4
(dp5
S'comment'
p6
S''
sS'domain'
p7
S'Mean Of Transportation '
p8
sS'instances_count'
p9
S'0'
sS'label'
p10
S'number of seats'
p11
sS'range'
p12
S'non Negative Integer '
p13
sS'prop_uri'
p14
S"'http://dbpedia.org/ontology/numberOfSeats'"
p15
sS'annotations'
p16
(dp17
S'bag_of_words'
p18
(lp19
S'Mean'
p20
aS'Of'
p21
aS'Transportation'
p22
aS'number'
p23
aS'of'
p24
aS'seats'
p25
aS'non'
p26
aS'Negative'
p27
aS'Integer'
p28
asS'chunk_seq'
p29
(lp30
S'S-NP'
p31
aS'S-PP'
p32
aS'B-NP'
p33
aS'E-NP'
p34
aS'S-PP'
p35
aS'S-NP'
p36
aS'B-NP'
p37
aS'I-NP'
p38
aS'E-NP'
p39
asS'dep_seq'
p40
(lp41
(lp42
S'nn'
p43
aS'4'
aS'1'
aa(lp44
S'prep_of'
p45
aS'4'
aS'3'
aa(lp46
S'root'
p47
aS'0'
aS'4'
aa(lp48
S'prep_of'
p49
aS'4'
aS'6'
aa(lp50
S'amod'
p51
aS'9'
aS'7'
aa(lp52
S'amod'
p53
aS'9'
aS'8'
aa(lp54
S'dep'
p55
aS'6'
aS'9'
aasS'srls'
p56
(lp57
sS'pos_seq'
p58
(lp59
S'NNP'
p60
aS'IN'
p61
aS'NNP'
p62
aS'NN'
p63
aS'IN'
p64
aS'NNS'
p65
aS'JJ'
p66
aS'JJ'
p67
aS'NN'
p68
asS'ner_seq'
p69
(lp70
S'O'
aS'O'
aS'O'
aS'O'
aS'O'
aS'O'
aS'O'
aS'B-MISC'
p71
aS'E-MISC'
p72
assb.