ccopy_reg
_reconstructor
p1
(c__main__
KBproperty
p2
c__builtin__
object
p3
NtRp4
(dp5
S'comment'
p6
S'Principal of an educational institution school'
p7
sS'domain'
p8
S'Educational Institution '
p9
sS'instances_count'
p10
S'178'
p11
sS'label'
p12
S'principal'
p13
sS'range'
p14
S'Person '
p15
sS'prop_uri'
p16
S"'http://dbpedia.org/ontology/principal'"
p17
sS'annotations'
p18
(dp19
S'bag_of_words'
p20
(lp21
S'Educational'
p22
aS'Institution'
p23
aS'principal'
p24
aS'Person'
p25
aS'Principal'
p26
aS'of'
p27
aS'an'
p28
aS'educational'
p29
aS'institution'
p30
aS'school'
p31
asS'chunk_seq'
p32
(lp33
S'B-NP'
p34
aS'I-NP'
p35
aS'I-NP'
p36
aS'I-NP'
p37
aS'E-NP'
p38
aS'S-PP'
p39
aS'B-NP'
p40
aS'I-NP'
p41
aS'I-NP'
p42
aS'E-NP'
p43
asS'dep_seq'
p44
(lp45
(lp46
S'nn'
p47
aS'5'
aS'1'
aa(lp48
S'nn'
p49
aS'5'
aS'2'
aa(lp50
S'amod'
p51
aS'5'
aS'3'
aa(lp52
S'nn'
p53
aS'5'
aS'4'
aa(lp54
S'root'
p55
aS'0'
aS'5'
aa(lp56
S'det'
p57
aS'10'
p58
aS'7'
aa(lp59
S'amod'
p60
aS'10'
p61
aS'8'
aa(lp62
S'nn'
p63
aS'10'
p64
aS'9'
aa(lp65
S'prep_of'
p66
aS'5'
aS'10'
p67
aasS'srls'
p68
(lp69
sS'pos_seq'
p70
(lp71
S'NNP'
p72
aS'NNP'
p73
aS'JJ'
p74
aS'NNP'
p75
aS'NNP'
p76
aS'IN'
p77
aS'DT'
p78
aS'JJ'
p79
aS'NN'
p80
aS'NN'
p81
asS'ner_seq'
p82
(lp83
S'O'
aS'O'
aS'O'
aS'O'
aS'O'
aS'O'
aS'O'
aS'O'
aS'O'
aS'O'
assb.