ccopy_reg
_reconstructor
p1
(c__main__
KBproperty
p2
c__builtin__
object
p3
NtRp4
(dp5
S'comment'
p6
S''
sS'domain'
p7
S''
sS'instances_count'
p8
S'3'
sS'label'
p9
S'o end'
p10
sS'range'
p11
S''
sS'prop_uri'
p12
S"'http://dbpedia.org/property/oEnd'"
p13
sS'annotations'
p14
(dp15
S'bag_of_words'
p16
(lp17
S'o'
aS'end'
p18
asS'chunk_seq'
p19
(lp20
S'B-NP'
p21
aS'E-NP'
p22
asS'dep_seq'
p23
(lp24
(lp25
S'dep'
p26
aS'2'
aS'1'
aa(lp27
S'root'
p28
aS'0'
aS'2'
aasS'srls'
p29
(lp30
sS'pos_seq'
p31
(lp32
S'SYM'
p33
aS'NN'
p34
asS'ner_seq'
p35
(lp36
S'O'
aS'O'
assb.