ccopy_reg
_reconstructor
p1
(c__main__
KBproperty
p2
c__builtin__
object
p3
NtRp4
(dp5
S'comment'
p6
S'The books number of pages.'
p7
sS'domain'
p8
S'Written Work '
p9
sS'instances_count'
p10
S'25600'
p11
sS'label'
p12
S'number of pages'
p13
sS'range'
p14
S'positive Integer '
p15
sS'prop_uri'
p16
S"'http://dbpedia.org/ontology/numberOfPages'"
p17
sS'annotations'
p18
(dp19
S'bag_of_words'
p20
(lp21
S'Written'
p22
aS'Work'
p23
aS'number'
p24
aS'of'
p25
aS'pages'
p26
aS'positive'
p27
aS'Integer'
p28
aS'The'
p29
aS'books'
p30
aS'number'
p31
aS'of'
p32
aS'pages'
p33
aS'.'
asS'chunk_seq'
p34
(lp35
S'B-NP'
p36
aS'I-NP'
p37
aS'E-NP'
p38
aS'S-PP'
p39
aS'S-NP'
p40
aS'S-ADJP'
p41
aS'O'
aS'B-NP'
p42
aS'I-NP'
p43
aS'E-NP'
p44
aS'S-PP'
p45
aS'S-NP'
p46
aS'O'
asS'dep_seq'
p47
(lp48
(lp49
S'nn'
p50
aS'3'
aS'1'
aa(lp51
S'nn'
p52
aS'3'
aS'2'
aa(lp53
S'nsubj'
p54
aS'10'
p55
aS'3'
aa(lp56
S'prep_of'
p57
aS'3'
aS'5'
aa(lp58
S'dep'
p59
aS'10'
p60
aS'6'
aa(lp61
S'dep'
p62
aS'10'
p63
aS'7'
aa(lp64
S'nn'
p65
aS'9'
aS'8'
aa(lp66
S'nsubj'
p67
aS'10'
p68
aS'9'
aa(lp69
S'root'
p70
aS'0'
aS'10'
p71
aa(lp72
S'prep_of'
p73
aS'10'
p74
aS'12'
p75
aasS'srls'
p76
(lp77
sS'pos_seq'
p78
(lp79
S'NNP'
p80
aS'NNP'
p81
aS'NN'
p82
aS'IN'
p83
aS'NNS'
p84
aS'JJ'
p85
aS'NNP'
p86
aS'NNP'
p87
aS'NNS'
p88
aS'NN'
p89
aS'IN'
p90
aS'NNS'
p91
aS'.'
asS'ner_seq'
p92
(lp93
S'O'
aS'O'
aS'O'
aS'O'
aS'O'
aS'O'
aS'O'
aS'O'
aS'O'
aS'O'
aS'O'
aS'O'
aS'O'
assb.