ccopy_reg
_reconstructor
p1
(c__main__
KBproperty
p2
c__builtin__
object
p3
NtRp4
(dp5
S'comment'
p6
S"percentage of a place's population that is literate"
p7
sS'domain'
p8
S'Populated Place '
p9
sS'instances_count'
p10
S'0'
sS'label'
p11
S'"percentage of a place\'s population that is literate'
p12
sS'range'
p13
S'float '
p14
sS'prop_uri'
p15
S"'http://dbpedia.org/ontology/percentageLiterate'"
p16
sS'annotations'
p17
(dp18
S'bag_of_words'
p19
(lp20
S'Populated'
p21
aS'Place'
p22
aS'percentage'
p23
aS'Literate'
p24
aS'float'
p25
aS'percentage'
p26
aS'of'
p27
aS'a'
aS'place'
p28
aS"'s"
p29
aS'population'
p30
aS'that'
p31
aS'is'
p32
aS'literate'
p33
asS'chunk_seq'
p34
(lp35
S'B-NP'
p36
aS'I-NP'
p37
aS'I-NP'
p38
aS'I-NP'
p39
aS'I-NP'
p40
aS'E-NP'
p41
aS'S-PP'
p42
aS'B-NP'
p43
aS'E-NP'
p44
aS'B-NP'
p45
aS'E-NP'
p46
aS'S-NP'
p47
aS'S-VP'
p48
aS'S-ADJP'
p49
asS'dep_seq'
p50
(lp51
(lp52
S'amod'
p53
aS'6'
aS'1'
aa(lp54
S'nn'
p55
aS'6'
aS'2'
aa(lp56
S'nn'
p57
aS'6'
aS'3'
aa(lp58
S'amod'
p59
aS'6'
aS'4'
aa(lp60
S'nn'
p61
aS'6'
aS'5'
aa(lp62
S'root'
p63
aS'0'
aS'6'
aa(lp64
S'nsubj'
p65
aS'14'
p66
aS'6'
aa(lp67
S'det'
p68
aS'9'
aS'8'
aa(lp69
S'poss'
p70
aS'11'
p71
aS'9'
aa(lp72
S'prep_of'
p73
aS'6'
aS'11'
p74
aa(lp75
S'cop'
p76
aS'14'
p77
aS'13'
p78
aa(lp79
S'rcmod'
p80
aS'6'
aS'14'
p81
aasS'srls'
p82
(lp83
sS'pos_seq'
p84
(lp85
S'JJ'
p86
aS'NN'
p87
aS'NN'
p88
aS'JJ'
p89
aS'NN'
p90
aS'NN'
p91
aS'IN'
p92
aS'DT'
p93
aS'NN'
p94
aS'POS'
p95
aS'NN'
p96
aS'WDT'
p97
aS'VBZ'
p98
aS'JJ'
p99
asS'ner_seq'
p100
(lp101
S'O'
aS'O'
aS'O'
aS'S-MISC'
p102
aS'O'
aS'O'
aS'O'
aS'O'
aS'O'
aS'O'
aS'O'
aS'O'
aS'O'
aS'O'
assb.