ccopy_reg
_reconstructor
p1
(c__main__
KBproperty
p2
c__builtin__
object
p3
NtRp4
(dp5
S'comment'
p6
S'Zodiac Sign. Applies to persons planets etc'
p7
sS'domain'
p8
S''
sS'instances_count'
p9
S'0'
sS'label'
p10
S'zodiac sign'
p11
sS'range'
p12
S''
sS'prop_uri'
p13
S"'http://dbpedia.org/ontology/zodiacSign'"
p14
sS'annotations'
p15
(dp16
S'bag_of_words'
p17
(lp18
S'zodiac'
p19
aS'sign'
p20
aS'Zodiac'
p21
aS'Sign'
p22
aS'.'
aS'Applies'
p23
aS'to'
p24
aS'persons'
p25
aS'planets'
p26
aS'etc'
p27
asS'chunk_seq'
p28
(lp29
S'B-NP'
p30
aS'E-NP'
p31
aS'B-NP'
p32
aS'E-NP'
p33
aS'O'
aS'S-VP'
p34
aS'S-PP'
p35
aS'B-NP'
p36
aS'E-NP'
p37
aS'O'
asS'dep_seq'
p38
(lp39
(lp40
S'dep'
p41
aS'4'
aS'1'
aa(lp42
S'dep'
p43
aS'4'
aS'2'
aa(lp44
S'nn'
p45
aS'4'
aS'3'
aa(lp46
S'root'
p47
aS'0'
aS'4'
aa(lp48
S'dep'
p49
aS'4'
aS'6'
aa(lp50
S'dep'
p51
aS'4'
aS'7'
aa(lp52
S'nn'
p53
aS'9'
aS'8'
aa(lp54
S'pobj'
p55
aS'7'
aS'9'
aa(lp56
S'punct'
p57
aS'4'
aS'10'
p58
aasS'srls'
p59
(lp60
(dp61
S'A2'
p62
S'to persons planets'
p63
sS'V'
g23
sasS'pos_seq'
p64
(lp65
S'NN'
p66
aS'NN'
p67
aS'NNP'
p68
aS'NNP'
p69
aS'.'
aS'VBZ'
p70
aS'TO'
p71
aS'NNS'
p72
aS'NNS'
p73
aS'.'
asS'ner_seq'
p74
(lp75
S'O'
aS'O'
aS'S-MISC'
p76
aS'O'
aS'O'
aS'O'
aS'O'
aS'O'
aS'O'
aS'O'
assb.