ccopy_reg
_reconstructor
p1
(c__main__
KBproperty
p2
c__builtin__
object
p3
NtRp4
(dp5
S'comment'
p6
S'A building organisation or other thing that is located in the road.'
p7
sS'domain'
p8
S'Road '
p9
sS'instances_count'
p10
S'18'
p11
sS'label'
p12
S'address in road'
p13
sS'range'
p14
S''
sS'prop_uri'
p15
S"'http://dbpedia.org/ontology/addressInRoad'"
p16
sS'annotations'
p17
(dp18
S'bag_of_words'
p19
(lp20
S'Road'
p21
aS'address'
p22
aS'in'
p23
aS'road'
p24
aS'A'
aS'building'
p25
aS'organisation'
p26
aS'or'
p27
aS'other'
p28
aS'thing'
p29
aS'that'
p30
aS'is'
p31
aS'located'
p32
aS'in'
p33
aS'the'
p34
aS'road'
p35
aS'.'
asS'chunk_seq'
p36
(lp37
S'B-NP'
p38
aS'E-NP'
p39
aS'S-PP'
p40
aS'S-NP'
p41
aS'B-NP'
p42
aS'I-NP'
p43
aS'E-NP'
p44
aS'O'
aS'B-NP'
p45
aS'E-NP'
p46
aS'S-NP'
p47
aS'B-VP'
p48
aS'E-VP'
p49
aS'S-PP'
p50
aS'B-NP'
p51
aS'E-NP'
p52
aS'O'
asS'dep_seq'
p53
(lp54
(lp55
S'nn'
p56
aS'2'
aS'1'
aa(lp57
S'dep'
p58
aS'7'
aS'2'
aa(lp59
S'prep_in'
p60
aS'2'
aS'4'
aa(lp61
S'det'
p62
aS'7'
aS'5'
aa(lp63
S'nn'
p64
aS'7'
aS'6'
aa(lp65
S'root'
p66
aS'0'
aS'7'
aa(lp67
S'amod'
p68
aS'10'
p69
aS'9'
aa(lp70
S'conj_or'
p71
aS'7'
aS'10'
p72
aa(lp73
S'nsubjpass'
p74
aS'13'
p75
aS'10'
p76
aa(lp77
S'auxpass'
p78
aS'13'
p79
aS'12'
p80
aa(lp81
S'rcmod'
p82
aS'10'
p83
aS'13'
p84
aa(lp85
S'det'
p86
aS'16'
p87
aS'15'
p88
aa(lp89
S'prep_in'
p90
aS'13'
p91
aS'16'
p92
aasS'srls'
p93
(lp94
(dp95
S'A1'
p96
S'other thing'
p97
sS'AM-LOC'
p98
S'in the road'
p99
sS'R-A1'
p100
g30
sS'V'
g32
sasS'pos_seq'
p101
(lp102
S'NN'
p103
aS'NN'
p104
aS'IN'
p105
aS'NN'
p106
aS'DT'
p107
aS'NN'
p108
aS'NN'
p109
aS'CC'
p110
aS'JJ'
p111
aS'NN'
p112
aS'WDT'
p113
aS'VBZ'
p114
aS'VBN'
p115
aS'IN'
p116
aS'DT'
p117
aS'NN'
p118
aS'.'
asS'ner_seq'
p119
(lp120
S'O'
aS'O'
aS'O'
aS'O'
aS'O'
aS'O'
aS'O'
aS'O'
aS'O'
aS'O'
aS'O'
aS'O'
aS'O'
aS'O'
aS'O'
aS'O'
aS'O'
assb.