ccopy_reg
_reconstructor
p1
(c__main__
KBproperty
p2
c__builtin__
object
p3
NtRp4
(dp5
S'comment'
p6
S''
sS'domain'
p7
S''
sS'instances_count'
p8
S'9'
sS'label'
p9
S'pop est as of'
p10
sS'range'
p11
S''
sS'prop_uri'
p12
S"'http://dbpedia.org/property/popEstAsOf'"
p13
sS'annotations'
p14
(dp15
S'bag_of_words'
p16
(lp17
S'pop'
p18
aS'est'
p19
aS'as'
p20
aS'of'
p21
asS'chunk_seq'
p22
(lp23
S'B-NP'
p24
aS'E-NP'
p25
aS'S-PP'
p26
aS'S-PP'
p27
asS'dep_seq'
p28
(lp29
(lp30
S'root'
p31
aS'0'
aS'1'
aa(lp32
S'dep'
p33
aS'1'
aS'2'
aa(lp34
S'dep'
p35
aS'1'
aS'3'
aa(lp36
S'dep'
p37
aS'1'
aS'4'
aasS'srls'
p38
(lp39
sS'pos_seq'
p40
(lp41
S'FW'
p42
aS'FW'
p43
aS'IN'
p44
aS'IN'
p45
asS'ner_seq'
p46
(lp47
S'O'
aS'O'
aS'O'
aS'O'
assb.