ccopy_reg
_reconstructor
p1
(c__main__
KBproperty
p2
c__builtin__
object
p3
NtRp4
(dp5
S'comment'
p6
S'rank of an area'
p7
sS'domain'
p8
S'Populated Place '
p9
sS'instances_count'
p10
S'0'
sS'label'
p11
g7
sS'range'
p12
S'non Negative Integer '
p13
sS'prop_uri'
p14
S"'http://dbpedia.org/ontology/rankArea'"
p15
sS'annotations'
p16
(dp17
S'bag_of_words'
p18
(lp19
S'Populated'
p20
aS'Place'
p21
aS'rank'
p22
aS'Area'
p23
aS'non'
p24
aS'Negative'
p25
aS'Integer'
p26
aS'rank'
p27
aS'of'
p28
aS'an'
p29
aS'area'
p30
asS'chunk_seq'
p31
(lp32
S'B-NP'
p33
aS'I-NP'
p34
aS'I-NP'
p35
aS'E-NP'
p36
aS'B-NP'
p37
aS'I-NP'
p38
aS'I-NP'
p39
aS'E-NP'
p40
aS'S-PP'
p41
aS'B-NP'
p42
aS'E-NP'
p43
asS'dep_seq'
p44
(lp45
(lp46
S'amod'
p47
aS'4'
aS'1'
aa(lp48
S'nn'
p49
aS'4'
aS'2'
aa(lp50
S'nn'
p51
aS'4'
aS'3'
aa(lp52
S'root'
p53
aS'0'
aS'4'
aa(lp54
S'amod'
p55
aS'8'
aS'5'
aa(lp56
S'amod'
p57
aS'8'
aS'6'
aa(lp58
S'nn'
p59
aS'8'
aS'7'
aa(lp60
S'dep'
p61
aS'4'
aS'8'
aa(lp62
S'det'
p63
aS'11'
p64
aS'10'
p65
aa(lp66
S'prep_of'
p67
aS'8'
aS'11'
p68
aasS'srls'
p69
(lp70
sS'pos_seq'
p71
(lp72
S'JJ'
p73
aS'NN'
p74
aS'NN'
p75
aS'NN'
p76
aS'JJ'
p77
aS'JJ'
p78
aS'NN'
p79
aS'NN'
p80
aS'IN'
p81
aS'DT'
p82
aS'NN'
p83
asS'ner_seq'
p84
(lp85
S'O'
aS'O'
aS'O'
aS'O'
aS'O'
aS'O'
aS'O'
aS'O'
aS'O'
aS'O'
aS'O'
assb.