ccopy_reg
_reconstructor
p1
(c__main__
KBproperty
p2
c__builtin__
object
p3
NtRp4
(dp5
S'comment'
p6
S'Honours bestowed upon a Person Organization RaceHorse etc'
p7
sS'domain'
p8
S''
sS'instances_count'
p9
S'1512'
p10
sS'label'
p11
S'honours'
p12
sS'range'
p13
S''
sS'prop_uri'
p14
S"'http://dbpedia.org/ontology/honours'"
p15
sS'annotations'
p16
(dp17
S'bag_of_words'
p18
(lp19
S'honours'
p20
aS'Honours'
p21
aS'bestowed'
p22
aS'upon'
p23
aS'a'
aS'Person'
p24
aS'Organization'
p25
aS'RaceHorse'
p26
aS'etc'
p27
asS'chunk_seq'
p28
(lp29
S'B-NP'
p30
aS'E-NP'
p31
aS'S-VP'
p32
aS'S-PP'
p33
aS'B-NP'
p34
aS'I-NP'
p35
aS'I-NP'
p36
aS'E-NP'
p37
aS'O'
asS'dep_seq'
p38
(lp39
(lp40
S'nn'
p41
aS'2'
aS'1'
aa(lp42
S'root'
p43
aS'0'
aS'2'
aa(lp44
S'partmod'
p45
aS'2'
aS'3'
aa(lp46
S'det'
p47
aS'8'
aS'5'
aa(lp48
S'nn'
p49
aS'8'
aS'6'
aa(lp50
S'nn'
p51
aS'8'
aS'7'
aa(lp52
S'prep_upon'
p53
aS'3'
aS'8'
aa(lp54
S'punct'
p55
aS'2'
aS'9'
aasS'srls'
p56
(lp57
(dp58
S'A1'
p59
S'honours Honours'
p60
sS'A2'
p61
S'upon a Person Organization RaceHorse etc'
p62
sS'V'
g22
sasS'pos_seq'
p63
(lp64
S'NNS'
p65
aS'NNS'
p66
aS'VBN'
p67
aS'IN'
p68
aS'DT'
p69
aS'NNP'
p70
aS'NNP'
p71
aS'NNP'
p72
aS'.'
asS'ner_seq'
p73
(lp74
S'O'
aS'O'
aS'O'
aS'O'
aS'O'
aS'O'
aS'O'
aS'O'
aS'O'
assb.