ccopy_reg
_reconstructor
p1
(c__main__
KBproperty
p2
c__builtin__
object
p3
NtRp4
(dp5
S'comment'
p6
S''
sS'domain'
p7
S'Place '
p8
sS'instances_count'
p9
S'47550'
p10
sS'label'
p11
S'located in area'
p12
sS'range'
p13
S'Place '
p14
sS'prop_uri'
p15
S"'http://dbpedia.org/ontology/locatedInArea'"
p16
sS'annotations'
p17
(dp18
S'bag_of_words'
p19
(lp20
S'Place'
p21
aS'located'
p22
aS'in'
p23
aS'area'
p24
aS'Place'
p25
asS'chunk_seq'
p26
(lp27
S'S-NP'
p28
aS'S-VP'
p29
aS'S-PP'
p30
aS'B-NP'
p31
aS'E-NP'
p32
asS'dep_seq'
p33
(lp34
(lp35
S'root'
p36
aS'0'
aS'1'
aa(lp37
S'partmod'
p38
aS'1'
aS'2'
aa(lp39
S'nn'
p40
aS'5'
aS'4'
aa(lp41
S'prep_in'
p42
aS'2'
aS'5'
aasS'srls'
p43
(lp44
(dp45
S'A1'
p46
g21
sS'AM-LOC'
p47
S'in area Place'
p48
sS'V'
g22
sasS'pos_seq'
p49
(lp50
S'NN'
p51
aS'VBN'
p52
aS'IN'
p53
aS'NN'
p54
aS'NN'
p55
asS'ner_seq'
p56
(lp57
S'O'
aS'O'
aS'O'
aS'O'
aS'O'
assb.