ccopy_reg
_reconstructor
p1
(c__main__
KBproperty
p2
c__builtin__
object
p3
NtRp4
(dp5
S'comment'
p6
S'FilmPolski.pl id'
p7
sS'domain'
p8
S''
sS'instances_count'
p9
S'0'
sS'label'
p10
g7
sS'range'
p11
S'string '
p12
sS'prop_uri'
p13
S"'http://dbpedia.org/ontology/filmPolskiId'"
p14
sS'annotations'
p15
(dp16
S'bag_of_words'
p17
(lp18
S'film'
p19
aS'Polski'
p20
aS'Id'
p21
aS'string'
p22
aS'FilmPolski'
p23
aS'.'
aS'pl'
p24
aS'id'
p25
asS'chunk_seq'
p26
(lp27
S'B-NP'
p28
aS'I-NP'
p29
aS'I-NP'
p30
aS'I-NP'
p31
aS'E-NP'
p32
aS'O'
aS'O'
aS'O'
asS'dep_seq'
p33
(lp34
(lp35
S'nn'
p36
aS'8'
aS'1'
aa(lp37
S'nn'
p38
aS'8'
aS'2'
aa(lp39
S'nn'
p40
aS'8'
aS'3'
aa(lp41
S'nn'
p42
aS'8'
aS'4'
aa(lp43
S'nn'
p44
aS'8'
aS'5'
aa(lp45
S'punct'
p46
aS'8'
aS'7'
aa(lp47
S'root'
p48
aS'0'
aS'8'
aasS'srls'
p49
(lp50
sS'pos_seq'
p51
(lp52
S'NN'
p53
aS'NNP'
p54
aS'NNP'
p55
aS'NN'
p56
aS'NNP'
p57
aS'.'
aS'-RRB-'
p58
aS'NN'
p59
asS'ner_seq'
p60
(lp61
S'O'
aS'B-MISC'
p62
aS'I-MISC'
p63
aS'I-MISC'
p64
aS'E-MISC'
p65
aS'O'
aS'O'
aS'O'
assb.