ccopy_reg
_reconstructor
p1
(c__main__
KBproperty
p2
c__builtin__
object
p3
NtRp4
(dp5
S'comment'
p6
S''
sS'domain'
p7
S''
sS'instances_count'
p8
S'12207'
p9
sS'label'
p10
S'callsign meaning'
p11
sS'range'
p12
S''
sS'prop_uri'
p13
S"'http://dbpedia.org/property/callsignMeaning'"
p14
sS'annotations'
p15
(dp16
S'bag_of_words'
p17
(lp18
S'callsign'
p19
aS'meaning'
p20
asS'chunk_seq'
p21
(lp22
S'S-NP'
p23
aS'S-VP'
p24
asS'dep_seq'
p25
(lp26
(lp27
S'root'
p28
aS'0'
aS'1'
aa(lp29
S'dep'
p30
aS'1'
aS'2'
aasS'srls'
p31
(lp32
sS'pos_seq'
p33
(lp34
S'NN'
p35
aS'VBG'
p36
asS'ner_seq'
p37
(lp38
S'O'
aS'O'
assb.