ccopy_reg
_reconstructor
p1
(c__main__
KBproperty
p2
c__builtin__
object
p3
NtRp4
(dp5
S'comment'
p6
S'label of a website'
p7
sS'domain'
p8
S''
sS'instances_count'
p9
S'0'
sS'label'
p10
g7
sS'range'
p11
S'lang String '
p12
sS'prop_uri'
p13
S"'http://dbpedia.org/ontology/websiteLabel'"
p14
sS'annotations'
p15
(dp16
S'bag_of_words'
p17
(lp18
S'website'
p19
aS'Label'
p20
aS'lang'
p21
aS'String'
p22
aS'label'
p23
aS'of'
p24
aS'a'
aS'website'
p25
asS'chunk_seq'
p26
(lp27
S'B-NP'
p28
aS'I-NP'
p29
aS'I-NP'
p30
aS'I-NP'
p31
aS'E-NP'
p32
aS'S-PP'
p33
aS'B-NP'
p34
aS'E-NP'
p35
asS'dep_seq'
p36
(lp37
(lp38
S'nn'
p39
aS'5'
aS'1'
aa(lp40
S'nn'
p41
aS'5'
aS'2'
aa(lp42
S'amod'
p43
aS'5'
aS'3'
aa(lp44
S'nn'
p45
aS'5'
aS'4'
aa(lp46
S'root'
p47
aS'0'
aS'5'
aa(lp48
S'det'
p49
aS'8'
aS'7'
aa(lp50
S'prep_of'
p51
aS'5'
aS'8'
aasS'srls'
p52
(lp53
sS'pos_seq'
p54
(lp55
S'NN'
p56
aS'NN'
p57
aS'VBG'
p58
aS'NN'
p59
aS'NN'
p60
aS'IN'
p61
aS'DT'
p62
aS'NN'
p63
asS'ner_seq'
p64
(lp65
S'O'
aS'B-MISC'
p66
aS'I-MISC'
p67
aS'E-MISC'
p68
aS'O'
aS'O'
aS'O'
aS'O'
assb.