ccopy_reg
_reconstructor
p1
(c__main__
KBproperty
p2
c__builtin__
object
p3
NtRp4
(dp5
S'comment'
p6
S''
sS'domain'
p7
S'Educational Institution '
p8
sS'instances_count'
p9
S'140'
p10
sS'label'
p11
S'number of graduate students'
p12
sS'range'
p13
S'non Negative Integer '
p14
sS'prop_uri'
p15
S"'http://dbpedia.org/ontology/numberOfGraduateStudents'"
p16
sS'annotations'
p17
(dp18
S'bag_of_words'
p19
(lp20
S'Educational'
p21
aS'Institution'
p22
aS'number'
p23
aS'of'
p24
aS'graduate'
p25
aS'students'
p26
aS'non'
p27
aS'Negative'
p28
aS'Integer'
p29
asS'chunk_seq'
p30
(lp31
S'B-NP'
p32
aS'I-NP'
p33
aS'E-NP'
p34
aS'S-PP'
p35
aS'B-NP'
p36
aS'E-NP'
p37
aS'S-VP'
p38
aS'B-NP'
p39
aS'E-NP'
p40
asS'dep_seq'
p41
(lp42
(lp43
S'amod'
p44
aS'3'
aS'1'
aa(lp45
S'nn'
p46
aS'3'
aS'2'
aa(lp47
S'root'
p48
aS'0'
aS'3'
aa(lp49
S'nn'
p50
aS'6'
aS'5'
aa(lp51
S'prep_of'
p52
aS'3'
aS'6'
aa(lp53
S'dep'
p54
aS'3'
aS'7'
aa(lp55
S'amod'
p56
aS'9'
aS'8'
aa(lp57
S'dobj'
p58
aS'7'
aS'9'
aasS'srls'
p59
(lp60
sS'pos_seq'
p61
(lp62
S'JJ'
p63
aS'NN'
p64
aS'NN'
p65
aS'IN'
p66
aS'NN'
p67
aS'NNS'
p68
aS'VBP'
p69
aS'JJ'
p70
aS'NN'
p71
asS'ner_seq'
p72
(lp73
S'O'
aS'O'
aS'O'
aS'O'
aS'O'
aS'O'
aS'O'
aS'B-MISC'
p74
aS'E-MISC'
p75
assb.