ccopy_reg
_reconstructor
p1
(c__main__
KBproperty
p2
c__builtin__
object
p3
NtRp4
(dp5
S'comment'
p6
S"Dutch Winkel ID is a code for an underground publication as attributed by Lydia Winkel's work on the underground WW II press in the Netherlands."
p7
sS'domain'
p8
S'Underground Journal '
p9
sS'instances_count'
p10
S'0'
sS'label'
p11
S'Dutch PPN code'
p12
sS'range'
p13
S'string '
p14
sS'prop_uri'
p15
S"'http://dbpedia.org/ontology/dutchWinkelID'"
p16
sS'annotations'
p17
(dp18
S'bag_of_words'
p19
(lp20
S'Underground'
p21
aS'Journal'
p22
aS'Dutch'
p23
aS'PPN'
p24
aS'code'
p25
aS'string'
p26
aS'Dutch'
p27
aS'Winkel'
p28
aS'ID'
p29
aS'is'
p30
aS'a'
aS'code'
p31
aS'for'
p32
aS'an'
p33
aS'underground'
p34
aS'publication'
p35
aS'as'
p36
aS'attributed'
p37
aS'by'
p38
aS'Lydia'
p39
aS'Winkel'
p40
aS"'s"
p41
aS'work'
p42
aS'on'
p43
aS'the'
p44
aS'underground'
p45
aS'WW'
p46
aS'II'
p47
aS'press'
p48
aS'in'
p49
aS'the'
p50
aS'Netherlands'
p51
aS'.'
asS'chunk_seq'
p52
(lp53
S'B-NP'
p54
aS'I-NP'
p55
aS'I-NP'
p56
aS'I-NP'
p57
aS'I-NP'
p58
aS'I-NP'
p59
aS'I-NP'
p60
aS'I-NP'
p61
aS'E-NP'
p62
aS'S-VP'
p63
aS'B-NP'
p64
aS'E-NP'
p65
aS'S-PP'
p66
aS'B-NP'
p67
aS'I-NP'
p68
aS'E-NP'
p69
aS'S-PP'
p70
aS'S-VP'
p71
aS'S-PP'
p72
aS'B-NP'
p73
aS'E-NP'
p74
aS'B-NP'
p75
aS'E-NP'
p76
aS'S-PP'
p77
aS'B-NP'
p78
aS'I-NP'
p79
aS'I-NP'
p80
aS'I-NP'
p81
aS'E-NP'
p82
aS'S-PP'
p83
aS'B-NP'
p84
aS'E-NP'
p85
aS'O'
asS'dep_seq'
p86
(lp87
(lp88
S'nn'
p89
aS'9'
aS'1'
aa(lp90
S'nn'
p91
aS'9'
aS'2'
aa(lp92
S'nn'
p93
aS'9'
aS'3'
aa(lp94
S'nn'
p95
aS'9'
aS'4'
aa(lp96
S'nn'
p97
aS'9'
aS'5'
aa(lp98
S'nn'
p99
aS'9'
aS'6'
aa(lp100
S'nn'
p101
aS'9'
aS'7'
aa(lp102
S'nn'
p103
aS'9'
aS'8'
aa(lp104
S'nsubj'
p105
aS'12'
p106
aS'9'
aa(lp107
S'cop'
p108
aS'12'
p109
aS'10'
p110
aa(lp111
S'det'
p112
aS'12'
p113
aS'11'
p114
aa(lp115
S'root'
p116
aS'0'
aS'12'
p117
aa(lp118
S'det'
p119
aS'16'
p120
aS'14'
p121
aa(lp122
S'amod'
p123
aS'16'
p124
aS'15'
p125
aa(lp126
S'prep_for'
p127
aS'12'
p128
aS'16'
p129
aa(lp130
S'mark'
p131
aS'18'
p132
aS'17'
p133
aa(lp134
S'dep'
p135
aS'16'
p136
aS'18'
p137
aa(lp138
S'nn'
p139
aS'21'
p140
aS'20'
p141
aa(lp142
S'poss'
p143
aS'23'
p144
aS'21'
p145
aa(lp146
S'prep_by'
p147
aS'18'
p148
aS'23'
p149
aa(lp150
S'det'
p151
aS'29'
p152
aS'25'
p153
aa(lp154
S'amod'
p155
aS'29'
p156
aS'26'
p157
aa(lp158
S'nn'
p159
aS'29'
p160
aS'27'
p161
aa(lp162
S'nn'
p163
aS'29'
p164
aS'28'
p165
aa(lp166
S'prep_on'
p167
aS'18'
p168
aS'29'
p169
aa(lp170
S'det'
p171
aS'32'
p172
aS'31'
p173
aa(lp174
S'prep_in'
p175
aS'29'
p176
aS'32'
p177
aasS'srls'
p178
(lp179
(dp180
S'A0'
p181
S"by Lydia Winkel 's work on the underground WW II press in the Netherlands"
p182
sS'V'
g37
sasS'pos_seq'
p183
(lp184
S'NNP'
p185
aS'NNP'
p186
aS'NNP'
p187
aS'NNP'
p188
aS'NN'
p189
aS'NN'
p190
aS'NNP'
p191
aS'NNP'
p192
aS'NNP'
p193
aS'VBZ'
p194
aS'DT'
p195
aS'NN'
p196
aS'IN'
p197
aS'DT'
p198
aS'JJ'
p199
aS'NN'
p200
aS'IN'
p201
aS'VBN'
p202
aS'IN'
p203
aS'NNP'
p204
aS'NNP'
p205
aS'POS'
p206
aS'NN'
p207
aS'IN'
p208
aS'DT'
p209
aS'JJ'
p210
aS'NNP'
p211
aS'NNP'
p212
aS'NN'
p213
aS'IN'
p214
aS'DT'
p215
aS'NNP'
p216
aS'.'
asS'ner_seq'
p217
(lp218
S'B-ORG'
p219
aS'E-ORG'
p220
aS'S-MISC'
p221
aS'S-ORG'
p222
aS'O'
aS'O'
aS'S-MISC'
p223
aS'S-ORG'
p224
aS'O'
aS'O'
aS'O'
aS'O'
aS'O'
aS'O'
aS'O'
aS'O'
aS'O'
aS'O'
aS'O'
aS'B-PER'
p225
aS'E-PER'
p226
aS'O'
aS'O'
aS'O'
aS'O'
aS'O'
aS'B-MISC'
p227
aS'E-MISC'
p228
aS'O'
aS'O'
aS'O'
aS'S-LOC'
p229
aS'O'
assb.