ccopy_reg
_reconstructor
p1
(c__main__
KBproperty
p2
c__builtin__
object
p3
NtRp4
(dp5
S'comment'
p6
S'For persons who are notable as commanding officers the units they commanded. Dates should be given if multiple notable commands were held.'
p7
sS'domain'
p8
S'Military Person '
p9
sS'instances_count'
p10
S'36765'
p11
sS'label'
p12
S'military command'
p13
sS'range'
p14
S'string '
p15
sS'prop_uri'
p16
S"'http://dbpedia.org/ontology/militaryCommand'"
p17
sS'annotations'
p18
(dp19
S'bag_of_words'
p20
(lp21
S'Military'
p22
aS'Person'
p23
aS'military'
p24
aS'command'
p25
aS'string'
p26
aS'For'
p27
aS'persons'
p28
aS'who'
p29
aS'are'
p30
aS'notable'
p31
aS'as'
p32
aS'commanding'
p33
aS'officers'
p34
aS'the'
p35
aS'units'
p36
aS'they'
p37
aS'commanded'
p38
aS'.'
aS'Dates'
p39
aS'should'
p40
aS'be'
p41
aS'given'
p42
aS'if'
p43
aS'multiple'
p44
aS'notable'
p45
aS'commands'
p46
aS'were'
p47
aS'held'
p48
aS'.'
asS'chunk_seq'
p49
(lp50
S'B-NP'
p51
aS'I-NP'
p52
aS'I-NP'
p53
aS'I-NP'
p54
aS'E-NP'
p55
aS'S-PP'
p56
aS'S-NP'
p57
aS'S-NP'
p58
aS'S-VP'
p59
aS'S-ADJP'
p60
aS'S-PP'
p61
aS'B-NP'
p62
aS'E-NP'
p63
aS'B-NP'
p64
aS'E-NP'
p65
aS'S-NP'
p66
aS'S-VP'
p67
aS'O'
aS'S-NP'
p68
aS'B-VP'
p69
aS'I-VP'
p70
aS'E-VP'
p71
aS'S-SBAR'
p72
aS'B-NP'
p73
aS'I-NP'
p74
aS'E-NP'
p75
aS'B-VP'
p76
aS'E-VP'
p77
aS'O'
asS'dep_seq'
p78
(lp79
(lp80
S'amod'
p81
aS'5'
aS'1'
aa(lp82
S'nn'
p83
aS'5'
aS'2'
aa(lp84
S'amod'
p85
aS'5'
aS'3'
aa(lp86
S'nn'
p87
aS'5'
aS'4'
aa(lp88
S'root'
p89
aS'0'
aS'5'
aa(lp90
S'prep_for'
p91
aS'5'
aS'7'
aa(lp92
S'nsubj'
p93
aS'10'
p94
aS'7'
aa(lp95
S'cop'
p96
aS'10'
p97
aS'9'
aa(lp98
S'rcmod'
p99
aS'7'
aS'10'
p100
aa(lp101
S'amod'
p102
aS'13'
p103
aS'12'
p104
aa(lp105
S'prep_as'
p106
aS'10'
p107
aS'13'
p108
aa(lp109
S'det'
p110
aS'15'
p111
aS'14'
p112
aa(lp113
S'attr'
p114
aS'10'
p115
aS'15'
p116
aa(lp117
S'dobj'
p118
aS'17'
p119
aS'15'
p120
aa(lp121
S'nsubj'
p122
aS'17'
p123
aS'16'
p124
aa(lp125
S'rcmod'
p126
aS'15'
p127
aS'17'
p128
aa(lp129
S'nsubjpass'
p130
aS'22'
p131
aS'19'
p132
aa(lp133
S'aux'
p134
aS'22'
p135
aS'20'
p136
aa(lp137
S'auxpass'
p138
aS'22'
p139
aS'21'
p140
aa(lp141
S'dep'
p142
aS'5'
aS'22'
p143
aa(lp144
S'mark'
p145
aS'28'
p146
aS'23'
p147
aa(lp148
S'amod'
p149
aS'26'
p150
aS'24'
p151
aa(lp152
S'amod'
p153
aS'26'
p154
aS'25'
p155
aa(lp156
S'nsubjpass'
p157
aS'28'
p158
aS'26'
p159
aa(lp160
S'auxpass'
p161
aS'28'
p162
aS'27'
p163
aa(lp164
S'advcl'
p165
aS'22'
p166
aS'28'
p167
aasS'srls'
p168
(lp169
(dp170
S'A1'
p171
S'the units'
p172
sS'A0'
p173
g37
sS'V'
g38
sa(dp174
S'A1'
p175
g39
sS'AM-ADV'
p176
S'if multiple notable commands were held'
p177
sS'V'
g42
sS'AM-MOD'
p178
g40
sa(dp179
S'A1'
p180
S'multiple notable commands'
p181
sS'V'
g48
sasS'pos_seq'
p182
(lp183
S'JJ'
p184
aS'NN'
p185
aS'JJ'
p186
aS'NN'
p187
aS'NN'
p188
aS'IN'
p189
aS'NNS'
p190
aS'WP'
p191
aS'VBP'
p192
aS'JJ'
p193
aS'IN'
p194
aS'JJ'
p195
aS'NNS'
p196
aS'DT'
p197
aS'NNS'
p198
aS'PRP'
p199
aS'VBD'
p200
aS'.'
aS'NNS'
p201
aS'MD'
p202
aS'VB'
p203
aS'VBN'
p204
aS'IN'
p205
aS'JJ'
p206
aS'JJ'
p207
aS'NNS'
p208
aS'VBD'
p209
aS'VBN'
p210
aS'.'
asS'ner_seq'
p211
(lp212
S'O'
aS'O'
aS'O'
aS'O'
aS'O'
aS'O'
aS'O'
aS'O'
aS'O'
aS'O'
aS'O'
aS'O'
aS'O'
aS'O'
aS'O'
aS'O'
aS'O'
aS'O'
aS'O'
aS'O'
aS'O'
aS'O'
aS'O'
aS'O'
aS'O'
aS'O'
aS'O'
aS'O'
aS'O'
assb.