ccopy_reg
_reconstructor
p1
(c__main__
KBproperty
p2
c__builtin__
object
p3
NtRp4
(dp5
S'comment'
p6
S''
sS'domain'
p7
S'Company '
p8
sS'instances_count'
p9
S'184'
p10
sS'label'
p11
S'asset under management $'
p12
sS'range'
p13
S'double '
p14
sS'prop_uri'
p15
S"'http://dbpedia.org/ontology/assetUnderManagement'"
p16
sS'annotations'
p17
(dp18
S'bag_of_words'
p19
(lp20
S'Company'
p21
aS'asset'
p22
aS'under'
p23
aS'management'
p24
aS'$'
aS'double'
p25
asS'chunk_seq'
p26
(lp27
S'B-NP'
p28
aS'E-NP'
p29
aS'S-PP'
p30
aS'S-NP'
p31
aS'B-NP'
p32
aS'E-NP'
p33
asS'dep_seq'
p34
(lp35
(lp36
S'nn'
p37
aS'2'
aS'1'
aa(lp38
S'root'
p39
aS'0'
aS'2'
aa(lp40
S'prep_under'
p41
aS'2'
aS'4'
aa(lp42
S'amod'
p43
aS'4'
aS'5'
aa(lp44
S'dep'
p45
aS'5'
aS'6'
aasS'srls'
p46
(lp47
sS'pos_seq'
p48
(lp49
S'NN'
p50
aS'NN'
p51
aS'IN'
p52
aS'NN'
p53
aS'$'
aS'JJ'
p54
asS'ner_seq'
p55
(lp56
S'O'
aS'O'
aS'O'
aS'O'
aS'O'
aS'O'
assb.