ccopy_reg
_reconstructor
p1
(c__main__
KBproperty
p2
c__builtin__
object
p3
NtRp4
(dp5
S'comment'
p6
S'Gaud\\xc3\\xad Award'
p7
sS'domain'
p8
S'Artist '
p9
sS'instances_count'
p10
S'0'
sS'label'
p11
g7
sS'range'
p12
S'Award '
p13
sS'prop_uri'
p14
S"'http://dbpedia.org/ontology/gaudiAward'"
p15
sS'annotations'
p16
(dp17
S'bag_of_words'
p18
(lp19
S'Artist'
p20
aS'gaudi'
p21
aS'Award'
p22
aS'Award'
p23
aS'Gaud'
p24
aS'\\'
aS'xc3'
p25
aS'\\'
aS'xad'
p26
aS'Award'
p27
asS'chunk_seq'
p28
(lp29
S'B-NP'
p30
aS'I-NP'
p31
aS'I-NP'
p32
aS'I-NP'
p33
aS'E-NP'
p34
aS'O'
aS'O'
aS'O'
aS'O'
aS'O'
asS'dep_seq'
p35
(lp36
(lp37
S'nn'
p38
aS'10'
p39
aS'1'
aa(lp40
S'nn'
p41
aS'10'
p42
aS'2'
aa(lp43
S'nn'
p44
aS'10'
p45
aS'3'
aa(lp46
S'nn'
p47
aS'10'
p48
aS'4'
aa(lp49
S'nn'
p50
aS'10'
p51
aS'5'
aa(lp52
S'nn'
p53
aS'10'
p54
aS'6'
aa(lp55
S'nn'
p56
aS'10'
p57
aS'7'
aa(lp58
S'nn'
p59
aS'10'
p60
aS'8'
aa(lp61
S'nn'
p62
aS'10'
p63
aS'9'
aa(lp64
S'root'
p65
aS'0'
aS'10'
p66
aasS'srls'
p67
(lp68
sS'pos_seq'
p69
(lp70
S'NNP'
p71
aS'NNP'
p72
aS'NNP'
p73
aS'NNP'
p74
aS'NNP'
p75
aS'FW'
p76
aS'FW'
p77
aS'FW'
p78
aS'FW'
p79
aS'NNP'
p80
asS'ner_seq'
p81
(lp82
S'O'
aS'O'
aS'O'
aS'O'
aS'S-PER'
p83
aS'O'
aS'O'
aS'O'
aS'O'
aS'O'
assb.