ccopy_reg
_reconstructor
p1
(c__main__
KBproperty
p2
c__builtin__
object
p3
NtRp4
(dp5
S'comment'
p6
S'number of pixels millions'
p7
sS'domain'
p8
S''
sS'instances_count'
p9
S'0'
sS'label'
p10
g7
sS'range'
p11
S'non Negative Integer '
p12
sS'prop_uri'
p13
S"'http://dbpedia.org/ontology/numberOfPixels'"
p14
sS'annotations'
p15
(dp16
S'bag_of_words'
p17
(lp18
S'number'
p19
aS'Of'
p20
aS'Pixels'
p21
aS'non'
p22
aS'Negative'
p23
aS'Integer'
p24
aS'number'
p25
aS'of'
p26
aS'pixels'
p27
aS'millions'
p28
asS'chunk_seq'
p29
(lp30
S'S-NP'
p31
aS'S-PP'
p32
aS'S-NP'
p33
aS'B-NP'
p34
aS'I-NP'
p35
aS'I-NP'
p36
aS'E-NP'
p37
aS'S-PP'
p38
aS'B-NP'
p39
aS'E-NP'
p40
asS'dep_seq'
p41
(lp42
(lp43
S'root'
p44
aS'0'
aS'1'
aa(lp45
S'prep_of'
p46
aS'1'
aS'3'
aa(lp47
S'amod'
p48
aS'7'
aS'4'
aa(lp49
S'amod'
p50
aS'7'
aS'5'
aa(lp51
S'nn'
p52
aS'7'
aS'6'
aa(lp53
S'dep'
p54
aS'1'
aS'7'
aa(lp55
S'prep_of'
p56
aS'7'
aS'9'
aa(lp57
S'dep'
p58
aS'1'
aS'10'
p59
aasS'srls'
p60
(lp61
sS'pos_seq'
p62
(lp63
S'NN'
p64
aS'IN'
p65
aS'NNS'
p66
aS'JJ'
p67
aS'JJ'
p68
aS'NN'
p69
aS'NN'
p70
aS'IN'
p71
aS'NNS'
p72
aS'NNS'
p73
asS'ner_seq'
p74
(lp75
S'O'
aS'O'
aS'O'
aS'O'
aS'O'
aS'O'
aS'O'
aS'O'
aS'O'
aS'O'
assb.