ccopy_reg
_reconstructor
p1
(c__main__
KBproperty
p2
c__builtin__
object
p3
NtRp4
(dp5
S'comment'
p6
S''
sS'domain'
p7
S'Athlete '
p8
sS'instances_count'
p9
S'0'
sS'label'
p10
S'horse riding discipline'
p11
sS'range'
p12
S'Horse Riding '
p13
sS'prop_uri'
p14
S"'http://dbpedia.org/ontology/horseRidingDiscipline'"
p15
sS'annotations'
p16
(dp17
S'bag_of_words'
p18
(lp19
S'Athlete'
p20
aS'horse'
p21
aS'riding'
p22
aS'discipline'
p23
aS'Horse'
p24
aS'Riding'
p25
asS'chunk_seq'
p26
(lp27
S'B-NP'
p28
aS'E-NP'
p29
aS'S-VP'
p30
aS'B-NP'
p31
aS'E-NP'
p32
aS'S-VP'
p33
asS'dep_seq'
p34
(lp35
(lp36
S'nn'
p37
aS'2'
aS'1'
aa(lp38
S'root'
p39
aS'0'
aS'2'
aa(lp40
S'partmod'
p41
aS'2'
aS'3'
aa(lp42
S'nn'
p43
aS'5'
aS'4'
aa(lp44
S'dobj'
p45
aS'3'
aS'5'
aa(lp46
S'amod'
p47
aS'5'
aS'6'
aasS'srls'
p48
(lp49
(dp50
S'A1'
p51
S'discipline Horse Riding'
p52
sS'A0'
p53
S'Athlete horse'
p54
sS'V'
g22
sa(dp55
S'A0'
p56
S'Athlete horse riding discipline Horse'
p57
sS'V'
g25
sasS'pos_seq'
p58
(lp59
S'NN'
p60
aS'NN'
p61
aS'VBG'
p62
aS'NN'
p63
aS'NN'
p64
aS'VBG'
p65
asS'ner_seq'
p66
(lp67
S'O'
aS'O'
aS'O'
aS'O'
aS'O'
aS'O'
assb.