ccopy_reg
_reconstructor
p1
(c__main__
KBproperty
p2
c__builtin__
object
p3
NtRp4
(dp5
S'comment'
p6
S'Lortel Archives Internet Off-Broadway database "show id" from lortel.org.'
p7
sS'domain'
p8
S'Play '
p9
sS'instances_count'
p10
S'0'
sS'label'
p11
S'IOBDB ID'
p12
sS'range'
p13
S'string '
p14
sS'prop_uri'
p15
S"'http://dbpedia.org/ontology/iobdbId'"
p16
sS'annotations'
p17
(dp18
S'bag_of_words'
p19
(lp20
S'Play'
p21
aS'IOBDB'
p22
aS'ID'
p23
aS'string'
p24
aS'Lortel'
p25
aS'Archives'
p26
aS'Internet'
p27
aS'Off'
p28
aS'-'
aS'Broadway'
p29
aS'database'
p30
aS'"'
aS'show'
p31
aS'id'
p32
aS'"'
aS'from'
p33
aS'lortel'
p34
aS'.org'
p35
aS'.'
asS'chunk_seq'
p36
(lp37
S'S-VP'
p38
aS'B-NP'
p39
aS'I-NP'
p40
aS'I-NP'
p41
aS'I-NP'
p42
aS'I-NP'
p43
aS'I-NP'
p44
aS'I-NP'
p45
aS'I-NP'
p46
aS'I-NP'
p47
aS'E-NP'
p48
aS'S-NP'
p49
aS'S-VP'
p50
aS'B-NP'
p51
aS'E-NP'
p52
aS'S-PP'
p53
aS'B-NP'
p54
aS'E-NP'
p55
aS'O'
asS'dep_seq'
p56
(lp57
(lp58
S'root'
p59
aS'0'
aS'1'
aa(lp60
S'nn'
p61
aS'6'
aS'2'
aa(lp62
S'nn'
p63
aS'6'
aS'3'
aa(lp64
S'nn'
p65
aS'6'
aS'4'
aa(lp66
S'nn'
p67
aS'6'
aS'5'
aa(lp68
S'dobj'
p69
aS'1'
aS'6'
aa(lp70
S'nn'
p71
aS'11'
p72
aS'7'
aa(lp73
S'amod'
p74
aS'11'
p75
aS'8'
aa(lp76
S'amod'
p77
aS'8'
aS'10'
p78
aa(lp79
S'nsubj'
p80
aS'13'
p81
aS'11'
p82
aa(lp83
S'dep'
p84
aS'13'
p85
aS'12'
p86
aa(lp87
S'dep'
p88
aS'1'
aS'13'
p89
aa(lp90
S'nn'
p91
aS'15'
p92
aS'14'
p93
aa(lp94
S'dobj'
p95
aS'13'
p96
aS'15'
p97
aa(lp98
S'nn'
p99
aS'18'
p100
aS'17'
p101
aa(lp102
S'prep_from'
p103
aS'15'
p104
aS'18'
p105
aasS'srls'
p106
(lp107
(dp108
S'A1'
p109
S'IOBDB ID string Lortel Archives Internet Off - Broadway database " show id " from lortel .org'
p110
sS'V'
g21
sa(dp111
S'A1'
p112
S'id " from lortel .org'
p113
sS'A0'
p114
S'Play IOBDB ID string Lortel Archives Internet Off - Broadway database'
p115
sS'V'
g31
sasS'pos_seq'
p116
(lp117
S'VB'
p118
aS'NNP'
p119
aS'NNP'
p120
aS'NN'
p121
aS'NNP'
p122
aS'NNP'
p123
aS'NNP'
p124
aS'NNP'
p125
aS':'
aS'NNP'
p126
aS'NN'
p127
aS'WDT'
p128
aS'VBP'
p129
aS'NN'
p130
aS'NN'
p131
aS'IN'
p132
aS'NN'
p133
aS'NN'
p134
aS'.'
asS'ner_seq'
p135
(lp136
S'O'
aS'S-MISC'
p137
aS'O'
aS'O'
aS'B-ORG'
p138
aS'I-ORG'
p139
aS'I-ORG'
p140
aS'I-ORG'
p141
aS'I-ORG'
p142
aS'E-ORG'
p143
aS'O'
aS'O'
aS'O'
aS'O'
aS'O'
aS'O'
aS'O'
aS'O'
aS'O'
assb.