ccopy_reg
_reconstructor
p1
(c__main__
KBproperty
p2
c__builtin__
object
p3
NtRp4
(dp5
S'comment'
p6
S''
sS'domain'
p7
S'Person '
p8
sS'instances_count'
p9
S'0'
sS'label'
p10
S'junior years start year'
p11
sS'range'
p12
S'g Year '
p13
sS'prop_uri'
p14
S"'http://dbpedia.org/ontology/juniorYearsStartYear'"
p15
sS'annotations'
p16
(dp17
S'bag_of_words'
p18
(lp19
S'Person'
p20
aS'junior'
p21
aS'years'
p22
aS'start'
p23
aS'year'
p24
aS'g'
aS'Year'
p25
asS'chunk_seq'
p26
(lp27
S'B-NP'
p28
aS'I-NP'
p29
aS'E-NP'
p30
aS'S-VP'
p31
aS'B-NP'
p32
aS'I-NP'
p33
aS'E-NP'
p34
asS'dep_seq'
p35
(lp36
(lp37
S'nn'
p38
aS'3'
aS'1'
aa(lp39
S'amod'
p40
aS'3'
aS'2'
aa(lp41
S'nsubj'
p42
aS'4'
aS'3'
aa(lp43
S'root'
p44
aS'0'
aS'4'
aa(lp45
S'nn'
p46
aS'7'
aS'5'
aa(lp47
S'nn'
p48
aS'7'
aS'6'
aa(lp49
S'tmod'
p50
aS'4'
aS'7'
aasS'srls'
p51
(lp52
(dp53
S'A1'
p54
S'Person junior years'
p55
sS'AM-TMP'
p56
S'year g Year'
p57
sS'V'
g23
sasS'pos_seq'
p58
(lp59
S'NN'
p60
aS'JJ'
p61
aS'NNS'
p62
aS'VBP'
p63
aS'NN'
p64
aS'NN'
p65
aS'NN'
p66
asS'ner_seq'
p67
(lp68
S'O'
aS'O'
aS'O'
aS'O'
aS'O'
aS'O'
aS'O'
assb.