ccopy_reg
_reconstructor
p1
(c__main__
KBproperty
p2
c__builtin__
object
p3
NtRp4
(dp5
S'comment'
p6
S'Name of a character in play.'
p7
sS'domain'
p8
S'Play '
p9
sS'instances_count'
p10
S'5373'
p11
sS'label'
p12
S'character in play'
p13
sS'range'
p14
S'string '
p15
sS'prop_uri'
p16
S"'http://dbpedia.org/ontology/characterInPlay'"
p17
sS'annotations'
p18
(dp19
S'bag_of_words'
p20
(lp21
S'Play'
p22
aS'character'
p23
aS'in'
p24
aS'play'
p25
aS'string'
p26
aS'Name'
p27
aS'of'
p28
aS'a'
aS'character'
p29
aS'in'
p30
aS'play'
p31
aS'.'
asS'chunk_seq'
p32
(lp33
S'S-VP'
p34
aS'S-NP'
p35
aS'S-PP'
p36
aS'B-NP'
p37
aS'I-NP'
p38
aS'E-NP'
p39
aS'S-PP'
p40
aS'B-NP'
p41
aS'E-NP'
p42
aS'S-PP'
p43
aS'S-NP'
p44
aS'O'
asS'dep_seq'
p45
(lp46
(lp47
S'root'
p48
aS'0'
aS'1'
aa(lp49
S'dobj'
p50
aS'1'
aS'2'
aa(lp51
S'nn'
p52
aS'6'
aS'4'
aa(lp53
S'nn'
p54
aS'6'
aS'5'
aa(lp55
S'prep_in'
p56
aS'1'
aS'6'
aa(lp57
S'det'
p58
aS'9'
aS'8'
aa(lp59
S'prep_of'
p60
aS'6'
aS'9'
aa(lp61
S'prep_in'
p62
aS'9'
aS'11'
p63
aasS'srls'
p64
(lp65
(dp66
S'A1'
p67
g23
sS'V'
g22
sasS'pos_seq'
p68
(lp69
S'VB'
p70
aS'NN'
p71
aS'IN'
p72
aS'NN'
p73
aS'NN'
p74
aS'NN'
p75
aS'IN'
p76
aS'DT'
p77
aS'NN'
p78
aS'IN'
p79
aS'NN'
p80
aS'.'
asS'ner_seq'
p81
(lp82
S'O'
aS'O'
aS'O'
aS'O'
aS'O'
aS'O'
aS'O'
aS'O'
aS'O'
aS'O'
aS'O'
aS'O'
assb.