ccopy_reg
_reconstructor
p1
(c__main__
KBproperty
p2
c__builtin__
object
p3
NtRp4
(dp5
S'comment'
p6
S''
sS'domain'
p7
S'Mean Of Transportation '
p8
sS'instances_count'
p9
S'1486'
p10
sS'label'
p11
S'designer company'
p12
sS'range'
p13
S'Company '
p14
sS'prop_uri'
p15
S"'http://dbpedia.org/ontology/designCompany'"
p16
sS'annotations'
p17
(dp18
S'bag_of_words'
p19
(lp20
S'Mean'
p21
aS'Of'
p22
aS'Transportation'
p23
aS'designer'
p24
aS'company'
p25
aS'Company'
p26
asS'chunk_seq'
p27
(lp28
S'S-NP'
p29
aS'S-PP'
p30
aS'B-NP'
p31
aS'I-NP'
p32
aS'I-NP'
p33
aS'E-NP'
p34
asS'dep_seq'
p35
(lp36
(lp37
S'root'
p38
aS'0'
aS'1'
aa(lp39
S'nn'
p40
aS'6'
aS'3'
aa(lp41
S'nn'
p42
aS'6'
aS'4'
aa(lp43
S'nn'
p44
aS'6'
aS'5'
aa(lp45
S'prep_of'
p46
aS'1'
aS'6'
aasS'srls'
p47
(lp48
sS'pos_seq'
p49
(lp50
S'NNP'
p51
aS'IN'
p52
aS'NNP'
p53
aS'NN'
p54
aS'NN'
p55
aS'NN'
p56
asS'ner_seq'
p57
(lp58
S'O'
aS'B-ORG'
p59
aS'E-ORG'
p60
aS'O'
aS'O'
aS'O'
assb.