ccopy_reg
_reconstructor
p1
(c__main__
KBproperty
p2
c__builtin__
object
p3
NtRp4
(dp5
S'comment'
p6
S''
sS'domain'
p7
S'Album '
p8
sS'instances_count'
p9
S'25'
p10
sS'label'
p11
S'review'
p12
sS'range'
p13
S'any '
p14
sS'prop_uri'
p15
S"'http://dbpedia.org/ontology/review'"
p16
sS'annotations'
p17
(dp18
S'bag_of_words'
p19
(lp20
S'Album'
p21
aS'review'
p22
aS'any'
p23
asS'chunk_seq'
p24
(lp25
S'B-NP'
p26
aS'E-NP'
p27
aS'S-ADJP'
p28
asS'dep_seq'
p29
(lp30
(lp31
S'nn'
p32
aS'2'
aS'1'
aa(lp33
S'root'
p34
aS'0'
aS'2'
aa(lp35
S'dep'
p36
aS'2'
aS'3'
aasS'srls'
p37
(lp38
sS'pos_seq'
p39
(lp40
S'NN'
p41
aS'NN'
p42
aS'DT'
p43
asS'ner_seq'
p44
(lp45
S'O'
aS'O'
aS'O'
assb.