ccopy_reg
_reconstructor
p1
(c__main__
KBproperty
p2
c__builtin__
object
p3
NtRp4
(dp5
S'comment'
p6
S'The highest rank achieved by a person.'
p7
sS'domain'
p8
S'Military Person '
p9
sS'instances_count'
p10
S'3992'
p11
sS'label'
p12
S'military rank'
p13
sS'range'
p14
S''
sS'prop_uri'
p15
S"'http://dbpedia.org/ontology/militaryRank'"
p16
sS'annotations'
p17
(dp18
S'bag_of_words'
p19
(lp20
S'Military'
p21
aS'Person'
p22
aS'military'
p23
aS'rank'
p24
aS'The'
p25
aS'highest'
p26
aS'rank'
p27
aS'achieved'
p28
aS'by'
p29
aS'a'
aS'person'
p30
aS'.'
asS'chunk_seq'
p31
(lp32
S'B-NP'
p33
aS'I-NP'
p34
aS'I-NP'
p35
aS'E-NP'
p36
aS'B-NP'
p37
aS'I-NP'
p38
aS'E-NP'
p39
aS'S-VP'
p40
aS'S-PP'
p41
aS'B-NP'
p42
aS'E-NP'
p43
aS'O'
asS'dep_seq'
p44
(lp45
(lp46
S'amod'
p47
aS'4'
aS'1'
aa(lp48
S'nn'
p49
aS'4'
aS'2'
aa(lp50
S'amod'
p51
aS'4'
aS'3'
aa(lp52
S'dep'
p53
aS'7'
aS'4'
aa(lp54
S'det'
p55
aS'7'
aS'5'
aa(lp56
S'amod'
p57
aS'7'
aS'6'
aa(lp58
S'root'
p59
aS'0'
aS'7'
aa(lp60
S'partmod'
p61
aS'7'
aS'8'
aa(lp62
S'det'
p63
aS'11'
p64
aS'10'
p65
aa(lp66
S'agent'
p67
aS'8'
aS'11'
p68
aasS'srls'
p69
(lp70
(dp71
S'A1'
p72
S'The highest rank'
p73
sS'A0'
p74
S'by a person'
p75
sS'V'
g28
sasS'pos_seq'
p76
(lp77
S'JJ'
p78
aS'NN'
p79
aS'JJ'
p80
aS'NN'
p81
aS'DT'
p82
aS'JJS'
p83
aS'NN'
p84
aS'VBN'
p85
aS'IN'
p86
aS'DT'
p87
aS'NN'
p88
aS'.'
asS'ner_seq'
p89
(lp90
S'O'
aS'O'
aS'O'
aS'O'
aS'O'
aS'O'
aS'O'
aS'O'
aS'O'
aS'O'
aS'O'
aS'O'
assb.