ccopy_reg
_reconstructor
p1
(c__main__
KBproperty
p2
c__builtin__
object
p3
NtRp4
(dp5
S'comment'
p6
S"a municipality's new name"
p7
sS'domain'
p8
S'Municipality '
p9
sS'instances_count'
p10
S'0'
sS'label'
p11
S'"a municipality\'s new name"'
p12
sS'range'
p13
S'string '
p14
sS'prop_uri'
p15
S"'http://dbpedia.org/ontology/municipalityRenamedTo'"
p16
sS'annotations'
p17
(dp18
S'bag_of_words'
p19
(lp20
S'Municipality'
p21
aS'municipality'
p22
aS'Renamed'
p23
aS'To'
p24
aS'string'
p25
aS'a'
aS'municipality'
p26
aS"'s"
p27
aS'new'
p28
aS'name'
p29
asS'chunk_seq'
p30
(lp31
S'B-NP'
p32
aS'E-NP'
p33
aS'S-VP'
p34
aS'B-VP'
p35
aS'E-VP'
p36
aS'B-NP'
p37
aS'E-NP'
p38
aS'B-NP'
p39
aS'I-NP'
p40
aS'E-NP'
p41
asS'dep_seq'
p42
(lp43
(lp44
S'nn'
p45
aS'2'
aS'1'
aa(lp46
S'root'
p47
aS'0'
aS'2'
aa(lp48
S'partmod'
p49
aS'2'
aS'3'
aa(lp50
S'aux'
p51
aS'5'
aS'4'
aa(lp52
S'xcomp'
p53
aS'3'
aS'5'
aa(lp54
S'det'
p55
aS'7'
aS'6'
aa(lp56
S'poss'
p57
aS'10'
p58
aS'7'
aa(lp59
S'amod'
p60
aS'10'
p61
aS'9'
aa(lp62
S'dobj'
p63
aS'5'
aS'10'
p64
aasS'srls'
p65
(lp66
(dp67
S'A1'
p68
S'Municipality municipality'
p69
sS'AM-PNC'
p70
S"To string a municipality 's new name"
p71
sS'V'
g23
sa(dp72
S'A1'
p73
S"a municipality 's new name"
p74
sS'A0'
p75
S'Municipality municipality'
p76
sS'V'
g25
sasS'pos_seq'
p77
(lp78
S'NN'
p79
aS'NN'
p80
aS'VBN'
p81
aS'TO'
p82
aS'VB'
p83
aS'DT'
p84
aS'NN'
p85
aS'POS'
p86
aS'JJ'
p87
aS'NN'
p88
asS'ner_seq'
p89
(lp90
S'O'
aS'O'
aS'O'
aS'O'
aS'O'
aS'O'
aS'O'
aS'O'
aS'O'
aS'O'
assb.