ccopy_reg
_reconstructor
p1
(c__main__
KBproperty
p2
c__builtin__
object
p3
NtRp4
(dp5
S'comment'
p6
S'The name of the Greek chorus character in play.'
p7
sS'domain'
p8
S'Play '
p9
sS'instances_count'
p10
S'60'
p11
sS'label'
p12
S'chorus character in play'
p13
sS'range'
p14
S'string '
p15
sS'prop_uri'
p16
S"'http://dbpedia.org/ontology/chorusCharacterInPlay'"
p17
sS'annotations'
p18
(dp19
S'bag_of_words'
p20
(lp21
S'Play'
p22
aS'chorus'
p23
aS'character'
p24
aS'in'
p25
aS'play'
p26
aS'string'
p27
aS'The'
p28
aS'name'
p29
aS'of'
p30
aS'the'
p31
aS'Greek'
p32
aS'chorus'
p33
aS'character'
p34
aS'in'
p35
aS'play'
p36
aS'.'
asS'chunk_seq'
p37
(lp38
S'B-NP'
p39
aS'I-NP'
p40
aS'E-NP'
p41
aS'S-PP'
p42
aS'B-NP'
p43
aS'E-NP'
p44
aS'B-NP'
p45
aS'E-NP'
p46
aS'S-PP'
p47
aS'B-NP'
p48
aS'I-NP'
p49
aS'I-NP'
p50
aS'E-NP'
p51
aS'S-PP'
p52
aS'S-NP'
p53
aS'O'
asS'dep_seq'
p54
(lp55
(lp56
S'nn'
p57
aS'3'
aS'1'
aa(lp58
S'nn'
p59
aS'3'
aS'2'
aa(lp60
S'root'
p61
aS'0'
aS'3'
aa(lp62
S'nn'
p63
aS'6'
aS'5'
aa(lp64
S'prep_in'
p65
aS'3'
aS'6'
aa(lp66
S'det'
p67
aS'8'
aS'7'
aa(lp68
S'dep'
p69
aS'3'
aS'8'
aa(lp70
S'det'
p71
aS'13'
p72
aS'10'
p73
aa(lp74
S'amod'
p75
aS'13'
p76
aS'11'
p77
aa(lp78
S'nn'
p79
aS'13'
p80
aS'12'
p81
aa(lp82
S'prep_of'
p83
aS'3'
aS'13'
p84
aa(lp85
S'prep_in'
p86
aS'13'
p87
aS'15'
p88
aasS'srls'
p89
(lp90
sS'pos_seq'
p91
(lp92
S'NN'
p93
aS'NN'
p94
aS'NN'
p95
aS'IN'
p96
aS'NN'
p97
aS'NN'
p98
aS'DT'
p99
aS'NN'
p100
aS'IN'
p101
aS'DT'
p102
aS'JJ'
p103
aS'NN'
p104
aS'NN'
p105
aS'IN'
p106
aS'NN'
p107
aS'.'
asS'ner_seq'
p108
(lp109
S'O'
aS'O'
aS'O'
aS'O'
aS'O'
aS'O'
aS'O'
aS'O'
aS'O'
aS'O'
aS'S-MISC'
p110
aS'O'
aS'O'
aS'O'
aS'O'
aS'O'
assb.