ccopy_reg
_reconstructor
p1
(c__main__
KBproperty
p2
c__builtin__
object
p3
NtRp4
(dp5
S'comment'
p6
S'indicates another place situated north-east.'
p7
sS'domain'
p8
S'Place '
p9
sS'instances_count'
p10
S'0'
sS'label'
p11
S'north-east place'
p12
sS'range'
p13
S'Place '
p14
sS'prop_uri'
p15
S"'http://dbpedia.org/ontology/northEastPlace'"
p16
sS'annotations'
p17
(dp18
S'bag_of_words'
p19
(lp20
S'Place'
p21
aS'north-east'
p22
aS'place'
p23
aS'Place'
p24
aS'indicates'
p25
aS'another'
p26
aS'place'
p27
aS'situated'
p28
aS'north-east'
p29
aS'.'
asS'chunk_seq'
p30
(lp31
S'B-NP'
p32
aS'I-NP'
p33
aS'I-NP'
p34
aS'E-NP'
p35
aS'S-VP'
p36
aS'B-NP'
p37
aS'E-NP'
p38
aS'S-VP'
p39
aS'S-ADVP'
p40
aS'O'
asS'dep_seq'
p41
(lp42
(lp43
S'nn'
p44
aS'4'
aS'1'
aa(lp45
S'amod'
p46
aS'4'
aS'east'
p47
aa(lp48
S'nn'
p49
aS'4'
aS'3'
aa(lp50
S'nsubj'
p51
aS'5'
aS'4'
aa(lp52
S'root'
p53
aS'0'
aS'5'
aa(lp54
S'det'
p55
aS'7'
aS'6'
aa(lp56
S'dobj'
p57
aS'5'
aS'7'
aa(lp58
S'partmod'
p59
aS'7'
aS'8'
aa(lp60
S'advmod'
p61
aS'8'
aS'east'
p62
aasS'srls'
p63
(lp64
(dp65
S'A1'
p66
S'another place situated north-east'
p67
sS'A0'
p68
S'Place north-east place Place'
p69
sS'V'
g25
sa(dp70
S'A1'
p71
S'another place'
p72
sS'A2'
p73
g29
sS'V'
g28
sasS'pos_seq'
p74
(lp75
S'NN'
p76
aS'JJ'
p77
aS'NN'
p78
aS'NNP'
p79
aS'VBZ'
p80
aS'DT'
p81
aS'NN'
p82
aS'VBN'
p83
aS'RB'
p84
aS'.'
asS'ner_seq'
p85
(lp86
S'O'
aS'O'
aS'O'
aS'O'
aS'O'
aS'O'
aS'O'
aS'O'
aS'O'
aS'O'
assb.