ccopy_reg
_reconstructor
p1
(c__main__
KBproperty
p2
c__builtin__
object
p3
NtRp4
(dp5
S'comment'
p6
S''
sS'domain'
p7
S'Populated Place '
p8
sS'instances_count'
p9
S'16631'
p10
sS'label'
p11
S'neighboring municipality'
p12
sS'range'
p13
S'Populated Place '
p14
sS'prop_uri'
p15
S"'http://dbpedia.org/ontology/neighboringMunicipality'"
p16
sS'annotations'
p17
(dp18
S'bag_of_words'
p19
(lp20
S'Populated'
p21
aS'Place'
p22
aS'neighboring'
p23
aS'municipality'
p24
aS'Populated'
p25
aS'Place'
p26
asS'chunk_seq'
p27
(lp28
S'B-NP'
p29
aS'E-NP'
p30
aS'B-NP'
p31
aS'I-NP'
p32
aS'I-NP'
p33
aS'E-NP'
p34
asS'dep_seq'
p35
(lp36
(lp37
S'amod'
p38
aS'2'
aS'1'
aa(lp39
S'root'
p40
aS'0'
aS'2'
aa(lp41
S'amod'
p42
aS'6'
aS'3'
aa(lp43
S'nn'
p44
aS'6'
aS'4'
aa(lp45
S'amod'
p46
aS'6'
aS'5'
aa(lp47
S'dep'
p48
aS'2'
aS'6'
aasS'srls'
p49
(lp50
(dp51
S'A1'
p52
S'municipality Populated Place'
p53
sS'V'
g23
sasS'pos_seq'
p54
(lp55
S'VBN'
p56
aS'NN'
p57
aS'VBG'
p58
aS'NN'
p59
aS'JJ'
p60
aS'NN'
p61
asS'ner_seq'
p62
(lp63
S'O'
aS'O'
aS'O'
aS'O'
aS'O'
aS'O'
assb.