ccopy_reg
_reconstructor
p1
(c__main__
KBproperty
p2
c__builtin__
object
p3
NtRp4
(dp5
S'comment'
p6
S'number of parking lots for cars'
p7
sS'domain'
p8
S'Rest Area '
p9
sS'instances_count'
p10
S'0'
sS'label'
p11
g7
sS'range'
p12
S'non Negative Integer '
p13
sS'prop_uri'
p14
S"'http://dbpedia.org/ontology/parkingLotsCars'"
p15
sS'annotations'
p16
(dp17
S'bag_of_words'
p18
(lp19
S'Rest'
p20
aS'Area'
p21
aS'parking'
p22
aS'Lots'
p23
aS'Cars'
p24
aS'non'
p25
aS'Negative'
p26
aS'Integer'
p27
aS'number'
p28
aS'of'
p29
aS'parking'
p30
aS'lots'
p31
aS'for'
p32
aS'cars'
p33
asS'chunk_seq'
p34
(lp35
S'B-NP'
p36
aS'E-NP'
p37
aS'S-VP'
p38
aS'B-NP'
p39
aS'E-NP'
p40
aS'B-NP'
p41
aS'I-NP'
p42
aS'I-NP'
p43
aS'E-NP'
p44
aS'S-PP'
p45
aS'B-NP'
p46
aS'E-NP'
p47
aS'S-PP'
p48
aS'S-NP'
p49
asS'dep_seq'
p50
(lp51
(lp52
S'nn'
p53
aS'5'
aS'1'
aa(lp54
S'nn'
p55
aS'5'
aS'2'
aa(lp56
S'nn'
p57
aS'5'
aS'3'
aa(lp58
S'nn'
p59
aS'5'
aS'4'
aa(lp60
S'dep'
p61
aS'9'
aS'5'
aa(lp62
S'dep'
p63
aS'9'
aS'6'
aa(lp64
S'amod'
p65
aS'9'
aS'7'
aa(lp66
S'nn'
p67
aS'9'
aS'8'
aa(lp68
S'root'
p69
aS'0'
aS'9'
aa(lp70
S'nn'
p71
aS'12'
p72
aS'11'
p73
aa(lp74
S'prep_of'
p75
aS'9'
aS'12'
p76
aa(lp77
S'prep_for'
p78
aS'12'
p79
aS'14'
p80
aasS'srls'
p81
(lp82
sS'pos_seq'
p83
(lp84
S'NNP'
p85
aS'NNP'
p86
aS'NN'
p87
aS'NNS'
p88
aS'NNS'
p89
aS'VBP'
p90
aS'JJ'
p91
aS'NN'
p92
aS'NN'
p93
aS'IN'
p94
aS'NN'
p95
aS'NNS'
p96
aS'IN'
p97
aS'NNS'
p98
asS'ner_seq'
p99
(lp100
S'O'
aS'O'
aS'O'
aS'O'
aS'O'
aS'O'
aS'O'
aS'O'
aS'O'
aS'O'
aS'O'
aS'O'
aS'O'
aS'O'
assb.