ccopy_reg
_reconstructor
p1
(c__main__
KBproperty
p2
c__builtin__
object
p3
NtRp4
(dp5
S'comment'
p6
S'A person who learns from another especially one who then teaches others..'
p7
sS'domain'
p8
S'Artist '
p9
sS'instances_count'
p10
S'0'
sS'label'
p11
S'disciple'
p12
sS'range'
p13
S'Artist '
p14
sS'prop_uri'
p15
S"'http://dbpedia.org/ontology/disciple'"
p16
sS'annotations'
p17
(dp18
S'bag_of_words'
p19
(lp20
S'Artist'
p21
aS'disciple'
p22
aS'Artist'
p23
aS'A'
aS'person'
p24
aS'who'
p25
aS'learns'
p26
aS'from'
p27
aS'another'
p28
aS'especially'
p29
aS'one'
p30
aS'who'
p31
aS'then'
p32
aS'teaches'
p33
aS'others.'
p34
aS'.'
asS'chunk_seq'
p35
(lp36
S'B-NP'
p37
aS'I-NP'
p38
aS'E-NP'
p39
aS'B-NP'
p40
aS'E-NP'
p41
aS'S-NP'
p42
aS'S-VP'
p43
aS'S-PP'
p44
aS'B-NP'
p45
aS'I-NP'
p46
aS'E-NP'
p47
aS'S-NP'
p48
aS'S-ADVP'
p49
aS'S-VP'
p50
aS'S-NP'
p51
aS'O'
asS'dep_seq'
p52
(lp53
(lp54
S'nn'
p55
aS'3'
aS'1'
aa(lp56
S'nn'
p57
aS'3'
aS'2'
aa(lp58
S'root'
p59
aS'0'
aS'3'
aa(lp60
S'nn'
p61
aS'5'
aS'4'
aa(lp62
S'dep'
p63
aS'3'
aS'5'
aa(lp64
S'nsubj'
p65
aS'7'
aS'5'
aa(lp66
S'rcmod'
p67
aS'5'
aS'7'
aa(lp68
S'det'
p69
aS'11'
p70
aS'9'
aa(lp71
S'advmod'
p72
aS'11'
p73
aS'10'
p74
aa(lp75
S'prep_from'
p76
aS'7'
aS'11'
p77
aa(lp78
S'nsubj'
p79
aS'14'
p80
aS'11'
p81
aa(lp82
S'advmod'
p83
aS'14'
p84
aS'13'
p85
aa(lp86
S'rcmod'
p87
aS'11'
p88
aS'14'
p89
aa(lp90
S'dobj'
p91
aS'14'
p92
aS'15'
p93
aasS'srls'
p94
(lp95
(dp96
S'A1'
p97
S'from another especially one who then teaches others.'
p98
sS'A0'
p99
S'A person'
p100
sS'R-A0'
p101
g25
sS'V'
g26
sa(dp102
S'A1'
p103
g34
sS'AM-TMP'
p104
g32
sS'R-A0'
p105
g31
sS'V'
g33
sasS'pos_seq'
p106
(lp107
S'NN'
p108
aS'NN'
p109
aS'NNP'
p110
aS'NNP'
p111
aS'NN'
p112
aS'WP'
p113
aS'VBZ'
p114
aS'IN'
p115
aS'DT'
p116
aS'RB'
p117
aS'NN'
p118
aS'WP'
p119
aS'RB'
p120
aS'VBZ'
p121
aS'NNS'
p122
aS'.'
asS'ner_seq'
p123
(lp124
S'O'
aS'O'
aS'O'
aS'O'
aS'O'
aS'O'
aS'O'
aS'O'
aS'O'
aS'O'
aS'O'
aS'O'
aS'O'
aS'O'
aS'O'
aS'O'
assb.