ccopy_reg
_reconstructor
p1
(c__main__
KBproperty
p2
c__builtin__
object
p3
NtRp4
(dp5
S'comment'
p6
S''
sS'domain'
p7
S'Year In Spaceflight '
p8
sS'instances_count'
p9
S'11'
p10
sS'label'
p11
S'country with first satellite launched'
p12
sS'range'
p13
S'Country '
p14
sS'prop_uri'
p15
S"'http://dbpedia.org/ontology/countryWithFirstSatelliteLaunched'"
p16
sS'annotations'
p17
(dp18
S'bag_of_words'
p19
(lp20
S'Year'
p21
aS'In'
p22
aS'Spaceflight'
p23
aS'country'
p24
aS'with'
p25
aS'first'
p26
aS'satellite'
p27
aS'launched'
p28
aS'Country'
p29
asS'chunk_seq'
p30
(lp31
S'S-NP'
p32
aS'S-PP'
p33
aS'B-NP'
p34
aS'E-NP'
p35
aS'S-PP'
p36
aS'B-NP'
p37
aS'I-NP'
p38
aS'I-NP'
p39
aS'E-NP'
p40
asS'dep_seq'
p41
(lp42
(lp43
S'root'
p44
aS'0'
aS'1'
aa(lp45
S'nn'
p46
aS'4'
aS'3'
aa(lp47
S'prep_in'
p48
aS'1'
aS'4'
aa(lp49
S'amod'
p50
aS'9'
aS'6'
aa(lp51
S'nn'
p52
aS'9'
aS'7'
aa(lp53
S'amod'
p54
aS'9'
aS'8'
aa(lp55
S'prep_with'
p56
aS'1'
aS'9'
aasS'srls'
p57
(lp58
(dp59
S'A1'
p60
g29
sS'A0'
p61
g27
sS'V'
g28
sasS'pos_seq'
p62
(lp63
S'NN'
p64
aS'IN'
p65
aS'NNP'
p66
aS'NN'
p67
aS'IN'
p68
aS'JJ'
p69
aS'NN'
p70
aS'VBN'
p71
aS'NN'
p72
asS'ner_seq'
p73
(lp74
S'O'
aS'O'
aS'O'
aS'O'
aS'O'
aS'O'
aS'O'
aS'O'
aS'S-LOC'
p75
assb.