ccopy_reg
_reconstructor
p1
(c__main__
KBproperty
p2
c__builtin__
object
p3
NtRp4
(dp5
S'comment'
p6
S'depiction description caption'
p7
sS'domain'
p8
S''
sS'instances_count'
p9
S'2536'
p10
sS'label'
p11
g7
sS'range'
p12
S'lang String '
p13
sS'prop_uri'
p14
S"'http://dbpedia.org/ontology/depictionDescription'"
p15
sS'annotations'
p16
(dp17
S'bag_of_words'
p18
(lp19
S'depiction'
p20
aS'Description'
p21
aS'lang'
p22
aS'String'
p23
aS'depiction'
p24
aS'description'
p25
aS'caption'
p26
asS'chunk_seq'
p27
(lp28
S'B-NP'
p29
aS'I-NP'
p30
aS'I-NP'
p31
aS'I-NP'
p32
aS'I-NP'
p33
aS'I-NP'
p34
aS'E-NP'
p35
asS'dep_seq'
p36
(lp37
(lp38
S'nn'
p39
aS'7'
aS'1'
aa(lp40
S'nn'
p41
aS'7'
aS'2'
aa(lp42
S'amod'
p43
aS'7'
aS'3'
aa(lp44
S'nn'
p45
aS'7'
aS'4'
aa(lp46
S'nn'
p47
aS'7'
aS'5'
aa(lp48
S'nn'
p49
aS'7'
aS'6'
aa(lp50
S'root'
p51
aS'0'
aS'7'
aasS'srls'
p52
(lp53
(dp54
S'A1'
p55
S'String depiction description caption'
p56
sS'V'
g22
sasS'pos_seq'
p57
(lp58
S'NN'
p59
aS'NN'
p60
aS'VBG'
p61
aS'NN'
p62
aS'NN'
p63
aS'NN'
p64
aS'NN'
p65
asS'ner_seq'
p66
(lp67
S'O'
aS'O'
aS'B-PER'
p68
aS'E-PER'
p69
aS'O'
aS'O'
aS'O'
assb.