ccopy_reg
_reconstructor
p1
(c__main__
KBproperty
p2
c__builtin__
object
p3
NtRp4
(dp5
S'comment'
p6
S''
sS'domain'
p7
S''
sS'instances_count'
p8
S'17093'
p9
sS'label'
p10
S'budget $'
p11
sS'range'
p12
S'double '
p13
sS'prop_uri'
p14
S"'http://dbpedia.org/ontology/budget'"
p15
sS'annotations'
p16
(dp17
S'bag_of_words'
p18
(lp19
S'budget'
p20
aS'$'
aS'double'
p21
asS'chunk_seq'
p22
(lp23
S'S-NP'
p24
aS'B-ADJP'
p25
aS'E-ADJP'
p26
asS'dep_seq'
p27
(lp28
(lp29
S'root'
p30
aS'0'
aS'1'
aa(lp31
S'amod'
p32
aS'1'
aS'2'
aa(lp33
S'dep'
p34
aS'2'
aS'3'
aasS'srls'
p35
(lp36
sS'pos_seq'
p37
(lp38
S'NN'
p39
aS'$'
aS'JJ'
p40
asS'ner_seq'
p41
(lp42
S'O'
aS'O'
aS'O'
assb.