ccopy_reg
_reconstructor
p1
(c__main__
KBproperty
p2
c__builtin__
object
p3
NtRp4
(dp5
S'comment'
p6
S''
sS'domain'
p7
S'Boxer '
p8
sS'instances_count'
p9
S'0'
sS'label'
p10
S'amateur tie'
p11
sS'range'
p12
S'non Negative Integer '
p13
sS'prop_uri'
p14
S"'http://dbpedia.org/ontology/amateurTie'"
p15
sS'annotations'
p16
(dp17
S'bag_of_words'
p18
(lp19
S'Boxer'
p20
aS'amateur'
p21
aS'tie'
p22
aS'non'
p23
aS'Negative'
p24
aS'Integer'
p25
asS'chunk_seq'
p26
(lp27
S'B-NP'
p28
aS'I-NP'
p29
aS'I-NP'
p30
aS'I-NP'
p31
aS'I-NP'
p32
aS'E-NP'
p33
asS'dep_seq'
p34
(lp35
(lp36
S'root'
p37
aS'0'
aS'1'
aa(lp38
S'amod'
p39
aS'6'
aS'2'
aa(lp40
S'nn'
p41
aS'6'
aS'3'
aa(lp42
S'amod'
p43
aS'6'
aS'4'
aa(lp44
S'amod'
p45
aS'6'
aS'5'
aa(lp46
S'dobj'
p47
aS'1'
aS'6'
aasS'srls'
p48
(lp49
(dp50
S'A1'
p51
S'amateur tie non Negative Integer'
p52
sS'V'
g20
sasS'pos_seq'
p53
(lp54
S'VB'
p55
aS'JJ'
p56
aS'NN'
p57
aS'JJ'
p58
aS'JJ'
p59
aS'NN'
p60
asS'ner_seq'
p61
(lp62
S'O'
aS'O'
aS'O'
aS'O'
aS'B-MISC'
p63
aS'E-MISC'
p64
assb.