ccopy_reg
_reconstructor
p1
(c__main__
KBproperty
p2
c__builtin__
object
p3
NtRp4
(dp5
S'comment'
p6
S'moment in time used as a referrence point for some time-vaying astronomical quantity'
p7
sS'domain'
p8
S'Planet '
p9
sS'instances_count'
p10
S'3044'
p11
sS'label'
p12
S'epoch'
p13
sS'range'
p14
S'string '
p15
sS'prop_uri'
p16
S"'http://dbpedia.org/ontology/epoch'"
p17
sS'annotations'
p18
(dp19
S'bag_of_words'
p20
(lp21
S'Planet'
p22
aS'epoch'
p23
aS'string'
p24
aS'moment'
p25
aS'in'
p26
aS'time'
p27
aS'used'
p28
aS'as'
p29
aS'a'
aS'referrence'
p30
aS'point'
p31
aS'for'
p32
aS'some'
p33
aS'time'
p34
aS'-'
aS'vaying'
p35
aS'astronomical'
p36
aS'quantity'
p37
asS'chunk_seq'
p38
(lp39
S'B-NP'
p40
aS'I-NP'
p41
aS'I-NP'
p42
aS'E-NP'
p43
aS'S-PP'
p44
aS'S-NP'
p45
aS'S-VP'
p46
aS'S-PP'
p47
aS'B-NP'
p48
aS'I-NP'
p49
aS'E-NP'
p50
aS'S-PP'
p51
aS'B-NP'
p52
aS'E-NP'
p53
aS'O'
aS'B-NP'
p54
aS'I-NP'
p55
aS'E-NP'
p56
asS'dep_seq'
p57
(lp58
(lp59
S'nn'
p60
aS'4'
aS'1'
aa(lp61
S'nn'
p62
aS'4'
aS'2'
aa(lp63
S'nn'
p64
aS'4'
aS'3'
aa(lp65
S'dep'
p66
aS'18'
p67
aS'4'
aa(lp68
S'prep_in'
p69
aS'4'
aS'6'
aa(lp70
S'partmod'
p71
aS'6'
aS'7'
aa(lp72
S'det'
p73
aS'11'
p74
aS'9'
aa(lp75
S'amod'
p76
aS'11'
p77
aS'10'
p78
aa(lp79
S'prep_as'
p80
aS'7'
aS'11'
p81
aa(lp82
S'det'
p83
aS'14'
p84
aS'13'
p85
aa(lp86
S'prep_for'
p87
aS'7'
aS'14'
p88
aa(lp89
S'amod'
p90
aS'18'
p91
aS'16'
p92
aa(lp93
S'amod'
p94
aS'18'
p95
aS'17'
p96
aa(lp97
S'root'
p98
aS'0'
aS'18'
p99
aasS'srls'
p100
(lp101
(dp102
S'A1'
p103
S'time  vaying astronomical quantity'
p104
sS'A2'
p105
S'as a referrence point'
p106
sS'AM-TMP'
p107
S'for some time'
p108
sS'V'
g28
sasS'pos_seq'
p109
(lp110
S'NN'
p111
aS'NN'
p112
aS'NN'
p113
aS'NN'
p114
aS'IN'
p115
aS'NN'
p116
aS'VBN'
p117
aS'IN'
p118
aS'DT'
p119
aS'JJ'
p120
aS'NN'
p121
aS'IN'
p122
aS'DT'
p123
aS'NN'
p124
aS':'
aS'JJ'
p125
aS'JJ'
p126
aS'NN'
p127
asS'ner_seq'
p128
(lp129
S'O'
aS'O'
aS'O'
aS'O'
aS'O'
aS'O'
aS'O'
aS'O'
aS'O'
aS'O'
aS'O'
aS'O'
aS'O'
aS'O'
aS'O'
aS'O'
aS'O'
aS'O'
assb.