ccopy_reg
_reconstructor
p1
(c__main__
KBproperty
p2
c__builtin__
object
p3
NtRp4
(dp5
S'comment'
p6
S"percentage of a place's male population that is literate"
p7
sS'domain'
p8
S'Populated Place '
p9
sS'instances_count'
p10
S'0'
sS'label'
p11
S'"percentage of a place\'s male population that is literate'
p12
sS'range'
p13
S'float '
p14
sS'prop_uri'
p15
S"'http://dbpedia.org/ontology/percentageLiteracyMen'"
p16
sS'annotations'
p17
(dp18
S'bag_of_words'
p19
(lp20
S'Populated'
p21
aS'Place'
p22
aS'percentage'
p23
aS'Literacy'
p24
aS'Men'
p25
aS'float'
p26
aS'percentage'
p27
aS'of'
p28
aS'a'
aS'place'
p29
aS"'s"
p30
aS'male'
p31
aS'population'
p32
aS'that'
p33
aS'is'
p34
aS'literate'
p35
asS'chunk_seq'
p36
(lp37
S'B-NP'
p38
aS'I-NP'
p39
aS'I-NP'
p40
aS'I-NP'
p41
aS'E-NP'
p42
aS'S-VP'
p43
aS'S-NP'
p44
aS'S-PP'
p45
aS'B-NP'
p46
aS'E-NP'
p47
aS'B-NP'
p48
aS'I-NP'
p49
aS'E-NP'
p50
aS'S-NP'
p51
aS'S-VP'
p52
aS'S-ADJP'
p53
asS'dep_seq'
p54
(lp55
(lp56
S'amod'
p57
aS'5'
aS'1'
aa(lp58
S'nn'
p59
aS'5'
aS'2'
aa(lp60
S'nn'
p61
aS'5'
aS'3'
aa(lp62
S'nn'
p63
aS'5'
aS'4'
aa(lp64
S'nsubj'
p65
aS'6'
aS'5'
aa(lp66
S'root'
p67
aS'0'
aS'6'
aa(lp68
S'dobj'
p69
aS'6'
aS'7'
aa(lp70
S'det'
p71
aS'10'
p72
aS'9'
aa(lp73
S'poss'
p74
aS'13'
p75
aS'10'
p76
aa(lp77
S'amod'
p78
aS'13'
p79
aS'12'
p80
aa(lp81
S'prep_of'
p82
aS'7'
aS'13'
p83
aa(lp84
S'nsubj'
p85
aS'16'
p86
aS'13'
p87
aa(lp88
S'cop'
p89
aS'16'
p90
aS'15'
p91
aa(lp92
S'rcmod'
p93
aS'13'
p94
aS'16'
p95
aasS'srls'
p96
(lp97
(dp98
S'A1'
p99
S"percentage of a place 's male population that is literate"
p100
sS'A0'
p101
S'Populated Place percentage Literacy Men'
p102
sS'V'
g26
sasS'pos_seq'
p103
(lp104
S'JJ'
p105
aS'NN'
p106
aS'NN'
p107
aS'NNP'
p108
aS'NNP'
p109
aS'VBP'
p110
aS'NN'
p111
aS'IN'
p112
aS'DT'
p113
aS'NN'
p114
aS'POS'
p115
aS'JJ'
p116
aS'NN'
p117
aS'WDT'
p118
aS'VBZ'
p119
aS'JJ'
p120
asS'ner_seq'
p121
(lp122
S'O'
aS'O'
aS'O'
aS'O'
aS'O'
aS'O'
aS'O'
aS'O'
aS'O'
aS'O'
aS'O'
aS'O'
aS'O'
aS'O'
aS'O'
aS'O'
assb.