ccopy_reg
_reconstructor
p1
(c__main__
KBproperty
p2
c__builtin__
object
p3
NtRp4
(dp5
S'comment'
p6
S'The part of the project budget that is funded by the Organistaions given in the "FundedBy" property.'
p7
sS'domain'
p8
S'Research Project '
p9
sS'instances_count'
p10
S'5'
sS'label'
p11
S'project budget funding $'
p12
sS'range'
p13
S'double '
p14
sS'prop_uri'
p15
S"'http://dbpedia.org/ontology/projectBudgetFunding'"
p16
sS'annotations'
p17
(dp18
S'bag_of_words'
p19
(lp20
S'Research'
p21
aS'Project'
p22
aS'project'
p23
aS'budget'
p24
aS'funding'
p25
aS'$'
aS'double'
p26
aS'The'
p27
aS'part'
p28
aS'of'
p29
aS'the'
p30
aS'project'
p31
aS'budget'
p32
aS'that'
p33
aS'is'
p34
aS'funded'
p35
aS'by'
p36
aS'the'
p37
aS'Organistaions'
p38
aS'given'
p39
aS'in'
p40
aS'the'
p41
aS'"'
aS'FundedBy'
p42
aS'"'
aS'property'
p43
aS'.'
asS'chunk_seq'
p44
(lp45
S'B-NP'
p46
aS'I-NP'
p47
aS'I-NP'
p48
aS'I-NP'
p49
aS'E-NP'
p50
aS'B-NP'
p51
aS'I-NP'
p52
aS'I-NP'
p53
aS'E-NP'
p54
aS'S-PP'
p55
aS'B-NP'
p56
aS'I-NP'
p57
aS'E-NP'
p58
aS'S-NP'
p59
aS'B-VP'
p60
aS'E-VP'
p61
aS'S-PP'
p62
aS'B-NP'
p63
aS'E-NP'
p64
aS'S-PP'
p65
aS'S-PP'
p66
aS'B-NP'
p67
aS'I-NP'
p68
aS'I-NP'
p69
aS'I-NP'
p70
aS'E-NP'
p71
aS'O'
asS'dep_seq'
p72
(lp73
(lp74
S'nn'
p75
aS'4'
aS'1'
aa(lp76
S'nn'
p77
aS'4'
aS'2'
aa(lp78
S'nn'
p79
aS'4'
aS'3'
aa(lp80
S'nsubj'
p81
aS'5'
aS'4'
aa(lp82
S'root'
p83
aS'0'
aS'5'
aa(lp84
S'amod'
p85
aS'9'
aS'6'
aa(lp86
S'dep'
p87
aS'6'
aS'7'
aa(lp88
S'det'
p89
aS'9'
aS'8'
aa(lp90
S'dobj'
p91
aS'5'
aS'9'
aa(lp92
S'det'
p93
aS'13'
p94
aS'11'
p95
aa(lp96
S'nn'
p97
aS'13'
p98
aS'12'
p99
aa(lp100
S'prep_of'
p101
aS'9'
aS'13'
p102
aa(lp103
S'nsubjpass'
p104
aS'16'
p105
aS'13'
p106
aa(lp107
S'auxpass'
p108
aS'16'
p109
aS'15'
p110
aa(lp111
S'rcmod'
p112
aS'13'
p113
aS'16'
p114
aa(lp115
S'det'
p116
aS'19'
p117
aS'18'
p118
aa(lp119
S'agent'
p120
aS'16'
p121
aS'19'
p122
aa(lp123
S'prep'
p124
aS'16'
p125
aS'20'
p126
aa(lp127
S'pcomp'
p128
aS'20'
p129
aS'21'
p130
aa(lp131
S'det'
p132
aS'26'
p133
aS'22'
p134
aa(lp135
S'amod'
p136
aS'26'
p137
aS'23'
p138
aa(lp139
S'nn'
p140
aS'26'
p141
aS'24'
p142
aa(lp143
S'amod'
p144
aS'26'
p145
aS'25'
p146
aa(lp147
S'pobj'
p148
aS'21'
p149
aS'26'
p150
aasS'srls'
p151
(lp152
(dp153
S'A1'
p154
S'$ double The part of the project budget that is funded by the Organistaions given in the " FundedBy " property'
p155
sS'A0'
p156
S'Research Project project budget'
p157
sS'V'
g25
sa(dp158
S'A1'
p159
S'the project budget'
p160
sS'A0'
p161
S'by the Organistaions'
p162
sS'A2'
p163
S'in the " FundedBy " property'
p164
sS'R-A1'
p165
g33
sS'V'
g35
sa(dp166
S'A1'
p167
S'$ double The part of the project budget that is funded by the Organistaions'
p168
sS'AM-LOC'
p169
S'in the " FundedBy " property'
p170
sS'V'
g39
sasS'pos_seq'
p171
(lp172
S'NNP'
p173
aS'NNP'
p174
aS'NN'
p175
aS'NN'
p176
aS'VBG'
p177
aS'$'
aS'JJ'
p178
aS'DT'
p179
aS'NN'
p180
aS'IN'
p181
aS'DT'
p182
aS'NN'
p183
aS'NN'
p184
aS'WDT'
p185
aS'VBZ'
p186
aS'VBN'
p187
aS'IN'
p188
aS'DT'
p189
aS'NNPS'
p190
aS'VBN'
p191
aS'IN'
p192
aS'DT'
p193
aS'JJ'
p194
aS'NNP'
p195
aS'JJ'
p196
aS'NN'
p197
aS'.'
asS'ner_seq'
p198
(lp199
S'O'
aS'O'
aS'O'
aS'O'
aS'O'
aS'O'
aS'O'
aS'O'
aS'O'
aS'O'
aS'O'
aS'O'
aS'O'
aS'O'
aS'O'
aS'O'
aS'O'
aS'O'
aS'S-MISC'
p200
aS'O'
aS'O'
aS'O'
aS'O'
aS'S-MISC'
p201
aS'O'
aS'O'
aS'O'
assb.