ccopy_reg
_reconstructor
p1
(c__main__
KBproperty
p2
c__builtin__
object
p3
NtRp4
(dp5
S'comment'
p6
S''
sS'domain'
p7
S'Canal '
p8
sS'instances_count'
p9
S'211'
p10
sS'label'
p11
S'start point'
p12
sS'range'
p13
S'Place '
p14
sS'prop_uri'
p15
S"'http://dbpedia.org/ontology/startPoint'"
p16
sS'annotations'
p17
(dp18
S'bag_of_words'
p19
(lp20
S'Canal'
p21
aS'start'
p22
aS'point'
p23
aS'Place'
p24
asS'chunk_seq'
p25
(lp26
S'S-NP'
p27
aS'S-VP'
p28
aS'B-NP'
p29
aS'E-NP'
p30
asS'dep_seq'
p31
(lp32
(lp33
S'nsubj'
p34
aS'2'
aS'1'
aa(lp35
S'root'
p36
aS'0'
aS'2'
aa(lp37
S'nn'
p38
aS'4'
aS'3'
aa(lp39
S'dobj'
p40
aS'2'
aS'4'
aasS'srls'
p41
(lp42
(dp43
S'A1'
p44
g21
sS'AM-TMP'
p45
S'point Place'
p46
sS'V'
g22
sasS'pos_seq'
p47
(lp48
S'NNP'
p49
aS'VB'
p50
aS'NN'
p51
aS'NN'
p52
asS'ner_seq'
p53
(lp54
S'O'
aS'O'
aS'O'
aS'O'
assb.