ccopy_reg
_reconstructor
p1
(c__main__
KBproperty
p2
c__builtin__
object
p3
NtRp4
(dp5
S'comment'
p6
S'can be one or several years'
p7
sS'domain'
p8
S'Athlete '
p9
sS'instances_count'
p10
S'105'
p11
sS'label'
p12
S'year of world champion title'
p13
sS'range'
p14
S'string '
p15
sS'prop_uri'
p16
S"'http://dbpedia.org/ontology/worldChampionTitleYear'"
p17
sS'annotations'
p18
(dp19
S'bag_of_words'
p20
(lp21
S'Athlete'
p22
aS'year'
p23
aS'of'
p24
aS'world'
p25
aS'champion'
p26
aS'title'
p27
aS'string'
p28
aS'can'
p29
aS'be'
p30
aS'one'
p31
aS'or'
p32
aS'several'
p33
aS'years'
p34
asS'chunk_seq'
p35
(lp36
S'B-NP'
p37
aS'E-NP'
p38
aS'S-PP'
p39
aS'B-NP'
p40
aS'I-NP'
p41
aS'I-NP'
p42
aS'E-NP'
p43
aS'B-VP'
p44
aS'E-VP'
p45
aS'B-NP'
p46
aS'I-NP'
p47
aS'I-NP'
p48
aS'E-NP'
p49
asS'dep_seq'
p50
(lp51
(lp52
S'nn'
p53
aS'2'
aS'1'
aa(lp54
S'nsubj'
p55
aS'13'
p56
aS'2'
aa(lp57
S'nn'
p58
aS'7'
aS'4'
aa(lp59
S'amod'
p60
aS'7'
aS'5'
aa(lp61
S'nn'
p62
aS'7'
aS'6'
aa(lp63
S'prep_of'
p64
aS'2'
aS'7'
aa(lp65
S'aux'
p66
aS'13'
p67
aS'8'
aa(lp68
S'cop'
p69
aS'13'
p70
aS'9'
aa(lp71
S'nn'
p72
aS'13'
p73
aS'10'
p74
aa(lp75
S'conj_or'
p76
aS'10'
p77
aS'12'
p78
aa(lp79
S'root'
p80
aS'0'
aS'13'
p81
aasS'srls'
p82
(lp83
sS'pos_seq'
p84
(lp85
S'NN'
p86
aS'NN'
p87
aS'IN'
p88
aS'NN'
p89
aS'JJ'
p90
aS'NN'
p91
aS'NN'
p92
aS'MD'
p93
aS'VB'
p94
aS'CD'
p95
aS'CC'
p96
aS'JJ'
p97
aS'NNS'
p98
asS'ner_seq'
p99
(lp100
S'O'
aS'O'
aS'O'
aS'O'
aS'O'
aS'O'
aS'O'
aS'O'
aS'O'
aS'O'
aS'O'
aS'O'
aS'O'
assb.