ccopy_reg
_reconstructor
p1
(c__main__
KBproperty
p2
c__builtin__
object
p3
NtRp4
(dp5
S'comment'
p6
S'Authority data of people listed in the general catalogue of the National Library of France'
p7
sS'domain'
p8
S''
sS'instances_count'
p9
S'108'
p10
sS'label'
p11
S'BNF Id'
p12
sS'range'
p13
S'string '
p14
sS'prop_uri'
p15
S"'http://dbpedia.org/ontology/bnfId'"
p16
sS'annotations'
p17
(dp18
S'bag_of_words'
p19
(lp20
S'BNF'
p21
aS'Id'
p22
aS'string'
p23
aS'Authority'
p24
aS'data'
p25
aS'of'
p26
aS'people'
p27
aS'listed'
p28
aS'in'
p29
aS'the'
p30
aS'general'
p31
aS'catalogue'
p32
aS'of'
p33
aS'the'
p34
aS'National'
p35
aS'Library'
p36
aS'of'
p37
aS'France'
p38
asS'chunk_seq'
p39
(lp40
S'B-NP'
p41
aS'I-NP'
p42
aS'I-NP'
p43
aS'I-NP'
p44
aS'E-NP'
p45
aS'S-PP'
p46
aS'S-NP'
p47
aS'S-VP'
p48
aS'S-PP'
p49
aS'B-NP'
p50
aS'I-NP'
p51
aS'E-NP'
p52
aS'S-PP'
p53
aS'B-NP'
p54
aS'I-NP'
p55
aS'E-NP'
p56
aS'S-PP'
p57
aS'S-NP'
p58
asS'dep_seq'
p59
(lp60
(lp61
S'nn'
p62
aS'5'
aS'1'
aa(lp63
S'nn'
p64
aS'5'
aS'2'
aa(lp65
S'nn'
p66
aS'5'
aS'3'
aa(lp67
S'nn'
p68
aS'5'
aS'4'
aa(lp69
S'root'
p70
aS'0'
aS'5'
aa(lp71
S'prep_of'
p72
aS'5'
aS'7'
aa(lp73
S'partmod'
p74
aS'7'
aS'8'
aa(lp75
S'det'
p76
aS'12'
p77
aS'10'
p78
aa(lp79
S'amod'
p80
aS'12'
p81
aS'11'
p82
aa(lp83
S'prep_in'
p84
aS'8'
aS'12'
p85
aa(lp86
S'det'
p87
aS'16'
p88
aS'14'
p89
aa(lp90
S'nn'
p91
aS'16'
p92
aS'15'
p93
aa(lp94
S'prep_of'
p95
aS'12'
p96
aS'16'
p97
aa(lp98
S'prep_of'
p99
aS'16'
p100
aS'18'
p101
aasS'srls'
p102
(lp103
(dp104
S'A1'
p105
g27
sS'A2'
p106
S'in the general catalogue of the National Library of France'
p107
sS'V'
g28
sasS'pos_seq'
p108
(lp109
S'NNP'
p110
aS'NNP'
p111
aS'NN'
p112
aS'NN'
p113
aS'NNS'
p114
aS'IN'
p115
aS'NNS'
p116
aS'VBN'
p117
aS'IN'
p118
aS'DT'
p119
aS'JJ'
p120
aS'NN'
p121
aS'IN'
p122
aS'DT'
p123
aS'NNP'
p124
aS'NNP'
p125
aS'IN'
p126
aS'NNP'
p127
asS'ner_seq'
p128
(lp129
S'S-MISC'
p130
aS'O'
aS'O'
aS'O'
aS'O'
aS'O'
aS'O'
aS'O'
aS'O'
aS'O'
aS'O'
aS'O'
aS'O'
aS'O'
aS'B-ORG'
p131
aS'I-ORG'
p132
aS'I-ORG'
p133
aS'E-ORG'
p134
assb.