ccopy_reg
_reconstructor
p1
(c__main__
KBproperty
p2
c__builtin__
object
p3
NtRp4
(dp5
S'comment'
p6
S''
sS'domain'
p7
S''
sS'instances_count'
p8
S'0'
sS'label'
p9
S'number of sports events'
p10
sS'range'
p11
S'non Negative Integer '
p12
sS'prop_uri'
p13
S"'http://dbpedia.org/ontology/numberOfSportsEvents'"
p14
sS'annotations'
p15
(dp16
S'bag_of_words'
p17
(lp18
S'number'
p19
aS'of'
p20
aS'sports'
p21
aS'events'
p22
aS'non'
p23
aS'Negative'
p24
aS'Integer'
p25
asS'chunk_seq'
p26
(lp27
S'S-NP'
p28
aS'S-PP'
p29
aS'B-NP'
p30
aS'E-NP'
p31
aS'S-VP'
p32
aS'B-NP'
p33
aS'E-NP'
p34
asS'dep_seq'
p35
(lp36
(lp37
S'root'
p38
aS'0'
aS'1'
aa(lp39
S'nn'
p40
aS'4'
aS'3'
aa(lp41
S'prep_of'
p42
aS'1'
aS'4'
aa(lp43
S'dep'
p44
aS'1'
aS'5'
aa(lp45
S'amod'
p46
aS'7'
aS'6'
aa(lp47
S'dobj'
p48
aS'5'
aS'7'
aasS'srls'
p49
(lp50
sS'pos_seq'
p51
(lp52
S'NN'
p53
aS'IN'
p54
aS'NNS'
p55
aS'NNS'
p56
aS'VBP'
p57
aS'JJ'
p58
aS'NN'
p59
asS'ner_seq'
p60
(lp61
S'O'
aS'O'
aS'O'
aS'O'
aS'O'
aS'B-MISC'
p62
aS'E-MISC'
p63
assb.