ccopy_reg
_reconstructor
p1
(c__main__
KBproperty
p2
c__builtin__
object
p3
NtRp4
(dp5
S'comment'
p6
S''
sS'domain'
p7
S'Populated Place '
p8
sS'instances_count'
p9
S'0'
sS'label'
p10
S'demographics as of'
p11
sS'range'
p12
S'date '
p13
sS'prop_uri'
p14
S"'http://dbpedia.org/ontology/demographicsAsOf'"
p15
sS'annotations'
p16
(dp17
S'bag_of_words'
p18
(lp19
S'Populated'
p20
aS'Place'
p21
aS'demographics'
p22
aS'as'
p23
aS'of'
p24
aS'date'
p25
asS'chunk_seq'
p26
(lp27
S'B-NP'
p28
aS'I-NP'
p29
aS'E-NP'
p30
aS'S-PP'
p31
aS'S-PP'
p32
aS'S-NP'
p33
asS'dep_seq'
p34
(lp35
(lp36
S'amod'
p37
aS'3'
aS'1'
aa(lp38
S'nn'
p39
aS'3'
aS'2'
aa(lp40
S'root'
p41
aS'0'
aS'3'
aa(lp42
S'prepc_as_of'
p43
aS'3'
aS'5'
aa(lp44
S'pobj'
p45
aS'3'
aS'6'
aasS'srls'
p46
(lp47
sS'pos_seq'
p48
(lp49
S'JJ'
p50
aS'NN'
p51
aS'NNS'
p52
aS'IN'
p53
aS'IN'
p54
aS'NN'
p55
asS'ner_seq'
p56
(lp57
S'O'
aS'O'
aS'O'
aS'O'
aS'O'
aS'O'
assb.