ccopy_reg
_reconstructor
p1
(c__main__
KBproperty
p2
c__builtin__
object
p3
NtRp4
(dp5
S'comment'
p6
S'The fare zone in which station is located.'
p7
sS'domain'
p8
S'Station '
p9
sS'instances_count'
p10
S'4582'
p11
sS'label'
p12
S'fare zone'
p13
sS'range'
p14
S'string '
p15
sS'prop_uri'
p16
S"'http://dbpedia.org/ontology/fareZone'"
p17
sS'annotations'
p18
(dp19
S'bag_of_words'
p20
(lp21
S'Station'
p22
aS'fare'
p23
aS'zone'
p24
aS'string'
p25
aS'The'
p26
aS'fare'
p27
aS'zone'
p28
aS'in'
p29
aS'which'
p30
aS'station'
p31
aS'is'
p32
aS'located'
p33
aS'.'
asS'chunk_seq'
p34
(lp35
S'B-NP'
p36
aS'I-NP'
p37
aS'I-NP'
p38
aS'E-NP'
p39
aS'B-NP'
p40
aS'I-NP'
p41
aS'E-NP'
p42
aS'S-PP'
p43
aS'S-NP'
p44
aS'S-NP'
p45
aS'B-VP'
p46
aS'E-VP'
p47
aS'O'
asS'dep_seq'
p48
(lp49
(lp50
S'nn'
p51
aS'4'
aS'1'
aa(lp52
S'nn'
p53
aS'4'
aS'2'
aa(lp54
S'nn'
p55
aS'4'
aS'3'
aa(lp56
S'nsubjpass'
p57
aS'12'
p58
aS'4'
aa(lp59
S'det'
p60
aS'7'
aS'5'
aa(lp61
S'nn'
p62
aS'7'
aS'6'
aa(lp63
S'nsubjpass'
p64
aS'12'
p65
aS'7'
aa(lp66
S'dep'
p67
aS'10'
p68
aS'9'
aa(lp69
S'prep_in'
p70
aS'7'
aS'10'
p71
aa(lp72
S'auxpass'
p73
aS'12'
p74
aS'11'
p75
aa(lp76
S'root'
p77
aS'0'
aS'12'
p78
aasS'srls'
p79
(lp80
(dp81
S'A1'
p82
g31
sS'V'
g33
sasS'pos_seq'
p83
(lp84
S'NN'
p85
aS'NN'
p86
aS'NN'
p87
aS'NN'
p88
aS'DT'
p89
aS'NN'
p90
aS'NN'
p91
aS'IN'
p92
aS'WDT'
p93
aS'NN'
p94
aS'VBZ'
p95
aS'VBN'
p96
aS'.'
asS'ner_seq'
p97
(lp98
S'O'
aS'O'
aS'O'
aS'O'
aS'O'
aS'O'
aS'O'
aS'O'
aS'O'
aS'O'
aS'O'
aS'O'
aS'O'
assb.