ccopy_reg
_reconstructor
p1
(c__main__
KBproperty
p2
c__builtin__
object
p3
NtRp4
(dp5
S'comment'
p6
S''
sS'domain'
p7
S''
sS'instances_count'
p8
S'22'
p9
sS'label'
p10
S'B\\xc3\\xbcrgermeister'
p11
sS'range'
p12
S''
sS'prop_uri'
p13
S"'http://dbpedia.org/property/b\\xc3\\xbcrgermeister'"
p14
sS'annotations'
p15
(dp16
S'bag_of_words'
p17
(lp18
S'B'
aS'\\'
aS'xc3'
p19
aS'\\'
aS'xbcrgermeister'
p20
asS'chunk_seq'
p21
(lp22
S'O'
aS'O'
aS'O'
aS'O'
aS'O'
asS'dep_seq'
p23
(lp24
(lp25
S'nn'
p26
aS'5'
aS'1'
aa(lp27
S'nn'
p28
aS'5'
aS'2'
aa(lp29
S'nn'
p30
aS'5'
aS'3'
aa(lp31
S'nn'
p32
aS'5'
aS'4'
aa(lp33
S'root'
p34
aS'0'
aS'5'
aasS'srls'
p35
(lp36
sS'pos_seq'
p37
(lp38
S'FW'
p39
aS'FW'
p40
aS'FW'
p41
aS'FW'
p42
aS'FW'
p43
asS'ner_seq'
p44
(lp45
S'O'
aS'O'
aS'O'
aS'O'
aS'O'
assb.