ccopy_reg
_reconstructor
p1
(c__main__
KBproperty
p2
c__builtin__
object
p3
NtRp4
(dp5
S'comment'
p6
S'A quotation is the repetition of one expression as part of another one particularly when the quoted expression is well-known or explicitly attributed by citation to its original source.'
p7
sS'domain'
p8
S''
sS'instances_count'
p9
S'0'
sS'label'
p10
S'quotation'
p11
sS'range'
p12
S'string '
p13
sS'prop_uri'
p14
S"'http://dbpedia.org/ontology/quotation'"
p15
sS'annotations'
p16
(dp17
S'bag_of_words'
p18
(lp19
S'quotation'
p20
aS'string'
p21
aS'A'
aS'quotation'
p22
aS'is'
p23
aS'the'
p24
aS'repetition'
p25
aS'of'
p26
aS'one'
p27
aS'expression'
p28
aS'as'
p29
aS'part'
p30
aS'of'
p31
aS'another'
p32
aS'one'
p33
aS'particularly'
p34
aS'when'
p35
aS'the'
p36
aS'quoted'
p37
aS'expression'
p38
aS'is'
p39
aS'well-known'
p40
aS'or'
p41
aS'explicitly'
p42
aS'attributed'
p43
aS'by'
p44
aS'citation'
p45
aS'to'
p46
aS'its'
p47
aS'original'
p48
aS'source'
p49
aS'.'
asS'chunk_seq'
p50
(lp51
S'B-NP'
p52
aS'E-NP'
p53
aS'B-NP'
p54
aS'E-NP'
p55
aS'S-VP'
p56
aS'B-NP'
p57
aS'E-NP'
p58
aS'S-PP'
p59
aS'B-NP'
p60
aS'E-NP'
p61
aS'S-PP'
p62
aS'S-NP'
p63
aS'S-PP'
p64
aS'B-NP'
p65
aS'E-NP'
p66
aS'S-ADVP'
p67
aS'S-ADVP'
p68
aS'B-NP'
p69
aS'I-NP'
p70
aS'E-NP'
p71
aS'S-VP'
p72
aS'S-ADJP'
p73
aS'O'
aS'B-VP'
p74
aS'E-VP'
p75
aS'S-PP'
p76
aS'S-NP'
p77
aS'S-PP'
p78
aS'B-NP'
p79
aS'I-NP'
p80
aS'E-NP'
p81
aS'O'
asS'dep_seq'
p82
(lp83
(lp84
S'nn'
p85
aS'2'
aS'1'
aa(lp86
S'nsubj'
p87
aS'7'
aS'2'
aa(lp88
S'det'
p89
aS'4'
aS'3'
aa(lp90
S'nsubj'
p91
aS'7'
aS'4'
aa(lp92
S'cop'
p93
aS'7'
aS'5'
aa(lp94
S'det'
p95
aS'7'
aS'6'
aa(lp96
S'root'
p97
aS'0'
aS'7'
aa(lp98
S'num'
p99
aS'10'
p100
aS'9'
aa(lp101
S'prep_of'
p102
aS'7'
aS'10'
p103
aa(lp104
S'prep_as'
p105
aS'7'
aS'12'
p106
aa(lp107
S'det'
p108
aS'15'
p109
aS'14'
p110
aa(lp111
S'prep_of'
p112
aS'12'
p113
aS'15'
p114
aa(lp115
S'advmod'
p116
aS'15'
p117
aS'16'
p118
aa(lp119
S'advmod'
p120
aS'known'
p121
aS'17'
p122
aa(lp123
S'det'
p124
aS'20'
p125
aS'18'
p126
aa(lp127
S'amod'
p128
aS'20'
p129
aS'19'
p130
aa(lp131
S'nsubj'
p132
aS'known'
p133
aS'20'
p134
aa(lp135
S'cop'
p136
aS'known'
p137
aS'21'
p138
aa(lp139
S'rcmod'
p140
aS'15'
p141
aS'known'
p142
aa(lp143
S'advmod'
p144
aS'25'
p145
aS'24'
p146
aa(lp147
S'conj_or'
p148
aS'7'
aS'25'
p149
aa(lp150
S'prep_by'
p151
aS'25'
p152
aS'27'
p153
aa(lp154
S'poss'
p155
aS'31'
p156
aS'29'
p157
aa(lp158
S'amod'
p159
aS'31'
p160
aS'30'
p161
aa(lp162
S'prep_to'
p163
aS'27'
p164
aS'31'
p165
aasS'srls'
p166
(lp167
(dp168
S'A1'
p169
g38
sS'V'
g37
sa(dp170
S'A1'
p171
S'the quoted expression'
p172
sS'A0'
p173
S'by citation'
p174
sS'A2'
p175
S'to its original source'
p176
sS'AM-MNR'
p177
g42
sS'V'
g43
sasS'pos_seq'
p178
(lp179
S'NN'
p180
aS'NN'
p181
aS'DT'
p182
aS'NN'
p183
aS'VBZ'
p184
aS'DT'
p185
aS'NN'
p186
aS'IN'
p187
aS'CD'
p188
aS'NN'
p189
aS'IN'
p190
aS'NN'
p191
aS'IN'
p192
aS'DT'
p193
aS'NN'
p194
aS'RB'
p195
aS'WRB'
p196
aS'DT'
p197
aS'VBN'
p198
aS'NN'
p199
aS'VBZ'
p200
aS'JJ'
p201
aS'CC'
p202
aS'RB'
p203
aS'VBN'
p204
aS'IN'
p205
aS'NN'
p206
aS'TO'
p207
aS'PRP$'
p208
aS'JJ'
p209
aS'NN'
p210
aS'.'
asS'ner_seq'
p211
(lp212
S'O'
aS'O'
aS'O'
aS'O'
aS'O'
aS'O'
aS'O'
aS'O'
aS'O'
aS'O'
aS'O'
aS'O'
aS'O'
aS'O'
aS'O'
aS'O'
aS'O'
aS'O'
aS'O'
aS'O'
aS'O'
aS'O'
aS'O'
aS'O'
aS'O'
aS'O'
aS'O'
aS'O'
aS'O'
aS'O'
aS'O'
aS'O'
assb.