ccopy_reg
_reconstructor
p1
(c__main__
KBproperty
p2
c__builtin__
object
p3
NtRp4
(dp5
S'comment'
p6
S'Used as if meaning: owned by has as its owner'
p7
sS'domain'
p8
S''
sS'instances_count'
p9
S'56641'
p10
sS'label'
p11
S'owner'
p12
sS'range'
p13
S'Agent '
p14
sS'prop_uri'
p15
S"'http://dbpedia.org/ontology/owner'"
p16
sS'annotations'
p17
(dp18
S'bag_of_words'
p19
(lp20
S'owner'
p21
aS'Agent'
p22
aS'Used'
p23
aS'as'
p24
aS'if'
p25
aS'meaning'
p26
aS':'
aS'owned'
p27
aS'by'
p28
aS'has'
p29
aS'as'
p30
aS'its'
p31
aS'owner'
p32
asS'chunk_seq'
p33
(lp34
S'B-NP'
p35
aS'E-NP'
p36
aS'S-VP'
p37
aS'S-PP'
p38
aS'S-SBAR'
p39
aS'S-NP'
p40
aS'O'
aS'S-VP'
p41
aS'S-PP'
p42
aS'S-VP'
p43
aS'S-PP'
p44
aS'B-NP'
p45
aS'E-NP'
p46
asS'dep_seq'
p47
(lp48
(lp49
S'nn'
p50
aS'2'
aS'1'
aa(lp51
S'nsubj'
p52
aS'3'
aS'2'
aa(lp53
S'root'
p54
aS'0'
aS'3'
aa(lp55
S'mark'
p56
aS'10'
p57
aS'4'
aa(lp58
S'mark'
p59
aS'10'
p60
aS'5'
aa(lp61
S'dep'
p62
aS'8'
aS'6'
aa(lp63
S'csubj'
p64
aS'10'
p65
aS'8'
aa(lp66
S'prep'
p67
aS'8'
aS'9'
aa(lp68
S'advcl'
p69
aS'3'
aS'10'
p70
aa(lp71
S'poss'
p72
aS'13'
p73
aS'12'
p74
aa(lp75
S'prep_as'
p76
aS'10'
p77
aS'13'
p78
aasS'srls'
p79
(lp80
(dp81
S'V'
g23
sa(dp82
S'A1'
p83
g26
sS'A0'
p84
S'by has as its owner'
p85
sS'V'
g27
sasS'pos_seq'
p86
(lp87
S'NN'
p88
aS'NN'
p89
aS'VBN'
p90
aS'IN'
p91
aS'IN'
p92
aS'NN'
p93
aS':'
aS'VBN'
p94
aS'IN'
p95
aS'VBZ'
p96
aS'IN'
p97
aS'PRP$'
p98
aS'NN'
p99
asS'ner_seq'
p100
(lp101
S'O'
aS'O'
aS'O'
aS'O'
aS'O'
aS'O'
aS'O'
aS'O'
aS'O'
aS'O'
aS'O'
aS'O'
aS'O'
assb.