ccopy_reg
_reconstructor
p1
(c__main__
KBproperty
p2
c__builtin__
object
p3
NtRp4
(dp5
S'comment'
p6
S'track width \\xce\\xbc'
p7
sS'domain'
p8
S'Route Of Transportation '
p9
sS'instances_count'
p10
S'0'
sS'label'
p11
g7
sS'range'
p12
S'double '
p13
sS'prop_uri'
p14
S"'http://dbpedia.org/ontology/trackWidth'"
p15
sS'annotations'
p16
(dp17
S'bag_of_words'
p18
(lp19
S'Route'
p20
aS'Of'
p21
aS'Transportation'
p22
aS'track'
p23
aS'Width'
p24
aS'double'
p25
aS'track'
p26
aS'width'
p27
aS'\\'
aS'xce'
p28
aS'\\'
aS'xbc'
p29
asS'chunk_seq'
p30
(lp31
S'S-NP'
p32
aS'S-PP'
p33
aS'B-NP'
p34
aS'I-NP'
p35
aS'I-NP'
p36
aS'I-NP'
p37
aS'E-NP'
p38
aS'O'
aS'O'
aS'O'
aS'O'
aS'O'
asS'dep_seq'
p39
(lp40
(lp41
S'root'
p42
aS'0'
aS'1'
aa(lp43
S'nn'
p44
aS'4'
aS'3'
aa(lp45
S'prep_of'
p46
aS'1'
aS'4'
aa(lp47
S'discourse'
p48
aS'4'
aS'5'
aa(lp49
S'dep'
p50
aS'5'
aS'6'
aa(lp51
S'dep'
p52
aS'5'
aS'7'
aa(lp53
S'dep'
p54
aS'5'
aS'8'
aa(lp55
S'dep'
p56
aS'5'
aS'9'
aa(lp57
S'dep'
p58
aS'5'
aS'10'
p59
aa(lp60
S'dep'
p61
aS'5'
aS'11'
p62
aa(lp63
S'dep'
p64
aS'5'
aS'12'
p65
aasS'srls'
p66
(lp67
sS'pos_seq'
p68
(lp69
S'NNP'
p70
aS'IN'
p71
aS'NNP'
p72
aS'NN'
p73
aS'NNP'
p74
aS'JJ'
p75
aS'NN'
p76
aS'FW'
p77
aS'FW'
p78
aS'FW'
p79
aS'FW'
p80
aS'FW'
p81
asS'ner_seq'
p82
(lp83
S'B-ORG'
p84
aS'I-ORG'
p85
aS'E-ORG'
p86
aS'O'
aS'O'
aS'O'
aS'O'
aS'O'
aS'O'
aS'O'
aS'O'
aS'O'
assb.