ccopy_reg
_reconstructor
p1
(c__main__
KBproperty
p2
c__builtin__
object
p3
NtRp4
(dp5
S'comment'
p6
S'redline kmh'
p7
sS'domain'
p8
S'Automobile Engine '
p9
sS'instances_count'
p10
S'0'
sS'label'
p11
g7
sS'range'
p12
S'double '
p13
sS'prop_uri'
p14
S"'http://dbpedia.org/ontology/redline'"
p15
sS'annotations'
p16
(dp17
S'bag_of_words'
p18
(lp19
S'Automobile'
p20
aS'Engine'
p21
aS'redline'
p22
aS'double'
p23
aS'redline'
p24
aS'kmh'
p25
asS'chunk_seq'
p26
(lp27
S'B-NP'
p28
aS'I-NP'
p29
aS'I-NP'
p30
aS'I-NP'
p31
aS'I-NP'
p32
aS'E-NP'
p33
asS'dep_seq'
p34
(lp35
(lp36
S'nn'
p37
aS'3'
aS'1'
aa(lp38
S'nn'
p39
aS'3'
aS'2'
aa(lp40
S'root'
p41
aS'0'
aS'3'
aa(lp42
S'amod'
p43
aS'5'
aS'4'
aa(lp44
S'dep'
p45
aS'3'
aS'5'
aa(lp46
S'punct'
p47
aS'5'
aS'6'
aasS'srls'
p48
(lp49
(dp50
S'A1'
p51
g24
sS'A0'
p52
S'Automobile Engine redline'
p53
sS'V'
g23
sasS'pos_seq'
p54
(lp55
S'NNP'
p56
aS'NNP'
p57
aS'NN'
p58
aS'JJ'
p59
aS'NN'
p60
aS'.'
asS'ner_seq'
p61
(lp62
S'B-ORG'
p63
aS'E-ORG'
p64
aS'O'
aS'O'
aS'O'
aS'O'
assb.