ccopy_reg
_reconstructor
p1
(c__main__
KBproperty
p2
c__builtin__
object
p3
NtRp4
(dp5
S'comment'
p6
S''
sS'domain'
p7
S'Person '
p8
sS'instances_count'
p9
S'0'
sS'label'
p10
S'olympic games wins'
p11
sS'range'
p12
S'string '
p13
sS'prop_uri'
p14
S"'http://dbpedia.org/ontology/olympicGamesWins'"
p15
sS'annotations'
p16
(dp17
S'bag_of_words'
p18
(lp19
S'Person'
p20
aS'olympic'
p21
aS'games'
p22
aS'wins'
p23
aS'string'
p24
asS'chunk_seq'
p25
(lp26
S'B-NP'
p27
aS'I-NP'
p28
aS'E-NP'
p29
aS'S-VP'
p30
aS'S-NP'
p31
asS'dep_seq'
p32
(lp33
(lp34
S'nn'
p35
aS'5'
aS'1'
aa(lp36
S'amod'
p37
aS'5'
aS'2'
aa(lp38
S'nn'
p39
aS'5'
aS'3'
aa(lp40
S'dep'
p41
aS'5'
aS'4'
aa(lp42
S'root'
p43
aS'0'
aS'5'
aasS'srls'
p44
(lp45
(dp46
S'A1'
p47
g24
sS'A0'
p48
S'Person olympic games'
p49
sS'V'
g23
sasS'pos_seq'
p50
(lp51
S'NN'
p52
aS'JJ'
p53
aS'NNS'
p54
aS'VBZ'
p55
aS'NN'
p56
asS'ner_seq'
p57
(lp58
S'O'
aS'O'
aS'O'
aS'O'
aS'O'
assb.