ccopy_reg
_reconstructor
p1
(c__main__
KBproperty
p2
c__builtin__
object
p3
NtRp4
(dp5
S'comment'
p6
S'adjacent settlement of a switzerland settlement'
p7
sS'domain'
p8
S'Settlement '
p9
sS'instances_count'
p10
S'0'
sS'label'
p11
g7
sS'range'
p12
S'Settlement '
p13
sS'prop_uri'
p14
S"'http://dbpedia.org/ontology/adjacentSettlement'"
p15
sS'annotations'
p16
(dp17
S'bag_of_words'
p18
(lp19
S'Settlement'
p20
aS'adjacent'
p21
aS'Settlement'
p22
aS'Settlement'
p23
aS'adjacent'
p24
aS'settlement'
p25
aS'of'
p26
aS'a'
aS'switzerland'
p27
aS'settlement'
p28
asS'chunk_seq'
p29
(lp30
S'B-NP'
p31
aS'I-NP'
p32
aS'I-NP'
p33
aS'I-NP'
p34
aS'I-NP'
p35
aS'E-NP'
p36
aS'S-PP'
p37
aS'B-NP'
p38
aS'I-NP'
p39
aS'E-NP'
p40
asS'dep_seq'
p41
(lp42
(lp43
S'nn'
p44
aS'6'
aS'1'
aa(lp45
S'amod'
p46
aS'6'
aS'2'
aa(lp47
S'nn'
p48
aS'6'
aS'3'
aa(lp49
S'nn'
p50
aS'6'
aS'4'
aa(lp51
S'amod'
p52
aS'6'
aS'5'
aa(lp53
S'root'
p54
aS'0'
aS'6'
aa(lp55
S'det'
p56
aS'10'
p57
aS'8'
aa(lp58
S'nn'
p59
aS'10'
p60
aS'9'
aa(lp61
S'prep_of'
p62
aS'6'
aS'10'
p63
aasS'srls'
p64
(lp65
sS'pos_seq'
p66
(lp67
S'NN'
p68
aS'JJ'
p69
aS'NN'
p70
aS'NN'
p71
aS'JJ'
p72
aS'NN'
p73
aS'IN'
p74
aS'DT'
p75
aS'NN'
p76
aS'NN'
p77
asS'ner_seq'
p78
(lp79
S'O'
aS'O'
aS'O'
aS'O'
aS'O'
aS'O'
aS'O'
aS'O'
aS'O'
aS'O'
assb.