ccopy_reg
_reconstructor
p1
(c__main__
KBproperty
p2
c__builtin__
object
p3
NtRp4
(dp5
S'comment'
p6
S'The name designating a formal collection of steps to be taken to complete the case'
p7
sS'domain'
p8
S'Case '
p9
sS'instances_count'
p10
S'0'
sS'label'
p11
S'procedure'
p12
sS'range'
p13
S'string '
p14
sS'prop_uri'
p15
S"'http://dbpedia.org/ontology/procedure'"
p16
sS'annotations'
p17
(dp18
S'bag_of_words'
p19
(lp20
S'Case'
p21
aS'procedure'
p22
aS'string'
p23
aS'The'
p24
aS'name'
p25
aS'designating'
p26
aS'a'
aS'formal'
p27
aS'collection'
p28
aS'of'
p29
aS'steps'
p30
aS'to'
p31
aS'be'
p32
aS'taken'
p33
aS'to'
p34
aS'complete'
p35
aS'the'
p36
aS'case'
p37
asS'chunk_seq'
p38
(lp39
S'B-NP'
p40
aS'I-NP'
p41
aS'E-NP'
p42
aS'B-NP'
p43
aS'E-NP'
p44
aS'S-VP'
p45
aS'B-NP'
p46
aS'I-NP'
p47
aS'E-NP'
p48
aS'S-PP'
p49
aS'S-NP'
p50
aS'B-VP'
p51
aS'I-VP'
p52
aS'E-VP'
p53
aS'B-VP'
p54
aS'E-VP'
p55
aS'B-NP'
p56
aS'E-NP'
p57
asS'dep_seq'
p58
(lp59
(lp60
S'root'
p61
aS'0'
aS'1'
aa(lp62
S'nn'
p63
aS'3'
aS'2'
aa(lp64
S'dep'
p65
aS'5'
aS'3'
aa(lp66
S'det'
p67
aS'5'
aS'4'
aa(lp68
S'dep'
p69
aS'1'
aS'5'
aa(lp70
S'partmod'
p71
aS'5'
aS'6'
aa(lp72
S'det'
p73
aS'9'
aS'7'
aa(lp74
S'amod'
p75
aS'9'
aS'8'
aa(lp76
S'dobj'
p77
aS'6'
aS'9'
aa(lp78
S'prep_of'
p79
aS'9'
aS'11'
p80
aa(lp81
S'aux'
p82
aS'14'
p83
aS'12'
p84
aa(lp85
S'auxpass'
p86
aS'14'
p87
aS'13'
p88
aa(lp89
S'infmod'
p90
aS'11'
p91
aS'14'
p92
aa(lp93
S'aux'
p94
aS'16'
p95
aS'15'
p96
aa(lp97
S'xcomp'
p98
aS'14'
p99
aS'16'
p100
aa(lp101
S'det'
p102
aS'18'
p103
aS'17'
p104
aa(lp105
S'dobj'
p106
aS'16'
p107
aS'18'
p108
aasS'srls'
p109
(lp110
(dp111
S'A1'
p112
S'a formal collection of steps'
p113
sS'A0'
p114
S'Case procedure string The name'
p115
sS'AM-PNC'
p116
S'to be taken to complete the case'
p117
sS'V'
g26
sa(dp118
S'A1'
p119
S'a formal collection of steps'
p120
sS'AM-PNC'
p121
S'to complete the case'
p122
sS'V'
g33
sa(dp123
S'A1'
p124
S'the case'
p125
sS'A0'
p126
S'Case procedure string The name designating a formal collection of steps'
p127
sS'V'
g35
sasS'pos_seq'
p128
(lp129
S'NN'
p130
aS'NN'
p131
aS'NN'
p132
aS'DT'
p133
aS'NN'
p134
aS'VBG'
p135
aS'DT'
p136
aS'JJ'
p137
aS'NN'
p138
aS'IN'
p139
aS'NNS'
p140
aS'TO'
p141
aS'VB'
p142
aS'VBN'
p143
aS'TO'
p144
aS'VB'
p145
aS'DT'
p146
aS'NN'
p147
asS'ner_seq'
p148
(lp149
S'O'
aS'O'
aS'O'
aS'O'
aS'O'
aS'O'
aS'O'
aS'O'
aS'O'
aS'O'
aS'O'
aS'O'
aS'O'
aS'O'
aS'O'
aS'O'
aS'O'
aS'O'
assb.