ccopy_reg
_reconstructor
p1
(c__main__
KBproperty
p2
c__builtin__
object
p3
NtRp4
(dp5
S'comment'
p6
S'Library of Congress Control Number'
p7
sS'domain'
p8
S''
sS'instances_count'
p9
S'485'
p10
sS'label'
p11
S'LCCN Id'
p12
sS'range'
p13
S'string '
p14
sS'prop_uri'
p15
S"'http://dbpedia.org/ontology/lccnId'"
p16
sS'annotations'
p17
(dp18
S'bag_of_words'
p19
(lp20
S'LCCN'
p21
aS'Id'
p22
aS'string'
p23
aS'Library'
p24
aS'of'
p25
aS'Congress'
p26
aS'Control'
p27
aS'Number'
p28
asS'chunk_seq'
p29
(lp30
S'B-NP'
p31
aS'I-NP'
p32
aS'I-NP'
p33
aS'E-NP'
p34
aS'S-PP'
p35
aS'B-NP'
p36
aS'I-NP'
p37
aS'E-NP'
p38
asS'dep_seq'
p39
(lp40
(lp41
S'nn'
p42
aS'4'
aS'1'
aa(lp43
S'nn'
p44
aS'4'
aS'2'
aa(lp45
S'nn'
p46
aS'4'
aS'3'
aa(lp47
S'root'
p48
aS'0'
aS'4'
aa(lp49
S'prep_of'
p50
aS'4'
aS'6'
aa(lp51
S'nn'
p52
aS'8'
aS'7'
aa(lp53
S'dep'
p54
aS'4'
aS'8'
aasS'srls'
p55
(lp56
sS'pos_seq'
p57
(lp58
S'NNP'
p59
aS'NNP'
p60
aS'NN'
p61
aS'NN'
p62
aS'IN'
p63
aS'NNP'
p64
aS'NNP'
p65
aS'NNP'
p66
asS'ner_seq'
p67
(lp68
S'B-ORG'
p69
aS'I-ORG'
p70
aS'I-ORG'
p71
aS'I-ORG'
p72
aS'I-ORG'
p73
aS'E-ORG'
p74
aS'O'
aS'O'
assb.