ccopy_reg
_reconstructor
p1
(c__main__
KBproperty
p2
c__builtin__
object
p3
NtRp4
(dp5
S'comment'
p6
S''
sS'domain'
p7
S'Golf Player '
p8
sS'instances_count'
p9
S'9'
sS'label'
p10
S'wins at LET'
p11
sS'range'
p12
S''
sS'prop_uri'
p13
S"'http://dbpedia.org/ontology/winsAtLET'"
p14
sS'annotations'
p15
(dp16
S'bag_of_words'
p17
(lp18
S'Golf'
p19
aS'Player'
p20
aS'wins'
p21
aS'at'
p22
aS'LET'
p23
asS'chunk_seq'
p24
(lp25
S'B-NP'
p26
aS'E-NP'
p27
aS'S-VP'
p28
aS'S-PP'
p29
aS'S-NP'
p30
asS'dep_seq'
p31
(lp32
(lp33
S'nn'
p34
aS'2'
aS'1'
aa(lp35
S'nsubj'
p36
aS'3'
aS'2'
aa(lp37
S'root'
p38
aS'0'
aS'3'
aa(lp39
S'prep_at'
p40
aS'3'
aS'5'
aasS'srls'
p41
(lp42
(dp43
S'A0'
p44
S'Golf Player'
p45
sS'AM-LOC'
p46
S'at LET'
p47
sS'V'
g21
sasS'pos_seq'
p48
(lp49
S'NNP'
p50
aS'NNP'
p51
aS'VBZ'
p52
aS'IN'
p53
aS'NNP'
p54
asS'ner_seq'
p55
(lp56
S'B-ORG'
p57
aS'E-ORG'
p58
aS'O'
aS'O'
aS'O'
assb.