ccopy_reg
_reconstructor
p1
(c__main__
KBproperty
p2
c__builtin__
object
p3
NtRp4
(dp5
S'comment'
p6
S'details of the activity for a road.'
p7
sS'domain'
p8
S'Route Stop '
p9
sS'instances_count'
p10
S'0'
sS'label'
p11
S'route activity'
p12
sS'range'
p13
S''
sS'prop_uri'
p14
S"'http://dbpedia.org/ontology/routeActivity'"
p15
sS'annotations'
p16
(dp17
S'bag_of_words'
p18
(lp19
S'Route'
p20
aS'Stop'
p21
aS'route'
p22
aS'activity'
p23
aS'details'
p24
aS'of'
p25
aS'the'
p26
aS'activity'
p27
aS'for'
p28
aS'a'
aS'road'
p29
aS'.'
asS'chunk_seq'
p30
(lp31
S'B-NP'
p32
aS'I-NP'
p33
aS'I-NP'
p34
aS'I-NP'
p35
aS'E-NP'
p36
aS'S-PP'
p37
aS'B-NP'
p38
aS'E-NP'
p39
aS'S-PP'
p40
aS'B-NP'
p41
aS'E-NP'
p42
aS'O'
asS'dep_seq'
p43
(lp44
(lp45
S'nn'
p46
aS'5'
aS'1'
aa(lp47
S'nn'
p48
aS'5'
aS'2'
aa(lp49
S'nn'
p50
aS'5'
aS'3'
aa(lp51
S'nn'
p52
aS'5'
aS'4'
aa(lp53
S'root'
p54
aS'0'
aS'5'
aa(lp55
S'det'
p56
aS'8'
aS'7'
aa(lp57
S'prep_of'
p58
aS'5'
aS'8'
aa(lp59
S'det'
p60
aS'11'
p61
aS'10'
p62
aa(lp63
S'prep_for'
p64
aS'8'
aS'11'
p65
aasS'srls'
p66
(lp67
sS'pos_seq'
p68
(lp69
S'NNP'
p70
aS'NNP'
p71
aS'NN'
p72
aS'NN'
p73
aS'NNS'
p74
aS'IN'
p75
aS'DT'
p76
aS'NN'
p77
aS'IN'
p78
aS'DT'
p79
aS'NN'
p80
aS'.'
asS'ner_seq'
p81
(lp82
S'O'
aS'O'
aS'O'
aS'O'
aS'O'
aS'O'
aS'O'
aS'O'
aS'O'
aS'O'
aS'O'
aS'O'
assb.