ccopy_reg
_reconstructor
p1
(c__main__
KBproperty
p2
c__builtin__
object
p3
NtRp4
(dp5
S'comment'
p6
S'In the periodic table of the elements elements are arranged in a series of rows or periods so that those with similar properties appear in a column.'
p7
sS'domain'
p8
S'Chemical Element '
p9
sS'instances_count'
p10
S'0'
sS'label'
p11
S'element period'
p12
sS'range'
p13
S'non Negative Integer '
p14
sS'prop_uri'
p15
S"'http://dbpedia.org/ontology/elementPeriod'"
p16
sS'annotations'
p17
(dp18
S'bag_of_words'
p19
(lp20
S'Chemical'
p21
aS'Element'
p22
aS'element'
p23
aS'period'
p24
aS'non'
p25
aS'Negative'
p26
aS'Integer'
p27
aS'In'
p28
aS'the'
p29
aS'periodic'
p30
aS'table'
p31
aS'of'
p32
aS'the'
p33
aS'elements'
p34
aS'elements'
p35
aS'are'
p36
aS'arranged'
p37
aS'in'
p38
aS'a'
aS'series'
p39
aS'of'
p40
aS'rows'
p41
aS'or'
p42
aS'periods'
p43
aS'so'
p44
aS'that'
p45
aS'those'
p46
aS'with'
p47
aS'similar'
p48
aS'properties'
p49
aS'appear'
p50
aS'in'
p51
aS'a'
aS'column'
p52
aS'.'
asS'chunk_seq'
p53
(lp54
S'B-NP'
p55
aS'I-NP'
p56
aS'I-NP'
p57
aS'E-NP'
p58
aS'B-NP'
p59
aS'I-NP'
p60
aS'E-NP'
p61
aS'S-PP'
p62
aS'B-NP'
p63
aS'I-NP'
p64
aS'E-NP'
p65
aS'S-PP'
p66
aS'B-NP'
p67
aS'I-NP'
p68
aS'E-NP'
p69
aS'B-VP'
p70
aS'E-VP'
p71
aS'S-PP'
p72
aS'B-NP'
p73
aS'E-NP'
p74
aS'S-PP'
p75
aS'B-NP'
p76
aS'I-NP'
p77
aS'E-NP'
p78
aS'B-SBAR'
p79
aS'E-SBAR'
p80
aS'S-NP'
p81
aS'S-PP'
p82
aS'B-NP'
p83
aS'E-NP'
p84
aS'S-VP'
p85
aS'S-PP'
p86
aS'B-NP'
p87
aS'E-NP'
p88
aS'O'
asS'dep_seq'
p89
(lp90
(lp91
S'nn'
p92
aS'4'
aS'1'
aa(lp93
S'nn'
p94
aS'4'
aS'2'
aa(lp95
S'nn'
p96
aS'4'
aS'3'
aa(lp97
S'nn'
p98
aS'7'
aS'4'
aa(lp99
S'amod'
p100
aS'6'
aS'5'
aa(lp101
S'amod'
p102
aS'7'
aS'6'
aa(lp103
S'nsubjpass'
p104
aS'17'
p105
aS'7'
aa(lp106
S'det'
p107
aS'11'
p108
aS'9'
aa(lp109
S'amod'
p110
aS'11'
p111
aS'10'
p112
aa(lp113
S'prep_in'
p114
aS'7'
aS'11'
p115
aa(lp116
S'det'
p117
aS'15'
p118
aS'13'
p119
aa(lp120
S'nn'
p121
aS'15'
p122
aS'14'
p123
aa(lp124
S'prep_of'
p125
aS'11'
p126
aS'15'
p127
aa(lp128
S'auxpass'
p129
aS'17'
p130
aS'16'
p131
aa(lp132
S'root'
p133
aS'0'
aS'17'
p134
aa(lp135
S'det'
p136
aS'20'
p137
aS'19'
p138
aa(lp139
S'prep_in'
p140
aS'17'
p141
aS'20'
p142
aa(lp143
S'prep_of'
p144
aS'20'
p145
aS'22'
p146
aa(lp147
S'conj_or'
p148
aS'22'
p149
aS'24'
p150
aa(lp151
S'advmod'
p152
aS'31'
p153
aS'25'
p154
aa(lp155
S'mark'
p156
aS'31'
p157
aS'26'
p158
aa(lp159
S'nsubj'
p160
aS'31'
p161
aS'27'
p162
aa(lp163
S'amod'
p164
aS'30'
p165
aS'29'
p166
aa(lp167
S'prep_with'
p168
aS'27'
p169
aS'30'
p170
aa(lp171
S'advcl'
p172
aS'17'
p173
aS'31'
p174
aa(lp175
S'ccomp'
p176
aS'17'
p177
aS'31'
p178
aa(lp179
S'det'
p180
aS'34'
p181
aS'33'
p182
aa(lp183
S'prep_in'
p184
aS'31'
p185
aS'34'
p186
aasS'srls'
p187
(lp188
(dp189
S'A1'
p190
S'the periodic table of the elements elements'
p191
sS'AM-LOC'
p192
S'in a series of rows or periods'
p193
sS'V'
g37
sa(dp194
S'A1'
p195
S'those with similar properties'
p196
sS'AM-LOC'
p197
S'in a column'
p198
sS'V'
g50
sasS'pos_seq'
p199
(lp200
S'NNP'
p201
aS'NN'
p202
aS'NN'
p203
aS'NN'
p204
aS'JJ'
p205
aS'JJ'
p206
aS'NN'
p207
aS'IN'
p208
aS'DT'
p209
aS'JJ'
p210
aS'NN'
p211
aS'IN'
p212
aS'DT'
p213
aS'NNS'
p214
aS'NNS'
p215
aS'VBP'
p216
aS'VBN'
p217
aS'IN'
p218
aS'DT'
p219
aS'NN'
p220
aS'IN'
p221
aS'NNS'
p222
aS'CC'
p223
aS'NNS'
p224
aS'RB'
p225
aS'IN'
p226
aS'DT'
p227
aS'IN'
p228
aS'JJ'
p229
aS'NNS'
p230
aS'VBP'
p231
aS'IN'
p232
aS'DT'
p233
aS'NN'
p234
aS'.'
asS'ner_seq'
p235
(lp236
S'O'
aS'O'
aS'O'
aS'O'
aS'O'
aS'O'
aS'O'
aS'O'
aS'O'
aS'O'
aS'O'
aS'O'
aS'O'
aS'O'
aS'O'
aS'O'
aS'O'
aS'O'
aS'O'
aS'O'
aS'O'
aS'O'
aS'O'
aS'O'
aS'O'
aS'O'
aS'O'
aS'O'
aS'O'
aS'O'
aS'O'
aS'O'
aS'O'
aS'O'
aS'O'
assb.