ccopy_reg
_reconstructor
p1
(c__main__
KBproperty
p2
c__builtin__
object
p3
NtRp4
(dp5
S'comment'
p6
S''
sS'domain'
p7
S'Soccer League Season '
p8
sS'instances_count'
p9
S'0'
sS'label'
p10
S'promoted'
p11
sS'range'
p12
S'Sports Team '
p13
sS'prop_uri'
p14
S"'http://dbpedia.org/ontology/soccerLeaguePromoted'"
p15
sS'annotations'
p16
(dp17
S'bag_of_words'
p18
(lp19
S'Soccer'
p20
aS'League'
p21
aS'Season'
p22
aS'promoted'
p23
aS'Sports'
p24
aS'Team'
p25
asS'chunk_seq'
p26
(lp27
S'B-NP'
p28
aS'I-NP'
p29
aS'E-NP'
p30
aS'S-VP'
p31
aS'B-NP'
p32
aS'E-NP'
p33
asS'dep_seq'
p34
(lp35
(lp36
S'nn'
p37
aS'3'
aS'1'
aa(lp38
S'nn'
p39
aS'3'
aS'2'
aa(lp40
S'nsubj'
p41
aS'4'
aS'3'
aa(lp42
S'root'
p43
aS'0'
aS'4'
aa(lp44
S'nn'
p45
aS'6'
aS'5'
aa(lp46
S'dobj'
p47
aS'4'
aS'6'
aasS'srls'
p48
(lp49
(dp50
S'A1'
p51
S'Sports Team'
p52
sS'A0'
p53
S'Soccer League Season'
p54
sS'V'
g23
sasS'pos_seq'
p55
(lp56
S'NNP'
p57
aS'NNP'
p58
aS'NNP'
p59
aS'VBD'
p60
aS'NNP'
p61
aS'NNP'
p62
asS'ner_seq'
p63
(lp64
S'O'
aS'O'
aS'O'
aS'O'
aS'B-ORG'
p65
aS'E-ORG'
p66
assb.