ccopy_reg
_reconstructor
p1
(c__main__
KBproperty
p2
c__builtin__
object
p3
NtRp4
(dp5
S'comment'
p6
S''
sS'domain'
p7
S''
sS'instances_count'
p8
S'0'
sS'label'
p9
S'playing time s'
p10
sS'range'
p11
S'double '
p12
sS'prop_uri'
p13
S"'http://dbpedia.org/ontology/playingTime'"
p14
sS'annotations'
p15
(dp16
S'bag_of_words'
p17
(lp18
S'playing'
p19
aS'time'
p20
aS's'
aS'double'
p21
asS'chunk_seq'
p22
(lp23
S'S-VP'
p24
aS'S-NP'
p25
aS'B-NP'
p26
aS'E-NP'
p27
asS'dep_seq'
p28
(lp29
(lp30
S'root'
p31
aS'0'
aS'1'
aa(lp32
S'dobj'
p33
aS'1'
aS'2'
aa(lp34
S'iobj'
p35
aS'1'
aS'2'
aa(lp36
S'advmod'
p37
aS'4'
aS'3'
aa(lp38
S'dobj'
p39
aS'1'
aS'4'
aa(lp40
S'dep'
p41
aS'2'
aS'4'
aasS'srls'
p42
(lp43
(dp44
S'A1'
p45
g20
sS'A0'
p46
S's double'
p47
sS'V'
g19
sasS'pos_seq'
p48
(lp49
S'VBG'
p50
aS'NN'
p51
aS'RB'
p52
aS'RB'
p53
asS'ner_seq'
p54
(lp55
S'O'
aS'O'
aS'O'
aS'O'
assb.