ccopy_reg
_reconstructor
p1
(c__main__
KBproperty
p2
c__builtin__
object
p3
NtRp4
(dp5
S'comment'
p6
S''
sS'domain'
p7
S'Person Function '
p8
sS'instances_count'
p9
S'0'
sS'label'
p10
S'function start date'
p11
sS'range'
p12
S'date '
p13
sS'prop_uri'
p14
S"'http://dbpedia.org/ontology/functionStartDate'"
p15
sS'annotations'
p16
(dp17
S'bag_of_words'
p18
(lp19
S'Person'
p20
aS'Function'
p21
aS'function'
p22
aS'start'
p23
aS'date'
p24
aS'date'
p25
asS'chunk_seq'
p26
(lp27
S'B-NP'
p28
aS'I-NP'
p29
aS'E-NP'
p30
aS'S-VP'
p31
aS'B-NP'
p32
aS'E-NP'
p33
asS'dep_seq'
p34
(lp35
(lp36
S'nn'
p37
aS'3'
aS'1'
aa(lp38
S'nn'
p39
aS'3'
aS'2'
aa(lp40
S'root'
p41
aS'0'
aS'3'
aa(lp42
S'dep'
p43
aS'3'
aS'4'
aa(lp44
S'dobj'
p45
aS'4'
aS'5'
aa(lp46
S'iobj'
p47
aS'4'
aS'5'
aa(lp48
S'dobj'
p49
aS'4'
aS'6'
aa(lp50
S'dep'
p51
aS'5'
aS'6'
aasS'srls'
p52
(lp53
(dp54
S'A1'
p55
S'Person Function function'
p56
sS'AM-TMP'
p57
S'date date'
p58
sS'V'
g23
sasS'pos_seq'
p59
(lp60
S'NN'
p61
aS'NN'
p62
aS'NN'
p63
aS'VB'
p64
aS'NN'
p65
aS'NN'
p66
asS'ner_seq'
p67
(lp68
S'O'
aS'O'
aS'O'
aS'O'
aS'O'
aS'O'
assb.