ccopy_reg
_reconstructor
p1
(c__main__
KBproperty
p2
c__builtin__
object
p3
NtRp4
(dp5
S'comment'
p6
S'Text used to link from a Wikipage to another Wikipage'
p7
sS'domain'
p8
S''
sS'instances_count'
p9
S'0'
sS'label'
p10
g7
sS'range'
p11
S''
sS'prop_uri'
p12
S"'http://dbpedia.org/ontology/wikiPageWikiLinkText'"
p13
sS'annotations'
p14
(dp15
S'bag_of_words'
p16
(lp17
S'wiki'
p18
aS'Page'
p19
aS'Wiki'
p20
aS'Link'
p21
aS'Text'
p22
aS'Text'
p23
aS'used'
p24
aS'to'
p25
aS'link'
p26
aS'from'
p27
aS'a'
aS'Wikipage'
p28
aS'to'
p29
aS'another'
p30
aS'Wikipage'
p31
asS'chunk_seq'
p32
(lp33
S'B-NP'
p34
aS'I-NP'
p35
aS'I-NP'
p36
aS'I-NP'
p37
aS'I-NP'
p38
aS'E-NP'
p39
aS'S-VP'
p40
aS'S-PP'
p41
aS'S-NP'
p42
aS'S-PP'
p43
aS'B-NP'
p44
aS'E-NP'
p45
aS'S-PP'
p46
aS'B-NP'
p47
aS'E-NP'
p48
asS'dep_seq'
p49
(lp50
(lp51
S'nn'
p52
aS'6'
aS'1'
aa(lp53
S'nn'
p54
aS'6'
aS'2'
aa(lp55
S'nn'
p56
aS'6'
aS'3'
aa(lp57
S'nn'
p58
aS'6'
aS'4'
aa(lp59
S'nn'
p60
aS'6'
aS'5'
aa(lp61
S'nsubj'
p62
aS'7'
aS'6'
aa(lp63
S'xsubj'
p64
aS'9'
aS'6'
aa(lp65
S'root'
p66
aS'0'
aS'7'
aa(lp67
S'aux'
p68
aS'9'
aS'8'
aa(lp69
S'xcomp'
p70
aS'7'
aS'9'
aa(lp71
S'det'
p72
aS'12'
p73
aS'11'
p74
aa(lp75
S'prep_from'
p76
aS'9'
aS'12'
p77
aa(lp78
S'det'
p79
aS'15'
p80
aS'14'
p81
aa(lp82
S'prep_to'
p83
aS'9'
aS'15'
p84
aasS'srls'
p85
(lp86
(dp87
S'A1'
p88
S'wiki Page Wiki Link Text Text'
p89
sS'AM-PNC'
p90
S'to link from a Wikipage to another Wikipage'
p91
sS'V'
g24
sa(dp92
S'A1'
p93
S'from a Wikipage'
p94
sS'A0'
p95
S'wiki Page Wiki Link Text Text'
p96
sS'A2'
p97
S'to another Wikipage'
p98
sS'V'
g26
sasS'pos_seq'
p99
(lp100
S'NN'
p101
aS'NNP'
p102
aS'NNP'
p103
aS'NNP'
p104
aS'NNP'
p105
aS'NNP'
p106
aS'VBN'
p107
aS'TO'
p108
aS'VB'
p109
aS'IN'
p110
aS'DT'
p111
aS'NNP'
p112
aS'TO'
p113
aS'DT'
p114
aS'NNP'
p115
asS'ner_seq'
p116
(lp117
S'O'
aS'B-ORG'
p118
aS'I-ORG'
p119
aS'I-ORG'
p120
aS'I-ORG'
p121
aS'E-ORG'
p122
aS'O'
aS'O'
aS'O'
aS'O'
aS'O'
aS'S-MISC'
p123
aS'O'
aS'O'
aS'S-ORG'
p124
assb.