ccopy_reg
_reconstructor
p1
(c__main__
KBproperty
p2
c__builtin__
object
p3
NtRp4
(dp5
S'comment'
p6
S"Political party in the legislature eg.: European People's Party in the European Parliament."
p7
sS'domain'
p8
S'Legislature '
p9
sS'instances_count'
p10
S'3547'
p11
sS'label'
p12
S'political party in legislature'
p13
sS'range'
p14
S'Political Party '
p15
sS'prop_uri'
p16
S"'http://dbpedia.org/ontology/politicalPartyInLegislature'"
p17
sS'annotations'
p18
(dp19
S'bag_of_words'
p20
(lp21
S'Legislature'
p22
aS'political'
p23
aS'party'
p24
aS'in'
p25
aS'legislature'
p26
aS'Political'
p27
aS'Party'
p28
aS'Political'
p29
aS'party'
p30
aS'in'
p31
aS'the'
p32
aS'legislature'
p33
aS'eg.'
p34
aS':'
aS'European'
p35
aS'People'
p36
aS"'s"
p37
aS'Party'
p38
aS'in'
p39
aS'the'
p40
aS'European'
p41
aS'Parliament'
p42
aS'.'
asS'chunk_seq'
p43
(lp44
S'B-NP'
p45
aS'I-NP'
p46
aS'E-NP'
p47
aS'S-PP'
p48
aS'B-NP'
p49
aS'I-NP'
p50
aS'I-NP'
p51
aS'I-NP'
p52
aS'E-NP'
p53
aS'S-PP'
p54
aS'B-NP'
p55
aS'E-NP'
p56
aS'S-ADVP'
p57
aS'O'
aS'B-NP'
p58
aS'E-NP'
p59
aS'B-NP'
p60
aS'E-NP'
p61
aS'S-PP'
p62
aS'B-NP'
p63
aS'I-NP'
p64
aS'E-NP'
p65
aS'O'
asS'dep_seq'
p66
(lp67
(lp68
S'nn'
p69
aS'3'
aS'1'
aa(lp70
S'amod'
p71
aS'3'
aS'2'
aa(lp72
S'root'
p73
aS'0'
aS'3'
aa(lp74
S'nn'
p75
aS'9'
aS'5'
aa(lp76
S'amod'
p77
aS'9'
aS'6'
aa(lp78
S'nn'
p79
aS'9'
aS'7'
aa(lp80
S'amod'
p81
aS'9'
aS'8'
aa(lp82
S'prep_in'
p83
aS'3'
aS'9'
aa(lp84
S'det'
p85
aS'12'
p86
aS'11'
p87
aa(lp88
S'prep_in'
p89
aS'3'
aS'12'
p90
aa(lp91
S'dep'
p92
aS'3'
aS'13'
p93
aa(lp94
S'amod'
p95
aS'16'
p96
aS'15'
p97
aa(lp98
S'poss'
p99
aS'18'
p100
aS'16'
p101
aa(lp102
S'dep'
p103
aS'3'
aS'18'
p104
aa(lp105
S'det'
p106
aS'22'
p107
aS'20'
p108
aa(lp109
S'nn'
p110
aS'22'
p111
aS'21'
p112
aa(lp113
S'prep_in'
p114
aS'18'
p115
aS'22'
p116
aasS'srls'
p117
(lp118
sS'pos_seq'
p119
(lp120
S'NNP'
p121
aS'JJ'
p122
aS'NN'
p123
aS'IN'
p124
aS'NN'
p125
aS'JJ'
p126
aS'NNP'
p127
aS'JJ'
p128
aS'NN'
p129
aS'IN'
p130
aS'DT'
p131
aS'NN'
p132
aS'RB'
p133
aS':'
aS'JJ'
p134
aS'NNS'
p135
aS'POS'
p136
aS'NNP'
p137
aS'IN'
p138
aS'DT'
p139
aS'NNP'
p140
aS'NNP'
p141
aS'.'
asS'ner_seq'
p142
(lp143
S'O'
aS'O'
aS'O'
aS'O'
aS'O'
aS'B-ORG'
p144
aS'I-ORG'
p145
aS'I-ORG'
p146
aS'E-ORG'
p147
aS'O'
aS'O'
aS'O'
aS'O'
aS'O'
aS'B-ORG'
p148
aS'I-ORG'
p149
aS'I-ORG'
p150
aS'E-ORG'
p151
aS'O'
aS'O'
aS'S-MISC'
p152
aS'O'
aS'O'
assb.