ccopy_reg
_reconstructor
p1
(c__main__
KBproperty
p2
c__builtin__
object
p3
NtRp4
(dp5
S'comment'
p6
S'order taxonomy'
p7
sS'domain'
p8
S'Species '
p9
sS'instances_count'
p10
S'345829'
p11
sS'label'
p12
g7
sS'range'
p13
S''
sS'prop_uri'
p14
S"'http://dbpedia.org/ontology/order'"
p15
sS'annotations'
p16
(dp17
S'bag_of_words'
p18
(lp19
S'Species'
p20
aS'order'
p21
aS'order'
p22
aS'taxonomy'
p23
asS'chunk_seq'
p24
(lp25
S'S-NP'
p26
aS'O'
aS'O'
aS'S-NP'
p27
asS'dep_seq'
p28
(lp29
(lp30
S'nsubj'
p31
aS'2'
aS'1'
aa(lp32
S'root'
p33
aS'0'
aS'2'
aa(lp34
S'nn'
p35
aS'4'
aS'3'
aa(lp36
S'dobj'
p37
aS'2'
aS'4'
aasS'srls'
p38
(lp39
sS'pos_seq'
p40
(lp41
S'NNS'
p42
aS'VBP'
p43
aS'NN'
p44
aS'NN'
p45
asS'ner_seq'
p46
(lp47
S'O'
aS'O'
aS'O'
aS'O'
assb.