ccopy_reg
_reconstructor
p1
(c__main__
KBproperty
p2
c__builtin__
object
p3
NtRp4
(dp5
S'comment'
p6
S'the ratio of the average mass of atoms of an element from a single given sample or source to 1\\xe2\\x81\\x8412 of the mass of an atom of carbon-12'
p7
sS'domain'
p8
S'Chemical Element '
p9
sS'instances_count'
p10
S'0'
sS'label'
p11
S'atomic number'
p12
sS'range'
p13
S'non Negative Integer '
p14
sS'prop_uri'
p15
S"'http://dbpedia.org/ontology/atomicNumber'"
p16
sS'annotations'
p17
(dp18
S'bag_of_words'
p19
(lp20
S'Chemical'
p21
aS'Element'
p22
aS'atomic'
p23
aS'number'
p24
aS'non'
p25
aS'Negative'
p26
aS'Integer'
p27
aS'the'
p28
aS'ratio'
p29
aS'of'
p30
aS'the'
p31
aS'average'
p32
aS'mass'
p33
aS'of'
p34
aS'atoms'
p35
aS'of'
p36
aS'an'
p37
aS'element'
p38
aS'from'
p39
aS'a'
aS'single'
p40
aS'given'
p41
aS'sample'
p42
aS'or'
p43
aS'source'
p44
aS'to'
p45
aS'1'
aS'\\'
aS'xe2'
p46
aS'\\'
aS'x81'
p47
aS'\\'
aS'x8412'
p48
aS'of'
p49
aS'the'
p50
aS'mass'
p51
aS'of'
p52
aS'an'
p53
aS'atom'
p54
aS'of'
p55
aS'carbon-12'
p56
asS'chunk_seq'
p57
(lp58
S'B-NP'
p59
aS'I-NP'
p60
aS'I-NP'
p61
aS'I-NP'
p62
aS'I-NP'
p63
aS'I-NP'
p64
aS'E-NP'
p65
aS'B-NP'
p66
aS'E-NP'
p67
aS'S-PP'
p68
aS'B-NP'
p69
aS'I-NP'
p70
aS'E-NP'
p71
aS'S-PP'
p72
aS'S-NP'
p73
aS'S-PP'
p74
aS'B-NP'
p75
aS'E-NP'
p76
aS'S-PP'
p77
aS'B-NP'
p78
aS'I-NP'
p79
aS'I-NP'
p80
aS'I-NP'
p81
aS'I-NP'
p82
aS'E-NP'
p83
aS'S-PP'
p84
aS'S-NP'
p85
aS'O'
aS'O'
aS'O'
aS'O'
aS'O'
aS'O'
aS'S-PP'
p86
aS'B-NP'
p87
aS'E-NP'
p88
aS'S-PP'
p89
aS'B-NP'
p90
aS'E-NP'
p91
aS'S-PP'
p92
aS'S-NP'
p93
asS'dep_seq'
p94
(lp95
(lp96
S'nn'
p97
aS'4'
aS'1'
aa(lp98
S'nn'
p99
aS'4'
aS'2'
aa(lp100
S'amod'
p101
aS'4'
aS'3'
aa(lp102
S'root'
p103
aS'0'
aS'4'
aa(lp104
S'amod'
p105
aS'7'
aS'5'
aa(lp106
S'nn'
p107
aS'7'
aS'6'
aa(lp108
S'dep'
p109
aS'4'
aS'7'
aa(lp110
S'det'
p111
aS'9'
aS'8'
aa(lp112
S'dep'
p113
aS'7'
aS'9'
aa(lp114
S'det'
p115
aS'13'
p116
aS'11'
p117
aa(lp118
S'amod'
p119
aS'13'
p120
aS'12'
p121
aa(lp122
S'prep_of'
p123
aS'9'
aS'13'
p124
aa(lp125
S'prep_of'
p126
aS'13'
p127
aS'15'
p128
aa(lp129
S'det'
p130
aS'18'
p131
aS'17'
p132
aa(lp133
S'prep_of'
p134
aS'15'
p135
aS'18'
p136
aa(lp137
S'det'
p138
aS'23'
p139
aS'20'
p140
aa(lp141
S'amod'
p142
aS'23'
p143
aS'21'
p144
aa(lp145
S'amod'
p146
aS'23'
p147
aS'22'
p148
aa(lp149
S'prep_from'
p150
aS'18'
p151
aS'23'
p152
aa(lp153
S'conj_or'
p154
aS'23'
p155
aS'25'
p156
aa(lp157
S'num'
p158
aS'33'
p159
aS'27'
p160
aa(lp161
S'nn'
p162
aS'33'
p163
aS'28'
p164
aa(lp165
S'nn'
p166
aS'33'
p167
aS'29'
p168
aa(lp169
S'nn'
p170
aS'33'
p171
aS'30'
p172
aa(lp173
S'nn'
p174
aS'33'
p175
aS'31'
p176
aa(lp177
S'nn'
p178
aS'33'
p179
aS'32'
p180
aa(lp181
S'prep_to'
p182
aS'18'
p183
aS'33'
p184
aa(lp185
S'det'
p186
aS'36'
p187
aS'35'
p188
aa(lp189
S'prep_of'
p190
aS'33'
p191
aS'36'
p192
aa(lp193
S'det'
p194
aS'39'
p195
aS'38'
p196
aa(lp197
S'prep_of'
p198
aS'36'
p199
aS'39'
p200
aa(lp201
S'prep_of'
p202
aS'39'
p203
aS'12'
p204
aasS'srls'
p205
(lp206
(dp207
S'A1'
p208
S'sample or source  1 \\ xe2 \\ x81 \\ x8412 of the mass of an atom of carbon-12'
p209
sS'AM-EXT'
p210
g40
sS'V'
g41
sasS'pos_seq'
p211
(lp212
S'NNP'
p213
aS'NN'
p214
aS'JJ'
p215
aS'NN'
p216
aS'JJ'
p217
aS'NNP'
p218
aS'NNP'
p219
aS'DT'
p220
aS'NN'
p221
aS'IN'
p222
aS'DT'
p223
aS'JJ'
p224
aS'NN'
p225
aS'IN'
p226
aS'NNS'
p227
aS'IN'
p228
aS'DT'
p229
aS'NN'
p230
aS'IN'
p231
aS'DT'
p232
aS'JJ'
p233
aS'VBN'
p234
aS'NN'
p235
aS'CC'
p236
aS'NN'
p237
aS'TO'
p238
aS'CD'
p239
aS'FW'
p240
aS'FW'
p241
aS'FW'
p242
aS'FW'
p243
aS'FW'
p244
aS'NN'
p245
aS'IN'
p246
aS'DT'
p247
aS'NN'
p248
aS'IN'
p249
aS'DT'
p250
aS'NN'
p251
aS'IN'
p252
aS'NN'
p253
asS'ner_seq'
p254
(lp255
S'O'
aS'O'
aS'O'
aS'O'
aS'O'
aS'O'
aS'O'
aS'O'
aS'O'
aS'O'
aS'O'
aS'O'
aS'O'
aS'O'
aS'O'
aS'O'
aS'O'
aS'O'
aS'O'
aS'O'
aS'O'
aS'O'
aS'O'
aS'O'
aS'O'
aS'O'
aS'O'
aS'O'
aS'O'
aS'O'
aS'O'
aS'O'
aS'O'
aS'O'
aS'O'
aS'O'
aS'O'
aS'O'
aS'O'
aS'O'
aS'O'
assb.