ccopy_reg
_reconstructor
p1
(c__main__
KBproperty
p2
c__builtin__
object
p3
NtRp4
(dp5
S'comment'
p6
S'route next stop'
p7
sS'domain'
p8
S'Route Stop '
p9
sS'instances_count'
p10
S'0'
sS'label'
p11
g7
sS'range'
p12
S'Route Stop '
p13
sS'prop_uri'
p14
S"'http://dbpedia.org/ontology/routeNext'"
p15
sS'annotations'
p16
(dp17
S'bag_of_words'
p18
(lp19
S'Route'
p20
aS'Stop'
p21
aS'route'
p22
aS'Next'
p23
aS'Route'
p24
aS'Stop'
p25
aS'route'
p26
aS'next'
p27
aS'stop'
p28
asS'chunk_seq'
p29
(lp30
S'B-NP'
p31
aS'I-NP'
p32
aS'E-NP'
p33
aS'B-NP'
p34
aS'I-NP'
p35
aS'I-NP'
p36
aS'E-NP'
p37
aS'B-NP'
p38
aS'E-NP'
p39
asS'dep_seq'
p40
(lp41
(lp42
S'nn'
p43
aS'3'
aS'1'
aa(lp44
S'nn'
p45
aS'3'
aS'2'
aa(lp46
S'dep'
p47
aS'9'
aS'3'
aa(lp48
S'nn'
p49
aS'7'
aS'4'
aa(lp50
S'nn'
p51
aS'7'
aS'5'
aa(lp52
S'nn'
p53
aS'7'
aS'6'
aa(lp54
S'dep'
p55
aS'9'
aS'7'
aa(lp56
S'amod'
p57
aS'9'
aS'8'
aa(lp58
S'root'
p59
aS'0'
aS'9'
aasS'srls'
p60
(lp61
sS'pos_seq'
p62
(lp63
S'NNP'
p64
aS'NNP'
p65
aS'NN'
p66
aS'NNP'
p67
aS'NNP'
p68
aS'NNP'
p69
aS'NN'
p70
aS'JJ'
p71
aS'NN'
p72
asS'ner_seq'
p73
(lp74
S'O'
aS'O'
aS'O'
aS'O'
aS'O'
aS'O'
aS'O'
aS'O'
aS'O'
assb.