ccopy_reg
_reconstructor
p1
(c__main__
KBproperty
p2
c__builtin__
object
p3
NtRp4
(dp5
S'comment'
p6
S'line of a stop on a route.'
p7
sS'domain'
p8
S'Route Stop '
p9
sS'instances_count'
p10
S'0'
sS'label'
p11
S'line'
p12
sS'range'
p13
S''
sS'prop_uri'
p14
S"'http://dbpedia.org/ontology/routeLine'"
p15
sS'annotations'
p16
(dp17
S'bag_of_words'
p18
(lp19
S'Route'
p20
aS'Stop'
p21
aS'line'
p22
aS'line'
p23
aS'of'
p24
aS'a'
aS'stop'
p25
aS'on'
p26
aS'a'
aS'route'
p27
aS'.'
asS'chunk_seq'
p28
(lp29
S'B-NP'
p30
aS'I-NP'
p31
aS'I-NP'
p32
aS'E-NP'
p33
aS'S-PP'
p34
aS'B-NP'
p35
aS'E-NP'
p36
aS'S-PP'
p37
aS'B-NP'
p38
aS'E-NP'
p39
aS'O'
asS'dep_seq'
p40
(lp41
(lp42
S'nn'
p43
aS'4'
aS'1'
aa(lp44
S'nn'
p45
aS'4'
aS'2'
aa(lp46
S'nn'
p47
aS'4'
aS'3'
aa(lp48
S'root'
p49
aS'0'
aS'4'
aa(lp50
S'det'
p51
aS'7'
aS'6'
aa(lp52
S'prep_of'
p53
aS'4'
aS'7'
aa(lp54
S'det'
p55
aS'10'
p56
aS'9'
aa(lp57
S'prep_on'
p58
aS'4'
aS'10'
p59
aasS'srls'
p60
(lp61
sS'pos_seq'
p62
(lp63
S'NNP'
p64
aS'NNP'
p65
aS'NN'
p66
aS'NN'
p67
aS'IN'
p68
aS'DT'
p69
aS'NN'
p70
aS'IN'
p71
aS'DT'
p72
aS'NN'
p73
aS'.'
asS'ner_seq'
p74
(lp75
S'O'
aS'O'
aS'O'
aS'O'
aS'O'
aS'O'
aS'O'
aS'O'
aS'O'
aS'O'
aS'O'
assb.