ccopy_reg
_reconstructor
p1
(c__main__
KBproperty
p2
c__builtin__
object
p3
NtRp4
(dp5
S'comment'
p6
S''
sS'domain'
p7
S'Power Station '
p8
sS'instances_count'
p9
S'2281'
p10
sS'label'
p11
S'installed capacity W'
p12
sS'range'
p13
S'double '
p14
sS'prop_uri'
p15
S"'http://dbpedia.org/ontology/installedCapacity'"
p16
sS'annotations'
p17
(dp18
S'bag_of_words'
p19
(lp20
S'Power'
p21
aS'Station'
p22
aS'installed'
p23
aS'capacity'
p24
aS'W'
aS'double'
p25
asS'chunk_seq'
p26
(lp27
S'B-NP'
p28
aS'E-NP'
p29
aS'S-VP'
p30
aS'S-NP'
p31
aS'B-NP'
p32
aS'E-NP'
p33
asS'dep_seq'
p34
(lp35
(lp36
S'nn'
p37
aS'2'
aS'1'
aa(lp38
S'nsubj'
p39
aS'3'
aS'2'
aa(lp40
S'root'
p41
aS'0'
aS'3'
aa(lp42
S'nn'
p43
aS'5'
aS'4'
aa(lp44
S'dobj'
p45
aS'3'
aS'5'
aa(lp46
S'advmod'
p47
aS'3'
aS'6'
aasS'srls'
p48
(lp49
(dp50
S'A1'
p51
S'capacity W double'
p52
sS'A0'
p53
S'Power Station'
p54
sS'V'
g23
sasS'pos_seq'
p55
(lp56
S'NNP'
p57
aS'NNP'
p58
aS'VBD'
p59
aS'NN'
p60
aS'NNP'
p61
aS'RB'
p62
asS'ner_seq'
p63
(lp64
S'B-ORG'
p65
aS'E-ORG'
p66
aS'O'
aS'O'
aS'O'
aS'O'
assb.