ccopy_reg
_reconstructor
p1
(c__main__
KBproperty
p2
c__builtin__
object
p3
NtRp4
(dp5
S'comment'
p6
S'Number of people who can be served by a Train or other service; or participate in a SoccerClub CricketTeam etc'
p7
sS'domain'
p8
S''
sS'instances_count'
p9
S'14776'
p10
sS'label'
p11
S'capacity'
p12
sS'range'
p13
S'non Negative Integer '
p14
sS'prop_uri'
p15
S"'http://dbpedia.org/ontology/capacity'"
p16
sS'annotations'
p17
(dp18
S'bag_of_words'
p19
(lp20
S'capacity'
p21
aS'non'
p22
aS'Negative'
p23
aS'Integer'
p24
aS'Number'
p25
aS'of'
p26
aS'people'
p27
aS'who'
p28
aS'can'
p29
aS'be'
p30
aS'served'
p31
aS'by'
p32
aS'a'
aS'Train'
p33
aS'or'
p34
aS'other'
p35
aS'service'
p36
aS';'
aS'or'
p37
aS'participate'
p38
aS'in'
p39
aS'a'
aS'SoccerClub'
p40
aS'CricketTeam'
p41
aS'etc'
p42
asS'chunk_seq'
p43
(lp44
S'S-NP'
p45
aS'B-NP'
p46
aS'I-NP'
p47
aS'I-NP'
p48
aS'E-NP'
p49
aS'S-PP'
p50
aS'S-NP'
p51
aS'S-NP'
p52
aS'B-VP'
p53
aS'I-VP'
p54
aS'E-VP'
p55
aS'S-PP'
p56
aS'B-NP'
p57
aS'E-NP'
p58
aS'O'
aS'B-NP'
p59
aS'E-NP'
p60
aS'O'
aS'O'
aS'S-VP'
p61
aS'S-PP'
p62
aS'B-NP'
p63
aS'I-NP'
p64
aS'E-NP'
p65
aS'O'
asS'dep_seq'
p66
(lp67
(lp68
S'nn'
p69
aS'5'
aS'1'
aa(lp70
S'advmod'
p71
aS'3'
aS'2'
aa(lp72
S'amod'
p73
aS'5'
aS'3'
aa(lp74
S'nn'
p75
aS'5'
aS'4'
aa(lp76
S'root'
p77
aS'0'
aS'5'
aa(lp78
S'prep_of'
p79
aS'5'
aS'7'
aa(lp80
S'nsubjpass'
p81
aS'11'
p82
aS'7'
aa(lp83
S'aux'
p84
aS'11'
p85
aS'9'
aa(lp86
S'auxpass'
p87
aS'11'
p88
aS'10'
p89
aa(lp90
S'rcmod'
p91
aS'7'
aS'11'
p92
aa(lp93
S'det'
p94
aS'17'
p95
aS'13'
p96
aa(lp97
S'nn'
p98
aS'17'
p99
aS'14'
p100
aa(lp101
S'conj_or'
p102
aS'14'
p103
aS'16'
p104
aa(lp105
S'agent'
p106
aS'11'
p107
aS'17'
p108
aa(lp109
S'conj_or'
p110
aS'11'
p111
aS'20'
p112
aa(lp113
S'det'
p114
aS'24'
p115
aS'22'
p116
aa(lp117
S'nn'
p118
aS'24'
p119
aS'23'
p120
aa(lp121
S'prep_in'
p122
aS'20'
p123
aS'24'
p124
aa(lp125
S'punct'
p126
aS'7'
aS'25'
p127
aasS'srls'
p128
(lp129
(dp130
S'A1'
p131
S'people  by a Train or other service'
p132
sS'V'
g31
sS'R-A1'
p133
g28
sS'AM-MOD'
p134
g29
sa(dp135
S'A1'
p136
S'in a SoccerClub CricketTeam'
p137
sS'A0'
p138
g27
sS'V'
g38
sS'R-A0'
p139
g28
sS'AM-MOD'
p140
g29
sasS'pos_seq'
p141
(lp142
S'NN'
p143
aS'RB'
p144
aS'JJ'
p145
aS'NNP'
p146
aS'NNP'
p147
aS'IN'
p148
aS'NNS'
p149
aS'WP'
p150
aS'MD'
p151
aS'VB'
p152
aS'VBN'
p153
aS'IN'
p154
aS'DT'
p155
aS'NN'
p156
aS'CC'
p157
aS'JJ'
p158
aS'NN'
p159
aS':'
aS'CC'
p160
aS'VB'
p161
aS'IN'
p162
aS'DT'
p163
aS'NNP'
p164
aS'NNP'
p165
aS'.'
asS'ner_seq'
p166
(lp167
S'O'
aS'O'
aS'O'
aS'O'
aS'O'
aS'O'
aS'O'
aS'O'
aS'O'
aS'O'
aS'O'
aS'O'
aS'O'
aS'O'
aS'O'
aS'O'
aS'O'
aS'O'
aS'O'
aS'O'
aS'O'
aS'O'
aS'B-LOC'
p168
aS'E-LOC'
p169
aS'O'
assb.