ccopy_reg
_reconstructor
p1
(c__main__
KBproperty
p2
c__builtin__
object
p3
NtRp4
(dp5
S'comment'
p6
S'a place were members of an ethnic group are living'
p7
sS'domain'
p8
S'Ethnic Group '
p9
sS'instances_count'
p10
S'13524'
p11
sS'label'
p12
S'population place'
p13
sS'range'
p14
S'Populated Place '
p15
sS'prop_uri'
p16
S"'http://dbpedia.org/ontology/populationPlace'"
p17
sS'annotations'
p18
(dp19
S'bag_of_words'
p20
(lp21
S'Ethnic'
p22
aS'Group'
p23
aS'population'
p24
aS'place'
p25
aS'Populated'
p26
aS'Place'
p27
aS'a'
aS'place'
p28
aS'were'
p29
aS'members'
p30
aS'of'
p31
aS'an'
p32
aS'ethnic'
p33
aS'group'
p34
aS'are'
p35
aS'living'
p36
asS'chunk_seq'
p37
(lp38
S'B-NP'
p39
aS'I-NP'
p40
aS'I-NP'
p41
aS'E-NP'
p42
aS'B-NP'
p43
aS'E-NP'
p44
aS'B-NP'
p45
aS'E-NP'
p46
aS'S-VP'
p47
aS'S-NP'
p48
aS'S-PP'
p49
aS'B-NP'
p50
aS'I-NP'
p51
aS'E-NP'
p52
aS'B-VP'
p53
aS'E-VP'
p54
asS'dep_seq'
p55
(lp56
(lp57
S'amod'
p58
aS'4'
aS'1'
aa(lp59
S'nn'
p60
aS'4'
aS'2'
aa(lp61
S'nn'
p62
aS'4'
aS'3'
aa(lp63
S'nn'
p64
aS'6'
aS'4'
aa(lp65
S'amod'
p66
aS'6'
aS'5'
aa(lp67
S'nsubj'
p68
aS'9'
aS'6'
aa(lp69
S'det'
p70
aS'8'
aS'7'
aa(lp71
S'dep'
p72
aS'6'
aS'8'
aa(lp73
S'root'
p74
aS'0'
aS'9'
aa(lp75
S'nsubj'
p76
aS'16'
p77
aS'10'
p78
aa(lp79
S'det'
p80
aS'14'
p81
aS'12'
p82
aa(lp83
S'amod'
p84
aS'14'
p85
aS'13'
p86
aa(lp87
S'prep_of'
p88
aS'10'
p89
aS'14'
p90
aa(lp91
S'aux'
p92
aS'16'
p93
aS'15'
p94
aa(lp95
S'ccomp'
p96
aS'9'
aS'16'
p97
aasS'srls'
p98
(lp99
(dp100
S'A0'
p101
S'members of an ethnic group'
p102
sS'V'
g36
sasS'pos_seq'
p103
(lp104
S'JJ'
p105
aS'NNP'
p106
aS'NN'
p107
aS'NN'
p108
aS'JJ'
p109
aS'NN'
p110
aS'DT'
p111
aS'NN'
p112
aS'VBD'
p113
aS'NNS'
p114
aS'IN'
p115
aS'DT'
p116
aS'JJ'
p117
aS'NN'
p118
aS'VBP'
p119
aS'VBG'
p120
asS'ner_seq'
p121
(lp122
S'B-ORG'
p123
aS'E-ORG'
p124
aS'O'
aS'O'
aS'O'
aS'O'
aS'O'
aS'O'
aS'O'
aS'O'
aS'O'
aS'O'
aS'O'
aS'O'
aS'O'
aS'O'
assb.