ccopy_reg
_reconstructor
p1
(c__main__
KBproperty
p2
c__builtin__
object
p3
NtRp4
(dp5
S'comment'
p6
S'Power to be expressed in Watts kiloWatt megaWatt'
p7
sS'domain'
p8
S'Mean Of Transportation '
p9
sS'instances_count'
p10
S'0'
sS'label'
p11
S'engine power'
p12
sS'range'
p13
S'positive Integer '
p14
sS'prop_uri'
p15
S"'http://dbpedia.org/ontology/enginePower'"
p16
sS'annotations'
p17
(dp18
S'bag_of_words'
p19
(lp20
S'Mean'
p21
aS'Of'
p22
aS'Transportation'
p23
aS'engine'
p24
aS'power'
p25
aS'positive'
p26
aS'Integer'
p27
aS'Power'
p28
aS'to'
p29
aS'be'
p30
aS'expressed'
p31
aS'in'
p32
aS'Watts'
p33
aS'kiloWatt'
p34
aS'megaWatt'
p35
asS'chunk_seq'
p36
(lp37
S'S-NP'
p38
aS'S-PP'
p39
aS'S-NP'
p40
aS'B-NP'
p41
aS'E-NP'
p42
aS'S-ADJP'
p43
aS'B-NP'
p44
aS'E-NP'
p45
aS'B-VP'
p46
aS'I-VP'
p47
aS'E-VP'
p48
aS'S-PP'
p49
aS'B-NP'
p50
aS'I-NP'
p51
aS'E-NP'
p52
asS'dep_seq'
p53
(lp54
(lp55
S'dep'
p56
aS'2'
aS'1'
aa(lp57
S'root'
p58
aS'0'
aS'2'
aa(lp59
S'nn'
p60
aS'5'
aS'3'
aa(lp61
S'nn'
p62
aS'5'
aS'4'
aa(lp63
S'nn'
p64
aS'8'
aS'5'
aa(lp65
S'amod'
p66
aS'8'
aS'6'
aa(lp67
S'nn'
p68
aS'8'
aS'7'
aa(lp69
S'pobj'
p70
aS'2'
aS'8'
aa(lp71
S'aux'
p72
aS'11'
p73
aS'9'
aa(lp74
S'auxpass'
p75
aS'11'
p76
aS'10'
p77
aa(lp78
S'infmod'
p79
aS'8'
aS'11'
p80
aa(lp81
S'nn'
p82
aS'14'
p83
aS'13'
p84
aa(lp85
S'prep_in'
p86
aS'11'
p87
aS'14'
p88
aa(lp89
S'punct'
p90
aS'14'
p91
aS'15'
p92
aasS'srls'
p93
(lp94
(dp95
S'A1'
p96
S'Transportation engine power positive Integer Power'
p97
sS'AM-LOC'
p98
S'in Watts kiloWatt megaWatt'
p99
sS'V'
g31
sasS'pos_seq'
p100
(lp101
S'NNP'
p102
aS'IN'
p103
aS'NNP'
p104
aS'NN'
p105
aS'NN'
p106
aS'JJ'
p107
aS'NNP'
p108
aS'NNP'
p109
aS'TO'
p110
aS'VB'
p111
aS'VBN'
p112
aS'IN'
p113
aS'NNP'
p114
aS'NNP'
p115
aS'.'
asS'ner_seq'
p116
(lp117
S'O'
aS'B-ORG'
p118
aS'E-ORG'
p119
aS'O'
aS'O'
aS'O'
aS'B-ORG'
p120
aS'E-ORG'
p121
aS'O'
aS'O'
aS'O'
aS'O'
aS'O'
aS'O'
aS'O'
assb.