ccopy_reg
_reconstructor
p1
(c__main__
KBproperty
p2
c__builtin__
object
p3
NtRp4
(dp5
S'comment'
p6
S'Physical remains or personal effects of a saint or venerated person preserved in a religious building'
p7
sS'domain'
p8
S'Religious Building '
p9
sS'instances_count'
p10
S'0'
sS'label'
p11
S'relics'
p12
sS'range'
p13
S'string '
p14
sS'prop_uri'
p15
S"'http://dbpedia.org/ontology/relics'"
p16
sS'annotations'
p17
(dp18
S'bag_of_words'
p19
(lp20
S'Religious'
p21
aS'Building'
p22
aS'relics'
p23
aS'string'
p24
aS'Physical'
p25
aS'remains'
p26
aS'or'
p27
aS'personal'
p28
aS'effects'
p29
aS'of'
p30
aS'a'
aS'saint'
p31
aS'or'
p32
aS'venerated'
p33
aS'person'
p34
aS'preserved'
p35
aS'in'
p36
aS'a'
aS'religious'
p37
aS'building'
p38
asS'chunk_seq'
p39
(lp40
S'B-NP'
p41
aS'I-NP'
p42
aS'I-NP'
p43
aS'I-NP'
p44
aS'I-NP'
p45
aS'E-NP'
p46
aS'O'
aS'B-NP'
p47
aS'E-NP'
p48
aS'S-PP'
p49
aS'B-NP'
p50
aS'I-NP'
p51
aS'I-NP'
p52
aS'I-NP'
p53
aS'E-NP'
p54
aS'S-VP'
p55
aS'S-PP'
p56
aS'B-NP'
p57
aS'I-NP'
p58
aS'E-NP'
p59
asS'dep_seq'
p60
(lp61
(lp62
S'dep'
p63
aS'2'
aS'1'
aa(lp64
S'dep'
p65
aS'16'
p66
aS'2'
aa(lp67
S'dep'
p68
aS'16'
p69
aS'3'
aa(lp70
S'dep'
p71
aS'16'
p72
aS'4'
aa(lp73
S'amod'
p74
aS'6'
aS'5'
aa(lp75
S'dep'
p76
aS'16'
p77
aS'6'
aa(lp78
S'amod'
p79
aS'9'
aS'8'
aa(lp80
S'conj_or'
p81
aS'16'
p82
aS'9'
aa(lp83
S'nsubj'
p84
aS'16'
p85
aS'9'
aa(lp86
S'det'
p87
aS'15'
p88
aS'11'
p89
aa(lp90
S'nn'
p91
aS'15'
p92
aS'12'
p93
aa(lp94
S'conj_or'
p95
aS'12'
p96
aS'14'
p97
aa(lp98
S'prep_of'
p99
aS'9'
aS'15'
p100
aa(lp101
S'root'
p102
aS'0'
aS'16'
p103
aa(lp104
S'det'
p105
aS'20'
p106
aS'18'
p107
aa(lp108
S'amod'
p109
aS'20'
p110
aS'19'
p111
aa(lp112
S'prep_in'
p113
aS'16'
p114
aS'20'
p115
aasS'srls'
p116
(lp117
(dp118
S'A1'
p119
g34
sS'V'
g33
sa(dp120
S'A1'
p121
S'Religious Building relics string Physical remains or personal effects of a saint or venerated person'
p122
sS'AM-LOC'
p123
S'in a religious building'
p124
sS'V'
g35
sasS'pos_seq'
p125
(lp126
S'JJ'
p127
aS'NN'
p128
aS'NNS'
p129
aS'NN'
p130
aS'JJ'
p131
aS'NNS'
p132
aS'CC'
p133
aS'JJ'
p134
aS'NNS'
p135
aS'IN'
p136
aS'DT'
p137
aS'NN'
p138
aS'CC'
p139
aS'VBN'
p140
aS'NN'
p141
aS'VBN'
p142
aS'IN'
p143
aS'DT'
p144
aS'JJ'
p145
aS'NN'
p146
asS'ner_seq'
p147
(lp148
S'O'
aS'O'
aS'O'
aS'O'
aS'O'
aS'O'
aS'O'
aS'O'
aS'O'
aS'O'
aS'O'
aS'O'
aS'O'
aS'O'
aS'O'
aS'O'
aS'O'
aS'O'
aS'O'
aS'O'
assb.