ccopy_reg
_reconstructor
p1
(c__main__
KBproperty
p2
c__builtin__
object
p3
NtRp4
(dp5
S'comment'
p6
S'Official song anthem of a PopulatedPlace SportsTeam School or other'
p7
sS'domain'
p8
S''
sS'instances_count'
p9
S'783'
p10
sS'label'
p11
S'anthem'
p12
sS'range'
p13
S'Work '
p14
sS'prop_uri'
p15
S"'http://dbpedia.org/ontology/anthem'"
p16
sS'annotations'
p17
(dp18
S'bag_of_words'
p19
(lp20
S'anthem'
p21
aS'Work'
p22
aS'Official'
p23
aS'song'
p24
aS'anthem'
p25
aS'of'
p26
aS'a'
aS'PopulatedPlace'
p27
aS'SportsTeam'
p28
aS'School'
p29
aS'or'
p30
aS'other'
p31
asS'chunk_seq'
p32
(lp33
S'B-NP'
p34
aS'I-NP'
p35
aS'I-NP'
p36
aS'I-NP'
p37
aS'E-NP'
p38
aS'S-PP'
p39
aS'B-NP'
p40
aS'I-NP'
p41
aS'I-NP'
p42
aS'I-NP'
p43
aS'I-NP'
p44
aS'E-NP'
p45
asS'dep_seq'
p46
(lp47
(lp48
S'nn'
p49
aS'5'
aS'1'
aa(lp50
S'nn'
p51
aS'5'
aS'2'
aa(lp52
S'nn'
p53
aS'5'
aS'3'
aa(lp54
S'nn'
p55
aS'5'
aS'4'
aa(lp56
S'root'
p57
aS'0'
aS'5'
aa(lp58
S'det'
p59
aS'10'
p60
aS'7'
aa(lp61
S'nn'
p62
aS'10'
p63
aS'8'
aa(lp64
S'nn'
p65
aS'10'
p66
aS'9'
aa(lp67
S'prep_of'
p68
aS'5'
aS'10'
p69
aa(lp70
S'conj_or'
p71
aS'10'
p72
aS'12'
p73
aasS'srls'
p74
(lp75
sS'pos_seq'
p76
(lp77
S'NN'
p78
aS'NNP'
p79
aS'NNP'
p80
aS'NN'
p81
aS'NN'
p82
aS'IN'
p83
aS'DT'
p84
aS'NNP'
p85
aS'NNP'
p86
aS'NNP'
p87
aS'CC'
p88
aS'JJ'
p89
asS'ner_seq'
p90
(lp91
S'O'
aS'O'
aS'S-MISC'
p92
aS'O'
aS'O'
aS'O'
aS'O'
aS'B-LOC'
p93
aS'I-LOC'
p94
aS'E-LOC'
p95
aS'O'
aS'O'
assb.