ccopy_reg
_reconstructor
p1
(c__main__
KBproperty
p2
c__builtin__
object
p3
NtRp4
(dp5
S'comment'
p6
S'Year of the first publication.'
p7
sS'domain'
p8
S'Periodical Literature '
p9
sS'instances_count'
p10
S'6390'
p11
sS'label'
p12
S'first publication year'
p13
sS'range'
p14
S'g Year '
p15
sS'prop_uri'
p16
S"'http://dbpedia.org/ontology/firstPublicationYear'"
p17
sS'annotations'
p18
(dp19
S'bag_of_words'
p20
(lp21
S'Periodical'
p22
aS'Literature'
p23
aS'first'
p24
aS'publication'
p25
aS'year'
p26
aS'g'
aS'Year'
p27
aS'Year'
p28
aS'of'
p29
aS'the'
p30
aS'first'
p31
aS'publication'
p32
aS'.'
asS'chunk_seq'
p33
(lp34
S'B-NP'
p35
aS'I-NP'
p36
aS'I-NP'
p37
aS'I-NP'
p38
aS'I-NP'
p39
aS'I-NP'
p40
aS'I-NP'
p41
aS'E-NP'
p42
aS'S-PP'
p43
aS'B-NP'
p44
aS'I-NP'
p45
aS'E-NP'
p46
aS'O'
asS'dep_seq'
p47
(lp48
(lp49
S'nn'
p50
aS'8'
aS'1'
aa(lp51
S'nn'
p52
aS'8'
aS'2'
aa(lp53
S'amod'
p54
aS'8'
aS'3'
aa(lp55
S'nn'
p56
aS'8'
aS'4'
aa(lp57
S'nn'
p58
aS'8'
aS'5'
aa(lp59
S'nn'
p60
aS'8'
aS'6'
aa(lp61
S'nn'
p62
aS'8'
aS'7'
aa(lp63
S'root'
p64
aS'0'
aS'8'
aa(lp65
S'det'
p66
aS'12'
p67
aS'10'
p68
aa(lp69
S'amod'
p70
aS'12'
p71
aS'11'
p72
aa(lp73
S'prep_of'
p74
aS'8'
aS'12'
p75
aasS'srls'
p76
(lp77
sS'pos_seq'
p78
(lp79
S'NNP'
p80
aS'NNP'
p81
aS'JJ'
p82
aS'NN'
p83
aS'NN'
p84
aS'NN'
p85
aS'NN'
p86
aS'NN'
p87
aS'IN'
p88
aS'DT'
p89
aS'JJ'
p90
aS'NN'
p91
aS'.'
asS'ner_seq'
p92
(lp93
S'B-ORG'
p94
aS'E-ORG'
p95
aS'O'
aS'O'
aS'O'
aS'O'
aS'O'
aS'O'
aS'O'
aS'O'
aS'O'
aS'O'
aS'O'
assb.