ccopy_reg
_reconstructor
p1
(c__main__
KBproperty
p2
c__builtin__
object
p3
NtRp4
(dp5
S'comment'
p6
S'how much fat as a percentage does this food contain. Mostly applies to Cheese'
p7
sS'domain'
p8
S'Food '
p9
sS'instances_count'
p10
S'0'
sS'label'
p11
S'percentage of fat'
p12
sS'range'
p13
S'non Negative Integer '
p14
sS'prop_uri'
p15
S"'http://dbpedia.org/ontology/percentageFat'"
p16
sS'annotations'
p17
(dp18
S'bag_of_words'
p19
(lp20
S'Food'
p21
aS'percentage'
p22
aS'of'
p23
aS'fat'
p24
aS'non'
p25
aS'Negative'
p26
aS'Integer'
p27
aS'how'
p28
aS'much'
p29
aS'fat'
p30
aS'as'
p31
aS'a'
aS'percentage'
p32
aS'does'
p33
aS'this'
p34
aS'food'
p35
aS'contain'
p36
aS'.'
aS'Mostly'
p37
aS'applies'
p38
aS'to'
p39
aS'Cheese'
p40
asS'chunk_seq'
p41
(lp42
S'B-NP'
p43
aS'E-NP'
p44
aS'S-PP'
p45
aS'B-NP'
p46
aS'I-NP'
p47
aS'I-NP'
p48
aS'E-NP'
p49
aS'S-ADVP'
p50
aS'B-NP'
p51
aS'E-NP'
p52
aS'S-PP'
p53
aS'B-NP'
p54
aS'E-NP'
p55
aS'S-VP'
p56
aS'B-NP'
p57
aS'E-NP'
p58
aS'S-VP'
p59
aS'O'
aS'S-ADVP'
p60
aS'S-VP'
p61
aS'S-PP'
p62
aS'S-NP'
p63
asS'dep_seq'
p64
(lp65
(lp66
S'nn'
p67
aS'2'
aS'1'
aa(lp68
S'nsubj'
p69
aS'14'
p70
aS'2'
aa(lp71
S'amod'
p72
aS'5'
aS'4'
aa(lp73
S'amod'
p74
aS'7'
aS'5'
aa(lp75
S'amod'
p76
aS'7'
aS'6'
aa(lp77
S'prep_of'
p78
aS'2'
aS'7'
aa(lp79
S'advmod'
p80
aS'10'
p81
aS'8'
aa(lp82
S'dep'
p83
aS'10'
p84
aS'9'
aa(lp85
S'amod'
p86
aS'2'
aS'10'
p87
aa(lp88
S'det'
p89
aS'13'
p90
aS'12'
p91
aa(lp92
S'prep_as'
p93
aS'2'
aS'13'
p94
aa(lp95
S'root'
p96
aS'0'
aS'14'
p97
aa(lp98
S'det'
p99
aS'16'
p100
aS'15'
p101
aa(lp102
S'nsubj'
p103
aS'17'
p104
aS'16'
p105
aa(lp106
S'ccomp'
p107
aS'14'
p108
aS'17'
p109
aa(lp110
S'advmod'
p111
aS'14'
p112
aS'19'
p113
aa(lp114
S'dep'
p115
aS'14'
p116
aS'20'
p117
aa(lp118
S'prep_to'
p119
aS'20'
p120
aS'22'
p121
aasS'srls'
p122
(lp123
(dp124
S'A1'
p125
S'this food'
p126
sS'C-A1'
p127
S'Mostly applies to Cheese'
p128
sS'V'
g36
sa(dp129
S'A1'
p130
S'Food percentage of fat non Negative Integer how much fat as a percentage  this food contain'
p131
sS'AM-ADV'
p132
g37
sS'A2'
p133
S'to Cheese'
p134
sS'V'
g38
sasS'pos_seq'
p135
(lp136
S'NN'
p137
aS'NN'
p138
aS'IN'
p139
aS'JJ'
p140
aS'JJ'
p141
aS'JJ'
p142
aS'NN'
p143
aS'WRB'
p144
aS'JJ'
p145
aS'NN'
p146
aS'IN'
p147
aS'DT'
p148
aS'NN'
p149
aS'VBZ'
p150
aS'DT'
p151
aS'NN'
p152
aS'VBP'
p153
aS'.'
aS'RB'
p154
aS'VBZ'
p155
aS'TO'
p156
aS'NNP'
p157
asS'ner_seq'
p158
(lp159
S'O'
aS'O'
aS'O'
aS'O'
aS'O'
aS'O'
aS'O'
aS'O'
aS'O'
aS'O'
aS'O'
aS'O'
aS'O'
aS'O'
aS'O'
aS'O'
aS'O'
aS'O'
aS'O'
aS'O'
aS'O'
aS'S-MISC'
p160
assb.