ccopy_reg
_reconstructor
p1
(c__main__
KBproperty
p2
c__builtin__
object
p3
NtRp4
(dp5
S'comment'
p6
S'The police detachment serving a UK place eg Wakefield -> "West Yorkshire Police'
p7
sS'domain'
p8
S'Populated Place '
p9
sS'instances_count'
p10
S'0'
sS'label'
p11
S'police name'
p12
sS'range'
p13
S'string '
p14
sS'prop_uri'
p15
S"'http://dbpedia.org/ontology/policeName'"
p16
sS'annotations'
p17
(dp18
S'bag_of_words'
p19
(lp20
S'Populated'
p21
aS'Place'
p22
aS'police'
p23
aS'name'
p24
aS'string'
p25
aS'The'
p26
aS'police'
p27
aS'detachment'
p28
aS'serving'
p29
aS'a'
aS'UK'
p30
aS'place'
p31
aS'eg'
p32
aS'Wakefield'
p33
aS'-'
aS'>'
aS'"'
aS'West'
p34
aS'Yorkshire'
p35
aS'Police'
p36
asS'chunk_seq'
p37
(lp38
S'B-NP'
p39
aS'I-NP'
p40
aS'E-NP'
p41
aS'S-VP'
p42
aS'S-NP'
p43
aS'B-NP'
p44
aS'I-NP'
p45
aS'E-NP'
p46
aS'S-VP'
p47
aS'B-NP'
p48
aS'I-NP'
p49
aS'E-NP'
p50
aS'S-PP'
p51
aS'S-NP'
p52
aS'O'
aS'O'
aS'O'
aS'B-NP'
p53
aS'I-NP'
p54
aS'E-NP'
p55
asS'dep_seq'
p56
(lp57
(lp58
S'amod'
p59
aS'5'
aS'1'
aa(lp60
S'nn'
p61
aS'5'
aS'2'
aa(lp62
S'nn'
p63
aS'5'
aS'3'
aa(lp64
S'dep'
p65
aS'5'
aS'4'
aa(lp66
S'root'
p67
aS'0'
aS'5'
aa(lp68
S'det'
p69
aS'8'
aS'6'
aa(lp70
S'nn'
p71
aS'8'
aS'7'
aa(lp72
S'dep'
p73
aS'20'
p74
aS'8'
aa(lp75
S'partmod'
p76
aS'8'
aS'9'
aa(lp77
S'det'
p78
aS'12'
p79
aS'10'
p80
aa(lp81
S'nn'
p82
aS'12'
p83
aS'11'
p84
aa(lp85
S'dobj'
p86
aS'9'
aS'12'
p87
aa(lp88
S'dep'
p89
aS'20'
p90
aS'13'
p91
aa(lp92
S'dep'
p93
aS'20'
p94
aS'14'
p95
aa(lp96
S'dep'
p97
aS'20'
p98
aS'16'
p99
aa(lp100
S'dep'
p101
aS'20'
p102
aS'17'
p103
aa(lp104
S'nn'
p105
aS'20'
p106
aS'18'
p107
aa(lp108
S'nn'
p109
aS'20'
p110
aS'19'
p111
aa(lp112
S'dep'
p113
aS'5'
aS'20'
p114
aasS'srls'
p115
(lp116
(dp117
S'A1'
p118
S'The police detachment'
p119
sS'A0'
p120
S'Populated Place police'
p121
sS'A2'
p122
g25
sS'V'
g24
sa(dp123
S'A1'
p124
S'a UK place'
p125
sS'A0'
p126
S'The police detachment  West Yorkshire Police'
p127
sS'A2'
p128
S'eg Wakefield'
p129
sS'V'
g29
sasS'pos_seq'
p130
(lp131
S'JJ'
p132
aS'NN'
p133
aS'NNS'
p134
aS'VBP'
p135
aS'NN'
p136
aS'DT'
p137
aS'NN'
p138
aS'NN'
p139
aS'VBG'
p140
aS'DT'
p141
aS'NNP'
p142
aS'NN'
p143
aS'IN'
p144
aS'NNP'
p145
aS'FW'
p146
aS'FW'
p147
aS'FW'
p148
aS'NNP'
p149
aS'NNP'
p150
aS'NNP'
p151
asS'ner_seq'
p152
(lp153
S'O'
aS'O'
aS'O'
aS'O'
aS'O'
aS'O'
aS'O'
aS'O'
aS'O'
aS'O'
aS'S-LOC'
p154
aS'O'
aS'O'
aS'S-LOC'
p155
aS'O'
aS'O'
aS'O'
aS'B-LOC'
p156
aS'E-LOC'
p157
aS'O'
assb.