ccopy_reg
_reconstructor
p1
(c__main__
KBproperty
p2
c__builtin__
object
p3
NtRp4
(dp5
S'comment'
p6
S''
sS'domain'
p7
S'Military Person '
p8
sS'instances_count'
p9
S'0'
sS'label'
p10
S'note on place of burial'
p11
sS'range'
p12
S'string '
p13
sS'prop_uri'
p14
S"'http://dbpedia.org/ontology/noteOnPlaceOfBurial'"
p15
sS'annotations'
p16
(dp17
S'bag_of_words'
p18
(lp19
S'Military'
p20
aS'Person'
p21
aS'note'
p22
aS'on'
p23
aS'place'
p24
aS'of'
p25
aS'burial'
p26
aS'string'
p27
asS'chunk_seq'
p28
(lp29
S'B-NP'
p30
aS'E-NP'
p31
aS'S-VP'
p32
aS'S-PP'
p33
aS'S-NP'
p34
aS'S-PP'
p35
aS'B-NP'
p36
aS'E-NP'
p37
asS'dep_seq'
p38
(lp39
(lp40
S'amod'
p41
aS'3'
aS'1'
aa(lp42
S'nn'
p43
aS'3'
aS'2'
aa(lp44
S'root'
p45
aS'0'
aS'3'
aa(lp46
S'prep_on'
p47
aS'3'
aS'5'
aa(lp48
S'nn'
p49
aS'8'
aS'7'
aa(lp50
S'prep_of'
p51
aS'5'
aS'8'
aasS'srls'
p52
(lp53
(dp54
S'A0'
p55
S'Military Person'
p56
sS'AM-LOC'
p57
S'on place of burial string'
p58
sS'V'
g22
sasS'pos_seq'
p59
(lp60
S'JJ'
p61
aS'NN'
p62
aS'NN'
p63
aS'IN'
p64
aS'NN'
p65
aS'IN'
p66
aS'NN'
p67
aS'NN'
p68
asS'ner_seq'
p69
(lp70
S'O'
aS'O'
aS'O'
aS'O'
aS'O'
aS'O'
aS'O'
aS'O'
assb.