ccopy_reg
_reconstructor
p1
(c__main__
KBproperty
p2
c__builtin__
object
p3
NtRp4
(dp5
S'comment'
p6
S'Alternative naming of anything not being a Person for which case foaf:nick should be used.'
p7
sS'domain'
p8
S''
sS'instances_count'
p9
S'0'
sS'label'
p10
S'alternative name'
p11
sS'range'
p12
S'lang String '
p13
sS'prop_uri'
p14
S"'http://dbpedia.org/ontology/alternativeName'"
p15
sS'annotations'
p16
(dp17
S'bag_of_words'
p18
(lp19
S'alternative'
p20
aS'name'
p21
aS'lang'
p22
aS'String'
p23
aS'Alternative'
p24
aS'naming'
p25
aS'of'
p26
aS'anything'
p27
aS'not'
p28
aS'being'
p29
aS'a'
aS'Person'
p30
aS'for'
p31
aS'which'
p32
aS'case'
p33
aS'foaf'
p34
aS':'
aS'nick'
p35
aS'should'
p36
aS'be'
p37
aS'used'
p38
aS'.'
asS'chunk_seq'
p39
(lp40
S'B-NP'
p41
aS'I-NP'
p42
aS'I-NP'
p43
aS'I-NP'
p44
aS'I-NP'
p45
aS'E-NP'
p46
aS'S-PP'
p47
aS'S-NP'
p48
aS'O'
aS'S-VP'
p49
aS'B-NP'
p50
aS'E-NP'
p51
aS'S-PP'
p52
aS'B-NP'
p53
aS'E-NP'
p54
aS'S-NP'
p55
aS'O'
aS'S-NP'
p56
aS'B-VP'
p57
aS'I-VP'
p58
aS'E-VP'
p59
aS'O'
asS'dep_seq'
p60
(lp61
(lp62
S'amod'
p63
aS'6'
aS'1'
aa(lp64
S'nn'
p65
aS'6'
aS'2'
aa(lp66
S'amod'
p67
aS'6'
aS'3'
aa(lp68
S'nn'
p69
aS'6'
aS'4'
aa(lp70
S'amod'
p71
aS'6'
aS'5'
aa(lp72
S'root'
p73
aS'0'
aS'6'
aa(lp74
S'prep_of'
p75
aS'6'
aS'8'
aa(lp76
S'neg'
p77
aS'8'
aS'9'
aa(lp78
S'cop'
p79
aS'12'
p80
aS'10'
p81
aa(lp82
S'det'
p83
aS'12'
p84
aS'11'
p85
aa(lp86
S'partmod'
p87
aS'8'
aS'12'
p88
aa(lp89
S'det'
p90
aS'16'
p91
aS'14'
p92
aa(lp93
S'nn'
p94
aS'16'
p95
aS'15'
p96
aa(lp97
S'prep_for'
p98
aS'12'
p99
aS'16'
p100
aa(lp101
S'nsubjpass'
p102
aS'21'
p103
aS'18'
p104
aa(lp105
S'aux'
p106
aS'21'
p107
aS'19'
p108
aa(lp109
S'auxpass'
p110
aS'21'
p111
aS'20'
p112
aa(lp113
S'dep'
p114
aS'6'
aS'21'
p115
aasS'srls'
p116
(lp117
(dp118
S'A1'
p119
g35
sS'V'
g38
sS'AM-MOD'
p120
g36
sasS'pos_seq'
p121
(lp122
S'JJ'
p123
aS'NN'
p124
aS'VBG'
p125
aS'NN'
p126
aS'JJ'
p127
aS'NN'
p128
aS'IN'
p129
aS'NN'
p130
aS'RB'
p131
aS'VBG'
p132
aS'DT'
p133
aS'NN'
p134
aS'IN'
p135
aS'WDT'
p136
aS'NN'
p137
aS'NN'
p138
aS':'
aS'NN'
p139
aS'MD'
p140
aS'VB'
p141
aS'VBN'
p142
aS'.'
asS'ner_seq'
p143
(lp144
S'O'
aS'O'
aS'O'
aS'B-MISC'
p145
aS'E-MISC'
p146
aS'O'
aS'O'
aS'O'
aS'O'
aS'O'
aS'O'
aS'O'
aS'O'
aS'O'
aS'O'
aS'O'
aS'O'
aS'O'
aS'O'
aS'O'
aS'O'
aS'O'
assb.