ccopy_reg
_reconstructor
p1
(c__main__
KBproperty
p2
c__builtin__
object
p3
NtRp4
(dp5
S'comment'
p6
S'The last update date of a resource'
p7
sS'domain'
p8
S''
sS'instances_count'
p9
S'0'
sS'label'
p10
S'updated'
p11
sS'range'
p12
S'date '
p13
sS'prop_uri'
p14
S"'http://dbpedia.org/ontology/updated'"
p15
sS'annotations'
p16
(dp17
S'bag_of_words'
p18
(lp19
S'updated'
p20
aS'date'
p21
aS'The'
p22
aS'last'
p23
aS'update'
p24
aS'date'
p25
aS'of'
p26
aS'a'
aS'resource'
p27
asS'chunk_seq'
p28
(lp29
S'B-NP'
p30
aS'E-NP'
p31
aS'B-NP'
p32
aS'I-NP'
p33
aS'I-NP'
p34
aS'E-NP'
p35
aS'S-PP'
p36
aS'B-NP'
p37
aS'E-NP'
p38
asS'dep_seq'
p39
(lp40
(lp41
S'root'
p42
aS'0'
aS'1'
aa(lp43
S'iobj'
p44
aS'1'
aS'2'
aa(lp45
S'det'
p46
aS'6'
aS'3'
aa(lp47
S'amod'
p48
aS'6'
aS'4'
aa(lp49
S'nn'
p50
aS'6'
aS'5'
aa(lp51
S'dobj'
p52
aS'1'
aS'6'
aa(lp53
S'det'
p54
aS'9'
aS'8'
aa(lp55
S'prep_of'
p56
aS'6'
aS'9'
aasS'srls'
p57
(lp58
(dp59
S'A1'
p60
g21
sS'V'
g20
sasS'pos_seq'
p61
(lp62
S'VBN'
p63
aS'NN'
p64
aS'DT'
p65
aS'JJ'
p66
aS'NN'
p67
aS'NN'
p68
aS'IN'
p69
aS'DT'
p70
aS'NN'
p71
asS'ner_seq'
p72
(lp73
S'O'
aS'O'
aS'O'
aS'O'
aS'O'
aS'O'
aS'O'
aS'O'
aS'O'
assb.