ccopy_reg
_reconstructor
p1
(c__main__
KBproperty
p2
c__builtin__
object
p3
NtRp4
(dp5
S'comment'
p6
S'high-ranking solicitor'
p7
sS'domain'
p8
S'Legal Case '
p9
sS'instances_count'
p10
S'0'
sS'label'
p11
S'solicitor general'
p12
sS'range'
p13
S'Person '
p14
sS'prop_uri'
p15
S"'http://dbpedia.org/ontology/solicitorGeneral'"
p16
sS'annotations'
p17
(dp18
S'bag_of_words'
p19
(lp20
S'Legal'
p21
aS'Case'
p22
aS'solicitor'
p23
aS'general'
p24
aS'Person'
p25
aS'high-ranking'
p26
aS'solicitor'
p27
asS'chunk_seq'
p28
(lp29
S'B-NP'
p30
aS'I-NP'
p31
aS'I-NP'
p32
aS'I-NP'
p33
aS'E-NP'
p34
aS'B-NP'
p35
aS'E-NP'
p36
asS'dep_seq'
p37
(lp38
(lp39
S'nn'
p40
aS'7'
aS'1'
aa(lp41
S'nn'
p42
aS'7'
aS'2'
aa(lp43
S'nn'
p44
aS'7'
aS'3'
aa(lp45
S'amod'
p46
aS'7'
aS'4'
aa(lp47
S'nn'
p48
aS'7'
aS'5'
aa(lp49
S'amod'
p50
aS'7'
aS'ranking'
p51
aa(lp52
S'root'
p53
aS'0'
aS'7'
aasS'srls'
p54
(lp55
sS'pos_seq'
p56
(lp57
S'NNP'
p58
aS'NNP'
p59
aS'NN'
p60
aS'JJ'
p61
aS'NN'
p62
aS'JJ'
p63
aS'NN'
p64
asS'ner_seq'
p65
(lp66
S'O'
aS'O'
aS'O'
aS'O'
aS'O'
aS'O'
aS'O'
assb.