ccopy_reg
_reconstructor
p1
(c__main__
KBproperty
p2
c__builtin__
object
p3
NtRp4
(dp5
S'comment'
p6
S'A rank in the classification of organisms below kingdom and above class; also called a division especially in describing plants; a taxon at that rank.'
p7
sS'domain'
p8
S'Species '
p9
sS'instances_count'
p10
S'241730'
p11
sS'label'
p12
S'phylum'
p13
sS'range'
p14
S''
sS'prop_uri'
p15
S"'http://dbpedia.org/ontology/phylum'"
p16
sS'annotations'
p17
(dp18
S'bag_of_words'
p19
(lp20
S'Species'
p21
aS'phylum'
p22
aS'A'
aS'rank'
p23
aS'in'
p24
aS'the'
p25
aS'classification'
p26
aS'of'
p27
aS'organisms'
p28
aS'below'
p29
aS'kingdom'
p30
aS'and'
p31
aS'above'
p32
aS'class'
p33
aS';'
aS'also'
p34
aS'called'
p35
aS'a'
aS'division'
p36
aS'especially'
p37
aS'in'
p38
aS'describing'
p39
aS'plants'
p40
aS';'
aS'a'
aS'taxon'
p41
aS'at'
p42
aS'that'
p43
aS'rank'
p44
aS'.'
asS'chunk_seq'
p45
(lp46
S'B-NP'
p47
aS'I-NP'
p48
aS'I-NP'
p49
aS'E-NP'
p50
aS'S-PP'
p51
aS'B-NP'
p52
aS'E-NP'
p53
aS'S-PP'
p54
aS'S-NP'
p55
aS'S-PP'
p56
aS'S-NP'
p57
aS'O'
aS'S-PP'
p58
aS'S-NP'
p59
aS'O'
aS'S-ADVP'
p60
aS'S-VP'
p61
aS'B-NP'
p62
aS'E-NP'
p63
aS'S-ADVP'
p64
aS'S-PP'
p65
aS'S-VP'
p66
aS'S-NP'
p67
aS'O'
aS'B-NP'
p68
aS'E-NP'
p69
aS'S-PP'
p70
aS'B-NP'
p71
aS'E-NP'
p72
aS'O'
asS'dep_seq'
p73
(lp74
(lp75
S'nn'
p76
aS'2'
aS'1'
aa(lp77
S'nsubj'
p78
aS'17'
p79
aS'2'
aa(lp80
S'det'
p81
aS'4'
aS'3'
aa(lp82
S'dep'
p83
aS'2'
aS'4'
aa(lp84
S'det'
p85
aS'7'
aS'6'
aa(lp86
S'prep_in'
p87
aS'4'
aS'7'
aa(lp88
S'prep_of'
p89
aS'7'
aS'9'
aa(lp90
S'prep_below'
p91
aS'4'
aS'11'
p92
aa(lp93
S'conj_and'
p94
aS'2'
aS'13'
p95
aa(lp96
S'pobj'
p97
aS'13'
p98
aS'14'
p99
aa(lp100
S'advmod'
p101
aS'17'
p102
aS'16'
p103
aa(lp104
S'root'
p105
aS'0'
aS'17'
p106
aa(lp107
S'det'
p108
aS'19'
p109
aS'18'
p110
aa(lp111
S'dobj'
p112
aS'17'
p113
aS'19'
p114
aa(lp115
S'advmod'
p116
aS'19'
p117
aS'20'
p118
aa(lp119
S'prepc_in'
p120
aS'19'
p121
aS'22'
p122
aa(lp123
S'dobj'
p124
aS'22'
p125
aS'23'
p126
aa(lp127
S'det'
p128
aS'26'
p129
aS'25'
p130
aa(lp131
S'dep'
p132
aS'19'
p133
aS'26'
p134
aa(lp135
S'det'
p136
aS'29'
p137
aS'28'
p138
aa(lp139
S'prep_at'
p140
aS'26'
p141
aS'29'
p142
aasS'srls'
p143
(lp144
(dp145
S'A1'
p146
S'a division'
p147
sS'A0'
p148
S'Species phylum'
p149
sS'AM-DIS'
p150
g34
sS'A2'
p151
S'especially in describing plants'
p152
sS'V'
g35
sa(dp153
S'A1'
p154
g40
sS'A0'
p155
S'a division'
p156
sS'V'
g39
sasS'pos_seq'
p157
(lp158
S'NNS'
p159
aS'NN'
p160
aS'DT'
p161
aS'NN'
p162
aS'IN'
p163
aS'DT'
p164
aS'NN'
p165
aS'IN'
p166
aS'NNS'
p167
aS'IN'
p168
aS'NN'
p169
aS'CC'
p170
aS'IN'
p171
aS'NN'
p172
aS':'
aS'RB'
p173
aS'VBD'
p174
aS'DT'
p175
aS'NN'
p176
aS'RB'
p177
aS'IN'
p178
aS'VBG'
p179
aS'NNS'
p180
aS':'
aS'DT'
p181
aS'NN'
p182
aS'IN'
p183
aS'DT'
p184
aS'NN'
p185
aS'.'
asS'ner_seq'
p186
(lp187
S'O'
aS'O'
aS'O'
aS'O'
aS'O'
aS'O'
aS'O'
aS'O'
aS'O'
aS'O'
aS'O'
aS'O'
aS'O'
aS'O'
aS'O'
aS'O'
aS'O'
aS'O'
aS'O'
aS'O'
aS'O'
aS'O'
aS'O'
aS'O'
aS'O'
aS'O'
aS'O'
aS'O'
aS'O'
aS'O'
assb.