ccopy_reg
_reconstructor
p1
(c__main__
KBproperty
p2
c__builtin__
object
p3
NtRp4
(dp5
S'comment'
p6
S'The programming format describes the overall content broadcast on a radio or television station.'
p7
sS'domain'
p8
S'Broadcaster '
p9
sS'instances_count'
p10
S'21146'
p11
sS'label'
p12
S'programme format'
p13
sS'range'
p14
S''
sS'prop_uri'
p15
S"'http://dbpedia.org/ontology/programmeFormat'"
p16
sS'annotations'
p17
(dp18
S'bag_of_words'
p19
(lp20
S'Broadcaster'
p21
aS'programme'
p22
aS'format'
p23
aS'The'
p24
aS'programming'
p25
aS'format'
p26
aS'describes'
p27
aS'the'
p28
aS'overall'
p29
aS'content'
p30
aS'broadcast'
p31
aS'on'
p32
aS'a'
aS'radio'
p33
aS'or'
p34
aS'television'
p35
aS'station'
p36
aS'.'
asS'chunk_seq'
p37
(lp38
S'B-NP'
p39
aS'I-NP'
p40
aS'E-NP'
p41
aS'B-NP'
p42
aS'I-NP'
p43
aS'E-NP'
p44
aS'S-VP'
p45
aS'B-NP'
p46
aS'I-NP'
p47
aS'I-NP'
p48
aS'E-NP'
p49
aS'S-PP'
p50
aS'B-NP'
p51
aS'I-NP'
p52
aS'I-NP'
p53
aS'I-NP'
p54
aS'E-NP'
p55
aS'O'
asS'dep_seq'
p56
(lp57
(lp58
S'nn'
p59
aS'3'
aS'1'
aa(lp60
S'nn'
p61
aS'3'
aS'2'
aa(lp62
S'nsubj'
p63
aS'7'
aS'3'
aa(lp64
S'det'
p65
aS'6'
aS'4'
aa(lp66
S'nn'
p67
aS'6'
aS'5'
aa(lp68
S'nsubj'
p69
aS'7'
aS'6'
aa(lp70
S'root'
p71
aS'0'
aS'7'
aa(lp72
S'det'
p73
aS'11'
p74
aS'8'
aa(lp75
S'amod'
p76
aS'11'
p77
aS'9'
aa(lp78
S'amod'
p79
aS'11'
p80
aS'10'
p81
aa(lp82
S'dobj'
p83
aS'7'
aS'11'
p84
aa(lp85
S'det'
p86
aS'17'
p87
aS'13'
p88
aa(lp89
S'nn'
p90
aS'17'
p91
aS'14'
p92
aa(lp93
S'conj_or'
p94
aS'14'
p95
aS'16'
p96
aa(lp97
S'prep_on'
p98
aS'11'
p99
aS'17'
p100
aasS'srls'
p101
(lp102
(dp103
S'A1'
p104
S'the overall content broadcast on a radio or television station'
p105
sS'A0'
p106
S'Broadcaster programme format The programming format'
p107
sS'V'
g27
sasS'pos_seq'
p108
(lp109
S'NN'
p110
aS'NN'
p111
aS'NN'
p112
aS'DT'
p113
aS'NN'
p114
aS'NN'
p115
aS'VBZ'
p116
aS'DT'
p117
aS'JJ'
p118
aS'JJ'
p119
aS'NN'
p120
aS'IN'
p121
aS'DT'
p122
aS'NN'
p123
aS'CC'
p124
aS'NN'
p125
aS'NN'
p126
aS'.'
asS'ner_seq'
p127
(lp128
S'O'
aS'O'
aS'O'
aS'O'
aS'O'
aS'O'
aS'O'
aS'O'
aS'O'
aS'O'
aS'O'
aS'O'
aS'O'
aS'O'
aS'O'
aS'O'
aS'O'
aS'O'
assb.