ccopy_reg
_reconstructor
p1
(c__main__
KBproperty
p2
c__builtin__
object
p3
NtRp4
(dp5
S'comment'
p6
S''
sS'domain'
p7
S'School '
p8
sS'instances_count'
p9
S'138'
p10
sS'label'
p11
S'bar pass rate'
p12
sS'range'
p13
S'float '
p14
sS'prop_uri'
p15
S"'http://dbpedia.org/ontology/barPassRate'"
p16
sS'annotations'
p17
(dp18
S'bag_of_words'
p19
(lp20
S'School'
p21
aS'bar'
p22
aS'pass'
p23
aS'rate'
p24
aS'float'
p25
asS'chunk_seq'
p26
(lp27
S'B-NP'
p28
aS'E-NP'
p29
aS'S-VP'
p30
aS'B-NP'
p31
aS'E-NP'
p32
asS'dep_seq'
p33
(lp34
(lp35
S'nn'
p36
aS'2'
aS'1'
aa(lp37
S'nsubj'
p38
aS'3'
aS'2'
aa(lp39
S'root'
p40
aS'0'
aS'3'
aa(lp41
S'nn'
p42
aS'5'
aS'4'
aa(lp43
S'dobj'
p44
aS'3'
aS'5'
aasS'srls'
p45
(lp46
(dp47
S'A1'
p48
S'rate float'
p49
sS'A0'
p50
S'School bar'
p51
sS'V'
g23
sasS'pos_seq'
p52
(lp53
S'NN'
p54
aS'NN'
p55
aS'VB'
p56
aS'NN'
p57
aS'NN'
p58
asS'ner_seq'
p59
(lp60
S'O'
aS'O'
aS'O'
aS'O'
aS'O'
assb.