ccopy_reg
_reconstructor
p1
(c__main__
KBproperty
p2
c__builtin__
object
p3
NtRp4
(dp5
S'comment'
p6
S'Nomenclature of Territorial Units for Statistics NUTS is a geocode  standard for referencing the subdivisions of countries  for statistical purposes. The standard is developed and regulated by the European Union and thus only covers the member states of the EU in detail.'
p7
sS'domain'
p8
S'Place '
p9
sS'instances_count'
p10
S'20'
p11
sS'label'
p12
S'NUTS code'
p13
sS'range'
p14
S'string '
p15
sS'prop_uri'
p16
S"'http://dbpedia.org/ontology/nutsCode'"
p17
sS'annotations'
p18
(dp19
S'bag_of_words'
p20
(lp21
S'Place'
p22
aS'NUTS'
p23
aS'code'
p24
aS'string'
p25
aS'Nomenclature'
p26
aS'of'
p27
aS'Territorial'
p28
aS'Units'
p29
aS'for'
p30
aS'Statistics'
p31
aS'NUTS'
p32
aS'is'
p33
aS'a'
aS'geocode'
p34
aS'standard'
p35
aS'for'
p36
aS'referencing'
p37
aS'the'
p38
aS'subdivisions'
p39
aS'of'
p40
aS'countries'
p41
aS'for'
p42
aS'statistical'
p43
aS'purposes'
p44
aS'.'
aS'The'
p45
aS'standard'
p46
aS'is'
p47
aS'developed'
p48
aS'and'
p49
aS'regulated'
p50
aS'by'
p51
aS'the'
p52
aS'European'
p53
aS'Union'
p54
aS'and'
p55
aS'thus'
p56
aS'only'
p57
aS'covers'
p58
aS'the'
p59
aS'member'
p60
aS'states'
p61
aS'of'
p62
aS'the'
p63
aS'EU'
p64
aS'in'
p65
aS'detail'
p66
aS'.'
asS'chunk_seq'
p67
(lp68
S'B-NP'
p69
aS'I-NP'
p70
aS'I-NP'
p71
aS'I-NP'
p72
aS'E-NP'
p73
aS'S-PP'
p74
aS'B-NP'
p75
aS'E-NP'
p76
aS'S-PP'
p77
aS'B-NP'
p78
aS'E-NP'
p79
aS'S-VP'
p80
aS'B-NP'
p81
aS'I-NP'
p82
aS'E-NP'
p83
aS'S-PP'
p84
aS'S-VP'
p85
aS'B-NP'
p86
aS'E-NP'
p87
aS'S-PP'
p88
aS'S-NP'
p89
aS'S-PP'
p90
aS'B-NP'
p91
aS'E-NP'
p92
aS'O'
aS'B-NP'
p93
aS'E-NP'
p94
aS'B-VP'
p95
aS'E-VP'
p96
aS'O'
aS'S-VP'
p97
aS'S-PP'
p98
aS'B-NP'
p99
aS'I-NP'
p100
aS'E-NP'
p101
aS'O'
aS'B-CONJP'
p102
aS'E-CONJP'
p103
aS'S-VP'
p104
aS'B-NP'
p105
aS'I-NP'
p106
aS'E-NP'
p107
aS'S-PP'
p108
aS'B-NP'
p109
aS'E-NP'
p110
aS'S-PP'
p111
aS'S-NP'
p112
aS'O'
asS'dep_seq'
p113
(lp114
(lp115
S'nn'
p116
aS'5'
aS'1'
aa(lp117
S'nn'
p118
aS'5'
aS'2'
aa(lp119
S'nn'
p120
aS'5'
aS'3'
aa(lp121
S'nn'
p122
aS'5'
aS'4'
aa(lp123
S'nsubj'
p124
aS'15'
p125
aS'5'
aa(lp126
S'nn'
p127
aS'8'
aS'7'
aa(lp128
S'prep_of'
p129
aS'5'
aS'8'
aa(lp130
S'nn'
p131
aS'11'
p132
aS'10'
p133
aa(lp134
S'prep_for'
p135
aS'5'
aS'11'
p136
aa(lp137
S'cop'
p138
aS'15'
p139
aS'12'
p140
aa(lp141
S'det'
p142
aS'15'
p143
aS'13'
p144
aa(lp145
S'amod'
p146
aS'15'
p147
aS'14'
p148
aa(lp149
S'root'
p150
aS'0'
aS'15'
p151
aa(lp152
S'prepc_for'
p153
aS'15'
p154
aS'17'
p155
aa(lp156
S'det'
p157
aS'19'
p158
aS'18'
p159
aa(lp160
S'dobj'
p161
aS'17'
p162
aS'19'
p163
aa(lp164
S'prep_of'
p165
aS'19'
p166
aS'21'
p167
aa(lp168
S'amod'
p169
aS'24'
p170
aS'23'
p171
aa(lp172
S'prep_for'
p173
aS'21'
p174
aS'24'
p175
aa(lp176
S'det'
p177
aS'27'
p178
aS'26'
p179
aa(lp180
S'nsubjpass'
p181
aS'29'
p182
aS'27'
p183
aa(lp184
S'auxpass'
p185
aS'29'
p186
aS'28'
p187
aa(lp188
S'dep'
p189
aS'15'
p190
aS'29'
p191
aa(lp192
S'conj_and'
p193
aS'29'
p194
aS'31'
p195
aa(lp196
S'det'
p197
aS'35'
p198
aS'33'
p199
aa(lp200
S'nn'
p201
aS'35'
p202
aS'34'
p203
aa(lp204
S'agent'
p205
aS'29'
p206
aS'35'
p207
aa(lp208
S'advmod'
p209
aS'39'
p210
aS'37'
p211
aa(lp212
S'advmod'
p213
aS'39'
p214
aS'38'
p215
aa(lp216
S'conj_and'
p217
aS'15'
p218
aS'39'
p219
aa(lp220
S'det'
p221
aS'42'
p222
aS'40'
p223
aa(lp224
S'nn'
p225
aS'42'
p226
aS'41'
p227
aa(lp228
S'dobj'
p229
aS'39'
p230
aS'42'
p231
aa(lp232
S'det'
p233
aS'45'
p234
aS'44'
p235
aa(lp236
S'prep_of'
p237
aS'42'
p238
aS'45'
p239
aa(lp240
S'prep_in'
p241
aS'39'
p242
aS'47'
p243
aasS'srls'
p244
(lp245
(dp246
S'A1'
p247
S'the subdivisions of countries'
p248
sS'A2'
p249
S'for statistical purposes'
p250
sS'V'
g37
sa(dp251
S'A1'
p252
S'The standard'
p253
sS'A0'
p254
S'by the European Union'
p255
sS'V'
g50
sa(dp256
S'AM-ADV'
p257
g57
sS'A1'
p258
S'the member states of the EU in detail'
p259
sS'A2'
p260
S'The standard'
p261
sS'AM-DIS'
p262
g56
sS'V'
g58
sasS'pos_seq'
p263
(lp264
S'NNP'
p265
aS'NNP'
p266
aS'NN'
p267
aS'NN'
p268
aS'NN'
p269
aS'IN'
p270
aS'NNP'
p271
aS'NNPS'
p272
aS'IN'
p273
aS'NNP'
p274
aS'NNP'
p275
aS'VBZ'
p276
aS'DT'
p277
aS'JJ'
p278
aS'NN'
p279
aS'IN'
p280
aS'VBG'
p281
aS'DT'
p282
aS'NNS'
p283
aS'IN'
p284
aS'NNS'
p285
aS'IN'
p286
aS'JJ'
p287
aS'NNS'
p288
aS'.'
aS'DT'
p289
aS'NN'
p290
aS'VBZ'
p291
aS'VBN'
p292
aS'CC'
p293
aS'VBN'
p294
aS'IN'
p295
aS'DT'
p296
aS'NNP'
p297
aS'NNP'
p298
aS'CC'
p299
aS'RB'
p300
aS'RB'
p301
aS'VBZ'
p302
aS'DT'
p303
aS'NN'
p304
aS'NNS'
p305
aS'IN'
p306
aS'DT'
p307
aS'NNP'
p308
aS'IN'
p309
aS'NN'
p310
aS'.'
asS'ner_seq'
p311
(lp312
S'O'
aS'O'
aS'O'
aS'O'
aS'O'
aS'O'
aS'O'
aS'O'
aS'O'
aS'B-MISC'
p313
aS'E-MISC'
p314
aS'O'
aS'O'
aS'O'
aS'O'
aS'O'
aS'O'
aS'O'
aS'O'
aS'O'
aS'O'
aS'O'
aS'O'
aS'O'
aS'O'
aS'O'
aS'O'
aS'O'
aS'O'
aS'O'
aS'O'
aS'O'
aS'O'
aS'B-ORG'
p315
aS'E-ORG'
p316
aS'O'
aS'O'
aS'O'
aS'O'
aS'O'
aS'O'
aS'O'
aS'O'
aS'O'
aS'S-ORG'
p317
aS'O'
aS'O'
aS'O'
assb.