ccopy_reg
_reconstructor
p1
(c__main__
KBproperty
p2
c__builtin__
object
p3
NtRp4
(dp5
S'comment'
p6
S'Maximum distance to the earth surface to be expressed in kilometers'
p7
sS'domain'
p8
S'Aircraft '
p9
sS'instances_count'
p10
S'0'
sS'label'
p11
S'ceiling'
p12
sS'range'
p13
S'positive Integer '
p14
sS'prop_uri'
p15
S"'http://dbpedia.org/ontology/ceiling'"
p16
sS'annotations'
p17
(dp18
S'bag_of_words'
p19
(lp20
S'Aircraft'
p21
aS'ceiling'
p22
aS'positive'
p23
aS'Integer'
p24
aS'Maximum'
p25
aS'distance'
p26
aS'to'
p27
aS'the'
p28
aS'earth'
p29
aS'surface'
p30
aS'to'
p31
aS'be'
p32
aS'expressed'
p33
aS'in'
p34
aS'kilometers'
p35
asS'chunk_seq'
p36
(lp37
S'B-NP'
p38
aS'I-NP'
p39
aS'I-NP'
p40
aS'I-NP'
p41
aS'I-NP'
p42
aS'E-NP'
p43
aS'S-PP'
p44
aS'B-NP'
p45
aS'I-NP'
p46
aS'E-NP'
p47
aS'B-VP'
p48
aS'I-VP'
p49
aS'E-VP'
p50
aS'S-PP'
p51
aS'S-NP'
p52
asS'dep_seq'
p53
(lp54
(lp55
S'nn'
p56
aS'6'
aS'1'
aa(lp57
S'nn'
p58
aS'6'
aS'2'
aa(lp59
S'amod'
p60
aS'6'
aS'3'
aa(lp61
S'nn'
p62
aS'6'
aS'4'
aa(lp63
S'nn'
p64
aS'6'
aS'5'
aa(lp65
S'root'
p66
aS'0'
aS'6'
aa(lp67
S'det'
p68
aS'10'
p69
aS'8'
aa(lp70
S'nn'
p71
aS'10'
p72
aS'9'
aa(lp73
S'prep_to'
p74
aS'6'
aS'10'
p75
aa(lp76
S'aux'
p77
aS'13'
p78
aS'11'
p79
aa(lp80
S'auxpass'
p81
aS'13'
p82
aS'12'
p83
aa(lp84
S'infmod'
p85
aS'6'
aS'13'
p86
aa(lp87
S'prep_in'
p88
aS'13'
p89
aS'15'
p90
aasS'srls'
p91
(lp92
(dp93
S'A1'
p94
S'Aircraft ceiling positive Integer Maximum distance to the earth surface'
p95
sS'AM-TMP'
p96
S'in kilometers'
p97
sS'V'
g33
sasS'pos_seq'
p98
(lp99
S'NN'
p100
aS'NN'
p101
aS'JJ'
p102
aS'NN'
p103
aS'NN'
p104
aS'NN'
p105
aS'TO'
p106
aS'DT'
p107
aS'NN'
p108
aS'NN'
p109
aS'TO'
p110
aS'VB'
p111
aS'VBN'
p112
aS'IN'
p113
aS'NNS'
p114
asS'ner_seq'
p115
(lp116
S'O'
aS'O'
aS'O'
aS'O'
aS'O'
aS'O'
aS'O'
aS'O'
aS'O'
aS'O'
aS'O'
aS'O'
aS'O'
aS'O'
aS'O'
assb.