ccopy_reg
_reconstructor
p1
(c__main__
KBproperty
p2
c__builtin__
object
p3
NtRp4
(dp5
S'comment'
p6
S''
sS'domain'
p7
S'Architectural Structure '
p8
sS'instances_count'
p9
S'130'
p10
sS'label'
p11
S'visitors per year'
p12
sS'range'
p13
S'non Negative Integer '
p14
sS'prop_uri'
p15
S"'http://dbpedia.org/ontology/visitorsPerYear'"
p16
sS'annotations'
p17
(dp18
S'bag_of_words'
p19
(lp20
S'Architectural'
p21
aS'Structure'
p22
aS'visitors'
p23
aS'per'
p24
aS'year'
p25
aS'non'
p26
aS'Negative'
p27
aS'Integer'
p28
asS'chunk_seq'
p29
(lp30
S'B-NP'
p31
aS'E-NP'
p32
aS'S-NP'
p33
aS'S-PP'
p34
aS'B-NP'
p35
aS'I-NP'
p36
aS'I-NP'
p37
aS'E-NP'
p38
asS'dep_seq'
p39
(lp40
(lp41
S'amod'
p42
aS'3'
aS'1'
aa(lp43
S'nn'
p44
aS'3'
aS'2'
aa(lp45
S'dep'
p46
aS'8'
aS'3'
aa(lp47
S'prep_per'
p48
aS'3'
aS'5'
aa(lp49
S'advmod'
p50
aS'8'
aS'6'
aa(lp51
S'amod'
p52
aS'8'
aS'7'
aa(lp53
S'root'
p54
aS'0'
aS'8'
aasS'srls'
p55
(lp56
sS'pos_seq'
p57
(lp58
S'JJ'
p59
aS'NN'
p60
aS'NNS'
p61
aS'IN'
p62
aS'NN'
p63
aS'RB'
p64
aS'JJ'
p65
aS'NN'
p66
asS'ner_seq'
p67
(lp68
S'O'
aS'O'
aS'O'
aS'O'
aS'O'
aS'O'
aS'B-MISC'
p69
aS'E-MISC'
p70
assb.