ccopy_reg
_reconstructor
p1
(c__main__
KBproperty
p2
c__builtin__
object
p3
NtRp4
(dp5
S'comment'
p6
S'Whether bags can be checked.'
p7
sS'domain'
p8
S'Station '
p9
sS'instances_count'
p10
S'891'
p11
sS'label'
p12
S'can baggage checked'
p13
sS'range'
p14
S'boolean '
p15
sS'prop_uri'
p16
S"'http://dbpedia.org/ontology/canBaggageChecked'"
p17
sS'annotations'
p18
(dp19
S'bag_of_words'
p20
(lp21
S'Station'
p22
aS'can'
p23
aS'baggage'
p24
aS'checked'
p25
aS'boolean'
p26
aS'Whether'
p27
aS'bags'
p28
aS'can'
p29
aS'be'
p30
aS'checked'
p31
aS'.'
asS'chunk_seq'
p32
(lp33
S'S-NP'
p34
aS'S-VP'
p35
aS'S-NP'
p36
aS'S-VP'
p37
aS'B-NP'
p38
aS'I-NP'
p39
aS'E-NP'
p40
aS'B-VP'
p41
aS'I-VP'
p42
aS'E-VP'
p43
aS'O'
asS'dep_seq'
p44
(lp45
(lp46
S'nsubj'
p47
aS'2'
aS'1'
aa(lp48
S'root'
p49
aS'0'
aS'2'
aa(lp50
S'nsubj'
p51
aS'4'
aS'3'
aa(lp52
S'ccomp'
p53
aS'2'
aS'4'
aa(lp54
S'amod'
p55
aS'7'
aS'5'
aa(lp56
S'nn'
p57
aS'7'
aS'6'
aa(lp58
S'nsubjpass'
p59
aS'10'
p60
aS'7'
aa(lp61
S'aux'
p62
aS'10'
p63
aS'8'
aa(lp64
S'auxpass'
p65
aS'10'
p66
aS'9'
aa(lp67
S'ccomp'
p68
aS'4'
aS'10'
p69
aasS'srls'
p70
(lp71
(dp72
S'A1'
p73
S'boolean Whether bags can be checked'
p74
sS'A0'
p75
S'Station baggage'
p76
sS'V'
g25
sS'AM-MOD'
p77
g23
sa(dp78
S'A1'
p79
S'boolean Whether bags'
p80
sS'V'
g31
sS'AM-MOD'
p81
g29
sasS'pos_seq'
p82
(lp83
S'NN'
p84
aS'MD'
p85
aS'NN'
p86
aS'VBD'
p87
aS'JJ'
p88
aS'NNP'
p89
aS'NNS'
p90
aS'MD'
p91
aS'VB'
p92
aS'VBN'
p93
aS'.'
asS'ner_seq'
p94
(lp95
S'O'
aS'O'
aS'O'
aS'O'
aS'O'
aS'O'
aS'O'
aS'O'
aS'O'
aS'O'
aS'O'
assb.