ccopy_reg
_reconstructor
p1
(c__main__
KBproperty
p2
c__builtin__
object
p3
NtRp4
(dp5
S'comment'
p6
S''
sS'domain'
p7
S'Supreme Court Of The United States Case '
p8
sS'instances_count'
p9
S'13'
p10
sS'label'
p11
S'argue date'
p12
sS'range'
p13
S'date '
p14
sS'prop_uri'
p15
S"'http://dbpedia.org/ontology/argueDate'"
p16
sS'annotations'
p17
(dp18
S'bag_of_words'
p19
(lp20
S'Supreme'
p21
aS'Court'
p22
aS'Of'
p23
aS'The'
p24
aS'United'
p25
aS'States'
p26
aS'Case'
p27
aS'argue'
p28
aS'date'
p29
aS'date'
p30
asS'chunk_seq'
p31
(lp32
S'B-NP'
p33
aS'E-NP'
p34
aS'S-PP'
p35
aS'B-NP'
p36
aS'I-NP'
p37
aS'I-NP'
p38
aS'E-NP'
p39
aS'S-VP'
p40
aS'B-NP'
p41
aS'E-NP'
p42
asS'dep_seq'
p43
(lp44
(lp45
S'nn'
p46
aS'2'
aS'1'
aa(lp47
S'nsubj'
p48
aS'8'
aS'2'
aa(lp49
S'det'
p50
aS'7'
aS'4'
aa(lp51
S'nn'
p52
aS'7'
aS'5'
aa(lp53
S'nn'
p54
aS'7'
aS'6'
aa(lp55
S'prep_of'
p56
aS'2'
aS'7'
aa(lp57
S'root'
p58
aS'0'
aS'8'
aa(lp59
S'nn'
p60
aS'10'
p61
aS'9'
aa(lp62
S'dobj'
p63
aS'8'
aS'10'
p64
aasS'srls'
p65
(lp66
(dp67
S'A0'
p68
S'Supreme Court Of The United States Case'
p69
sS'AM-TMP'
p70
S'date date'
p71
sS'V'
g28
sasS'pos_seq'
p72
(lp73
S'NNP'
p74
aS'NNP'
p75
aS'IN'
p76
aS'DT'
p77
aS'NNP'
p78
aS'NNP'
p79
aS'NNP'
p80
aS'VBP'
p81
aS'NN'
p82
aS'NN'
p83
asS'ner_seq'
p84
(lp85
S'O'
aS'B-ORG'
p86
aS'I-ORG'
p87
aS'I-ORG'
p88
aS'I-ORG'
p89
aS'I-ORG'
p90
aS'E-ORG'
p91
aS'O'
aS'O'
aS'O'
assb.