ccopy_reg
_reconstructor
p1
(c__main__
KBproperty
p2
c__builtin__
object
p3
NtRp4
(dp5
S'comment'
p6
S'total number of launches resulting in partial failure'
p7
sS'domain'
p8
S''
sS'instances_count'
p9
S'68'
p10
sS'label'
p11
S'partial failed launches'
p12
sS'range'
p13
S'non Negative Integer '
p14
sS'prop_uri'
p15
S"'http://dbpedia.org/ontology/partialFailedLaunches'"
p16
sS'annotations'
p17
(dp18
S'bag_of_words'
p19
(lp20
S'partial'
p21
aS'failed'
p22
aS'launches'
p23
aS'non'
p24
aS'Negative'
p25
aS'Integer'
p26
aS'total'
p27
aS'number'
p28
aS'of'
p29
aS'launches'
p30
aS'resulting'
p31
aS'in'
p32
aS'partial'
p33
aS'failure'
p34
asS'chunk_seq'
p35
(lp36
S'B-NP'
p37
aS'I-NP'
p38
aS'E-NP'
p39
aS'B-NP'
p40
aS'I-NP'
p41
aS'I-NP'
p42
aS'I-NP'
p43
aS'E-NP'
p44
aS'S-PP'
p45
aS'S-NP'
p46
aS'S-VP'
p47
aS'S-PP'
p48
aS'B-NP'
p49
aS'E-NP'
p50
asS'dep_seq'
p51
(lp52
(lp53
S'amod'
p54
aS'3'
aS'1'
aa(lp55
S'amod'
p56
aS'3'
aS'2'
aa(lp57
S'root'
p58
aS'0'
aS'3'
aa(lp59
S'advmod'
p60
aS'8'
aS'4'
aa(lp61
S'amod'
p62
aS'8'
aS'5'
aa(lp63
S'nn'
p64
aS'8'
aS'6'
aa(lp65
S'amod'
p66
aS'8'
aS'7'
aa(lp67
S'dep'
p68
aS'3'
aS'8'
aa(lp69
S'prep_of'
p70
aS'3'
aS'10'
p71
aa(lp72
S'partmod'
p73
aS'10'
p74
aS'11'
p75
aa(lp76
S'amod'
p77
aS'14'
p78
aS'13'
p79
aa(lp80
S'prep_in'
p81
aS'11'
p82
aS'14'
p83
aasS'srls'
p84
(lp85
(dp86
S'A1'
p87
g23
sS'V'
g22
sa(dp88
S'A2'
p89
S'in partial failure'
p90
sS'V'
g31
sasS'pos_seq'
p91
(lp92
S'JJ'
p93
aS'VBN'
p94
aS'NNS'
p95
aS'RB'
p96
aS'JJ'
p97
aS'NNP'
p98
aS'JJ'
p99
aS'NN'
p100
aS'IN'
p101
aS'NNS'
p102
aS'VBG'
p103
aS'IN'
p104
aS'JJ'
p105
aS'NN'
p106
asS'ner_seq'
p107
(lp108
S'O'
aS'O'
aS'O'
aS'O'
aS'O'
aS'O'
aS'O'
aS'O'
aS'O'
aS'O'
aS'O'
aS'O'
aS'O'
aS'O'
assb.