ccopy_reg
_reconstructor
p1
(c__main__
KBproperty
p2
c__builtin__
object
p3
NtRp4
(dp5
S'comment'
p6
S'http://www.w3.org/2001/XMLSchema#date'
p7
sS'domain'
p8
S'Organisation '
p9
sS'instances_count'
p10
S'0'
sS'label'
p11
g7
sS'range'
p12
S'Parish '
p13
sS'prop_uri'
p14
S"'http://dbpedia.org/ontology/membershipAsOf'"
p15
sS'annotations'
p16
(dp17
S'bag_of_words'
p18
(lp19
S'Organisation'
p20
aS'membership'
p21
aS'As'
p22
aS'Of'
p23
aS'Parish'
p24
aS'http'
p25
aS':'
aS'//'
p26
aS'www'
p27
aS'.'
aS'w3'
p28
aS'.org'
p29
aS'/2001'
p30
aS'/'
aS'XMLSchema'
p31
aS'#'
aS'date'
p32
asS'chunk_seq'
p33
(lp34
S'B-NP'
p35
aS'E-NP'
p36
aS'S-PP'
p37
aS'S-PP'
p38
aS'B-NP'
p39
aS'E-NP'
p40
aS'O'
aS'B-NP'
p41
aS'E-NP'
p42
aS'O'
aS'O'
aS'O'
aS'O'
aS'O'
aS'O'
aS'B-NP'
p43
aS'E-NP'
p44
asS'dep_seq'
p45
(lp46
(lp47
S'nn'
p48
aS'2'
aS'1'
aa(lp49
S'root'
p50
aS'0'
aS'2'
aa(lp51
S'prepc_as_of'
p52
aS'2'
aS'4'
aa(lp53
S'nn'
p54
aS'6'
aS'5'
aa(lp55
S'pobj'
p56
aS'2'
aS'6'
aa(lp57
S'nn'
p58
aS'9'
aS'8'
aa(lp59
S'dep'
p60
aS'2'
aS'9'
aa(lp61
S'dep'
p62
aS'13'
p63
aS'11'
p64
aa(lp65
S'dep'
p66
aS'13'
p67
aS'12'
p68
aa(lp69
S'dep'
p70
aS'2'
aS'13'
p71
aa(lp72
S'dep'
p73
aS'13'
p74
aS'14'
p75
aa(lp76
S'dep'
p77
aS'17'
p78
aS'15'
p79
aa(lp80
S'nn'
p81
aS'17'
p82
aS'16'
p83
aa(lp84
S'ccomp'
p85
aS'13'
p86
aS'17'
p87
aasS'srls'
p88
(lp89
sS'pos_seq'
p90
(lp91
S'NN'
p92
aS'NN'
p93
aS'IN'
p94
aS'IN'
p95
aS'NNP'
p96
aS'NN'
p97
aS':'
aS'NN'
p98
aS'NN'
p99
aS'.'
aS'FW'
p100
aS'FW'
p101
aS'FW'
p102
aS'FW'
p103
aS'FW'
p104
aS'FW'
p105
aS'NN'
p106
asS'ner_seq'
p107
(lp108
S'O'
aS'O'
aS'B-ORG'
p109
aS'I-ORG'
p110
aS'E-ORG'
p111
aS'O'
aS'O'
aS'O'
aS'O'
aS'O'
aS'O'
aS'O'
aS'O'
aS'O'
aS'O'
aS'O'
aS'O'
assb.