ccopy_reg
_reconstructor
p1
(c__main__
KBproperty
p2
c__builtin__
object
p3
NtRp4
(dp5
S'comment'
p6
S'discharge m3/s'
p7
sS'domain'
p8
S''
sS'instances_count'
p9
S'234'
p10
sS'label'
p11
g7
sS'range'
p12
S''
sS'prop_uri'
p13
S"'http://dbpedia.org/property/dischargeM3/s'"
p14
sS'annotations'
p15
(dp16
S'bag_of_words'
p17
(lp18
S's'
aS'discharge'
p19
aS'm3'
p20
aS'/s'
p21
asS'chunk_seq'
p22
(lp23
S'B-NP'
p24
aS'I-NP'
p25
aS'E-NP'
p26
aS'O'
asS'dep_seq'
p27
(lp28
(lp29
S'dep'
p30
aS'2'
aS'1'
aa(lp31
S'root'
p32
aS'0'
aS'2'
aa(lp33
S'dep'
p34
aS'2'
aS'3'
aa(lp35
S'punct'
p36
aS'3'
aS'4'
aasS'srls'
p37
(lp38
(dp39
S'A1'
p40
S'm3 /s'
p41
sS'V'
g19
sasS'pos_seq'
p42
(lp43
S'SYM'
p44
aS'NN'
p45
aS'NN'
p46
aS'.'
asS'ner_seq'
p47
(lp48
S'O'
aS'O'
aS'O'
aS'O'
assb.