ccopy_reg
_reconstructor
p1
(c__main__
KBproperty
p2
c__builtin__
object
p3
NtRp4
(dp5
S'comment'
p6
S'Serving temperature for the food e.g.: hot cold warm or room temperature.'
p7
sS'domain'
p8
S'Food '
p9
sS'instances_count'
p10
S'762'
p11
sS'label'
p12
S'serving temperature'
p13
sS'range'
p14
S'string '
p15
sS'prop_uri'
p16
S"'http://dbpedia.org/ontology/servingTemperature'"
p17
sS'annotations'
p18
(dp19
S'bag_of_words'
p20
(lp21
S'Food'
p22
aS'serving'
p23
aS'temperature'
p24
aS'string'
p25
aS'Serving'
p26
aS'temperature'
p27
aS'for'
p28
aS'the'
p29
aS'food'
p30
aS'e.g.'
p31
aS':'
aS'hot'
p32
aS'cold'
p33
aS'warm'
p34
aS'or'
p35
aS'room'
p36
aS'temperature'
p37
aS'.'
asS'chunk_seq'
p38
(lp39
S'S-NP'
p40
aS'S-VP'
p41
aS'B-NP'
p42
aS'E-NP'
p43
aS'S-VP'
p44
aS'S-NP'
p45
aS'S-PP'
p46
aS'B-NP'
p47
aS'E-NP'
p48
aS'S-ADVP'
p49
aS'O'
aS'B-NP'
p50
aS'I-NP'
p51
aS'I-NP'
p52
aS'I-NP'
p53
aS'I-NP'
p54
aS'E-NP'
p55
aS'O'
asS'dep_seq'
p56
(lp57
(lp58
S'nsubj'
p59
aS'2'
aS'1'
aa(lp60
S'root'
p61
aS'0'
aS'2'
aa(lp62
S'nn'
p63
aS'4'
aS'3'
aa(lp64
S'dobj'
p65
aS'2'
aS'4'
aa(lp66
S'partmod'
p67
aS'4'
aS'5'
aa(lp68
S'dobj'
p69
aS'5'
aS'6'
aa(lp70
S'det'
p71
aS'9'
aS'8'
aa(lp72
S'prep_for'
p73
aS'6'
aS'9'
aa(lp74
S'advmod'
p75
aS'5'
aS'10'
p76
aa(lp77
S'dep'
p78
aS'5'
aS'12'
p79
aa(lp80
S'amod'
p81
aS'14'
p82
aS'13'
p83
aa(lp84
S'dep'
p85
aS'12'
p86
aS'14'
p87
aa(lp88
S'nn'
p89
aS'17'
p90
aS'16'
p91
aa(lp92
S'conj_or'
p93
aS'12'
p94
aS'17'
p95
aasS'srls'
p96
(lp97
(dp98
S'A1'
p99
S'temperature string'
p100
sS'A0'
p101
g22
sS'V'
g23
sa(dp102
S'A1'
p103
g27
sS'A0'
p104
S'Food serving temperature string'
p105
sS'A3'
p106
S'for the food e.g.'
p107
sS'V'
g26
sasS'pos_seq'
p108
(lp109
S'NN'
p110
aS'VBG'
p111
aS'NN'
p112
aS'NN'
p113
aS'VBG'
p114
aS'NN'
p115
aS'IN'
p116
aS'DT'
p117
aS'NN'
p118
aS'RB'
p119
aS':'
aS'JJ'
p120
aS'JJ'
p121
aS'JJ'
p122
aS'CC'
p123
aS'NN'
p124
aS'NN'
p125
aS'.'
asS'ner_seq'
p126
(lp127
S'O'
aS'O'
aS'O'
aS'O'
aS'O'
aS'O'
aS'O'
aS'O'
aS'O'
aS'O'
aS'O'
aS'O'
aS'O'
aS'O'
aS'O'
aS'O'
aS'O'
aS'O'
assb.