ccopy_reg
_reconstructor
p1
(c__main__
KBproperty
p2
c__builtin__
object
p3
NtRp4
(dp5
S'comment'
p6
S'BIBSYS is a supplier of library and information systems for all Norwegian university Libraries the National Library of Norway college libraries and a number of research libraries and institutions.'
p7
sS'domain'
p8
S''
sS'instances_count'
p9
S'2'
sS'label'
p10
S'BIBSYS Id'
p11
sS'range'
p12
S'string '
p13
sS'prop_uri'
p14
S"'http://dbpedia.org/ontology/bibsysId'"
p15
sS'annotations'
p16
(dp17
S'bag_of_words'
p18
(lp19
S'BIBSYS'
p20
aS'Id'
p21
aS'string'
p22
aS'BIBSYS'
p23
aS'is'
p24
aS'a'
aS'supplier'
p25
aS'of'
p26
aS'library'
p27
aS'and'
p28
aS'information'
p29
aS'systems'
p30
aS'for'
p31
aS'all'
p32
aS'Norwegian'
p33
aS'university'
p34
aS'Libraries'
p35
aS'the'
p36
aS'National'
p37
aS'Library'
p38
aS'of'
p39
aS'Norway'
p40
aS'college'
p41
aS'libraries'
p42
aS'and'
p43
aS'a'
aS'number'
p44
aS'of'
p45
aS'research'
p46
aS'libraries'
p47
aS'and'
p48
aS'institutions'
p49
aS'.'
asS'chunk_seq'
p50
(lp51
S'B-NP'
p52
aS'I-NP'
p53
aS'I-NP'
p54
aS'E-NP'
p55
aS'S-VP'
p56
aS'B-NP'
p57
aS'E-NP'
p58
aS'S-PP'
p59
aS'B-NP'
p60
aS'I-NP'
p61
aS'I-NP'
p62
aS'E-NP'
p63
aS'S-PP'
p64
aS'B-NP'
p65
aS'I-NP'
p66
aS'I-NP'
p67
aS'E-NP'
p68
aS'B-NP'
p69
aS'I-NP'
p70
aS'E-NP'
p71
aS'S-PP'
p72
aS'S-NP'
p73
aS'B-NP'
p74
aS'E-NP'
p75
aS'O'
aS'B-NP'
p76
aS'E-NP'
p77
aS'S-PP'
p78
aS'B-NP'
p79
aS'I-NP'
p80
aS'I-NP'
p81
aS'E-NP'
p82
aS'O'
asS'dep_seq'
p83
(lp84
(lp85
S'nn'
p86
aS'4'
aS'1'
aa(lp87
S'nn'
p88
aS'4'
aS'2'
aa(lp89
S'nn'
p90
aS'4'
aS'3'
aa(lp91
S'nsubj'
p92
aS'7'
aS'4'
aa(lp93
S'cop'
p94
aS'7'
aS'5'
aa(lp95
S'det'
p96
aS'7'
aS'6'
aa(lp97
S'root'
p98
aS'0'
aS'7'
aa(lp99
S'nn'
p100
aS'12'
p101
aS'9'
aa(lp102
S'conj_and'
p103
aS'9'
aS'11'
p104
aa(lp105
S'prep_of'
p106
aS'7'
aS'12'
p107
aa(lp108
S'det'
p109
aS'17'
p110
aS'14'
p111
aa(lp112
S'amod'
p113
aS'17'
p114
aS'15'
p115
aa(lp116
S'nn'
p117
aS'17'
p118
aS'16'
p119
aa(lp120
S'prep_for'
p121
aS'7'
aS'17'
p122
aa(lp123
S'det'
p124
aS'20'
p125
aS'18'
p126
aa(lp127
S'nn'
p128
aS'20'
p129
aS'19'
p130
aa(lp131
S'dep'
p132
aS'7'
aS'20'
p133
aa(lp134
S'prep_of'
p135
aS'20'
p136
aS'22'
p137
aa(lp138
S'nn'
p139
aS'24'
p140
aS'23'
p141
aa(lp142
S'dep'
p143
aS'20'
p144
aS'24'
p145
aa(lp146
S'det'
p147
aS'27'
p148
aS'26'
p149
aa(lp150
S'conj_and'
p151
aS'7'
aS'27'
p152
aa(lp153
S'nn'
p154
aS'30'
p155
aS'29'
p156
aa(lp157
S'prep_of'
p158
aS'27'
p159
aS'30'
p160
aa(lp161
S'conj_and'
p162
aS'30'
p163
aS'32'
p164
aasS'srls'
p165
(lp166
sS'pos_seq'
p167
(lp168
S'NNP'
p169
aS'NNP'
p170
aS'NN'
p171
aS'NNP'
p172
aS'VBZ'
p173
aS'DT'
p174
aS'NN'
p175
aS'IN'
p176
aS'NN'
p177
aS'CC'
p178
aS'NN'
p179
aS'NNS'
p180
aS'IN'
p181
aS'DT'
p182
aS'JJ'
p183
aS'NN'
p184
aS'NNS'
p185
aS'DT'
p186
aS'NNP'
p187
aS'NNP'
p188
aS'IN'
p189
aS'NNP'
p190
aS'NN'
p191
aS'NNS'
p192
aS'CC'
p193
aS'DT'
p194
aS'NN'
p195
aS'IN'
p196
aS'NN'
p197
aS'NNS'
p198
aS'CC'
p199
aS'NNS'
p200
aS'.'
asS'ner_seq'
p201
(lp202
S'O'
aS'O'
aS'O'
aS'S-ORG'
p203
aS'O'
aS'O'
aS'O'
aS'O'
aS'O'
aS'O'
aS'O'
aS'O'
aS'O'
aS'O'
aS'S-MISC'
p204
aS'O'
aS'O'
aS'O'
aS'B-ORG'
p205
aS'E-ORG'
p206
aS'O'
aS'S-LOC'
p207
aS'O'
aS'O'
aS'O'
aS'O'
aS'O'
aS'O'
aS'O'
aS'O'
aS'O'
aS'O'
aS'O'
assb.