ccopy_reg
_reconstructor
p1
(c__main__
KBproperty
p2
c__builtin__
object
p3
NtRp4
(dp5
S'comment'
p6
S'The year in which number of visitors occurred.'
p7
sS'domain'
p8
S'Historic Place '
p9
sS'instances_count'
p10
S'96'
p11
sS'label'
p12
S'number of visitors as of'
p13
sS'range'
p14
S'g Year '
p15
sS'prop_uri'
p16
S"'http://dbpedia.org/ontology/numberOfVisitorsAsOf'"
p17
sS'annotations'
p18
(dp19
S'bag_of_words'
p20
(lp21
S'Historic'
p22
aS'Place'
p23
aS'number'
p24
aS'of'
p25
aS'visitors'
p26
aS'as'
p27
aS'of'
p28
aS'g'
aS'Year'
p29
aS'The'
p30
aS'year'
p31
aS'in'
p32
aS'which'
p33
aS'number'
p34
aS'of'
p35
aS'visitors'
p36
aS'occurred'
p37
aS'.'
asS'chunk_seq'
p38
(lp39
S'B-NP'
p40
aS'I-NP'
p41
aS'E-NP'
p42
aS'S-PP'
p43
aS'S-NP'
p44
aS'S-PP'
p45
aS'S-PP'
p46
aS'B-NP'
p47
aS'E-NP'
p48
aS'B-NP'
p49
aS'E-NP'
p50
aS'S-PP'
p51
aS'S-NP'
p52
aS'S-NP'
p53
aS'S-PP'
p54
aS'S-NP'
p55
aS'S-VP'
p56
aS'O'
asS'dep_seq'
p57
(lp58
(lp59
S'amod'
p60
aS'3'
aS'1'
aa(lp61
S'nn'
p62
aS'3'
aS'2'
aa(lp63
S'nsubj'
p64
aS'17'
p65
aS'3'
aa(lp66
S'prep_of'
p67
aS'3'
aS'5'
aa(lp68
S'prepc_as_of'
p69
aS'5'
aS'7'
aa(lp70
S'nn'
p71
aS'9'
aS'8'
aa(lp72
S'pobj'
p73
aS'5'
aS'9'
aa(lp74
S'det'
p75
aS'11'
p76
aS'10'
p77
aa(lp78
S'dep'
p79
aS'3'
aS'11'
p80
aa(lp81
S'dep'
p82
aS'14'
p83
aS'13'
p84
aa(lp85
S'prep_in'
p86
aS'11'
p87
aS'14'
p88
aa(lp89
S'prep_of'
p90
aS'14'
p91
aS'16'
p92
aa(lp93
S'root'
p94
aS'0'
aS'17'
p95
aasS'srls'
p96
(lp97
(dp98
S'A1'
p99
S'number of visitors'
p100
sS'AM-TMP'
p101
S'The year'
p102
sS'V'
g37
sasS'pos_seq'
p103
(lp104
S'JJ'
p105
aS'NN'
p106
aS'NN'
p107
aS'IN'
p108
aS'NNS'
p109
aS'IN'
p110
aS'IN'
p111
aS'NN'
p112
aS'NN'
p113
aS'DT'
p114
aS'NN'
p115
aS'IN'
p116
aS'WDT'
p117
aS'NN'
p118
aS'IN'
p119
aS'NNS'
p120
aS'VBD'
p121
aS'.'
asS'ner_seq'
p122
(lp123
S'O'
aS'O'
aS'O'
aS'O'
aS'O'
aS'O'
aS'O'
aS'O'
aS'O'
aS'O'
aS'O'
aS'O'
aS'O'
aS'O'
aS'O'
aS'O'
aS'O'
aS'O'
assb.