ccopy_reg
_reconstructor
p1
(c__main__
KBproperty
p2
c__builtin__
object
p3
NtRp4
(dp5
S'comment'
p6
S'A colour represented by its entity.'
p7
sS'domain'
p8
S''
sS'instances_count'
p9
S'7149'
p10
sS'label'
p11
S'colour'
p12
sS'range'
p13
S'Colour '
p14
sS'prop_uri'
p15
S"'http://dbpedia.org/ontology/colour'"
p16
sS'annotations'
p17
(dp18
S'bag_of_words'
p19
(lp20
S'colour'
p21
aS'Colour'
p22
aS'A'
aS'colour'
p23
aS'represented'
p24
aS'by'
p25
aS'its'
p26
aS'entity'
p27
aS'.'
asS'chunk_seq'
p28
(lp29
S'B-NP'
p30
aS'E-NP'
p31
aS'B-NP'
p32
aS'E-NP'
p33
aS'S-VP'
p34
aS'S-PP'
p35
aS'B-NP'
p36
aS'E-NP'
p37
aS'O'
asS'dep_seq'
p38
(lp39
(lp40
S'dep'
p41
aS'4'
aS'1'
aa(lp42
S'nn'
p43
aS'4'
aS'2'
aa(lp44
S'nn'
p45
aS'4'
aS'3'
aa(lp46
S'root'
p47
aS'0'
aS'4'
aa(lp48
S'partmod'
p49
aS'4'
aS'5'
aa(lp50
S'poss'
p51
aS'8'
aS'7'
aa(lp52
S'agent'
p53
aS'5'
aS'8'
aasS'srls'
p54
(lp55
(dp56
S'A1'
p57
S'A colour'
p58
sS'A0'
p59
S'by its entity'
p60
sS'V'
g24
sasS'pos_seq'
p61
(lp62
S'SYM'
p63
aS'NNP'
p64
aS'NNP'
p65
aS'NN'
p66
aS'VBN'
p67
aS'IN'
p68
aS'PRP$'
p69
aS'NN'
p70
aS'.'
asS'ner_seq'
p71
(lp72
S'O'
aS'O'
aS'O'
aS'O'
aS'O'
aS'O'
aS'O'
aS'O'
aS'O'
assb.