ccopy_reg
_reconstructor
p1
(c__main__
KBproperty
p2
c__builtin__
object
p3
NtRp4
(dp5
S'comment'
p6
S'Number of things eg vehicles sold in the US'
p7
sS'domain'
p8
S'Sales '
p9
sS'instances_count'
p10
S'1276'
p11
sS'label'
p12
S'US sales'
p13
sS'range'
p14
S'non Negative Integer '
p15
sS'prop_uri'
p16
S"'http://dbpedia.org/ontology/usSales'"
p17
sS'annotations'
p18
(dp19
S'bag_of_words'
p20
(lp21
S'Sales'
p22
aS'US'
p23
aS'sales'
p24
aS'non'
p25
aS'Negative'
p26
aS'Integer'
p27
aS'Number'
p28
aS'of'
p29
aS'things'
p30
aS'eg'
p31
aS'vehicles'
p32
aS'sold'
p33
aS'in'
p34
aS'the'
p35
aS'US'
p36
asS'chunk_seq'
p37
(lp38
S'S-NP'
p39
aS'B-NP'
p40
aS'E-NP'
p41
aS'B-NP'
p42
aS'I-NP'
p43
aS'I-NP'
p44
aS'E-NP'
p45
aS'S-PP'
p46
aS'S-NP'
p47
aS'B-NP'
p48
aS'E-NP'
p49
aS'S-VP'
p50
aS'S-PP'
p51
aS'B-NP'
p52
aS'E-NP'
p53
asS'dep_seq'
p54
(lp55
(lp56
S'nsubj'
p57
aS'3'
aS'1'
aa(lp58
S'dep'
p59
aS'3'
aS'2'
aa(lp60
S'root'
p61
aS'0'
aS'3'
aa(lp62
S'advmod'
p63
aS'5'
aS'4'
aa(lp64
S'amod'
p65
aS'7'
aS'5'
aa(lp66
S'nn'
p67
aS'7'
aS'6'
aa(lp68
S'dobj'
p69
aS'3'
aS'7'
aa(lp70
S'prep_of'
p71
aS'7'
aS'9'
aa(lp72
S'dobj'
p73
aS'12'
p74
aS'9'
aa(lp75
S'amod'
p76
aS'11'
p77
aS'10'
p78
aa(lp79
S'nsubj'
p80
aS'12'
p81
aS'11'
p82
aa(lp83
S'rcmod'
p84
aS'9'
aS'12'
p85
aa(lp86
S'det'
p87
aS'15'
p88
aS'14'
p89
aa(lp90
S'prep_in'
p91
aS'12'
p92
aS'15'
p93
aasS'srls'
p94
(lp95
(dp96
S'A1'
p97
S'things eg vehicles'
p98
sS'AM-LOC'
p99
S'in the US'
p100
sS'V'
g33
sasS'pos_seq'
p101
(lp102
S'NNS'
p103
aS'PRP'
p104
aS'NNS'
p105
aS'RB'
p106
aS'JJ'
p107
aS'NNP'
p108
aS'NNP'
p109
aS'IN'
p110
aS'NNS'
p111
aS'JJ'
p112
aS'NNS'
p113
aS'VBN'
p114
aS'IN'
p115
aS'DT'
p116
aS'PRP'
p117
asS'ner_seq'
p118
(lp119
S'O'
aS'S-LOC'
p120
aS'O'
aS'O'
aS'O'
aS'O'
aS'O'
aS'O'
aS'O'
aS'O'
aS'O'
aS'O'
aS'O'
aS'O'
aS'S-LOC'
p121
assb.