ccopy_reg
_reconstructor
p1
(c__main__
KBproperty
p2
c__builtin__
object
p3
NtRp4
(dp5
S'comment'
p6
S'Current use of the architectural structure if it is currently being used as anything other than its original purpose.'
p7
sS'domain'
p8
S'Architectural Structure '
p9
sS'instances_count'
p10
S'150'
p11
sS'label'
p12
S'currently used for'
p13
sS'range'
p14
S'string '
p15
sS'prop_uri'
p16
S"'http://dbpedia.org/ontology/currentlyUsedFor'"
p17
sS'annotations'
p18
(dp19
S'bag_of_words'
p20
(lp21
S'Architectural'
p22
aS'Structure'
p23
aS'currently'
p24
aS'used'
p25
aS'for'
p26
aS'string'
p27
aS'Current'
p28
aS'use'
p29
aS'of'
p30
aS'the'
p31
aS'architectural'
p32
aS'structure'
p33
aS'if'
p34
aS'it'
p35
aS'is'
p36
aS'currently'
p37
aS'being'
p38
aS'used'
p39
aS'as'
p40
aS'anything'
p41
aS'other'
p42
aS'than'
p43
aS'its'
p44
aS'original'
p45
aS'purpose'
p46
aS'.'
asS'chunk_seq'
p47
(lp48
S'B-NP'
p49
aS'E-NP'
p50
aS'B-VP'
p51
aS'E-VP'
p52
aS'S-PP'
p53
aS'B-NP'
p54
aS'I-NP'
p55
aS'E-NP'
p56
aS'S-PP'
p57
aS'B-NP'
p58
aS'I-NP'
p59
aS'E-NP'
p60
aS'S-SBAR'
p61
aS'S-NP'
p62
aS'B-VP'
p63
aS'I-VP'
p64
aS'I-VP'
p65
aS'E-VP'
p66
aS'S-PP'
p67
aS'S-NP'
p68
aS'S-ADJP'
p69
aS'S-PP'
p70
aS'B-NP'
p71
aS'I-NP'
p72
aS'E-NP'
p73
aS'O'
asS'dep_seq'
p74
(lp75
(lp76
S'nn'
p77
aS'2'
aS'1'
aa(lp78
S'root'
p79
aS'0'
aS'2'
aa(lp80
S'advmod'
p81
aS'4'
aS'3'
aa(lp82
S'partmod'
p83
aS'2'
aS'4'
aa(lp84
S'nn'
p85
aS'8'
aS'6'
aa(lp86
S'amod'
p87
aS'8'
aS'7'
aa(lp88
S'prep_for'
p89
aS'4'
aS'8'
aa(lp90
S'det'
p91
aS'12'
p92
aS'10'
p93
aa(lp94
S'amod'
p95
aS'12'
p96
aS'11'
p97
aa(lp98
S'prep_of'
p99
aS'8'
aS'12'
p100
aa(lp101
S'mark'
p102
aS'18'
p103
aS'13'
p104
aa(lp105
S'nsubjpass'
p106
aS'18'
p107
aS'14'
p108
aa(lp109
S'aux'
p110
aS'18'
p111
aS'15'
p112
aa(lp113
S'advmod'
p114
aS'18'
p115
aS'16'
p116
aa(lp117
S'auxpass'
p118
aS'18'
p119
aS'17'
p120
aa(lp121
S'dep'
p122
aS'2'
aS'18'
p123
aa(lp124
S'prep_as'
p125
aS'22'
p126
aS'20'
p127
aa(lp128
S'amod'
p129
aS'20'
p130
aS'21'
p131
aa(lp132
S'advmod'
p133
aS'18'
p134
aS'22'
p135
aa(lp136
S'poss'
p137
aS'25'
p138
aS'23'
p139
aa(lp140
S'amod'
p141
aS'25'
p142
aS'24'
p143
aa(lp144
S'pobj'
p145
aS'22'
p146
aS'25'
p147
aasS'srls'
p148
(lp149
(dp150
S'A0'
p151
S'Architectural Structure'
p152
sS'A2'
p153
S'for string Current use of the architectural structure'
p154
sS'AM-TMP'
p155
g24
sS'V'
g25
sa(dp156
S'A1'
p157
g35
sS'A2'
p158
S'as anything other than its original purpose'
p159
sS'AM-TMP'
p160
g37
sS'V'
g39
sasS'pos_seq'
p161
(lp162
S'NNP'
p163
aS'NNP'
p164
aS'RB'
p165
aS'VBN'
p166
aS'IN'
p167
aS'NN'
p168
aS'JJ'
p169
aS'NN'
p170
aS'IN'
p171
aS'DT'
p172
aS'JJ'
p173
aS'NN'
p174
aS'IN'
p175
aS'PRP'
p176
aS'VBZ'
p177
aS'RB'
p178
aS'VBG'
p179
aS'VBN'
p180
aS'IN'
p181
aS'NN'
p182
aS'JJ'
p183
aS'IN'
p184
aS'PRP$'
p185
aS'JJ'
p186
aS'NN'
p187
aS'.'
asS'ner_seq'
p188
(lp189
S'O'
aS'O'
aS'O'
aS'O'
aS'O'
aS'O'
aS'O'
aS'O'
aS'O'
aS'O'
aS'O'
aS'O'
aS'O'
aS'O'
aS'O'
aS'O'
aS'O'
aS'O'
aS'O'
aS'O'
aS'O'
aS'O'
aS'O'
aS'O'
aS'O'
aS'O'
assb.