ccopy_reg
_reconstructor
p1
(c__main__
KBproperty
p2
c__builtin__
object
p3
NtRp4
(dp5
S'comment'
p6
S'the previous municipality from which this one has been created or enlarged'
p7
sS'domain'
p8
S'Municipality '
p9
sS'instances_count'
p10
S'0'
sS'label'
p11
g7
sS'range'
p12
S'Former Municipality '
p13
sS'prop_uri'
p14
S"'http://dbpedia.org/ontology/hasAbsorbedMunicipality'"
p15
sS'annotations'
p16
(dp17
S'bag_of_words'
p18
(lp19
S'Municipality'
p20
aS'has'
p21
aS'Absorbed'
p22
aS'Municipality'
p23
aS'Former'
p24
aS'Municipality'
p25
aS'the'
p26
aS'previous'
p27
aS'municipality'
p28
aS'from'
p29
aS'which'
p30
aS'this'
p31
aS'one'
p32
aS'has'
p33
aS'been'
p34
aS'created'
p35
aS'or'
p36
aS'enlarged'
p37
asS'chunk_seq'
p38
(lp39
S'S-NP'
p40
aS'B-VP'
p41
aS'E-VP'
p42
aS'B-NP'
p43
aS'I-NP'
p44
aS'E-NP'
p45
aS'B-NP'
p46
aS'I-NP'
p47
aS'E-NP'
p48
aS'S-PP'
p49
aS'S-NP'
p50
aS'B-NP'
p51
aS'E-NP'
p52
aS'B-VP'
p53
aS'I-VP'
p54
aS'I-VP'
p55
aS'I-VP'
p56
aS'E-VP'
p57
asS'dep_seq'
p58
(lp59
(lp60
S'nsubj'
p61
aS'3'
aS'1'
aa(lp62
S'aux'
p63
aS'3'
aS'2'
aa(lp64
S'root'
p65
aS'0'
aS'3'
aa(lp66
S'nn'
p67
aS'6'
aS'4'
aa(lp68
S'nn'
p69
aS'6'
aS'5'
aa(lp70
S'dobj'
p71
aS'3'
aS'6'
aa(lp72
S'iobj'
p73
aS'3'
aS'6'
aa(lp74
S'det'
p75
aS'9'
aS'7'
aa(lp76
S'amod'
p77
aS'9'
aS'8'
aa(lp78
S'dobj'
p79
aS'3'
aS'9'
aa(lp80
S'dep'
p81
aS'6'
aS'9'
aa(lp82
S'prep_from'
p83
aS'16'
p84
aS'9'
aa(lp85
S'rel'
p86
aS'16'
p87
aS'10'
p88
aa(lp89
S'det'
p90
aS'13'
p91
aS'12'
p92
aa(lp93
S'nsubjpass'
p94
aS'16'
p95
aS'13'
p96
aa(lp97
S'aux'
p98
aS'16'
p99
aS'14'
p100
aa(lp101
S'auxpass'
p102
aS'16'
p103
aS'15'
p104
aa(lp105
S'rcmod'
p106
aS'9'
aS'16'
p107
aa(lp108
S'conj_or'
p109
aS'16'
p110
aS'18'
p111
aasS'srls'
p112
(lp113
(dp114
S'A1'
p115
S'Municipality Former Municipality the previous municipality from which this one has been created or enlarged'
p116
sS'A0'
p117
g20
sS'V'
g22
sa(dp118
S'A1'
p119
S'the previous municipality from which this one'
p120
sS'V'
g35
sasS'pos_seq'
p121
(lp122
S'NNP'
p123
aS'VBZ'
p124
aS'VBN'
p125
aS'NNP'
p126
aS'NNP'
p127
aS'NNP'
p128
aS'DT'
p129
aS'JJ'
p130
aS'NN'
p131
aS'IN'
p132
aS'WDT'
p133
aS'DT'
p134
aS'NN'
p135
aS'VBZ'
p136
aS'VBN'
p137
aS'VBN'
p138
aS'CC'
p139
aS'VBN'
p140
asS'ner_seq'
p141
(lp142
S'O'
aS'O'
aS'O'
aS'O'
aS'O'
aS'O'
aS'O'
aS'O'
aS'O'
aS'O'
aS'O'
aS'O'
aS'O'
aS'O'
aS'O'
aS'O'
aS'O'
aS'O'
assb.