ccopy_reg
_reconstructor
p1
(c__main__
KBproperty
p2
c__builtin__
object
p3
NtRp4
(dp5
S'comment'
p6
S'The rate and extent to which the active ingredient or active moiety is absorbed from a drug product and becomes available at the site of action. For drug products that are not intended to be absorbed into the bloodstream bioavailability may be assessed by measurements intended to reflect the rate and extent to which the active ingredient or active moiety becomes available at the site of action 21CFR320.1.'
p7
sS'domain'
p8
S'Drug '
p9
sS'instances_count'
p10
S'642'
p11
sS'label'
p12
S'Bioavailability'
p13
sS'range'
p14
S'float '
p15
sS'prop_uri'
p16
S"'http://dbpedia.org/ontology/bioavailability'"
p17
sS'annotations'
p18
(dp19
S'bag_of_words'
p20
(lp21
S'Drug'
p22
aS'Bioavailability'
p23
aS'float'
p24
aS'The'
p25
aS'rate'
p26
aS'and'
p27
aS'extent'
p28
aS'to'
p29
aS'which'
p30
aS'the'
p31
aS'active'
p32
aS'ingredient'
p33
aS'or'
p34
aS'active'
p35
aS'moiety'
p36
aS'is'
p37
aS'absorbed'
p38
aS'from'
p39
aS'a'
aS'drug'
p40
aS'product'
p41
aS'and'
p42
aS'becomes'
p43
aS'available'
p44
aS'at'
p45
aS'the'
p46
aS'site'
p47
aS'of'
p48
aS'action'
p49
aS'.'
aS'For'
p50
aS'drug'
p51
aS'products'
p52
aS'that'
p53
aS'are'
p54
aS'not'
p55
aS'intended'
p56
aS'to'
p57
aS'be'
p58
aS'absorbed'
p59
aS'into'
p60
aS'the'
p61
aS'bloodstream'
p62
aS'bioavailability'
p63
aS'may'
p64
aS'be'
p65
aS'assessed'
p66
aS'by'
p67
aS'measurements'
p68
aS'intended'
p69
aS'to'
p70
aS'reflect'
p71
aS'the'
p72
aS'rate'
p73
aS'and'
p74
aS'extent'
p75
aS'to'
p76
aS'which'
p77
aS'the'
p78
aS'active'
p79
aS'ingredient'
p80
aS'or'
p81
aS'active'
p82
aS'moiety'
p83
aS'becomes'
p84
aS'available'
p85
aS'at'
p86
aS'the'
p87
aS'site'
p88
aS'of'
p89
aS'action'
p90
aS'21CFR320.1'
p91
aS'.'
asS'chunk_seq'
p92
(lp93
S'B-NP'
p94
aS'E-NP'
p95
aS'S-VP'
p96
aS'B-NP'
p97
aS'I-NP'
p98
aS'I-NP'
p99
aS'E-NP'
p100
aS'S-PP'
p101
aS'S-NP'
p102
aS'B-NP'
p103
aS'I-NP'
p104
aS'E-NP'
p105
aS'O'
aS'B-NP'
p106
aS'E-NP'
p107
aS'B-VP'
p108
aS'E-VP'
p109
aS'S-PP'
p110
aS'B-NP'
p111
aS'I-NP'
p112
aS'E-NP'
p113
aS'O'
aS'S-VP'
p114
aS'S-ADJP'
p115
aS'S-PP'
p116
aS'B-NP'
p117
aS'E-NP'
p118
aS'S-PP'
p119
aS'S-NP'
p120
aS'O'
aS'S-PP'
p121
aS'B-NP'
p122
aS'E-NP'
p123
aS'S-NP'
p124
aS'B-VP'
p125
aS'I-VP'
p126
aS'I-VP'
p127
aS'I-VP'
p128
aS'I-VP'
p129
aS'E-VP'
p130
aS'S-PP'
p131
aS'B-NP'
p132
aS'I-NP'
p133
aS'E-NP'
p134
aS'B-VP'
p135
aS'I-VP'
p136
aS'E-VP'
p137
aS'S-PP'
p138
aS'S-NP'
p139
aS'B-VP'
p140
aS'I-VP'
p141
aS'E-VP'
p142
aS'B-NP'
p143
aS'I-NP'
p144
aS'I-NP'
p145
aS'E-NP'
p146
aS'S-PP'
p147
aS'S-NP'
p148
aS'B-NP'
p149
aS'I-NP'
p150
aS'E-NP'
p151
aS'O'
aS'B-NP'
p152
aS'E-NP'
p153
aS'S-VP'
p154
aS'S-ADJP'
p155
aS'S-PP'
p156
aS'B-NP'
p157
aS'E-NP'
p158
aS'S-PP'
p159
aS'S-NP'
p160
aS'S-NP'
p161
aS'O'
asS'dep_seq'
p162
(lp163
(lp164
S'nn'
p165
aS'2'
aS'1'
aa(lp166
S'nsubj'
p167
aS'3'
aS'2'
aa(lp168
S'root'
p169
aS'0'
aS'3'
aa(lp170
S'det'
p171
aS'5'
aS'4'
aa(lp172
S'prep_to'
p173
aS'17'
p174
aS'5'
aa(lp175
S'nsubjpass'
p176
aS'47'
p177
aS'5'
aa(lp178
S'conj_and'
p179
aS'5'
aS'7'
aa(lp180
S'rel'
p181
aS'17'
p182
aS'8'
aa(lp183
S'det'
p184
aS'12'
p185
aS'10'
p186
aa(lp187
S'amod'
p188
aS'12'
p189
aS'11'
p190
aa(lp191
S'nsubjpass'
p192
aS'17'
p193
aS'12'
p194
aa(lp195
S'amod'
p196
aS'15'
p197
aS'14'
p198
aa(lp199
S'conj_or'
p200
aS'12'
p201
aS'15'
p202
aa(lp203
S'auxpass'
p204
aS'17'
p205
aS'16'
p206
aa(lp207
S'rcmod'
p208
aS'5'
aS'17'
p209
aa(lp210
S'det'
p211
aS'21'
p212
aS'19'
p213
aa(lp214
S'nn'
p215
aS'21'
p216
aS'20'
p217
aa(lp218
S'prep_from'
p219
aS'17'
p220
aS'21'
p221
aa(lp222
S'cop'
p223
aS'24'
p224
aS'23'
p225
aa(lp226
S'conj_and'
p227
aS'17'
p228
aS'24'
p229
aa(lp230
S'det'
p231
aS'27'
p232
aS'26'
p233
aa(lp234
S'prep_at'
p235
aS'24'
p236
aS'27'
p237
aa(lp238
S'prep_of'
p239
aS'27'
p240
aS'29'
p241
aa(lp242
S'nn'
p243
aS'33'
p244
aS'32'
p245
aa(lp246
S'prep_for'
p247
aS'5'
aS'33'
p248
aa(lp249
S'nsubjpass'
p250
aS'37'
p251
aS'33'
p252
aa(lp253
S'xsubj'
p254
aS'40'
p255
aS'33'
p256
aa(lp257
S'auxpass'
p258
aS'37'
p259
aS'35'
p260
aa(lp261
S'neg'
p262
aS'37'
p263
aS'36'
p264
aa(lp265
S'rcmod'
p266
aS'33'
p267
aS'37'
p268
aa(lp269
S'aux'
p270
aS'40'
p271
aS'38'
p272
aa(lp273
S'auxpass'
p274
aS'40'
p275
aS'39'
p276
aa(lp277
S'xcomp'
p278
aS'37'
p279
aS'40'
p280
aa(lp281
S'det'
p282
aS'44'
p283
aS'42'
p284
aa(lp285
S'nn'
p286
aS'44'
p287
aS'43'
p288
aa(lp289
S'prep_into'
p290
aS'40'
p291
aS'44'
p292
aa(lp293
S'aux'
p294
aS'47'
p295
aS'45'
p296
aa(lp297
S'auxpass'
p298
aS'47'
p299
aS'46'
p300
aa(lp301
S'ccomp'
p302
aS'3'
aS'47'
p303
aa(lp304
S'agent'
p305
aS'47'
p306
aS'49'
p307
aa(lp308
S'partmod'
p309
aS'49'
p310
aS'50'
p311
aa(lp312
S'aux'
p313
aS'52'
p314
aS'51'
p315
aa(lp316
S'dep'
p317
aS'50'
p318
aS'52'
p319
aa(lp320
S'det'
p321
aS'54'
p322
aS'53'
p323
aa(lp324
S'dobj'
p325
aS'52'
p326
aS'54'
p327
aa(lp328
S'prep_to'
p329
aS'66'
p330
aS'54'
p331
aa(lp332
S'conj_and'
p333
aS'54'
p334
aS'56'
p335
aa(lp336
S'rel'
p337
aS'66'
p338
aS'57'
p339
aa(lp340
S'det'
p341
aS'61'
p342
aS'59'
p343
aa(lp344
S'amod'
p345
aS'61'
p346
aS'60'
p347
aa(lp348
S'nsubj'
p349
aS'66'
p350
aS'61'
p351
aa(lp352
S'amod'
p353
aS'64'
p354
aS'63'
p355
aa(lp356
S'conj_or'
p357
aS'61'
p358
aS'64'
p359
aa(lp360
S'cop'
p361
aS'66'
p362
aS'65'
p363
aa(lp364
S'rcmod'
p365
aS'54'
p366
aS'66'
p367
aa(lp368
S'det'
p369
aS'69'
p370
aS'68'
p371
aa(lp372
S'prep_at'
p373
aS'66'
p374
aS'69'
p375
aa(lp376
S'prep_of'
p377
aS'69'
p378
aS'71'
p379
aa(lp380
S'dep'
p381
aS'69'
p382
aS'72'
p383
aasS'srls'
p384
(lp385
(dp386
S'A1'
p387
S'The rate and extent to which the active ingredient or active moiety is absorbed from a drug product'
p388
sS'A0'
p389
S'Drug Bioavailability'
p390
sS'A4'
p391
S'For drug products that are not intended to be absorbed into the bloodstream bioavailability may be assessed by measurements intended to reflect the rate and extent to which the active ingredient or active moiety becomes available at the site of action 21CFR320.1'
p392
sS'V'
g24
sa(dp393
S'A1'
p394
S'the active ingredient or active moiety'
p395
sS'A2'
p396
S'from a drug product'
p397
sS'V'
g38
sa(dp398
S'A1'
p399
S'Drug Bioavailability  the active ingredient or active moiety'
p400
sS'A2'
p401
S'available at the site of action  For drug products that are not intended to be absorbed into the bloodstream bioavailability may be assessed by measurements intended to reflect the rate and extent to which the active ingredient or active moiety becomes available at the site of action 21CFR320.1'
p402
sS'V'
g43
sa(dp403
S'A1'
p404
S'to be absorbed into the bloodstream bioavailability'
p405
sS'A2'
p406
S'For drug products'
p407
sS'AM-NEG'
p408
g55
sS'R-A2'
p409
g53
sS'V'
g56
sa(dp410
S'A1'
p411
S'drug products'
p412
sS'A2'
p413
S'into the bloodstream bioavailability'
p414
sS'R-A1'
p415
g53
sS'V'
g59
sa(dp416
S'A1'
p417
S'For drug products that are not intended to be absorbed into the bloodstream bioavailability'
p418
sS'A0'
p419
S'by measurements intended to reflect the rate and extent to which the active ingredient or active moiety becomes available at the site of action 21CFR320.1'
p420
sS'V'
g66
sS'AM-MOD'
p421
g64
sa(dp422
S'A1'
p423
S'to reflect the rate and extent to which the active ingredient or active moiety becomes available at the site of action 21CFR320.1'
p424
sS'V'
g69
sa(dp425
S'A1'
p426
S'the rate and extent to which the active ingredient or active moiety becomes available at the site of action 21CFR320.1'
p427
sS'A2'
p428
S'the active ingredient or active moiety  the bloodstream bioavailability'
p429
sS'V'
g71
sa(dp430
S'A1'
p431
S'the active ingredient or active moiety'
p432
sS'A2'
p433
S'available at the site of action 21CFR320.1'
p434
sS'V'
g84
sasS'pos_seq'
p435
(lp436
S'NN'
p437
aS'NN'
p438
aS'VBP'
p439
aS'DT'
p440
aS'NN'
p441
aS'CC'
p442
aS'NN'
p443
aS'TO'
p444
aS'WDT'
p445
aS'DT'
p446
aS'JJ'
p447
aS'NN'
p448
aS'CC'
p449
aS'JJ'
p450
aS'NN'
p451
aS'VBZ'
p452
aS'VBN'
p453
aS'IN'
p454
aS'DT'
p455
aS'NN'
p456
aS'NN'
p457
aS'CC'
p458
aS'VBZ'
p459
aS'JJ'
p460
aS'IN'
p461
aS'DT'
p462
aS'NN'
p463
aS'IN'
p464
aS'NN'
p465
aS'.'
aS'IN'
p466
aS'NN'
p467
aS'NNS'
p468
aS'WDT'
p469
aS'VBP'
p470
aS'RB'
p471
aS'VBN'
p472
aS'TO'
p473
aS'VB'
p474
aS'VBN'
p475
aS'IN'
p476
aS'DT'
p477
aS'NN'
p478
aS'NN'
p479
aS'MD'
p480
aS'VB'
p481
aS'VBN'
p482
aS'IN'
p483
aS'NNS'
p484
aS'VBN'
p485
aS'TO'
p486
aS'VB'
p487
aS'DT'
p488
aS'NN'
p489
aS'CC'
p490
aS'NN'
p491
aS'TO'
p492
aS'WDT'
p493
aS'DT'
p494
aS'JJ'
p495
aS'NN'
p496
aS'CC'
p497
aS'JJ'
p498
aS'NN'
p499
aS'VBZ'
p500
aS'JJ'
p501
aS'IN'
p502
aS'DT'
p503
aS'NN'
p504
aS'IN'
p505
aS'NN'
p506
aS'NNP'
p507
aS'.'
asS'ner_seq'
p508
(lp509
S'O'
aS'O'
aS'O'
aS'O'
aS'O'
aS'O'
aS'O'
aS'O'
aS'O'
aS'O'
aS'O'
aS'O'
aS'O'
aS'O'
aS'O'
aS'O'
aS'O'
aS'O'
aS'O'
aS'O'
aS'O'
aS'O'
aS'O'
aS'O'
aS'O'
aS'O'
aS'O'
aS'O'
aS'O'
aS'O'
aS'O'
aS'O'
aS'O'
aS'O'
aS'O'
aS'O'
aS'O'
aS'O'
aS'O'
aS'O'
aS'O'
aS'O'
aS'O'
aS'O'
aS'O'
aS'O'
aS'O'
aS'O'
aS'O'
aS'O'
aS'O'
aS'O'
aS'O'
aS'O'
aS'O'
aS'O'
aS'O'
aS'O'
aS'O'
aS'O'
aS'O'
aS'O'
aS'O'
aS'O'
aS'O'
aS'O'
aS'O'
aS'O'
aS'O'
aS'O'
aS'O'
aS'S-ORG'
p510
aS'O'
assb.