ccopy_reg
_reconstructor
p1
(c__main__
KBproperty
p2
c__builtin__
object
p3
NtRp4
(dp5
S'comment'
p6
S'indicates another place situated north.'
p7
sS'domain'
p8
S'Place '
p9
sS'instances_count'
p10
S'0'
sS'label'
p11
S'north place'
p12
sS'range'
p13
S'Place '
p14
sS'prop_uri'
p15
S"'http://dbpedia.org/ontology/northPlace'"
p16
sS'annotations'
p17
(dp18
S'bag_of_words'
p19
(lp20
S'Place'
p21
aS'north'
p22
aS'place'
p23
aS'Place'
p24
aS'indicates'
p25
aS'another'
p26
aS'place'
p27
aS'situated'
p28
aS'north'
p29
aS'.'
asS'chunk_seq'
p30
(lp31
S'B-NP'
p32
aS'I-NP'
p33
aS'I-NP'
p34
aS'E-NP'
p35
aS'S-VP'
p36
aS'B-NP'
p37
aS'E-NP'
p38
aS'S-VP'
p39
aS'S-ADVP'
p40
aS'O'
asS'dep_seq'
p41
(lp42
(lp43
S'nsubj'
p44
aS'5'
aS'1'
aa(lp45
S'amod'
p46
aS'4'
aS'2'
aa(lp47
S'nn'
p48
aS'4'
aS'3'
aa(lp49
S'dep'
p50
aS'1'
aS'4'
aa(lp51
S'root'
p52
aS'0'
aS'5'
aa(lp53
S'det'
p54
aS'7'
aS'6'
aa(lp55
S'dobj'
p56
aS'5'
aS'7'
aa(lp57
S'partmod'
p58
aS'7'
aS'8'
aa(lp59
S'advmod'
p60
aS'8'
aS'9'
aasS'srls'
p61
(lp62
(dp63
S'A1'
p64
S'another place situated north'
p65
sS'A0'
p66
S'Place north place Place'
p67
sS'V'
g25
sa(dp68
S'A1'
p69
S'another place'
p70
sS'A2'
p71
g29
sS'V'
g28
sasS'pos_seq'
p72
(lp73
S'NN'
p74
aS'JJ'
p75
aS'NN'
p76
aS'NN'
p77
aS'VBZ'
p78
aS'DT'
p79
aS'NN'
p80
aS'VBN'
p81
aS'RB'
p82
aS'.'
asS'ner_seq'
p83
(lp84
S'O'
aS'O'
aS'O'
aS'O'
aS'O'
aS'O'
aS'O'
aS'O'
aS'O'
aS'O'
assb.