ccopy_reg
_reconstructor
p1
(c__main__
KBproperty
p2
c__builtin__
object
p3
NtRp4
(dp5
S'comment'
p6
S'A unique identifier for the drug in the Chemical Entities of Biological Interest ChEBI ontology'
p7
sS'domain'
p8
S'Drug '
p9
sS'instances_count'
p10
S'1276'
p11
sS'label'
p12
S'ChEBI'
p13
sS'range'
p14
S'string '
p15
sS'prop_uri'
p16
S"'http://dbpedia.org/ontology/chEBI'"
p17
sS'annotations'
p18
(dp19
S'bag_of_words'
p20
(lp21
S'Drug'
p22
aS'ChEBI'
p23
aS'string'
p24
aS'A'
aS'unique'
p25
aS'identifier'
p26
aS'for'
p27
aS'the'
p28
aS'drug'
p29
aS'in'
p30
aS'the'
p31
aS'Chemical'
p32
aS'Entities'
p33
aS'of'
p34
aS'Biological'
p35
aS'Interest'
p36
aS'ChEBI'
p37
aS'ontology'
p38
asS'chunk_seq'
p39
(lp40
S'B-NP'
p41
aS'I-NP'
p42
aS'E-NP'
p43
aS'B-NP'
p44
aS'I-NP'
p45
aS'E-NP'
p46
aS'S-PP'
p47
aS'B-NP'
p48
aS'E-NP'
p49
aS'S-PP'
p50
aS'B-NP'
p51
aS'I-NP'
p52
aS'E-NP'
p53
aS'S-PP'
p54
aS'B-NP'
p55
aS'I-NP'
p56
aS'I-NP'
p57
aS'E-NP'
p58
asS'dep_seq'
p59
(lp60
(lp61
S'nn'
p62
aS'3'
aS'1'
aa(lp63
S'nn'
p64
aS'3'
aS'2'
aa(lp65
S'dep'
p66
aS'6'
aS'3'
aa(lp67
S'det'
p68
aS'6'
aS'4'
aa(lp69
S'amod'
p70
aS'6'
aS'5'
aa(lp71
S'root'
p72
aS'0'
aS'6'
aa(lp73
S'det'
p74
aS'9'
aS'8'
aa(lp75
S'prep_for'
p76
aS'6'
aS'9'
aa(lp77
S'det'
p78
aS'13'
p79
aS'11'
p80
aa(lp81
S'nn'
p82
aS'13'
p83
aS'12'
p84
aa(lp85
S'prep_in'
p86
aS'6'
aS'13'
p87
aa(lp88
S'nn'
p89
aS'18'
p90
aS'15'
p91
aa(lp92
S'nn'
p93
aS'18'
p94
aS'16'
p95
aa(lp96
S'nn'
p97
aS'18'
p98
aS'17'
p99
aa(lp100
S'prep_of'
p101
aS'13'
p102
aS'18'
p103
aasS'srls'
p104
(lp105
sS'pos_seq'
p106
(lp107
S'NNP'
p108
aS'NNP'
p109
aS'NN'
p110
aS'DT'
p111
aS'JJ'
p112
aS'NN'
p113
aS'IN'
p114
aS'DT'
p115
aS'NN'
p116
aS'IN'
p117
aS'DT'
p118
aS'NNP'
p119
aS'NNPS'
p120
aS'IN'
p121
aS'NNP'
p122
aS'NNP'
p123
aS'NNP'
p124
aS'NN'
p125
asS'ner_seq'
p126
(lp127
S'B-MISC'
p128
aS'E-MISC'
p129
aS'O'
aS'O'
aS'O'
aS'O'
aS'O'
aS'O'
aS'O'
aS'O'
aS'O'
aS'B-ORG'
p130
aS'I-ORG'
p131
aS'I-ORG'
p132
aS'I-ORG'
p133
aS'I-ORG'
p134
aS'E-ORG'
p135
aS'O'
assb.