ccopy_reg
_reconstructor
p1
(c__main__
KBproperty
p2
c__builtin__
object
p3
NtRp4
(dp5
S'comment'
p6
S''
sS'domain'
p7
S'Soccer Club '
p8
sS'instances_count'
p9
S'67'
p10
sS'label'
p11
S'largest win'
p12
sS'range'
p13
S'string '
p14
sS'prop_uri'
p15
S"'http://dbpedia.org/ontology/largestWin'"
p16
sS'annotations'
p17
(dp18
S'bag_of_words'
p19
(lp20
S'Soccer'
p21
aS'Club'
p22
aS'largest'
p23
aS'win'
p24
aS'string'
p25
asS'chunk_seq'
p26
(lp27
S'B-NP'
p28
aS'I-NP'
p29
aS'I-NP'
p30
aS'I-NP'
p31
aS'E-NP'
p32
asS'dep_seq'
p33
(lp34
(lp35
S'nn'
p36
aS'5'
aS'1'
aa(lp37
S'nn'
p38
aS'5'
aS'2'
aa(lp39
S'amod'
p40
aS'5'
aS'3'
aa(lp41
S'dep'
p42
aS'5'
aS'4'
aa(lp43
S'root'
p44
aS'0'
aS'5'
aasS'srls'
p45
(lp46
(dp47
S'A1'
p48
g25
sS'A0'
p49
S'Soccer Club'
p50
sS'V'
g24
sasS'pos_seq'
p51
(lp52
S'NNP'
p53
aS'NNP'
p54
aS'JJS'
p55
aS'VBP'
p56
aS'NN'
p57
asS'ner_seq'
p58
(lp59
S'O'
aS'O'
aS'O'
aS'O'
aS'O'
assb.