ccopy_reg
_reconstructor
p1
(c__main__
KBproperty
p2
c__builtin__
object
p3
NtRp4
(dp5
S'comment'
p6
S'Name of the cultivar cultivated variety'
p7
sS'domain'
p8
S'Plant '
p9
sS'instances_count'
p10
S'18'
p11
sS'label'
p12
S'cultivar'
p13
sS'range'
p14
S'Cultivated Variety '
p15
sS'prop_uri'
p16
S"'http://dbpedia.org/ontology/cultivatedVariety'"
p17
sS'annotations'
p18
(dp19
S'bag_of_words'
p20
(lp21
S'Plant'
p22
aS'cultivar'
p23
aS'Cultivated'
p24
aS'Variety'
p25
aS'Name'
p26
aS'of'
p27
aS'the'
p28
aS'cultivar'
p29
aS'cultivated'
p30
aS'variety'
p31
asS'chunk_seq'
p32
(lp33
S'B-NP'
p34
aS'I-NP'
p35
aS'I-NP'
p36
aS'I-NP'
p37
aS'E-NP'
p38
aS'S-PP'
p39
aS'B-NP'
p40
aS'I-NP'
p41
aS'I-NP'
p42
aS'E-NP'
p43
asS'dep_seq'
p44
(lp45
(lp46
S'nn'
p47
aS'5'
aS'1'
aa(lp48
S'nn'
p49
aS'5'
aS'2'
aa(lp50
S'nn'
p51
aS'5'
aS'3'
aa(lp52
S'nn'
p53
aS'5'
aS'4'
aa(lp54
S'root'
p55
aS'0'
aS'5'
aa(lp56
S'det'
p57
aS'10'
p58
aS'7'
aa(lp59
S'nn'
p60
aS'10'
p61
aS'8'
aa(lp62
S'amod'
p63
aS'10'
p64
aS'9'
aa(lp65
S'prep_of'
p66
aS'5'
aS'10'
p67
aasS'srls'
p68
(lp69
(dp70
S'A1'
p71
g31
sS'A0'
p72
S'Plant cultivar Cultivated Variety Name of the cultivar'
p73
sS'V'
g30
sasS'pos_seq'
p74
(lp75
S'NN'
p76
aS'NN'
p77
aS'NNP'
p78
aS'NNP'
p79
aS'NNP'
p80
aS'IN'
p81
aS'DT'
p82
aS'NN'
p83
aS'VBN'
p84
aS'NN'
p85
asS'ner_seq'
p86
(lp87
S'O'
aS'O'
aS'O'
aS'O'
aS'O'
aS'O'
aS'O'
aS'O'
aS'O'
aS'O'
assb.