ccopy_reg
_reconstructor
p1
(c__main__
KBproperty
p2
c__builtin__
object
p3
NtRp4
(dp5
S'comment'
p6
S''
sS'domain'
p7
S'Boxer '
p8
sS'instances_count'
p9
S'0'
sS'label'
p10
S'fight'
p11
sS'range'
p12
S'non Negative Integer '
p13
sS'prop_uri'
p14
S"'http://dbpedia.org/ontology/fight'"
p15
sS'annotations'
p16
(dp17
S'bag_of_words'
p18
(lp19
S'Boxer'
p20
aS'fight'
p21
aS'non'
p22
aS'Negative'
p23
aS'Integer'
p24
asS'chunk_seq'
p25
(lp26
S'O'
aS'S-VP'
p27
aS'B-NP'
p28
aS'I-NP'
p29
aS'E-NP'
p30
asS'dep_seq'
p31
(lp32
(lp33
S'dep'
p34
aS'2'
aS'1'
aa(lp35
S'root'
p36
aS'0'
aS'2'
aa(lp37
S'amod'
p38
aS'5'
aS'3'
aa(lp39
S'amod'
p40
aS'5'
aS'4'
aa(lp41
S'dobj'
p42
aS'2'
aS'5'
aasS'srls'
p43
(lp44
(dp45
S'A1'
p46
S'non Negative Integer'
p47
sS'A0'
p48
g20
sS'V'
g21
sasS'pos_seq'
p49
(lp50
S'NNP'
p51
aS'VB'
p52
aS'JJ'
p53
aS'JJ'
p54
aS'NN'
p55
asS'ner_seq'
p56
(lp57
S'O'
aS'O'
aS'O'
aS'B-MISC'
p58
aS'E-MISC'
p59
assb.