ccopy_reg
_reconstructor
p1
(c__main__
KBproperty
p2
c__builtin__
object
p3
NtRp4
(dp5
S'comment'
p6
S'Assets and liabilities are part of a companis balance sheet. In financial accounting assets are economic resources. Anything tangible or intangible that is capable of being owned or controlled to produce value and that is held to have positive economic value is considered an asset.'
p7
sS'domain'
p8
S'Company '
p9
sS'instances_count'
p10
S'3592'
p11
sS'label'
p12
S'assets $'
p13
sS'range'
p14
S'double '
p15
sS'prop_uri'
p16
S"'http://dbpedia.org/ontology/assets'"
p17
sS'annotations'
p18
(dp19
S'bag_of_words'
p20
(lp21
S'Company'
p22
aS'assets'
p23
aS'$'
aS'double'
p24
aS'Assets'
p25
aS'and'
p26
aS'liabilities'
p27
aS'are'
p28
aS'part'
p29
aS'of'
p30
aS'a'
aS'companis'
p31
aS'balance'
p32
aS'sheet'
p33
aS'.'
aS'In'
p34
aS'financial'
p35
aS'accounting'
p36
aS'assets'
p37
aS'are'
p38
aS'economic'
p39
aS'resources'
p40
aS'.'
aS'Anything'
p41
aS'tangible'
p42
aS'or'
p43
aS'intangible'
p44
aS'that'
p45
aS'is'
p46
aS'capable'
p47
aS'of'
p48
aS'being'
p49
aS'owned'
p50
aS'or'
p51
aS'controlled'
p52
aS'to'
p53
aS'produce'
p54
aS'value'
p55
aS'and'
p56
aS'that'
p57
aS'is'
p58
aS'held'
p59
aS'to'
p60
aS'have'
p61
aS'positive'
p62
aS'economic'
p63
aS'value'
p64
aS'is'
p65
aS'considered'
p66
aS'an'
p67
aS'asset'
p68
aS'.'
asS'chunk_seq'
p69
(lp70
S'B-NP'
p71
aS'E-NP'
p72
aS'B-NP'
p73
aS'I-NP'
p74
aS'I-NP'
p75
aS'I-NP'
p76
aS'E-NP'
p77
aS'S-VP'
p78
aS'S-NP'
p79
aS'S-PP'
p80
aS'B-NP'
p81
aS'I-NP'
p82
aS'I-NP'
p83
aS'E-NP'
p84
aS'O'
aS'S-PP'
p85
aS'B-NP'
p86
aS'I-NP'
p87
aS'E-NP'
p88
aS'S-VP'
p89
aS'B-NP'
p90
aS'E-NP'
p91
aS'O'
aS'S-NP'
p92
aS'B-ADJP'
p93
aS'I-ADJP'
p94
aS'E-ADJP'
p95
aS'S-NP'
p96
aS'S-VP'
p97
aS'S-ADJP'
p98
aS'S-PP'
p99
aS'B-VP'
p100
aS'I-VP'
p101
aS'I-VP'
p102
aS'E-VP'
p103
aS'B-VP'
p104
aS'E-VP'
p105
aS'S-NP'
p106
aS'O'
aS'S-NP'
p107
aS'B-VP'
p108
aS'I-VP'
p109
aS'I-VP'
p110
aS'E-VP'
p111
aS'B-NP'
p112
aS'I-NP'
p113
aS'E-NP'
p114
aS'B-VP'
p115
aS'E-VP'
p116
aS'B-NP'
p117
aS'E-NP'
p118
aS'O'
asS'dep_seq'
p119
(lp120
(lp121
S'dep'
p122
aS'2'
aS'1'
aa(lp123
S'csubj'
p124
aS'22'
p125
aS'2'
aa(lp126
S'amod'
p127
aS'5'
aS'3'
aa(lp128
S'dep'
p129
aS'3'
aS'4'
aa(lp130
S'nsubj'
p131
aS'9'
aS'5'
aa(lp132
S'conj_and'
p133
aS'5'
aS'7'
aa(lp134
S'cop'
p135
aS'9'
aS'8'
aa(lp136
S'ccomp'
p137
aS'2'
aS'9'
aa(lp138
S'det'
p139
aS'14'
p140
aS'11'
p141
aa(lp142
S'amod'
p143
aS'14'
p144
aS'12'
p145
aa(lp146
S'nn'
p147
aS'14'
p148
aS'13'
p149
aa(lp150
S'prep_of'
p151
aS'9'
aS'14'
p152
aa(lp153
S'amod'
p154
aS'19'
p155
aS'17'
p156
aa(lp157
S'nn'
p158
aS'19'
p159
aS'18'
p160
aa(lp161
S'prep_in'
p162
aS'9'
aS'19'
p163
aa(lp164
S'cop'
p165
aS'22'
p166
aS'20'
p167
aa(lp168
S'amod'
p169
aS'22'
p170
aS'21'
p171
aa(lp172
S'csubjpass'
p173
aS'49'
p174
aS'22'
p175
aa(lp176
S'dobj'
p177
aS'22'
p178
aS'24'
p179
aa(lp180
S'nsubj'
p181
aS'30'
p182
aS'24'
p183
aa(lp184
S'amod'
p185
aS'24'
p186
aS'25'
p187
aa(lp188
S'conj_or'
p189
aS'24'
p190
aS'27'
p191
aa(lp192
S'cop'
p193
aS'30'
p194
aS'29'
p195
aa(lp196
S'rcmod'
p197
aS'24'
p198
aS'30'
p199
aa(lp200
S'auxpass'
p201
aS'33'
p202
aS'32'
p203
aa(lp204
S'prepc_of'
p205
aS'30'
p206
aS'33'
p207
aa(lp208
S'conj_or'
p209
aS'33'
p210
aS'35'
p211
aa(lp212
S'aux'
p213
aS'37'
p214
aS'36'
p215
aa(lp216
S'xcomp'
p217
aS'35'
p218
aS'37'
p219
aa(lp220
S'dobj'
p221
aS'37'
p222
aS'38'
p223
aa(lp224
S'nsubjpass'
p225
aS'42'
p226
aS'40'
p227
aa(lp228
S'xsubj'
p229
aS'44'
p230
aS'40'
p231
aa(lp232
S'auxpass'
p233
aS'42'
p234
aS'41'
p235
aa(lp236
S'conj_and'
p237
aS'49'
p238
aS'42'
p239
aa(lp240
S'csubjpass'
p241
aS'49'
p242
aS'42'
p243
aa(lp244
S'aux'
p245
aS'44'
p246
aS'43'
p247
aa(lp248
S'xcomp'
p249
aS'42'
p250
aS'44'
p251
aa(lp252
S'amod'
p253
aS'47'
p254
aS'45'
p255
aa(lp256
S'amod'
p257
aS'47'
p258
aS'46'
p259
aa(lp260
S'dobj'
p261
aS'44'
p262
aS'47'
p263
aa(lp264
S'auxpass'
p265
aS'49'
p266
aS'48'
p267
aa(lp268
S'root'
p269
aS'0'
aS'49'
p270
aa(lp271
S'det'
p272
aS'51'
p273
aS'50'
p274
aa(lp275
S'dobj'
p276
aS'49'
p277
aS'51'
p278
aasS'srls'
p279
(lp280
(dp281
S'A1'
p282
S'Anything tangible or intangible'
p283
sS'R-A1'
p284
g45
sS'V'
g50
sa(dp285
S'A1'
p286
S'Anything tangible or intangible'
p287
sS'R-A1'
p288
g45
sS'AM-PNC'
p289
S'to produce value'
p290
sS'V'
g52
sa(dp291
S'A1'
p292
g55
sS'A0'
p293
S'Anything tangible or intangible that is capable of being owned or controlled'
p294
sS'V'
g54
sa(dp295
S'A1'
p296
g57
sS'C-A1'
p297
S'to have positive economic value'
p298
sS'V'
g59
sa(dp299
S'A1'
p300
S'positive economic value'
p301
sS'A0'
p302
g57
sS'V'
g61
sa(dp303
S'A2'
p304
S'Anything tangible or intangible that is capable of being owned or controlled to produce value and that is held to have positive economic value  an asset'
p305
sS'V'
g66
sasS'pos_seq'
p306
(lp307
S'NN'
p308
aS'NNS'
p309
aS'$'
aS'JJ'
p310
aS'NNS'
p311
aS'CC'
p312
aS'NNS'
p313
aS'VBP'
p314
aS'NN'
p315
aS'IN'
p316
aS'DT'
p317
aS'JJ'
p318
aS'NN'
p319
aS'NN'
p320
aS'.'
aS'IN'
p321
aS'JJ'
p322
aS'NN'
p323
aS'NNS'
p324
aS'VBP'
p325
aS'JJ'
p326
aS'NNS'
p327
aS'.'
aS'NN'
p328
aS'JJ'
p329
aS'CC'
p330
aS'JJ'
p331
aS'WDT'
p332
aS'VBZ'
p333
aS'JJ'
p334
aS'IN'
p335
aS'VBG'
p336
aS'VBN'
p337
aS'CC'
p338
aS'VBN'
p339
aS'TO'
p340
aS'VB'
p341
aS'NN'
p342
aS'CC'
p343
aS'DT'
p344
aS'VBZ'
p345
aS'VBN'
p346
aS'TO'
p347
aS'VB'
p348
aS'JJ'
p349
aS'JJ'
p350
aS'NN'
p351
aS'VBZ'
p352
aS'VBN'
p353
aS'DT'
p354
aS'NN'
p355
aS'.'
asS'ner_seq'
p356
(lp357
S'O'
aS'O'
aS'O'
aS'O'
aS'O'
aS'O'
aS'O'
aS'O'
aS'O'
aS'O'
aS'O'
aS'O'
aS'O'
aS'O'
aS'O'
aS'O'
aS'O'
aS'O'
aS'O'
aS'O'
aS'O'
aS'O'
aS'O'
aS'O'
aS'O'
aS'O'
aS'O'
aS'O'
aS'O'
aS'O'
aS'O'
aS'O'
aS'O'
aS'O'
aS'O'
aS'O'
aS'O'
aS'O'
aS'O'
aS'O'
aS'O'
aS'O'
aS'O'
aS'O'
aS'O'
aS'O'
aS'O'
aS'O'
aS'O'
aS'O'
aS'O'
aS'O'
assb.