ccopy_reg
_reconstructor
p1
(c__main__
KBproperty
p2
c__builtin__
object
p3
NtRp4
(dp5
S'comment'
p6
S''
sS'domain'
p7
S'Tennis Player '
p8
sS'instances_count'
p9
S'0'
sS'label'
p10
S'final lost single'
p11
sS'range'
p12
S'string '
p13
sS'prop_uri'
p14
S"'http://dbpedia.org/ontology/finalLostSingle'"
p15
sS'annotations'
p16
(dp17
S'bag_of_words'
p18
(lp19
S'Tennis'
p20
aS'Player'
p21
aS'final'
p22
aS'lost'
p23
aS'single'
p24
aS'string'
p25
asS'chunk_seq'
p26
(lp27
S'B-NP'
p28
aS'I-NP'
p29
aS'E-NP'
p30
aS'S-VP'
p31
aS'B-NP'
p32
aS'E-NP'
p33
asS'dep_seq'
p34
(lp35
(lp36
S'nn'
p37
aS'2'
aS'1'
aa(lp38
S'nsubj'
p39
aS'4'
aS'2'
aa(lp40
S'amod'
p41
aS'2'
aS'3'
aa(lp42
S'root'
p43
aS'0'
aS'4'
aa(lp44
S'amod'
p45
aS'6'
aS'5'
aa(lp46
S'dobj'
p47
aS'4'
aS'6'
aasS'srls'
p48
(lp49
(dp50
S'A1'
p51
S'single string'
p52
sS'A0'
p53
S'Tennis Player final'
p54
sS'V'
g23
sasS'pos_seq'
p55
(lp56
S'NNP'
p57
aS'NNP'
p58
aS'JJ'
p59
aS'VBN'
p60
aS'JJ'
p61
aS'NN'
p62
asS'ner_seq'
p63
(lp64
S'O'
aS'O'
aS'O'
aS'O'
aS'O'
aS'O'
assb.