ccopy_reg
_reconstructor
p1
(c__main__
KBproperty
p2
c__builtin__
object
p3
NtRp4
(dp5
S'comment'
p6
S'The original language of the work.'
p7
sS'domain'
p8
S'Work '
p9
sS'instances_count'
p10
S'438'
p11
sS'label'
p12
S'original language'
p13
sS'range'
p14
S'Language '
p15
sS'prop_uri'
p16
S"'http://dbpedia.org/ontology/originalLanguage'"
p17
sS'annotations'
p18
(dp19
S'bag_of_words'
p20
(lp21
S'Work'
p22
aS'original'
p23
aS'language'
p24
aS'Language'
p25
aS'The'
p26
aS'original'
p27
aS'language'
p28
aS'of'
p29
aS'the'
p30
aS'work.'
p31
asS'chunk_seq'
p32
(lp33
S'S-VP'
p34
aS'B-NP'
p35
aS'I-NP'
p36
aS'E-NP'
p37
aS'B-NP'
p38
aS'I-NP'
p39
aS'E-NP'
p40
aS'S-PP'
p41
aS'B-NP'
p42
aS'E-NP'
p43
asS'dep_seq'
p44
(lp45
(lp46
S'root'
p47
aS'0'
aS'1'
aa(lp48
S'amod'
p49
aS'4'
aS'2'
aa(lp50
S'nn'
p51
aS'4'
aS'3'
aa(lp52
S'iobj'
p53
aS'1'
aS'4'
aa(lp54
S'nn'
p55
aS'7'
aS'5'
aa(lp56
S'amod'
p57
aS'7'
aS'6'
aa(lp58
S'dobj'
p59
aS'1'
aS'7'
aa(lp60
S'det'
p61
aS'10'
p62
aS'9'
aa(lp63
S'prep_of'
p64
aS'7'
aS'10'
p65
aasS'srls'
p66
(lp67
(dp68
S'A1'
p69
S'original language Language The original language of the work.'
p70
sS'V'
g22
sasS'pos_seq'
p71
(lp72
S'VB'
p73
aS'JJ'
p74
aS'NN'
p75
aS'NNP'
p76
aS'NNP'
p77
aS'JJ'
p78
aS'NN'
p79
aS'IN'
p80
aS'DT'
p81
aS'NNS'
p82
asS'ner_seq'
p83
(lp84
S'O'
aS'O'
aS'O'
aS'O'
aS'O'
aS'O'
aS'O'
aS'O'
aS'O'
aS'O'
assb.