ccopy_reg
_reconstructor
p1
(c__main__
KBproperty
p2
c__builtin__
object
p3
NtRp4
(dp5
S'comment'
p6
S'number of contries inside en continent'
p7
sS'domain'
p8
S'Continent '
p9
sS'instances_count'
p10
S'0'
sS'label'
p11
g7
sS'range'
p12
S'non Negative Integer '
p13
sS'prop_uri'
p14
S"'http://dbpedia.org/ontology/numberOfCity'"
p15
sS'annotations'
p16
(dp17
S'bag_of_words'
p18
(lp19
S'Continent'
p20
aS'number'
p21
aS'Of'
p22
aS'City'
p23
aS'non'
p24
aS'Negative'
p25
aS'Integer'
p26
aS'number'
p27
aS'of'
p28
aS'contries'
p29
aS'inside'
p30
aS'en'
p31
aS'continent'
p32
asS'chunk_seq'
p33
(lp34
S'B-NP'
p35
aS'E-NP'
p36
aS'S-PP'
p37
aS'B-NP'
p38
aS'I-NP'
p39
aS'I-NP'
p40
aS'I-NP'
p41
aS'E-NP'
p42
aS'S-PP'
p43
aS'S-NP'
p44
aS'S-PP'
p45
aS'B-NP'
p46
aS'E-NP'
p47
asS'dep_seq'
p48
(lp49
(lp50
S'nn'
p51
aS'2'
aS'1'
aa(lp52
S'root'
p53
aS'0'
aS'2'
aa(lp54
S'nn'
p55
aS'8'
aS'4'
aa(lp56
S'amod'
p57
aS'8'
aS'5'
aa(lp58
S'nn'
p59
aS'8'
aS'6'
aa(lp60
S'nn'
p61
aS'8'
aS'7'
aa(lp62
S'prep_of'
p63
aS'2'
aS'8'
aa(lp64
S'prep_of'
p65
aS'8'
aS'10'
p66
aa(lp67
S'amod'
p68
aS'13'
p69
aS'12'
p70
aa(lp71
S'prep_inside'
p72
aS'10'
p73
aS'13'
p74
aasS'srls'
p75
(lp76
sS'pos_seq'
p77
(lp78
S'NN'
p79
aS'NN'
p80
aS'IN'
p81
aS'NNP'
p82
aS'JJ'
p83
aS'NNP'
p84
aS'NNP'
p85
aS'NN'
p86
aS'IN'
p87
aS'NNS'
p88
aS'IN'
p89
aS'IN'
p90
aS'NN'
p91
asS'ner_seq'
p92
(lp93
S'O'
aS'O'
aS'B-LOC'
p94
aS'E-LOC'
p95
aS'O'
aS'O'
aS'O'
aS'O'
aS'O'
aS'O'
aS'O'
aS'O'
aS'O'
assb.