ccopy_reg
_reconstructor
p1
(c__main__
KBproperty
p2
c__builtin__
object
p3
NtRp4
(dp5
S'comment'
p6
S'distance to London \\xce\\xbc'
p7
sS'domain'
p8
S'Settlement '
p9
sS'instances_count'
p10
S'3260'
p11
sS'label'
p12
g7
sS'range'
p13
S'double '
p14
sS'prop_uri'
p15
S"'http://dbpedia.org/ontology/distanceToLondon'"
p16
sS'annotations'
p17
(dp18
S'bag_of_words'
p19
(lp20
S'Settlement'
p21
aS'distance'
p22
aS'To'
p23
aS'London'
p24
aS'double'
p25
aS'distance'
p26
aS'to'
p27
aS'London'
p28
aS'\\'
aS'xce'
p29
aS'\\'
aS'xbc'
p30
asS'chunk_seq'
p31
(lp32
S'B-NP'
p33
aS'E-NP'
p34
aS'S-PP'
p35
aS'B-NP'
p36
aS'I-NP'
p37
aS'E-NP'
p38
aS'S-PP'
p39
aS'S-NP'
p40
aS'O'
aS'O'
aS'O'
aS'O'
asS'dep_seq'
p41
(lp42
(lp43
S'nn'
p44
aS'2'
aS'1'
aa(lp45
S'nsubj'
p46
aS'9'
aS'2'
aa(lp47
S'prep_to'
p48
aS'2'
aS'4'
aa(lp49
S'amod'
p50
aS'6'
aS'5'
aa(lp51
S'nsubj'
p52
aS'9'
aS'6'
aa(lp53
S'prep_to'
p54
aS'6'
aS'8'
aa(lp55
S'root'
p56
aS'0'
aS'9'
aa(lp57
S'dep'
p58
aS'12'
p59
aS'10'
p60
aa(lp61
S'dep'
p62
aS'12'
p63
aS'11'
p64
aa(lp65
S'dep'
p66
aS'9'
aS'12'
p67
aasS'srls'
p68
(lp69
sS'pos_seq'
p70
(lp71
S'NN'
p72
aS'NN'
p73
aS'TO'
p74
aS'NNP'
p75
aS'JJ'
p76
aS'NN'
p77
aS'TO'
p78
aS'NNP'
p79
aS'FW'
p80
aS'FW'
p81
aS'FW'
p82
aS'FW'
p83
asS'ner_seq'
p84
(lp85
S'O'
aS'O'
aS'O'
aS'S-LOC'
p86
aS'O'
aS'O'
aS'O'
aS'S-LOC'
p87
aS'O'
aS'O'
aS'O'
aS'O'
assb.