ccopy_reg
_reconstructor
p1
(c__main__
KBproperty
p2
c__builtin__
object
p3
NtRp4
(dp5
S'comment'
p6
S'Source of something eg an image as text. Use dct:source if the source is described using a resource'
p7
sS'domain'
p8
S''
sS'instances_count'
p9
S'0'
sS'label'
p10
S'sourceText'
p11
sS'range'
p12
S'lang String '
p13
sS'prop_uri'
p14
S"'http://dbpedia.org/ontology/sourceText'"
p15
sS'annotations'
p16
(dp17
S'bag_of_words'
p18
(lp19
S'sourceText'
p20
aS'lang'
p21
aS'String'
p22
aS'Source'
p23
aS'of'
p24
aS'something'
p25
aS'eg'
p26
aS'an'
p27
aS'image'
p28
aS'as'
p29
aS'text'
p30
aS'.'
aS'Use'
p31
aS'dct'
p32
aS':'
aS'source'
p33
aS'if'
p34
aS'the'
p35
aS'source'
p36
aS'is'
p37
aS'described'
p38
aS'using'
p39
aS'a'
aS'resource'
p40
asS'chunk_seq'
p41
(lp42
S'B-NP'
p43
aS'I-NP'
p44
aS'I-NP'
p45
aS'E-NP'
p46
aS'S-PP'
p47
aS'S-NP'
p48
aS'S-PP'
p49
aS'B-NP'
p50
aS'E-NP'
p51
aS'S-PP'
p52
aS'B-NP'
p53
aS'I-NP'
p54
aS'I-NP'
p55
aS'E-NP'
p56
aS'O'
aS'S-NP'
p57
aS'S-SBAR'
p58
aS'B-NP'
p59
aS'E-NP'
p60
aS'B-VP'
p61
aS'E-VP'
p62
aS'S-VP'
p63
aS'B-NP'
p64
aS'E-NP'
p65
asS'dep_seq'
p66
(lp67
(lp68
S'amod'
p69
aS'4'
aS'1'
aa(lp70
S'amod'
p71
aS'4'
aS'2'
aa(lp72
S'nn'
p73
aS'4'
aS'3'
aa(lp74
S'root'
p75
aS'0'
aS'4'
aa(lp76
S'prep_of'
p77
aS'4'
aS'6'
aa(lp78
S'det'
p79
aS'9'
aS'8'
aa(lp80
S'prep_eg'
p81
aS'6'
aS'9'
aa(lp82
S'nn'
p83
aS'14'
p84
aS'11'
p85
aa(lp86
S'nn'
p87
aS'14'
p88
aS'13'
p89
aa(lp90
S'prep_as'
p91
aS'9'
aS'14'
p92
aa(lp93
S'dep'
p94
aS'4'
aS'16'
p95
aa(lp96
S'mark'
p97
aS'21'
p98
aS'17'
p99
aa(lp100
S'det'
p101
aS'19'
p102
aS'18'
p103
aa(lp104
S'nsubjpass'
p105
aS'21'
p106
aS'19'
p107
aa(lp108
S'auxpass'
p109
aS'21'
p110
aS'20'
p111
aa(lp112
S'dep'
p113
aS'16'
p114
aS'21'
p115
aa(lp116
S'xcomp'
p117
aS'21'
p118
aS'22'
p119
aa(lp120
S'det'
p121
aS'24'
p122
aS'23'
p123
aa(lp124
S'dobj'
p125
aS'22'
p126
aS'24'
p127
aasS'srls'
p128
(lp129
(dp130
S'A1'
p131
S'the source'
p132
sS'AM-MNR'
p133
S'using a resource'
p134
sS'V'
g38
sa(dp135
S'A1'
p136
S'a resource'
p137
sS'V'
g39
sasS'pos_seq'
p138
(lp139
S'JJ'
p140
aS'VBG'
p141
aS'NN'
p142
aS'NN'
p143
aS'IN'
p144
aS'NN'
p145
aS'IN'
p146
aS'DT'
p147
aS'NN'
p148
aS'IN'
p149
aS'NN'
p150
aS'.'
aS'NNP'
p151
aS'NN'
p152
aS':'
aS'NN'
p153
aS'IN'
p154
aS'DT'
p155
aS'NN'
p156
aS'VBZ'
p157
aS'VBN'
p158
aS'VBG'
p159
aS'DT'
p160
aS'NN'
p161
asS'ner_seq'
p162
(lp163
S'B-PER'
p164
aS'I-PER'
p165
aS'E-PER'
p166
aS'O'
aS'O'
aS'O'
aS'O'
aS'O'
aS'O'
aS'O'
aS'O'
aS'O'
aS'O'
aS'O'
aS'O'
aS'O'
aS'O'
aS'O'
aS'O'
aS'O'
aS'O'
aS'O'
aS'O'
aS'O'
assb.