ccopy_reg
_reconstructor
p1
(c__main__
KBproperty
p2
c__builtin__
object
p3
NtRp4
(dp5
S'comment'
p6
S'hue coordinate in the HSV colour space'
p7
sS'domain'
p8
S'Colour '
p9
sS'instances_count'
p10
S'1043'
p11
sS'label'
p12
g7
sS'range'
p13
S'integer '
p14
sS'prop_uri'
p15
S"'http://dbpedia.org/ontology/hsvCoordinateHue'"
p16
sS'annotations'
p17
(dp18
S'bag_of_words'
p19
(lp20
S'Colour'
p21
aS'hsv'
p22
aS'Coordinate'
p23
aS'Hue'
p24
aS'integer'
p25
aS'hue'
p26
aS'coordinate'
p27
aS'in'
p28
aS'the'
p29
aS'HSV'
p30
aS'colour'
p31
aS'space'
p32
asS'chunk_seq'
p33
(lp34
S'B-NP'
p35
aS'I-NP'
p36
aS'I-NP'
p37
aS'I-NP'
p38
aS'I-NP'
p39
aS'E-NP'
p40
aS'S-VP'
p41
aS'S-PP'
p42
aS'B-NP'
p43
aS'I-NP'
p44
aS'I-NP'
p45
aS'E-NP'
p46
asS'dep_seq'
p47
(lp48
(lp49
S'nn'
p50
aS'6'
aS'1'
aa(lp51
S'nn'
p52
aS'6'
aS'2'
aa(lp53
S'nn'
p54
aS'6'
aS'3'
aa(lp55
S'nn'
p56
aS'6'
aS'4'
aa(lp57
S'nn'
p58
aS'6'
aS'5'
aa(lp59
S'nsubj'
p60
aS'7'
aS'6'
aa(lp61
S'root'
p62
aS'0'
aS'7'
aa(lp63
S'det'
p64
aS'12'
p65
aS'9'
aa(lp66
S'nn'
p67
aS'12'
p68
aS'10'
p69
aa(lp70
S'nn'
p71
aS'12'
p72
aS'11'
p73
aa(lp74
S'prep_in'
p75
aS'7'
aS'12'
p76
aasS'srls'
p77
(lp78
(dp79
S'A0'
p80
S'Colour hsv Coordinate Hue integer hue'
p81
sS'AM-LOC'
p82
S'in the HSV colour space'
p83
sS'V'
g27
sasS'pos_seq'
p84
(lp85
S'NNP'
p86
aS'NNP'
p87
aS'NNP'
p88
aS'NNP'
p89
aS'NN'
p90
aS'NN'
p91
aS'VB'
p92
aS'IN'
p93
aS'DT'
p94
aS'NNP'
p95
aS'NN'
p96
aS'NN'
p97
asS'ner_seq'
p98
(lp99
S'O'
aS'O'
aS'B-MISC'
p100
aS'E-MISC'
p101
aS'O'
aS'O'
aS'O'
aS'O'
aS'O'
aS'S-ORG'
p102
aS'O'
aS'O'
assb.