ccopy_reg
_reconstructor
p1
(c__main__
KBproperty
p2
c__builtin__
object
p3
NtRp4
(dp5
S'comment'
p6
S'Year the play was first performed.'
p7
sS'domain'
p8
S'Play '
p9
sS'instances_count'
p10
S'1543'
p11
sS'label'
p12
S'premiere year'
p13
sS'range'
p14
S'g Year '
p15
sS'prop_uri'
p16
S"'http://dbpedia.org/ontology/premiereYear'"
p17
sS'annotations'
p18
(dp19
S'bag_of_words'
p20
(lp21
S'Play'
p22
aS'premiere'
p23
aS'year'
p24
aS'g'
aS'Year'
p25
aS'Year'
p26
aS'the'
p27
aS'play'
p28
aS'was'
p29
aS'first'
p30
aS'performed'
p31
aS'.'
asS'chunk_seq'
p32
(lp33
S'B-NP'
p34
aS'I-NP'
p35
aS'I-NP'
p36
aS'I-NP'
p37
aS'I-NP'
p38
aS'E-NP'
p39
aS'B-NP'
p40
aS'E-NP'
p41
aS'B-VP'
p42
aS'I-VP'
p43
aS'E-VP'
p44
aS'O'
asS'dep_seq'
p45
(lp46
(lp47
S'nn'
p48
aS'6'
aS'1'
aa(lp49
S'nn'
p50
aS'6'
aS'2'
aa(lp51
S'nn'
p52
aS'6'
aS'3'
aa(lp53
S'nn'
p54
aS'6'
aS'4'
aa(lp55
S'nn'
p56
aS'6'
aS'5'
aa(lp57
S'nsubjpass'
p58
aS'11'
p59
aS'6'
aa(lp60
S'tmod'
p61
aS'11'
p62
aS'6'
aa(lp63
S'det'
p64
aS'8'
aS'7'
aa(lp65
S'nsubjpass'
p66
aS'11'
p67
aS'8'
aa(lp68
S'auxpass'
p69
aS'11'
p70
aS'9'
aa(lp71
S'advmod'
p72
aS'11'
p73
aS'10'
p74
aa(lp75
S'root'
p76
aS'0'
aS'11'
p77
aasS'srls'
p78
(lp79
(dp80
S'A1'
p81
S'the play'
p82
sS'AM-TMP'
p83
g30
sS'V'
g31
sasS'pos_seq'
p84
(lp85
S'NN'
p86
aS'NN'
p87
aS'NN'
p88
aS'NN'
p89
aS'NN'
p90
aS'NN'
p91
aS'DT'
p92
aS'NN'
p93
aS'VBD'
p94
aS'RB'
p95
aS'VBN'
p96
aS'.'
asS'ner_seq'
p97
(lp98
S'O'
aS'O'
aS'O'
aS'O'
aS'O'
aS'O'
aS'O'
aS'O'
aS'O'
aS'O'
aS'O'
aS'O'
assb.