ccopy_reg
_reconstructor
p1
(c__main__
KBproperty
p2
c__builtin__
object
p3
NtRp4
(dp5
S'comment'
p6
S"Date when the Church forbade the veneration of this saint. \\nI hope that's what it means I don't know why the original author didn't document it"
p7
sS'domain'
p8
S'Saint '
p9
sS'instances_count'
p10
S'1'
sS'label'
p11
S'suppredded date'
p12
sS'range'
p13
S'date '
p14
sS'prop_uri'
p15
S"'http://dbpedia.org/ontology/suppreddedDate'"
p16
sS'annotations'
p17
(dp18
S'bag_of_words'
p19
(lp20
S'Saint'
p21
aS'suppredded'
p22
aS'date'
p23
aS'date'
p24
aS'Date'
p25
aS'when'
p26
aS'the'
p27
aS'Church'
p28
aS'forbade'
p29
aS'the'
p30
aS'veneration'
p31
aS'of'
p32
aS'this'
p33
aS'saint'
p34
aS'.'
aS'\\'
aS'nI'
p35
aS'hope'
p36
aS'that'
p37
aS"'s"
p38
aS'what'
p39
aS'it'
p40
aS'means'
p41
aS'I'
aS'don'
p42
aS"'t"
p43
aS'know'
p44
aS'why'
p45
aS'the'
p46
aS'original'
p47
aS'author'
p48
aS'didn'
p49
aS"'t"
p50
aS'document'
p51
aS'it'
p52
asS'chunk_seq'
p53
(lp54
S'B-NP'
p55
aS'I-NP'
p56
aS'I-NP'
p57
aS'I-NP'
p58
aS'E-NP'
p59
aS'S-ADVP'
p60
aS'B-NP'
p61
aS'E-NP'
p62
aS'S-VP'
p63
aS'B-NP'
p64
aS'E-NP'
p65
aS'S-PP'
p66
aS'B-NP'
p67
aS'E-NP'
p68
aS'O'
aS'O'
aS'O'
aS'S-VP'
p69
aS'S-NP'
p70
aS'S-VP'
p71
aS'S-NP'
p72
aS'S-NP'
p73
aS'S-VP'
p74
aS'S-NP'
p75
aS'S-VP'
p76
aS'S-NP'
p77
aS'S-VP'
p78
aS'S-ADVP'
p79
aS'B-NP'
p80
aS'I-NP'
p81
aS'I-NP'
p82
aS'I-NP'
p83
aS'I-NP'
p84
aS'E-NP'
p85
aS'S-NP'
p86
asS'dep_seq'
p87
(lp88
(lp89
S'nn'
p90
aS'5'
aS'1'
aa(lp91
S'amod'
p92
aS'5'
aS'2'
aa(lp93
S'nn'
p94
aS'5'
aS'3'
aa(lp95
S'nn'
p96
aS'5'
aS'4'
aa(lp97
S'tmod'
p98
aS'9'
aS'5'
aa(lp99
S'dep'
p100
aS'35'
p101
aS'5'
aa(lp102
S'advmod'
p103
aS'9'
aS'6'
aa(lp104
S'det'
p105
aS'8'
aS'7'
aa(lp106
S'nsubj'
p107
aS'9'
aS'8'
aa(lp108
S'rcmod'
p109
aS'5'
aS'9'
aa(lp110
S'det'
p111
aS'11'
p112
aS'10'
p113
aa(lp114
S'dobj'
p115
aS'9'
aS'11'
p116
aa(lp117
S'det'
p118
aS'14'
p119
aS'13'
p120
aa(lp121
S'prep_of'
p122
aS'11'
p123
aS'14'
p124
aa(lp125
S'punct'
p126
aS'17'
p127
aS'16'
p128
aa(lp129
S'dep'
p130
aS'35'
p131
aS'17'
p132
aa(lp133
S'dep'
p134
aS'35'
p135
aS'18'
p136
aa(lp137
S'dep'
p138
aS'35'
p139
aS'19'
p140
aa(lp141
S'dep'
p142
aS'35'
p143
aS'20'
p144
aa(lp145
S'dep'
p146
aS'35'
p147
aS'21'
p148
aa(lp149
S'dep'
p150
aS'35'
p151
aS'22'
p152
aa(lp153
S'dep'
p154
aS'35'
p155
aS'23'
p156
aa(lp157
S'dep'
p158
aS'35'
p159
aS'24'
p160
aa(lp161
S'dep'
p162
aS'35'
p163
aS'25'
p164
aa(lp165
S'dep'
p166
aS'35'
p167
aS'26'
p168
aa(lp169
S'dep'
p170
aS'35'
p171
aS'27'
p172
aa(lp173
S'advmod'
p174
aS'35'
p175
aS'28'
p176
aa(lp177
S'det'
p178
aS'34'
p179
aS'29'
p180
aa(lp181
S'amod'
p182
aS'34'
p183
aS'30'
p184
aa(lp185
S'nn'
p186
aS'34'
p187
aS'31'
p188
aa(lp189
S'amod'
p190
aS'34'
p191
aS'32'
p192
aa(lp193
S'nn'
p194
aS'34'
p195
aS'33'
p196
aa(lp197
S'dep'
p198
aS'35'
p199
aS'34'
p200
aa(lp201
S'root'
p202
aS'0'
aS'35'
p203
aasS'srls'
p204
(lp205
(dp206
S'A1'
p207
S'the veneration of this saint'
p208
sS'A0'
p209
S'the Church'
p210
sS'AM-TMP'
p211
S'date date Date'
p212
sS'V'
g29
sa(dp213
S'A1'
p214
S"that 's what it means I don 't know why the original author didn 't document it"
p215
sS'A0'
p216
S'\\ nI'
p217
sS'V'
g36
sa(dp218
S'A1'
p219
S"I don 't know why the original author didn 't document it"
p220
sS'A0'
p221
g40
sS'R-A1'
p222
g39
sS'V'
g41
sa(dp223
S'A1'
p224
S"why the original author didn 't document it"
p225
sS'AM-TMP'
p226
S"when the Church forbade the veneration of this saint . \\ nI hope that 's what it means I don 't"
p227
sS'V'
g44
sasS'pos_seq'
p228
(lp229
S'NNP'
p230
aS'JJ'
p231
aS'NN'
p232
aS'NN'
p233
aS'NN'
p234
aS'WRB'
p235
aS'DT'
p236
aS'NNP'
p237
aS'VBD'
p238
aS'DT'
p239
aS'NN'
p240
aS'IN'
p241
aS'DT'
p242
aS'NN'
p243
aS'.'
aS'-LRB-'
p244
aS'NNP'
p245
aS'VBP'
p246
aS'DT'
p247
aS'VBZ'
p248
aS'WP'
p249
aS'PRP'
p250
aS'VBZ'
p251
aS'PRP'
p252
aS'VBP'
p253
aS'NN'
p254
aS'VB'
p255
aS'WRB'
p256
aS'DT'
p257
aS'JJ'
p258
aS'NN'
p259
aS'JJ'
p260
aS'NN'
p261
aS'NN'
p262
aS'PRP'
p263
asS'ner_seq'
p264
(lp265
S'O'
aS'O'
aS'O'
aS'O'
aS'O'
aS'O'
aS'O'
aS'O'
aS'O'
aS'O'
aS'O'
aS'O'
aS'O'
aS'O'
aS'O'
aS'O'
aS'O'
aS'O'
aS'O'
aS'O'
aS'O'
aS'O'
aS'O'
aS'O'
aS'O'
aS'O'
aS'O'
aS'O'
aS'O'
aS'O'
aS'O'
aS'O'
aS'O'
aS'O'
aS'O'
assb.