ccopy_reg
_reconstructor
p1
(c__main__
KBproperty
p2
c__builtin__
object
p3
NtRp4
(dp5
S'comment'
p6
S''
sS'domain'
p7
S'Political Party '
p8
sS'instances_count'
p9
S'773'
p10
sS'label'
p11
S'split from party'
p12
sS'range'
p13
S'Political Party '
p14
sS'prop_uri'
p15
S"'http://dbpedia.org/ontology/splitFromParty'"
p16
sS'annotations'
p17
(dp18
S'bag_of_words'
p19
(lp20
S'Political'
p21
aS'Party'
p22
aS'split'
p23
aS'from'
p24
aS'party'
p25
aS'Political'
p26
aS'Party'
p27
asS'chunk_seq'
p28
(lp29
S'B-NP'
p30
aS'I-NP'
p31
aS'E-NP'
p32
aS'S-PP'
p33
aS'B-NP'
p34
aS'I-NP'
p35
aS'E-NP'
p36
asS'dep_seq'
p37
(lp38
(lp39
S'amod'
p40
aS'2'
aS'1'
aa(lp41
S'nsubj'
p42
aS'3'
aS'2'
aa(lp43
S'root'
p44
aS'0'
aS'3'
aa(lp45
S'nn'
p46
aS'7'
aS'5'
aa(lp47
S'amod'
p48
aS'7'
aS'6'
aa(lp49
S'prep_from'
p50
aS'3'
aS'7'
aasS'srls'
p51
(lp52
sS'pos_seq'
p53
(lp54
S'JJ'
p55
aS'NNP'
p56
aS'NN'
p57
aS'IN'
p58
aS'NN'
p59
aS'JJ'
p60
aS'NN'
p61
asS'ner_seq'
p62
(lp63
S'B-ORG'
p64
aS'E-ORG'
p65
aS'O'
aS'O'
aS'O'
aS'B-ORG'
p66
aS'E-ORG'
p67
assb.