ccopy_reg
_reconstructor
p1
(c__main__
KBproperty
p2
c__builtin__
object
p3
NtRp4
(dp5
S'comment'
p6
S'A current member of an athletic team.'
p7
sS'domain'
p8
S'Sports Team '
p9
sS'instances_count'
p10
S'0'
sS'label'
p11
S'current team member'
p12
sS'range'
p13
S'Team Member '
p14
sS'prop_uri'
p15
S"'http://dbpedia.org/ontology/currentTeamMember'"
p16
sS'annotations'
p17
(dp18
S'bag_of_words'
p19
(lp20
S'Sports'
p21
aS'Team'
p22
aS'current'
p23
aS'team'
p24
aS'member'
p25
aS'Team'
p26
aS'Member'
p27
aS'A'
aS'current'
p28
aS'member'
p29
aS'of'
p30
aS'an'
p31
aS'athletic'
p32
aS'team.'
p33
asS'chunk_seq'
p34
(lp35
S'B-NP'
p36
aS'I-NP'
p37
aS'I-NP'
p38
aS'I-NP'
p39
aS'I-NP'
p40
aS'I-NP'
p41
aS'E-NP'
p42
aS'B-NP'
p43
aS'I-NP'
p44
aS'E-NP'
p45
aS'S-PP'
p46
aS'B-NP'
p47
aS'I-NP'
p48
aS'E-NP'
p49
asS'dep_seq'
p50
(lp51
(lp52
S'nn'
p53
aS'7'
aS'1'
aa(lp54
S'nn'
p55
aS'7'
aS'2'
aa(lp56
S'amod'
p57
aS'7'
aS'3'
aa(lp58
S'nn'
p59
aS'7'
aS'4'
aa(lp60
S'nn'
p61
aS'7'
aS'5'
aa(lp62
S'nn'
p63
aS'7'
aS'6'
aa(lp64
S'dep'
p65
aS'10'
p66
aS'7'
aa(lp67
S'nn'
p68
aS'10'
p69
aS'8'
aa(lp70
S'amod'
p71
aS'10'
p72
aS'9'
aa(lp73
S'root'
p74
aS'0'
aS'10'
p75
aa(lp76
S'det'
p77
aS'14'
p78
aS'12'
p79
aa(lp80
S'amod'
p81
aS'14'
p82
aS'13'
p83
aa(lp84
S'prep_of'
p85
aS'10'
p86
aS'14'
p87
aasS'srls'
p88
(lp89
sS'pos_seq'
p90
(lp91
S'NNP'
p92
aS'NNP'
p93
aS'JJ'
p94
aS'NN'
p95
aS'NN'
p96
aS'NNP'
p97
aS'NNP'
p98
aS'NNP'
p99
aS'JJ'
p100
aS'NN'
p101
aS'IN'
p102
aS'DT'
p103
aS'JJ'
p104
aS'NN'
p105
asS'ner_seq'
p106
(lp107
S'B-ORG'
p108
aS'E-ORG'
p109
aS'O'
aS'O'
aS'O'
aS'O'
aS'O'
aS'O'
aS'O'
aS'O'
aS'O'
aS'O'
aS'O'
aS'O'
assb.