ccopy_reg
_reconstructor
p1
(c__main__
KBproperty
p2
c__builtin__
object
p3
NtRp4
(dp5
S'comment'
p6
S''
sS'domain'
p7
S'Aircraft '
p8
sS'instances_count'
p9
S'1605'
p10
sS'label'
p11
S'unit cost $'
p12
sS'range'
p13
S'double '
p14
sS'prop_uri'
p15
S"'http://dbpedia.org/ontology/unitCost'"
p16
sS'annotations'
p17
(dp18
S'bag_of_words'
p19
(lp20
S'Aircraft'
p21
aS'unit'
p22
aS'cost'
p23
aS'$'
aS'double'
p24
asS'chunk_seq'
p25
(lp26
S'B-NP'
p27
aS'E-NP'
p28
aS'S-VP'
p29
aS'B-NP'
p30
aS'E-NP'
p31
asS'dep_seq'
p32
(lp33
(lp34
S'nn'
p35
aS'2'
aS'1'
aa(lp36
S'nsubj'
p37
aS'3'
aS'2'
aa(lp38
S'root'
p39
aS'0'
aS'3'
aa(lp40
S'dobj'
p41
aS'3'
aS'4'
aa(lp42
S'amod'
p43
aS'4'
aS'5'
aasS'srls'
p44
(lp45
(dp46
S'A1'
p47
S'Aircraft unit'
p48
sS'A2'
p49
S'$ double'
p50
sS'V'
g23
sasS'pos_seq'
p51
(lp52
S'NNP'
p53
aS'NN'
p54
aS'VBD'
p55
aS'$'
aS'JJ'
p56
asS'ner_seq'
p57
(lp58
S'O'
aS'O'
aS'O'
aS'O'
aS'O'
assb.