ccopy_reg
_reconstructor
p1
(c__main__
KBproperty
p2
c__builtin__
object
p3
NtRp4
(dp5
S'comment'
p6
S'Railway line that is using the tunnel.'
p7
sS'domain'
p8
S'Railway Tunnel '
p9
sS'instances_count'
p10
S'104'
p11
sS'label'
p12
S'railway line using tunnel'
p13
sS'range'
p14
S''
sS'prop_uri'
p15
S"'http://dbpedia.org/ontology/railwayLineUsingTunnel'"
p16
sS'annotations'
p17
(dp18
S'bag_of_words'
p19
(lp20
S'Railway'
p21
aS'Tunnel'
p22
aS'railway'
p23
aS'line'
p24
aS'using'
p25
aS'tunnel'
p26
aS'Railway'
p27
aS'line'
p28
aS'that'
p29
aS'is'
p30
aS'using'
p31
aS'the'
p32
aS'tunnel'
p33
aS'.'
asS'chunk_seq'
p34
(lp35
S'B-NP'
p36
aS'I-NP'
p37
aS'I-NP'
p38
aS'E-NP'
p39
aS'S-VP'
p40
aS'B-NP'
p41
aS'I-NP'
p42
aS'E-NP'
p43
aS'S-NP'
p44
aS'B-VP'
p45
aS'E-VP'
p46
aS'B-NP'
p47
aS'E-NP'
p48
aS'O'
asS'dep_seq'
p49
(lp50
(lp51
S'nn'
p52
aS'4'
aS'1'
aa(lp53
S'nn'
p54
aS'4'
aS'2'
aa(lp55
S'nn'
p56
aS'4'
aS'3'
aa(lp57
S'nsubj'
p58
aS'5'
aS'4'
aa(lp59
S'root'
p60
aS'0'
aS'5'
aa(lp61
S'nn'
p62
aS'8'
aS'6'
aa(lp63
S'nn'
p64
aS'8'
aS'7'
aa(lp65
S'dobj'
p66
aS'5'
aS'8'
aa(lp67
S'nsubj'
p68
aS'11'
p69
aS'8'
aa(lp70
S'aux'
p71
aS'11'
p72
aS'10'
p73
aa(lp74
S'rcmod'
p75
aS'8'
aS'11'
p76
aa(lp77
S'det'
p78
aS'13'
p79
aS'12'
p80
aa(lp81
S'dobj'
p82
aS'11'
p83
aS'13'
p84
aasS'srls'
p85
(lp86
(dp87
S'A1'
p88
S'tunnel Railway line that is using the tunnel'
p89
sS'A0'
p90
S'Railway Tunnel railway line'
p91
sS'V'
g25
sa(dp92
S'A1'
p93
S'the tunnel'
p94
sS'R-A0'
p95
g29
sS'V'
g31
sasS'pos_seq'
p96
(lp97
S'NNP'
p98
aS'NNP'
p99
aS'NN'
p100
aS'NN'
p101
aS'VBG'
p102
aS'NN'
p103
aS'NN'
p104
aS'NN'
p105
aS'WDT'
p106
aS'VBZ'
p107
aS'VBG'
p108
aS'DT'
p109
aS'NN'
p110
aS'.'
asS'ner_seq'
p111
(lp112
S'O'
aS'O'
aS'O'
aS'O'
aS'O'
aS'O'
aS'O'
aS'O'
aS'O'
aS'O'
aS'O'
aS'O'
aS'O'
aS'O'
assb.