ccopy_reg
_reconstructor
p1
(c__main__
KBproperty
p2
c__builtin__
object
p3
NtRp4
(dp5
S'comment'
p6
S'indexing code used by the Polish National Official Register of the Territorial Division of the Country TERYT to identify various entities'
p7
sS'domain'
p8
S'Populated Place '
p9
sS'instances_count'
p10
S'0'
sS'label'
p11
S'SIMC code'
p12
sS'range'
p13
S''
sS'prop_uri'
p14
S"'http://dbpedia.org/ontology/simcCode'"
p15
sS'annotations'
p16
(dp17
S'bag_of_words'
p18
(lp19
S'Populated'
p20
aS'Place'
p21
aS'SIMC'
p22
aS'code'
p23
aS'indexing'
p24
aS'code'
p25
aS'used'
p26
aS'by'
p27
aS'the'
p28
aS'Polish'
p29
aS'National'
p30
aS'Official'
p31
aS'Register'
p32
aS'of'
p33
aS'the'
p34
aS'Territorial'
p35
aS'Division'
p36
aS'of'
p37
aS'the'
p38
aS'Country'
p39
aS'TERYT'
p40
aS'to'
p41
aS'identify'
p42
aS'various'
p43
aS'entities'
p44
asS'chunk_seq'
p45
(lp46
S'B-NP'
p47
aS'I-NP'
p48
aS'I-NP'
p49
aS'I-NP'
p50
aS'I-NP'
p51
aS'E-NP'
p52
aS'S-VP'
p53
aS'S-PP'
p54
aS'B-NP'
p55
aS'I-NP'
p56
aS'I-NP'
p57
aS'I-NP'
p58
aS'E-NP'
p59
aS'S-PP'
p60
aS'B-NP'
p61
aS'I-NP'
p62
aS'E-NP'
p63
aS'S-PP'
p64
aS'B-NP'
p65
aS'I-NP'
p66
aS'E-NP'
p67
aS'B-VP'
p68
aS'E-VP'
p69
aS'B-NP'
p70
aS'E-NP'
p71
asS'dep_seq'
p72
(lp73
(lp74
S'amod'
p75
aS'6'
aS'1'
aa(lp76
S'nn'
p77
aS'6'
aS'2'
aa(lp78
S'nn'
p79
aS'6'
aS'3'
aa(lp80
S'nn'
p81
aS'6'
aS'4'
aa(lp82
S'nn'
p83
aS'6'
aS'5'
aa(lp84
S'nsubj'
p85
aS'23'
p86
aS'6'
aa(lp87
S'partmod'
p88
aS'6'
aS'7'
aa(lp89
S'det'
p90
aS'13'
p91
aS'9'
aa(lp92
S'nn'
p93
aS'13'
p94
aS'10'
p95
aa(lp96
S'nn'
p97
aS'13'
p98
aS'11'
p99
aa(lp100
S'nn'
p101
aS'13'
p102
aS'12'
p103
aa(lp104
S'agent'
p105
aS'7'
aS'13'
p106
aa(lp107
S'det'
p108
aS'17'
p109
aS'15'
p110
aa(lp111
S'nn'
p112
aS'17'
p113
aS'16'
p114
aa(lp115
S'prep_of'
p116
aS'13'
p117
aS'17'
p118
aa(lp119
S'det'
p120
aS'21'
p121
aS'19'
p122
aa(lp123
S'nn'
p124
aS'21'
p125
aS'20'
p126
aa(lp127
S'prep_of'
p128
aS'17'
p129
aS'21'
p130
aa(lp131
S'aux'
p132
aS'23'
p133
aS'22'
p134
aa(lp135
S'root'
p136
aS'0'
aS'23'
p137
aa(lp138
S'amod'
p139
aS'25'
p140
aS'24'
p141
aa(lp142
S'dobj'
p143
aS'23'
p144
aS'25'
p145
aasS'srls'
p146
(lp147
(dp148
S'A1'
p149
S'SIMC code indexing code'
p150
sS'A0'
p151
S'by the Polish National Official Register of the Territorial Division of the Country TERYT'
p152
sS'AM-PNC'
p153
S'to identify various entities'
p154
sS'V'
g26
sa(dp155
S'A1'
p156
S'various entities'
p157
sS'A0'
p158
S'Populated Place SIMC code indexing code used by the Polish National Official Register of the Territorial Division'
p159
sS'V'
g42
sasS'pos_seq'
p160
(lp161
S'VBN'
p162
aS'NNP'
p163
aS'NNP'
p164
aS'NN'
p165
aS'NN'
p166
aS'NN'
p167
aS'VBN'
p168
aS'IN'
p169
aS'DT'
p170
aS'NNP'
p171
aS'NNP'
p172
aS'NNP'
p173
aS'NNP'
p174
aS'IN'
p175
aS'DT'
p176
aS'NNP'
p177
aS'NNP'
p178
aS'IN'
p179
aS'DT'
p180
aS'NNP'
p181
aS'NNP'
p182
aS'TO'
p183
aS'VB'
p184
aS'JJ'
p185
aS'NNS'
p186
asS'ner_seq'
p187
(lp188
S'O'
aS'O'
aS'O'
aS'O'
aS'O'
aS'O'
aS'O'
aS'O'
aS'O'
aS'B-ORG'
p189
aS'I-ORG'
p190
aS'I-ORG'
p191
aS'I-ORG'
p192
aS'I-ORG'
p193
aS'I-ORG'
p194
aS'I-ORG'
p195
aS'I-ORG'
p196
aS'I-ORG'
p197
aS'I-ORG'
p198
aS'I-ORG'
p199
aS'E-ORG'
p200
aS'O'
aS'O'
aS'O'
aS'O'
assb.