ccopy_reg
_reconstructor
p1
(c__main__
KBproperty
p2
c__builtin__
object
p3
NtRp4
(dp5
S'comment'
p6
S'ski piste kilometre \\xce\\xbc'
p7
sS'domain'
p8
S'Place '
p9
sS'instances_count'
p10
S'0'
sS'label'
p11
g7
sS'range'
p12
S'double '
p13
sS'prop_uri'
p14
S"'http://dbpedia.org/ontology/skiPisteKilometre'"
p15
sS'annotations'
p16
(dp17
S'bag_of_words'
p18
(lp19
S'Place'
p20
aS'ski'
p21
aS'Piste'
p22
aS'Kilometre'
p23
aS'double'
p24
aS'ski'
p25
aS'piste'
p26
aS'kilometre'
p27
aS'\\'
aS'xce'
p28
aS'\\'
aS'xbc'
p29
asS'chunk_seq'
p30
(lp31
S'B-NP'
p32
aS'I-NP'
p33
aS'I-NP'
p34
aS'I-NP'
p35
aS'I-NP'
p36
aS'I-NP'
p37
aS'E-NP'
p38
aS'S-VP'
p39
aS'O'
aS'O'
aS'O'
aS'O'
asS'dep_seq'
p40
(lp41
(lp42
S'root'
p43
aS'0'
aS'1'
aa(lp44
S'dep'
p45
aS'1'
aS'2'
aa(lp46
S'dep'
p47
aS'1'
aS'3'
aa(lp48
S'dep'
p49
aS'1'
aS'4'
aa(lp50
S'dep'
p51
aS'1'
aS'5'
aa(lp52
S'dep'
p53
aS'1'
aS'6'
aa(lp54
S'dep'
p55
aS'1'
aS'7'
aa(lp56
S'dep'
p57
aS'1'
aS'8'
aa(lp58
S'dep'
p59
aS'1'
aS'9'
aa(lp60
S'dep'
p61
aS'1'
aS'10'
p62
aa(lp63
S'dep'
p64
aS'1'
aS'11'
p65
aa(lp66
S'dep'
p67
aS'1'
aS'12'
p68
aasS'srls'
p69
(lp70
sS'pos_seq'
p71
(lp72
S'NN'
p73
aS'NN'
p74
aS'NN'
p75
aS'NN'
p76
aS'JJ'
p77
aS'NN'
p78
aS'NN'
p79
aS'NN'
p80
aS'FW'
p81
aS'FW'
p82
aS'FW'
p83
aS'FW'
p84
asS'ner_seq'
p85
(lp86
S'O'
aS'O'
aS'B-MISC'
p87
aS'E-MISC'
p88
aS'O'
aS'O'
aS'O'
aS'O'
aS'O'
aS'O'
aS'O'
aS'O'
assb.