ccopy_reg
_reconstructor
p1
(c__main__
KBproperty
p2
c__builtin__
object
p3
NtRp4
(dp5
S'comment'
p6
S''
sS'domain'
p7
S''
sS'instances_count'
p8
S'1452'
p9
sS'label'
p10
S'variants with their own articles'
p11
sS'range'
p12
S''
sS'prop_uri'
p13
S"'http://dbpedia.org/property/variantsWithTheirOwnArticles'"
p14
sS'annotations'
p15
(dp16
S'bag_of_words'
p17
(lp18
S'variants'
p19
aS'with'
p20
aS'their'
p21
aS'own'
p22
aS'articles'
p23
asS'chunk_seq'
p24
(lp25
S'S-NP'
p26
aS'S-PP'
p27
aS'B-NP'
p28
aS'I-NP'
p29
aS'E-NP'
p30
asS'dep_seq'
p31
(lp32
(lp33
S'root'
p34
aS'0'
aS'1'
aa(lp35
S'poss'
p36
aS'5'
aS'3'
aa(lp37
S'amod'
p38
aS'5'
aS'4'
aa(lp39
S'prep_with'
p40
aS'1'
aS'5'
aasS'srls'
p41
(lp42
sS'pos_seq'
p43
(lp44
S'NNS'
p45
aS'IN'
p46
aS'PRP$'
p47
aS'JJ'
p48
aS'NNS'
p49
asS'ner_seq'
p50
(lp51
S'O'
aS'O'
aS'O'
aS'O'
aS'O'
assb.