ccopy_reg
_reconstructor
p1
(c__main__
KBproperty
p2
c__builtin__
object
p3
NtRp4
(dp5
S'comment'
p6
S''
sS'domain'
p7
S''
sS'instances_count'
p8
S'0'
sS'label'
p9
S'max'
p10
sS'range'
p11
S'non Negative Integer '
p12
sS'prop_uri'
p13
S"'http://dbpedia.org/ontology/max'"
p14
sS'annotations'
p15
(dp16
S'bag_of_words'
p17
(lp18
S'max'
p19
aS'non'
p20
aS'Negative'
p21
aS'Integer'
p22
asS'chunk_seq'
p23
(lp24
S'S-NP'
p25
aS'B-NP'
p26
aS'I-NP'
p27
aS'E-NP'
p28
asS'dep_seq'
p29
(lp30
(lp31
S'root'
p32
aS'0'
aS'1'
aa(lp33
S'advmod'
p34
aS'4'
aS'2'
aa(lp35
S'amod'
p36
aS'4'
aS'3'
aa(lp37
S'dep'
p38
aS'1'
aS'4'
aasS'srls'
p39
(lp40
sS'pos_seq'
p41
(lp42
S'NN'
p43
aS'RB'
p44
aS'JJ'
p45
aS'NN'
p46
asS'ner_seq'
p47
(lp48
S'O'
aS'O'
aS'O'
aS'O'
assb.