ccopy_reg
_reconstructor
p1
(c__main__
KBproperty
p2
c__builtin__
object
p3
NtRp4
(dp5
S'comment'
p6
S'person that first ascented a mountain'
p7
sS'domain'
p8
S'Mountain '
p9
sS'instances_count'
p10
S'866'
p11
sS'label'
p12
g7
sS'range'
p13
S'Person '
p14
sS'prop_uri'
p15
S"'http://dbpedia.org/ontology/firstAscentPerson'"
p16
sS'annotations'
p17
(dp18
S'bag_of_words'
p19
(lp20
S'Mountain'
p21
aS'first'
p22
aS'Ascent'
p23
aS'Person'
p24
aS'Person'
p25
aS'person'
p26
aS'that'
p27
aS'first'
p28
aS'ascented'
p29
aS'a'
aS'mountain'
p30
asS'chunk_seq'
p31
(lp32
S'B-NP'
p33
aS'I-NP'
p34
aS'I-NP'
p35
aS'I-NP'
p36
aS'I-NP'
p37
aS'E-NP'
p38
aS'S-SBAR'
p39
aS'S-ADVP'
p40
aS'S-VP'
p41
aS'B-NP'
p42
aS'E-NP'
p43
asS'dep_seq'
p44
(lp45
(lp46
S'nn'
p47
aS'6'
aS'1'
aa(lp48
S'amod'
p49
aS'6'
aS'2'
aa(lp50
S'nn'
p51
aS'6'
aS'3'
aa(lp52
S'nn'
p53
aS'6'
aS'4'
aa(lp54
S'nn'
p55
aS'6'
aS'5'
aa(lp56
S'root'
p57
aS'0'
aS'6'
aa(lp58
S'nsubj'
p59
aS'9'
aS'6'
aa(lp60
S'advmod'
p61
aS'9'
aS'8'
aa(lp62
S'rcmod'
p63
aS'6'
aS'9'
aa(lp64
S'det'
p65
aS'11'
p66
aS'10'
p67
aa(lp68
S'dobj'
p69
aS'9'
aS'11'
p70
aasS'srls'
p71
(lp72
(dp73
S'A1'
p74
S'a mountain'
p75
sS'A0'
p76
S'Mountain first Ascent Person Person person'
p77
sS'V'
g29
sS'R-A0'
p78
g27
sS'AM-TMP'
p79
g28
sasS'pos_seq'
p80
(lp81
S'NN'
p82
aS'JJ'
p83
aS'NN'
p84
aS'NN'
p85
aS'NN'
p86
aS'NN'
p87
aS'IN'
p88
aS'JJ'
p89
aS'VBD'
p90
aS'DT'
p91
aS'NN'
p92
asS'ner_seq'
p93
(lp94
S'S-ORG'
p95
aS'O'
aS'O'
aS'O'
aS'O'
aS'O'
aS'O'
aS'O'
aS'O'
aS'O'
aS'O'
assb.