ccopy_reg
_reconstructor
p1
(c__main__
KBproperty
p2
c__builtin__
object
p3
NtRp4
(dp5
S'comment'
p6
S'CPU of an InformationAppliance or VideoGame which unfortunately is currently under Software'
p7
sS'domain'
p8
S''
sS'instances_count'
p9
S'1602'
p10
sS'label'
p11
S'CPU'
p12
sS'range'
p13
S''
sS'prop_uri'
p14
S"'http://dbpedia.org/ontology/cpu'"
p15
sS'annotations'
p16
(dp17
S'bag_of_words'
p18
(lp19
S'CPU'
p20
aS'CPU'
p21
aS'of'
p22
aS'an'
p23
aS'InformationAppliance'
p24
aS'or'
p25
aS'VideoGame'
p26
aS'which'
p27
aS'unfortunately'
p28
aS'is'
p29
aS'currently'
p30
aS'under'
p31
aS'Software'
p32
asS'chunk_seq'
p33
(lp34
S'B-NP'
p35
aS'E-NP'
p36
aS'S-PP'
p37
aS'B-NP'
p38
aS'I-NP'
p39
aS'I-NP'
p40
aS'E-NP'
p41
aS'S-NP'
p42
aS'S-ADVP'
p43
aS'S-VP'
p44
aS'S-ADVP'
p45
aS'S-PP'
p46
aS'S-NP'
p47
asS'dep_seq'
p48
(lp49
(lp50
S'nn'
p51
aS'2'
aS'1'
aa(lp52
S'root'
p53
aS'0'
aS'2'
aa(lp54
S'det'
p55
aS'5'
aS'4'
aa(lp56
S'prep_of'
p57
aS'2'
aS'5'
aa(lp58
S'nsubj'
p59
aS'10'
p60
aS'5'
aa(lp61
S'conj_or'
p62
aS'5'
aS'7'
aa(lp63
S'advmod'
p64
aS'10'
p65
aS'9'
aa(lp66
S'rcmod'
p67
aS'5'
aS'10'
p68
aa(lp69
S'advmod'
p70
aS'10'
p71
aS'11'
p72
aa(lp73
S'prep_under'
p74
aS'10'
p75
aS'13'
p76
aasS'srls'
p77
(lp78
sS'pos_seq'
p79
(lp80
S'NN'
p81
aS'NN'
p82
aS'IN'
p83
aS'DT'
p84
aS'NNP'
p85
aS'CC'
p86
aS'NNP'
p87
aS'WDT'
p88
aS'RB'
p89
aS'VBZ'
p90
aS'RB'
p91
aS'IN'
p92
aS'NNP'
p93
asS'ner_seq'
p94
(lp95
S'O'
aS'O'
aS'O'
aS'O'
aS'B-MISC'
p96
aS'I-MISC'
p97
aS'E-MISC'
p98
aS'O'
aS'O'
aS'O'
aS'O'
aS'O'
aS'O'
assb.