ccopy_reg
_reconstructor
p1
(c__main__
KBproperty
p2
c__builtin__
object
p3
NtRp4
(dp5
S'comment'
p6
S'defines codes for the names of countries dependent territories and special areas of geographical interest'
p7
sS'domain'
p8
S'Place '
p9
sS'instances_count'
p10
S'0'
sS'label'
p11
S'ISO 3166-1 code'
p12
sS'range'
p13
S'string '
p14
sS'prop_uri'
p15
S"'http://dbpedia.org/ontology/iso31661Code'"
p16
sS'annotations'
p17
(dp18
S'bag_of_words'
p19
(lp20
S'Place'
p21
aS'ISO'
p22
aS'3166-1'
p23
aS'code'
p24
aS'string'
p25
aS'defines'
p26
aS'codes'
p27
aS'for'
p28
aS'the'
p29
aS'names'
p30
aS'of'
p31
aS'countries'
p32
aS'dependent'
p33
aS'territories'
p34
aS'and'
p35
aS'special'
p36
aS'areas'
p37
aS'of'
p38
aS'geographical'
p39
aS'interest'
p40
asS'chunk_seq'
p41
(lp42
S'S-NP'
p43
aS'B-NP'
p44
aS'I-NP'
p45
aS'I-NP'
p46
aS'E-NP'
p47
aS'S-VP'
p48
aS'S-NP'
p49
aS'S-PP'
p50
aS'B-NP'
p51
aS'E-NP'
p52
aS'S-PP'
p53
aS'S-NP'
p54
aS'B-NP'
p55
aS'E-NP'
p56
aS'O'
aS'B-NP'
p57
aS'E-NP'
p58
aS'S-PP'
p59
aS'B-NP'
p60
aS'E-NP'
p61
asS'dep_seq'
p62
(lp63
(lp64
S'nn'
p65
aS'5'
aS'1'
aa(lp66
S'nn'
p67
aS'5'
aS'2'
aa(lp68
S'num'
p69
aS'5'
aS'1'
aa(lp70
S'nn'
p71
aS'5'
aS'4'
aa(lp72
S'dep'
p73
aS'14'
p74
aS'5'
aa(lp75
S'dep'
p76
aS'14'
p77
aS'6'
aa(lp78
S'dep'
p79
aS'14'
p80
aS'7'
aa(lp81
S'dep'
p82
aS'14'
p83
aS'8'
aa(lp84
S'det'
p85
aS'10'
p86
aS'9'
aa(lp87
S'dep'
p88
aS'14'
p89
aS'10'
p90
aa(lp91
S'dep'
p92
aS'14'
p93
aS'11'
p94
aa(lp95
S'pobj'
p96
aS'11'
p97
aS'12'
p98
aa(lp99
S'amod'
p100
aS'14'
p101
aS'13'
p102
aa(lp103
S'root'
p104
aS'0'
aS'14'
p105
aa(lp106
S'amod'
p107
aS'17'
p108
aS'16'
p109
aa(lp110
S'conj_and'
p111
aS'14'
p112
aS'17'
p113
aa(lp114
S'amod'
p115
aS'20'
p116
aS'19'
p117
aa(lp118
S'prep_of'
p119
aS'17'
p120
aS'20'
p121
aasS'srls'
p122
(lp123
(dp124
S'A1'
p125
S'codes for the names of countries dependent territories and special areas of geographical interest'
p126
sS'A0'
p127
S'Place ISO 3166-1 code string'
p128
sS'V'
g26
sasS'pos_seq'
p129
(lp130
S'NNP'
p131
aS'NNP'
p132
aS'CD'
p133
aS'NN'
p134
aS'NN'
p135
aS'VBZ'
p136
aS'NNS'
p137
aS'IN'
p138
aS'DT'
p139
aS'NNS'
p140
aS'IN'
p141
aS'NNS'
p142
aS'JJ'
p143
aS'NNS'
p144
aS'CC'
p145
aS'JJ'
p146
aS'NNS'
p147
aS'IN'
p148
aS'JJ'
p149
aS'NN'
p150
asS'ner_seq'
p151
(lp152
S'O'
aS'O'
aS'O'
aS'O'
aS'O'
aS'O'
aS'O'
aS'O'
aS'O'
aS'O'
aS'O'
aS'O'
aS'O'
aS'O'
aS'O'
aS'O'
aS'O'
aS'O'
aS'O'
aS'O'
assb.