ccopy_reg
_reconstructor
p1
(c__main__
KBproperty
p2
c__builtin__
object
p3
NtRp4
(dp5
S'comment'
p6
S''
sS'domain'
p7
S'Settlement '
p8
sS'instances_count'
p9
S'567'
p10
sS'label'
p11
S'association of local government'
p12
sS'range'
p13
S'Populated Place '
p14
sS'prop_uri'
p15
S"'http://dbpedia.org/ontology/associationOfLocalGovernment'"
p16
sS'annotations'
p17
(dp18
S'bag_of_words'
p19
(lp20
S'Settlement'
p21
aS'association'
p22
aS'of'
p23
aS'local'
p24
aS'government'
p25
aS'Populated'
p26
aS'Place'
p27
asS'chunk_seq'
p28
(lp29
S'B-NP'
p30
aS'E-NP'
p31
aS'S-PP'
p32
aS'B-NP'
p33
aS'I-NP'
p34
aS'I-NP'
p35
aS'E-NP'
p36
asS'dep_seq'
p37
(lp38
(lp39
S'nn'
p40
aS'2'
aS'1'
aa(lp41
S'root'
p42
aS'0'
aS'2'
aa(lp43
S'amod'
p44
aS'7'
aS'4'
aa(lp45
S'nn'
p46
aS'7'
aS'5'
aa(lp47
S'amod'
p48
aS'7'
aS'6'
aa(lp49
S'prep_of'
p50
aS'2'
aS'7'
aasS'srls'
p51
(lp52
sS'pos_seq'
p53
(lp54
S'NN'
p55
aS'NN'
p56
aS'IN'
p57
aS'JJ'
p58
aS'NN'
p59
aS'JJ'
p60
aS'NN'
p61
asS'ner_seq'
p62
(lp63
S'O'
aS'O'
aS'O'
aS'O'
aS'O'
aS'B-ORG'
p64
aS'E-ORG'
p65
assb.