ccopy_reg
_reconstructor
p1
(c__main__
KBproperty
p2
c__builtin__
object
p3
NtRp4
(dp5
S'comment'
p6
S''
sS'domain'
p7
S'Populated Place '
p8
sS'instances_count'
p9
S'0'
sS'label'
p10
S'Number Of Cantons'
p11
sS'range'
p12
S'non Negative Integer '
p13
sS'prop_uri'
p14
S"'http://dbpedia.org/ontology/numberOfCantons'"
p15
sS'annotations'
p16
(dp17
S'bag_of_words'
p18
(lp19
S'Populated'
p20
aS'Place'
p21
aS'Number'
p22
aS'Of'
p23
aS'Cantons'
p24
aS'non'
p25
aS'Negative'
p26
aS'Integer'
p27
asS'chunk_seq'
p28
(lp29
S'B-NP'
p30
aS'I-NP'
p31
aS'E-NP'
p32
aS'S-PP'
p33
aS'B-NP'
p34
aS'I-NP'
p35
aS'I-NP'
p36
aS'E-NP'
p37
asS'dep_seq'
p38
(lp39
(lp40
S'amod'
p41
aS'3'
aS'1'
aa(lp42
S'nn'
p43
aS'3'
aS'2'
aa(lp44
S'dep'
p45
aS'8'
aS'3'
aa(lp46
S'prep_of'
p47
aS'3'
aS'5'
aa(lp48
S'amod'
p49
aS'7'
aS'6'
aa(lp50
S'amod'
p51
aS'8'
aS'7'
aa(lp52
S'root'
p53
aS'0'
aS'8'
aasS'srls'
p54
(lp55
sS'pos_seq'
p56
(lp57
S'JJ'
p58
aS'NN'
p59
aS'NN'
p60
aS'IN'
p61
aS'NNPS'
p62
aS'JJ'
p63
aS'JJ'
p64
aS'NN'
p65
asS'ner_seq'
p66
(lp67
S'O'
aS'O'
aS'O'
aS'B-MISC'
p68
aS'I-MISC'
p69
aS'I-MISC'
p70
aS'I-MISC'
p71
aS'E-MISC'
p72
assb.