ccopy_reg
_reconstructor
p1
(c__main__
KBproperty
p2
c__builtin__
object
p3
NtRp4
(dp5
S'comment'
p6
S''
sS'domain'
p7
S'Mountain '
p8
sS'instances_count'
p9
S'1994'
p10
sS'label'
p11
S'year of first ascent'
p12
sS'range'
p13
S'g Year '
p14
sS'prop_uri'
p15
S"'http://dbpedia.org/ontology/firstAscentYear'"
p16
sS'annotations'
p17
(dp18
S'bag_of_words'
p19
(lp20
S'Mountain'
p21
aS'year'
p22
aS'of'
p23
aS'first'
p24
aS'ascent'
p25
aS'g'
aS'Year'
p26
asS'chunk_seq'
p27
(lp28
S'B-NP'
p29
aS'E-NP'
p30
aS'S-PP'
p31
aS'B-NP'
p32
aS'I-NP'
p33
aS'I-NP'
p34
aS'E-NP'
p35
asS'dep_seq'
p36
(lp37
(lp38
S'nn'
p39
aS'2'
aS'1'
aa(lp40
S'root'
p41
aS'0'
aS'2'
aa(lp42
S'amod'
p43
aS'7'
aS'4'
aa(lp44
S'nn'
p45
aS'7'
aS'5'
aa(lp46
S'nn'
p47
aS'7'
aS'6'
aa(lp48
S'prep_of'
p49
aS'2'
aS'7'
aasS'srls'
p50
(lp51
sS'pos_seq'
p52
(lp53
S'NN'
p54
aS'NN'
p55
aS'IN'
p56
aS'JJ'
p57
aS'NN'
p58
aS'NN'
p59
aS'NN'
p60
asS'ner_seq'
p61
(lp62
S'O'
aS'O'
aS'O'
aS'O'
aS'O'
aS'O'
aS'O'
assb.