ccopy_reg
_reconstructor
p1
(c__main__
KBproperty
p2
c__builtin__
object
p3
NtRp4
(dp5
S'comment'
p6
S'Sound recording somehow related to the subject'
p7
sS'domain'
p8
S''
sS'instances_count'
p9
S'23799'
p10
sS'label'
p11
S'sound recording'
p12
sS'range'
p13
S'Sound '
p14
sS'prop_uri'
p15
S"'http://dbpedia.org/ontology/soundRecording'"
p16
sS'annotations'
p17
(dp18
S'bag_of_words'
p19
(lp20
S'sound'
p21
aS'recording'
p22
aS'Sound'
p23
aS'Sound'
p24
aS'recording'
p25
aS'somehow'
p26
aS'related'
p27
aS'to'
p28
aS'the'
p29
aS'subject'
p30
asS'chunk_seq'
p31
(lp32
S'B-NP'
p33
aS'I-NP'
p34
aS'I-NP'
p35
aS'I-NP'
p36
aS'E-NP'
p37
aS'B-VP'
p38
aS'E-VP'
p39
aS'S-PP'
p40
aS'B-NP'
p41
aS'E-NP'
p42
asS'dep_seq'
p43
(lp44
(lp45
S'advmod'
p46
aS'2'
aS'1'
aa(lp47
S'root'
p48
aS'0'
aS'2'
aa(lp49
S'nn'
p50
aS'5'
aS'3'
aa(lp51
S'nn'
p52
aS'5'
aS'4'
aa(lp53
S'dobj'
p54
aS'2'
aS'5'
aa(lp55
S'advmod'
p56
aS'7'
aS'6'
aa(lp57
S'dep'
p58
aS'2'
aS'7'
aa(lp59
S'det'
p60
aS'10'
p61
aS'9'
aa(lp62
S'prep_to'
p63
aS'7'
aS'10'
p64
aasS'srls'
p65
(lp66
(dp67
S'A1'
p68
S'Sound Sound recording'
p69
sS'V'
g22
sa(dp70
S'A1'
p71
S'sound recording Sound Sound recording'
p72
sS'A2'
p73
S'to the subject'
p74
sS'AM-MNR'
p75
g26
sS'V'
g27
sasS'pos_seq'
p76
(lp77
S'JJ'
p78
aS'VBG'
p79
aS'NNP'
p80
aS'NNP'
p81
aS'NN'
p82
aS'RB'
p83
aS'VBN'
p84
aS'TO'
p85
aS'DT'
p86
aS'NN'
p87
asS'ner_seq'
p88
(lp89
S'O'
aS'O'
aS'B-ORG'
p90
aS'E-ORG'
p91
aS'O'
aS'O'
aS'O'
aS'O'
aS'O'
aS'O'
assb.