ccopy_reg
_reconstructor
p1
(c__main__
KBproperty
p2
c__builtin__
object
p3
NtRp4
(dp5
S'comment'
p6
S'Number of stations or stops.'
p7
sS'domain'
p8
S'Route Of Transportation '
p9
sS'instances_count'
p10
S'3003'
p11
sS'label'
p12
S'number of stations'
p13
sS'range'
p14
S'non Negative Integer '
p15
sS'prop_uri'
p16
S"'http://dbpedia.org/ontology/numberOfStations'"
p17
sS'annotations'
p18
(dp19
S'bag_of_words'
p20
(lp21
S'Route'
p22
aS'Of'
p23
aS'Transportation'
p24
aS'number'
p25
aS'of'
p26
aS'stations'
p27
aS'non'
p28
aS'Negative'
p29
aS'Integer'
p30
aS'Number'
p31
aS'of'
p32
aS'stations'
p33
aS'or'
p34
aS'stops'
p35
aS'.'
asS'chunk_seq'
p36
(lp37
S'S-NP'
p38
aS'S-PP'
p39
aS'B-NP'
p40
aS'E-NP'
p41
aS'S-PP'
p42
aS'B-NP'
p43
aS'I-NP'
p44
aS'I-NP'
p45
aS'I-NP'
p46
aS'E-NP'
p47
aS'S-PP'
p48
aS'B-NP'
p49
aS'I-NP'
p50
aS'E-NP'
p51
aS'O'
asS'dep_seq'
p52
(lp53
(lp54
S'nsubj'
p55
aS'4'
aS'1'
aa(lp56
S'prep_of'
p57
aS'1'
aS'3'
aa(lp58
S'root'
p59
aS'0'
aS'4'
aa(lp60
S'prep_of'
p61
aS'4'
aS'6'
aa(lp62
S'amod'
p63
aS'10'
p64
aS'7'
aa(lp65
S'nn'
p66
aS'10'
p67
aS'8'
aa(lp68
S'nn'
p69
aS'10'
p70
aS'9'
aa(lp71
S'dobj'
p72
aS'4'
aS'10'
p73
aa(lp74
S'prep_of'
p75
aS'10'
p76
aS'12'
p77
aa(lp78
S'conj_or'
p79
aS'12'
p80
aS'14'
p81
aasS'srls'
p82
(lp83
sS'pos_seq'
p84
(lp85
S'NNP'
p86
aS'IN'
p87
aS'NNP'
p88
aS'NN'
p89
aS'IN'
p90
aS'NNS'
p91
aS'JJ'
p92
aS'NNP'
p93
aS'NNP'
p94
aS'NNP'
p95
aS'IN'
p96
aS'NNS'
p97
aS'CC'
p98
aS'NNS'
p99
aS'.'
asS'ner_seq'
p100
(lp101
S'B-ORG'
p102
aS'I-ORG'
p103
aS'E-ORG'
p104
aS'O'
aS'O'
aS'O'
aS'O'
aS'O'
aS'O'
aS'O'
aS'O'
aS'O'
aS'O'
aS'O'
aS'O'
assb.