ccopy_reg
_reconstructor
p1
(c__main__
KBproperty
p2
c__builtin__
object
p3
NtRp4
(dp5
S'comment'
p6
S'Voltage of the electrification system.'
p7
sS'domain'
p8
S'Route Of Transportation '
p9
sS'instances_count'
p10
S'894'
p11
sS'label'
p12
S'voltage of electrification V'
p13
sS'range'
p14
S'double '
p15
sS'prop_uri'
p16
S"'http://dbpedia.org/ontology/voltageOfElectrification'"
p17
sS'annotations'
p18
(dp19
S'bag_of_words'
p20
(lp21
S'Route'
p22
aS'Of'
p23
aS'Transportation'
p24
aS'voltage'
p25
aS'of'
p26
aS'electrification'
p27
aS'V'
aS'double'
p28
aS'Voltage'
p29
aS'of'
p30
aS'the'
p31
aS'electrification'
p32
aS'system.'
p33
asS'chunk_seq'
p34
(lp35
S'S-NP'
p36
aS'S-PP'
p37
aS'B-NP'
p38
aS'E-NP'
p39
aS'S-PP'
p40
aS'B-NP'
p41
aS'I-NP'
p42
aS'I-NP'
p43
aS'E-NP'
p44
aS'S-PP'
p45
aS'B-NP'
p46
aS'I-NP'
p47
aS'E-NP'
p48
asS'dep_seq'
p49
(lp50
(lp51
S'root'
p52
aS'0'
aS'1'
aa(lp53
S'nn'
p54
aS'4'
aS'3'
aa(lp55
S'prep_of'
p56
aS'1'
aS'4'
aa(lp57
S'prep_of'
p58
aS'4'
aS'6'
aa(lp59
S'nn'
p60
aS'9'
aS'7'
aa(lp61
S'amod'
p62
aS'9'
aS'8'
aa(lp63
S'dep'
p64
aS'1'
aS'9'
aa(lp65
S'det'
p66
aS'13'
p67
aS'11'
p68
aa(lp69
S'nn'
p70
aS'13'
p71
aS'12'
p72
aa(lp73
S'prep_of'
p74
aS'9'
aS'13'
p75
aasS'srls'
p76
(lp77
sS'pos_seq'
p78
(lp79
S'NNP'
p80
aS'IN'
p81
aS'NNP'
p82
aS'NN'
p83
aS'IN'
p84
aS'NN'
p85
aS'NNP'
p86
aS'JJ'
p87
aS'NN'
p88
aS'IN'
p89
aS'DT'
p90
aS'NN'
p91
aS'NNS'
p92
asS'ner_seq'
p93
(lp94
S'B-ORG'
p95
aS'I-ORG'
p96
aS'E-ORG'
p97
aS'O'
aS'O'
aS'O'
aS'O'
aS'O'
aS'O'
aS'O'
aS'O'
aS'O'
aS'O'
assb.