ccopy_reg
_reconstructor
p1
(c__main__
KBproperty
p2
c__builtin__
object
p3
NtRp4
(dp5
S'comment'
p6
S''
sS'domain'
p7
S'Software '
p8
sS'instances_count'
p9
S'6107'
p10
sS'label'
p11
S'programming language'
p12
sS'range'
p13
S''
sS'prop_uri'
p14
S"'http://dbpedia.org/ontology/programmingLanguage'"
p15
sS'annotations'
p16
(dp17
S'bag_of_words'
p18
(lp19
S'Software'
p20
aS'programming'
p21
aS'language'
p22
asS'chunk_seq'
p23
(lp24
S'B-NP'
p25
aS'I-NP'
p26
aS'E-NP'
p27
asS'dep_seq'
p28
(lp29
(lp30
S'nn'
p31
aS'3'
aS'1'
aa(lp32
S'nn'
p33
aS'3'
aS'2'
aa(lp34
S'root'
p35
aS'0'
aS'3'
aasS'srls'
p36
(lp37
(dp38
S'A0'
p39
S'Software language'
p40
sS'V'
g21
sasS'pos_seq'
p41
(lp42
S'NN'
p43
aS'NN'
p44
aS'NN'
p45
asS'ner_seq'
p46
(lp47
S'O'
aS'O'
aS'O'
assb.