ccopy_reg
_reconstructor
p1
(c__main__
KBproperty
p2
c__builtin__
object
p3
NtRp4
(dp5
S'comment'
p6
S''
sS'domain'
p7
S'Year In Spaceflight '
p8
sS'instances_count'
p9
S'128'
p10
sS'label'
p11
S'retired rocket'
p12
sS'range'
p13
S'Rocket '
p14
sS'prop_uri'
p15
S"'http://dbpedia.org/ontology/retiredRocket'"
p16
sS'annotations'
p17
(dp18
S'bag_of_words'
p19
(lp20
S'Year'
p21
aS'In'
p22
aS'Spaceflight'
p23
aS'retired'
p24
aS'rocket'
p25
aS'Rocket'
p26
asS'chunk_seq'
p27
(lp28
S'S-NP'
p29
aS'S-PP'
p30
aS'B-NP'
p31
aS'I-NP'
p32
aS'I-NP'
p33
aS'E-NP'
p34
asS'dep_seq'
p35
(lp36
(lp37
S'root'
p38
aS'0'
aS'1'
aa(lp39
S'nn'
p40
aS'6'
aS'3'
aa(lp41
S'amod'
p42
aS'6'
aS'4'
aa(lp43
S'nn'
p44
aS'6'
aS'5'
aa(lp45
S'prep_in'
p46
aS'1'
aS'6'
aasS'srls'
p47
(lp48
(dp49
S'A0'
p50
S'rocket Rocket'
p51
sS'V'
g24
sasS'pos_seq'
p52
(lp53
S'NN'
p54
aS'IN'
p55
aS'NNP'
p56
aS'JJ'
p57
aS'NN'
p58
aS'NNP'
p59
asS'ner_seq'
p60
(lp61
S'O'
aS'O'
aS'O'
aS'O'
aS'O'
aS'O'
assb.