ccopy_reg
_reconstructor
p1
(c__main__
KBproperty
p2
c__builtin__
object
p3
NtRp4
(dp5
S'comment'
p6
S'space station that has been visited during a space mission'
p7
sS'domain'
p8
S'Space Mission '
p9
sS'instances_count'
p10
S'0'
sS'label'
p11
S'spacestation'
p12
sS'range'
p13
S'Space Station '
p14
sS'prop_uri'
p15
S"'http://dbpedia.org/ontology/spacestation'"
p16
sS'annotations'
p17
(dp18
S'bag_of_words'
p19
(lp20
S'Space'
p21
aS'Mission'
p22
aS'spacestation'
p23
aS'Space'
p24
aS'Station'
p25
aS'space'
p26
aS'station'
p27
aS'that'
p28
aS'has'
p29
aS'been'
p30
aS'visited'
p31
aS'during'
p32
aS'a'
aS'space'
p33
aS'mission'
p34
asS'chunk_seq'
p35
(lp36
S'B-NP'
p37
aS'I-NP'
p38
aS'I-NP'
p39
aS'I-NP'
p40
aS'I-NP'
p41
aS'I-NP'
p42
aS'E-NP'
p43
aS'S-NP'
p44
aS'B-VP'
p45
aS'I-VP'
p46
aS'E-VP'
p47
aS'S-PP'
p48
aS'B-NP'
p49
aS'I-NP'
p50
aS'E-NP'
p51
asS'dep_seq'
p52
(lp53
(lp54
S'nn'
p55
aS'7'
aS'1'
aa(lp56
S'nn'
p57
aS'7'
aS'2'
aa(lp58
S'nn'
p59
aS'7'
aS'3'
aa(lp60
S'nn'
p61
aS'7'
aS'4'
aa(lp62
S'nn'
p63
aS'7'
aS'5'
aa(lp64
S'nn'
p65
aS'7'
aS'6'
aa(lp66
S'root'
p67
aS'0'
aS'7'
aa(lp68
S'nsubjpass'
p69
aS'11'
p70
aS'7'
aa(lp71
S'aux'
p72
aS'11'
p73
aS'9'
aa(lp74
S'auxpass'
p75
aS'11'
p76
aS'10'
p77
aa(lp78
S'rcmod'
p79
aS'7'
aS'11'
p80
aa(lp81
S'det'
p82
aS'15'
p83
aS'13'
p84
aa(lp85
S'nn'
p86
aS'15'
p87
aS'14'
p88
aa(lp89
S'prep_during'
p90
aS'11'
p91
aS'15'
p92
aasS'srls'
p93
(lp94
(dp95
S'A1'
p96
S'Space Mission spacestation Space Station space station'
p97
sS'AM-TMP'
p98
S'during a space mission'
p99
sS'R-A1'
p100
g28
sS'V'
g31
sasS'pos_seq'
p101
(lp102
S'NNP'
p103
aS'NNP'
p104
aS'NN'
p105
aS'NNP'
p106
aS'NNP'
p107
aS'NN'
p108
aS'NN'
p109
aS'WDT'
p110
aS'VBZ'
p111
aS'VBN'
p112
aS'VBN'
p113
aS'IN'
p114
aS'DT'
p115
aS'NN'
p116
aS'NN'
p117
asS'ner_seq'
p118
(lp119
S'B-ORG'
p120
aS'I-ORG'
p121
aS'I-ORG'
p122
aS'I-ORG'
p123
aS'E-ORG'
p124
aS'O'
aS'O'
aS'O'
aS'O'
aS'O'
aS'O'
aS'O'
aS'O'
aS'O'
aS'O'
assb.