ccopy_reg
_reconstructor
p1
(c__main__
KBproperty
p2
c__builtin__
object
p3
NtRp4
(dp5
S'comment'
p6
S'number of houses present'
p7
sS'domain'
p8
S'Protected Area '
p9
sS'instances_count'
p10
S'0'
sS'label'
p11
g7
sS'range'
p12
S'string '
p13
sS'prop_uri'
p14
S"'http://dbpedia.org/ontology/numberOfHouses'"
p15
sS'annotations'
p16
(dp17
S'bag_of_words'
p18
(lp19
S'Protected'
p20
aS'Area'
p21
aS'number'
p22
aS'Of'
p23
aS'Houses'
p24
aS'string'
p25
aS'number'
p26
aS'of'
p27
aS'houses'
p28
aS'present'
p29
asS'chunk_seq'
p30
(lp31
S'B-NP'
p32
aS'I-NP'
p33
aS'E-NP'
p34
aS'S-PP'
p35
aS'B-NP'
p36
aS'I-NP'
p37
aS'E-NP'
p38
aS'S-PP'
p39
aS'S-NP'
p40
aS'S-ADJP'
p41
asS'dep_seq'
p42
(lp43
(lp44
S'amod'
p45
aS'3'
aS'1'
aa(lp46
S'nn'
p47
aS'3'
aS'2'
aa(lp48
S'root'
p49
aS'0'
aS'3'
aa(lp50
S'nn'
p51
aS'7'
aS'5'
aa(lp52
S'nn'
p53
aS'7'
aS'6'
aa(lp54
S'prep_of'
p55
aS'3'
aS'7'
aa(lp56
S'prep_of'
p57
aS'7'
aS'9'
aa(lp58
S'amod'
p59
aS'9'
aS'10'
p60
aasS'srls'
p61
(lp62
sS'pos_seq'
p63
(lp64
S'JJ'
p65
aS'NN'
p66
aS'NN'
p67
aS'IN'
p68
aS'NNS'
p69
aS'NN'
p70
aS'NN'
p71
aS'IN'
p72
aS'NNS'
p73
aS'JJ'
p74
asS'ner_seq'
p75
(lp76
S'O'
aS'O'
aS'O'
aS'B-ORG'
p77
aS'E-ORG'
p78
aS'O'
aS'O'
aS'O'
aS'O'
aS'O'
assb.