ccopy_reg
_reconstructor
p1
(c__main__
KBproperty
p2
c__builtin__
object
p3
NtRp4
(dp5
S'comment'
p6
S'mandate of the president of the general council'
p7
sS'domain'
p8
S'Place '
p9
sS'instances_count'
p10
S'0'
sS'label'
p11
g7
sS'range'
p12
S'string '
p13
sS'prop_uri'
p14
S"'http://dbpedia.org/ontology/presidentGeneralCouncilMandate'"
p15
sS'annotations'
p16
(dp17
S'bag_of_words'
p18
(lp19
S'Place'
p20
aS'president'
p21
aS'General'
p22
aS'Council'
p23
aS'Mandate'
p24
aS'string'
p25
aS'mandate'
p26
aS'of'
p27
aS'the'
p28
aS'president'
p29
aS'of'
p30
aS'the'
p31
aS'general'
p32
aS'council'
p33
asS'chunk_seq'
p34
(lp35
S'S-NP'
p36
aS'B-NP'
p37
aS'I-NP'
p38
aS'I-NP'
p39
aS'I-NP'
p40
aS'I-NP'
p41
aS'E-NP'
p42
aS'S-PP'
p43
aS'B-NP'
p44
aS'E-NP'
p45
aS'S-PP'
p46
aS'B-NP'
p47
aS'I-NP'
p48
aS'E-NP'
p49
asS'dep_seq'
p50
(lp51
(lp52
S'root'
p53
aS'0'
aS'1'
aa(lp54
S'nn'
p55
aS'7'
aS'2'
aa(lp56
S'nn'
p57
aS'7'
aS'3'
aa(lp58
S'nn'
p59
aS'7'
aS'4'
aa(lp60
S'nn'
p61
aS'7'
aS'5'
aa(lp62
S'nn'
p63
aS'7'
aS'6'
aa(lp64
S'dep'
p65
aS'1'
aS'7'
aa(lp66
S'det'
p67
aS'10'
p68
aS'9'
aa(lp69
S'prep_of'
p70
aS'7'
aS'10'
p71
aa(lp72
S'det'
p73
aS'14'
p74
aS'12'
p75
aa(lp76
S'amod'
p77
aS'14'
p78
aS'13'
p79
aa(lp80
S'prep_of'
p81
aS'10'
p82
aS'14'
p83
aasS'srls'
p84
(lp85
sS'pos_seq'
p86
(lp87
S'NN'
p88
aS'NN'
p89
aS'NNP'
p90
aS'NNP'
p91
aS'NNP'
p92
aS'NN'
p93
aS'NN'
p94
aS'IN'
p95
aS'DT'
p96
aS'NN'
p97
aS'IN'
p98
aS'DT'
p99
aS'JJ'
p100
aS'NN'
p101
asS'ner_seq'
p102
(lp103
S'O'
aS'O'
aS'B-ORG'
p104
aS'E-ORG'
p105
aS'O'
aS'O'
aS'O'
aS'O'
aS'O'
aS'O'
aS'O'
aS'O'
aS'O'
aS'O'
assb.