ccopy_reg
_reconstructor
p1
(c__main__
KBproperty
p2
c__builtin__
object
p3
NtRp4
(dp5
S'comment'
p6
S''
sS'domain'
p7
S'Architectural Structure '
p8
sS'instances_count'
p9
S'407'
p10
sS'label'
p11
S'rebuilding date'
p12
sS'range'
p13
S'date '
p14
sS'prop_uri'
p15
S"'http://dbpedia.org/ontology/rebuildingDate'"
p16
sS'annotations'
p17
(dp18
S'bag_of_words'
p19
(lp20
S'Architectural'
p21
aS'Structure'
p22
aS'rebuilding'
p23
aS'date'
p24
aS'date'
p25
asS'chunk_seq'
p26
(lp27
S'B-NP'
p28
aS'E-NP'
p29
aS'S-VP'
p30
aS'B-NP'
p31
aS'E-NP'
p32
asS'dep_seq'
p33
(lp34
(lp35
S'amod'
p36
aS'2'
aS'1'
aa(lp37
S'root'
p38
aS'0'
aS'2'
aa(lp39
S'partmod'
p40
aS'2'
aS'3'
aa(lp41
S'nn'
p42
aS'5'
aS'4'
aa(lp43
S'dobj'
p44
aS'3'
aS'5'
aasS'srls'
p45
(lp46
(dp47
S'A0'
p48
S'Architectural Structure'
p49
sS'AM-TMP'
p50
S'date date'
p51
sS'V'
g23
sasS'pos_seq'
p52
(lp53
S'JJ'
p54
aS'NN'
p55
aS'VBG'
p56
aS'NN'
p57
aS'NN'
p58
asS'ner_seq'
p59
(lp60
S'O'
aS'O'
aS'O'
aS'O'
aS'O'
assb.