ccopy_reg
_reconstructor
p1
(c__main__
KBproperty
p2
c__builtin__
object
p3
NtRp4
(dp5
S'comment'
p6
S''
sS'domain'
p7
S''
sS'instances_count'
p8
S'45794'
p9
sS'label'
p10
S'order in office'
p11
sS'range'
p12
S'string '
p13
sS'prop_uri'
p14
S"'http://dbpedia.org/ontology/orderInOffice'"
p15
sS'annotations'
p16
(dp17
S'bag_of_words'
p18
(lp19
S'order'
p20
aS'in'
p21
aS'office'
p22
aS'string'
p23
asS'chunk_seq'
p24
(lp25
S'O'
aS'S-PP'
p26
aS'B-NP'
p27
aS'E-NP'
p28
asS'dep_seq'
p29
(lp30
(lp31
S'root'
p32
aS'0'
aS'1'
aa(lp33
S'nn'
p34
aS'4'
aS'3'
aa(lp35
S'prep_in'
p36
aS'1'
aS'4'
aasS'srls'
p37
(lp38
sS'pos_seq'
p39
(lp40
S'NN'
p41
aS'IN'
p42
aS'NN'
p43
aS'NN'
p44
asS'ner_seq'
p45
(lp46
S'O'
aS'O'
aS'O'
aS'O'
assb.