ccopy_reg
_reconstructor
p1
(c__main__
KBproperty
p2
c__builtin__
object
p3
NtRp4
(dp5
S'comment'
p6
S"Date a page was extracted ''''''"
p7
sS'domain'
p8
S''
sS'instances_count'
p9
S'0'
sS'label'
p10
S'extraction datetime'
p11
sS'range'
p12
S'date Time '
p13
sS'prop_uri'
p14
S"'http://dbpedia.org/ontology/wikiPageExtracted'"
p15
sS'annotations'
p16
(dp17
S'bag_of_words'
p18
(lp19
S'extraction'
p20
aS'datetime'
p21
aS'date'
p22
aS'Time'
p23
aS'Date'
p24
aS'a'
aS'page'
p25
aS'was'
p26
aS'extracted'
p27
aS"'''"
p28
aS"'''"
p29
asS'chunk_seq'
p30
(lp31
S'B-NP'
p32
aS'I-NP'
p33
aS'E-NP'
p34
aS'B-NP'
p35
aS'E-NP'
p36
aS'B-NP'
p37
aS'E-NP'
p38
aS'B-VP'
p39
aS'E-VP'
p40
aS'O'
aS'O'
asS'dep_seq'
p41
(lp42
(lp43
S'nn'
p44
aS'3'
aS'1'
aa(lp45
S'amod'
p46
aS'3'
aS'2'
aa(lp47
S'root'
p48
aS'0'
aS'3'
aa(lp49
S'nn'
p50
aS'5'
aS'4'
aa(lp51
S'dep'
p52
aS'3'
aS'5'
aa(lp53
S'det'
p54
aS'7'
aS'6'
aa(lp55
S'nsubjpass'
p56
aS'9'
aS'7'
aa(lp57
S'auxpass'
p58
aS'9'
aS'8'
aa(lp59
S'rcmod'
p60
aS'5'
aS'9'
aa(lp61
S'advmod'
p62
aS'9'
aS'10'
p63
aa(lp64
S'punct'
p65
aS'5'
aS'11'
p66
aasS'srls'
p67
(lp68
(dp69
S'A1'
p70
S'extraction datetime date  a page'
p71
sS'AM-TMP'
p72
S'Time Date'
p73
sS'V'
g27
sasS'pos_seq'
p74
(lp75
S'NN'
p76
aS'JJ'
p77
aS'NN'
p78
aS'NN'
p79
aS'NN'
p80
aS'DT'
p81
aS'NN'
p82
aS'VBD'
p83
aS'VBN'
p84
aS'.'
aS'-RRB-'
p85
asS'ner_seq'
p86
(lp87
S'O'
aS'O'
aS'O'
aS'O'
aS'O'
aS'O'
aS'O'
aS'O'
aS'O'
aS'O'
aS'O'
assb.