ccopy_reg
_reconstructor
p1
(c__main__
KBproperty
p2
c__builtin__
object
p3
NtRp4
(dp5
S'comment'
p6
S'Ruling referred to in this legal case'
p7
sS'domain'
p8
S'Legal Case '
p9
sS'instances_count'
p10
S'0'
sS'label'
p11
S'ruling'
p12
sS'range'
p13
S'string '
p14
sS'prop_uri'
p15
S"'http://dbpedia.org/ontology/ruling'"
p16
sS'annotations'
p17
(dp18
S'bag_of_words'
p19
(lp20
S'Legal'
p21
aS'Case'
p22
aS'ruling'
p23
aS'string'
p24
aS'Ruling'
p25
aS'referred'
p26
aS'to'
p27
aS'in'
p28
aS'this'
p29
aS'legal'
p30
aS'case'
p31
asS'chunk_seq'
p32
(lp33
S'B-NP'
p34
aS'I-NP'
p35
aS'I-NP'
p36
aS'I-NP'
p37
aS'E-NP'
p38
aS'S-VP'
p39
aS'S-PP'
p40
aS'S-PP'
p41
aS'B-NP'
p42
aS'I-NP'
p43
aS'E-NP'
p44
asS'dep_seq'
p45
(lp46
(lp47
S'amod'
p48
aS'5'
aS'1'
aa(lp49
S'nn'
p50
aS'5'
aS'2'
aa(lp51
S'nn'
p52
aS'5'
aS'3'
aa(lp53
S'nn'
p54
aS'5'
aS'4'
aa(lp55
S'nsubj'
p56
aS'6'
aS'5'
aa(lp57
S'root'
p58
aS'0'
aS'6'
aa(lp59
S'prep'
p60
aS'6'
aS'7'
aa(lp61
S'pcomp'
p62
aS'7'
aS'8'
aa(lp63
S'det'
p64
aS'11'
p65
aS'9'
aa(lp66
S'amod'
p67
aS'11'
p68
aS'10'
p69
aa(lp70
S'pobj'
p71
aS'8'
aS'11'
p72
aasS'srls'
p73
(lp74
(dp75
S'A1'
p76
S'to in this legal case'
p77
sS'A0'
p78
S'Legal Case ruling string Ruling'
p79
sS'V'
g26
sasS'pos_seq'
p80
(lp81
S'JJ'
p82
aS'NN'
p83
aS'NN'
p84
aS'NN'
p85
aS'NN'
p86
aS'VBD'
p87
aS'TO'
p88
aS'IN'
p89
aS'DT'
p90
aS'JJ'
p91
aS'NN'
p92
asS'ner_seq'
p93
(lp94
S'O'
aS'O'
aS'O'
aS'O'
aS'O'
aS'O'
aS'O'
aS'O'
aS'O'
aS'O'
aS'O'
assb.