ccopy_reg
_reconstructor
p1
(c__main__
KBproperty
p2
c__builtin__
object
p3
NtRp4
(dp5
S'comment'
p6
S''
sS'domain'
p7
S'College Coach '
p8
sS'instances_count'
p9
S'223'
p10
sS'label'
p11
S'coached team'
p12
sS'range'
p13
S'Sports Team '
p14
sS'prop_uri'
p15
S"'http://dbpedia.org/ontology/coachedTeam'"
p16
sS'annotations'
p17
(dp18
S'bag_of_words'
p19
(lp20
S'College'
p21
aS'Coach'
p22
aS'coached'
p23
aS'team'
p24
aS'Sports'
p25
aS'Team'
p26
asS'chunk_seq'
p27
(lp28
S'B-NP'
p29
aS'E-NP'
p30
aS'S-VP'
p31
aS'B-NP'
p32
aS'I-NP'
p33
aS'E-NP'
p34
asS'dep_seq'
p35
(lp36
(lp37
S'nn'
p38
aS'2'
aS'1'
aa(lp39
S'nsubj'
p40
aS'3'
aS'2'
aa(lp41
S'root'
p42
aS'0'
aS'3'
aa(lp43
S'nn'
p44
aS'6'
aS'4'
aa(lp45
S'nn'
p46
aS'6'
aS'5'
aa(lp47
S'dobj'
p48
aS'3'
aS'6'
aasS'srls'
p49
(lp50
(dp51
S'A1'
p52
S'team Sports Team'
p53
sS'A0'
p54
S'College Coach'
p55
sS'V'
g23
sasS'pos_seq'
p56
(lp57
S'NNP'
p58
aS'NNP'
p59
aS'VBD'
p60
aS'NN'
p61
aS'NNP'
p62
aS'NNP'
p63
asS'ner_seq'
p64
(lp65
S'B-ORG'
p66
aS'E-ORG'
p67
aS'O'
aS'O'
aS'B-ORG'
p68
aS'E-ORG'
p69
assb.