ccopy_reg
_reconstructor
p1
(c__main__
KBproperty
p2
c__builtin__
object
p3
NtRp4
(dp5
S'comment'
p6
S'http://dbpedia.org/ontology/SportsTeam'
p7
sS'domain'
p8
S'Athlete '
p9
sS'instances_count'
p10
S'0'
sS'label'
p11
g7
sS'range'
p12
S'Career Station '
p13
sS'prop_uri'
p14
S"'http://dbpedia.org/ontology/proTeam'"
p15
sS'annotations'
p16
(dp17
S'bag_of_words'
p18
(lp19
S'Athlete'
p20
aS'pro'
p21
aS'Team'
p22
aS'Career'
p23
aS'Station'
p24
aS'http'
p25
aS':'
aS'//'
p26
aS'dbpedia'
p27
aS'.org'
p28
aS'/'
aS'ontology'
p29
aS'/S'
p30
aS'portsTeam'
p31
asS'chunk_seq'
p32
(lp33
S'B-NP'
p34
aS'I-NP'
p35
aS'I-NP'
p36
aS'I-NP'
p37
aS'I-NP'
p38
aS'E-NP'
p39
aS'O'
aS'O'
aS'O'
aS'O'
aS'O'
aS'O'
aS'O'
aS'O'
asS'dep_seq'
p40
(lp41
(lp42
S'nn'
p43
aS'6'
aS'1'
aa(lp44
S'nn'
p45
aS'6'
aS'2'
aa(lp46
S'nn'
p47
aS'6'
aS'3'
aa(lp48
S'nn'
p49
aS'6'
aS'4'
aa(lp50
S'nn'
p51
aS'6'
aS'5'
aa(lp52
S'root'
p53
aS'0'
aS'6'
aa(lp54
S'discourse'
p55
aS'6'
aS'8'
aa(lp56
S'dep'
p57
aS'8'
aS'9'
aa(lp58
S'dep'
p59
aS'8'
aS'10'
p60
aa(lp61
S'dep'
p62
aS'8'
aS'11'
p63
aa(lp64
S'dep'
p65
aS'8'
aS'12'
p66
aa(lp67
S'dep'
p68
aS'8'
aS'13'
p69
aa(lp70
S'dep'
p71
aS'8'
aS'14'
p72
aasS'srls'
p73
(lp74
sS'pos_seq'
p75
(lp76
S'NNP'
p77
aS'NNP'
p78
aS'NNP'
p79
aS'NNP'
p80
aS'NNP'
p81
aS'NN'
p82
aS':'
aS'FW'
p83
aS'FW'
p84
aS'FW'
p85
aS'FW'
p86
aS'FW'
p87
aS'FW'
p88
aS'FW'
p89
asS'ner_seq'
p90
(lp91
S'O'
aS'O'
aS'B-ORG'
p92
aS'I-ORG'
p93
aS'E-ORG'
p94
aS'O'
aS'O'
aS'O'
aS'O'
aS'O'
aS'O'
aS'O'
aS'O'
aS'O'
assb.