ccopy_reg
_reconstructor
p1
(c__main__
KBproperty
p2
c__builtin__
object
p3
NtRp4
(dp5
S'comment'
p6
S'Row # where the referenced resource is to be found in the source file'
p7
sS'domain'
p8
S'Reference '
p9
sS'instances_count'
p10
S'0'
sS'label'
p11
S'row number'
p12
sS'range'
p13
S'string '
p14
sS'prop_uri'
p15
S"'http://dbpedia.org/ontology/atRowNumber'"
p16
sS'annotations'
p17
(dp18
S'bag_of_words'
p19
(lp20
S'Reference'
p21
aS'row'
p22
aS'number'
p23
aS'string'
p24
aS'Row'
p25
aS'#'
aS'where'
p26
aS'the'
p27
aS'referenced'
p28
aS'resource'
p29
aS'is'
p30
aS'to'
p31
aS'be'
p32
aS'found'
p33
aS'in'
p34
aS'the'
p35
aS'source'
p36
aS'file'
p37
asS'chunk_seq'
p38
(lp39
S'B-NP'
p40
aS'I-NP'
p41
aS'I-NP'
p42
aS'I-NP'
p43
aS'E-NP'
p44
aS'S-PP'
p45
aS'S-ADVP'
p46
aS'B-NP'
p47
aS'I-NP'
p48
aS'E-NP'
p49
aS'B-VP'
p50
aS'I-VP'
p51
aS'I-VP'
p52
aS'E-VP'
p53
aS'S-PP'
p54
aS'B-NP'
p55
aS'I-NP'
p56
aS'E-NP'
p57
asS'dep_seq'
p58
(lp59
(lp60
S'nn'
p61
aS'5'
aS'1'
aa(lp62
S'nn'
p63
aS'5'
aS'2'
aa(lp64
S'nn'
p65
aS'5'
aS'3'
aa(lp66
S'nn'
p67
aS'5'
aS'4'
aa(lp68
S'root'
p69
aS'0'
aS'5'
aa(lp70
S'advmod'
p71
aS'11'
p72
aS'7'
aa(lp73
S'det'
p74
aS'10'
p75
aS'8'
aa(lp76
S'amod'
p77
aS'10'
p78
aS'9'
aa(lp79
S'nsubj'
p80
aS'11'
p81
aS'10'
p82
aa(lp83
S'xsubj'
p84
aS'14'
p85
aS'10'
p86
aa(lp87
S'prepc_#'
p88
aS'5'
aS'11'
p89
aa(lp90
S'aux'
p91
aS'14'
p92
aS'12'
p93
aa(lp94
S'auxpass'
p95
aS'14'
p96
aS'13'
p97
aa(lp98
S'xcomp'
p99
aS'11'
p100
aS'14'
p101
aa(lp102
S'det'
p103
aS'18'
p104
aS'16'
p105
aa(lp106
S'nn'
p107
aS'18'
p108
aS'17'
p109
aa(lp110
S'prep_in'
p111
aS'14'
p112
aS'18'
p113
aasS'srls'
p114
(lp115
(dp116
S'A1'
p117
g29
sS'V'
g28
sa(dp118
S'A1'
p119
S'the referenced resource'
p120
sS'AM-LOC'
p121
S'in the source file'
p122
sS'V'
g33
sasS'pos_seq'
p123
(lp124
S'NN'
p125
aS'NN'
p126
aS'NN'
p127
aS'NN'
p128
aS'NN'
p129
aS'IN'
p130
aS'WRB'
p131
aS'DT'
p132
aS'VBN'
p133
aS'NN'
p134
aS'VBZ'
p135
aS'TO'
p136
aS'VB'
p137
aS'VBN'
p138
aS'IN'
p139
aS'DT'
p140
aS'NN'
p141
aS'NN'
p142
asS'ner_seq'
p143
(lp144
S'O'
aS'O'
aS'O'
aS'O'
aS'O'
aS'O'
aS'O'
aS'O'
aS'O'
aS'O'
aS'O'
aS'O'
aS'O'
aS'O'
aS'O'
aS'O'
aS'O'
aS'O'
assb.