ccopy_reg
_reconstructor
p1
(c__main__
KBproperty
p2
c__builtin__
object
p3
NtRp4
(dp5
S'comment'
p6
S''
sS'domain'
p7
S'Company '
p8
sS'instances_count'
p9
S'4303'
p10
sS'label'
p11
S'internationally'
p12
sS'range'
p13
S'boolean '
p14
sS'prop_uri'
p15
S"'http://dbpedia.org/ontology/internationally'"
p16
sS'annotations'
p17
(dp18
S'bag_of_words'
p19
(lp20
S'Company'
p21
aS'internationally'
p22
aS'boolean'
p23
asS'chunk_seq'
p24
(lp25
S'S-NP'
p26
aS'B-ADJP'
p27
aS'E-ADJP'
p28
asS'dep_seq'
p29
(lp30
(lp31
S'root'
p32
aS'0'
aS'1'
aa(lp33
S'advmod'
p34
aS'3'
aS'2'
aa(lp35
S'amod'
p36
aS'1'
aS'3'
aasS'srls'
p37
(lp38
sS'pos_seq'
p39
(lp40
S'NN'
p41
aS'RB'
p42
aS'JJ'
p43
asS'ner_seq'
p44
(lp45
S'O'
aS'O'
aS'O'
assb.