ccopy_reg
_reconstructor
p1
(c__main__
KBproperty
p2
c__builtin__
object
p3
NtRp4
(dp5
S'comment'
p6
S''
sS'domain'
p7
S'Place '
p8
sS'instances_count'
p9
S'0'
sS'label'
p10
S'kind of coordinate'
p11
sS'range'
p12
S'string '
p13
sS'prop_uri'
p14
S"'http://dbpedia.org/ontology/kindOfCoordinate'"
p15
sS'annotations'
p16
(dp17
S'bag_of_words'
p18
(lp19
S'Place'
p20
aS'kind'
p21
aS'of'
p22
aS'coordinate'
p23
aS'string'
p24
asS'chunk_seq'
p25
(lp26
S'B-NP'
p27
aS'E-NP'
p28
aS'S-PP'
p29
aS'B-NP'
p30
aS'E-NP'
p31
asS'dep_seq'
p32
(lp33
(lp34
S'dep'
p35
aS'2'
aS'1'
aa(lp36
S'root'
p37
aS'0'
aS'2'
aa(lp38
S'dep'
p39
aS'5'
aS'4'
aa(lp40
S'prep_of'
p41
aS'2'
aS'5'
aasS'srls'
p42
(lp43
(dp44
S'A1'
p45
g24
sS'A2'
p46
g20
sS'AM-MNR'
p47
S'kind of'
p48
sS'V'
g23
sasS'pos_seq'
p49
(lp50
S'NN'
p51
aS'NN'
p52
aS'IN'
p53
aS'VB'
p54
aS'NN'
p55
asS'ner_seq'
p56
(lp57
S'O'
aS'O'
aS'O'
aS'O'
aS'O'
assb.