ccopy_reg
_reconstructor
p1
(c__main__
KBproperty
p2
c__builtin__
object
p3
NtRp4
(dp5
S'comment'
p6
S'Notes about an exhibition the object has been to'
p7
sS'domain'
p8
S''
sS'instances_count'
p9
S'0'
sS'label'
p10
S'exhibition'
p11
sS'range'
p12
S'string '
p13
sS'prop_uri'
p14
S"'http://dbpedia.org/ontology/exhibition'"
p15
sS'annotations'
p16
(dp17
S'bag_of_words'
p18
(lp19
S'exhibition'
p20
aS'string'
p21
aS'Notes'
p22
aS'about'
p23
aS'an'
p24
aS'exhibition'
p25
aS'the'
p26
aS'object'
p27
aS'has'
p28
aS'been'
p29
aS'to'
p30
asS'chunk_seq'
p31
(lp32
S'B-NP'
p33
aS'E-NP'
p34
aS'S-VP'
p35
aS'S-PP'
p36
aS'B-NP'
p37
aS'E-NP'
p38
aS'B-NP'
p39
aS'E-NP'
p40
aS'B-VP'
p41
aS'E-VP'
p42
aS'S-PP'
p43
asS'dep_seq'
p44
(lp45
(lp46
S'nn'
p47
aS'2'
aS'1'
aa(lp48
S'nsubj'
p49
aS'3'
aS'2'
aa(lp50
S'root'
p51
aS'0'
aS'3'
aa(lp52
S'det'
p53
aS'6'
aS'5'
aa(lp54
S'prep_about'
p55
aS'10'
p56
aS'6'
aa(lp57
S'det'
p58
aS'8'
aS'7'
aa(lp59
S'nsubj'
p60
aS'10'
p61
aS'8'
aa(lp62
S'aux'
p63
aS'10'
p64
aS'9'
aa(lp65
S'ccomp'
p66
aS'3'
aS'10'
p67
aa(lp68
S'prep'
p69
aS'10'
p70
aS'11'
p71
aasS'srls'
p72
(lp73
(dp74
S'A0'
p75
S'exhibition string'
p76
sS'AM-MNR'
p77
S'about an exhibition the object'
p78
sS'V'
g22
sasS'pos_seq'
p79
(lp80
S'NN'
p81
aS'NN'
p82
aS'VBZ'
p83
aS'IN'
p84
aS'DT'
p85
aS'NN'
p86
aS'DT'
p87
aS'NN'
p88
aS'VBZ'
p89
aS'VBN'
p90
aS'TO'
p91
asS'ner_seq'
p92
(lp93
S'O'
aS'O'
aS'O'
aS'O'
aS'O'
aS'O'
aS'O'
aS'O'
aS'O'
aS'O'
aS'O'
assb.