ccopy_reg
_reconstructor
p1
(c__main__
KBproperty
p2
c__builtin__
object
p3
NtRp4
(dp5
S'comment'
p6
S'The end location of the route.'
p7
sS'domain'
p8
S'Route Of Transportation '
p9
sS'instances_count'
p10
S'206'
p11
sS'label'
p12
S'route end location'
p13
sS'range'
p14
S'Place '
p15
sS'prop_uri'
p16
S"'http://dbpedia.org/ontology/routeEndLocation'"
p17
sS'annotations'
p18
(dp19
S'bag_of_words'
p20
(lp21
S'Route'
p22
aS'Of'
p23
aS'Transportation'
p24
aS'route'
p25
aS'end'
p26
aS'location'
p27
aS'Place'
p28
aS'The'
p29
aS'end'
p30
aS'location'
p31
aS'of'
p32
aS'the'
p33
aS'route'
p34
aS'.'
asS'chunk_seq'
p35
(lp36
S'S-NP'
p37
aS'S-PP'
p38
aS'B-NP'
p39
aS'I-NP'
p40
aS'I-NP'
p41
aS'I-NP'
p42
aS'E-NP'
p43
aS'B-NP'
p44
aS'I-NP'
p45
aS'E-NP'
p46
aS'S-PP'
p47
aS'B-NP'
p48
aS'E-NP'
p49
aS'O'
asS'dep_seq'
p50
(lp51
(lp52
S'dep'
p53
aS'10'
p54
aS'1'
aa(lp55
S'prep_of'
p56
aS'1'
aS'3'
aa(lp57
S'nn'
p58
aS'7'
aS'4'
aa(lp59
S'nn'
p60
aS'7'
aS'5'
aa(lp61
S'nn'
p62
aS'7'
aS'6'
aa(lp63
S'dep'
p64
aS'10'
p65
aS'7'
aa(lp66
S'det'
p67
aS'10'
p68
aS'8'
aa(lp69
S'nn'
p70
aS'10'
p71
aS'9'
aa(lp72
S'root'
p73
aS'0'
aS'10'
p74
aa(lp75
S'det'
p76
aS'13'
p77
aS'12'
p78
aa(lp79
S'prep_of'
p80
aS'10'
p81
aS'13'
p82
aasS'srls'
p83
(lp84
sS'pos_seq'
p85
(lp86
S'NNP'
p87
aS'IN'
p88
aS'NNP'
p89
aS'NN'
p90
aS'NN'
p91
aS'NN'
p92
aS'NN'
p93
aS'DT'
p94
aS'NN'
p95
aS'NN'
p96
aS'IN'
p97
aS'DT'
p98
aS'NN'
p99
aS'.'
asS'ner_seq'
p100
(lp101
S'B-ORG'
p102
aS'I-ORG'
p103
aS'E-ORG'
p104
aS'O'
aS'O'
aS'O'
aS'O'
aS'O'
aS'O'
aS'O'
aS'O'
aS'O'
aS'O'
aS'O'
assb.