ccopy_reg
_reconstructor
p1
(c__main__
KBproperty
p2
c__builtin__
object
p3
NtRp4
(dp5
S'comment'
p6
S''
sS'domain'
p7
S'Aircraft '
p8
sS'instances_count'
p9
S'76'
p10
sS'label'
p11
S'program cost $'
p12
sS'range'
p13
S'double '
p14
sS'prop_uri'
p15
S"'http://dbpedia.org/ontology/programCost'"
p16
sS'annotations'
p17
(dp18
S'bag_of_words'
p19
(lp20
S'Aircraft'
p21
aS'program'
p22
aS'cost'
p23
aS'$'
aS'double'
p24
asS'chunk_seq'
p25
(lp26
S'B-NP'
p27
aS'I-NP'
p28
aS'E-NP'
p29
aS'B-NP'
p30
aS'E-NP'
p31
asS'dep_seq'
p32
(lp33
(lp34
S'nn'
p35
aS'2'
aS'1'
aa(lp36
S'nsubj'
p37
aS'3'
aS'2'
aa(lp38
S'root'
p39
aS'0'
aS'3'
aa(lp40
S'dobj'
p41
aS'3'
aS'4'
aa(lp42
S'amod'
p43
aS'4'
aS'5'
aasS'srls'
p44
(lp45
sS'pos_seq'
p46
(lp47
S'NNP'
p48
aS'NN'
p49
aS'NN'
p50
aS'$'
aS'JJ'
p51
asS'ner_seq'
p52
(lp53
S'O'
aS'O'
aS'O'
aS'O'
aS'O'
assb.