ccopy_reg
_reconstructor
p1
(c__main__
KBproperty
p2
c__builtin__
object
p3
NtRp4
(dp5
S'comment'
p6
S'ISNI is a method for uniquely identifying the public identities of contributors to media content such as books TV programmes and newspaper articles.'
p7
sS'domain'
p8
S''
sS'instances_count'
p9
S'50'
p10
sS'label'
p11
S'ISNI Id'
p12
sS'range'
p13
S'string '
p14
sS'prop_uri'
p15
S"'http://dbpedia.org/ontology/isniId'"
p16
sS'annotations'
p17
(dp18
S'bag_of_words'
p19
(lp20
S'ISNI'
p21
aS'Id'
p22
aS'string'
p23
aS'ISNI'
p24
aS'is'
p25
aS'a'
aS'method'
p26
aS'for'
p27
aS'uniquely'
p28
aS'identifying'
p29
aS'the'
p30
aS'public'
p31
aS'identities'
p32
aS'of'
p33
aS'contributors'
p34
aS'to'
p35
aS'media'
p36
aS'content'
p37
aS'such'
p38
aS'as'
p39
aS'books'
p40
aS'TV'
p41
aS'programmes'
p42
aS'and'
p43
aS'newspaper'
p44
aS'articles'
p45
aS'.'
asS'chunk_seq'
p46
(lp47
S'B-NP'
p48
aS'I-NP'
p49
aS'I-NP'
p50
aS'E-NP'
p51
aS'S-VP'
p52
aS'B-NP'
p53
aS'E-NP'
p54
aS'S-PP'
p55
aS'B-VP'
p56
aS'E-VP'
p57
aS'B-NP'
p58
aS'I-NP'
p59
aS'E-NP'
p60
aS'S-PP'
p61
aS'S-NP'
p62
aS'S-PP'
p63
aS'B-NP'
p64
aS'E-NP'
p65
aS'B-PP'
p66
aS'E-PP'
p67
aS'B-NP'
p68
aS'I-NP'
p69
aS'E-NP'
p70
aS'O'
aS'B-NP'
p71
aS'E-NP'
p72
aS'O'
asS'dep_seq'
p73
(lp74
(lp75
S'nn'
p76
aS'4'
aS'1'
aa(lp77
S'nn'
p78
aS'4'
aS'2'
aa(lp79
S'nn'
p80
aS'4'
aS'3'
aa(lp81
S'nsubj'
p82
aS'7'
aS'4'
aa(lp83
S'cop'
p84
aS'7'
aS'5'
aa(lp85
S'det'
p86
aS'7'
aS'6'
aa(lp87
S'root'
p88
aS'0'
aS'7'
aa(lp89
S'advmod'
p90
aS'10'
p91
aS'9'
aa(lp92
S'prepc_for'
p93
aS'7'
aS'10'
p94
aa(lp95
S'det'
p96
aS'13'
p97
aS'11'
p98
aa(lp99
S'amod'
p100
aS'13'
p101
aS'12'
p102
aa(lp103
S'dobj'
p104
aS'10'
p105
aS'13'
p106
aa(lp107
S'prep_of'
p108
aS'13'
p109
aS'15'
p110
aa(lp111
S'prep_to'
p112
aS'15'
p113
aS'17'
p114
aa(lp115
S'amod'
p116
aS'17'
p117
aS'18'
p118
aa(lp119
S'nn'
p120
aS'23'
p121
aS'21'
p122
aa(lp123
S'nn'
p124
aS'23'
p125
aS'22'
p126
aa(lp127
S'prep_such_as'
p128
aS'17'
p129
aS'23'
p130
aa(lp131
S'nn'
p132
aS'26'
p133
aS'25'
p134
aa(lp135
S'conj_and'
p136
aS'23'
p137
aS'26'
p138
aasS'srls'
p139
(lp140
(dp141
S'A1'
p142
S'the public identities of contributors'
p143
sS'A2'
p144
S'to media content such as books TV programmes and newspaper articles'
p145
sS'AM-MNR'
p146
g28
sS'V'
g29
sasS'pos_seq'
p147
(lp148
S'NNP'
p149
aS'NNP'
p150
aS'NN'
p151
aS'NNP'
p152
aS'VBZ'
p153
aS'DT'
p154
aS'NN'
p155
aS'IN'
p156
aS'RB'
p157
aS'VBG'
p158
aS'DT'
p159
aS'JJ'
p160
aS'NNS'
p161
aS'IN'
p162
aS'NNS'
p163
aS'TO'
p164
aS'NNS'
p165
aS'JJ'
p166
aS'JJ'
p167
aS'IN'
p168
aS'NNS'
p169
aS'NN'
p170
aS'NNS'
p171
aS'CC'
p172
aS'NN'
p173
aS'NNS'
p174
aS'.'
asS'ner_seq'
p175
(lp176
S'O'
aS'O'
aS'O'
aS'S-ORG'
p177
aS'O'
aS'O'
aS'O'
aS'O'
aS'O'
aS'O'
aS'O'
aS'O'
aS'O'
aS'O'
aS'O'
aS'O'
aS'O'
aS'O'
aS'O'
aS'O'
aS'O'
aS'O'
aS'O'
aS'O'
aS'O'
aS'O'
aS'O'
assb.