ccopy_reg
_reconstructor
p1
(c__main__
KBproperty
p2
c__builtin__
object
p3
NtRp4
(dp5
S'comment'
p6
S''
sS'domain'
p7
S'Person '
p8
sS'instances_count'
p9
S'1104'
p10
sS'label'
p11
S'notableIdea'
p12
sS'range'
p13
S''
sS'prop_uri'
p14
S"'http://dbpedia.org/ontology/notableIdea'"
p15
sS'annotations'
p16
(dp17
S'bag_of_words'
p18
(lp19
S'Person'
p20
aS'notableIdea'
p21
asS'chunk_seq'
p22
(lp23
S'S-NP'
p24
aS'S-ADJP'
p25
asS'dep_seq'
p26
(lp27
(lp28
S'root'
p29
aS'0'
aS'1'
aa(lp30
S'punct'
p31
aS'1'
aS'2'
aasS'srls'
p32
(lp33
sS'pos_seq'
p34
(lp35
S'NN'
p36
aS'.'
asS'ner_seq'
p37
(lp38
S'O'
aS'O'
assb.