ccopy_reg
_reconstructor
p1
(c__main__
KBproperty
p2
c__builtin__
object
p3
NtRp4
(dp5
S'comment'
p6
S'The URL at which this file can be downloaded'
p7
sS'domain'
p8
S'File '
p9
sS'instances_count'
p10
S'0'
sS'label'
p11
g7
sS'range'
p12
S'File '
p13
sS'prop_uri'
p14
S"'http://dbpedia.org/ontology/fileURL'"
p15
sS'annotations'
p16
(dp17
S'bag_of_words'
p18
(lp19
S'File'
p20
aS'file'
p21
aS'File'
p22
aS'The'
p23
aS'URL'
p24
aS'at'
p25
aS'which'
p26
aS'this'
p27
aS'file'
p28
aS'can'
p29
aS'be'
p30
aS'downloaded'
p31
asS'chunk_seq'
p32
(lp33
S'B-NP'
p34
aS'I-NP'
p35
aS'E-NP'
p36
aS'B-NP'
p37
aS'E-NP'
p38
aS'S-PP'
p39
aS'S-NP'
p40
aS'B-NP'
p41
aS'E-NP'
p42
aS'B-VP'
p43
aS'I-VP'
p44
aS'E-VP'
p45
asS'dep_seq'
p46
(lp47
(lp48
S'nn'
p49
aS'5'
aS'1'
aa(lp50
S'nn'
p51
aS'5'
aS'2'
aa(lp52
S'nn'
p53
aS'5'
aS'3'
aa(lp54
S'nn'
p55
aS'5'
aS'4'
aa(lp56
S'root'
p57
aS'0'
aS'5'
aa(lp58
S'prep_at'
p59
aS'12'
p60
aS'5'
aa(lp61
S'rel'
p62
aS'12'
p63
aS'6'
aa(lp64
S'det'
p65
aS'9'
aS'8'
aa(lp66
S'nsubjpass'
p67
aS'12'
p68
aS'9'
aa(lp69
S'aux'
p70
aS'12'
p71
aS'10'
p72
aa(lp73
S'auxpass'
p74
aS'12'
p75
aS'11'
p76
aa(lp77
S'rcmod'
p78
aS'5'
aS'12'
p79
aasS'srls'
p80
(lp81
sS'pos_seq'
p82
(lp83
S'NNP'
p84
aS'NN'
p85
aS'NNP'
p86
aS'NNP'
p87
aS'NNP'
p88
aS'IN'
p89
aS'WDT'
p90
aS'DT'
p91
aS'NN'
p92
aS'MD'
p93
aS'VB'
p94
aS'VBN'
p95
asS'ner_seq'
p96
(lp97
S'O'
aS'O'
aS'O'
aS'O'
aS'O'
aS'O'
aS'O'
aS'O'
aS'O'
aS'O'
aS'O'
aS'O'
assb.