ccopy_reg
_reconstructor
p1
(c__main__
KBproperty
p2
c__builtin__
object
p3
NtRp4
(dp5
S'comment'
p6
S'yellow coordinate in the CMYK space'
p7
sS'domain'
p8
S'Colour '
p9
sS'instances_count'
p10
S'954'
p11
sS'label'
p12
g7
sS'range'
p13
S'integer '
p14
sS'prop_uri'
p15
S"'http://dbpedia.org/ontology/cmykCoordinateYellow'"
p16
sS'annotations'
p17
(dp18
S'bag_of_words'
p19
(lp20
S'Colour'
p21
aS'cmyk'
p22
aS'Coordinate'
p23
aS'Yellow'
p24
aS'integer'
p25
aS'yellow'
p26
aS'coordinate'
p27
aS'in'
p28
aS'the'
p29
aS'CMYK'
p30
aS'space'
p31
asS'chunk_seq'
p32
(lp33
S'B-NP'
p34
aS'I-NP'
p35
aS'I-NP'
p36
aS'I-NP'
p37
aS'I-NP'
p38
aS'I-NP'
p39
aS'E-NP'
p40
aS'S-PP'
p41
aS'B-NP'
p42
aS'I-NP'
p43
aS'E-NP'
p44
asS'dep_seq'
p45
(lp46
(lp47
S'nn'
p48
aS'7'
aS'1'
aa(lp49
S'nn'
p50
aS'7'
aS'2'
aa(lp51
S'nn'
p52
aS'7'
aS'3'
aa(lp53
S'nn'
p54
aS'7'
aS'4'
aa(lp55
S'nn'
p56
aS'7'
aS'5'
aa(lp57
S'amod'
p58
aS'7'
aS'6'
aa(lp59
S'root'
p60
aS'0'
aS'7'
aa(lp61
S'det'
p62
aS'11'
p63
aS'9'
aa(lp64
S'nn'
p65
aS'11'
p66
aS'10'
p67
aa(lp68
S'prep_in'
p69
aS'7'
aS'11'
p70
aasS'srls'
p71
(lp72
sS'pos_seq'
p73
(lp74
S'NN'
p75
aS'NN'
p76
aS'NNP'
p77
aS'NNP'
p78
aS'NN'
p79
aS'JJ'
p80
aS'NN'
p81
aS'IN'
p82
aS'DT'
p83
aS'NN'
p84
aS'NN'
p85
asS'ner_seq'
p86
(lp87
S'O'
aS'O'
aS'B-MISC'
p88
aS'E-MISC'
p89
aS'O'
aS'O'
aS'O'
aS'O'
aS'O'
aS'O'
aS'O'
assb.