ccopy_reg
_reconstructor
p1
(c__main__
KBproperty
p2
c__builtin__
object
p3
NtRp4
(dp5
S'comment'
p6
S'The service branch Army Navy etc. a person is part of.'
p7
sS'domain'
p8
S'Military Person '
p9
sS'instances_count'
p10
S'39875'
p11
sS'label'
p12
S'military branch'
p13
sS'range'
p14
S'Military Unit '
p15
sS'prop_uri'
p16
S"'http://dbpedia.org/ontology/militaryBranch'"
p17
sS'annotations'
p18
(dp19
S'bag_of_words'
p20
(lp21
S'Military'
p22
aS'Person'
p23
aS'military'
p24
aS'branch'
p25
aS'Military'
p26
aS'Unit'
p27
aS'The'
p28
aS'service'
p29
aS'branch'
p30
aS'Army'
p31
aS'Navy'
p32
aS'etc.'
p33
aS'a'
aS'person'
p34
aS'is'
p35
aS'part'
p36
aS'of'
p37
aS'.'
asS'chunk_seq'
p38
(lp39
S'B-NP'
p40
aS'I-NP'
p41
aS'I-NP'
p42
aS'I-NP'
p43
aS'I-NP'
p44
aS'E-NP'
p45
aS'B-NP'
p46
aS'I-NP'
p47
aS'I-NP'
p48
aS'I-NP'
p49
aS'E-NP'
p50
aS'S-VP'
p51
aS'B-NP'
p52
aS'E-NP'
p53
aS'S-VP'
p54
aS'S-NP'
p55
aS'S-PP'
p56
aS'O'
asS'dep_seq'
p57
(lp58
(lp59
S'nn'
p60
aS'6'
aS'1'
aa(lp61
S'nn'
p62
aS'6'
aS'2'
aa(lp63
S'amod'
p64
aS'6'
aS'3'
aa(lp65
S'nn'
p66
aS'6'
aS'4'
aa(lp67
S'nn'
p68
aS'6'
aS'5'
aa(lp69
S'nsubj'
p70
aS'12'
p71
aS'6'
aa(lp72
S'det'
p73
aS'11'
p74
aS'7'
aa(lp75
S'nn'
p76
aS'11'
p77
aS'8'
aa(lp78
S'nn'
p79
aS'11'
p80
aS'9'
aa(lp81
S'nn'
p82
aS'11'
p83
aS'10'
p84
aa(lp85
S'nsubj'
p86
aS'12'
p87
aS'11'
p88
aa(lp89
S'root'
p90
aS'0'
aS'12'
p91
aa(lp92
S'det'
p93
aS'14'
p94
aS'13'
p95
aa(lp96
S'nsubj'
p97
aS'16'
p98
aS'14'
p99
aa(lp100
S'cop'
p101
aS'16'
p102
aS'15'
p103
aa(lp104
S'ccomp'
p105
aS'12'
p106
aS'16'
p107
aa(lp108
S'prep'
p109
aS'16'
p110
aS'17'
p111
aasS'srls'
p112
(lp113
sS'pos_seq'
p114
(lp115
S'NNP'
p116
aS'NNP'
p117
aS'JJ'
p118
aS'NN'
p119
aS'NNP'
p120
aS'NNP'
p121
aS'DT'
p122
aS'NN'
p123
aS'NN'
p124
aS'NNP'
p125
aS'NNP'
p126
aS'VBD'
p127
aS'DT'
p128
aS'NN'
p129
aS'VBZ'
p130
aS'NN'
p131
aS'IN'
p132
aS'.'
asS'ner_seq'
p133
(lp134
S'O'
aS'O'
aS'O'
aS'O'
aS'B-ORG'
p135
aS'I-ORG'
p136
aS'I-ORG'
p137
aS'I-ORG'
p138
aS'I-ORG'
p139
aS'I-ORG'
p140
aS'E-ORG'
p141
aS'O'
aS'O'
aS'O'
aS'O'
aS'O'
aS'O'
aS'O'
assb.