ccopy_reg
_reconstructor
p1
(c__main__
KBproperty
p2
c__builtin__
object
p3
NtRp4
(dp5
S'comment'
p6
S''
sS'domain'
p7
S''
sS'instances_count'
p8
S'3'
sS'label'
p9
S'temperature high C'
p10
sS'range'
p11
S''
sS'prop_uri'
p12
S"'http://dbpedia.org/property/temperatureHighC'"
p13
sS'annotations'
p14
(dp15
S'bag_of_words'
p16
(lp17
S'temperature'
p18
aS'high'
p19
aS'C'
asS'chunk_seq'
p20
(lp21
S'B-NP'
p22
aS'I-NP'
p23
aS'E-NP'
p24
asS'dep_seq'
p25
(lp26
(lp27
S'nn'
p28
aS'3'
aS'1'
aa(lp29
S'amod'
p30
aS'3'
aS'2'
aa(lp31
S'root'
p32
aS'0'
aS'3'
aasS'srls'
p33
(lp34
sS'pos_seq'
p35
(lp36
S'NN'
p37
aS'JJ'
p38
aS'NNP'
p39
asS'ner_seq'
p40
(lp41
S'O'
aS'O'
aS'O'
assb.