ccopy_reg
_reconstructor
p1
(c__main__
KBproperty
p2
c__builtin__
object
p3
NtRp4
(dp5
S'comment'
p6
S'this property links to a step in the career of a person e.g. a soccer player holding information on the time span matches and goals he or she achieved at a club.'
p7
sS'domain'
p8
S'Person '
p9
sS'instances_count'
p10
S'920428'
p11
sS'label'
p12
S'career station'
p13
sS'range'
p14
S'Career Station '
p15
sS'prop_uri'
p16
S"'http://dbpedia.org/ontology/careerStation'"
p17
sS'annotations'
p18
(dp19
S'bag_of_words'
p20
(lp21
S'Person'
p22
aS'career'
p23
aS'station'
p24
aS'Career'
p25
aS'Station'
p26
aS'this'
p27
aS'property'
p28
aS'links'
p29
aS'to'
p30
aS'a'
aS'step'
p31
aS'in'
p32
aS'the'
p33
aS'career'
p34
aS'of'
p35
aS'a'
aS'person'
p36
aS'e.g.'
p37
aS'a'
aS'soccer'
p38
aS'player'
p39
aS'holding'
p40
aS'information'
p41
aS'on'
p42
aS'the'
p43
aS'time'
p44
aS'span'
p45
aS'matches'
p46
aS'and'
p47
aS'goals'
p48
aS'he'
p49
aS'or'
p50
aS'she'
p51
aS'achieved'
p52
aS'at'
p53
aS'a'
aS'club'
p54
aS'.'
asS'chunk_seq'
p55
(lp56
S'B-NP'
p57
aS'I-NP'
p58
aS'I-NP'
p59
aS'I-NP'
p60
aS'E-NP'
p61
aS'B-NP'
p62
aS'I-NP'
p63
aS'E-NP'
p64
aS'S-PP'
p65
aS'B-NP'
p66
aS'E-NP'
p67
aS'S-PP'
p68
aS'B-NP'
p69
aS'E-NP'
p70
aS'S-PP'
p71
aS'B-NP'
p72
aS'E-NP'
p73
aS'S-PP'
p74
aS'B-NP'
p75
aS'I-NP'
p76
aS'E-NP'
p77
aS'S-VP'
p78
aS'S-NP'
p79
aS'S-PP'
p80
aS'B-NP'
p81
aS'I-NP'
p82
aS'E-NP'
p83
aS'B-NP'
p84
aS'I-NP'
p85
aS'E-NP'
p86
aS'S-NP'
p87
aS'O'
aS'S-NP'
p88
aS'S-VP'
p89
aS'S-PP'
p90
aS'B-NP'
p91
aS'E-NP'
p92
aS'O'
asS'dep_seq'
p93
(lp94
(lp95
S'nn'
p96
aS'5'
aS'1'
aa(lp97
S'nn'
p98
aS'5'
aS'2'
aa(lp99
S'nn'
p100
aS'5'
aS'3'
aa(lp101
S'nn'
p102
aS'5'
aS'4'
aa(lp103
S'root'
p104
aS'0'
aS'5'
aa(lp105
S'det'
p106
aS'8'
aS'6'
aa(lp107
S'nn'
p108
aS'8'
aS'7'
aa(lp109
S'dep'
p110
aS'5'
aS'8'
aa(lp111
S'det'
p112
aS'11'
p113
aS'10'
p114
aa(lp115
S'prep_to'
p116
aS'8'
aS'11'
p117
aa(lp118
S'dep'
p119
aS'11'
p120
aS'12'
p121
aa(lp122
S'det'
p123
aS'14'
p124
aS'13'
p125
aa(lp126
S'npadvmod'
p127
aS'11'
p128
aS'14'
p129
aa(lp130
S'prep_e.g.'
p131
aS'11'
p132
aS'14'
p133
aa(lp134
S'det'
p135
aS'17'
p136
aS'16'
p137
aa(lp138
S'prep_of'
p139
aS'14'
p140
aS'17'
p141
aa(lp142
S'det'
p143
aS'23'
p144
aS'19'
p145
aa(lp146
S'nn'
p147
aS'23'
p148
aS'20'
p149
aa(lp150
S'nn'
p151
aS'23'
p152
aS'21'
p153
aa(lp154
S'amod'
p155
aS'23'
p156
aS'22'
p157
aa(lp158
S'prep_e.g.'
p159
aS'11'
p160
aS'23'
p161
aa(lp162
S'det'
p163
aS'27'
p164
aS'25'
p165
aa(lp166
S'nn'
p167
aS'27'
p168
aS'26'
p169
aa(lp170
S'prep_on'
p171
aS'23'
p172
aS'27'
p173
aa(lp174
S'dep'
p175
aS'8'
aS'28'
p176
aa(lp177
S'conj_and'
p178
aS'28'
p179
aS'30'
p180
aa(lp181
S'dep'
p182
aS'8'
aS'31'
p183
aa(lp184
S'nsubj'
p185
aS'34'
p186
aS'33'
p187
aa(lp188
S'conj_or'
p189
aS'8'
aS'34'
p190
aa(lp191
S'det'
p192
aS'37'
p193
aS'36'
p194
aa(lp195
S'prep_at'
p196
aS'34'
p197
aS'37'
p198
aasS'srls'
p199
(lp200
(dp201
S'A0'
p202
g41
sS'V'
g40
sa(dp203
S'A0'
p204
S'goals he or she'
p205
sS'AM-LOC'
p206
S'at a club'
p207
sS'V'
g52
sasS'pos_seq'
p208
(lp209
S'NN'
p210
aS'NN'
p211
aS'NN'
p212
aS'NNP'
p213
aS'NNP'
p214
aS'DT'
p215
aS'NN'
p216
aS'NNS'
p217
aS'TO'
p218
aS'DT'
p219
aS'NN'
p220
aS'IN'
p221
aS'DT'
p222
aS'NN'
p223
aS'IN'
p224
aS'DT'
p225
aS'NN'
p226
aS'IN'
p227
aS'DT'
p228
aS'NN'
p229
aS'NN'
p230
aS'VBG'
p231
aS'NN'
p232
aS'IN'
p233
aS'DT'
p234
aS'NN'
p235
aS'NN'
p236
aS'NNS'
p237
aS'CC'
p238
aS'NNS'
p239
aS'PRP'
p240
aS'CC'
p241
aS'PRP'
p242
aS'VBD'
p243
aS'IN'
p244
aS'DT'
p245
aS'NN'
p246
aS'.'
asS'ner_seq'
p247
(lp248
S'O'
aS'O'
aS'O'
aS'B-ORG'
p249
aS'E-ORG'
p250
aS'O'
aS'O'
aS'O'
aS'O'
aS'O'
aS'O'
aS'O'
aS'O'
aS'O'
aS'O'
aS'O'
aS'O'
aS'O'
aS'O'
aS'O'
aS'O'
aS'O'
aS'O'
aS'O'
aS'O'
aS'O'
aS'O'
aS'O'
aS'O'
aS'O'
aS'O'
aS'O'
aS'O'
aS'O'
aS'O'
aS'O'
aS'O'
aS'O'
assb.