ccopy_reg
_reconstructor
p1
(c__main__
KBproperty
p2
c__builtin__
object
p3
NtRp4
(dp5
S'comment'
p6
S'grinding capability for Mills'
p7
sS'domain'
p8
S'Mill '
p9
sS'instances_count'
p10
S'0'
sS'label'
p11
S'grinding capability'
p12
sS'range'
p13
S'string '
p14
sS'prop_uri'
p15
S"'http://dbpedia.org/ontology/grindingCapability'"
p16
sS'annotations'
p17
(dp18
S'bag_of_words'
p19
(lp20
S'Mill'
p21
aS'grinding'
p22
aS'capability'
p23
aS'string'
p24
aS'grinding'
p25
aS'capability'
p26
aS'for'
p27
aS'Mills'
p28
asS'chunk_seq'
p29
(lp30
S'B-NP'
p31
aS'I-NP'
p32
aS'I-NP'
p33
aS'I-NP'
p34
aS'I-NP'
p35
aS'E-NP'
p36
aS'S-PP'
p37
aS'S-NP'
p38
asS'dep_seq'
p39
(lp40
(lp41
S'nn'
p42
aS'6'
aS'1'
aa(lp43
S'amod'
p44
aS'6'
aS'2'
aa(lp45
S'nn'
p46
aS'6'
aS'3'
aa(lp47
S'nn'
p48
aS'6'
aS'4'
aa(lp49
S'amod'
p50
aS'6'
aS'5'
aa(lp51
S'root'
p52
aS'0'
aS'6'
aa(lp53
S'prep_for'
p54
aS'6'
aS'8'
aasS'srls'
p55
(lp56
(dp57
S'A1'
p58
S'capability string grinding capability'
p59
sS'A0'
p60
S'Mill  for Mills'
p61
sS'V'
g22
sa(dp62
S'A1'
p63
g26
sS'V'
g25
sasS'pos_seq'
p64
(lp65
S'NN'
p66
aS'VBG'
p67
aS'NN'
p68
aS'NN'
p69
aS'VBG'
p70
aS'NN'
p71
aS'IN'
p72
aS'NNS'
p73
asS'ner_seq'
p74
(lp75
S'O'
aS'O'
aS'O'
aS'O'
aS'O'
aS'O'
aS'O'
aS'S-ORG'
p76
assb.