ccopy_reg
_reconstructor
p1
(c__main__
KBproperty
p2
c__builtin__
object
p3
NtRp4
(dp5
S'comment'
p6
S'A postal code known in various countries as a post code postcode or ZIP code is a series of letters and/or digits appended to a postal address for the purpose of sorting mail.'
p7
sS'domain'
p8
S''
sS'instances_count'
p9
S'183875'
p10
sS'label'
p11
S'postal code'
p12
sS'range'
p13
S'string '
p14
sS'prop_uri'
p15
S"'http://dbpedia.org/ontology/postalCode'"
p16
sS'annotations'
p17
(dp18
S'bag_of_words'
p19
(lp20
S'postal'
p21
aS'code'
p22
aS'string'
p23
aS'A'
aS'postal'
p24
aS'code'
p25
aS'known'
p26
aS'in'
p27
aS'various'
p28
aS'countries'
p29
aS'as'
p30
aS'a'
aS'post'
p31
aS'code'
p32
aS'postcode'
p33
aS'or'
p34
aS'ZIP'
p35
aS'code'
p36
aS'is'
p37
aS'a'
aS'series'
p38
aS'of'
p39
aS'letters'
p40
aS'and/or'
p41
aS'digits'
p42
aS'appended'
p43
aS'to'
p44
aS'a'
aS'postal'
p45
aS'address'
p46
aS'for'
p47
aS'the'
p48
aS'purpose'
p49
aS'of'
p50
aS'sorting'
p51
aS'mail'
p52
aS'.'
asS'chunk_seq'
p53
(lp54
S'B-NP'
p55
aS'I-NP'
p56
aS'E-NP'
p57
aS'B-NP'
p58
aS'I-NP'
p59
aS'E-NP'
p60
aS'S-VP'
p61
aS'S-PP'
p62
aS'B-NP'
p63
aS'E-NP'
p64
aS'S-PP'
p65
aS'B-NP'
p66
aS'I-NP'
p67
aS'I-NP'
p68
aS'I-NP'
p69
aS'I-NP'
p70
aS'I-NP'
p71
aS'E-NP'
p72
aS'S-VP'
p73
aS'B-NP'
p74
aS'E-NP'
p75
aS'S-PP'
p76
aS'S-NP'
p77
aS'S-PP'
p78
aS'S-NP'
p79
aS'S-VP'
p80
aS'S-PP'
p81
aS'B-NP'
p82
aS'I-NP'
p83
aS'E-NP'
p84
aS'S-PP'
p85
aS'B-NP'
p86
aS'E-NP'
p87
aS'S-PP'
p88
aS'S-VP'
p89
aS'S-NP'
p90
aS'O'
asS'dep_seq'
p91
(lp92
(lp93
S'amod'
p94
aS'3'
aS'1'
aa(lp95
S'nn'
p96
aS'3'
aS'2'
aa(lp97
S'root'
p98
aS'0'
aS'3'
aa(lp99
S'det'
p100
aS'6'
aS'4'
aa(lp101
S'amod'
p102
aS'6'
aS'5'
aa(lp103
S'dep'
p104
aS'3'
aS'6'
aa(lp105
S'partmod'
p106
aS'6'
aS'7'
aa(lp107
S'amod'
p108
aS'10'
p109
aS'9'
aa(lp110
S'prep_in'
p111
aS'7'
aS'10'
p112
aa(lp113
S'mark'
p114
aS'21'
p115
aS'11'
p116
aa(lp117
S'det'
p118
aS'15'
p119
aS'12'
p120
aa(lp121
S'nn'
p122
aS'15'
p123
aS'13'
p124
aa(lp125
S'nn'
p126
aS'15'
p127
aS'14'
p128
aa(lp129
S'nsubj'
p130
aS'21'
p131
aS'15'
p132
aa(lp133
S'nn'
p134
aS'18'
p135
aS'17'
p136
aa(lp137
S'conj_or'
p138
aS'15'
p139
aS'18'
p140
aa(lp141
S'cop'
p142
aS'21'
p143
aS'19'
p144
aa(lp145
S'det'
p146
aS'21'
p147
aS'20'
p148
aa(lp149
S'advcl'
p150
aS'7'
aS'21'
p151
aa(lp152
S'prep_of'
p153
aS'21'
p154
aS'23'
p155
aa(lp156
S'prep_and/or'
p157
aS'21'
p158
aS'25'
p159
aa(lp160
S'partmod'
p161
aS'25'
p162
aS'26'
p163
aa(lp164
S'det'
p165
aS'30'
p166
aS'28'
p167
aa(lp168
S'amod'
p169
aS'30'
p170
aS'29'
p171
aa(lp172
S'prep_to'
p173
aS'26'
p174
aS'30'
p175
aa(lp176
S'det'
p177
aS'33'
p178
aS'32'
p179
aa(lp180
S'prep_for'
p181
aS'30'
p182
aS'33'
p183
aa(lp184
S'prepc_of'
p185
aS'33'
p186
aS'35'
p187
aa(lp188
S'dobj'
p189
aS'35'
p190
aS'36'
p191
aasS'srls'
p192
(lp193
(dp194
S'A1'
p195
S'A postal code'
p196
sS'AM-LOC'
p197
S'in various countries'
p198
sS'A2'
p199
S'as a post code postcode or ZIP code'
p200
sS'V'
g26
sa(dp201
S'A1'
p202
S'a series of letters and/or digits'
p203
sS'A2'
p204
S'to a postal address for the purpose of sorting mail'
p205
sS'V'
g43
sa(dp206
S'A1'
p207
g52
sS'V'
g51
sasS'pos_seq'
p208
(lp209
S'JJ'
p210
aS'NN'
p211
aS'NN'
p212
aS'DT'
p213
aS'JJ'
p214
aS'NN'
p215
aS'VBN'
p216
aS'IN'
p217
aS'JJ'
p218
aS'NNS'
p219
aS'IN'
p220
aS'DT'
p221
aS'NN'
p222
aS'NN'
p223
aS'NN'
p224
aS'CC'
p225
aS'NNP'
p226
aS'NN'
p227
aS'VBZ'
p228
aS'DT'
p229
aS'NN'
p230
aS'IN'
p231
aS'NNS'
p232
aS'IN'
p233
aS'NNS'
p234
aS'VBN'
p235
aS'TO'
p236
aS'DT'
p237
aS'JJ'
p238
aS'NN'
p239
aS'IN'
p240
aS'DT'
p241
aS'NN'
p242
aS'IN'
p243
aS'VBG'
p244
aS'NN'
p245
aS'.'
asS'ner_seq'
p246
(lp247
S'O'
aS'O'
aS'O'
aS'O'
aS'O'
aS'O'
aS'O'
aS'O'
aS'O'
aS'O'
aS'O'
aS'O'
aS'O'
aS'O'
aS'O'
aS'O'
aS'O'
aS'O'
aS'O'
aS'O'
aS'O'
aS'O'
aS'O'
aS'O'
aS'O'
aS'O'
aS'O'
aS'O'
aS'O'
aS'O'
aS'O'
aS'O'
aS'O'
aS'O'
aS'O'
aS'O'
aS'O'
assb.