ccopy_reg
_reconstructor
p1
(c__main__
KBproperty
p2
c__builtin__
object
p3
NtRp4
(dp5
S'comment'
p6
S''
sS'domain'
p7
S'Populated Place '
p8
sS'instances_count'
p9
S'0'
sS'label'
p10
S'sharing out year'
p11
sS'range'
p12
S'string '
p13
sS'prop_uri'
p14
S"'http://dbpedia.org/ontology/sharingOutPopulationYear'"
p15
sS'annotations'
p16
(dp17
S'bag_of_words'
p18
(lp19
S'Populated'
p20
aS'Place'
p21
aS'sharing'
p22
aS'out'
p23
aS'year'
p24
aS'string'
p25
asS'chunk_seq'
p26
(lp27
S'B-NP'
p28
aS'E-NP'
p29
aS'S-VP'
p30
aS'S-PP'
p31
aS'B-NP'
p32
aS'E-NP'
p33
asS'dep_seq'
p34
(lp35
(lp36
S'amod'
p37
aS'2'
aS'1'
aa(lp38
S'root'
p39
aS'0'
aS'2'
aa(lp40
S'partmod'
p41
aS'2'
aS'3'
aa(lp42
S'advmod'
p43
aS'3'
aS'4'
aa(lp44
S'nn'
p45
aS'6'
aS'5'
aa(lp46
S'dobj'
p47
aS'3'
aS'6'
aasS'srls'
p48
(lp49
(dp50
S'A1'
p51
S'year string'
p52
sS'A0'
p53
S'Populated Place'
p54
sS'V'
S'sharing out'
p55
sasS'pos_seq'
p56
(lp57
S'JJ'
p58
aS'NN'
p59
aS'VBG'
p60
aS'IN'
p61
aS'NN'
p62
aS'NN'
p63
asS'ner_seq'
p64
(lp65
S'O'
aS'O'
aS'O'
aS'O'
aS'O'
aS'O'
assb.