ccopy_reg
_reconstructor
p1
(c__main__
KBproperty
p2
c__builtin__
object
p3
NtRp4
(dp5
S'comment'
p6
S'wavelength \\xce\\xbc'
p7
sS'domain'
p8
S'Colour '
p9
sS'instances_count'
p10
S'14'
p11
sS'label'
p12
g7
sS'range'
p13
S'double '
p14
sS'prop_uri'
p15
S"'http://dbpedia.org/ontology/wavelength'"
p16
sS'annotations'
p17
(dp18
S'bag_of_words'
p19
(lp20
S'Colour'
p21
aS'wavelength'
p22
aS'double'
p23
aS'wavelength'
p24
aS'\\'
aS'xce'
p25
aS'\\'
aS'xbc'
p26
asS'chunk_seq'
p27
(lp28
S'B-NP'
p29
aS'I-NP'
p30
aS'I-NP'
p31
aS'E-NP'
p32
aS'O'
aS'O'
aS'O'
aS'O'
asS'dep_seq'
p33
(lp34
(lp35
S'nn'
p36
aS'4'
aS'1'
aa(lp37
S'nn'
p38
aS'4'
aS'2'
aa(lp39
S'amod'
p40
aS'4'
aS'3'
aa(lp41
S'root'
p42
aS'0'
aS'4'
aa(lp43
S'nn'
p44
aS'4'
aS'5'
aa(lp45
S'nn'
p46
aS'4'
aS'6'
aa(lp47
S'nn'
p48
aS'4'
aS'7'
aa(lp49
S'dep'
p50
aS'4'
aS'8'
aasS'srls'
p51
(lp52
sS'pos_seq'
p53
(lp54
S'NN'
p55
aS'NN'
p56
aS'JJ'
p57
aS'NN'
p58
aS'FW'
p59
aS'FW'
p60
aS'FW'
p61
aS'FW'
p62
asS'ner_seq'
p63
(lp64
S'O'
aS'O'
aS'O'
aS'O'
aS'O'
aS'O'
aS'O'
aS'O'
assb.