ccopy_reg
_reconstructor
p1
(c__main__
KBproperty
p2
c__builtin__
object
p3
NtRp4
(dp5
S'comment'
p6
S"holiday' 'A day of celebration associated with the entity. Applies to Saint School etc"
p7
sS'domain'
p8
S''
sS'instances_count'
p9
S'27'
p10
sS'label'
p11
S'feast day'
p12
sS'range'
p13
S'date '
p14
sS'prop_uri'
p15
S"'http://dbpedia.org/ontology/feastDay'"
p16
sS'annotations'
p17
(dp18
S'bag_of_words'
p19
(lp20
S'feast'
p21
aS'day'
p22
aS'date'
p23
aS'holiday'
p24
aS"'"
aS"'A"
p25
aS'day'
p26
aS'of'
p27
aS'celebration'
p28
aS'associated'
p29
aS'with'
p30
aS'the'
p31
aS'entity'
p32
aS'.'
aS'Applies'
p33
aS'to'
p34
aS'Saint'
p35
aS'School'
p36
aS'etc'
p37
asS'chunk_seq'
p38
(lp39
S'B-NP'
p40
aS'I-NP'
p41
aS'E-NP'
p42
aS'S-NP'
p43
aS'B-NP'
p44
aS'I-NP'
p45
aS'E-NP'
p46
aS'S-PP'
p47
aS'S-NP'
p48
aS'S-VP'
p49
aS'S-PP'
p50
aS'B-NP'
p51
aS'E-NP'
p52
aS'O'
aS'S-VP'
p53
aS'S-PP'
p54
aS'B-NP'
p55
aS'E-NP'
p56
aS'O'
asS'dep_seq'
p57
(lp58
(lp59
S'nn'
p60
aS'3'
aS'1'
aa(lp61
S'nn'
p62
aS'3'
aS'2'
aa(lp63
S'dep'
p64
aS'7'
aS'3'
aa(lp65
S'poss'
p66
aS'7'
aS'4'
aa(lp67
S'nn'
p68
aS'7'
aS'6'
aa(lp69
S'root'
p70
aS'0'
aS'7'
aa(lp71
S'prep_of'
p72
aS'7'
aS'9'
aa(lp73
S'partmod'
p74
aS'7'
aS'10'
p75
aa(lp76
S'det'
p77
aS'13'
p78
aS'12'
p79
aa(lp80
S'prep_with'
p81
aS'10'
p82
aS'13'
p83
aa(lp84
S'dep'
p85
aS'7'
aS'15'
p86
aa(lp87
S'nn'
p88
aS'18'
p89
aS'17'
p90
aa(lp91
S'prep_to'
p92
aS'15'
p93
aS'18'
p94
aa(lp95
S'punct'
p96
aS'7'
aS'19'
p97
aasS'srls'
p98
(lp99
(dp100
S'A1'
p101
S"holiday ' 'A day of celebration"
p102
sS'A2'
p103
S'with the entity'
p104
sS'AM-TMP'
p105
S'feast day date'
p106
sS'V'
g29
sa(dp107
S'A1'
p108
S"feast day date holiday ' 'A day of celebration"
p109
sS'A2'
p110
S'to Saint School'
p111
sS'V'
g33
sasS'pos_seq'
p112
(lp113
S'NN'
p114
aS'NN'
p115
aS'NN'
p116
aS'NN'
p117
aS'POS'
p118
aS'NNP'
p119
aS'NN'
p120
aS'IN'
p121
aS'NN'
p122
aS'VBN'
p123
aS'IN'
p124
aS'DT'
p125
aS'NN'
p126
aS'.'
aS'VBZ'
p127
aS'TO'
p128
aS'NNP'
p129
aS'NNP'
p130
aS'.'
asS'ner_seq'
p131
(lp132
S'O'
aS'O'
aS'O'
aS'O'
aS'O'
aS'O'
aS'O'
aS'O'
aS'O'
aS'O'
aS'O'
aS'O'
aS'O'
aS'O'
aS'O'
aS'O'
aS'B-LOC'
p133
aS'E-LOC'
p134
aS'O'
assb.