ccopy_reg
_reconstructor
p1
(c__main__
KBproperty
p2
c__builtin__
object
p3
NtRp4
(dp5
S'comment'
p6
S'The location of the thing.'
p7
sS'domain'
p8
S''
sS'instances_count'
p9
S'393564'
p10
sS'label'
p11
S'location'
p12
sS'range'
p13
S'Place '
p14
sS'prop_uri'
p15
S"'http://dbpedia.org/ontology/location'"
p16
sS'annotations'
p17
(dp18
S'bag_of_words'
p19
(lp20
S'location'
p21
aS'Place'
p22
aS'The'
p23
aS'location'
p24
aS'of'
p25
aS'the'
p26
aS'thing'
p27
aS'.'
asS'chunk_seq'
p28
(lp29
S'B-NP'
p30
aS'E-NP'
p31
aS'B-NP'
p32
aS'E-NP'
p33
aS'S-PP'
p34
aS'B-NP'
p35
aS'E-NP'
p36
aS'O'
asS'dep_seq'
p37
(lp38
(lp39
S'nn'
p40
aS'2'
aS'1'
aa(lp41
S'root'
p42
aS'0'
aS'2'
aa(lp43
S'det'
p44
aS'4'
aS'3'
aa(lp45
S'dep'
p46
aS'2'
aS'4'
aa(lp47
S'det'
p48
aS'7'
aS'6'
aa(lp49
S'prep_of'
p50
aS'4'
aS'7'
aasS'srls'
p51
(lp52
sS'pos_seq'
p53
(lp54
S'NN'
p55
aS'NNP'
p56
aS'DT'
p57
aS'NN'
p58
aS'IN'
p59
aS'DT'
p60
aS'NN'
p61
aS'.'
asS'ner_seq'
p62
(lp63
S'O'
aS'O'
aS'O'
aS'O'
aS'O'
aS'O'
aS'O'
aS'O'
assb.