ccopy_reg
_reconstructor
p1
(c__main__
KBproperty
p2
c__builtin__
object
p3
NtRp4
(dp5
S'comment'
p6
S'Authority data on researchers academics etc. The ID range has been defined as a subset of the forthcoming ISNI range.'
p7
sS'domain'
p8
S''
sS'instances_count'
p9
S'0'
sS'label'
p10
S'ORCID Id'
p11
sS'range'
p12
S'string '
p13
sS'prop_uri'
p14
S"'http://dbpedia.org/ontology/orcidId'"
p15
sS'annotations'
p16
(dp17
S'bag_of_words'
p18
(lp19
S'ORCID'
p20
aS'Id'
p21
aS'string'
p22
aS'Authority'
p23
aS'data'
p24
aS'on'
p25
aS'researchers'
p26
aS'academics'
p27
aS'etc.'
p28
aS'The'
p29
aS'ID'
p30
aS'range'
p31
aS'has'
p32
aS'been'
p33
aS'defined'
p34
aS'as'
p35
aS'a'
aS'subset'
p36
aS'of'
p37
aS'the'
p38
aS'forthcoming'
p39
aS'ISNI'
p40
aS'range'
p41
aS'.'
asS'chunk_seq'
p42
(lp43
S'B-NP'
p44
aS'I-NP'
p45
aS'I-NP'
p46
aS'I-NP'
p47
aS'E-NP'
p48
aS'S-PP'
p49
aS'B-NP'
p50
aS'E-NP'
p51
aS'S-VP'
p52
aS'B-NP'
p53
aS'I-NP'
p54
aS'E-NP'
p55
aS'B-VP'
p56
aS'I-VP'
p57
aS'E-VP'
p58
aS'S-PP'
p59
aS'B-NP'
p60
aS'E-NP'
p61
aS'S-PP'
p62
aS'B-NP'
p63
aS'I-NP'
p64
aS'I-NP'
p65
aS'E-NP'
p66
aS'O'
asS'dep_seq'
p67
(lp68
(lp69
S'nn'
p70
aS'5'
aS'1'
aa(lp71
S'nn'
p72
aS'5'
aS'2'
aa(lp73
S'nn'
p74
aS'5'
aS'3'
aa(lp75
S'nn'
p76
aS'5'
aS'4'
aa(lp77
S'nsubj'
p78
aS'9'
aS'5'
aa(lp79
S'nn'
p80
aS'8'
aS'7'
aa(lp81
S'prep_on'
p82
aS'5'
aS'8'
aa(lp83
S'root'
p84
aS'0'
aS'9'
aa(lp85
S'det'
p86
aS'12'
p87
aS'10'
p88
aa(lp89
S'nn'
p90
aS'12'
p91
aS'11'
p92
aa(lp93
S'nsubjpass'
p94
aS'15'
p95
aS'12'
p96
aa(lp97
S'aux'
p98
aS'15'
p99
aS'13'
p100
aa(lp101
S'auxpass'
p102
aS'15'
p103
aS'14'
p104
aa(lp105
S'ccomp'
p106
aS'9'
aS'15'
p107
aa(lp108
S'det'
p109
aS'18'
p110
aS'17'
p111
aa(lp112
S'prep_as'
p113
aS'15'
p114
aS'18'
p115
aa(lp116
S'det'
p117
aS'23'
p118
aS'20'
p119
aa(lp120
S'amod'
p121
aS'23'
p122
aS'21'
p123
aa(lp124
S'nn'
p125
aS'23'
p126
aS'22'
p127
aa(lp128
S'prep_of'
p129
aS'18'
p130
aS'23'
p131
aasS'srls'
p132
(lp133
(dp134
S'A1'
p135
S'ORCID Id string Authority data on researchers academics etc. The ID range'
p136
sS'A2'
p137
S'as a subset of the forthcoming ISNI range'
p138
sS'V'
g34
sasS'pos_seq'
p139
(lp140
S'NNP'
p141
aS'NNP'
p142
aS'NN'
p143
aS'NNP'
p144
aS'NNS'
p145
aS'IN'
p146
aS'NNS'
p147
aS'NNS'
p148
aS'VBP'
p149
aS'DT'
p150
aS'NN'
p151
aS'NN'
p152
aS'VBZ'
p153
aS'VBN'
p154
aS'VBN'
p155
aS'IN'
p156
aS'DT'
p157
aS'NN'
p158
aS'IN'
p159
aS'DT'
p160
aS'JJ'
p161
aS'NNP'
p162
aS'NN'
p163
aS'.'
asS'ner_seq'
p164
(lp165
S'B-ORG'
p166
aS'I-ORG'
p167
aS'I-ORG'
p168
aS'E-ORG'
p169
aS'O'
aS'O'
aS'O'
aS'O'
aS'O'
aS'O'
aS'O'
aS'O'
aS'O'
aS'O'
aS'O'
aS'O'
aS'O'
aS'O'
aS'O'
aS'O'
aS'O'
aS'S-LOC'
p170
aS'O'
aS'O'
assb.