ccopy_reg
_reconstructor
p1
(c__main__
KBproperty
p2
c__builtin__
object
p3
NtRp4
(dp5
S'comment'
p6
S'race length \\xce\\xbc'
p7
sS'domain'
p8
S'Formula One Racing '
p9
sS'instances_count'
p10
S'0'
sS'label'
p11
g7
sS'range'
p12
S'double '
p13
sS'prop_uri'
p14
S"'http://dbpedia.org/ontology/raceLength'"
p15
sS'annotations'
p16
(dp17
S'bag_of_words'
p18
(lp19
S'Formula'
p20
aS'One'
p21
aS'Racing'
p22
aS'race'
p23
aS'Length'
p24
aS'double'
p25
aS'race'
p26
aS'length'
p27
aS'\\'
aS'xce'
p28
aS'\\'
aS'xbc'
p29
asS'chunk_seq'
p30
(lp31
S'B-NP'
p32
aS'I-NP'
p33
aS'I-NP'
p34
aS'I-NP'
p35
aS'I-NP'
p36
aS'I-NP'
p37
aS'I-NP'
p38
aS'E-NP'
p39
aS'O'
aS'O'
aS'O'
aS'O'
asS'dep_seq'
p40
(lp41
(lp42
S'dep'
p43
aS'5'
aS'1'
aa(lp44
S'num'
p45
aS'5'
aS'2'
aa(lp46
S'nn'
p47
aS'5'
aS'3'
aa(lp48
S'nn'
p49
aS'5'
aS'4'
aa(lp50
S'root'
p51
aS'0'
aS'5'
aa(lp52
S'dobj'
p53
aS'9'
aS'5'
aa(lp54
S'amod'
p55
aS'8'
aS'6'
aa(lp56
S'nn'
p57
aS'8'
aS'7'
aa(lp58
S'nsubj'
p59
aS'9'
aS'8'
aa(lp60
S'rcmod'
p61
aS'5'
aS'9'
aa(lp62
S'discourse'
p63
aS'9'
aS'10'
p64
aa(lp65
S'dep'
p66
aS'10'
p67
aS'11'
p68
aa(lp69
S'dep'
p70
aS'10'
p71
aS'12'
p72
aasS'srls'
p73
(lp74
sS'pos_seq'
p75
(lp76
S'NN'
p77
aS'CD'
p78
aS'NN'
p79
aS'NN'
p80
aS'NN'
p81
aS'JJ'
p82
aS'NN'
p83
aS'NN'
p84
aS'FW'
p85
aS'FW'
p86
aS'FW'
p87
aS'FW'
p88
asS'ner_seq'
p89
(lp90
S'O'
aS'O'
aS'O'
aS'O'
aS'O'
aS'O'
aS'O'
aS'O'
aS'O'
aS'O'
aS'O'
aS'O'
assb.