ccopy_reg
_reconstructor
p1
(c__main__
KBproperty
p2
c__builtin__
object
p3
NtRp4
(dp5
S'comment'
p6
S'type of grain wheat etc.'
p7
sS'domain'
p8
S'Food '
p9
sS'instances_count'
p10
S'0'
sS'label'
p11
g7
sS'range'
p12
S'string '
p13
sS'prop_uri'
p14
S"'http://dbpedia.org/ontology/typeOfGrain'"
p15
sS'annotations'
p16
(dp17
S'bag_of_words'
p18
(lp19
S'Food'
p20
aS'type'
p21
aS'Of'
p22
aS'Grain'
p23
aS'string'
p24
aS'type'
p25
aS'of'
p26
aS'grain'
p27
aS'wheat'
p28
aS'etc.'
p29
asS'chunk_seq'
p30
(lp31
S'B-NP'
p32
aS'E-NP'
p33
aS'S-PP'
p34
aS'B-NP'
p35
aS'I-NP'
p36
aS'E-NP'
p37
aS'S-PP'
p38
aS'B-NP'
p39
aS'E-NP'
p40
aS'O'
asS'dep_seq'
p41
(lp42
(lp43
S'nn'
p44
aS'2'
aS'1'
aa(lp45
S'root'
p46
aS'0'
aS'2'
aa(lp47
S'nn'
p48
aS'6'
aS'4'
aa(lp49
S'nn'
p50
aS'6'
aS'5'
aa(lp51
S'prep_of'
p52
aS'2'
aS'6'
aa(lp53
S'nn'
p54
aS'9'
aS'8'
aa(lp55
S'prep_of'
p56
aS'6'
aS'9'
aa(lp57
S'punct'
p58
aS'9'
aS'10'
p59
aasS'srls'
p60
(lp61
sS'pos_seq'
p62
(lp63
S'NN'
p64
aS'NN'
p65
aS'IN'
p66
aS'NNP'
p67
aS'NN'
p68
aS'NN'
p69
aS'IN'
p70
aS'NN'
p71
aS'NN'
p72
aS'.'
asS'ner_seq'
p73
(lp74
S'O'
aS'O'
aS'O'
aS'O'
aS'O'
aS'O'
aS'O'
aS'O'
aS'O'
aS'O'
assb.