ccopy_reg
_reconstructor
p1
(c__main__
KBproperty
p2
c__builtin__
object
p3
NtRp4
(dp5
S'comment'
p6
S'Reserved for DBpedia.'
p7
sS'domain'
p8
S''
sS'instances_count'
p9
S'7339092'
p10
sS'label'
p11
S'Wikipage redirect'
p12
sS'range'
p13
S''
sS'prop_uri'
p14
S"'http://dbpedia.org/ontology/wikiPageRedirects'"
p15
sS'annotations'
p16
(dp17
S'bag_of_words'
p18
(lp19
S'Wikipage'
p20
aS'redirect'
p21
aS'Reserved'
p22
aS'for'
p23
aS'DBpedia'
p24
aS'.'
asS'chunk_seq'
p25
(lp26
S'S-NP'
p27
aS'B-VP'
p28
aS'E-VP'
p29
aS'S-PP'
p30
aS'S-NP'
p31
aS'O'
asS'dep_seq'
p32
(lp33
(lp34
S'nsubj'
p35
aS'2'
aS'1'
aa(lp36
S'root'
p37
aS'0'
aS'2'
aa(lp38
S'dep'
p39
aS'2'
aS'3'
aa(lp40
S'prep_for'
p41
aS'3'
aS'5'
aasS'srls'
p42
(lp43
(dp44
S'A1'
p45
S'Reserved for DBpedia'
p46
sS'A0'
p47
g20
sS'V'
g21
sa(dp48
S'A2'
p49
S'Wikipage  for DBpedia'
p50
sS'V'
g22
sasS'pos_seq'
p51
(lp52
S'NNP'
p53
aS'VBP'
p54
aS'VBN'
p55
aS'IN'
p56
aS'NNP'
p57
aS'.'
asS'ner_seq'
p58
(lp59
S'O'
aS'O'
aS'O'
aS'O'
aS'S-PER'
p60
aS'O'
assb.