ccopy_reg
_reconstructor
p1
(c__main__
KBproperty
p2
c__builtin__
object
p3
NtRp4
(dp5
S'comment'
p6
S'length of runway \\xce\\xbc'
p7
sS'domain'
p8
S'Airport '
p9
sS'instances_count'
p10
S'27781'
p11
sS'label'
p12
g7
sS'range'
p13
S'double '
p14
sS'prop_uri'
p15
S"'http://dbpedia.org/ontology/runwayLength'"
p16
sS'annotations'
p17
(dp18
S'bag_of_words'
p19
(lp20
S'Airport'
p21
aS'runway'
p22
aS'Length'
p23
aS'double'
p24
aS'length'
p25
aS'of'
p26
aS'runway'
p27
aS'\\'
aS'xce'
p28
aS'\\'
aS'xbc'
p29
asS'chunk_seq'
p30
(lp31
S'B-NP'
p32
aS'I-NP'
p33
aS'I-NP'
p34
aS'I-NP'
p35
aS'E-NP'
p36
aS'S-PP'
p37
aS'S-NP'
p38
aS'O'
aS'O'
aS'O'
aS'O'
asS'dep_seq'
p39
(lp40
(lp41
S'nn'
p42
aS'3'
aS'1'
aa(lp43
S'nn'
p44
aS'3'
aS'2'
aa(lp45
S'dep'
p46
aS'5'
aS'3'
aa(lp47
S'amod'
p48
aS'5'
aS'4'
aa(lp49
S'root'
p50
aS'0'
aS'5'
aa(lp51
S'prep_of'
p52
aS'5'
aS'7'
aa(lp53
S'dep'
p54
aS'5'
aS'8'
aa(lp55
S'discourse'
p56
aS'8'
aS'9'
aa(lp57
S'dep'
p58
aS'9'
aS'10'
p59
aa(lp60
S'dep'
p61
aS'9'
aS'11'
p62
aasS'srls'
p63
(lp64
sS'pos_seq'
p65
(lp66
S'NN'
p67
aS'NN'
p68
aS'NN'
p69
aS'JJ'
p70
aS'NN'
p71
aS'IN'
p72
aS'NN'
p73
aS'FW'
p74
aS'FW'
p75
aS'FW'
p76
aS'FW'
p77
asS'ner_seq'
p78
(lp79
S'O'
aS'O'
aS'O'
aS'O'
aS'O'
aS'O'
aS'O'
aS'O'
aS'O'
aS'O'
aS'O'
assb.