ccopy_reg
_reconstructor
p1
(c__main__
KBproperty
p2
c__builtin__
object
p3
NtRp4
(dp5
S'comment'
p6
S'grounds for termination of activities'
p7
sS'domain'
p8
S'Company '
p9
sS'instances_count'
p10
S'0'
sS'label'
p11
g7
sS'range'
p12
S'lang String '
p13
sS'prop_uri'
p14
S"'http://dbpedia.org/ontology/groundsForLiquidation'"
p15
sS'annotations'
p16
(dp17
S'bag_of_words'
p18
(lp19
S'Company'
p20
aS'grounds'
p21
aS'For'
p22
aS'Liquidation'
p23
aS'lang'
p24
aS'String'
p25
aS'grounds'
p26
aS'for'
p27
aS'termination'
p28
aS'of'
p29
aS'activities'
p30
asS'chunk_seq'
p31
(lp32
S'S-NP'
p33
aS'S-VP'
p34
aS'S-PP'
p35
aS'B-NP'
p36
aS'I-NP'
p37
aS'I-NP'
p38
aS'E-NP'
p39
aS'S-PP'
p40
aS'S-NP'
p41
aS'S-PP'
p42
aS'S-NP'
p43
asS'dep_seq'
p44
(lp45
(lp46
S'nsubj'
p47
aS'2'
aS'1'
aa(lp48
S'root'
p49
aS'0'
aS'2'
aa(lp50
S'nn'
p51
aS'7'
aS'4'
aa(lp52
S'amod'
p53
aS'7'
aS'5'
aa(lp54
S'nn'
p55
aS'7'
aS'6'
aa(lp56
S'prep_for'
p57
aS'2'
aS'7'
aa(lp58
S'prep_for'
p59
aS'2'
aS'9'
aa(lp60
S'prep_of'
p61
aS'9'
aS'11'
p62
aasS'srls'
p63
(lp64
sS'pos_seq'
p65
(lp66
S'NN'
p67
aS'VBZ'
p68
aS'IN'
p69
aS'NN'
p70
aS'VBG'
p71
aS'NN'
p72
aS'NNS'
p73
aS'IN'
p74
aS'NN'
p75
aS'IN'
p76
aS'NNS'
p77
asS'ner_seq'
p78
(lp79
S'O'
aS'O'
aS'O'
aS'B-MISC'
p80
aS'I-MISC'
p81
aS'E-MISC'
p82
aS'O'
aS'O'
aS'O'
aS'O'
aS'O'
assb.