ccopy_reg
_reconstructor
p1
(c__main__
KBproperty
p2
c__builtin__
object
p3
NtRp4
(dp5
S'comment'
p6
S'Jurisdiction is the practical authority granted to a formally constituted legal body or to a political leader to deal with and make pronouncements on legal matters and by implication to administer justice within a defined area of responsibility.'
p7
sS'domain'
p8
S''
sS'instances_count'
p9
S'5990'
p10
sS'label'
p11
S'jurisdiction'
p12
sS'range'
p13
S''
sS'prop_uri'
p14
S"'http://dbpedia.org/ontology/jurisdiction'"
p15
sS'annotations'
p16
(dp17
S'bag_of_words'
p18
(lp19
S'jurisdiction'
p20
aS'Jurisdiction'
p21
aS'is'
p22
aS'the'
p23
aS'practical'
p24
aS'authority'
p25
aS'granted'
p26
aS'to'
p27
aS'a'
aS'formally'
p28
aS'constituted'
p29
aS'legal'
p30
aS'body'
p31
aS'or'
p32
aS'to'
p33
aS'a'
aS'political'
p34
aS'leader'
p35
aS'to'
p36
aS'deal'
p37
aS'with'
p38
aS'and'
p39
aS'make'
p40
aS'pronouncements'
p41
aS'on'
p42
aS'legal'
p43
aS'matters'
p44
aS'and'
p45
aS'by'
p46
aS'implication'
p47
aS'to'
p48
aS'administer'
p49
aS'justice'
p50
aS'within'
p51
aS'a'
aS'defined'
p52
aS'area'
p53
aS'of'
p54
aS'responsibility'
p55
aS'.'
asS'chunk_seq'
p56
(lp57
S'B-NP'
p58
aS'E-NP'
p59
aS'S-VP'
p60
aS'B-NP'
p61
aS'I-NP'
p62
aS'E-NP'
p63
aS'S-VP'
p64
aS'S-PP'
p65
aS'B-NP'
p66
aS'I-NP'
p67
aS'I-NP'
p68
aS'I-NP'
p69
aS'E-NP'
p70
aS'S-PP'
p71
aS'S-PP'
p72
aS'B-NP'
p73
aS'I-NP'
p74
aS'E-NP'
p75
aS'B-VP'
p76
aS'E-VP'
p77
aS'S-PP'
p78
aS'O'
aS'S-VP'
p79
aS'S-NP'
p80
aS'S-PP'
p81
aS'B-NP'
p82
aS'E-NP'
p83
aS'O'
aS'S-PP'
p84
aS'S-NP'
p85
aS'B-VP'
p86
aS'E-VP'
p87
aS'S-NP'
p88
aS'S-PP'
p89
aS'B-NP'
p90
aS'I-NP'
p91
aS'E-NP'
p92
aS'S-PP'
p93
aS'S-NP'
p94
aS'O'
asS'dep_seq'
p95
(lp96
(lp97
S'nn'
p98
aS'2'
aS'1'
aa(lp99
S'nsubj'
p100
aS'6'
aS'2'
aa(lp101
S'cop'
p102
aS'6'
aS'3'
aa(lp103
S'det'
p104
aS'6'
aS'4'
aa(lp105
S'amod'
p106
aS'6'
aS'5'
aa(lp107
S'root'
p108
aS'0'
aS'6'
aa(lp109
S'partmod'
p110
aS'6'
aS'7'
aa(lp111
S'det'
p112
aS'13'
p113
aS'9'
aa(lp114
S'advmod'
p115
aS'11'
p116
aS'10'
p117
aa(lp118
S'amod'
p119
aS'13'
p120
aS'11'
p121
aa(lp122
S'amod'
p123
aS'13'
p124
aS'12'
p125
aa(lp126
S'prep_to'
p127
aS'7'
aS'13'
p128
aa(lp129
S'cc'
p130
aS'6'
aS'14'
p131
aa(lp132
S'det'
p133
aS'18'
p134
aS'16'
p135
aa(lp136
S'amod'
p137
aS'18'
p138
aS'17'
p139
aa(lp140
S'prep_to'
p141
aS'6'
aS'18'
p142
aa(lp143
S'aux'
p144
aS'20'
p145
aS'19'
p146
aa(lp147
S'dep'
p148
aS'6'
aS'20'
p149
aa(lp150
S'prep'
p151
aS'20'
p152
aS'21'
p153
aa(lp154
S'conj_and'
p155
aS'21'
p156
aS'23'
p157
aa(lp158
S'dobj'
p159
aS'23'
p160
aS'24'
p161
aa(lp162
S'amod'
p163
aS'27'
p164
aS'26'
p165
aa(lp166
S'prep_on'
p167
aS'23'
p168
aS'27'
p169
aa(lp170
S'conj_and'
p171
aS'21'
p172
aS'29'
p173
aa(lp174
S'pobj'
p175
aS'29'
p176
aS'30'
p177
aa(lp178
S'aux'
p179
aS'32'
p180
aS'31'
p181
aa(lp182
S'infmod'
p183
aS'30'
p184
aS'32'
p185
aa(lp186
S'dobj'
p187
aS'32'
p188
aS'33'
p189
aa(lp190
S'det'
p191
aS'37'
p192
aS'35'
p193
aa(lp194
S'amod'
p195
aS'37'
p196
aS'36'
p197
aa(lp198
S'prep_within'
p199
aS'32'
p200
aS'37'
p201
aa(lp202
S'prep_of'
p203
aS'37'
p204
aS'39'
p205
aasS'srls'
p206
(lp207
(dp208
S'A1'
p209
S'the practical authority  to a formally constituted legal body or to a political leader to deal with and make pronouncements on legal matters'
p210
sS'V'
g26
sa(dp211
S'A1'
p212
S'legal body'
p213
sS'AM-MNR'
p214
g28
sS'V'
g29
sa(dp215
S'A1'
p216
g38
sS'A0'
p217
S'a political leader'
p218
sS'V'
g37
sa(dp219
S'A1'
p220
S'pronouncements on legal matters and by implication to administer justice within a defined area of responsibility'
p221
sS'A0'
p222
S'a political leader'
p223
sS'V'
g40
sa(dp224
S'A1'
p225
g50
sS'AM-LOC'
p226
S'within a defined area of responsibility'
p227
sS'V'
g49
sa(dp228
S'A1'
p229
g53
sS'V'
g52
sasS'pos_seq'
p230
(lp231
S'NN'
p232
aS'NN'
p233
aS'VBZ'
p234
aS'DT'
p235
aS'JJ'
p236
aS'NN'
p237
aS'VBN'
p238
aS'TO'
p239
aS'DT'
p240
aS'RB'
p241
aS'VBN'
p242
aS'JJ'
p243
aS'NN'
p244
aS'CC'
p245
aS'TO'
p246
aS'DT'
p247
aS'JJ'
p248
aS'NN'
p249
aS'TO'
p250
aS'VB'
p251
aS'IN'
p252
aS'CC'
p253
aS'VB'
p254
aS'NNS'
p255
aS'IN'
p256
aS'JJ'
p257
aS'NNS'
p258
aS'CC'
p259
aS'IN'
p260
aS'NN'
p261
aS'TO'
p262
aS'VB'
p263
aS'NN'
p264
aS'IN'
p265
aS'DT'
p266
aS'VBN'
p267
aS'NN'
p268
aS'IN'
p269
aS'NN'
p270
aS'.'
asS'ner_seq'
p271
(lp272
S'O'
aS'O'
aS'O'
aS'O'
aS'O'
aS'O'
aS'O'
aS'O'
aS'O'
aS'O'
aS'O'
aS'O'
aS'O'
aS'O'
aS'O'
aS'O'
aS'O'
aS'O'
aS'O'
aS'O'
aS'O'
aS'O'
aS'O'
aS'O'
aS'O'
aS'O'
aS'O'
aS'O'
aS'O'
aS'O'
aS'O'
aS'O'
aS'O'
aS'O'
aS'O'
aS'O'
aS'O'
aS'O'
aS'O'
aS'O'
assb.