ccopy_reg
_reconstructor
p1
(c__main__
KBproperty
p2
c__builtin__
object
p3
NtRp4
(dp5
S'comment'
p6
S'population density /sqkm'
p7
sS'domain'
p8
S'Populated Place '
p9
sS'instances_count'
p10
S'75666'
p11
sS'label'
p12
g7
sS'range'
p13
S'double '
p14
sS'prop_uri'
p15
S"'http://dbpedia.org/ontology/populationDensity'"
p16
sS'annotations'
p17
(dp18
S'bag_of_words'
p19
(lp20
S'Populated'
p21
aS'Place'
p22
aS'population'
p23
aS'Density'
p24
aS'double'
p25
aS'population'
p26
aS'density'
p27
aS'/s'
p28
aS'qkm'
p29
asS'chunk_seq'
p30
(lp31
S'B-NP'
p32
aS'I-NP'
p33
aS'I-NP'
p34
aS'I-NP'
p35
aS'I-NP'
p36
aS'I-NP'
p37
aS'E-NP'
p38
aS'O'
aS'O'
asS'dep_seq'
p39
(lp40
(lp41
S'amod'
p42
aS'4'
aS'1'
aa(lp43
S'nn'
p44
aS'4'
aS'2'
aa(lp45
S'nn'
p46
aS'4'
aS'3'
aa(lp47
S'dep'
p48
aS'7'
aS'4'
aa(lp49
S'amod'
p50
aS'7'
aS'5'
aa(lp51
S'nn'
p52
aS'7'
aS'6'
aa(lp53
S'root'
p54
aS'0'
aS'7'
aa(lp55
S'dep'
p56
aS'7'
aS'8'
aa(lp57
S'advmod'
p58
aS'8'
aS'9'
aasS'srls'
p59
(lp60
sS'pos_seq'
p61
(lp62
S'JJ'
p63
aS'NN'
p64
aS'NN'
p65
aS'NNP'
p66
aS'JJ'
p67
aS'NN'
p68
aS'NN'
p69
aS'FW'
p70
aS'FW'
p71
asS'ner_seq'
p72
(lp73
S'O'
aS'O'
aS'O'
aS'O'
aS'O'
aS'O'
aS'O'
aS'O'
aS'O'
assb.