ccopy_reg
_reconstructor
p1
(c__main__
KBproperty
p2
c__builtin__
object
p3
NtRp4
(dp5
S'comment'
p6
S'end date and time'
p7
sS'domain'
p8
S'Event '
p9
sS'instances_count'
p10
S'0'
sS'label'
p11
g7
sS'range'
p12
S'date Time '
p13
sS'prop_uri'
p14
S"'http://dbpedia.org/ontology/endDateTime'"
p15
sS'annotations'
p16
(dp17
S'bag_of_words'
p18
(lp19
S'Event'
p20
aS'end'
p21
aS'Date'
p22
aS'Time'
p23
aS'date'
p24
aS'Time'
p25
aS'end'
p26
aS'date'
p27
aS'and'
p28
aS'time'
p29
asS'chunk_seq'
p30
(lp31
S'B-NP'
p32
aS'I-NP'
p33
aS'E-NP'
p34
aS'B-NP'
p35
aS'E-NP'
p36
aS'S-NP'
p37
aS'B-NP'
p38
aS'E-NP'
p39
aS'O'
aS'S-NP'
p40
asS'dep_seq'
p41
(lp42
(lp43
S'nn'
p44
aS'3'
aS'1'
aa(lp45
S'nn'
p46
aS'3'
aS'2'
aa(lp47
S'dep'
p48
aS'7'
aS'3'
aa(lp49
S'nn'
p50
aS'5'
aS'4'
aa(lp51
S'dep'
p52
aS'3'
aS'5'
aa(lp53
S'nn'
p54
aS'7'
aS'6'
aa(lp55
S'root'
p56
aS'0'
aS'7'
aa(lp57
S'dep'
p58
aS'7'
aS'8'
aa(lp59
S'conj_and'
p60
aS'8'
aS'10'
p61
aasS'srls'
p62
(lp63
sS'pos_seq'
p64
(lp65
S'NN'
p66
aS'NN'
p67
aS'NN'
p68
aS'NN'
p69
aS'NN'
p70
aS'NNP'
p71
aS'NN'
p72
aS'NN'
p73
aS'CC'
p74
aS'NN'
p75
asS'ner_seq'
p76
(lp77
S'O'
aS'O'
aS'O'
aS'O'
aS'O'
aS'O'
aS'O'
aS'O'
aS'O'
aS'O'
assb.