ccopy_reg
_reconstructor
p1
(c__main__
KBproperty
p2
c__builtin__
object
p3
NtRp4
(dp5
S'comment'
p6
S'In academia peer review is often used to determine an academic papers suitability for publication.'
p7
sS'domain'
p8
S'Academic Journal '
p9
sS'instances_count'
p10
S'17'
p11
sS'label'
p12
S'is peer reviewed'
p13
sS'range'
p14
S'boolean '
p15
sS'prop_uri'
p16
S"'http://dbpedia.org/ontology/isPeerReviewed'"
p17
sS'annotations'
p18
(dp19
S'bag_of_words'
p20
(lp21
S'Academic'
p22
aS'Journal'
p23
aS'is'
p24
aS'peer'
p25
aS'reviewed'
p26
aS'boolean'
p27
aS'In'
p28
aS'academia'
p29
aS'peer'
p30
aS'review'
p31
aS'is'
p32
aS'often'
p33
aS'used'
p34
aS'to'
p35
aS'determine'
p36
aS'an'
p37
aS'academic'
p38
aS'papers'
p39
aS'suitability'
p40
aS'for'
p41
aS'publication'
p42
aS'.'
asS'chunk_seq'
p43
(lp44
S'B-NP'
p45
aS'E-NP'
p46
aS'S-VP'
p47
aS'B-NP'
p48
aS'I-NP'
p49
aS'E-NP'
p50
aS'S-PP'
p51
aS'B-NP'
p52
aS'I-NP'
p53
aS'E-NP'
p54
aS'B-VP'
p55
aS'I-VP'
p56
aS'E-VP'
p57
aS'B-VP'
p58
aS'E-VP'
p59
aS'B-NP'
p60
aS'I-NP'
p61
aS'I-NP'
p62
aS'E-NP'
p63
aS'S-PP'
p64
aS'S-NP'
p65
aS'O'
asS'dep_seq'
p66
(lp67
(lp68
S'nn'
p69
aS'2'
aS'1'
aa(lp70
S'nsubj'
p71
aS'3'
aS'2'
aa(lp72
S'root'
p73
aS'0'
aS'3'
aa(lp74
S'nn'
p75
aS'6'
aS'4'
aa(lp76
S'amod'
p77
aS'6'
aS'5'
aa(lp78
S'nsubjpass'
p79
aS'13'
p80
aS'6'
aa(lp81
S'xsubj'
p82
aS'15'
p83
aS'6'
aa(lp84
S'nn'
p85
aS'10'
p86
aS'8'
aa(lp87
S'nn'
p88
aS'10'
p89
aS'9'
aa(lp90
S'prep_in'
p91
aS'6'
aS'10'
p92
aa(lp93
S'auxpass'
p94
aS'13'
p95
aS'11'
p96
aa(lp97
S'advmod'
p98
aS'13'
p99
aS'12'
p100
aa(lp101
S'ccomp'
p102
aS'3'
aS'13'
p103
aa(lp104
S'aux'
p105
aS'15'
p106
aS'14'
p107
aa(lp108
S'xcomp'
p109
aS'13'
p110
aS'15'
p111
aa(lp112
S'det'
p113
aS'19'
p114
aS'16'
p115
aa(lp116
S'amod'
p117
aS'19'
p118
aS'17'
p119
aa(lp120
S'nn'
p121
aS'19'
p122
aS'18'
p123
aa(lp124
S'dobj'
p125
aS'15'
p126
aS'19'
p127
aa(lp128
S'prep_for'
p129
aS'15'
p130
aS'21'
p131
aasS'srls'
p132
(lp133
(dp134
S'A1'
p135
g27
sS'AM-LOC'
p136
S'In academia peer review'
p137
sS'V'
g26
sa(dp138
S'AM-TMP'
p139
g33
sS'V'
g34
sa(dp140
S'A1'
p141
S'an academic papers suitability'
p142
sS'A0'
p143
S'peer reviewed boolean In academia peer review'
p144
sS'V'
g36
sasS'pos_seq'
p145
(lp146
S'NNP'
p147
aS'NNP'
p148
aS'VBZ'
p149
aS'NN'
p150
aS'VBN'
p151
aS'NN'
p152
aS'IN'
p153
aS'NN'
p154
aS'NN'
p155
aS'NN'
p156
aS'VBZ'
p157
aS'RB'
p158
aS'VBN'
p159
aS'TO'
p160
aS'VB'
p161
aS'DT'
p162
aS'JJ'
p163
aS'NNS'
p164
aS'NN'
p165
aS'IN'
p166
aS'NN'
p167
aS'.'
asS'ner_seq'
p168
(lp169
S'B-ORG'
p170
aS'E-ORG'
p171
aS'O'
aS'O'
aS'O'
aS'O'
aS'O'
aS'O'
aS'O'
aS'O'
aS'O'
aS'O'
aS'O'
aS'O'
aS'O'
aS'O'
aS'O'
aS'O'
aS'O'
aS'O'
aS'O'
aS'O'
assb.