ccopy_reg
_reconstructor
p1
(c__main__
KBproperty
p2
c__builtin__
object
p3
NtRp4
(dp5
S'comment'
p6
S'taste or flavour'
p7
sS'domain'
p8
S'Food '
p9
sS'instances_count'
p10
S'0'
sS'label'
p11
g7
sS'range'
p12
S'string '
p13
sS'prop_uri'
p14
S"'http://dbpedia.org/ontology/taste'"
p15
sS'annotations'
p16
(dp17
S'bag_of_words'
p18
(lp19
S'Food'
p20
aS'taste'
p21
aS'string'
p22
aS'taste'
p23
aS'or'
p24
aS'flavour'
p25
asS'chunk_seq'
p26
(lp27
S'B-NP'
p28
aS'I-NP'
p29
aS'I-NP'
p30
aS'I-NP'
p31
aS'I-NP'
p32
aS'E-NP'
p33
asS'dep_seq'
p34
(lp35
(lp36
S'nn'
p37
aS'4'
aS'1'
aa(lp38
S'nn'
p39
aS'4'
aS'2'
aa(lp40
S'nn'
p41
aS'4'
aS'3'
aa(lp42
S'root'
p43
aS'0'
aS'4'
aa(lp44
S'conj_or'
p45
aS'4'
aS'6'
aasS'srls'
p46
(lp47
(dp48
S'A1'
p49
S'string taste or flavour'
p50
sS'A0'
p51
g20
sS'V'
g21
sasS'pos_seq'
p52
(lp53
S'NN'
p54
aS'NN'
p55
aS'NN'
p56
aS'NN'
p57
aS'CC'
p58
aS'NN'
p59
asS'ner_seq'
p60
(lp61
S'O'
aS'O'
aS'O'
aS'O'
aS'O'
aS'O'
assb.