ccopy_reg
_reconstructor
p1
(c__main__
KBproperty
p2
c__builtin__
object
p3
NtRp4
(dp5
S'comment'
p6
S''
sS'domain'
p7
S'Tennis Player '
p8
sS'instances_count'
p9
S'3420'
p10
sS'label'
p11
S'career prize money $'
p12
sS'range'
p13
S'double '
p14
sS'prop_uri'
p15
S"'http://dbpedia.org/ontology/careerPrizeMoney'"
p16
sS'annotations'
p17
(dp18
S'bag_of_words'
p19
(lp20
S'Tennis'
p21
aS'Player'
p22
aS'career'
p23
aS'prize'
p24
aS'money'
p25
aS'$'
aS'double'
p26
asS'chunk_seq'
p27
(lp28
S'B-NP'
p29
aS'I-NP'
p30
aS'I-NP'
p31
aS'I-NP'
p32
aS'E-NP'
p33
aS'B-NP'
p34
aS'E-NP'
p35
asS'dep_seq'
p36
(lp37
(lp38
S'nn'
p39
aS'4'
aS'1'
aa(lp40
S'nn'
p41
aS'4'
aS'2'
aa(lp42
S'nn'
p43
aS'4'
aS'3'
aa(lp44
S'root'
p45
aS'0'
aS'4'
aa(lp46
S'dep'
p47
aS'6'
aS'5'
aa(lp48
S'dep'
p49
aS'4'
aS'6'
aa(lp50
S'dep'
p51
aS'6'
aS'7'
aasS'srls'
p52
(lp53
sS'pos_seq'
p54
(lp55
S'NNP'
p56
aS'NNP'
p57
aS'NN'
p58
aS'NN'
p59
aS'NN'
p60
aS'$'
aS'JJ'
p61
asS'ner_seq'
p62
(lp63
S'O'
aS'O'
aS'O'
aS'O'
aS'O'
aS'O'
aS'O'
assb.