ccopy_reg
_reconstructor
p1
(c__main__
KBproperty
p2
c__builtin__
object
p3
NtRp4
(dp5
S'comment'
p6
S'Percentage increase or decrease.'
p7
sS'domain'
p8
S'Architectural Structure '
p9
sS'instances_count'
p10
S'1016'
p11
sS'label'
p12
S'visitor percentage change'
p13
sS'range'
p14
S'double '
p15
sS'prop_uri'
p16
S"'http://dbpedia.org/ontology/visitorsPercentageChange'"
p17
sS'annotations'
p18
(dp19
S'bag_of_words'
p20
(lp21
S'Architectural'
p22
aS'Structure'
p23
aS'visitor'
p24
aS'percentage'
p25
aS'change'
p26
aS'double'
p27
aS'Percentage'
p28
aS'increase'
p29
aS'or'
p30
aS'decrease'
p31
aS'.'
asS'chunk_seq'
p32
(lp33
S'B-NP'
p34
aS'I-NP'
p35
aS'I-NP'
p36
aS'I-NP'
p37
aS'I-NP'
p38
aS'I-NP'
p39
aS'I-NP'
p40
aS'E-NP'
p41
aS'O'
aS'S-VP'
p42
aS'O'
asS'dep_seq'
p43
(lp44
(lp45
S'amod'
p46
aS'5'
aS'1'
aa(lp47
S'nn'
p48
aS'5'
aS'2'
aa(lp49
S'nn'
p50
aS'5'
aS'3'
aa(lp51
S'nn'
p52
aS'5'
aS'4'
aa(lp53
S'dep'
p54
aS'8'
aS'5'
aa(lp55
S'amod'
p56
aS'8'
aS'6'
aa(lp57
S'nn'
p58
aS'8'
aS'7'
aa(lp59
S'root'
p60
aS'0'
aS'8'
aa(lp61
S'conj_or'
p62
aS'8'
aS'10'
p63
aasS'srls'
p64
(lp65
(dp66
S'A0'
p67
S'Architectural Structure visitor percentage change'
p68
sS'V'
g31
sasS'pos_seq'
p69
(lp70
S'JJ'
p71
aS'NN'
p72
aS'NN'
p73
aS'NN'
p74
aS'NN'
p75
aS'JJ'
p76
aS'NN'
p77
aS'NN'
p78
aS'CC'
p79
aS'VB'
p80
aS'.'
asS'ner_seq'
p81
(lp82
S'O'
aS'O'
aS'O'
aS'O'
aS'O'
aS'O'
aS'O'
aS'O'
aS'O'
aS'O'
aS'O'
assb.