ccopy_reg
_reconstructor
p1
(c__main__
KBproperty
p2
c__builtin__
object
p3
NtRp4
(dp5
S'comment'
p6
S'First work of a person may be notableWork or not'
p7
sS'domain'
p8
S'Person '
p9
sS'instances_count'
p10
S'0'
sS'label'
p11
S'debutWork'
p12
sS'range'
p13
S'Work '
p14
sS'prop_uri'
p15
S"'http://dbpedia.org/ontology/debutWork'"
p16
sS'annotations'
p17
(dp18
S'bag_of_words'
p19
(lp20
S'Person'
p21
aS'debutWork'
p22
aS'Work'
p23
aS'First'
p24
aS'work'
p25
aS'of'
p26
aS'a'
aS'person'
p27
aS'may'
p28
aS'be'
p29
aS'notableWork'
p30
aS'or'
p31
aS'not'
p32
asS'chunk_seq'
p33
(lp34
S'B-NP'
p35
aS'I-NP'
p36
aS'I-NP'
p37
aS'I-NP'
p38
aS'E-NP'
p39
aS'S-PP'
p40
aS'B-NP'
p41
aS'E-NP'
p42
aS'B-VP'
p43
aS'E-VP'
p44
aS'B-NP'
p45
aS'I-NP'
p46
aS'E-NP'
p47
asS'dep_seq'
p48
(lp49
(lp50
S'nn'
p51
aS'5'
aS'1'
aa(lp52
S'nn'
p53
aS'5'
aS'2'
aa(lp54
S'nn'
p55
aS'5'
aS'3'
aa(lp56
S'nn'
p57
aS'5'
aS'4'
aa(lp58
S'nsubj'
p59
aS'11'
p60
aS'5'
aa(lp61
S'det'
p62
aS'8'
aS'7'
aa(lp63
S'prep_of'
p64
aS'5'
aS'8'
aa(lp65
S'aux'
p66
aS'11'
p67
aS'9'
aa(lp68
S'cop'
p69
aS'11'
p70
aS'10'
p71
aa(lp72
S'root'
p73
aS'0'
aS'11'
p74
aa(lp75
S'conj_or'
p76
aS'11'
p77
aS'13'
p78
aa(lp79
S'neg'
p80
aS'11'
p81
aS'13'
p82
aasS'srls'
p83
(lp84
sS'pos_seq'
p85
(lp86
S'NN'
p87
aS'NNP'
p88
aS'NNP'
p89
aS'NNP'
p90
aS'NN'
p91
aS'IN'
p92
aS'DT'
p93
aS'NN'
p94
aS'MD'
p95
aS'VB'
p96
aS'JJ'
p97
aS'CC'
p98
aS'RB'
p99
asS'ner_seq'
p100
(lp101
S'O'
aS'O'
aS'O'
aS'O'
aS'O'
aS'O'
aS'O'
aS'O'
aS'O'
aS'O'
aS'O'
aS'O'
aS'O'
assb.