ccopy_reg
_reconstructor
p1
(c__main__
KBproperty
p2
c__builtin__
object
p3
NtRp4
(dp5
S'comment'
p6
S''
sS'domain'
p7
S'Automobile Engine '
p8
sS'instances_count'
p9
S'125'
p10
sS'label'
p11
S'cooling system'
p12
sS'range'
p13
S''
sS'prop_uri'
p14
S"'http://dbpedia.org/ontology/coolingSystem'"
p15
sS'annotations'
p16
(dp17
S'bag_of_words'
p18
(lp19
S'Automobile'
p20
aS'Engine'
p21
aS'cooling'
p22
aS'system'
p23
asS'chunk_seq'
p24
(lp25
S'B-NP'
p26
aS'I-NP'
p27
aS'I-NP'
p28
aS'E-NP'
p29
asS'dep_seq'
p30
(lp31
(lp32
S'nn'
p33
aS'4'
aS'1'
aa(lp34
S'nn'
p35
aS'4'
aS'2'
aa(lp36
S'amod'
p37
aS'4'
aS'3'
aa(lp38
S'root'
p39
aS'0'
aS'4'
aasS'srls'
p40
(lp41
(dp42
S'A1'
p43
S'Automobile Engine'
p44
sS'A0'
p45
g23
sS'V'
g22
sasS'pos_seq'
p46
(lp47
S'NNP'
p48
aS'NNP'
p49
aS'VBG'
p50
aS'NN'
p51
asS'ner_seq'
p52
(lp53
S'O'
aS'O'
aS'O'
aS'O'
assb.