ccopy_reg
_reconstructor
p1
(c__main__
KBproperty
p2
c__builtin__
object
p3
NtRp4
(dp5
S'comment'
p6
S'http://www.w3.org/2001/XMLSchema#string'
p7
sS'domain'
p8
S'Architectural Structure '
p9
sS'instances_count'
p10
S'0'
sS'label'
p11
g7
sS'range'
p12
S'Monument '
p13
sS'prop_uri'
p14
S"'http://dbpedia.org/ontology/dutchMIPCode'"
p15
sS'annotations'
p16
(dp17
S'bag_of_words'
p18
(lp19
S'Architectural'
p20
aS'Structure'
p21
aS'dutch'
p22
aS'Code'
p23
aS'Monument'
p24
aS'http'
p25
aS':'
aS'//'
p26
aS'www'
p27
aS'.'
aS'w3'
p28
aS'.org'
p29
aS'/2001'
p30
aS'/'
aS'XMLSchema'
p31
aS'#'
aS'string'
p32
asS'chunk_seq'
p33
(lp34
S'B-NP'
p35
aS'I-NP'
p36
aS'I-NP'
p37
aS'I-NP'
p38
aS'I-NP'
p39
aS'E-NP'
p40
aS'O'
aS'B-NP'
p41
aS'E-NP'
p42
aS'O'
aS'O'
aS'O'
aS'O'
aS'O'
aS'O'
aS'B-NP'
p43
aS'E-NP'
p44
asS'dep_seq'
p45
(lp46
(lp47
S'nn'
p48
aS'6'
aS'1'
aa(lp49
S'nn'
p50
aS'6'
aS'2'
aa(lp51
S'amod'
p52
aS'6'
aS'3'
aa(lp53
S'nn'
p54
aS'6'
aS'4'
aa(lp55
S'nn'
p56
aS'6'
aS'5'
aa(lp57
S'root'
p58
aS'0'
aS'6'
aa(lp59
S'nn'
p60
aS'9'
aS'8'
aa(lp61
S'dep'
p62
aS'6'
aS'9'
aa(lp63
S'nn'
p64
aS'9'
aS'11'
p65
aa(lp66
S'nn'
p67
aS'9'
aS'12'
p68
aa(lp69
S'dep'
p70
aS'9'
aS'13'
p71
aa(lp72
S'dep'
p73
aS'9'
aS'14'
p74
aa(lp75
S'dep'
p76
aS'17'
p77
aS'15'
p78
aa(lp79
S'nn'
p80
aS'17'
p81
aS'16'
p82
aa(lp83
S'dep'
p84
aS'9'
aS'17'
p85
aasS'srls'
p86
(lp87
sS'pos_seq'
p88
(lp89
S'NNP'
p90
aS'NNP'
p91
aS'JJ'
p92
aS'NNP'
p93
aS'NNP'
p94
aS'NN'
p95
aS':'
aS'NN'
p96
aS'NN'
p97
aS'.'
aS'FW'
p98
aS'FW'
p99
aS'FW'
p100
aS'FW'
p101
aS'FW'
p102
aS'FW'
p103
aS'NN'
p104
asS'ner_seq'
p105
(lp106
S'B-MISC'
p107
aS'I-MISC'
p108
aS'I-MISC'
p109
aS'I-MISC'
p110
aS'E-MISC'
p111
aS'O'
aS'O'
aS'O'
aS'O'
aS'O'
aS'O'
aS'O'
aS'O'
aS'O'
aS'O'
aS'O'
aS'O'
assb.