ccopy_reg
_reconstructor
p1
(c__main__
KBproperty
p2
c__builtin__
object
p3
NtRp4
(dp5
S'comment'
p6
S'Age range of students admitted in a School MilitaryUnit etc'
p7
sS'domain'
p8
S''
sS'instances_count'
p9
S'820'
p10
sS'label'
p11
S'age range'
p12
sS'range'
p13
S'non Negative Integer '
p14
sS'prop_uri'
p15
S"'http://dbpedia.org/ontology/ageRange'"
p16
sS'annotations'
p17
(dp18
S'bag_of_words'
p19
(lp20
S'age'
p21
aS'range'
p22
aS'non'
p23
aS'Negative'
p24
aS'Integer'
p25
aS'Age'
p26
aS'range'
p27
aS'of'
p28
aS'students'
p29
aS'admitted'
p30
aS'in'
p31
aS'a'
aS'School'
p32
aS'MilitaryUnit'
p33
aS'etc'
p34
asS'chunk_seq'
p35
(lp36
S'S-NP'
p37
aS'S-VP'
p38
aS'B-NP'
p39
aS'I-NP'
p40
aS'I-NP'
p41
aS'I-NP'
p42
aS'E-NP'
p43
aS'S-PP'
p44
aS'S-NP'
p45
aS'S-VP'
p46
aS'S-PP'
p47
aS'B-NP'
p48
aS'I-NP'
p49
aS'E-NP'
p50
aS'O'
asS'dep_seq'
p51
(lp52
(lp53
S'nsubj'
p54
aS'2'
aS'1'
aa(lp55
S'root'
p56
aS'0'
aS'2'
aa(lp57
S'amod'
p58
aS'7'
aS'3'
aa(lp59
S'amod'
p60
aS'7'
aS'4'
aa(lp61
S'nn'
p62
aS'7'
aS'5'
aa(lp63
S'nn'
p64
aS'7'
aS'6'
aa(lp65
S'dobj'
p66
aS'2'
aS'7'
aa(lp67
S'prep_of'
p68
aS'7'
aS'9'
aa(lp69
S'partmod'
p70
aS'9'
aS'10'
p71
aa(lp72
S'det'
p73
aS'14'
p74
aS'12'
p75
aa(lp76
S'nn'
p77
aS'14'
p78
aS'13'
p79
aa(lp80
S'prep_in'
p81
aS'10'
p82
aS'14'
p83
aa(lp84
S'punct'
p85
aS'14'
p86
aS'15'
p87
aasS'srls'
p88
(lp89
(dp90
S'A1'
p91
g21
sS'A3'
p92
S'non Negative Integer Age range of students admitted in a School MilitaryUnit etc'
p93
sS'V'
g22
sa(dp94
S'A1'
p95
g29
sS'AM-LOC'
p96
S'in a School MilitaryUnit etc'
p97
sS'V'
g30
sasS'pos_seq'
p98
(lp99
S'NN'
p100
aS'VBP'
p101
aS'JJ'
p102
aS'JJ'
p103
aS'NNP'
p104
aS'NNP'
p105
aS'NN'
p106
aS'IN'
p107
aS'NNS'
p108
aS'VBN'
p109
aS'IN'
p110
aS'DT'
p111
aS'NNP'
p112
aS'NNP'
p113
aS'.'
asS'ner_seq'
p114
(lp115
S'O'
aS'O'
aS'O'
aS'B-MISC'
p116
aS'I-MISC'
p117
aS'E-MISC'
p118
aS'O'
aS'O'
aS'O'
aS'O'
aS'O'
aS'O'
aS'O'
aS'S-LOC'
p119
aS'O'
assb.