ccopy_reg
_reconstructor
p1
(c__main__
KBproperty
p2
c__builtin__
object
p3
NtRp4
(dp5
S'comment'
p6
S''
sS'domain'
p7
S'Penalty Shoot Out '
p8
sS'instances_count'
p9
S'0'
sS'label'
p10
S'Penalties Team A'
p11
sS'range'
p12
S'string '
p13
sS'prop_uri'
p14
S"'http://dbpedia.org/ontology/penaltiesTeamA'"
p15
sS'annotations'
p16
(dp17
S'bag_of_words'
p18
(lp19
S'Penalty'
p20
aS'Shoot'
p21
aS'Out'
p22
aS'Penalties'
p23
aS'Team'
p24
aS'A'
aS'string'
p25
asS'chunk_seq'
p26
(lp27
S'B-NP'
p28
aS'E-NP'
p29
aS'B-NP'
p30
aS'I-NP'
p31
aS'E-NP'
p32
aS'B-NP'
p33
aS'E-NP'
p34
asS'dep_seq'
p35
(lp36
(lp37
S'nn'
p38
aS'5'
aS'1'
aa(lp39
S'nn'
p40
aS'5'
aS'2'
aa(lp41
S'nn'
p42
aS'5'
aS'3'
aa(lp43
S'nn'
p44
aS'5'
aS'4'
aa(lp45
S'dep'
p46
aS'7'
aS'5'
aa(lp47
S'det'
p48
aS'7'
aS'6'
aa(lp49
S'root'
p50
aS'0'
aS'7'
aasS'srls'
p51
(lp52
sS'pos_seq'
p53
(lp54
S'NNP'
p55
aS'NNP'
p56
aS'NNP'
p57
aS'NNPS'
p58
aS'NNP'
p59
aS'DT'
p60
aS'NN'
p61
asS'ner_seq'
p62
(lp63
S'O'
aS'O'
aS'O'
aS'O'
aS'O'
aS'O'
aS'O'
assb.