ccopy_reg
_reconstructor
p1
(c__main__
KBproperty
p2
c__builtin__
object
p3
NtRp4
(dp5
S'comment'
p6
S'Name of a mute character in play.'
p7
sS'domain'
p8
S'Play '
p9
sS'instances_count'
p10
S'55'
p11
sS'label'
p12
S'mute character in play'
p13
sS'range'
p14
S'string '
p15
sS'prop_uri'
p16
S"'http://dbpedia.org/ontology/muteCharacterInPlay'"
p17
sS'annotations'
p18
(dp19
S'bag_of_words'
p20
(lp21
S'Play'
p22
aS'mute'
p23
aS'character'
p24
aS'in'
p25
aS'play'
p26
aS'string'
p27
aS'Name'
p28
aS'of'
p29
aS'a'
aS'mute'
p30
aS'character'
p31
aS'in'
p32
aS'play'
p33
aS'.'
asS'chunk_seq'
p34
(lp35
S'S-VP'
p36
aS'B-NP'
p37
aS'E-NP'
p38
aS'S-PP'
p39
aS'B-NP'
p40
aS'I-NP'
p41
aS'E-NP'
p42
aS'S-PP'
p43
aS'B-NP'
p44
aS'I-NP'
p45
aS'E-NP'
p46
aS'S-PP'
p47
aS'S-NP'
p48
aS'O'
asS'dep_seq'
p49
(lp50
(lp51
S'root'
p52
aS'0'
aS'1'
aa(lp53
S'amod'
p54
aS'3'
aS'2'
aa(lp55
S'dobj'
p56
aS'1'
aS'3'
aa(lp57
S'nn'
p58
aS'7'
aS'5'
aa(lp59
S'nn'
p60
aS'7'
aS'6'
aa(lp61
S'prep_in'
p62
aS'1'
aS'7'
aa(lp63
S'det'
p64
aS'11'
p65
aS'9'
aa(lp66
S'amod'
p67
aS'11'
p68
aS'10'
p69
aa(lp70
S'prep_of'
p71
aS'1'
aS'11'
p72
aa(lp73
S'prep_in'
p74
aS'11'
p75
aS'13'
p76
aasS'srls'
p77
(lp78
(dp79
S'A1'
p80
S'mute character'
p81
sS'V'
g22
sasS'pos_seq'
p82
(lp83
S'VB'
p84
aS'JJ'
p85
aS'NN'
p86
aS'IN'
p87
aS'NN'
p88
aS'NN'
p89
aS'NN'
p90
aS'IN'
p91
aS'DT'
p92
aS'JJ'
p93
aS'NN'
p94
aS'IN'
p95
aS'NN'
p96
aS'.'
asS'ner_seq'
p97
(lp98
S'O'
aS'O'
aS'O'
aS'O'
aS'O'
aS'O'
aS'O'
aS'O'
aS'O'
aS'O'
aS'O'
aS'O'
aS'O'
aS'O'
assb.