ccopy_reg
_reconstructor
p1
(c__main__
KBproperty
p2
c__builtin__
object
p3
NtRp4
(dp5
S'comment'
p6
S'maximum boat length \\xce\\xbc'
p7
sS'domain'
p8
S'Canal '
p9
sS'instances_count'
p10
S'77'
p11
sS'label'
p12
g7
sS'range'
p13
S'double '
p14
sS'prop_uri'
p15
S"'http://dbpedia.org/ontology/maximumBoatLength'"
p16
sS'annotations'
p17
(dp18
S'bag_of_words'
p19
(lp20
S'Canal'
p21
aS'maximum'
p22
aS'Boat'
p23
aS'Length'
p24
aS'double'
p25
aS'maximum'
p26
aS'boat'
p27
aS'length'
p28
aS'\\'
aS'xce'
p29
aS'\\'
aS'xbc'
p30
asS'chunk_seq'
p31
(lp32
S'B-NP'
p33
aS'I-NP'
p34
aS'I-NP'
p35
aS'I-NP'
p36
aS'I-NP'
p37
aS'I-NP'
p38
aS'I-NP'
p39
aS'E-NP'
p40
aS'O'
aS'O'
aS'O'
aS'O'
asS'dep_seq'
p41
(lp42
(lp43
S'nn'
p44
aS'4'
aS'1'
aa(lp45
S'nn'
p46
aS'4'
aS'2'
aa(lp47
S'nn'
p48
aS'4'
aS'3'
aa(lp49
S'dep'
p50
aS'8'
aS'4'
aa(lp51
S'amod'
p52
aS'8'
aS'5'
aa(lp53
S'nn'
p54
aS'8'
aS'6'
aa(lp55
S'nn'
p56
aS'8'
aS'7'
aa(lp57
S'root'
p58
aS'0'
aS'8'
aa(lp59
S'dep'
p60
aS'8'
aS'9'
aa(lp61
S'discourse'
p62
aS'8'
aS'10'
p63
aa(lp64
S'dep'
p65
aS'10'
p66
aS'11'
p67
aa(lp68
S'dep'
p69
aS'10'
p70
aS'12'
p71
aasS'srls'
p72
(lp73
sS'pos_seq'
p74
(lp75
S'NNP'
p76
aS'NN'
p77
aS'NN'
p78
aS'NN'
p79
aS'JJ'
p80
aS'NN'
p81
aS'NN'
p82
aS'NN'
p83
aS'FW'
p84
aS'FW'
p85
aS'FW'
p86
aS'FW'
p87
asS'ner_seq'
p88
(lp89
S'O'
aS'O'
aS'O'
aS'O'
aS'O'
aS'O'
aS'O'
aS'O'
aS'O'
aS'O'
aS'O'
aS'O'
assb.