ccopy_reg
_reconstructor
p1
(c__main__
KBproperty
p2
c__builtin__
object
p3
NtRp4
(dp5
S'comment'
p6
S'http://dbpedia.org/ontology/SportsTeam'
p7
sS'domain'
p8
S'Athlete '
p9
sS'instances_count'
p10
S'0'
sS'label'
p11
g7
sS'range'
p12
S'Career Station '
p13
sS'prop_uri'
p14
S"'http://dbpedia.org/ontology/leadTeam'"
p15
sS'annotations'
p16
(dp17
S'bag_of_words'
p18
(lp19
S'Athlete'
p20
aS'lead'
p21
aS'Team'
p22
aS'Career'
p23
aS'Station'
p24
aS'http'
p25
aS':'
aS'//'
p26
aS'dbpedia'
p27
aS'.org'
p28
aS'/'
aS'ontology'
p29
aS'/S'
p30
aS'portsTeam'
p31
asS'chunk_seq'
p32
(lp33
S'S-NP'
p34
aS'S-VP'
p35
aS'B-NP'
p36
aS'I-NP'
p37
aS'I-NP'
p38
aS'E-NP'
p39
aS'O'
aS'O'
aS'O'
aS'O'
aS'O'
aS'O'
aS'O'
aS'O'
asS'dep_seq'
p40
(lp41
(lp42
S'nsubj'
p43
aS'2'
aS'1'
aa(lp44
S'root'
p45
aS'0'
aS'2'
aa(lp46
S'nn'
p47
aS'6'
aS'3'
aa(lp48
S'nn'
p49
aS'6'
aS'4'
aa(lp50
S'nn'
p51
aS'6'
aS'5'
aa(lp52
S'dobj'
p53
aS'2'
aS'6'
aa(lp54
S'nn'
p55
aS'14'
p56
aS'8'
aa(lp57
S'nn'
p58
aS'14'
p59
aS'9'
aa(lp60
S'nn'
p61
aS'14'
p62
aS'10'
p63
aa(lp64
S'nn'
p65
aS'14'
p66
aS'11'
p67
aa(lp68
S'nn'
p69
aS'14'
p70
aS'12'
p71
aa(lp72
S'nn'
p73
aS'14'
p74
aS'13'
p75
aa(lp76
S'dep'
p77
aS'6'
aS'14'
p78
aasS'srls'
p79
(lp80
(dp81
S'A1'
p82
S'Team Career Station http : // dbpedia .org / ontology /S portsTeam'
p83
sS'A0'
p84
g20
sS'V'
g21
sasS'pos_seq'
p85
(lp86
S'NNP'
p87
aS'VB'
p88
aS'NNP'
p89
aS'NNP'
p90
aS'NNP'
p91
aS'NN'
p92
aS':'
aS'FW'
p93
aS'FW'
p94
aS'FW'
p95
aS'FW'
p96
aS'FW'
p97
aS'FW'
p98
aS'FW'
p99
asS'ner_seq'
p100
(lp101
S'O'
aS'O'
aS'B-ORG'
p102
aS'I-ORG'
p103
aS'E-ORG'
p104
aS'O'
aS'O'
aS'O'
aS'O'
aS'O'
aS'O'
aS'O'
aS'O'
aS'O'
assb.