ccopy_reg
_reconstructor
p1
(c__main__
KBproperty
p2
c__builtin__
object
p3
NtRp4
(dp5
S'comment'
p6
S''
sS'domain'
p7
S'Building '
p8
sS'instances_count'
p9
S'3877'
p10
sS'label'
p11
S'floor area m2'
p12
sS'range'
p13
S'double '
p14
sS'prop_uri'
p15
S"'http://dbpedia.org/ontology/floorArea'"
p16
sS'annotations'
p17
(dp18
S'bag_of_words'
p19
(lp20
S'Building'
p21
aS'floor'
p22
aS'area'
p23
aS'm2'
p24
aS'double'
p25
asS'chunk_seq'
p26
(lp27
S'B-NP'
p28
aS'I-NP'
p29
aS'E-NP'
p30
aS'B-ADVP'
p31
aS'E-ADVP'
p32
asS'dep_seq'
p33
(lp34
(lp35
S'amod'
p36
aS'3'
aS'1'
aa(lp37
S'nn'
p38
aS'3'
aS'2'
aa(lp39
S'root'
p40
aS'0'
aS'3'
aa(lp41
S'advmod'
p42
aS'5'
aS'4'
aa(lp43
S'advmod'
p44
aS'3'
aS'5'
aasS'srls'
p45
(lp46
sS'pos_seq'
p47
(lp48
S'VBG'
p49
aS'NN'
p50
aS'NN'
p51
aS'RB'
p52
aS'RB'
p53
asS'ner_seq'
p54
(lp55
S'O'
aS'O'
aS'O'
aS'O'
aS'O'
assb.