ccopy_reg
_reconstructor
p1
(c__main__
KBproperty
p2
c__builtin__
object
p3
NtRp4
(dp5
S'comment'
p6
S'An academic discipline or field of study is a branch of knowledge that is taught and researched at the college or university level. Disciplines are defined in part and recognized by the academic journals in which research is published and the learned societies and academic departments or faculties to which their practitioners belong.'
p7
sS'domain'
p8
S'Academic Journal '
p9
sS'instances_count'
p10
S'7941'
p11
sS'label'
p12
S'academic discipline'
p13
sS'range'
p14
S''
sS'prop_uri'
p15
S"'http://dbpedia.org/ontology/academicDiscipline'"
p16
sS'annotations'
p17
(dp18
S'bag_of_words'
p19
(lp20
S'Academic'
p21
aS'Journal'
p22
aS'academic'
p23
aS'discipline'
p24
aS'An'
p25
aS'academic'
p26
aS'discipline'
p27
aS'or'
p28
aS'field'
p29
aS'of'
p30
aS'study'
p31
aS'is'
p32
aS'a'
aS'branch'
p33
aS'of'
p34
aS'knowledge'
p35
aS'that'
p36
aS'is'
p37
aS'taught'
p38
aS'and'
p39
aS'researched'
p40
aS'at'
p41
aS'the'
p42
aS'college'
p43
aS'or'
p44
aS'university'
p45
aS'level'
p46
aS'.'
aS'Disciplines'
p47
aS'are'
p48
aS'defined'
p49
aS'in'
p50
aS'part'
p51
aS'and'
p52
aS'recognized'
p53
aS'by'
p54
aS'the'
p55
aS'academic'
p56
aS'journals'
p57
aS'in'
p58
aS'which'
p59
aS'research'
p60
aS'is'
p61
aS'published'
p62
aS'and'
p63
aS'the'
p64
aS'learned'
p65
aS'societies'
p66
aS'and'
p67
aS'academic'
p68
aS'departments'
p69
aS'or'
p70
aS'faculties'
p71
aS'to'
p72
aS'which'
p73
aS'their'
p74
aS'practitioners'
p75
aS'belong'
p76
aS'.'
asS'chunk_seq'
p77
(lp78
S'B-NP'
p79
aS'I-NP'
p80
aS'I-NP'
p81
aS'E-NP'
p82
aS'B-NP'
p83
aS'I-NP'
p84
aS'I-NP'
p85
aS'I-NP'
p86
aS'E-NP'
p87
aS'S-PP'
p88
aS'S-NP'
p89
aS'S-VP'
p90
aS'B-NP'
p91
aS'E-NP'
p92
aS'S-PP'
p93
aS'S-NP'
p94
aS'S-NP'
p95
aS'B-VP'
p96
aS'I-VP'
p97
aS'I-VP'
p98
aS'E-VP'
p99
aS'S-PP'
p100
aS'B-NP'
p101
aS'I-NP'
p102
aS'I-NP'
p103
aS'I-NP'
p104
aS'I-NP'
p105
aS'I-NP'
p106
aS'E-NP'
p107
aS'B-VP'
p108
aS'E-VP'
p109
aS'S-PP'
p110
aS'S-NP'
p111
aS'O'
aS'S-VP'
p112
aS'S-PP'
p113
aS'B-NP'
p114
aS'I-NP'
p115
aS'E-NP'
p116
aS'S-PP'
p117
aS'S-NP'
p118
aS'S-NP'
p119
aS'B-VP'
p120
aS'E-VP'
p121
aS'O'
aS'B-NP'
p122
aS'I-NP'
p123
aS'I-NP'
p124
aS'I-NP'
p125
aS'I-NP'
p126
aS'I-NP'
p127
aS'I-NP'
p128
aS'E-NP'
p129
aS'S-PP'
p130
aS'S-NP'
p131
aS'B-NP'
p132
aS'E-NP'
p133
aS'S-VP'
p134
aS'O'
asS'dep_seq'
p135
(lp136
(lp137
S'nn'
p138
aS'4'
aS'1'
aa(lp139
S'nn'
p140
aS'4'
aS'2'
aa(lp141
S'amod'
p142
aS'4'
aS'3'
aa(lp143
S'nsubj'
p144
aS'14'
p145
aS'4'
aa(lp146
S'det'
p147
aS'7'
aS'5'
aa(lp148
S'amod'
p149
aS'7'
aS'6'
aa(lp150
S'dep'
p151
aS'4'
aS'7'
aa(lp152
S'conj_or'
p153
aS'7'
aS'9'
aa(lp154
S'prep_of'
p155
aS'7'
aS'11'
p156
aa(lp157
S'cop'
p158
aS'14'
p159
aS'12'
p160
aa(lp161
S'det'
p162
aS'14'
p163
aS'13'
p164
aa(lp165
S'nsubjpass'
p166
aS'19'
p167
aS'14'
p168
aa(lp169
S'ccomp'
p170
aS'31'
p171
aS'14'
p172
aa(lp173
S'prep_of'
p174
aS'14'
p175
aS'16'
p176
aa(lp177
S'auxpass'
p178
aS'19'
p179
aS'18'
p180
aa(lp181
S'rcmod'
p182
aS'14'
p183
aS'19'
p184
aa(lp185
S'conj_and'
p186
aS'19'
p187
aS'21'
p188
aa(lp189
S'det'
p190
aS'27'
p191
aS'23'
p192
aa(lp193
S'nn'
p194
aS'27'
p195
aS'24'
p196
aa(lp197
S'conj_or'
p198
aS'24'
p199
aS'26'
p200
aa(lp201
S'prep_at'
p202
aS'19'
p203
aS'27'
p204
aa(lp205
S'nsubj'
p206
aS'31'
p207
aS'29'
p208
aa(lp209
S'dep'
p210
aS'31'
p211
aS'30'
p212
aa(lp213
S'root'
p214
aS'0'
aS'31'
p215
aa(lp216
S'prep_in'
p217
aS'31'
p218
aS'33'
p219
aa(lp220
S'conj_and'
p221
aS'31'
p222
aS'35'
p223
aa(lp224
S'det'
p225
aS'39'
p226
aS'37'
p227
aa(lp228
S'amod'
p229
aS'39'
p230
aS'38'
p231
aa(lp232
S'prep_by'
p233
aS'31'
p234
aS'39'
p235
aa(lp236
S'dep'
p237
aS'31'
p238
aS'40'
p239
aa(lp240
S'pobj'
p241
aS'40'
p242
aS'41'
p243
aa(lp244
S'nsubjpass'
p245
aS'44'
p246
aS'42'
p247
aa(lp248
S'auxpass'
p249
aS'44'
p250
aS'43'
p251
aa(lp252
S'dep'
p253
aS'31'
p254
aS'44'
p255
aa(lp256
S'det'
p257
aS'48'
p258
aS'46'
p259
aa(lp260
S'amod'
p261
aS'48'
p262
aS'47'
p263
aa(lp264
S'conj_and'
p265
aS'44'
p266
aS'48'
p267
aa(lp268
S'prep_to'
p269
aS'58'
p270
aS'48'
p271
aa(lp272
S'amod'
p273
aS'51'
p274
aS'50'
p275
aa(lp276
S'conj_and'
p277
aS'48'
p278
aS'51'
p279
aa(lp280
S'conj_or'
p281
aS'51'
p282
aS'53'
p283
aa(lp284
S'rel'
p285
aS'58'
p286
aS'54'
p287
aa(lp288
S'poss'
p289
aS'57'
p290
aS'56'
p291
aa(lp292
S'nsubj'
p293
aS'58'
p294
aS'57'
p295
aa(lp296
S'rcmod'
p297
aS'48'
p298
aS'58'
p299
aasS'srls'
p300
(lp301
(dp302
S'A1'
p303
S'a branch knowledge'
p304
sS'AM-LOC'
p305
S'at the college or university level'
p306
sS'R-A1'
p307
g36
sS'V'
g38
sa(dp308
S'A1'
p309
S'a branch knowledge'
p310
sS'AM-LOC'
p311
S'at the college or university level'
p312
sS'R-A1'
p313
g36
sS'V'
g40
sa(dp314
S'A1'
p315
g47
sS'A2'
p316
S'in part'
p317
sS'V'
g49
sa(dp318
S'A1'
p319
S'a branch of knowledge Disciplines'
p320
sS'A0'
p321
S'by the academic journals in which research is published and the learned societies and academic departments or faculties to which their practitioners belong'
p322
sS'R-A1'
p323
g36
sS'V'
g53
sa(dp324
S'A1'
p325
g60
sS'AM-LOC'
p326
S'the academic journals'
p327
sS'V'
g62
sa(dp328
S'A1'
p329
g66
sS'V'
g65
sa(dp330
S'A0'
p331
S'the learned societies and academic departments or faculties to which their practitioners'
p332
sS'V'
g76
sasS'pos_seq'
p333
(lp334
S'NNP'
p335
aS'NNP'
p336
aS'JJ'
p337
aS'NN'
p338
aS'DT'
p339
aS'JJ'
p340
aS'NN'
p341
aS'CC'
p342
aS'NN'
p343
aS'IN'
p344
aS'NN'
p345
aS'VBZ'
p346
aS'DT'
p347
aS'NN'
p348
aS'IN'
p349
aS'NN'
p350
aS'WDT'
p351
aS'VBZ'
p352
aS'VBN'
p353
aS'CC'
p354
aS'VBN'
p355
aS'IN'
p356
aS'DT'
p357
aS'NN'
p358
aS'CC'
p359
aS'NN'
p360
aS'NN'
p361
aS'.'
aS'NNS'
p362
aS'VBP'
p363
aS'VBN'
p364
aS'IN'
p365
aS'NN'
p366
aS'CC'
p367
aS'VBN'
p368
aS'IN'
p369
aS'DT'
p370
aS'JJ'
p371
aS'NNS'
p372
aS'IN'
p373
aS'WDT'
p374
aS'NN'
p375
aS'VBZ'
p376
aS'VBN'
p377
aS'CC'
p378
aS'DT'
p379
aS'VBN'
p380
aS'NNS'
p381
aS'CC'
p382
aS'JJ'
p383
aS'NNS'
p384
aS'CC'
p385
aS'NNS'
p386
aS'TO'
p387
aS'WDT'
p388
aS'PRP$'
p389
aS'NNS'
p390
aS'VBP'
p391
aS'.'
asS'ner_seq'
p392
(lp393
S'B-ORG'
p394
aS'E-ORG'
p395
aS'O'
aS'O'
aS'O'
aS'O'
aS'O'
aS'O'
aS'O'
aS'O'
aS'O'
aS'O'
aS'O'
aS'O'
aS'O'
aS'O'
aS'O'
aS'O'
aS'O'
aS'O'
aS'O'
aS'O'
aS'O'
aS'O'
aS'O'
aS'O'
aS'O'
aS'O'
aS'S-ORG'
p396
aS'O'
aS'O'
aS'O'
aS'O'
aS'O'
aS'O'
aS'O'
aS'O'
aS'O'
aS'O'
aS'O'
aS'O'
aS'O'
aS'O'
aS'O'
aS'O'
aS'O'
aS'O'
aS'O'
aS'O'
aS'O'
aS'O'
aS'O'
aS'O'
aS'O'
aS'O'
aS'O'
aS'O'
aS'O'
aS'O'
assb.