ccopy_reg
_reconstructor
p1
(c__main__
KBproperty
p2
c__builtin__
object
p3
NtRp4
(dp5
S'comment'
p6
S'mill span \\xce\\xbc'
p7
sS'domain'
p8
S'Mill '
p9
sS'instances_count'
p10
S'0'
sS'label'
p11
g7
sS'range'
p12
S'double '
p13
sS'prop_uri'
p14
S"'http://dbpedia.org/ontology/millSpan'"
p15
sS'annotations'
p16
(dp17
S'bag_of_words'
p18
(lp19
S'Mill'
p20
aS'mill'
p21
aS'Span'
p22
aS'double'
p23
aS'mill'
p24
aS'span'
p25
aS'\\'
aS'xce'
p26
aS'\\'
aS'xbc'
p27
asS'chunk_seq'
p28
(lp29
S'B-NP'
p30
aS'I-NP'
p31
aS'E-NP'
p32
aS'B-NP'
p33
aS'E-NP'
p34
aS'O'
aS'O'
aS'O'
aS'O'
aS'O'
asS'dep_seq'
p35
(lp36
(lp37
S'nn'
p38
aS'3'
aS'1'
aa(lp39
S'nn'
p40
aS'3'
aS'2'
aa(lp41
S'nsubj'
p42
aS'10'
p43
aS'3'
aa(lp44
S'amod'
p45
aS'5'
aS'4'
aa(lp46
S'nsubj'
p47
aS'10'
p48
aS'5'
aa(lp49
S'dep'
p50
aS'10'
p51
aS'6'
aa(lp52
S'nn'
p53
aS'10'
p54
aS'7'
aa(lp55
S'nn'
p56
aS'10'
p57
aS'8'
aa(lp58
S'nn'
p59
aS'10'
p60
aS'9'
aa(lp61
S'root'
p62
aS'0'
aS'10'
p63
aasS'srls'
p64
(lp65
sS'pos_seq'
p66
(lp67
S'NN'
p68
aS'NN'
p69
aS'NNP'
p70
aS'JJ'
p71
aS'NN'
p72
aS'FW'
p73
aS'FW'
p74
aS'FW'
p75
aS'FW'
p76
aS'FW'
p77
asS'ner_seq'
p78
(lp79
S'B-LOC'
p80
aS'I-LOC'
p81
aS'E-LOC'
p82
aS'O'
aS'O'
aS'O'
aS'O'
aS'O'
aS'O'
aS'O'
assb.