ccopy_reg
_reconstructor
p1
(c__main__
KBproperty
p2
c__builtin__
object
p3
NtRp4
(dp5
S'comment'
p6
S'Award a person has received literal. Compare to award ObjectProperty'
p7
sS'domain'
p8
S'Person '
p9
sS'instances_count'
p10
S'0'
sS'label'
p11
S'awardName'
p12
sS'range'
p13
S'string '
p14
sS'prop_uri'
p15
S"'http://dbpedia.org/ontology/awardName'"
p16
sS'annotations'
p17
(dp18
S'bag_of_words'
p19
(lp20
S'Person'
p21
aS'awardName'
p22
aS'string'
p23
aS'Award'
p24
aS'a'
aS'person'
p25
aS'has'
p26
aS'received'
p27
aS'literal'
p28
aS'.'
aS'Compare'
p29
aS'to'
p30
aS'award'
p31
aS'ObjectProperty'
p32
asS'chunk_seq'
p33
(lp34
S'B-NP'
p35
aS'I-NP'
p36
aS'I-NP'
p37
aS'E-NP'
p38
aS'B-NP'
p39
aS'E-NP'
p40
aS'B-VP'
p41
aS'E-VP'
p42
aS'S-ADJP'
p43
aS'O'
aS'S-VP'
p44
aS'S-PP'
p45
aS'B-NP'
p46
aS'E-NP'
p47
asS'dep_seq'
p48
(lp49
(lp50
S'nn'
p51
aS'4'
aS'1'
aa(lp52
S'amod'
p53
aS'4'
aS'2'
aa(lp54
S'nn'
p55
aS'4'
aS'3'
aa(lp56
S'root'
p57
aS'0'
aS'4'
aa(lp58
S'dobj'
p59
aS'8'
aS'4'
aa(lp60
S'det'
p61
aS'6'
aS'5'
aa(lp62
S'nsubj'
p63
aS'8'
aS'6'
aa(lp64
S'aux'
p65
aS'8'
aS'7'
aa(lp66
S'rcmod'
p67
aS'4'
aS'8'
aa(lp68
S'acomp'
p69
aS'8'
aS'9'
aa(lp70
S'dep'
p71
aS'4'
aS'11'
p72
aa(lp73
S'aux'
p74
aS'13'
p75
aS'12'
p76
aa(lp77
S'xcomp'
p78
aS'11'
p79
aS'13'
p80
aa(lp81
S'dobj'
p82
aS'13'
p83
aS'14'
p84
aasS'srls'
p85
(lp86
(dp87
S'A0'
p88
S'Person awardName string Award a person'
p89
sS'AM-MNR'
p90
g28
sS'V'
g27
sa(dp91
S'A2'
p92
S'to award ObjectProperty'
p93
sS'V'
g29
sa(dp94
S'A1'
p95
g32
sS'V'
g31
sasS'pos_seq'
p96
(lp97
S'NN'
p98
aS'JJ'
p99
aS'NN'
p100
aS'NNP'
p101
aS'DT'
p102
aS'NN'
p103
aS'VBZ'
p104
aS'VBN'
p105
aS'JJ'
p106
aS'.'
aS'VB'
p107
aS'TO'
p108
aS'VB'
p109
aS'NNP'
p110
asS'ner_seq'
p111
(lp112
S'O'
aS'O'
aS'O'
aS'O'
aS'O'
aS'O'
aS'O'
aS'O'
aS'O'
aS'O'
aS'O'
aS'O'
aS'O'
aS'S-PER'
p113
assb.