ccopy_reg
_reconstructor
p1
(c__main__
KBproperty
p2
c__builtin__
object
p3
NtRp4
(dp5
S'comment'
p6
S'Used as if meaning: has property rights over'
p7
sS'domain'
p8
S'Agent '
p9
sS'instances_count'
p10
S'0'
sS'label'
p11
S'owns'
p12
sS'range'
p13
S'Thing '
p14
sS'prop_uri'
p15
S"'http://dbpedia.org/ontology/owns'"
p16
sS'annotations'
p17
(dp18
S'bag_of_words'
p19
(lp20
S'Agent'
p21
aS'owns'
p22
aS'Thing'
p23
aS'Used'
p24
aS'as'
p25
aS'if'
p26
aS'meaning'
p27
aS':'
aS'has'
p28
aS'property'
p29
aS'rights'
p30
aS'over'
p31
asS'chunk_seq'
p32
(lp33
S'S-NP'
p34
aS'S-VP'
p35
aS'S-NP'
p36
aS'S-VP'
p37
aS'S-PP'
p38
aS'S-SBAR'
p39
aS'S-NP'
p40
aS'O'
aS'S-VP'
p41
aS'B-NP'
p42
aS'E-NP'
p43
aS'S-PP'
p44
asS'dep_seq'
p45
(lp46
(lp47
S'nn'
p48
aS'3'
aS'1'
aa(lp49
S'dep'
p50
aS'3'
aS'2'
aa(lp51
S'root'
p52
aS'0'
aS'3'
aa(lp53
S'partmod'
p54
aS'3'
aS'4'
aa(lp55
S'mark'
p56
aS'7'
aS'6'
aa(lp57
S'dep'
p58
aS'9'
aS'7'
aa(lp59
S'prepc_as'
p60
aS'4'
aS'9'
aa(lp61
S'nn'
p62
aS'11'
p63
aS'10'
p64
aa(lp65
S'dobj'
p66
aS'9'
aS'11'
p67
aa(lp68
S'advmod'
p69
aS'9'
aS'12'
p70
aasS'srls'
p71
(lp72
(dp73
S'A1'
p74
S'Thing Used as if meaning'
p75
sS'A0'
p76
g21
sS'V'
g22
sa(dp77
S'A1'
p78
g23
sS'V'
g24
sa(dp79
S'A1'
p80
S'property rights'
p81
sS'V'
g28
sasS'pos_seq'
p82
(lp83
S'NN'
p84
aS'VBZ'
p85
aS'NN'
p86
aS'VBN'
p87
aS'IN'
p88
aS'IN'
p89
aS'NN'
p90
aS':'
aS'VBZ'
p91
aS'NN'
p92
aS'NNS'
p93
aS'IN'
p94
asS'ner_seq'
p95
(lp96
S'O'
aS'O'
aS'O'
aS'O'
aS'O'
aS'O'
aS'O'
aS'O'
aS'O'
aS'O'
aS'O'
aS'O'
assb.