ccopy_reg
_reconstructor
p1
(c__main__
KBproperty
p2
c__builtin__
object
p3
NtRp4
(dp5
S'comment'
p6
S'Area code for telephone numbers. Use this not phonePrefix'
p7
sS'domain'
p8
S'Place '
p9
sS'instances_count'
p10
S'127268'
p11
sS'label'
p12
S'area code'
p13
sS'range'
p14
S'string '
p15
sS'prop_uri'
p16
S"'http://dbpedia.org/ontology/areaCode'"
p17
sS'annotations'
p18
(dp19
S'bag_of_words'
p20
(lp21
S'Place'
p22
aS'area'
p23
aS'code'
p24
aS'string'
p25
aS'Area'
p26
aS'code'
p27
aS'for'
p28
aS'telephone'
p29
aS'numbers'
p30
aS'.'
aS'Use'
p31
aS'this'
p32
aS'not'
p33
aS'phonePrefix'
p34
asS'chunk_seq'
p35
(lp36
S'B-NP'
p37
aS'I-NP'
p38
aS'I-NP'
p39
aS'I-NP'
p40
aS'I-NP'
p41
aS'E-NP'
p42
aS'S-PP'
p43
aS'B-NP'
p44
aS'E-NP'
p45
aS'O'
aS'S-VP'
p46
aS'B-NP'
p47
aS'E-NP'
p48
aS'S-ADJP'
p49
asS'dep_seq'
p50
(lp51
(lp52
S'nn'
p53
aS'6'
aS'1'
aa(lp54
S'nn'
p55
aS'6'
aS'2'
aa(lp56
S'nn'
p57
aS'6'
aS'3'
aa(lp58
S'nn'
p59
aS'6'
aS'4'
aa(lp60
S'nn'
p61
aS'6'
aS'5'
aa(lp62
S'root'
p63
aS'0'
aS'6'
aa(lp64
S'nn'
p65
aS'9'
aS'8'
aa(lp66
S'prep_for'
p67
aS'6'
aS'9'
aa(lp68
S'dep'
p69
aS'14'
p70
aS'11'
p71
aa(lp72
S'dep'
p73
aS'11'
p74
aS'12'
p75
aa(lp76
S'neg'
p77
aS'14'
p78
aS'13'
p79
aa(lp80
S'dep'
p81
aS'6'
aS'14'
p82
aasS'srls'
p83
(lp84
sS'pos_seq'
p85
(lp86
S'NN'
p87
aS'NN'
p88
aS'NN'
p89
aS'NN'
p90
aS'NN'
p91
aS'NN'
p92
aS'IN'
p93
aS'NN'
p94
aS'NNS'
p95
aS'.'
aS'NNP'
p96
aS'DT'
p97
aS'RB'
p98
aS'JJ'
p99
asS'ner_seq'
p100
(lp101
S'O'
aS'O'
aS'O'
aS'O'
aS'O'
aS'O'
aS'O'
aS'O'
aS'O'
aS'O'
aS'O'
aS'O'
aS'O'
aS'S-PER'
p102
assb.