ccopy_reg
_reconstructor
p1
(c__main__
KBproperty
p2
c__builtin__
object
p3
NtRp4
(dp5
S'comment'
p6
S'Percentage of Galician speakers.'
p7
sS'domain'
p8
S'Language '
p9
sS'instances_count'
p10
S'0'
sS'label'
p11
S'galicianSpeakersPercentage'
p12
sS'range'
p13
S'string '
p14
sS'prop_uri'
p15
S"'http://dbpedia.org/ontology/galicianSpeakersPercentage'"
p16
sS'annotations'
p17
(dp18
S'bag_of_words'
p19
(lp20
S'Language'
p21
aS'galicianSpeakersPercentage'
p22
aS'string'
p23
aS'Percentage'
p24
aS'of'
p25
aS'Galician'
p26
aS'speakers'
p27
aS'.'
asS'chunk_seq'
p28
(lp29
S'B-NP'
p30
aS'I-NP'
p31
aS'I-NP'
p32
aS'E-NP'
p33
aS'S-PP'
p34
aS'B-NP'
p35
aS'E-NP'
p36
aS'O'
asS'dep_seq'
p37
(lp38
(lp39
S'nn'
p40
aS'4'
aS'1'
aa(lp41
S'amod'
p42
aS'4'
aS'2'
aa(lp43
S'nn'
p44
aS'4'
aS'3'
aa(lp45
S'root'
p46
aS'0'
aS'4'
aa(lp47
S'amod'
p48
aS'7'
aS'6'
aa(lp49
S'prep_of'
p50
aS'4'
aS'7'
aasS'srls'
p51
(lp52
sS'pos_seq'
p53
(lp54
S'NN'
p55
aS'JJ'
p56
aS'NN'
p57
aS'NN'
p58
aS'IN'
p59
aS'JJ'
p60
aS'NNS'
p61
aS'.'
asS'ner_seq'
p62
(lp63
S'O'
aS'O'
aS'O'
aS'O'
aS'O'
aS'S-MISC'
p64
aS'O'
aS'O'
assb.