ccopy_reg
_reconstructor
p1
(c__main__
KBproperty
p2
c__builtin__
object
p3
NtRp4
(dp5
S'comment'
p6
S'lowest temperature at which a substance can vaporize and start burning'
p7
sS'domain'
p8
S'Chemical Substance '
p9
sS'instances_count'
p10
S'0'
sS'label'
p11
S'flash point'
p12
sS'range'
p13
S'integer '
p14
sS'prop_uri'
p15
S"'http://dbpedia.org/ontology/flashPoint'"
p16
sS'annotations'
p17
(dp18
S'bag_of_words'
p19
(lp20
S'Chemical'
p21
aS'Substance'
p22
aS'flash'
p23
aS'point'
p24
aS'integer'
p25
aS'lowest'
p26
aS'temperature'
p27
aS'at'
p28
aS'which'
p29
aS'a'
aS'substance'
p30
aS'can'
p31
aS'vaporize'
p32
aS'and'
p33
aS'start'
p34
aS'burning'
p35
asS'chunk_seq'
p36
(lp37
S'B-NP'
p38
aS'I-NP'
p39
aS'I-NP'
p40
aS'I-NP'
p41
aS'I-NP'
p42
aS'I-NP'
p43
aS'E-NP'
p44
aS'S-PP'
p45
aS'S-NP'
p46
aS'B-NP'
p47
aS'E-NP'
p48
aS'B-VP'
p49
aS'E-VP'
p50
aS'O'
aS'B-VP'
p51
aS'E-VP'
p52
asS'dep_seq'
p53
(lp54
(lp55
S'nn'
p56
aS'4'
aS'1'
aa(lp57
S'nn'
p58
aS'4'
aS'2'
aa(lp59
S'nn'
p60
aS'4'
aS'3'
aa(lp61
S'dep'
p62
aS'7'
aS'4'
aa(lp63
S'nn'
p64
aS'7'
aS'5'
aa(lp65
S'amod'
p66
aS'7'
aS'6'
aa(lp67
S'root'
p68
aS'0'
aS'7'
aa(lp69
S'prep_at'
p70
aS'13'
p71
aS'7'
aa(lp72
S'rel'
p73
aS'13'
p74
aS'8'
aa(lp75
S'det'
p76
aS'11'
p77
aS'10'
p78
aa(lp79
S'nsubj'
p80
aS'13'
p81
aS'11'
p82
aa(lp83
S'aux'
p84
aS'13'
p85
aS'12'
p86
aa(lp87
S'rcmod'
p88
aS'7'
aS'13'
p89
aa(lp90
S'conj_and'
p91
aS'13'
p92
aS'15'
p93
aa(lp94
S'xcomp'
p95
aS'15'
p96
aS'16'
p97
aasS'srls'
p98
(lp99
(dp100
S'A1'
p101
S'a substance'
p102
sS'V'
g32
sS'AM-MOD'
p103
g31
sa(dp104
S'V'
g34
sS'A2'
p105
S'Chemical Substance flash point integer lowest temperature at which a substance'
p106
sS'AM-MOD'
p107
g31
sasS'pos_seq'
p108
(lp109
S'NNP'
p110
aS'NNP'
p111
aS'NN'
p112
aS'NN'
p113
aS'NN'
p114
aS'JJS'
p115
aS'NN'
p116
aS'IN'
p117
aS'WDT'
p118
aS'DT'
p119
aS'NN'
p120
aS'MD'
p121
aS'VB'
p122
aS'CC'
p123
aS'VB'
p124
aS'VBG'
p125
asS'ner_seq'
p126
(lp127
S'O'
aS'O'
aS'O'
aS'O'
aS'O'
aS'O'
aS'O'
aS'O'
aS'O'
aS'O'
aS'O'
aS'O'
aS'O'
aS'O'
aS'O'
aS'O'
assb.