ccopy_reg
_reconstructor
p1
(c__main__
KBproperty
p2
c__builtin__
object
p3
NtRp4
(dp5
S'comment'
p6
S'distance to Cardiff \\xce\\xbc'
p7
sS'domain'
p8
S'Settlement '
p9
sS'instances_count'
p10
S'641'
p11
sS'label'
p12
g7
sS'range'
p13
S'double '
p14
sS'prop_uri'
p15
S"'http://dbpedia.org/ontology/distanceToCardiff'"
p16
sS'annotations'
p17
(dp18
S'bag_of_words'
p19
(lp20
S'Settlement'
p21
aS'distance'
p22
aS'To'
p23
aS'Cardiff'
p24
aS'double'
p25
aS'distance'
p26
aS'to'
p27
aS'Cardiff'
p28
aS'\\'
aS'xce'
p29
aS'\\'
aS'xbc'
p30
asS'chunk_seq'
p31
(lp32
S'B-NP'
p33
aS'E-NP'
p34
aS'S-PP'
p35
aS'B-NP'
p36
aS'I-NP'
p37
aS'E-NP'
p38
aS'S-PP'
p39
aS'S-NP'
p40
aS'O'
aS'O'
aS'O'
aS'O'
asS'dep_seq'
p41
(lp42
(lp43
S'nn'
p44
aS'2'
aS'1'
aa(lp45
S'root'
p46
aS'0'
aS'2'
aa(lp47
S'nn'
p48
aS'6'
aS'4'
aa(lp49
S'amod'
p50
aS'6'
aS'5'
aa(lp51
S'prep_to'
p52
aS'2'
aS'6'
aa(lp53
S'prep_to'
p54
aS'2'
aS'8'
aa(lp55
S'nn'
p56
aS'12'
p57
aS'9'
aa(lp58
S'nn'
p59
aS'12'
p60
aS'10'
p61
aa(lp62
S'nn'
p63
aS'12'
p64
aS'11'
p65
aa(lp66
S'dep'
p67
aS'2'
aS'12'
p68
aasS'srls'
p69
(lp70
sS'pos_seq'
p71
(lp72
S'NN'
p73
aS'NN'
p74
aS'TO'
p75
aS'NNP'
p76
aS'JJ'
p77
aS'NN'
p78
aS'TO'
p79
aS'NNP'
p80
aS'FW'
p81
aS'FW'
p82
aS'FW'
p83
aS'FW'
p84
asS'ner_seq'
p85
(lp86
S'O'
aS'O'
aS'O'
aS'S-LOC'
p87
aS'O'
aS'O'
aS'O'
aS'S-ORG'
p88
aS'O'
aS'O'
aS'O'
aS'O'
assb.