ccopy_reg
_reconstructor
p1
(c__main__
KBproperty
p2
c__builtin__
object
p3
NtRp4
(dp5
S'comment'
p6
S''
sS'domain'
p7
S'Soccer Player '
p8
sS'instances_count'
p9
S'0'
sS'label'
p10
S'youth years'
p11
sS'range'
p12
S'g Year '
p13
sS'prop_uri'
p14
S"'http://dbpedia.org/ontology/youthYears'"
p15
sS'annotations'
p16
(dp17
S'bag_of_words'
p18
(lp19
S'Soccer'
p20
aS'Player'
p21
aS'youth'
p22
aS'years'
p23
aS'g'
aS'Year'
p24
asS'chunk_seq'
p25
(lp26
S'B-NP'
p27
aS'I-NP'
p28
aS'I-NP'
p29
aS'E-NP'
p30
aS'B-NP'
p31
aS'E-NP'
p32
asS'dep_seq'
p33
(lp34
(lp35
S'nn'
p36
aS'4'
aS'1'
aa(lp37
S'nn'
p38
aS'4'
aS'2'
aa(lp39
S'nn'
p40
aS'4'
aS'3'
aa(lp41
S'root'
p42
aS'0'
aS'4'
aa(lp43
S'num'
p44
aS'6'
aS'5'
aa(lp45
S'dep'
p46
aS'4'
aS'6'
aasS'srls'
p47
(lp48
sS'pos_seq'
p49
(lp50
S'NNP'
p51
aS'NNP'
p52
aS'NN'
p53
aS'NNS'
p54
aS'CD'
p55
aS'NN'
p56
asS'ner_seq'
p57
(lp58
S'O'
aS'O'
aS'O'
aS'O'
aS'O'
aS'O'
assb.