ccopy_reg
_reconstructor
p1
(c__main__
KBproperty
p2
c__builtin__
object
p3
NtRp4
(dp5
S'comment'
p6
S'True if the station is handicapped accessible.'
p7
sS'domain'
p8
S'Station '
p9
sS'instances_count'
p10
S'4314'
p11
sS'label'
p12
S'is handicapped accessible'
p13
sS'range'
p14
S'boolean '
p15
sS'prop_uri'
p16
S"'http://dbpedia.org/ontology/isHandicappedAccessible'"
p17
sS'annotations'
p18
(dp19
S'bag_of_words'
p20
(lp21
S'Station'
p22
aS'is'
p23
aS'handicapped'
p24
aS'accessible'
p25
aS'boolean'
p26
aS'True'
p27
aS'if'
p28
aS'the'
p29
aS'station'
p30
aS'is'
p31
aS'handicapped'
p32
aS'accessible'
p33
aS'.'
asS'chunk_seq'
p34
(lp35
S'S-NP'
p36
aS'B-VP'
p37
aS'E-VP'
p38
aS'B-ADJP'
p39
aS'I-ADJP'
p40
aS'E-ADJP'
p41
aS'S-SBAR'
p42
aS'B-NP'
p43
aS'E-NP'
p44
aS'S-VP'
p45
aS'B-ADJP'
p46
aS'E-ADJP'
p47
aS'O'
asS'dep_seq'
p48
(lp49
(lp50
S'nsubjpass'
p51
aS'3'
aS'1'
aa(lp52
S'auxpass'
p53
aS'3'
aS'2'
aa(lp54
S'root'
p55
aS'0'
aS'3'
aa(lp56
S'amod'
p57
aS'6'
aS'4'
aa(lp58
S'amod'
p59
aS'6'
aS'5'
aa(lp60
S'acomp'
p61
aS'3'
aS'6'
aa(lp62
S'mark'
p63
aS'11'
p64
aS'7'
aa(lp65
S'det'
p66
aS'9'
aS'8'
aa(lp67
S'nsubjpass'
p68
aS'11'
p69
aS'9'
aa(lp70
S'auxpass'
p71
aS'11'
p72
aS'10'
p73
aa(lp74
S'advcl'
p75
aS'3'
aS'11'
p76
aa(lp77
S'acomp'
p78
aS'11'
p79
aS'12'
p80
aasS'srls'
p81
(lp82
sS'pos_seq'
p83
(lp84
S'NN'
p85
aS'VBZ'
p86
aS'VBN'
p87
aS'JJ'
p88
aS'JJ'
p89
aS'JJ'
p90
aS'IN'
p91
aS'DT'
p92
aS'NN'
p93
aS'VBZ'
p94
aS'VBN'
p95
aS'JJ'
p96
aS'.'
asS'ner_seq'
p97
(lp98
S'O'
aS'O'
aS'O'
aS'O'
aS'O'
aS'O'
aS'O'
aS'O'
aS'O'
aS'O'
aS'O'
aS'O'
aS'O'
assb.