ccopy_reg
_reconstructor
p1
(c__main__
KBproperty
p2
c__builtin__
object
p3
NtRp4
(dp5
S'comment'
p6
S'number of breaks with 100 points and more'
p7
sS'domain'
p8
S'Snooker Player '
p9
sS'instances_count'
p10
S'356'
p11
sS'label'
p12
S'century breaks'
p13
sS'range'
p14
S'integer '
p15
sS'prop_uri'
p16
S"'http://dbpedia.org/ontology/centuryBreaks'"
p17
sS'annotations'
p18
(dp19
S'bag_of_words'
p20
(lp21
S'Snooker'
p22
aS'Player'
p23
aS'century'
p24
aS'breaks'
p25
aS'integer'
p26
aS'number'
p27
aS'of'
p28
aS'breaks'
p29
aS'with'
p30
aS'100'
p31
aS'points'
p32
aS'and'
p33
aS'more'
p34
asS'chunk_seq'
p35
(lp36
S'B-NP'
p37
aS'I-NP'
p38
aS'E-NP'
p39
aS'S-VP'
p40
aS'B-NP'
p41
aS'E-NP'
p42
aS'S-PP'
p43
aS'S-NP'
p44
aS'S-PP'
p45
aS'B-NP'
p46
aS'I-NP'
p47
aS'I-NP'
p48
aS'E-NP'
p49
asS'dep_seq'
p50
(lp51
(lp52
S'nn'
p53
aS'3'
aS'1'
aa(lp54
S'nn'
p55
aS'3'
aS'2'
aa(lp56
S'nsubj'
p57
aS'4'
aS'3'
aa(lp58
S'root'
p59
aS'0'
aS'4'
aa(lp60
S'amod'
p61
aS'6'
aS'5'
aa(lp62
S'dobj'
p63
aS'4'
aS'6'
aa(lp64
S'prep_of'
p65
aS'6'
aS'8'
aa(lp66
S'num'
p67
aS'11'
p68
aS'10'
p69
aa(lp70
S'prep_with'
p71
aS'8'
aS'11'
p72
aa(lp73
S'conj_and'
p74
aS'11'
p75
aS'13'
p76
aasS'srls'
p77
(lp78
(dp79
S'A1'
p80
S'integer number of breaks'
p81
sS'A0'
p82
S'Snooker Player century'
p83
sS'A2'
p84
S'with 100 points and more'
p85
sS'V'
g25
sasS'pos_seq'
p86
(lp87
S'NNP'
p88
aS'NNP'
p89
aS'NN'
p90
aS'VBZ'
p91
aS'JJR'
p92
aS'NN'
p93
aS'IN'
p94
aS'NNS'
p95
aS'IN'
p96
aS'CD'
p97
aS'NNS'
p98
aS'CC'
p99
aS'JJR'
p100
asS'ner_seq'
p101
(lp102
S'O'
aS'O'
aS'O'
aS'O'
aS'O'
aS'O'
aS'O'
aS'O'
aS'O'
aS'O'
aS'O'
aS'O'
aS'O'
assb.