ccopy_reg
_reconstructor
p1
(c__main__
KBproperty
p2
c__builtin__
object
p3
NtRp4
(dp5
S'comment'
p6
S'the start of the gene coordinates'
p7
sS'domain'
p8
S'Gene Location '
p9
sS'instances_count'
p10
S'84'
p11
sS'label'
p12
S'gene location start'
p13
sS'range'
p14
S'integer '
p15
sS'prop_uri'
p16
S"'http://dbpedia.org/ontology/geneLocationStart'"
p17
sS'annotations'
p18
(dp19
S'bag_of_words'
p20
(lp21
S'Gene'
p22
aS'Location'
p23
aS'gene'
p24
aS'location'
p25
aS'start'
p26
aS'integer'
p27
aS'the'
p28
aS'start'
p29
aS'of'
p30
aS'the'
p31
aS'gene'
p32
aS'coordinates'
p33
asS'chunk_seq'
p34
(lp35
S'B-NP'
p36
aS'I-NP'
p37
aS'I-NP'
p38
aS'E-NP'
p39
aS'S-VP'
p40
aS'S-NP'
p41
aS'B-NP'
p42
aS'E-NP'
p43
aS'S-PP'
p44
aS'B-NP'
p45
aS'E-NP'
p46
aS'S-VP'
p47
asS'dep_seq'
p48
(lp49
(lp50
S'nn'
p51
aS'4'
aS'1'
aa(lp52
S'nn'
p53
aS'4'
aS'2'
aa(lp54
S'nn'
p55
aS'4'
aS'3'
aa(lp56
S'nsubj'
p57
aS'5'
aS'4'
aa(lp58
S'root'
p59
aS'0'
aS'5'
aa(lp60
S'dobj'
p61
aS'5'
aS'6'
aa(lp62
S'dobj'
p63
aS'12'
p64
aS'6'
aa(lp65
S'det'
p66
aS'8'
aS'7'
aa(lp67
S'nsubj'
p68
aS'12'
p69
aS'8'
aa(lp70
S'det'
p71
aS'11'
p72
aS'10'
p73
aa(lp74
S'prep_of'
p75
aS'8'
aS'11'
p76
aa(lp77
S'rcmod'
p78
aS'6'
aS'12'
p79
aasS'srls'
p80
(lp81
(dp82
S'A1'
p83
S'integer the start of the gene'
p84
sS'A0'
p85
S'Gene Location gene location'
p86
sS'V'
g26
sa(dp87
S'A1'
p88
S'integer the start of the gene'
p89
sS'V'
g33
sasS'pos_seq'
p90
(lp91
S'NNP'
p92
aS'NNP'
p93
aS'NN'
p94
aS'NN'
p95
aS'VBP'
p96
aS'NN'
p97
aS'DT'
p98
aS'NN'
p99
aS'IN'
p100
aS'DT'
p101
aS'NN'
p102
aS'VBZ'
p103
asS'ner_seq'
p104
(lp105
S'O'
aS'O'
aS'O'
aS'O'
aS'O'
aS'O'
aS'O'
aS'O'
aS'O'
aS'O'
aS'O'
aS'O'
assb.