ccopy_reg
_reconstructor
p1
(c__main__
KBproperty
p2
c__builtin__
object
p3
NtRp4
(dp5
S'comment'
p6
S'Date of the first publication.'
p7
sS'domain'
p8
S'Written Work '
p9
sS'instances_count'
p10
S'2030'
p11
sS'label'
p12
S'first publication date'
p13
sS'range'
p14
S'date '
p15
sS'prop_uri'
p16
S"'http://dbpedia.org/ontology/firstPublicationDate'"
p17
sS'annotations'
p18
(dp19
S'bag_of_words'
p20
(lp21
S'Written'
p22
aS'Work'
p23
aS'first'
p24
aS'publication'
p25
aS'date'
p26
aS'date'
p27
aS'Date'
p28
aS'of'
p29
aS'the'
p30
aS'first'
p31
aS'publication'
p32
aS'.'
asS'chunk_seq'
p33
(lp34
S'B-NP'
p35
aS'I-NP'
p36
aS'I-NP'
p37
aS'I-NP'
p38
aS'E-NP'
p39
aS'B-NP'
p40
aS'E-NP'
p41
aS'S-PP'
p42
aS'B-NP'
p43
aS'I-NP'
p44
aS'E-NP'
p45
aS'O'
asS'dep_seq'
p46
(lp47
(lp48
S'nn'
p49
aS'7'
aS'1'
aa(lp50
S'nn'
p51
aS'7'
aS'2'
aa(lp52
S'amod'
p53
aS'7'
aS'3'
aa(lp54
S'nn'
p55
aS'7'
aS'4'
aa(lp56
S'nn'
p57
aS'7'
aS'5'
aa(lp58
S'nn'
p59
aS'7'
aS'6'
aa(lp60
S'root'
p61
aS'0'
aS'7'
aa(lp62
S'det'
p63
aS'11'
p64
aS'9'
aa(lp65
S'amod'
p66
aS'11'
p67
aS'10'
p68
aa(lp69
S'prep_of'
p70
aS'7'
aS'11'
p71
aasS'srls'
p72
(lp73
sS'pos_seq'
p74
(lp75
S'NNP'
p76
aS'NNP'
p77
aS'JJ'
p78
aS'NN'
p79
aS'NN'
p80
aS'NN'
p81
aS'NN'
p82
aS'IN'
p83
aS'DT'
p84
aS'JJ'
p85
aS'NN'
p86
aS'.'
asS'ner_seq'
p87
(lp88
S'O'
aS'O'
aS'O'
aS'O'
aS'O'
aS'O'
aS'O'
aS'O'
aS'O'
aS'O'
aS'O'
aS'O'
assb.