ccopy_reg
_reconstructor
p1
(c__main__
KBproperty
p2
c__builtin__
object
p3
NtRp4
(dp5
S'comment'
p6
S''
sS'domain'
p7
S''
sS'instances_count'
p8
S'133'
p9
sS'label'
p10
S'area metro sq mi'
p11
sS'range'
p12
S''
sS'prop_uri'
p13
S"'http://dbpedia.org/property/areaMetroSqMi'"
p14
sS'annotations'
p15
(dp16
S'bag_of_words'
p17
(lp18
S'area'
p19
aS'metro'
p20
aS'sq'
p21
aS'mi'
p22
asS'chunk_seq'
p23
(lp24
S'B-NP'
p25
aS'E-NP'
p26
aS'O'
aS'O'
asS'dep_seq'
p27
(lp28
(lp29
S'nn'
p30
aS'2'
aS'1'
aa(lp31
S'root'
p32
aS'0'
aS'2'
aa(lp33
S'dep'
p34
aS'2'
aS'3'
aa(lp35
S'punct'
p36
aS'3'
aS'4'
aasS'srls'
p37
(lp38
sS'pos_seq'
p39
(lp40
S'NN'
p41
aS'NN'
p42
aS'CD'
p43
aS'.'
asS'ner_seq'
p44
(lp45
S'O'
aS'O'
aS'O'
aS'O'
assb.