ccopy_reg
_reconstructor
p1
(c__main__
KBproperty
p2
c__builtin__
object
p3
NtRp4
(dp5
S'comment'
p6
S''
sS'domain'
p7
S''
sS'instances_count'
p8
S'786'
p9
sS'label'
p10
S'specialist'
p11
sS'range'
p12
S''
sS'prop_uri'
p13
S"'http://dbpedia.org/property/specialist'"
p14
sS'annotations'
p15
(dp16
S'bag_of_words'
p17
(lp18
S'specialist'
p19
asS'chunk_seq'
p20
(lp21
S'O'
asS'dep_seq'
p22
(lp23
(lp24
S'root'
p25
aS'0'
aS'1'
aasS'srls'
p26
(lp27
sS'pos_seq'
p28
(lp29
S'NN'
p30
asS'ner_seq'
p31
(lp32
S'O'
assb.