ccopy_reg
_reconstructor
p1
(c__main__
KBproperty
p2
c__builtin__
object
p3
NtRp4
(dp5
S'comment'
p6
S'the Alps main part to which the mountain belongs according to the SOIUSA classification'
p7
sS'domain'
p8
S'Mountain '
p9
sS'instances_count'
p10
S'0'
sS'label'
p11
S'Alps main part'
p12
sS'range'
p13
S'Mountain Range '
p14
sS'prop_uri'
p15
S"'http://dbpedia.org/ontology/alpsMainPart'"
p16
sS'annotations'
p17
(dp18
S'bag_of_words'
p19
(lp20
S'Mountain'
p21
aS'Alps'
p22
aS'main'
p23
aS'part'
p24
aS'Mountain'
p25
aS'Range'
p26
aS'the'
p27
aS'Alps'
p28
aS'main'
p29
aS'part'
p30
aS'to'
p31
aS'which'
p32
aS'the'
p33
aS'mountain'
p34
aS'belongs'
p35
aS'according'
p36
aS'to'
p37
aS'the'
p38
aS'SOIUSA'
p39
aS'classification'
p40
asS'chunk_seq'
p41
(lp42
S'B-NP'
p43
aS'I-NP'
p44
aS'I-NP'
p45
aS'I-NP'
p46
aS'I-NP'
p47
aS'E-NP'
p48
aS'B-NP'
p49
aS'I-NP'
p50
aS'I-NP'
p51
aS'E-NP'
p52
aS'S-PP'
p53
aS'S-NP'
p54
aS'B-NP'
p55
aS'E-NP'
p56
aS'S-VP'
p57
aS'S-PP'
p58
aS'S-PP'
p59
aS'B-NP'
p60
aS'I-NP'
p61
aS'E-NP'
p62
asS'dep_seq'
p63
(lp64
(lp65
S'nn'
p66
aS'6'
aS'1'
aa(lp67
S'nn'
p68
aS'6'
aS'2'
aa(lp69
S'amod'
p70
aS'6'
aS'3'
aa(lp71
S'nn'
p72
aS'6'
aS'4'
aa(lp73
S'nn'
p74
aS'6'
aS'5'
aa(lp75
S'dep'
p76
aS'10'
p77
aS'6'
aa(lp78
S'det'
p79
aS'10'
p80
aS'7'
aa(lp81
S'nn'
p82
aS'10'
p83
aS'8'
aa(lp84
S'amod'
p85
aS'10'
p86
aS'9'
aa(lp87
S'root'
p88
aS'0'
aS'10'
p89
aa(lp90
S'prep_to'
p91
aS'15'
p92
aS'10'
p93
aa(lp94
S'rel'
p95
aS'15'
p96
aS'11'
p97
aa(lp98
S'det'
p99
aS'14'
p100
aS'13'
p101
aa(lp102
S'nsubj'
p103
aS'15'
p104
aS'14'
p105
aa(lp106
S'rcmod'
p107
aS'10'
p108
aS'15'
p109
aa(lp110
S'prepc_according_to'
p111
aS'15'
p112
aS'17'
p113
aa(lp114
S'det'
p115
aS'20'
p116
aS'18'
p117
aa(lp118
S'nn'
p119
aS'20'
p120
aS'19'
p121
aa(lp122
S'pobj'
p123
aS'15'
p124
aS'20'
p125
aasS'srls'
p126
(lp127
(dp128
S'A0'
p129
S'the mountain'
p130
sS'AM-MNR'
p131
S'according to the SOIUSA classification'
p132
sS'V'
g35
sasS'pos_seq'
p133
(lp134
S'NNP'
p135
aS'NNP'
p136
aS'JJ'
p137
aS'NN'
p138
aS'NNP'
p139
aS'NNP'
p140
aS'DT'
p141
aS'NNPS'
p142
aS'JJ'
p143
aS'NN'
p144
aS'TO'
p145
aS'WDT'
p146
aS'DT'
p147
aS'NN'
p148
aS'VBZ'
p149
aS'VBG'
p150
aS'TO'
p151
aS'DT'
p152
aS'NNP'
p153
aS'NN'
p154
asS'ner_seq'
p155
(lp156
S'B-LOC'
p157
aS'E-LOC'
p158
aS'O'
aS'O'
aS'B-LOC'
p159
aS'E-LOC'
p160
aS'O'
aS'S-LOC'
p161
aS'O'
aS'O'
aS'O'
aS'O'
aS'O'
aS'O'
aS'O'
aS'O'
aS'O'
aS'O'
aS'S-ORG'
p162
aS'O'
assb.