ccopy_reg
_reconstructor
p1
(c__main__
KBproperty
p2
c__builtin__
object
p3
NtRp4
(dp5
S'comment'
p6
S'date when the island has been discovered'
p7
sS'domain'
p8
S'Island '
p9
sS'instances_count'
p10
S'0'
sS'label'
p11
g7
sS'range'
p12
S'string '
p13
sS'prop_uri'
p14
S"'http://dbpedia.org/ontology/discovery'"
p15
sS'annotations'
p16
(dp17
S'bag_of_words'
p18
(lp19
S'Island'
p20
aS'discovery'
p21
aS'string'
p22
aS'date'
p23
aS'when'
p24
aS'the'
p25
aS'island'
p26
aS'has'
p27
aS'been'
p28
aS'discovered'
p29
asS'chunk_seq'
p30
(lp31
S'B-NP'
p32
aS'I-NP'
p33
aS'I-NP'
p34
aS'E-NP'
p35
aS'S-ADVP'
p36
aS'B-NP'
p37
aS'E-NP'
p38
aS'B-VP'
p39
aS'I-VP'
p40
aS'E-VP'
p41
asS'dep_seq'
p42
(lp43
(lp44
S'nn'
p45
aS'4'
aS'1'
aa(lp46
S'nn'
p47
aS'4'
aS'2'
aa(lp48
S'nn'
p49
aS'4'
aS'3'
aa(lp50
S'root'
p51
aS'0'
aS'4'
aa(lp52
S'tmod'
p53
aS'10'
p54
aS'4'
aa(lp55
S'advmod'
p56
aS'10'
p57
aS'5'
aa(lp58
S'det'
p59
aS'7'
aS'6'
aa(lp60
S'nsubjpass'
p61
aS'10'
p62
aS'7'
aa(lp63
S'aux'
p64
aS'10'
p65
aS'8'
aa(lp66
S'auxpass'
p67
aS'10'
p68
aS'9'
aa(lp69
S'rcmod'
p70
aS'4'
aS'10'
p71
aasS'srls'
p72
(lp73
sS'pos_seq'
p74
(lp75
S'NN'
p76
aS'NN'
p77
aS'NN'
p78
aS'NN'
p79
aS'WRB'
p80
aS'DT'
p81
aS'NN'
p82
aS'VBZ'
p83
aS'VBN'
p84
aS'VBN'
p85
asS'ner_seq'
p86
(lp87
S'O'
aS'O'
aS'O'
aS'O'
aS'O'
aS'O'
aS'O'
aS'O'
aS'O'
aS'O'
assb.