ccopy_reg
_reconstructor
p1
(c__main__
KBproperty
p2
c__builtin__
object
p3
NtRp4
(dp5
S'comment'
p6
S''
sS'domain'
p7
S'Work '
p8
sS'instances_count'
p9
S'261729'
p10
sS'label'
p11
S'runtime s'
p12
sS'range'
p13
S'double '
p14
sS'prop_uri'
p15
S"'http://dbpedia.org/ontology/runtime'"
p16
sS'annotations'
p17
(dp18
S'bag_of_words'
p19
(lp20
S'Work'
p21
aS'runtime'
p22
aS's'
aS'double'
p23
asS'chunk_seq'
p24
(lp25
S'S-NP'
p26
aS'S-VP'
p27
aS'B-ADVP'
p28
aS'E-ADVP'
p29
asS'dep_seq'
p30
(lp31
(lp32
S'nn'
p33
aS'2'
aS'1'
aa(lp34
S'nsubj'
p35
aS'3'
aS'2'
aa(lp36
S'root'
p37
aS'0'
aS'3'
aa(lp38
S'advmod'
p39
aS'3'
aS'4'
aasS'srls'
p40
(lp41
sS'pos_seq'
p42
(lp43
S'NN'
p44
aS'NN'
p45
aS'MD'
p46
aS'RB'
p47
asS'ner_seq'
p48
(lp49
S'O'
aS'O'
aS'O'
aS'O'
assb.