ccopy_reg
_reconstructor
p1
(c__main__
KBproperty
p2
c__builtin__
object
p3
NtRp4
(dp5
S'comment'
p6
S'height \\xce\\xbc'
p7
sS'domain'
p8
S''
sS'instances_count'
p9
S'189379'
p10
sS'label'
p11
g7
sS'range'
p12
S'double '
p13
sS'prop_uri'
p14
S"'http://dbpedia.org/ontology/height'"
p15
sS'annotations'
p16
(dp17
S'bag_of_words'
p18
(lp19
S'height'
p20
aS'double'
p21
aS'height'
p22
aS'\\'
aS'xce'
p23
aS'\\'
aS'xbc'
p24
asS'chunk_seq'
p25
(lp26
S'B-NP'
p27
aS'I-NP'
p28
aS'E-NP'
p29
aS'O'
aS'O'
aS'O'
aS'O'
asS'dep_seq'
p30
(lp31
(lp32
S'root'
p33
aS'0'
aS'1'
aa(lp34
S'amod'
p35
aS'3'
aS'2'
aa(lp36
S'dep'
p37
aS'1'
aS'3'
aa(lp38
S'dep'
p39
aS'3'
aS'4'
aa(lp40
S'discourse'
p41
aS'3'
aS'5'
aa(lp42
S'dep'
p43
aS'5'
aS'6'
aa(lp44
S'dep'
p45
aS'5'
aS'7'
aasS'srls'
p46
(lp47
sS'pos_seq'
p48
(lp49
S'NN'
p50
aS'JJ'
p51
aS'NN'
p52
aS'FW'
p53
aS'FW'
p54
aS'FW'
p55
aS'FW'
p56
asS'ner_seq'
p57
(lp58
S'O'
aS'O'
aS'O'
aS'O'
aS'O'
aS'O'
aS'O'
assb.