ccopy_reg
_reconstructor
p1
(c__main__
KBproperty
p2
c__builtin__
object
p3
NtRp4
(dp5
S'comment'
p6
S''
sS'domain'
p7
S'Tennis Player '
p8
sS'instances_count'
p9
S'0'
sS'label'
p10
S'racket catching'
p11
sS'range'
p12
S'string '
p13
sS'prop_uri'
p14
S"'http://dbpedia.org/ontology/racketCatching'"
p15
sS'annotations'
p16
(dp17
S'bag_of_words'
p18
(lp19
S'Tennis'
p20
aS'Player'
p21
aS'racket'
p22
aS'catching'
p23
aS'string'
p24
asS'chunk_seq'
p25
(lp26
S'B-NP'
p27
aS'I-NP'
p28
aS'E-NP'
p29
aS'S-VP'
p30
aS'S-NP'
p31
asS'dep_seq'
p32
(lp33
(lp34
S'nn'
p35
aS'3'
aS'1'
aa(lp36
S'nn'
p37
aS'3'
aS'2'
aa(lp38
S'nsubj'
p39
aS'4'
aS'3'
aa(lp40
S'root'
p41
aS'0'
aS'4'
aa(lp42
S'dobj'
p43
aS'4'
aS'5'
aasS'srls'
p44
(lp45
(dp46
S'A0'
p47
S'Tennis Player racket'
p48
sS'A2'
p49
g24
sS'V'
g23
sasS'pos_seq'
p50
(lp51
S'NNP'
p52
aS'NNP'
p53
aS'NN'
p54
aS'VBG'
p55
aS'NN'
p56
asS'ner_seq'
p57
(lp58
S'O'
aS'O'
aS'O'
aS'O'
aS'O'
assb.