ccopy_reg
_reconstructor
p1
(c__main__
KBproperty
p2
c__builtin__
object
p3
NtRp4
(dp5
S'comment'
p6
S'Compare with bishopric'
p7
sS'domain'
p8
S'Religious Building '
p9
sS'instances_count'
p10
S'0'
sS'label'
p11
S'eparchy'
p12
sS'range'
p13
S''
sS'prop_uri'
p14
S"'http://dbpedia.org/ontology/eparchy'"
p15
sS'annotations'
p16
(dp17
S'bag_of_words'
p18
(lp19
S'Religious'
p20
aS'Building'
p21
aS'eparchy'
p22
aS'Compare'
p23
aS'with'
p24
aS'bishopric'
p25
asS'chunk_seq'
p26
(lp27
S'B-NP'
p28
aS'I-NP'
p29
aS'I-NP'
p30
aS'E-NP'
p31
aS'S-PP'
p32
aS'S-NP'
p33
asS'dep_seq'
p34
(lp35
(lp36
S'nn'
p37
aS'3'
aS'1'
aa(lp38
S'nn'
p39
aS'3'
aS'2'
aa(lp40
S'nsubj'
p41
aS'4'
aS'3'
aa(lp42
S'root'
p43
aS'0'
aS'4'
aa(lp44
S'prep_with'
p45
aS'4'
aS'6'
aasS'srls'
p46
(lp47
sS'pos_seq'
p48
(lp49
S'NNP'
p50
aS'NNP'
p51
aS'NN'
p52
aS'NNP'
p53
aS'IN'
p54
aS'NN'
p55
asS'ner_seq'
p56
(lp57
S'O'
aS'O'
aS'O'
aS'O'
aS'O'
aS'O'
assb.