ccopy_reg
_reconstructor
p1
(c__main__
KBproperty
p2
c__builtin__
object
p3
NtRp4
(dp5
S'comment'
p6
S'course \\xce\\xbc'
p7
sS'domain'
p8
S'Grand Prix '
p9
sS'instances_count'
p10
S'2635'
p11
sS'label'
p12
g7
sS'range'
p13
S'double '
p14
sS'prop_uri'
p15
S"'http://dbpedia.org/ontology/course'"
p16
sS'annotations'
p17
(dp18
S'bag_of_words'
p19
(lp20
S'Grand'
p21
aS'Prix'
p22
aS'course'
p23
aS'double'
p24
aS'course'
p25
aS'\\'
aS'xce'
p26
aS'\\'
aS'xbc'
p27
asS'chunk_seq'
p28
(lp29
S'B-NP'
p30
aS'I-NP'
p31
aS'E-NP'
p32
aS'B-NP'
p33
aS'E-NP'
p34
aS'O'
aS'O'
aS'O'
aS'O'
asS'dep_seq'
p35
(lp36
(lp37
S'nn'
p38
aS'3'
aS'1'
aa(lp39
S'nn'
p40
aS'3'
aS'2'
aa(lp41
S'dep'
p42
aS'5'
aS'3'
aa(lp43
S'amod'
p44
aS'5'
aS'4'
aa(lp45
S'root'
p46
aS'0'
aS'5'
aa(lp47
S'dep'
p48
aS'5'
aS'6'
aa(lp49
S'discourse'
p50
aS'5'
aS'7'
aa(lp51
S'dep'
p52
aS'7'
aS'8'
aa(lp53
S'dep'
p54
aS'7'
aS'9'
aasS'srls'
p55
(lp56
sS'pos_seq'
p57
(lp58
S'NNP'
p59
aS'NNP'
p60
aS'NN'
p61
aS'JJ'
p62
aS'NN'
p63
aS'FW'
p64
aS'FW'
p65
aS'FW'
p66
aS'FW'
p67
asS'ner_seq'
p68
(lp69
S'B-MISC'
p70
aS'E-MISC'
p71
aS'O'
aS'O'
aS'O'
aS'O'
aS'O'
aS'O'
aS'O'
assb.