ccopy_reg
_reconstructor
p1
(c__main__
KBproperty
p2
c__builtin__
object
p3
NtRp4
(dp5
S'comment'
p6
S''
sS'domain'
p7
S'Athlete '
p8
sS'instances_count'
p9
S'0'
sS'label'
p10
S'height against'
p11
sS'range'
p12
S'string '
p13
sS'prop_uri'
p14
S"'http://dbpedia.org/ontology/heightAgainst'"
p15
sS'annotations'
p16
(dp17
S'bag_of_words'
p18
(lp19
S'Athlete'
p20
aS'height'
p21
aS'against'
p22
aS'string'
p23
asS'chunk_seq'
p24
(lp25
S'B-NP'
p26
aS'E-NP'
p27
aS'S-PP'
p28
aS'S-NP'
p29
asS'dep_seq'
p30
(lp31
(lp32
S'nn'
p33
aS'2'
aS'1'
aa(lp34
S'root'
p35
aS'0'
aS'2'
aa(lp36
S'prep_against'
p37
aS'2'
aS'4'
aasS'srls'
p38
(lp39
sS'pos_seq'
p40
(lp41
S'NN'
p42
aS'NN'
p43
aS'IN'
p44
aS'NN'
p45
asS'ner_seq'
p46
(lp47
S'O'
aS'O'
aS'O'
aS'O'
assb.