ccopy_reg
_reconstructor
p1
(c__main__
KBproperty
p2
c__builtin__
object
p3
NtRp4
(dp5
S'comment'
p6
S''
sS'domain'
p7
S'Building '
p8
sS'instances_count'
p9
S'6083'
p10
sS'label'
p11
S'floor count'
p12
sS'range'
p13
S'positive Integer '
p14
sS'prop_uri'
p15
S"'http://dbpedia.org/ontology/floorCount'"
p16
sS'annotations'
p17
(dp18
S'bag_of_words'
p19
(lp20
S'Building'
p21
aS'floor'
p22
aS'count'
p23
aS'positive'
p24
aS'Integer'
p25
asS'chunk_seq'
p26
(lp27
S'B-NP'
p28
aS'E-NP'
p29
aS'S-VP'
p30
aS'B-NP'
p31
aS'E-NP'
p32
asS'dep_seq'
p33
(lp34
(lp35
S'amod'
p36
aS'2'
aS'1'
aa(lp37
S'nsubj'
p38
aS'3'
aS'2'
aa(lp39
S'root'
p40
aS'0'
aS'3'
aa(lp41
S'amod'
p42
aS'5'
aS'4'
aa(lp43
S'dobj'
p44
aS'3'
aS'5'
aasS'srls'
p45
(lp46
(dp47
S'A1'
p48
S'floor count positive Integer'
p49
sS'V'
g21
sa(dp50
S'A1'
p51
S'positive Integer'
p52
sS'A0'
p53
S'Building floor'
p54
sS'V'
g23
sasS'pos_seq'
p55
(lp56
S'VBG'
p57
aS'NN'
p58
aS'VBP'
p59
aS'JJ'
p60
aS'NNP'
p61
asS'ner_seq'
p62
(lp63
S'O'
aS'O'
aS'O'
aS'O'
aS'O'
assb.