ccopy_reg
_reconstructor
p1
(c__main__
KBproperty
p2
c__builtin__
object
p3
NtRp4
(dp5
S'comment'
p6
S''
sS'domain'
p7
S'Site Of Special Scientific Interest '
p8
sS'instances_count'
p9
S'0'
sS'label'
p10
S'notify date'
p11
sS'range'
p12
S'date '
p13
sS'prop_uri'
p14
S"'http://dbpedia.org/ontology/notifyDate'"
p15
sS'annotations'
p16
(dp17
S'bag_of_words'
p18
(lp19
S'Site'
p20
aS'Of'
p21
aS'Special'
p22
aS'Scientific'
p23
aS'Interest'
p24
aS'notify'
p25
aS'date'
p26
aS'date'
p27
asS'chunk_seq'
p28
(lp29
S'S-NP'
p30
aS'S-PP'
p31
aS'B-NP'
p32
aS'I-NP'
p33
aS'E-NP'
p34
aS'S-VP'
p35
aS'B-NP'
p36
aS'E-NP'
p37
asS'dep_seq'
p38
(lp39
(lp40
S'nsubj'
p41
aS'6'
aS'1'
aa(lp42
S'nn'
p43
aS'5'
aS'3'
aa(lp44
S'nn'
p45
aS'5'
aS'4'
aa(lp46
S'prep_of'
p47
aS'1'
aS'5'
aa(lp48
S'root'
p49
aS'0'
aS'6'
aa(lp50
S'nn'
p51
aS'8'
aS'7'
aa(lp52
S'dobj'
p53
aS'6'
aS'8'
aasS'srls'
p54
(lp55
(dp56
S'A0'
p57
S'Site Of Special Scientific Interest'
p58
sS'AM-TMP'
p59
S'date date'
p60
sS'V'
g25
sasS'pos_seq'
p61
(lp62
S'NN'
p63
aS'IN'
p64
aS'NNP'
p65
aS'NNP'
p66
aS'NNP'
p67
aS'VBP'
p68
aS'NN'
p69
aS'NN'
p70
asS'ner_seq'
p71
(lp72
S'O'
aS'O'
aS'O'
aS'O'
aS'O'
aS'O'
aS'O'
aS'O'
assb.