ccopy_reg
_reconstructor
p1
(c__main__
KBproperty
p2
c__builtin__
object
p3
NtRp4
(dp5
S'comment'
p6
S'Needs to be removed left at the moment to not break DBpedia Live'
p7
sS'domain'
p8
S''
sS'instances_count'
p9
S'0'
sS'label'
p10
S'Character size of wiki page'
p11
sS'range'
p12
S'non Negative Integer '
p13
sS'prop_uri'
p14
S"'http://dbpedia.org/ontology/wikiPageCharacterSize'"
p15
sS'annotations'
p16
(dp17
S'bag_of_words'
p18
(lp19
S'Character'
p20
aS'size'
p21
aS'of'
p22
aS'wiki'
p23
aS'page'
p24
aS'non'
p25
aS'Negative'
p26
aS'Integer'
p27
aS'Needs'
p28
aS'to'
p29
aS'be'
p30
aS'removed'
p31
aS'left'
p32
aS'at'
p33
aS'the'
p34
aS'moment'
p35
aS'to'
p36
aS'not'
p37
aS'break'
p38
aS'DBpedia'
p39
aS'Live'
p40
asS'chunk_seq'
p41
(lp42
S'B-NP'
p43
aS'E-NP'
p44
aS'S-PP'
p45
aS'B-NP'
p46
aS'I-NP'
p47
aS'I-NP'
p48
aS'I-NP'
p49
aS'I-NP'
p50
aS'E-NP'
p51
aS'B-VP'
p52
aS'I-VP'
p53
aS'I-VP'
p54
aS'E-VP'
p55
aS'S-PP'
p56
aS'B-NP'
p57
aS'E-NP'
p58
aS'B-VP'
p59
aS'I-VP'
p60
aS'E-VP'
p61
aS'B-NP'
p62
aS'E-NP'
p63
asS'dep_seq'
p64
(lp65
(lp66
S'nn'
p67
aS'2'
aS'1'
aa(lp68
S'root'
p69
aS'0'
aS'2'
aa(lp70
S'nn'
p71
aS'5'
aS'4'
aa(lp72
S'prep_of'
p73
aS'2'
aS'5'
aa(lp74
S'amod'
p75
aS'9'
aS'6'
aa(lp76
S'nn'
p77
aS'9'
aS'7'
aa(lp78
S'nn'
p79
aS'9'
aS'8'
aa(lp80
S'dep'
p81
aS'2'
aS'9'
aa(lp82
S'aux'
p83
aS'12'
p84
aS'10'
p85
aa(lp86
S'auxpass'
p87
aS'12'
p88
aS'11'
p89
aa(lp90
S'infmod'
p91
aS'9'
aS'12'
p92
aa(lp93
S'dep'
p94
aS'12'
p95
aS'13'
p96
aa(lp97
S'det'
p98
aS'16'
p99
aS'15'
p100
aa(lp101
S'prep_at'
p102
aS'13'
p103
aS'16'
p104
aa(lp105
S'aux'
p106
aS'19'
p107
aS'17'
p108
aa(lp109
S'neg'
p110
aS'19'
p111
aS'18'
p112
aa(lp113
S'xcomp'
p114
aS'13'
p115
aS'19'
p116
aa(lp117
S'nn'
p118
aS'21'
p119
aS'20'
p120
aa(lp121
S'dobj'
p122
aS'19'
p123
aS'21'
p124
aasS'srls'
p125
(lp126
(dp127
S'A1'
p128
S'Character size of wiki page non Negative Integer Needs'
p129
sS'V'
g31
sa(dp130
S'A1'
p131
S'Character size of wiki page non Negative Integer Needs'
p132
sS'AM-TMP'
p133
S'at the moment'
p134
sS'AM-PNC'
p135
S'to not break DBpedia Live'
p136
sS'V'
g32
sa(dp137
S'A1'
p138
S'DBpedia Live'
p139
sS'A0'
p140
S'Character size of wiki page non Negative Integer Needs'
p141
sS'AM-NEG'
p142
g37
sS'V'
g38
sasS'pos_seq'
p143
(lp144
S'NN'
p145
aS'NN'
p146
aS'IN'
p147
aS'NN'
p148
aS'NN'
p149
aS'JJ'
p150
aS'NNP'
p151
aS'NNP'
p152
aS'NNPS'
p153
aS'TO'
p154
aS'VB'
p155
aS'VBN'
p156
aS'VBN'
p157
aS'IN'
p158
aS'DT'
p159
aS'NN'
p160
aS'TO'
p161
aS'RB'
p162
aS'VB'
p163
aS'NNP'
p164
aS'NNP'
p165
asS'ner_seq'
p166
(lp167
S'O'
aS'O'
aS'O'
aS'O'
aS'O'
aS'O'
aS'O'
aS'O'
aS'O'
aS'O'
aS'O'
aS'O'
aS'O'
aS'O'
aS'O'
aS'O'
aS'O'
aS'O'
aS'O'
aS'B-MISC'
p168
aS'E-MISC'
p169
assb.