ccopy_reg
_reconstructor
p1
(c__main__
KBproperty
p2
c__builtin__
object
p3
NtRp4
(dp5
S'comment'
p6
S'university a person goes or went to.'
p7
sS'domain'
p8
S'Person '
p9
sS'instances_count'
p10
S'2612'
p11
sS'label'
p12
S'university'
p13
sS'range'
p14
S'Educational Institution '
p15
sS'prop_uri'
p16
S"'http://dbpedia.org/ontology/university'"
p17
sS'annotations'
p18
(dp19
S'bag_of_words'
p20
(lp21
S'Person'
p22
aS'university'
p23
aS'Educational'
p24
aS'Institution'
p25
aS'university'
p26
aS'a'
aS'person'
p27
aS'goes'
p28
aS'or'
p29
aS'went'
p30
aS'to'
p31
aS'.'
asS'chunk_seq'
p32
(lp33
S'B-NP'
p34
aS'I-NP'
p35
aS'I-NP'
p36
aS'I-NP'
p37
aS'E-NP'
p38
aS'B-NP'
p39
aS'E-NP'
p40
aS'S-VP'
p41
aS'O'
aS'S-VP'
p42
aS'S-PP'
p43
aS'O'
asS'dep_seq'
p44
(lp45
(lp46
S'nn'
p47
aS'5'
aS'1'
aa(lp48
S'nn'
p49
aS'5'
aS'2'
aa(lp50
S'nn'
p51
aS'5'
aS'3'
aa(lp52
S'nn'
p53
aS'5'
aS'4'
aa(lp54
S'root'
p55
aS'0'
aS'5'
aa(lp56
S'dobj'
p57
aS'8'
aS'5'
aa(lp58
S'det'
p59
aS'7'
aS'6'
aa(lp60
S'nsubj'
p61
aS'8'
aS'7'
aa(lp62
S'rcmod'
p63
aS'5'
aS'8'
aa(lp64
S'conj_or'
p65
aS'5'
aS'10'
p66
aa(lp67
S'partmod'
p68
aS'5'
aS'10'
p69
aa(lp70
S'prep'
p71
aS'10'
p72
aS'11'
p73
aasS'srls'
p74
(lp75
(dp76
S'A1'
p77
S'Person university Educational Institution university a person'
p78
sS'V'
g28
sa(dp79
S'A1'
p80
S'Person university Educational Institution university a person'
p81
sS'V'
g30
sasS'pos_seq'
p82
(lp83
S'NN'
p84
aS'NN'
p85
aS'NNP'
p86
aS'NNP'
p87
aS'NN'
p88
aS'DT'
p89
aS'NN'
p90
aS'VBZ'
p91
aS'CC'
p92
aS'VBD'
p93
aS'TO'
p94
aS'.'
asS'ner_seq'
p95
(lp96
S'O'
aS'O'
aS'B-ORG'
p97
aS'E-ORG'
p98
aS'O'
aS'O'
aS'O'
aS'O'
aS'O'
aS'O'
aS'O'
aS'O'
assb.