ccopy_reg
_reconstructor
p1
(c__main__
KBproperty
p2
c__builtin__
object
p3
NtRp4
(dp5
S'comment'
p6
S'page length characters of wiki page'
p7
sS'domain'
p8
S''
sS'instances_count'
p9
S'0'
sS'label'
p10
g7
sS'range'
p11
S'non Negative Integer '
p12
sS'prop_uri'
p13
S"'http://dbpedia.org/ontology/wikiPageLength'"
p14
sS'annotations'
p15
(dp16
S'bag_of_words'
p17
(lp18
S'wiki'
p19
aS'Page'
p20
aS'Length'
p21
aS'non'
p22
aS'Negative'
p23
aS'Integer'
p24
aS'page'
p25
aS'length'
p26
aS'characters'
p27
aS'of'
p28
aS'wiki'
p29
aS'page'
p30
asS'chunk_seq'
p31
(lp32
S'B-NP'
p33
aS'I-NP'
p34
aS'I-NP'
p35
aS'I-NP'
p36
aS'I-NP'
p37
aS'I-NP'
p38
aS'I-NP'
p39
aS'I-NP'
p40
aS'E-NP'
p41
aS'S-PP'
p42
aS'B-NP'
p43
aS'E-NP'
p44
asS'dep_seq'
p45
(lp46
(lp47
S'nn'
p48
aS'9'
aS'1'
aa(lp49
S'nn'
p50
aS'9'
aS'2'
aa(lp51
S'nn'
p52
aS'9'
aS'3'
aa(lp53
S'amod'
p54
aS'9'
aS'4'
aa(lp55
S'amod'
p56
aS'9'
aS'5'
aa(lp57
S'nn'
p58
aS'9'
aS'6'
aa(lp59
S'nn'
p60
aS'9'
aS'7'
aa(lp61
S'nn'
p62
aS'9'
aS'8'
aa(lp63
S'root'
p64
aS'0'
aS'9'
aa(lp65
S'nn'
p66
aS'12'
p67
aS'11'
p68
aa(lp69
S'prep_of'
p70
aS'9'
aS'12'
p71
aasS'srls'
p72
(lp73
sS'pos_seq'
p74
(lp75
S'NN'
p76
aS'NNP'
p77
aS'NNP'
p78
aS'JJ'
p79
aS'JJ'
p80
aS'NN'
p81
aS'NN'
p82
aS'NN'
p83
aS'NNS'
p84
aS'IN'
p85
aS'NN'
p86
aS'NN'
p87
asS'ner_seq'
p88
(lp89
S'O'
aS'O'
aS'O'
aS'O'
aS'O'
aS'O'
aS'O'
aS'O'
aS'O'
aS'O'
aS'O'
aS'O'
assb.