ccopy_reg
_reconstructor
p1
(c__main__
KBproperty
p2
c__builtin__
object
p3
NtRp4
(dp5
S'comment'
p6
S'The country where the thing is located.'
p7
sS'domain'
p8
S''
sS'instances_count'
p9
S'761652'
p10
sS'label'
p11
S'country'
p12
sS'range'
p13
S'Country '
p14
sS'prop_uri'
p15
S"'http://dbpedia.org/ontology/country'"
p16
sS'annotations'
p17
(dp18
S'bag_of_words'
p19
(lp20
S'country'
p21
aS'Country'
p22
aS'The'
p23
aS'country'
p24
aS'where'
p25
aS'the'
p26
aS'thing'
p27
aS'is'
p28
aS'located'
p29
aS'.'
asS'chunk_seq'
p30
(lp31
S'B-NP'
p32
aS'E-NP'
p33
aS'B-NP'
p34
aS'E-NP'
p35
aS'S-ADVP'
p36
aS'B-NP'
p37
aS'E-NP'
p38
aS'B-VP'
p39
aS'E-VP'
p40
aS'O'
asS'dep_seq'
p41
(lp42
(lp43
S'nn'
p44
aS'2'
aS'1'
aa(lp45
S'dep'
p46
aS'4'
aS'2'
aa(lp47
S'det'
p48
aS'4'
aS'3'
aa(lp49
S'root'
p50
aS'0'
aS'4'
aa(lp51
S'advmod'
p52
aS'9'
aS'5'
aa(lp53
S'det'
p54
aS'7'
aS'6'
aa(lp55
S'nsubjpass'
p56
aS'9'
aS'7'
aa(lp57
S'auxpass'
p58
aS'9'
aS'8'
aa(lp59
S'rcmod'
p60
aS'4'
aS'9'
aasS'srls'
p61
(lp62
(dp63
S'A1'
p64
S'the thing'
p65
sS'V'
g29
sasS'pos_seq'
p66
(lp67
S'NN'
p68
aS'NNP'
p69
aS'DT'
p70
aS'NN'
p71
aS'WRB'
p72
aS'DT'
p73
aS'NN'
p74
aS'VBZ'
p75
aS'VBN'
p76
aS'.'
asS'ner_seq'
p77
(lp78
S'O'
aS'O'
aS'O'
aS'O'
aS'O'
aS'O'
aS'O'
aS'O'
aS'O'
aS'O'
assb.