ccopy_reg
_reconstructor
p1
(c__main__
KBproperty
p2
c__builtin__
object
p3
NtRp4
(dp5
S'comment'
p6
S'The current production running in the theatre.'
p7
sS'domain'
p8
S'Theatre '
p9
sS'instances_count'
p10
S'48'
p11
sS'label'
p12
S'current production'
p13
sS'range'
p14
S''
sS'prop_uri'
p15
S"'http://dbpedia.org/ontology/currentProduction'"
p16
sS'annotations'
p17
(dp18
S'bag_of_words'
p19
(lp20
S'Theatre'
p21
aS'current'
p22
aS'production'
p23
aS'The'
p24
aS'current'
p25
aS'production'
p26
aS'running'
p27
aS'in'
p28
aS'the'
p29
aS'theatre'
p30
aS'.'
asS'chunk_seq'
p31
(lp32
S'B-NP'
p33
aS'I-NP'
p34
aS'E-NP'
p35
aS'B-NP'
p36
aS'I-NP'
p37
aS'E-NP'
p38
aS'S-VP'
p39
aS'S-PP'
p40
aS'B-NP'
p41
aS'E-NP'
p42
aS'O'
asS'dep_seq'
p43
(lp44
(lp45
S'nn'
p46
aS'3'
aS'1'
aa(lp47
S'amod'
p48
aS'3'
aS'2'
aa(lp49
S'nsubj'
p50
aS'7'
aS'3'
aa(lp51
S'det'
p52
aS'6'
aS'4'
aa(lp53
S'amod'
p54
aS'6'
aS'5'
aa(lp55
S'nsubj'
p56
aS'7'
aS'6'
aa(lp57
S'root'
p58
aS'0'
aS'7'
aa(lp59
S'det'
p60
aS'10'
p61
aS'9'
aa(lp62
S'prep_in'
p63
aS'7'
aS'10'
p64
aasS'srls'
p65
(lp66
(dp67
S'A1'
p68
S'Theatre current production The current production'
p69
sS'AM-LOC'
p70
S'in the theatre'
p71
sS'V'
g27
sasS'pos_seq'
p72
(lp73
S'NNP'
p74
aS'JJ'
p75
aS'NN'
p76
aS'DT'
p77
aS'JJ'
p78
aS'NN'
p79
aS'VBG'
p80
aS'IN'
p81
aS'DT'
p82
aS'NN'
p83
aS'.'
asS'ner_seq'
p84
(lp85
S'O'
aS'O'
aS'O'
aS'O'
aS'O'
aS'O'
aS'O'
aS'O'
aS'O'
aS'O'
aS'O'
assb.