ccopy_reg
_reconstructor
p1
(c__main__
KBproperty
p2
c__builtin__
object
p3
NtRp4
(dp5
S'comment'
p6
S'Developer of a Work Artwork Book Software or Building Hotel Skyscraper'
p7
sS'domain'
p8
S''
sS'instances_count'
p9
S'28615'
p10
sS'label'
p11
S'developer'
p12
sS'range'
p13
S'Agent '
p14
sS'prop_uri'
p15
S"'http://dbpedia.org/ontology/developer'"
p16
sS'annotations'
p17
(dp18
S'bag_of_words'
p19
(lp20
S'developer'
p21
aS'Agent'
p22
aS'Developer'
p23
aS'of'
p24
aS'a'
aS'Work'
p25
aS'Artwork'
p26
aS'Book'
p27
aS'Software'
p28
aS'or'
p29
aS'Building'
p30
aS'Hotel'
p31
aS'Skyscraper'
p32
asS'chunk_seq'
p33
(lp34
S'B-NP'
p35
aS'I-NP'
p36
aS'E-NP'
p37
aS'S-PP'
p38
aS'B-NP'
p39
aS'I-NP'
p40
aS'I-NP'
p41
aS'I-NP'
p42
aS'I-NP'
p43
aS'I-NP'
p44
aS'I-NP'
p45
aS'I-NP'
p46
aS'E-NP'
p47
asS'dep_seq'
p48
(lp49
(lp50
S'nn'
p51
aS'3'
aS'1'
aa(lp52
S'nn'
p53
aS'3'
aS'2'
aa(lp54
S'dep'
p55
aS'4'
aS'3'
aa(lp56
S'root'
p57
aS'0'
aS'4'
aa(lp58
S'det'
p59
aS'9'
aS'5'
aa(lp60
S'nn'
p61
aS'9'
aS'6'
aa(lp62
S'nn'
p63
aS'9'
aS'7'
aa(lp64
S'nn'
p65
aS'9'
aS'8'
aa(lp66
S'pobj'
p67
aS'4'
aS'9'
aa(lp68
S'nn'
p69
aS'13'
p70
aS'11'
p71
aa(lp72
S'nn'
p73
aS'13'
p74
aS'12'
p75
aa(lp76
S'conj_or'
p77
aS'4'
aS'13'
p78
aasS'srls'
p79
(lp80
sS'pos_seq'
p81
(lp82
S'NN'
p83
aS'NNP'
p84
aS'NNP'
p85
aS'IN'
p86
aS'DT'
p87
aS'NNP'
p88
aS'NNP'
p89
aS'NNP'
p90
aS'NNP'
p91
aS'CC'
p92
aS'NNP'
p93
aS'NNP'
p94
aS'NNP'
p95
asS'ner_seq'
p96
(lp97
S'O'
aS'O'
aS'O'
aS'O'
aS'O'
aS'B-ORG'
p98
aS'I-ORG'
p99
aS'I-ORG'
p100
aS'I-ORG'
p101
aS'I-ORG'
p102
aS'I-ORG'
p103
aS'I-ORG'
p104
aS'E-ORG'
p105
assb.