ccopy_reg
_reconstructor
p1
(c__main__
KBproperty
p2
c__builtin__
object
p3
NtRp4
(dp5
S'comment'
p6
S'Body that owns/operates the Place.'
p7
sS'domain'
p8
S'Place '
p9
sS'instances_count'
p10
S'3159'
p11
sS'label'
p12
S'governing body'
p13
sS'range'
p14
S'Organisation '
p15
sS'prop_uri'
p16
S"'http://dbpedia.org/ontology/governingBody'"
p17
sS'annotations'
p18
(dp19
S'bag_of_words'
p20
(lp21
S'Place'
p22
aS'governing'
p23
aS'body'
p24
aS'Organisation'
p25
aS'Body'
p26
aS'that'
p27
aS'owns'
p28
aS'/'
aS'operates'
p29
aS'the'
p30
aS'Place.'
p31
asS'chunk_seq'
p32
(lp33
S'B-NP'
p34
aS'I-NP'
p35
aS'I-NP'
p36
aS'I-NP'
p37
aS'E-NP'
p38
aS'S-NP'
p39
aS'S-VP'
p40
aS'O'
aS'S-VP'
p41
aS'B-NP'
p42
aS'E-NP'
p43
asS'dep_seq'
p44
(lp45
(lp46
S'root'
p47
aS'0'
aS'1'
aa(lp48
S'partmod'
p49
aS'1'
aS'2'
aa(lp50
S'nn'
p51
aS'5'
aS'3'
aa(lp52
S'nn'
p53
aS'5'
aS'4'
aa(lp54
S'dobj'
p55
aS'2'
aS'5'
aa(lp56
S'nsubj'
p57
aS'7'
aS'6'
aa(lp58
S'dep'
p59
aS'2'
aS'7'
aa(lp60
S'punct'
p61
aS'1'
aS'8'
aa(lp62
S'dep'
p63
aS'1'
aS'9'
aa(lp64
S'det'
p65
aS'11'
p66
aS'10'
p67
aa(lp68
S'dobj'
p69
aS'9'
aS'11'
p70
aasS'srls'
p71
(lp72
(dp73
S'A1'
p74
S'body Organisation Body'
p75
sS'A0'
p76
g22
sS'V'
g23
sa(dp77
S'A0'
p78
S'body Organisation Body'
p79
sS'R-A0'
p80
g27
sS'V'
g28
sa(dp81
S'AM-ADV'
p82
S'Place governing body Organisation Body that owns /'
p83
sS'A1'
p84
S'the Place.'
p85
sS'V'
g29
sasS'pos_seq'
p86
(lp87
S'NN'
p88
aS'VBG'
p89
aS'NN'
p90
aS'NNP'
p91
aS'NNP'
p92
aS'WDT'
p93
aS'VBZ'
p94
aS':'
aS'VBZ'
p95
aS'DT'
p96
aS'NNP'
p97
asS'ner_seq'
p98
(lp99
S'O'
aS'O'
aS'O'
aS'B-ORG'
p100
aS'E-ORG'
p101
aS'O'
aS'O'
aS'O'
aS'O'
aS'O'
aS'O'
assb.