ccopy_reg
_reconstructor
p1
(c__main__
KBproperty
p2
c__builtin__
object
p3
NtRp4
(dp5
S'comment'
p6
S'additional notes that better describe the entity.'
p7
sS'domain'
p8
S''
sS'instances_count'
p9
S'757'
p10
sS'label'
p11
S'notes'
p12
sS'range'
p13
S'string '
p14
sS'prop_uri'
p15
S"'http://dbpedia.org/ontology/notes'"
p16
sS'annotations'
p17
(dp18
S'bag_of_words'
p19
(lp20
S'notes'
p21
aS'string'
p22
aS'additional'
p23
aS'notes'
p24
aS'that'
p25
aS'better'
p26
aS'describe'
p27
aS'the'
p28
aS'entity'
p29
aS'.'
asS'chunk_seq'
p30
(lp31
S'S-VP'
p32
aS'B-NP'
p33
aS'I-NP'
p34
aS'E-NP'
p35
aS'S-NP'
p36
aS'B-VP'
p37
aS'E-VP'
p38
aS'B-NP'
p39
aS'E-NP'
p40
aS'O'
asS'dep_seq'
p41
(lp42
(lp43
S'nn'
p44
aS'4'
aS'1'
aa(lp45
S'nn'
p46
aS'4'
aS'2'
aa(lp47
S'amod'
p48
aS'4'
aS'3'
aa(lp49
S'root'
p50
aS'0'
aS'4'
aa(lp51
S'nsubj'
p52
aS'7'
aS'4'
aa(lp53
S'advmod'
p54
aS'7'
aS'6'
aa(lp55
S'rcmod'
p56
aS'4'
aS'7'
aa(lp57
S'det'
p58
aS'9'
aS'8'
aa(lp59
S'dobj'
p60
aS'7'
aS'9'
aasS'srls'
p61
(lp62
(dp63
S'A1'
p64
S'the entity'
p65
sS'A0'
p66
S'string additional notes'
p67
sS'R-A0'
p68
g25
sS'AM-MNR'
p69
g26
sS'V'
g27
sasS'pos_seq'
p70
(lp71
S'NNS'
p72
aS'NN'
p73
aS'JJ'
p74
aS'NNS'
p75
aS'IN'
p76
aS'RBR'
p77
aS'VB'
p78
aS'DT'
p79
aS'NN'
p80
aS'.'
asS'ner_seq'
p81
(lp82
S'O'
aS'O'
aS'O'
aS'O'
aS'O'
aS'O'
aS'O'
aS'O'
aS'O'
aS'O'
assb.