ccopy_reg
_reconstructor
p1
(c__main__
KBproperty
p2
c__builtin__
object
p3
NtRp4
(dp5
S'comment'
p6
S'Indexing code used by the Belgium National Statistical Institute to identify populated places.'
p7
sS'domain'
p8
S'Populated Place '
p9
sS'instances_count'
p10
S'0'
sS'label'
p11
S'NIS code'
p12
sS'range'
p13
S'Populated Place '
p14
sS'prop_uri'
p15
S"'http://dbpedia.org/ontology/nisCode'"
p16
sS'annotations'
p17
(dp18
S'bag_of_words'
p19
(lp20
S'Populated'
p21
aS'Place'
p22
aS'NIS'
p23
aS'code'
p24
aS'Populated'
p25
aS'Place'
p26
aS'Indexing'
p27
aS'code'
p28
aS'used'
p29
aS'by'
p30
aS'the'
p31
aS'Belgium'
p32
aS'National'
p33
aS'Statistical'
p34
aS'Institute'
p35
aS'to'
p36
aS'identify'
p37
aS'populated'
p38
aS'places'
p39
aS'.'
asS'chunk_seq'
p40
(lp41
S'B-NP'
p42
aS'I-NP'
p43
aS'I-NP'
p44
aS'I-NP'
p45
aS'I-NP'
p46
aS'I-NP'
p47
aS'I-NP'
p48
aS'E-NP'
p49
aS'S-VP'
p50
aS'S-PP'
p51
aS'B-NP'
p52
aS'I-NP'
p53
aS'I-NP'
p54
aS'I-NP'
p55
aS'E-NP'
p56
aS'B-VP'
p57
aS'E-VP'
p58
aS'B-NP'
p59
aS'E-NP'
p60
aS'O'
asS'dep_seq'
p61
(lp62
(lp63
S'amod'
p64
aS'8'
aS'1'
aa(lp65
S'nn'
p66
aS'8'
aS'2'
aa(lp67
S'nn'
p68
aS'8'
aS'3'
aa(lp69
S'nn'
p70
aS'8'
aS'4'
aa(lp71
S'amod'
p72
aS'8'
aS'5'
aa(lp73
S'nn'
p74
aS'8'
aS'6'
aa(lp75
S'nn'
p76
aS'8'
aS'7'
aa(lp77
S'nsubj'
p78
aS'9'
aS'8'
aa(lp79
S'xsubj'
p80
aS'17'
p81
aS'8'
aa(lp82
S'root'
p83
aS'0'
aS'9'
aa(lp84
S'det'
p85
aS'15'
p86
aS'11'
p87
aa(lp88
S'nn'
p89
aS'15'
p90
aS'12'
p91
aa(lp92
S'nn'
p93
aS'15'
p94
aS'13'
p95
aa(lp96
S'nn'
p97
aS'15'
p98
aS'14'
p99
aa(lp100
S'prep_by'
p101
aS'9'
aS'15'
p102
aa(lp103
S'aux'
p104
aS'17'
p105
aS'16'
p106
aa(lp107
S'xcomp'
p108
aS'9'
aS'17'
p109
aa(lp110
S'amod'
p111
aS'19'
p112
aS'18'
p113
aa(lp114
S'dobj'
p115
aS'17'
p116
aS'19'
p117
aasS'srls'
p118
(lp119
(dp120
S'A1'
p121
S'Indexing code'
p122
sS'A2'
p123
g26
sS'V'
g25
sa(dp124
S'A1'
p125
S'NIS code Populated Place Indexing code'
p126
sS'A0'
p127
S'by the Belgium National Statistical Institute'
p128
sS'V'
g29
sa(dp129
S'A1'
p130
S'populated places'
p131
sS'A0'
p132
S'Populated Place NIS code Populated Place Indexing code used by the Belgium National Statistical Institute'
p133
sS'V'
g37
sasS'pos_seq'
p134
(lp135
S'VBN'
p136
aS'NNP'
p137
aS'NNP'
p138
aS'NN'
p139
aS'VBN'
p140
aS'NNP'
p141
aS'NNP'
p142
aS'NN'
p143
aS'VBN'
p144
aS'IN'
p145
aS'DT'
p146
aS'NNP'
p147
aS'NNP'
p148
aS'NNP'
p149
aS'NNP'
p150
aS'TO'
p151
aS'VB'
p152
aS'JJ'
p153
aS'NNS'
p154
aS'.'
asS'ner_seq'
p155
(lp156
S'O'
aS'O'
aS'S-LOC'
p157
aS'O'
aS'O'
aS'O'
aS'O'
aS'O'
aS'O'
aS'O'
aS'O'
aS'B-ORG'
p158
aS'I-ORG'
p159
aS'I-ORG'
p160
aS'E-ORG'
p161
aS'O'
aS'O'
aS'O'
aS'O'
aS'O'
assb.