ccopy_reg
_reconstructor
p1
(c__main__
KBproperty
p2
c__builtin__
object
p3
NtRp4
(dp5
S'comment'
p6
S'is a measure of the inequality of a distribution. It is commonly used as a measure of inequality of income or wealth.'
p7
sS'domain'
p8
S'Populated Place '
p9
sS'instances_count'
p10
S'0'
sS'label'
p11
S'gini coefficient'
p12
sS'range'
p13
S'float '
p14
sS'prop_uri'
p15
S"'http://dbpedia.org/ontology/giniCoefficient'"
p16
sS'annotations'
p17
(dp18
S'bag_of_words'
p19
(lp20
S'Populated'
p21
aS'Place'
p22
aS'gini'
p23
aS'coefficient'
p24
aS'float'
p25
aS'is'
p26
aS'a'
aS'measure'
p27
aS'of'
p28
aS'the'
p29
aS'inequality'
p30
aS'of'
p31
aS'a'
aS'distribution'
p32
aS'.'
aS'It'
p33
aS'is'
p34
aS'commonly'
p35
aS'used'
p36
aS'as'
p37
aS'a'
aS'measure'
p38
aS'of'
p39
aS'inequality'
p40
aS'of'
p41
aS'income'
p42
aS'or'
p43
aS'wealth'
p44
aS'.'
asS'chunk_seq'
p45
(lp46
S'B-NP'
p47
aS'I-NP'
p48
aS'I-NP'
p49
aS'E-NP'
p50
aS'S-NP'
p51
aS'S-VP'
p52
aS'B-NP'
p53
aS'E-NP'
p54
aS'S-PP'
p55
aS'B-NP'
p56
aS'E-NP'
p57
aS'S-PP'
p58
aS'B-NP'
p59
aS'E-NP'
p60
aS'O'
aS'S-NP'
p61
aS'B-VP'
p62
aS'I-VP'
p63
aS'E-VP'
p64
aS'S-PP'
p65
aS'B-NP'
p66
aS'E-NP'
p67
aS'S-PP'
p68
aS'S-NP'
p69
aS'S-PP'
p70
aS'B-NP'
p71
aS'I-NP'
p72
aS'E-NP'
p73
aS'O'
asS'dep_seq'
p74
(lp75
(lp76
S'amod'
p77
aS'5'
aS'1'
aa(lp78
S'nn'
p79
aS'5'
aS'2'
aa(lp80
S'nn'
p81
aS'5'
aS'3'
aa(lp82
S'nn'
p83
aS'5'
aS'4'
aa(lp84
S'nsubj'
p85
aS'8'
aS'5'
aa(lp86
S'cop'
p87
aS'8'
aS'6'
aa(lp88
S'det'
p89
aS'8'
aS'7'
aa(lp90
S'ccomp'
p91
aS'19'
p92
aS'8'
aa(lp93
S'det'
p94
aS'11'
p95
aS'10'
p96
aa(lp97
S'prep_of'
p98
aS'8'
aS'11'
p99
aa(lp100
S'det'
p101
aS'14'
p102
aS'13'
p103
aa(lp104
S'prep_of'
p105
aS'11'
p106
aS'14'
p107
aa(lp108
S'nsubjpass'
p109
aS'19'
p110
aS'16'
p111
aa(lp112
S'auxpass'
p113
aS'19'
p114
aS'17'
p115
aa(lp116
S'advmod'
p117
aS'19'
p118
aS'18'
p119
aa(lp120
S'root'
p121
aS'0'
aS'19'
p122
aa(lp123
S'det'
p124
aS'22'
p125
aS'21'
p126
aa(lp127
S'prep_as'
p128
aS'19'
p129
aS'22'
p130
aa(lp131
S'prep_of'
p132
aS'22'
p133
aS'24'
p134
aa(lp135
S'prep_of'
p136
aS'24'
p137
aS'26'
p138
aa(lp139
S'conj_or'
p140
aS'26'
p141
aS'28'
p142
aasS'srls'
p143
(lp144
(dp145
S'A1'
p146
g33
sS'AM-ADV'
p147
g35
sS'A2'
p148
S'as a measure of inequality of income or wealth'
p149
sS'V'
g36
sasS'pos_seq'
p150
(lp151
S'JJ'
p152
aS'NN'
p153
aS'NN'
p154
aS'NN'
p155
aS'NN'
p156
aS'VBZ'
p157
aS'DT'
p158
aS'NN'
p159
aS'IN'
p160
aS'DT'
p161
aS'NN'
p162
aS'IN'
p163
aS'DT'
p164
aS'NN'
p165
aS'.'
aS'PRP'
p166
aS'VBZ'
p167
aS'RB'
p168
aS'VBN'
p169
aS'IN'
p170
aS'DT'
p171
aS'NN'
p172
aS'IN'
p173
aS'NN'
p174
aS'IN'
p175
aS'NN'
p176
aS'CC'
p177
aS'NN'
p178
aS'.'
asS'ner_seq'
p179
(lp180
S'O'
aS'O'
aS'O'
aS'O'
aS'O'
aS'O'
aS'O'
aS'O'
aS'O'
aS'O'
aS'O'
aS'O'
aS'O'
aS'O'
aS'O'
aS'O'
aS'O'
aS'O'
aS'O'
aS'O'
aS'O'
aS'O'
aS'O'
aS'O'
aS'O'
aS'O'
aS'O'
aS'O'
aS'O'
assb.