ccopy_reg
_reconstructor
p1
(c__main__
KBproperty
p2
c__builtin__
object
p3
NtRp4
(dp5
S'comment'
p6
S''
sS'domain'
p7
S''
sS'instances_count'
p8
S'79'
p9
sS'label'
p10
S'operation will start'
p11
sS'range'
p12
S''
sS'prop_uri'
p13
S"'http://dbpedia.org/property/operationWillStart'"
p14
sS'annotations'
p15
(dp16
S'bag_of_words'
p17
(lp18
S'operation'
p19
aS'will'
p20
aS'start'
p21
asS'chunk_seq'
p22
(lp23
S'S-NP'
p24
aS'B-VP'
p25
aS'E-VP'
p26
asS'dep_seq'
p27
(lp28
(lp29
S'nsubj'
p30
aS'3'
aS'1'
aa(lp31
S'aux'
p32
aS'3'
aS'2'
aa(lp33
S'root'
p34
aS'0'
aS'3'
aasS'srls'
p35
(lp36
(dp37
S'A1'
p38
g19
sS'V'
g21
sS'AM-MOD'
p39
g20
sasS'pos_seq'
p40
(lp41
S'NN'
p42
aS'MD'
p43
aS'VB'
p44
asS'ner_seq'
p45
(lp46
S'O'
aS'O'
aS'O'
assb.