ccopy_reg
_reconstructor
p1
(c__main__
KBproperty
p2
c__builtin__
object
p3
NtRp4
(dp5
S'comment'
p6
S''
sS'domain'
p7
S'Person '
p8
sS'instances_count'
p9
S'0'
sS'label'
p10
S'catch'
p11
sS'range'
p12
S'string '
p13
sS'prop_uri'
p14
S"'http://dbpedia.org/ontology/catch'"
p15
sS'annotations'
p16
(dp17
S'bag_of_words'
p18
(lp19
S'Person'
p20
aS'catch'
p21
aS'string'
p22
asS'chunk_seq'
p23
(lp24
S'S-NP'
p25
aS'S-VP'
p26
aS'O'
asS'dep_seq'
p27
(lp28
(lp29
S'nn'
p30
aS'3'
aS'1'
aa(lp31
S'dep'
p32
aS'3'
aS'2'
aa(lp33
S'root'
p34
aS'0'
aS'3'
aasS'srls'
p35
(lp36
(dp37
S'A1'
p38
S'Person string'
p39
sS'V'
g21
sasS'pos_seq'
p40
(lp41
S'NN'
p42
aS'VB'
p43
aS'NN'
p44
asS'ner_seq'
p45
(lp46
S'O'
aS'O'
aS'O'
assb.