ccopy_reg
_reconstructor
p1
(c__main__
KBproperty
p2
c__builtin__
object
p3
NtRp4
(dp5
S'comment'
p6
S''
sS'domain'
p7
S'Cricketer '
p8
sS'instances_count'
p9
S'0'
sS'label'
p10
S'FC runs'
p11
sS'range'
p12
S'non Negative Integer '
p13
sS'prop_uri'
p14
S"'http://dbpedia.org/ontology/fcRuns'"
p15
sS'annotations'
p16
(dp17
S'bag_of_words'
p18
(lp19
S'Cricketer'
p20
aS'FC'
p21
aS'runs'
p22
aS'non'
p23
aS'Negative'
p24
aS'Integer'
p25
asS'chunk_seq'
p26
(lp27
S'B-NP'
p28
aS'E-NP'
p29
aS'S-VP'
p30
aS'B-NP'
p31
aS'I-NP'
p32
aS'E-NP'
p33
asS'dep_seq'
p34
(lp35
(lp36
S'nn'
p37
aS'2'
aS'1'
aa(lp38
S'nsubj'
p39
aS'3'
aS'2'
aa(lp40
S'root'
p41
aS'0'
aS'3'
aa(lp42
S'advmod'
p43
aS'6'
aS'4'
aa(lp44
S'amod'
p45
aS'6'
aS'5'
aa(lp46
S'dobj'
p47
aS'3'
aS'6'
aasS'srls'
p48
(lp49
(dp50
S'A1'
p51
S'non Negative Integer'
p52
sS'A0'
p53
S'Cricketer FC'
p54
sS'V'
g22
sasS'pos_seq'
p55
(lp56
S'NNP'
p57
aS'NNP'
p58
aS'VBZ'
p59
aS'RB'
p60
aS'JJ'
p61
aS'NN'
p62
asS'ner_seq'
p63
(lp64
S'O'
aS'O'
aS'O'
aS'O'
aS'B-MISC'
p65
aS'E-MISC'
p66
assb.