ccopy_reg
_reconstructor
p1
(c__main__
KBproperty
p2
c__builtin__
object
p3
NtRp4
(dp5
S'comment'
p6
S'Also called "floruit". Use this if the active years are in one field that can\\\'t be split. Else use activeYearsStartYear and activeYearsEndYear'
p7
sS'domain'
p8
S'Person '
p9
sS'instances_count'
p10
S'239'
p11
sS'label'
p12
S'active years'
p13
sS'range'
p14
S'string '
p15
sS'prop_uri'
p16
S"'http://dbpedia.org/ontology/activeYears'"
p17
sS'annotations'
p18
(dp19
S'bag_of_words'
p20
(lp21
S'Person'
p22
aS'active'
p23
aS'years'
p24
aS'string'
p25
aS'Also'
p26
aS'called'
p27
aS'"'
aS'floruit'
p28
aS'"'
aS'.'
aS'Use'
p29
aS'this'
p30
aS'if'
p31
aS'the'
p32
aS'active'
p33
aS'years'
p34
aS'are'
p35
aS'in'
p36
aS'one'
p37
aS'field'
p38
aS'that'
p39
aS'can'
p40
aS'\\'
aS"'t"
p41
aS'be'
p42
aS'split'
p43
aS'.'
aS'Else'
p44
aS'use'
p45
aS'activeYearsStartYear'
p46
aS'and'
p47
aS'activeYearsEndYear'
p48
asS'chunk_seq'
p49
(lp50
S'B-NP'
p51
aS'I-NP'
p52
aS'I-NP'
p53
aS'E-NP'
p54
aS'S-ADVP'
p55
aS'S-VP'
p56
aS'B-NP'
p57
aS'I-NP'
p58
aS'E-NP'
p59
aS'O'
aS'S-VP'
p60
aS'S-NP'
p61
aS'S-SBAR'
p62
aS'B-NP'
p63
aS'I-NP'
p64
aS'E-NP'
p65
aS'S-VP'
p66
aS'S-PP'
p67
aS'B-NP'
p68
aS'E-NP'
p69
aS'S-NP'
p70
aS'B-VP'
p71
aS'I-VP'
p72
aS'I-VP'
p73
aS'I-VP'
p74
aS'E-VP'
p75
aS'O'
aS'O'
aS'S-VP'
p76
aS'B-NP'
p77
aS'I-NP'
p78
aS'E-NP'
p79
asS'dep_seq'
p80
(lp81
(lp82
S'nn'
p83
aS'4'
aS'1'
aa(lp84
S'amod'
p85
aS'4'
aS'2'
aa(lp86
S'nn'
p87
aS'4'
aS'3'
aa(lp88
S'nsubj'
p89
aS'11'
p90
aS'4'
aa(lp91
S'advmod'
p92
aS'4'
aS'5'
aa(lp93
S'partmod'
p94
aS'4'
aS'6'
aa(lp95
S'amod'
p96
aS'9'
aS'7'
aa(lp97
S'amod'
p98
aS'9'
aS'8'
aa(lp99
S'dep'
p100
aS'6'
aS'9'
aa(lp101
S'root'
p102
aS'0'
aS'11'
p103
aa(lp104
S'dobj'
p105
aS'11'
p106
aS'12'
p107
aa(lp108
S'mark'
p109
aS'17'
p110
aS'13'
p111
aa(lp112
S'det'
p113
aS'16'
p114
aS'14'
p115
aa(lp116
S'amod'
p117
aS'16'
p118
aS'15'
p119
aa(lp120
S'nsubj'
p121
aS'17'
p122
aS'16'
p123
aa(lp124
S'advcl'
p125
aS'11'
p126
aS'17'
p127
aa(lp128
S'num'
p129
aS'20'
p130
aS'19'
p131
aa(lp132
S'prep_in'
p133
aS'17'
p134
aS'20'
p135
aa(lp136
S'nsubj'
p137
aS'23'
p138
aS'21'
p139
aa(lp140
S'aux'
p141
aS'23'
p142
aS'22'
p143
aa(lp144
S'ccomp'
p145
aS'17'
p146
aS'23'
p147
aa(lp148
S'nsubjpass'
p149
aS'26'
p150
aS'24'
p151
aa(lp152
S'auxpass'
p153
aS'26'
p154
aS'25'
p155
aa(lp156
S'ccomp'
p157
aS'23'
p158
aS'26'
p159
aa(lp160
S'dep'
p161
aS'29'
p162
aS'28'
p163
aa(lp164
S'dep'
p165
aS'11'
p166
aS'29'
p167
aa(lp168
S'dobj'
p169
aS'29'
p170
aS'30'
p171
aa(lp172
S'conj_and'
p173
aS'30'
p174
aS'32'
p175
aasS'srls'
p176
(lp177
(dp178
S'A1'
p179
S"Use this if the active years are in one field that can \\ 't be split . Else use activeYearsStartYear and activeYearsEndYear"
p180
sS'A0'
p181
S'Person active years string'
p182
sS'AM-DIS'
p183
g26
sS'A2'
p184
S'" floruit "'
p185
sS'V'
g27
sa(dp186
S'A1'
p187
g30
sS'A0'
p188
S'Person active years string'
p189
sS'A2'
p190
S"if the active years are in one field that can \\ 't be split . Else use activeYearsStartYear and activeYearsEndYear"
p191
sS'V'
g29
sa(dp192
S'A1'
p193
S"one field 't"
p194
sS'V'
g43
sS'R-A1'
p195
g39
sS'AM-MOD'
p196
g40
sa(dp197
S'A1'
p198
S'activeYearsStartYear and activeYearsEndYear'
p199
sS'A0'
p200
g44
sS'V'
g45
sasS'pos_seq'
p201
(lp202
S'NN'
p203
aS'JJ'
p204
aS'NNS'
p205
aS'NN'
p206
aS'RB'
p207
aS'VBD'
p208
aS'JJ'
p209
aS'JJ'
p210
aS'NN'
p211
aS'.'
aS'VB'
p212
aS'DT'
p213
aS'IN'
p214
aS'DT'
p215
aS'JJ'
p216
aS'NNS'
p217
aS'VBP'
p218
aS'IN'
p219
aS'CD'
p220
aS'NN'
p221
aS'WDT'
p222
aS'MD'
p223
aS'VB'
p224
aS'NN'
p225
aS'VB'
p226
aS'VBN'
p227
aS'.'
aS'JJ'
p228
aS'VBP'
p229
aS'JJ'
p230
aS'CC'
p231
aS'JJ'
p232
asS'ner_seq'
p233
(lp234
S'O'
aS'O'
aS'O'
aS'O'
aS'O'
aS'O'
aS'O'
aS'O'
aS'O'
aS'O'
aS'O'
aS'O'
aS'O'
aS'O'
aS'O'
aS'O'
aS'O'
aS'O'
aS'O'
aS'O'
aS'O'
aS'O'
aS'O'
aS'O'
aS'O'
aS'O'
aS'O'
aS'O'
aS'O'
aS'O'
aS'O'
aS'S-LOC'
p235
assb.