ccopy_reg
_reconstructor
p1
(c__main__
KBproperty
p2
c__builtin__
object
p3
NtRp4
(dp5
S'comment'
p6
S'Has KML data associated with it usually because of KML overlays'
p7
sS'domain'
p8
S'File '
p9
sS'instances_count'
p10
S'0'
sS'label'
p11
g7
sS'range'
p12
S'string '
p13
sS'prop_uri'
p14
S"'http://dbpedia.org/ontology/hasKMLData'"
p15
sS'annotations'
p16
(dp17
S'bag_of_words'
p18
(lp19
S'File'
p20
aS'has'
p21
aS'Data'
p22
aS'string'
p23
aS'Has'
p24
aS'KML'
p25
aS'data'
p26
aS'associated'
p27
aS'with'
p28
aS'it'
p29
aS'usually'
p30
aS'because'
p31
aS'of'
p32
aS'KML'
p33
aS'overlays'
p34
asS'chunk_seq'
p35
(lp36
S'S-NP'
p37
aS'S-VP'
p38
aS'B-NP'
p39
aS'E-NP'
p40
aS'S-VP'
p41
aS'B-NP'
p42
aS'E-NP'
p43
aS'S-VP'
p44
aS'S-PP'
p45
aS'S-NP'
p46
aS'S-ADVP'
p47
aS'B-PP'
p48
aS'E-PP'
p49
aS'B-NP'
p50
aS'E-NP'
p51
asS'dep_seq'
p52
(lp53
(lp54
S'nsubj'
p55
aS'2'
aS'1'
aa(lp56
S'root'
p57
aS'0'
aS'2'
aa(lp58
S'nn'
p59
aS'4'
aS'3'
aa(lp60
S'nsubj'
p61
aS'5'
aS'4'
aa(lp62
S'ccomp'
p63
aS'2'
aS'5'
aa(lp64
S'amod'
p65
aS'7'
aS'6'
aa(lp66
S'dobj'
p67
aS'5'
aS'7'
aa(lp68
S'partmod'
p69
aS'7'
aS'8'
aa(lp70
S'prep_with'
p71
aS'8'
aS'10'
p72
aa(lp73
S'advmod'
p74
aS'8'
aS'11'
p75
aa(lp76
S'nn'
p77
aS'15'
p78
aS'14'
p79
aa(lp80
S'prep_because_of'
p81
aS'8'
aS'15'
p82
aasS'srls'
p83
(lp84
(dp85
S'A1'
p86
S'KML data associated with it usually because of KML overlays'
p87
sS'A0'
p88
S'Data string'
p89
sS'V'
g24
sa(dp90
S'A1'
p91
S'KML data'
p92
sS'A2'
p93
S'with it'
p94
sS'V'
g27
sasS'pos_seq'
p95
(lp96
S'NN'
p97
aS'VBZ'
p98
aS'NNP'
p99
aS'NN'
p100
aS'VBZ'
p101
aS'JJ'
p102
aS'NNS'
p103
aS'VBN'
p104
aS'IN'
p105
aS'PRP'
p106
aS'RB'
p107
aS'IN'
p108
aS'IN'
p109
aS'NNP'
p110
aS'NNS'
p111
asS'ner_seq'
p112
(lp113
S'O'
aS'O'
aS'O'
aS'O'
aS'O'
aS'S-ORG'
p114
aS'O'
aS'O'
aS'O'
aS'O'
aS'O'
aS'O'
aS'O'
aS'S-LOC'
p115
aS'O'
assb.