ccopy_reg
_reconstructor
p1
(c__main__
KBproperty
p2
c__builtin__
object
p3
NtRp4
(dp5
S'comment'
p6
S'numerical indexing code used by the French National Institute for Statistics and Economic Studies INSEE to identify various entities'
p7
sS'domain'
p8
S'Settlement '
p9
sS'instances_count'
p10
S'36979'
p11
sS'label'
p12
S'INSEE code'
p13
sS'range'
p14
S'string '
p15
sS'prop_uri'
p16
S"'http://dbpedia.org/ontology/inseeCode'"
p17
sS'annotations'
p18
(dp19
S'bag_of_words'
p20
(lp21
S'Settlement'
p22
aS'INSEE'
p23
aS'code'
p24
aS'string'
p25
aS'numerical'
p26
aS'indexing'
p27
aS'code'
p28
aS'used'
p29
aS'by'
p30
aS'the'
p31
aS'French'
p32
aS'National'
p33
aS'Institute'
p34
aS'for'
p35
aS'Statistics'
p36
aS'and'
p37
aS'Economic'
p38
aS'Studies'
p39
aS'INSEE'
p40
aS'to'
p41
aS'identify'
p42
aS'various'
p43
aS'entities'
p44
asS'chunk_seq'
p45
(lp46
S'B-NP'
p47
aS'I-NP'
p48
aS'I-NP'
p49
aS'I-NP'
p50
aS'I-NP'
p51
aS'I-NP'
p52
aS'E-NP'
p53
aS'S-VP'
p54
aS'S-PP'
p55
aS'B-NP'
p56
aS'I-NP'
p57
aS'I-NP'
p58
aS'E-NP'
p59
aS'S-PP'
p60
aS'S-NP'
p61
aS'O'
aS'B-NP'
p62
aS'I-NP'
p63
aS'E-NP'
p64
aS'B-VP'
p65
aS'E-VP'
p66
aS'B-NP'
p67
aS'E-NP'
p68
asS'dep_seq'
p69
(lp70
(lp71
S'nn'
p72
aS'7'
aS'1'
aa(lp73
S'nn'
p74
aS'7'
aS'2'
aa(lp75
S'nn'
p76
aS'7'
aS'3'
aa(lp77
S'nn'
p78
aS'7'
aS'4'
aa(lp79
S'amod'
p80
aS'7'
aS'5'
aa(lp81
S'nn'
p82
aS'7'
aS'6'
aa(lp83
S'nsubj'
p84
aS'8'
aS'7'
aa(lp85
S'root'
p86
aS'0'
aS'8'
aa(lp87
S'det'
p88
aS'13'
p89
aS'10'
p90
aa(lp91
S'nn'
p92
aS'13'
p93
aS'11'
p94
aa(lp95
S'nn'
p96
aS'13'
p97
aS'12'
p98
aa(lp99
S'prep_by'
p100
aS'8'
aS'13'
p101
aa(lp102
S'prep_for'
p103
aS'8'
aS'15'
p104
aa(lp105
S'nn'
p106
aS'19'
p107
aS'17'
p108
aa(lp109
S'nn'
p110
aS'19'
p111
aS'18'
p112
aa(lp113
S'conj_and'
p114
aS'15'
p115
aS'19'
p116
aa(lp117
S'dep'
p118
aS'8'
aS'20'
p119
aa(lp120
S'dep'
p121
aS'8'
aS'21'
p122
aa(lp123
S'amod'
p124
aS'23'
p125
aS'22'
p126
aa(lp127
S'dep'
p128
aS'8'
aS'23'
p129
aasS'srls'
p130
(lp131
(dp132
S'A1'
p133
S'Settlement INSEE code string numerical indexing code'
p134
sS'A0'
p135
S'by the French National Institute'
p136
sS'V'
g29
sa(dp137
S'A1'
p138
S'various entities'
p139
sS'A0'
p140
S'Settlement INSEE code string numerical indexing code used by the French National Institute for Statistics and Economic Studies INSEE'
p141
sS'V'
g42
sasS'pos_seq'
p142
(lp143
S'NNP'
p144
aS'NNP'
p145
aS'NN'
p146
aS'NN'
p147
aS'JJ'
p148
aS'NN'
p149
aS'NN'
p150
aS'VBN'
p151
aS'IN'
p152
aS'DT'
p153
aS'NNP'
p154
aS'NNP'
p155
aS'NNP'
p156
aS'IN'
p157
aS'NNPS'
p158
aS'CC'
p159
aS'NNP'
p160
aS'NNPS'
p161
aS'NNP'
p162
aS'TO'
p163
aS'VB'
p164
aS'JJ'
p165
aS'NNS'
p166
asS'ner_seq'
p167
(lp168
S'O'
aS'S-ORG'
p169
aS'O'
aS'O'
aS'O'
aS'O'
aS'O'
aS'O'
aS'O'
aS'O'
aS'B-ORG'
p170
aS'I-ORG'
p171
aS'I-ORG'
p172
aS'I-ORG'
p173
aS'I-ORG'
p174
aS'I-ORG'
p175
aS'I-ORG'
p176
aS'I-ORG'
p177
aS'E-ORG'
p178
aS'O'
aS'O'
aS'O'
aS'O'
assb.