ccopy_reg
_reconstructor
p1
(c__main__
KBproperty
p2
c__builtin__
object
p3
NtRp4
(dp5
S'comment'
p6
S'Number of passengers per day.'
p7
sS'domain'
p8
S'Infrastructure '
p9
sS'instances_count'
p10
S'889'
p11
sS'label'
p12
S'passengers per day'
p13
sS'range'
p14
S'non Negative Integer '
p15
sS'prop_uri'
p16
S"'http://dbpedia.org/ontology/passengersPerDay'"
p17
sS'annotations'
p18
(dp19
S'bag_of_words'
p20
(lp21
S'Infrastructure'
p22
aS'passengers'
p23
aS'per'
p24
aS'day'
p25
aS'non'
p26
aS'Negative'
p27
aS'Integer'
p28
aS'Number'
p29
aS'of'
p30
aS'passengers'
p31
aS'per'
p32
aS'day.'
p33
asS'chunk_seq'
p34
(lp35
S'B-NP'
p36
aS'E-NP'
p37
aS'S-PP'
p38
aS'B-NP'
p39
aS'I-NP'
p40
aS'I-NP'
p41
aS'I-NP'
p42
aS'E-NP'
p43
aS'S-PP'
p44
aS'S-NP'
p45
aS'S-PP'
p46
aS'O'
asS'dep_seq'
p47
(lp48
(lp49
S'nn'
p50
aS'2'
aS'1'
aa(lp51
S'dep'
p52
aS'8'
aS'2'
aa(lp53
S'prep_per'
p54
aS'2'
aS'4'
aa(lp55
S'amod'
p56
aS'8'
aS'5'
aa(lp57
S'nn'
p58
aS'8'
aS'6'
aa(lp59
S'nn'
p60
aS'8'
aS'7'
aa(lp61
S'root'
p62
aS'0'
aS'8'
aa(lp63
S'prep_of'
p64
aS'8'
aS'10'
p65
aa(lp66
S'prep_per'
p67
aS'10'
p68
aS'12'
p69
aasS'srls'
p70
(lp71
sS'pos_seq'
p72
(lp73
S'NN'
p74
aS'NNS'
p75
aS'IN'
p76
aS'NN'
p77
aS'JJ'
p78
aS'NNP'
p79
aS'NNP'
p80
aS'NNP'
p81
aS'IN'
p82
aS'NNS'
p83
aS'IN'
p84
aS'NN'
p85
asS'ner_seq'
p86
(lp87
S'O'
aS'O'
aS'O'
aS'O'
aS'O'
aS'O'
aS'O'
aS'O'
aS'O'
aS'O'
aS'O'
aS'O'
assb.