ccopy_reg
_reconstructor
p1
(c__main__
KBproperty
p2
c__builtin__
object
p3
NtRp4
(dp5
S'comment'
p6
S'Construction material eg. concrete steel iron stone brick wood.'
p7
sS'domain'
p8
S'Architectural Structure '
p9
sS'instances_count'
p10
S'576'
p11
sS'label'
p12
S'construction material'
p13
sS'range'
p14
S''
sS'prop_uri'
p15
S"'http://dbpedia.org/ontology/constructionMaterial'"
p16
sS'annotations'
p17
(dp18
S'bag_of_words'
p19
(lp20
S'Architectural'
p21
aS'Structure'
p22
aS'construction'
p23
aS'material'
p24
aS'Construction'
p25
aS'material'
p26
aS'eg.'
p27
aS'concrete'
p28
aS'steel'
p29
aS'iron'
p30
aS'stone'
p31
aS'brick'
p32
aS'wood'
p33
aS'.'
asS'chunk_seq'
p34
(lp35
S'B-NP'
p36
aS'I-NP'
p37
aS'I-NP'
p38
aS'I-NP'
p39
aS'I-NP'
p40
aS'E-NP'
p41
aS'S-PP'
p42
aS'B-NP'
p43
aS'I-NP'
p44
aS'I-NP'
p45
aS'I-NP'
p46
aS'I-NP'
p47
aS'E-NP'
p48
aS'O'
asS'dep_seq'
p49
(lp50
(lp51
S'nn'
p52
aS'6'
aS'1'
aa(lp53
S'nn'
p54
aS'6'
aS'2'
aa(lp55
S'nn'
p56
aS'6'
aS'3'
aa(lp57
S'nn'
p58
aS'6'
aS'4'
aa(lp59
S'nn'
p60
aS'6'
aS'5'
aa(lp61
S'root'
p62
aS'0'
aS'6'
aa(lp63
S'amod'
p64
aS'13'
p65
aS'8'
aa(lp66
S'nn'
p67
aS'13'
p68
aS'9'
aa(lp69
S'nn'
p70
aS'13'
p71
aS'10'
p72
aa(lp73
S'nn'
p74
aS'13'
p75
aS'11'
p76
aa(lp77
S'nn'
p78
aS'13'
p79
aS'12'
p80
aa(lp81
S'prep_eg.'
p82
aS'6'
aS'13'
p83
aasS'srls'
p84
(lp85
sS'pos_seq'
p86
(lp87
S'NNP'
p88
aS'NNP'
p89
aS'NN'
p90
aS'NN'
p91
aS'NN'
p92
aS'NN'
p93
aS'IN'
p94
aS'JJ'
p95
aS'NN'
p96
aS'NN'
p97
aS'NN'
p98
aS'NN'
p99
aS'NN'
p100
aS'.'
asS'ner_seq'
p101
(lp102
S'O'
aS'O'
aS'O'
aS'O'
aS'O'
aS'O'
aS'O'
aS'O'
aS'O'
aS'O'
aS'O'
aS'O'
aS'O'
aS'O'
assb.