ccopy_reg
_reconstructor
p1
(c__main__
KBproperty
p2
c__builtin__
object
p3
NtRp4
(dp5
S'comment'
p6
S''
sS'domain'
p7
S''
sS'instances_count'
p8
S'1'
sS'label'
p9
S'rebuild date'
p10
sS'range'
p11
S'date '
p12
sS'prop_uri'
p13
S"'http://dbpedia.org/ontology/rebuildDate'"
p14
sS'annotations'
p15
(dp16
S'bag_of_words'
p17
(lp18
S'rebuild'
p19
aS'date'
p20
aS'date'
p21
asS'chunk_seq'
p22
(lp23
S'S-VP'
p24
aS'B-NP'
p25
aS'E-NP'
p26
asS'dep_seq'
p27
(lp28
(lp29
S'root'
p30
aS'0'
aS'1'
aa(lp31
S'dobj'
p32
aS'1'
aS'2'
aa(lp33
S'iobj'
p34
aS'1'
aS'2'
aa(lp35
S'dobj'
p36
aS'1'
aS'3'
aa(lp37
S'dep'
p38
aS'2'
aS'3'
aasS'srls'
p39
(lp40
(dp41
S'AM-TMP'
p42
S'date date'
p43
sS'V'
g19
sasS'pos_seq'
p44
(lp45
S'VB'
p46
aS'NN'
p47
aS'NN'
p48
asS'ner_seq'
p49
(lp50
S'O'
aS'O'
aS'O'
assb.