ccopy_reg
_reconstructor
p1
(c__main__
KBproperty
p2
c__builtin__
object
p3
NtRp4
(dp5
S'comment'
p6
S'Census year of the imapct factor.'
p7
sS'domain'
p8
S'Academic Journal '
p9
sS'instances_count'
p10
S'3568'
p11
sS'label'
p12
S'impact factor as of'
p13
sS'range'
p14
S'g Year '
p15
sS'prop_uri'
p16
S"'http://dbpedia.org/ontology/impactFactorAsOf'"
p17
sS'annotations'
p18
(dp19
S'bag_of_words'
p20
(lp21
S'Academic'
p22
aS'Journal'
p23
aS'impact'
p24
aS'factor'
p25
aS'as'
p26
aS'of'
p27
aS'g'
aS'Year'
p28
aS'Census'
p29
aS'year'
p30
aS'of'
p31
aS'the'
p32
aS'imapct'
p33
aS'factor'
p34
aS'.'
asS'chunk_seq'
p35
(lp36
S'B-NP'
p37
aS'I-NP'
p38
aS'I-NP'
p39
aS'E-NP'
p40
aS'S-PP'
p41
aS'S-PP'
p42
aS'B-NP'
p43
aS'I-NP'
p44
aS'I-NP'
p45
aS'E-NP'
p46
aS'S-PP'
p47
aS'B-NP'
p48
aS'I-NP'
p49
aS'E-NP'
p50
aS'O'
asS'dep_seq'
p51
(lp52
(lp53
S'nn'
p54
aS'4'
aS'1'
aa(lp55
S'nn'
p56
aS'4'
aS'2'
aa(lp57
S'nn'
p58
aS'4'
aS'3'
aa(lp59
S'root'
p60
aS'0'
aS'4'
aa(lp61
S'num'
p62
aS'10'
p63
aS'7'
aa(lp64
S'nn'
p65
aS'10'
p66
aS'8'
aa(lp67
S'nn'
p68
aS'10'
p69
aS'9'
aa(lp70
S'prep_as_of'
p71
aS'4'
aS'10'
p72
aa(lp73
S'det'
p74
aS'14'
p75
aS'12'
p76
aa(lp77
S'amod'
p78
aS'14'
p79
aS'13'
p80
aa(lp81
S'prep_of'
p82
aS'4'
aS'14'
p83
aasS'srls'
p84
(lp85
sS'pos_seq'
p86
(lp87
S'NNP'
p88
aS'NNP'
p89
aS'NN'
p90
aS'NN'
p91
aS'IN'
p92
aS'IN'
p93
aS'CD'
p94
aS'NNP'
p95
aS'NNP'
p96
aS'NN'
p97
aS'IN'
p98
aS'DT'
p99
aS'JJ'
p100
aS'NN'
p101
aS'.'
asS'ner_seq'
p102
(lp103
S'B-ORG'
p104
aS'E-ORG'
p105
aS'O'
aS'O'
aS'O'
aS'O'
aS'O'
aS'O'
aS'O'
aS'O'
aS'O'
aS'O'
aS'O'
aS'O'
aS'O'
assb.