ccopy_reg
_reconstructor
p1
(c__main__
KBproperty
p2
c__builtin__
object
p3
NtRp4
(dp5
S'comment'
p6
S'Result of one racer in a sport competition'
p7
sS'domain'
p8
S'Race '
p9
sS'instances_count'
p10
S'0'
sS'label'
p11
S'race result'
p12
sS'range'
p13
S'Sport Competition Result '
p14
sS'prop_uri'
p15
S"'http://dbpedia.org/ontology/raceResult'"
p16
sS'annotations'
p17
(dp18
S'bag_of_words'
p19
(lp20
S'Race'
p21
aS'race'
p22
aS'result'
p23
aS'Sport'
p24
aS'Competition'
p25
aS'Result'
p26
aS'Result'
p27
aS'of'
p28
aS'one'
p29
aS'racer'
p30
aS'in'
p31
aS'a'
aS'sport'
p32
aS'competition'
p33
asS'chunk_seq'
p34
(lp35
S'B-NP'
p36
aS'I-NP'
p37
aS'I-NP'
p38
aS'I-NP'
p39
aS'I-NP'
p40
aS'I-NP'
p41
aS'E-NP'
p42
aS'S-PP'
p43
aS'B-NP'
p44
aS'E-NP'
p45
aS'S-PP'
p46
aS'B-NP'
p47
aS'I-NP'
p48
aS'E-NP'
p49
asS'dep_seq'
p50
(lp51
(lp52
S'nn'
p53
aS'2'
aS'1'
aa(lp54
S'nsubj'
p55
aS'3'
aS'2'
aa(lp56
S'root'
p57
aS'0'
aS'3'
aa(lp58
S'nn'
p59
aS'5'
aS'4'
aa(lp60
S'nsubj'
p61
aS'6'
aS'5'
aa(lp62
S'ccomp'
p63
aS'3'
aS'6'
aa(lp64
S'dep'
p65
aS'11'
p66
aS'7'
aa(lp67
S'num'
p68
aS'10'
p69
aS'9'
aa(lp70
S'prep_of'
p71
aS'11'
p72
aS'10'
p73
aa(lp74
S'dep'
p75
aS'6'
aS'11'
p76
aa(lp77
S'det'
p78
aS'14'
p79
aS'12'
p80
aa(lp81
S'nn'
p82
aS'14'
p83
aS'13'
p84
aa(lp85
S'pobj'
p86
aS'11'
p87
aS'14'
p88
aasS'srls'
p89
(lp90
(dp91
S'A1'
p92
S'Sport Competition Result Result of one racer in a sport competition'
p93
sS'A0'
p94
S'Race race'
p95
sS'V'
g23
sasS'pos_seq'
p96
(lp97
S'NN'
p98
aS'NN'
p99
aS'NN'
p100
aS'NNP'
p101
aS'NNP'
p102
aS'NNP'
p103
aS'NNP'
p104
aS'IN'
p105
aS'CD'
p106
aS'NN'
p107
aS'IN'
p108
aS'DT'
p109
aS'NN'
p110
aS'NN'
p111
asS'ner_seq'
p112
(lp113
S'O'
aS'O'
aS'O'
aS'B-MISC'
p114
aS'E-MISC'
p115
aS'O'
aS'O'
aS'O'
aS'O'
aS'O'
aS'O'
aS'O'
aS'O'
aS'O'
assb.