ccopy_reg
_reconstructor
p1
(c__main__
KBproperty
p2
c__builtin__
object
p3
NtRp4
(dp5
S'comment'
p6
S'Use this property if all 3 sizes are given together DBpedia cannot currently extract 3 Lengths out of a field. Otherwise use separate fields bustSize waistSize hipSize'
p7
sS'domain'
p8
S'Person '
p9
sS'instances_count'
p10
S'0'
sS'label'
p11
S'bust-waist-hip Size'
p12
sS'range'
p13
S'string '
p14
sS'prop_uri'
p15
S"'http://dbpedia.org/ontology/bustWaistHipSize'"
p16
sS'annotations'
p17
(dp18
S'bag_of_words'
p19
(lp20
S'Person'
p21
aS'bust'
p22
aS'-'
aS'waist'
p23
aS'-'
aS'hip'
p24
aS'Size'
p25
aS'string'
p26
aS'Use'
p27
aS'this'
p28
aS'property'
p29
aS'if'
p30
aS'all'
p31
aS'3'
aS'sizes'
p32
aS'are'
p33
aS'given'
p34
aS'together'
p35
aS'DBpedia'
p36
aS'cannot'
p37
aS'currently'
p38
aS'extract'
p39
aS'3'
aS'Lengths'
p40
aS'out'
p41
aS'of'
p42
aS'a'
aS'field'
p43
aS'.'
aS'Otherwise'
p44
aS'use'
p45
aS'separate'
p46
aS'fields'
p47
aS'bustSize'
p48
aS'waistSize'
p49
aS'hipSize'
p50
asS'chunk_seq'
p51
(lp52
S'B-NP'
p53
aS'I-NP'
p54
aS'I-NP'
p55
aS'I-NP'
p56
aS'I-NP'
p57
aS'I-NP'
p58
aS'I-NP'
p59
aS'I-NP'
p60
aS'E-NP'
p61
aS'B-NP'
p62
aS'E-NP'
p63
aS'S-SBAR'
p64
aS'B-NP'
p65
aS'I-NP'
p66
aS'E-NP'
p67
aS'B-VP'
p68
aS'E-VP'
p69
aS'S-ADVP'
p70
aS'S-NP'
p71
aS'B-VP'
p72
aS'I-VP'
p73
aS'E-VP'
p74
aS'B-NP'
p75
aS'E-NP'
p76
aS'S-PP'
p77
aS'S-PP'
p78
aS'B-NP'
p79
aS'E-NP'
p80
aS'O'
aS'S-ADVP'
p81
aS'S-VP'
p82
aS'B-NP'
p83
aS'I-NP'
p84
aS'I-NP'
p85
aS'I-NP'
p86
aS'E-NP'
p87
asS'dep_seq'
p88
(lp89
(lp90
S'nn'
p91
aS'2'
aS'1'
aa(lp92
S'nsubj'
p93
aS'31'
p94
aS'2'
aa(lp95
S'dep'
p96
aS'2'
aS'4'
aa(lp97
S'nn'
p98
aS'9'
aS'6'
aa(lp99
S'nn'
p100
aS'9'
aS'7'
aa(lp101
S'nn'
p102
aS'9'
aS'8'
aa(lp103
S'dep'
p104
aS'2'
aS'9'
aa(lp105
S'det'
p106
aS'11'
p107
aS'10'
p108
aa(lp109
S'dep'
p110
aS'2'
aS'11'
p111
aa(lp112
S'mark'
p113
aS'17'
p114
aS'12'
p115
aa(lp116
S'det'
p117
aS'15'
p118
aS'13'
p119
aa(lp120
S'num'
p121
aS'15'
p122
aS'14'
p123
aa(lp124
S'nsubjpass'
p125
aS'17'
p126
aS'15'
p127
aa(lp128
S'auxpass'
p129
aS'17'
p130
aS'16'
p131
aa(lp132
S'dep'
p133
aS'31'
p134
aS'17'
p135
aa(lp136
S'advmod'
p137
aS'17'
p138
aS'18'
p139
aa(lp140
S'nsubj'
p141
aS'20'
p142
aS'19'
p143
aa(lp144
S'ccomp'
p145
aS'17'
p146
aS'20'
p147
aa(lp148
S'advmod'
p149
aS'20'
p150
aS'21'
p151
aa(lp152
S'dep'
p153
aS'20'
p154
aS'22'
p155
aa(lp156
S'num'
p157
aS'24'
p158
aS'23'
p159
aa(lp160
S'dobj'
p161
aS'22'
p162
aS'24'
p163
aa(lp164
S'prepc_out_of'
p165
aS'22'
p166
aS'26'
p167
aa(lp168
S'det'
p169
aS'28'
p170
aS'27'
p171
aa(lp172
S'pobj'
p173
aS'22'
p174
aS'28'
p175
aa(lp176
S'advmod'
p177
aS'31'
p178
aS'30'
p179
aa(lp180
S'root'
p181
aS'0'
aS'31'
p182
aa(lp183
S'amod'
p184
aS'33'
p185
aS'32'
p186
aa(lp187
S'dobj'
p188
aS'31'
p189
aS'33'
p190
aa(lp191
S'amod'
p192
aS'33'
p193
aS'34'
p194
aa(lp195
S'amod'
p196
aS'33'
p197
aS'35'
p198
aa(lp199
S'punct'
p200
aS'33'
p201
aS'36'
p202
aasS'srls'
p203
(lp204
(dp205
S'A1'
p206
S'all 3 sizes  DBpedia cannot currently extract 3 Lengths out of a field'
p207
sS'A2'
p208
g35
sS'V'
g34
sa(dp209
S'A1'
p210
S'3 Lengths'
p211
sS'A0'
p212
g36
sS'A2'
p213
S'out of a field'
p214
sS'V'
g39
sS'AM-ADV'
p215
S'if all 3 sizes are given together'
p216
sS'AM-TMP'
p217
g38
sa(dp218
S'A1'
p219
S'separate fields bustSize waistSize hipSize'
p220
sS'A0'
p221
S'all 3 sizes are given together DBpedia'
p222
sS'AM-DIS'
p223
g44
sS'V'
g45
sasS'pos_seq'
p224
(lp225
S'NN'
p226
aS'NN'
p227
aS':'
aS'NN'
p228
aS':'
aS'NN'
p229
aS'NN'
p230
aS'NN'
p231
aS'NN'
p232
aS'DT'
p233
aS'NN'
p234
aS'IN'
p235
aS'DT'
p236
aS'CD'
p237
aS'NNS'
p238
aS'VBP'
p239
aS'VBN'
p240
aS'RB'
p241
aS'NNP'
p242
aS'MD'
p243
aS'RB'
p244
aS'VB'
p245
aS'CD'
p246
aS'NNS'
p247
aS'IN'
p248
aS'IN'
p249
aS'DT'
p250
aS'NN'
p251
aS'.'
aS'RB'
p252
aS'VBP'
p253
aS'JJ'
p254
aS'NNS'
p255
aS'JJ'
p256
aS'JJ'
p257
aS'.'
asS'ner_seq'
p258
(lp259
S'O'
aS'O'
aS'O'
aS'O'
aS'O'
aS'O'
aS'O'
aS'O'
aS'O'
aS'O'
aS'O'
aS'O'
aS'O'
aS'O'
aS'O'
aS'O'
aS'O'
aS'O'
aS'O'
aS'O'
aS'O'
aS'O'
aS'O'
aS'O'
aS'O'
aS'O'
aS'O'
aS'O'
aS'O'
aS'O'
aS'O'
aS'O'
aS'O'
aS'B-MISC'
p260
aS'I-MISC'
p261
aS'E-MISC'
p262
assb.