ccopy_reg
_reconstructor
p1
(c__main__
KBproperty
p2
c__builtin__
object
p3
NtRp4
(dp5
S'comment'
p6
S'A siginificant artifact constructed by the person.'
p7
sS'domain'
p8
S'Person '
p9
sS'instances_count'
p10
S'1366'
p11
sS'label'
p12
S'significant project'
p13
sS'range'
p14
S''
sS'prop_uri'
p15
S"'http://dbpedia.org/ontology/significantProject'"
p16
sS'annotations'
p17
(dp18
S'bag_of_words'
p19
(lp20
S'Person'
p21
aS'significant'
p22
aS'project'
p23
aS'A'
aS'siginificant'
p24
aS'artifact'
p25
aS'constructed'
p26
aS'by'
p27
aS'the'
p28
aS'person'
p29
aS'.'
asS'chunk_seq'
p30
(lp31
S'O'
aS'B-NP'
p32
aS'E-NP'
p33
aS'B-NP'
p34
aS'I-NP'
p35
aS'E-NP'
p36
aS'S-VP'
p37
aS'S-PP'
p38
aS'B-NP'
p39
aS'E-NP'
p40
aS'O'
asS'dep_seq'
p41
(lp42
(lp43
S'nn'
p44
aS'3'
aS'1'
aa(lp45
S'amod'
p46
aS'3'
aS'2'
aa(lp47
S'root'
p48
aS'0'
aS'3'
aa(lp49
S'det'
p50
aS'6'
aS'4'
aa(lp51
S'amod'
p52
aS'6'
aS'5'
aa(lp53
S'dep'
p54
aS'3'
aS'6'
aa(lp55
S'partmod'
p56
aS'3'
aS'7'
aa(lp57
S'det'
p58
aS'10'
p59
aS'9'
aa(lp60
S'agent'
p61
aS'7'
aS'10'
p62
aasS'srls'
p63
(lp64
(dp65
S'A1'
p66
S'A siginificant artifact'
p67
sS'A0'
p68
S'by the person'
p69
sS'V'
g26
sasS'pos_seq'
p70
(lp71
S'NN'
p72
aS'JJ'
p73
aS'NN'
p74
aS'DT'
p75
aS'JJ'
p76
aS'NN'
p77
aS'VBN'
p78
aS'IN'
p79
aS'DT'
p80
aS'NN'
p81
aS'.'
asS'ner_seq'
p82
(lp83
S'O'
aS'O'
aS'O'
aS'O'
aS'O'
aS'O'
aS'O'
aS'O'
aS'O'
aS'O'
aS'O'
assb.