ccopy_reg
_reconstructor
p1
(c__main__
KBproperty
p2
c__builtin__
object
p3
NtRp4
(dp5
S'comment'
p6
S'city where stand the administrative power'
p7
sS'domain'
p8
S'Populated Place '
p9
sS'instances_count'
p10
S'0'
sS'label'
p11
S'head city'
p12
sS'range'
p13
S'City '
p14
sS'prop_uri'
p15
S"'http://dbpedia.org/ontology/administrativeHeadCity'"
p16
sS'annotations'
p17
(dp18
S'bag_of_words'
p19
(lp20
S'Populated'
p21
aS'Place'
p22
aS'head'
p23
aS'city'
p24
aS'City'
p25
aS'city'
p26
aS'where'
p27
aS'stand'
p28
aS'the'
p29
aS'administrative'
p30
aS'power'
p31
asS'chunk_seq'
p32
(lp33
S'B-NP'
p34
aS'I-NP'
p35
aS'I-NP'
p36
aS'I-NP'
p37
aS'I-NP'
p38
aS'E-NP'
p39
aS'S-ADVP'
p40
aS'S-VP'
p41
aS'B-NP'
p42
aS'I-NP'
p43
aS'E-NP'
p44
asS'dep_seq'
p45
(lp46
(lp47
S'amod'
p48
aS'6'
aS'1'
aa(lp49
S'nn'
p50
aS'6'
aS'2'
aa(lp51
S'nn'
p52
aS'6'
aS'3'
aa(lp53
S'nn'
p54
aS'6'
aS'4'
aa(lp55
S'nn'
p56
aS'6'
aS'5'
aa(lp57
S'root'
p58
aS'0'
aS'6'
aa(lp59
S'advmod'
p60
aS'8'
aS'7'
aa(lp61
S'rcmod'
p62
aS'6'
aS'8'
aa(lp63
S'det'
p64
aS'11'
p65
aS'9'
aa(lp66
S'amod'
p67
aS'11'
p68
aS'10'
p69
aa(lp70
S'dobj'
p71
aS'8'
aS'11'
p72
aasS'srls'
p73
(lp74
(dp75
S'A1'
p76
S'the administrative power'
p77
sS'A2'
p78
S'Populated Place head city City city'
p79
sS'R-A2'
p80
g27
sS'V'
g28
sasS'pos_seq'
p81
(lp82
S'VBN'
p83
aS'NN'
p84
aS'NN'
p85
aS'NN'
p86
aS'NNP'
p87
aS'NN'
p88
aS'WRB'
p89
aS'VBP'
p90
aS'DT'
p91
aS'JJ'
p92
aS'NN'
p93
asS'ner_seq'
p94
(lp95
S'O'
aS'O'
aS'O'
aS'O'
aS'B-LOC'
p96
aS'E-LOC'
p97
aS'O'
aS'O'
aS'O'
aS'O'
aS'O'
assb.