ccopy_reg
_reconstructor
p1
(c__main__
KBproperty
p2
c__builtin__
object
p3
NtRp4
(dp5
S'comment'
p6
S'Date the play was first performed.'
p7
sS'domain'
p8
S'Play '
p9
sS'instances_count'
p10
S'1001'
p11
sS'label'
p12
S'premiere date'
p13
sS'range'
p14
S'date '
p15
sS'prop_uri'
p16
S"'http://dbpedia.org/ontology/premiereDate'"
p17
sS'annotations'
p18
(dp19
S'bag_of_words'
p20
(lp21
S'Play'
p22
aS'premiere'
p23
aS'date'
p24
aS'date'
p25
aS'Date'
p26
aS'the'
p27
aS'play'
p28
aS'was'
p29
aS'first'
p30
aS'performed'
p31
aS'.'
asS'chunk_seq'
p32
(lp33
S'S-VP'
p34
aS'B-NP'
p35
aS'E-NP'
p36
aS'B-NP'
p37
aS'E-NP'
p38
aS'B-NP'
p39
aS'E-NP'
p40
aS'B-VP'
p41
aS'I-VP'
p42
aS'E-VP'
p43
aS'O'
asS'dep_seq'
p44
(lp45
(lp46
S'dep'
p47
aS'10'
p48
aS'1'
aa(lp49
S'nn'
p50
aS'5'
aS'2'
aa(lp51
S'nn'
p52
aS'5'
aS'3'
aa(lp53
S'nn'
p54
aS'5'
aS'4'
aa(lp55
S'dobj'
p56
aS'1'
aS'5'
aa(lp57
S'det'
p58
aS'7'
aS'6'
aa(lp59
S'nsubjpass'
p60
aS'10'
p61
aS'7'
aa(lp62
S'auxpass'
p63
aS'10'
p64
aS'8'
aa(lp65
S'advmod'
p66
aS'10'
p67
aS'9'
aa(lp68
S'root'
p69
aS'0'
aS'10'
p70
aasS'srls'
p71
(lp72
(dp73
S'A1'
p74
S'premiere date date Date the play'
p75
sS'V'
g22
sa(dp76
S'AM-TMP'
p77
g30
sS'V'
g31
sasS'pos_seq'
p78
(lp79
S'VB'
p80
aS'NN'
p81
aS'NN'
p82
aS'NN'
p83
aS'NN'
p84
aS'DT'
p85
aS'NN'
p86
aS'VBD'
p87
aS'RB'
p88
aS'VBN'
p89
aS'.'
asS'ner_seq'
p90
(lp91
S'O'
aS'O'
aS'O'
aS'O'
aS'O'
aS'O'
aS'O'
aS'O'
aS'O'
aS'O'
aS'O'
assb.