ccopy_reg
_reconstructor
p1
(c__main__
KBproperty
p2
c__builtin__
object
p3
NtRp4
(dp5
S'comment'
p6
S'The duration of the item movie audio recording event etc. in ISO 8601 date format'
p7
sS'domain'
p8
S'Event '
p9
sS'instances_count'
p10
S'59'
p11
sS'label'
p12
S'duration s'
p13
sS'range'
p14
S'double '
p15
sS'prop_uri'
p16
S"'http://dbpedia.org/ontology/duration'"
p17
sS'annotations'
p18
(dp19
S'bag_of_words'
p20
(lp21
S'Event'
p22
aS'duration'
p23
aS's'
aS'double'
p24
aS'The'
p25
aS'duration'
p26
aS'of'
p27
aS'the'
p28
aS'item'
p29
aS'movie'
p30
aS'audio'
p31
aS'recording'
p32
aS'event'
p33
aS'etc.'
p34
aS'in'
p35
aS'ISO'
p36
aS'8601'
p37
aS'date'
p38
aS'format'
p39
asS'chunk_seq'
p40
(lp41
S'B-NP'
p42
aS'E-NP'
p43
aS'S-VP'
p44
aS'B-NP'
p45
aS'I-NP'
p46
aS'E-NP'
p47
aS'S-PP'
p48
aS'B-NP'
p49
aS'I-NP'
p50
aS'I-NP'
p51
aS'I-NP'
p52
aS'I-NP'
p53
aS'I-NP'
p54
aS'E-NP'
p55
aS'S-PP'
p56
aS'B-NP'
p57
aS'I-NP'
p58
aS'I-NP'
p59
aS'E-NP'
p60
asS'dep_seq'
p61
(lp62
(lp63
S'nn'
p64
aS'2'
aS'1'
aa(lp65
S'nsubj'
p66
aS'6'
aS'2'
aa(lp67
S'dep'
p68
aS'6'
aS'3'
aa(lp69
S'advmod'
p70
aS'6'
aS'4'
aa(lp71
S'det'
p72
aS'6'
aS'5'
aa(lp73
S'root'
p74
aS'0'
aS'6'
aa(lp75
S'det'
p76
aS'14'
p77
aS'8'
aa(lp78
S'nn'
p79
aS'14'
p80
aS'9'
aa(lp81
S'nn'
p82
aS'14'
p83
aS'10'
p84
aa(lp85
S'nn'
p86
aS'14'
p87
aS'11'
p88
aa(lp89
S'nn'
p90
aS'14'
p91
aS'12'
p92
aa(lp93
S'nn'
p94
aS'14'
p95
aS'13'
p96
aa(lp97
S'prep_of'
p98
aS'6'
aS'14'
p99
aa(lp100
S'nn'
p101
aS'19'
p102
aS'16'
p103
aa(lp104
S'num'
p105
aS'19'
p106
aS'17'
p107
aa(lp108
S'nn'
p109
aS'19'
p110
aS'18'
p111
aa(lp112
S'prep_in'
p113
aS'6'
aS'19'
p114
aasS'srls'
p115
(lp116
sS'pos_seq'
p117
(lp118
S'NN'
p119
aS'NN'
p120
aS'MD'
p121
aS'RB'
p122
aS'DT'
p123
aS'NN'
p124
aS'IN'
p125
aS'DT'
p126
aS'NN'
p127
aS'NN'
p128
aS'NN'
p129
aS'NN'
p130
aS'NN'
p131
aS'NN'
p132
aS'IN'
p133
aS'NNP'
p134
aS'CD'
p135
aS'NN'
p136
aS'NN'
p137
asS'ner_seq'
p138
(lp139
S'O'
aS'O'
aS'O'
aS'O'
aS'O'
aS'O'
aS'O'
aS'O'
aS'O'
aS'O'
aS'O'
aS'O'
aS'O'
aS'O'
aS'O'
aS'B-MISC'
p140
aS'E-MISC'
p141
aS'O'
aS'O'
assb.