ccopy_reg
_reconstructor
p1
(c__main__
KBproperty
p2
c__builtin__
object
p3
NtRp4
(dp5
S'comment'
p6
S'The subject of a non-fiction book e.g.: History Biography Cookbook Climate change ....'
p7
sS'domain'
p8
S'Written Work '
p9
sS'instances_count'
p10
S'7385'
p11
sS'label'
p12
S'non-fiction subject'
p13
sS'range'
p14
S''
sS'prop_uri'
p15
S"'http://dbpedia.org/ontology/nonFictionSubject'"
p16
sS'annotations'
p17
(dp18
S'bag_of_words'
p19
(lp20
S'Written'
p21
aS'Work'
p22
aS'non-fiction'
p23
aS'subject'
p24
aS'The'
p25
aS'subject'
p26
aS'of'
p27
aS'a'
aS'non-fiction'
p28
aS'book'
p29
aS'e.g.'
p30
aS':'
aS'History'
p31
aS'Biography'
p32
aS'Cookbook'
p33
aS'Climate'
p34
aS'change'
p35
aS'....'
p36
asS'chunk_seq'
p37
(lp38
S'B-NP'
p39
aS'I-NP'
p40
aS'I-NP'
p41
aS'E-NP'
p42
aS'B-NP'
p43
aS'E-NP'
p44
aS'S-PP'
p45
aS'B-NP'
p46
aS'I-NP'
p47
aS'E-NP'
p48
aS'S-ADVP'
p49
aS'O'
aS'B-NP'
p50
aS'I-NP'
p51
aS'I-NP'
p52
aS'I-NP'
p53
aS'E-NP'
p54
aS'O'
asS'dep_seq'
p55
(lp56
(lp57
S'nn'
p58
aS'4'
aS'1'
aa(lp59
S'nn'
p60
aS'4'
aS'2'
aa(lp61
S'amod'
p62
aS'4'
aS'fiction'
p63
aa(lp64
S'root'
p65
aS'0'
aS'4'
aa(lp66
S'det'
p67
aS'6'
aS'5'
aa(lp68
S'dep'
p69
aS'4'
aS'6'
aa(lp70
S'det'
p71
aS'10'
p72
aS'8'
aa(lp73
S'amod'
p74
aS'10'
p75
aS'fiction'
p76
aa(lp77
S'prep_of'
p78
aS'6'
aS'10'
p79
aa(lp80
S'advmod'
p81
aS'10'
p82
aS'11'
p83
aa(lp84
S'nn'
p85
aS'17'
p86
aS'13'
p87
aa(lp88
S'nn'
p89
aS'17'
p90
aS'14'
p91
aa(lp92
S'nn'
p93
aS'17'
p94
aS'15'
p95
aa(lp96
S'nn'
p97
aS'17'
p98
aS'16'
p99
aa(lp100
S'dep'
p101
aS'4'
aS'17'
p102
aa(lp103
S'punct'
p104
aS'17'
p105
aS'18'
p106
aasS'srls'
p107
(lp108
(dp109
S'A0'
p110
g24
sS'V'
g23
sasS'pos_seq'
p111
(lp112
S'NNP'
p113
aS'NNP'
p114
aS'JJ'
p115
aS'NN'
p116
aS'DT'
p117
aS'NN'
p118
aS'IN'
p119
aS'DT'
p120
aS'JJ'
p121
aS'NN'
p122
aS'RB'
p123
aS':'
aS'NNP'
p124
aS'NNP'
p125
aS'NNP'
p126
aS'NNP'
p127
aS'NN'
p128
aS'.'
asS'ner_seq'
p129
(lp130
S'O'
aS'O'
aS'O'
aS'O'
aS'O'
aS'O'
aS'O'
aS'O'
aS'O'
aS'O'
aS'O'
aS'O'
aS'B-MISC'
p131
aS'I-MISC'
p132
aS'I-MISC'
p133
aS'E-MISC'
p134
aS'O'
aS'O'
assb.