ccopy_reg
_reconstructor
p1
(c__main__
KBproperty
p2
c__builtin__
object
p3
NtRp4
(dp5
S'comment'
p6
S'End of the route. For U.S. roads this should be either "South" or "West" per the standards set by the U.S. Roads project.'
p7
sS'domain'
p8
S'Route Of Transportation '
p9
sS'instances_count'
p10
S'15602'
p11
sS'label'
p12
S'road start direction'
p13
sS'range'
p14
S'string '
p15
sS'prop_uri'
p16
S"'http://dbpedia.org/ontology/routeStartDirection'"
p17
sS'annotations'
p18
(dp19
S'bag_of_words'
p20
(lp21
S'Route'
p22
aS'Of'
p23
aS'Transportation'
p24
aS'road'
p25
aS'start'
p26
aS'direction'
p27
aS'string'
p28
aS'End'
p29
aS'of'
p30
aS'the'
p31
aS'route'
p32
aS'.'
aS'For'
p33
aS'U.S.'
p34
aS'roads'
p35
aS'this'
p36
aS'should'
p37
aS'be'
p38
aS'either'
p39
aS'"'
aS'South'
p40
aS'"'
aS'or'
p41
aS'"'
aS'West'
p42
aS'"'
aS'per'
p43
aS'the'
p44
aS'standards'
p45
aS'set'
p46
aS'by'
p47
aS'the'
p48
aS'U.S.'
p49
aS'Roads'
p50
aS'project'
p51
aS'.'
asS'chunk_seq'
p52
(lp53
S'S-NP'
p54
aS'S-PP'
p55
aS'B-NP'
p56
aS'E-NP'
p57
aS'S-VP'
p58
aS'B-NP'
p59
aS'I-NP'
p60
aS'E-NP'
p61
aS'S-PP'
p62
aS'B-NP'
p63
aS'E-NP'
p64
aS'O'
aS'S-PP'
p65
aS'B-NP'
p66
aS'E-NP'
p67
aS'S-NP'
p68
aS'B-VP'
p69
aS'E-VP'
p70
aS'O'
aS'O'
aS'O'
aS'O'
aS'O'
aS'O'
aS'O'
aS'O'
aS'S-PP'
p71
aS'B-NP'
p72
aS'E-NP'
p73
aS'S-VP'
p74
aS'S-PP'
p75
aS'B-NP'
p76
aS'I-NP'
p77
aS'I-NP'
p78
aS'E-NP'
p79
aS'O'
asS'dep_seq'
p80
(lp81
(lp82
S'nn'
p83
aS'4'
aS'1'
aa(lp84
S'prep_of'
p85
aS'4'
aS'3'
aa(lp86
S'nsubj'
p87
aS'5'
aS'4'
aa(lp88
S'ccomp'
p89
aS'21'
p90
aS'5'
aa(lp91
S'nn'
p92
aS'7'
aS'6'
aa(lp93
S'dobj'
p94
aS'5'
aS'7'
aa(lp95
S'dep'
p96
aS'7'
aS'8'
aa(lp97
S'det'
p98
aS'11'
p99
aS'10'
p100
aa(lp101
S'prep_of'
p102
aS'8'
aS'11'
p103
aa(lp104
S'nn'
p105
aS'15'
p106
aS'14'
p107
aa(lp108
S'prep_for'
p109
aS'21'
p110
aS'15'
p111
aa(lp112
S'nsubj'
p113
aS'21'
p114
aS'16'
p115
aa(lp116
S'aux'
p117
aS'21'
p118
aS'17'
p119
aa(lp120
S'cop'
p121
aS'21'
p122
aS'18'
p123
aa(lp124
S'dep'
p125
aS'21'
p126
aS'19'
p127
aa(lp128
S'dep'
p129
aS'21'
p130
aS'20'
p131
aa(lp132
S'root'
p133
aS'0'
aS'21'
p134
aa(lp135
S'nn'
p136
aS'21'
p137
aS'22'
p138
aa(lp139
S'nn'
p140
aS'21'
p141
aS'23'
p142
aa(lp143
S'nn'
p144
aS'21'
p145
aS'24'
p146
aa(lp147
S'dep'
p148
aS'21'
p149
aS'25'
p150
aa(lp151
S'dep'
p152
aS'21'
p153
aS'26'
p154
aa(lp155
S'det'
p156
aS'29'
p157
aS'28'
p158
aa(lp159
S'prep_per'
p160
aS'21'
p161
aS'29'
p162
aa(lp163
S'partmod'
p164
aS'29'
p165
aS'30'
p166
aa(lp167
S'det'
p168
aS'35'
p169
aS'32'
p170
aa(lp171
S'nn'
p172
aS'35'
p173
aS'33'
p174
aa(lp175
S'nn'
p176
aS'35'
p177
aS'34'
p178
aa(lp179
S'agent'
p180
aS'30'
p181
aS'35'
p182
aasS'srls'
p183
(lp184
(dp185
S'A1'
p186
S'direction string End of the route'
p187
sS'A0'
p188
S'Route Of Transportation road'
p189
sS'AM-LOC'
p190
S'For U.S. roads this should be either " South " or " West " per the standards set by the U.S. Roads project'
p191
sS'V'
g26
sa(dp192
S'A1'
p193
S'the standards'
p194
sS'A0'
p195
S'by the U.S. Roads project'
p196
sS'V'
g46
sasS'pos_seq'
p197
(lp198
S'NNP'
p199
aS'IN'
p200
aS'NNP'
p201
aS'NN'
p202
aS'VBP'
p203
aS'NN'
p204
aS'NN'
p205
aS'NN'
p206
aS'IN'
p207
aS'DT'
p208
aS'NN'
p209
aS'.'
aS'IN'
p210
aS'NNP'
p211
aS'NNS'
p212
aS'DT'
p213
aS'MD'
p214
aS'VB'
p215
aS'DT'
p216
aS'FW'
p217
aS'FW'
p218
aS'FW'
p219
aS'FW'
p220
aS'FW'
p221
aS'FW'
p222
aS'FW'
p223
aS'IN'
p224
aS'DT'
p225
aS'NNS'
p226
aS'VBN'
p227
aS'IN'
p228
aS'DT'
p229
aS'NNP'
p230
aS'NNP'
p231
aS'NN'
p232
aS'.'
asS'ner_seq'
p233
(lp234
S'B-ORG'
p235
aS'I-ORG'
p236
aS'E-ORG'
p237
aS'O'
aS'O'
aS'O'
aS'O'
aS'O'
aS'O'
aS'O'
aS'O'
aS'O'
aS'O'
aS'S-LOC'
p238
aS'O'
aS'O'
aS'O'
aS'O'
aS'O'
aS'O'
aS'S-MISC'
p239
aS'O'
aS'O'
aS'O'
aS'O'
aS'O'
aS'O'
aS'O'
aS'O'
aS'O'
aS'O'
aS'O'
aS'S-LOC'
p240
aS'O'
aS'O'
aS'O'
assb.