ccopy_reg
_reconstructor
p1
(c__main__
KBproperty
p2
c__builtin__
object
p3
NtRp4
(dp5
S'comment'
p6
S'mean radius \\xce\\xbc'
p7
sS'domain'
p8
S'Planet '
p9
sS'instances_count'
p10
S'45'
p11
sS'label'
p12
g7
sS'range'
p13
S'double '
p14
sS'prop_uri'
p15
S"'http://dbpedia.org/ontology/meanRadius'"
p16
sS'annotations'
p17
(dp18
S'bag_of_words'
p19
(lp20
S'Planet'
p21
aS'mean'
p22
aS'Radius'
p23
aS'double'
p24
aS'mean'
p25
aS'radius'
p26
aS'\\'
aS'xce'
p27
aS'\\'
aS'xbc'
p28
asS'chunk_seq'
p29
(lp30
S'S-NP'
p31
aS'S-VP'
p32
aS'B-NP'
p33
aS'I-NP'
p34
aS'I-NP'
p35
aS'E-NP'
p36
aS'O'
aS'O'
aS'O'
aS'O'
asS'dep_seq'
p37
(lp38
(lp39
S'nn'
p40
aS'6'
aS'1'
aa(lp41
S'dep'
p42
aS'6'
aS'2'
aa(lp43
S'nn'
p44
aS'6'
aS'3'
aa(lp45
S'amod'
p46
aS'6'
aS'4'
aa(lp47
S'amod'
p48
aS'6'
aS'5'
aa(lp49
S'root'
p50
aS'0'
aS'6'
aa(lp51
S'nn'
p52
aS'6'
aS'7'
aa(lp53
S'nn'
p54
aS'6'
aS'8'
aa(lp55
S'nn'
p56
aS'6'
aS'9'
aa(lp57
S'dep'
p58
aS'6'
aS'10'
p59
aasS'srls'
p60
(lp61
(dp62
S'A1'
p63
S'Radius double mean radius \\ xce \\ xbc'
p64
sS'A0'
p65
g21
sS'V'
g22
sasS'pos_seq'
p66
(lp67
S'NN'
p68
aS'VBP'
p69
aS'NN'
p70
aS'JJ'
p71
aS'JJ'
p72
aS'NN'
p73
aS'FW'
p74
aS'FW'
p75
aS'FW'
p76
aS'FW'
p77
asS'ner_seq'
p78
(lp79
S'O'
aS'O'
aS'O'
aS'O'
aS'O'
aS'O'
aS'O'
aS'O'
aS'O'
aS'O'
assb.