ccopy_reg
_reconstructor
p1
(c__main__
KBproperty
p2
c__builtin__
object
p3
NtRp4
(dp5
S'comment'
p6
S'something especially a person or animal used to symbolize a sports team company organization or other group.'
p7
sS'domain'
p8
S''
sS'instances_count'
p9
S'14715'
p10
sS'label'
p11
S'mascot'
p12
sS'range'
p13
S'string '
p14
sS'prop_uri'
p15
S"'http://dbpedia.org/ontology/mascot'"
p16
sS'annotations'
p17
(dp18
S'bag_of_words'
p19
(lp20
S'mascot'
p21
aS'string'
p22
aS'something'
p23
aS'especially'
p24
aS'a'
aS'person'
p25
aS'or'
p26
aS'animal'
p27
aS'used'
p28
aS'to'
p29
aS'symbolize'
p30
aS'a'
aS'sports'
p31
aS'team'
p32
aS'company'
p33
aS'organization'
p34
aS'or'
p35
aS'other'
p36
aS'group'
p37
aS'.'
asS'chunk_seq'
p38
(lp39
S'B-NP'
p40
aS'E-NP'
p41
aS'S-NP'
p42
aS'S-ADVP'
p43
aS'B-NP'
p44
aS'I-NP'
p45
aS'I-NP'
p46
aS'E-NP'
p47
aS'B-VP'
p48
aS'I-VP'
p49
aS'E-VP'
p50
aS'B-NP'
p51
aS'I-NP'
p52
aS'I-NP'
p53
aS'I-NP'
p54
aS'E-NP'
p55
aS'O'
aS'B-NP'
p56
aS'E-NP'
p57
aS'O'
asS'dep_seq'
p58
(lp59
(lp60
S'nn'
p61
aS'2'
aS'1'
aa(lp62
S'root'
p63
aS'0'
aS'2'
aa(lp64
S'dep'
p65
aS'2'
aS'3'
aa(lp66
S'advmod'
p67
aS'3'
aS'4'
aa(lp68
S'det'
p69
aS'6'
aS'5'
aa(lp70
S'dep'
p71
aS'3'
aS'6'
aa(lp72
S'conj_or'
p73
aS'6'
aS'8'
aa(lp74
S'partmod'
p75
aS'3'
aS'9'
aa(lp76
S'aux'
p77
aS'11'
p78
aS'10'
p79
aa(lp80
S'xcomp'
p81
aS'9'
aS'11'
p82
aa(lp83
S'det'
p84
aS'16'
p85
aS'12'
p86
aa(lp87
S'nn'
p88
aS'16'
p89
aS'13'
p90
aa(lp91
S'nn'
p92
aS'16'
p93
aS'14'
p94
aa(lp95
S'nn'
p96
aS'16'
p97
aS'15'
p98
aa(lp99
S'dobj'
p100
aS'11'
p101
aS'16'
p102
aa(lp103
S'amod'
p104
aS'19'
p105
aS'18'
p106
aa(lp107
S'conj_or'
p108
aS'16'
p109
aS'19'
p110
aasS'srls'
p111
(lp112
(dp113
S'A1'
p114
S'a person or animal'
p115
sS'V'
g28
sa(dp116
S'A1'
p117
S'a sports team company organization or other group'
p118
sS'A0'
p119
S'a person or animal'
p120
sS'V'
g30
sasS'pos_seq'
p121
(lp122
S'NN'
p123
aS'NN'
p124
aS'NN'
p125
aS'RB'
p126
aS'DT'
p127
aS'NN'
p128
aS'CC'
p129
aS'NN'
p130
aS'VBN'
p131
aS'TO'
p132
aS'VB'
p133
aS'DT'
p134
aS'NNS'
p135
aS'NN'
p136
aS'NN'
p137
aS'NN'
p138
aS'CC'
p139
aS'JJ'
p140
aS'NN'
p141
aS'.'
asS'ner_seq'
p142
(lp143
S'O'
aS'O'
aS'O'
aS'O'
aS'O'
aS'O'
aS'O'
aS'O'
aS'O'
aS'O'
aS'O'
aS'O'
aS'O'
aS'O'
aS'O'
aS'O'
aS'O'
aS'O'
aS'O'
aS'O'
assb.