ccopy_reg
_reconstructor
p1
(c__main__
KBproperty
p2
c__builtin__
object
p3
NtRp4
(dp5
S'comment'
p6
S'reflection coefficient'
p7
sS'domain'
p8
S'Planet '
p9
sS'instances_count'
p10
S'1600'
p11
sS'label'
p12
S'albedo'
p13
sS'range'
p14
S'double '
p15
sS'prop_uri'
p16
S"'http://dbpedia.org/ontology/albedo'"
p17
sS'annotations'
p18
(dp19
S'bag_of_words'
p20
(lp21
S'Planet'
p22
aS'albedo'
p23
aS'double'
p24
aS'reflection'
p25
aS'coefficient'
p26
asS'chunk_seq'
p27
(lp28
S'B-NP'
p29
aS'I-NP'
p30
aS'I-NP'
p31
aS'I-NP'
p32
aS'E-NP'
p33
asS'dep_seq'
p34
(lp35
(lp36
S'nn'
p37
aS'2'
aS'1'
aa(lp38
S'root'
p39
aS'0'
aS'2'
aa(lp40
S'amod'
p41
aS'5'
aS'3'
aa(lp42
S'nn'
p43
aS'5'
aS'4'
aa(lp44
S'dep'
p45
aS'2'
aS'5'
aasS'srls'
p46
(lp47
sS'pos_seq'
p48
(lp49
S'NN'
p50
aS'NN'
p51
aS'JJ'
p52
aS'NN'
p53
aS'NN'
p54
asS'ner_seq'
p55
(lp56
S'O'
aS'O'
aS'O'
aS'O'
aS'O'
assb.