ccopy_reg
_reconstructor
p1
(c__main__
KBproperty
p2
c__builtin__
object
p3
NtRp4
(dp5
S'comment'
p6
S'Complexity of preparing a Food recipe'
p7
sS'domain'
p8
S'Food '
p9
sS'instances_count'
p10
S'3'
sS'label'
p11
S'complexity'
p12
sS'range'
p13
S'string '
p14
sS'prop_uri'
p15
S"'http://dbpedia.org/ontology/complexity'"
p16
sS'annotations'
p17
(dp18
S'bag_of_words'
p19
(lp20
S'Food'
p21
aS'complexity'
p22
aS'string'
p23
aS'Complexity'
p24
aS'of'
p25
aS'preparing'
p26
aS'a'
aS'Food'
p27
aS'recipe'
p28
asS'chunk_seq'
p29
(lp30
S'B-NP'
p31
aS'I-NP'
p32
aS'I-NP'
p33
aS'E-NP'
p34
aS'S-PP'
p35
aS'S-VP'
p36
aS'B-NP'
p37
aS'I-NP'
p38
aS'E-NP'
p39
asS'dep_seq'
p40
(lp41
(lp42
S'nn'
p43
aS'4'
aS'1'
aa(lp44
S'nn'
p45
aS'4'
aS'2'
aa(lp46
S'nn'
p47
aS'4'
aS'3'
aa(lp48
S'root'
p49
aS'0'
aS'4'
aa(lp50
S'prepc_of'
p51
aS'4'
aS'6'
aa(lp52
S'det'
p53
aS'9'
aS'7'
aa(lp54
S'nn'
p55
aS'9'
aS'8'
aa(lp56
S'dobj'
p57
aS'6'
aS'9'
aasS'srls'
p58
(lp59
(dp60
S'A1'
p61
S'a Food recipe'
p62
sS'A0'
p63
g21
sS'V'
g26
sasS'pos_seq'
p64
(lp65
S'NN'
p66
aS'NN'
p67
aS'NN'
p68
aS'NN'
p69
aS'IN'
p70
aS'VBG'
p71
aS'DT'
p72
aS'NNP'
p73
aS'NN'
p74
asS'ner_seq'
p75
(lp76
S'O'
aS'O'
aS'O'
aS'O'
aS'O'
aS'O'
aS'O'
aS'O'
aS'O'
assb.