ccopy_reg
_reconstructor
p1
(c__main__
KBproperty
p2
c__builtin__
object
p3
NtRp4
(dp5
S'comment'
p6
S''
sS'domain'
p7
S'Penalty Shoot Out '
p8
sS'instances_count'
p9
S'0'
sS'label'
p10
S'penalty score'
p11
sS'range'
p12
S'integer '
p13
sS'prop_uri'
p14
S"'http://dbpedia.org/ontology/penaltyScore'"
p15
sS'annotations'
p16
(dp17
S'bag_of_words'
p18
(lp19
S'Penalty'
p20
aS'Shoot'
p21
aS'Out'
p22
aS'penalty'
p23
aS'score'
p24
aS'integer'
p25
asS'chunk_seq'
p26
(lp27
S'S-NP'
p28
aS'S-VP'
p29
aS'B-NP'
p30
aS'I-NP'
p31
aS'I-NP'
p32
aS'E-NP'
p33
asS'dep_seq'
p34
(lp35
(lp36
S'nsubj'
p37
aS'2'
aS'1'
aa(lp38
S'root'
p39
aS'0'
aS'2'
aa(lp40
S'advmod'
p41
aS'2'
aS'3'
aa(lp42
S'nn'
p43
aS'6'
aS'4'
aa(lp44
S'nn'
p45
aS'6'
aS'5'
aa(lp46
S'dobj'
p47
aS'2'
aS'6'
aasS'srls'
p48
(lp49
(dp50
S'A1'
p51
S'penalty score integer'
p52
sS'A0'
p53
g20
sS'V'
S'Shoot Out'
p54
sasS'pos_seq'
p55
(lp56
S'NN'
p57
aS'VB'
p58
aS'JJ'
p59
aS'NN'
p60
aS'NN'
p61
aS'NN'
p62
asS'ner_seq'
p63
(lp64
S'O'
aS'O'
aS'O'
aS'O'
aS'O'
aS'O'
assb.