ccopy_reg
_reconstructor
p1
(c__main__
KBproperty
p2
c__builtin__
object
p3
NtRp4
(dp5
S'comment'
p6
S''
sS'domain'
p7
S'Place '
p8
sS'instances_count'
p9
S'0'
sS'label'
p10
S'depths'
p11
sS'range'
p12
S'Depth '
p13
sS'prop_uri'
p14
S"'http://dbpedia.org/ontology/depths'"
p15
sS'annotations'
p16
(dp17
S'bag_of_words'
p18
(lp19
S'Place'
p20
aS'depths'
p21
aS'Depth'
p22
asS'chunk_seq'
p23
(lp24
S'S-NP'
p25
aS'S-VP'
p26
aS'S-NP'
p27
asS'dep_seq'
p28
(lp29
(lp30
S'root'
p31
aS'0'
aS'1'
aa(lp32
S'dep'
p33
aS'3'
aS'2'
aa(lp34
S'dep'
p35
aS'1'
aS'3'
aasS'srls'
p36
(lp37
sS'pos_seq'
p38
(lp39
S'NN'
p40
aS'VBZ'
p41
aS'NN'
p42
asS'ner_seq'
p43
(lp44
S'O'
aS'O'
aS'O'
assb.