ccopy_reg
_reconstructor
p1
(c__main__
KBproperty
p2
c__builtin__
object
p3
NtRp4
(dp5
S'comment'
p6
S''
sS'domain'
p7
S''
sS'instances_count'
p8
S'144924'
p9
sS'label'
p10
S'active years end year'
p11
sS'range'
p12
S'g Year '
p13
sS'prop_uri'
p14
S"'http://dbpedia.org/ontology/activeYearsEndYear'"
p15
sS'annotations'
p16
(dp17
S'bag_of_words'
p18
(lp19
S'active'
p20
aS'years'
p21
aS'end'
p22
aS'year'
p23
aS'g'
aS'Year'
p24
asS'chunk_seq'
p25
(lp26
S'B-NP'
p27
aS'E-NP'
p28
aS'S-VP'
p29
aS'B-NP'
p30
aS'I-NP'
p31
aS'E-NP'
p32
asS'dep_seq'
p33
(lp34
(lp35
S'amod'
p36
aS'2'
aS'1'
aa(lp37
S'nsubj'
p38
aS'3'
aS'2'
aa(lp39
S'root'
p40
aS'0'
aS'3'
aa(lp41
S'nn'
p42
aS'6'
aS'4'
aa(lp43
S'nn'
p44
aS'6'
aS'5'
aa(lp45
S'tmod'
p46
aS'3'
aS'6'
aasS'srls'
p47
(lp48
(dp49
S'A1'
p50
S'active years'
p51
sS'A2'
p52
S'year g Year'
p53
sS'V'
g22
sasS'pos_seq'
p54
(lp55
S'JJ'
p56
aS'NNS'
p57
aS'VBP'
p58
aS'NN'
p59
aS'NN'
p60
aS'NN'
p61
asS'ner_seq'
p62
(lp63
S'O'
aS'O'
aS'O'
aS'O'
aS'O'
aS'O'
assb.