ccopy_reg
_reconstructor
p1
(c__main__
KBproperty
p2
c__builtin__
object
p3
NtRp4
(dp5
S'comment'
p6
S'This property is to accommodate the list field that contains a list of related personFunctions a person holds or has held'
p7
sS'domain'
p8
S'Person '
p9
sS'instances_count'
p10
S'0'
sS'label'
p11
S'related functions'
p12
sS'range'
p13
S'List '
p14
sS'prop_uri'
p15
S"'http://dbpedia.org/ontology/relatedFunctions'"
p16
sS'annotations'
p17
(dp18
S'bag_of_words'
p19
(lp20
S'Person'
p21
aS'related'
p22
aS'functions'
p23
aS'List'
p24
aS'This'
p25
aS'property'
p26
aS'is'
p27
aS'to'
p28
aS'accommodate'
p29
aS'the'
p30
aS'list'
p31
aS'field'
p32
aS'that'
p33
aS'contains'
p34
aS'a'
aS'list'
p35
aS'of'
p36
aS'related'
p37
aS'personFunctions'
p38
aS'a'
aS'person'
p39
aS'holds'
p40
aS'or'
p41
aS'has'
p42
aS'held'
p43
asS'chunk_seq'
p44
(lp45
S'B-NP'
p46
aS'I-NP'
p47
aS'I-NP'
p48
aS'E-NP'
p49
aS'B-NP'
p50
aS'E-NP'
p51
aS'S-VP'
p52
aS'B-VP'
p53
aS'E-VP'
p54
aS'B-NP'
p55
aS'I-NP'
p56
aS'E-NP'
p57
aS'S-NP'
p58
aS'S-VP'
p59
aS'B-NP'
p60
aS'E-NP'
p61
aS'S-PP'
p62
aS'B-NP'
p63
aS'E-NP'
p64
aS'B-NP'
p65
aS'E-NP'
p66
aS'S-VP'
p67
aS'O'
aS'B-VP'
p68
aS'E-VP'
p69
asS'dep_seq'
p70
(lp71
(lp72
S'nn'
p73
aS'4'
aS'1'
aa(lp74
S'amod'
p75
aS'4'
aS'2'
aa(lp76
S'nn'
p77
aS'4'
aS'3'
aa(lp78
S'nsubj'
p79
aS'7'
aS'4'
aa(lp80
S'xsubj'
p81
aS'9'
aS'4'
aa(lp82
S'det'
p83
aS'6'
aS'5'
aa(lp84
S'nsubj'
p85
aS'7'
aS'6'
aa(lp86
S'xsubj'
p87
aS'9'
aS'6'
aa(lp88
S'root'
p89
aS'0'
aS'7'
aa(lp90
S'aux'
p91
aS'9'
aS'8'
aa(lp92
S'xcomp'
p93
aS'7'
aS'9'
aa(lp94
S'det'
p95
aS'12'
p96
aS'10'
p97
aa(lp98
S'nn'
p99
aS'12'
p100
aS'11'
p101
aa(lp102
S'nsubj'
p103
aS'14'
p104
aS'12'
p105
aa(lp106
S'nsubj'
p107
aS'22'
p108
aS'12'
p109
aa(lp110
S'rcmod'
p111
aS'12'
p112
aS'14'
p113
aa(lp114
S'det'
p115
aS'16'
p116
aS'15'
p117
aa(lp118
S'dobj'
p119
aS'14'
p120
aS'16'
p121
aa(lp122
S'iobj'
p123
aS'14'
p124
aS'16'
p125
aa(lp126
S'amod'
p127
aS'19'
p128
aS'18'
p129
aa(lp130
S'prep_of'
p131
aS'16'
p132
aS'19'
p133
aa(lp134
S'det'
p135
aS'21'
p136
aS'20'
p137
aa(lp138
S'dep'
p139
aS'16'
p140
aS'21'
p141
aa(lp142
S'ccomp'
p143
aS'9'
aS'22'
p144
aa(lp145
S'aux'
p146
aS'25'
p147
aS'24'
p148
aa(lp149
S'conj_or'
p150
aS'22'
p151
aS'25'
p152
aasS'srls'
p153
(lp154
(dp155
S'A1'
p156
S'Person functions'
p157
sS'V'
g22
sa(dp158
S'A1'
p159
S'the list field that contains a list of related personFunctions a person holds or has held'
p160
sS'A0'
p161
S'Person related functions List This property'
p162
sS'V'
g29
sa(dp163
S'A1'
p164
S'a list of related personFunctions a person holds or has held'
p165
sS'A0'
p166
S'the list field'
p167
sS'R-A0'
p168
g33
sS'V'
g34
sa(dp169
S'A1'
p170
g38
sS'V'
g37
sasS'pos_seq'
p171
(lp172
S'NN'
p173
aS'VBN'
p174
aS'NNS'
p175
aS'NN'
p176
aS'DT'
p177
aS'NN'
p178
aS'VBZ'
p179
aS'TO'
p180
aS'VB'
p181
aS'DT'
p182
aS'NN'
p183
aS'NN'
p184
aS'WDT'
p185
aS'VBZ'
p186
aS'DT'
p187
aS'NN'
p188
aS'IN'
p189
aS'JJ'
p190
aS'NNS'
p191
aS'DT'
p192
aS'NN'
p193
aS'VBZ'
p194
aS'CC'
p195
aS'VBZ'
p196
aS'VBN'
p197
asS'ner_seq'
p198
(lp199
S'O'
aS'O'
aS'O'
aS'O'
aS'O'
aS'O'
aS'O'
aS'O'
aS'O'
aS'O'
aS'O'
aS'O'
aS'O'
aS'O'
aS'O'
aS'O'
aS'O'
aS'O'
aS'S-PER'
p200
aS'O'
aS'O'
aS'O'
aS'O'
aS'O'
aS'O'
assb.