ccopy_reg
_reconstructor
p1
(c__main__
KBproperty
p2
c__builtin__
object
p3
NtRp4
(dp5
S'comment'
p6
S'The original name of the entity e.g. film settlement etc.'
p7
sS'domain'
p8
S''
sS'instances_count'
p9
S'0'
sS'label'
p10
S'original name'
p11
sS'range'
p12
S'lang String '
p13
sS'prop_uri'
p14
S"'http://dbpedia.org/ontology/originalName'"
p15
sS'annotations'
p16
(dp17
S'bag_of_words'
p18
(lp19
S'original'
p20
aS'name'
p21
aS'lang'
p22
aS'String'
p23
aS'The'
p24
aS'original'
p25
aS'name'
p26
aS'of'
p27
aS'the'
p28
aS'entity'
p29
aS'e.g.'
p30
aS'film'
p31
aS'settlement'
p32
aS'etc.'
p33
asS'chunk_seq'
p34
(lp35
S'B-NP'
p36
aS'I-NP'
p37
aS'I-NP'
p38
aS'E-NP'
p39
aS'B-NP'
p40
aS'I-NP'
p41
aS'E-NP'
p42
aS'S-PP'
p43
aS'B-NP'
p44
aS'E-NP'
p45
aS'S-PP'
p46
aS'B-NP'
p47
aS'E-NP'
p48
aS'O'
asS'dep_seq'
p49
(lp50
(lp51
S'amod'
p52
aS'4'
aS'1'
aa(lp53
S'nn'
p54
aS'4'
aS'2'
aa(lp55
S'amod'
p56
aS'4'
aS'3'
aa(lp57
S'dep'
p58
aS'7'
aS'4'
aa(lp59
S'det'
p60
aS'7'
aS'5'
aa(lp61
S'amod'
p62
aS'7'
aS'6'
aa(lp63
S'root'
p64
aS'0'
aS'7'
aa(lp65
S'det'
p66
aS'10'
p67
aS'9'
aa(lp68
S'prep_of'
p69
aS'7'
aS'10'
p70
aa(lp71
S'nn'
p72
aS'13'
p73
aS'12'
p74
aa(lp75
S'prep_e.g.'
p76
aS'7'
aS'13'
p77
aa(lp78
S'punct'
p79
aS'7'
aS'14'
p80
aasS'srls'
p81
(lp82
sS'pos_seq'
p83
(lp84
S'JJ'
p85
aS'NN'
p86
aS'VBG'
p87
aS'NN'
p88
aS'DT'
p89
aS'JJ'
p90
aS'NN'
p91
aS'IN'
p92
aS'DT'
p93
aS'NN'
p94
aS'IN'
p95
aS'NN'
p96
aS'NN'
p97
aS'.'
asS'ner_seq'
p98
(lp99
S'O'
aS'O'
aS'B-PER'
p100
aS'E-PER'
p101
aS'O'
aS'O'
aS'O'
aS'O'
aS'O'
aS'O'
aS'O'
aS'O'
aS'O'
aS'O'
assb.