ccopy_reg
_reconstructor
p1
(c__main__
KBproperty
p2
c__builtin__
object
p3
NtRp4
(dp5
S'comment'
p6
S''
sS'domain'
p7
S''
sS'instances_count'
p8
S'235'
p9
sS'label'
p10
S'area ha'
p11
sS'range'
p12
S''
sS'prop_uri'
p13
S"'http://dbpedia.org/property/areaHa'"
p14
sS'annotations'
p15
(dp16
S'bag_of_words'
p17
(lp18
S'area'
p19
aS'ha'
p20
asS'chunk_seq'
p21
(lp22
S'O'
aS'O'
asS'dep_seq'
p23
(lp24
(lp25
S'root'
p26
aS'0'
aS'1'
aa(lp27
S'punct'
p28
aS'1'
aS'2'
aasS'srls'
p29
(lp30
sS'pos_seq'
p31
(lp32
S'NN'
p33
aS'.'
asS'ner_seq'
p34
(lp35
S'O'
aS'O'
assb.