ccopy_reg
_reconstructor
p1
(c__main__
KBproperty
p2
c__builtin__
object
p3
NtRp4
(dp5
S'comment'
p6
S''
sS'domain'
p7
S'Formula One Racer '
p8
sS'instances_count'
p9
S'92'
p10
sS'label'
p11
S'first win'
p12
sS'range'
p13
S'Grand Prix '
p14
sS'prop_uri'
p15
S"'http://dbpedia.org/ontology/firstWin'"
p16
sS'annotations'
p17
(dp18
S'bag_of_words'
p19
(lp20
S'Formula'
p21
aS'One'
p22
aS'Racer'
p23
aS'first'
p24
aS'win'
p25
aS'Grand'
p26
aS'Prix'
p27
asS'chunk_seq'
p28
(lp29
S'B-NP'
p30
aS'I-NP'
p31
aS'E-NP'
p32
aS'S-ADVP'
p33
aS'S-VP'
p34
aS'B-NP'
p35
aS'E-NP'
p36
asS'dep_seq'
p37
(lp38
(lp39
S'root'
p40
aS'0'
aS'1'
aa(lp41
S'num'
p42
aS'3'
aS'2'
aa(lp43
S'nsubj'
p44
aS'5'
aS'3'
aa(lp45
S'advmod'
p46
aS'5'
aS'4'
aa(lp47
S'ccomp'
p48
aS'1'
aS'5'
aa(lp49
S'nn'
p50
aS'7'
aS'6'
aa(lp51
S'dobj'
p52
aS'5'
aS'7'
aasS'srls'
p53
(lp54
(dp55
S'A1'
p56
S'Grand Prix'
p57
sS'A0'
p58
S'Formula One Racer'
p59
sS'AM-TMP'
p60
g24
sS'V'
g25
sasS'pos_seq'
p61
(lp62
S'NN'
p63
aS'CD'
p64
aS'NNP'
p65
aS'RB'
p66
aS'VB'
p67
aS'NNP'
p68
aS'NNP'
p69
asS'ner_seq'
p70
(lp71
S'O'
aS'O'
aS'S-ORG'
p72
aS'O'
aS'O'
aS'B-MISC'
p73
aS'E-MISC'
p74
assb.