ccopy_reg
_reconstructor
p1
(c__main__
KBproperty
p2
c__builtin__
object
p3
NtRp4
(dp5
S'comment'
p6
S''
sS'domain'
p7
S'Historic Place '
p8
sS'instances_count'
p9
S'52432'
p10
sS'label'
p11
S'added'
p12
sS'range'
p13
S'date '
p14
sS'prop_uri'
p15
S"'http://dbpedia.org/ontology/added'"
p16
sS'annotations'
p17
(dp18
S'bag_of_words'
p19
(lp20
S'Historic'
p21
aS'Place'
p22
aS'added'
p23
aS'date'
p24
asS'chunk_seq'
p25
(lp26
S'B-NP'
p27
aS'E-NP'
p28
aS'B-NP'
p29
aS'E-NP'
p30
asS'dep_seq'
p31
(lp32
(lp33
S'amod'
p34
aS'2'
aS'1'
aa(lp35
S'nsubj'
p36
aS'3'
aS'2'
aa(lp37
S'root'
p38
aS'0'
aS'3'
aa(lp39
S'dobj'
p40
aS'3'
aS'4'
aasS'srls'
p41
(lp42
(dp43
S'A1'
p44
g24
sS'A0'
p45
S'Historic Place'
p46
sS'V'
g23
sasS'pos_seq'
p47
(lp48
S'JJ'
p49
aS'NN'
p50
aS'VBN'
p51
aS'NN'
p52
asS'ner_seq'
p53
(lp54
S'O'
aS'O'
aS'O'
aS'O'
assb.