ccopy_reg
_reconstructor
p1
(c__main__
KBproperty
p2
c__builtin__
object
p3
NtRp4
(dp5
S'comment'
p6
S''
sS'domain'
p7
S''
sS'instances_count'
p8
S'0'
sS'label'
p9
S'start occupation'
p10
sS'range'
p11
S'string '
p12
sS'prop_uri'
p13
S"'http://dbpedia.org/ontology/startOccupation'"
p14
sS'annotations'
p15
(dp16
S'bag_of_words'
p17
(lp18
S'start'
p19
aS'occupation'
p20
aS'string'
p21
asS'chunk_seq'
p22
(lp23
S'S-VP'
p24
aS'B-NP'
p25
aS'E-NP'
p26
asS'dep_seq'
p27
(lp28
(lp29
S'root'
p30
aS'0'
aS'1'
aa(lp31
S'nn'
p32
aS'3'
aS'2'
aa(lp33
S'dobj'
p34
aS'1'
aS'3'
aasS'srls'
p35
(lp36
(dp37
S'A1'
p38
S'occupation string'
p39
sS'V'
g19
sasS'pos_seq'
p40
(lp41
S'VB'
p42
aS'NN'
p43
aS'NN'
p44
asS'ner_seq'
p45
(lp46
S'O'
aS'O'
aS'O'
assb.