ccopy_reg
_reconstructor
p1
(c__main__
KBproperty
p2
c__builtin__
object
p3
NtRp4
(dp5
S'comment'
p6
S'date of latest election'
p7
sS'domain'
p8
S'Populated Place '
p9
sS'instances_count'
p10
S'0'
sS'label'
p11
g7
sS'range'
p12
S'date '
p13
sS'prop_uri'
p14
S"'http://dbpedia.org/ontology/latestElection'"
p15
sS'annotations'
p16
(dp17
S'bag_of_words'
p18
(lp19
S'Populated'
p20
aS'Place'
p21
aS'latest'
p22
aS'Election'
p23
aS'date'
p24
aS'date'
p25
aS'of'
p26
aS'latest'
p27
aS'election'
p28
asS'chunk_seq'
p29
(lp30
S'B-NP'
p31
aS'I-NP'
p32
aS'I-NP'
p33
aS'I-NP'
p34
aS'E-NP'
p35
aS'S-NP'
p36
aS'S-PP'
p37
aS'B-NP'
p38
aS'E-NP'
p39
asS'dep_seq'
p40
(lp41
(lp42
S'amod'
p43
aS'6'
aS'1'
aa(lp44
S'nn'
p45
aS'6'
aS'2'
aa(lp46
S'amod'
p47
aS'6'
aS'3'
aa(lp48
S'nn'
p49
aS'6'
aS'4'
aa(lp50
S'nn'
p51
aS'6'
aS'5'
aa(lp52
S'root'
p53
aS'0'
aS'6'
aa(lp54
S'amod'
p55
aS'9'
aS'8'
aa(lp56
S'prep_of'
p57
aS'6'
aS'9'
aasS'srls'
p58
(lp59
sS'pos_seq'
p60
(lp61
S'VBN'
p62
aS'NNP'
p63
aS'JJS'
p64
aS'NN'
p65
aS'NN'
p66
aS'NN'
p67
aS'IN'
p68
aS'JJS'
p69
aS'NN'
p70
asS'ner_seq'
p71
(lp72
S'O'
aS'O'
aS'O'
aS'O'
aS'O'
aS'O'
aS'O'
aS'O'
aS'O'
assb.