ccopy_reg
_reconstructor
p1
(c__main__
KBproperty
p2
c__builtin__
object
p3
NtRp4
(dp5
S'comment'
p6
S'council of a liechtenstein settlement'
p7
sS'domain'
p8
S'Liechtenstein Settlement '
p9
sS'instances_count'
p10
S'0'
sS'label'
p11
g7
sS'range'
p12
S'string '
p13
sS'prop_uri'
p14
S"'http://dbpedia.org/ontology/council'"
p15
sS'annotations'
p16
(dp17
S'bag_of_words'
p18
(lp19
S'Liechtenstein'
p20
aS'Settlement'
p21
aS'council'
p22
aS'string'
p23
aS'council'
p24
aS'of'
p25
aS'a'
aS'liechtenstein'
p26
aS'settlement'
p27
asS'chunk_seq'
p28
(lp29
S'B-NP'
p30
aS'I-NP'
p31
aS'I-NP'
p32
aS'I-NP'
p33
aS'E-NP'
p34
aS'S-PP'
p35
aS'B-NP'
p36
aS'I-NP'
p37
aS'E-NP'
p38
asS'dep_seq'
p39
(lp40
(lp41
S'nn'
p42
aS'5'
aS'1'
aa(lp43
S'nn'
p44
aS'5'
aS'2'
aa(lp45
S'nn'
p46
aS'5'
aS'3'
aa(lp47
S'nn'
p48
aS'5'
aS'4'
aa(lp49
S'root'
p50
aS'0'
aS'5'
aa(lp51
S'det'
p52
aS'9'
aS'7'
aa(lp53
S'nn'
p54
aS'9'
aS'8'
aa(lp55
S'prep_of'
p56
aS'5'
aS'9'
aasS'srls'
p57
(lp58
sS'pos_seq'
p59
(lp60
S'NNP'
p61
aS'NNP'
p62
aS'NN'
p63
aS'NN'
p64
aS'NN'
p65
aS'IN'
p66
aS'DT'
p67
aS'NN'
p68
aS'NN'
p69
asS'ner_seq'
p70
(lp71
S'S-LOC'
p72
aS'O'
aS'O'
aS'O'
aS'O'
aS'O'
aS'O'
aS'O'
aS'O'
assb.