ccopy_reg
_reconstructor
p1
(c__main__
KBproperty
p2
c__builtin__
object
p3
NtRp4
(dp5
S'comment'
p6
S''
sS'domain'
p7
S''
sS'instances_count'
p8
S'0'
sS'label'
p9
S'apc president'
p10
sS'range'
p11
S'Person '
p12
sS'prop_uri'
p13
S"'http://dbpedia.org/ontology/apcPresident'"
p14
sS'annotations'
p15
(dp16
S'bag_of_words'
p17
(lp18
S'apc'
p19
aS'president'
p20
aS'Person'
p21
asS'chunk_seq'
p22
(lp23
S'B-NP'
p24
aS'I-NP'
p25
aS'E-NP'
p26
asS'dep_seq'
p27
(lp28
(lp29
S'nn'
p30
aS'3'
aS'1'
aa(lp31
S'nn'
p32
aS'3'
aS'2'
aa(lp33
S'root'
p34
aS'0'
aS'3'
aasS'srls'
p35
(lp36
sS'pos_seq'
p37
(lp38
S'NN'
p39
aS'NN'
p40
aS'NN'
p41
asS'ner_seq'
p42
(lp43
S'O'
aS'O'
aS'O'
assb.