ccopy_reg
_reconstructor
p1
(c__main__
KBproperty
p2
c__builtin__
object
p3
NtRp4
(dp5
S'comment'
p6
S''
sS'domain'
p7
S'Place '
p8
sS'instances_count'
p9
S'0'
sS'label'
p10
S'endangered since'
p11
sS'range'
p12
S'date '
p13
sS'prop_uri'
p14
S"'http://dbpedia.org/ontology/endangeredSince'"
p15
sS'annotations'
p16
(dp17
S'bag_of_words'
p18
(lp19
S'Place'
p20
aS'endangered'
p21
aS'since'
p22
aS'date'
p23
asS'chunk_seq'
p24
(lp25
S'S-NP'
p26
aS'S-VP'
p27
aS'S-PP'
p28
aS'S-NP'
p29
asS'dep_seq'
p30
(lp31
(lp32
S'dep'
p33
aS'2'
aS'1'
aa(lp34
S'root'
p35
aS'0'
aS'2'
aa(lp36
S'dep'
p37
aS'2'
aS'3'
aa(lp38
S'pobj'
p39
aS'3'
aS'4'
aasS'srls'
p40
(lp41
(dp42
S'A1'
p43
g20
sS'AM-TMP'
p44
S'since date'
p45
sS'V'
g21
sasS'pos_seq'
p46
(lp47
S'NN'
p48
aS'VBN'
p49
aS'IN'
p50
aS'NN'
p51
asS'ner_seq'
p52
(lp53
S'O'
aS'O'
aS'O'
aS'O'
assb.