ccopy_reg
_reconstructor
p1
(c__main__
KBproperty
p2
c__builtin__
object
p3
NtRp4
(dp5
S'comment'
p6
S''
sS'domain'
p7
S'Species '
p8
sS'instances_count'
p9
S'0'
sS'label'
p10
S'super-family'
p11
sS'range'
p12
S'Taxon '
p13
sS'prop_uri'
p14
S"'http://dbpedia.org/ontology/superFamily'"
p15
sS'annotations'
p16
(dp17
S'bag_of_words'
p18
(lp19
S'Species'
p20
aS'super'
p21
aS'-'
aS'family'
p22
aS'Taxon'
p23
asS'chunk_seq'
p24
(lp25
S'S-NP'
p26
aS'B-NP'
p27
aS'I-NP'
p28
aS'I-NP'
p29
aS'E-NP'
p30
asS'dep_seq'
p31
(lp32
(lp33
S'root'
p34
aS'0'
aS'1'
aa(lp35
S'possessive'
p36
aS'1'
aS'2'
aa(lp37
S'nn'
p38
aS'5'
aS'4'
aa(lp39
S'dep'
p40
aS'1'
aS'5'
aasS'srls'
p41
(lp42
sS'pos_seq'
p43
(lp44
S'NNS'
p45
aS'POS'
p46
aS':'
aS'NN'
p47
aS'NN'
p48
asS'ner_seq'
p49
(lp50
S'O'
aS'O'
aS'O'
aS'O'
aS'O'
assb.