ccopy_reg
_reconstructor
p1
(c__main__
KBproperty
p2
c__builtin__
object
p3
NtRp4
(dp5
S'comment'
p6
S''
sS'domain'
p7
S''
sS'instances_count'
p8
S'12711'
p9
sS'label'
p10
S'elevation-f'
p11
sS'range'
p12
S''
sS'prop_uri'
p13
S"'http://dbpedia.org/property/elevationF'"
p14
sS'annotations'
p15
(dp16
S'bag_of_words'
p17
(lp18
S'elevation'
p19
aS'-'
aS'f'
asS'chunk_seq'
p20
(lp21
S'S-NP'
p22
aS'O'
aS'S-NP'
p23
asS'dep_seq'
p24
(lp25
(lp26
S'root'
p27
aS'0'
aS'1'
aa(lp28
S'dep'
p29
aS'1'
aS'3'
aasS'srls'
p30
(lp31
sS'pos_seq'
p32
(lp33
S'NN'
p34
aS':'
aS'NN'
p35
asS'ner_seq'
p36
(lp37
S'O'
aS'O'
aS'O'
assb.