ccopy_reg
_reconstructor
p1
(c__main__
KBproperty
p2
c__builtin__
object
p3
NtRp4
(dp5
S'comment'
p6
S''
sS'domain'
p7
S'Olympics '
p8
sS'instances_count'
p9
S'0'
sS'label'
p10
S'number of participating male athletes'
p11
sS'range'
p12
S'non Negative Integer '
p13
sS'prop_uri'
p14
S"'http://dbpedia.org/ontology/numberOfParticipatingMaleAthletes'"
p15
sS'annotations'
p16
(dp17
S'bag_of_words'
p18
(lp19
S'Olympics'
p20
aS'number'
p21
aS'of'
p22
aS'participating'
p23
aS'male'
p24
aS'athletes'
p25
aS'non'
p26
aS'Negative'
p27
aS'Integer'
p28
asS'chunk_seq'
p29
(lp30
S'B-NP'
p31
aS'E-NP'
p32
aS'S-PP'
p33
aS'B-NP'
p34
aS'I-NP'
p35
aS'E-NP'
p36
aS'S-VP'
p37
aS'B-NP'
p38
aS'E-NP'
p39
asS'dep_seq'
p40
(lp41
(lp42
S'nn'
p43
aS'2'
aS'1'
aa(lp44
S'root'
p45
aS'0'
aS'2'
aa(lp46
S'amod'
p47
aS'6'
aS'4'
aa(lp48
S'amod'
p49
aS'6'
aS'5'
aa(lp50
S'prep_of'
p51
aS'2'
aS'6'
aa(lp52
S'dep'
p53
aS'2'
aS'7'
aa(lp54
S'amod'
p55
aS'9'
aS'8'
aa(lp56
S'dobj'
p57
aS'7'
aS'9'
aasS'srls'
p58
(lp59
(dp60
S'V'
g23
sasS'pos_seq'
p61
(lp62
S'NNS'
p63
aS'NN'
p64
aS'IN'
p65
aS'VBG'
p66
aS'JJ'
p67
aS'NNS'
p68
aS'VBP'
p69
aS'JJ'
p70
aS'NN'
p71
asS'ner_seq'
p72
(lp73
S'S-MISC'
p74
aS'O'
aS'O'
aS'O'
aS'O'
aS'O'
aS'O'
aS'B-MISC'
p75
aS'E-MISC'
p76
assb.