ccopy_reg
_reconstructor
p1
(c__main__
KBproperty
p2
c__builtin__
object
p3
NtRp4
(dp5
S'comment'
p6
S''
sS'domain'
p7
S'School '
p8
sS'instances_count'
p9
S'1152'
p10
sS'label'
p11
S'ceeb'
p12
sS'range'
p13
S'string '
p14
sS'prop_uri'
p15
S"'http://dbpedia.org/ontology/ceeb'"
p16
sS'annotations'
p17
(dp18
S'bag_of_words'
p19
(lp20
S'School'
p21
aS'ceeb'
p22
aS'string'
p23
asS'chunk_seq'
p24
(lp25
S'B-NP'
p26
aS'I-NP'
p27
aS'E-NP'
p28
asS'dep_seq'
p29
(lp30
(lp31
S'nn'
p32
aS'3'
aS'1'
aa(lp33
S'amod'
p34
aS'3'
aS'2'
aa(lp35
S'root'
p36
aS'0'
aS'3'
aasS'srls'
p37
(lp38
sS'pos_seq'
p39
(lp40
S'NN'
p41
aS'JJ'
p42
aS'NN'
p43
asS'ner_seq'
p44
(lp45
S'O'
aS'O'
aS'O'
assb.