ccopy_reg
_reconstructor
p1
(c__main__
KBproperty
p2
c__builtin__
object
p3
NtRp4
(dp5
S'comment'
p6
S'the organ system that a anatomical structure belongs to'
p7
sS'domain'
p8
S'Anatomical Structure '
p9
sS'instances_count'
p10
S'3'
sS'label'
p11
S'organ system'
p12
sS'range'
p13
S'Anatomical Structure '
p14
sS'prop_uri'
p15
S"'http://dbpedia.org/ontology/organSystem'"
p16
sS'annotations'
p17
(dp18
S'bag_of_words'
p19
(lp20
S'Anatomical'
p21
aS'Structure'
p22
aS'organ'
p23
aS'system'
p24
aS'Anatomical'
p25
aS'Structure'
p26
aS'the'
p27
aS'organ'
p28
aS'system'
p29
aS'that'
p30
aS'a'
aS'anatomical'
p31
aS'structure'
p32
aS'belongs'
p33
aS'to'
p34
asS'chunk_seq'
p35
(lp36
S'B-NP'
p37
aS'I-NP'
p38
aS'I-NP'
p39
aS'I-NP'
p40
aS'I-NP'
p41
aS'E-NP'
p42
aS'B-NP'
p43
aS'I-NP'
p44
aS'E-NP'
p45
aS'S-SBAR'
p46
aS'B-NP'
p47
aS'I-NP'
p48
aS'E-NP'
p49
aS'S-VP'
p50
aS'S-PP'
p51
asS'dep_seq'
p52
(lp53
(lp54
S'amod'
p55
aS'6'
aS'1'
aa(lp56
S'nn'
p57
aS'6'
aS'2'
aa(lp58
S'nn'
p59
aS'6'
aS'3'
aa(lp60
S'nn'
p61
aS'6'
aS'4'
aa(lp62
S'nn'
p63
aS'6'
aS'5'
aa(lp64
S'dep'
p65
aS'9'
aS'6'
aa(lp66
S'det'
p67
aS'9'
aS'7'
aa(lp68
S'nn'
p69
aS'9'
aS'8'
aa(lp70
S'root'
p71
aS'0'
aS'9'
aa(lp72
S'dobj'
p73
aS'14'
p74
aS'9'
aa(lp75
S'rel'
p76
aS'14'
p77
aS'10'
p78
aa(lp79
S'det'
p80
aS'13'
p81
aS'11'
p82
aa(lp83
S'amod'
p84
aS'13'
p85
aS'12'
p86
aa(lp87
S'nsubj'
p88
aS'14'
p89
aS'13'
p90
aa(lp91
S'rcmod'
p92
aS'9'
aS'14'
p93
aa(lp94
S'prep'
p95
aS'14'
p96
aS'15'
p97
aasS'srls'
p98
(lp99
(dp100
S'A0'
p101
S'a anatomical structure'
p102
sS'V'
g33
sasS'pos_seq'
p103
(lp104
S'JJ'
p105
aS'NN'
p106
aS'NN'
p107
aS'NN'
p108
aS'NNP'
p109
aS'NNP'
p110
aS'DT'
p111
aS'NN'
p112
aS'NN'
p113
aS'IN'
p114
aS'DT'
p115
aS'JJ'
p116
aS'NN'
p117
aS'VBZ'
p118
aS'TO'
p119
asS'ner_seq'
p120
(lp121
S'O'
aS'O'
aS'O'
aS'O'
aS'O'
aS'O'
aS'O'
aS'O'
aS'O'
aS'O'
aS'O'
aS'O'
aS'O'
aS'O'
aS'O'
assb.