ccopy_reg
_reconstructor
p1
(c__main__
KBproperty
p2
c__builtin__
object
p3
NtRp4
(dp5
S'comment'
p6
S'is part of literal'
p7
sS'domain'
p8
S''
sS'instances_count'
p9
S'1530'
p10
sS'label'
p11
g7
sS'range'
p12
S'string '
p13
sS'prop_uri'
p14
S"'http://dbpedia.org/ontology/isPartOfName'"
p15
sS'annotations'
p16
(dp17
S'bag_of_words'
p18
(lp19
S'is'
p20
aS'Part'
p21
aS'Of'
p22
aS'Name'
p23
aS'string'
p24
aS'is'
p25
aS'part'
p26
aS'of'
p27
aS'literal'
p28
asS'chunk_seq'
p29
(lp30
S'S-VP'
p31
aS'S-NP'
p32
aS'S-PP'
p33
aS'B-NP'
p34
aS'E-NP'
p35
aS'S-VP'
p36
aS'S-NP'
p37
aS'S-PP'
p38
aS'S-ADJP'
p39
asS'dep_seq'
p40
(lp41
(lp42
S'root'
p43
aS'0'
aS'1'
aa(lp44
S'nsubj'
p45
aS'7'
aS'2'
aa(lp46
S'nn'
p47
aS'5'
aS'4'
aa(lp48
S'prep_of'
p49
aS'2'
aS'5'
aa(lp50
S'cop'
p51
aS'7'
aS'6'
aa(lp52
S'ccomp'
p53
aS'1'
aS'7'
aa(lp54
S'prep_of'
p55
aS'7'
aS'9'
aasS'srls'
p56
(lp57
sS'pos_seq'
p58
(lp59
S'VBZ'
p60
aS'NNP'
p61
aS'IN'
p62
aS'NN'
p63
aS'NN'
p64
aS'VBZ'
p65
aS'NN'
p66
aS'IN'
p67
aS'JJ'
p68
asS'ner_seq'
p69
(lp70
S'O'
aS'O'
aS'B-MISC'
p71
aS'E-MISC'
p72
aS'O'
aS'O'
aS'O'
aS'O'
aS'O'
assb.