ccopy_reg
_reconstructor
p1
(c__main__
KBproperty
p2
c__builtin__
object
p3
NtRp4
(dp5
S'comment'
p6
S'Link from a Wikipage to another Wikipage'
p7
sS'domain'
p8
S''
sS'instances_count'
p9
S'0'
sS'label'
p10
g7
sS'range'
p11
S''
sS'prop_uri'
p12
S"'http://dbpedia.org/ontology/wikiPageWikiLink'"
p13
sS'annotations'
p14
(dp15
S'bag_of_words'
p16
(lp17
S'wiki'
p18
aS'Page'
p19
aS'Wiki'
p20
aS'Link'
p21
aS'Link'
p22
aS'from'
p23
aS'a'
aS'Wikipage'
p24
aS'to'
p25
aS'another'
p26
aS'Wikipage'
p27
asS'chunk_seq'
p28
(lp29
S'O'
aS'O'
aS'O'
aS'B-NP'
p30
aS'E-NP'
p31
aS'S-PP'
p32
aS'B-NP'
p33
aS'E-NP'
p34
aS'S-PP'
p35
aS'B-NP'
p36
aS'E-NP'
p37
asS'dep_seq'
p38
(lp39
(lp40
S'nn'
p41
aS'5'
aS'1'
aa(lp42
S'nn'
p43
aS'5'
aS'2'
aa(lp44
S'nn'
p45
aS'5'
aS'3'
aa(lp46
S'nn'
p47
aS'5'
aS'4'
aa(lp48
S'root'
p49
aS'0'
aS'5'
aa(lp50
S'det'
p51
aS'8'
aS'7'
aa(lp52
S'prep_from'
p53
aS'5'
aS'8'
aa(lp54
S'det'
p55
aS'11'
p56
aS'10'
p57
aa(lp58
S'prep_to'
p59
aS'5'
aS'11'
p60
aasS'srls'
p61
(lp62
sS'pos_seq'
p63
(lp64
S'NN'
p65
aS'NNP'
p66
aS'NNP'
p67
aS'NNP'
p68
aS'NNP'
p69
aS'IN'
p70
aS'DT'
p71
aS'NNP'
p72
aS'TO'
p73
aS'DT'
p74
aS'NNP'
p75
asS'ner_seq'
p76
(lp77
S'O'
aS'O'
aS'O'
aS'O'
aS'O'
aS'O'
aS'O'
aS'S-MISC'
p78
aS'O'
aS'O'
aS'S-ORG'
p79
assb.