ccopy_reg
_reconstructor
p1
(c__main__
KBproperty
p2
c__builtin__
object
p3
NtRp4
(dp5
S'comment'
p6
S''
sS'domain'
p7
S'Mean Of Transportation '
p8
sS'instances_count'
p9
S'114'
p10
sS'label'
p11
S'rebuilder'
p12
sS'range'
p13
S''
sS'prop_uri'
p14
S"'http://dbpedia.org/ontology/rebuilder'"
p15
sS'annotations'
p16
(dp17
S'bag_of_words'
p18
(lp19
S'Mean'
p20
aS'Of'
p21
aS'Transportation'
p22
aS'rebuilder'
p23
asS'chunk_seq'
p24
(lp25
S'S-NP'
p26
aS'S-PP'
p27
aS'S-NP'
p28
aS'S-ADJP'
p29
asS'dep_seq'
p30
(lp31
(lp32
S'root'
p33
aS'0'
aS'1'
aa(lp34
S'prep_of'
p35
aS'1'
aS'3'
aa(lp36
S'dep'
p37
aS'1'
aS'4'
aasS'srls'
p38
(lp39
sS'pos_seq'
p40
(lp41
S'NNP'
p42
aS'IN'
p43
aS'NNP'
p44
aS'.'
asS'ner_seq'
p45
(lp46
S'O'
aS'O'
aS'O'
aS'O'
assb.