ccopy_reg
_reconstructor
p1
(c__main__
KBproperty
p2
c__builtin__
object
p3
NtRp4
(dp5
S'comment'
p6
S'long distance piste kilometre \\xce\\xbc'
p7
sS'domain'
p8
S'Place '
p9
sS'instances_count'
p10
S'0'
sS'label'
p11
g7
sS'range'
p12
S'double '
p13
sS'prop_uri'
p14
S"'http://dbpedia.org/ontology/longDistancePisteKilometre'"
p15
sS'annotations'
p16
(dp17
S'bag_of_words'
p18
(lp19
S'Place'
p20
aS'long'
p21
aS'Distance'
p22
aS'Piste'
p23
aS'Kilometre'
p24
aS'double'
p25
aS'long'
p26
aS'distance'
p27
aS'piste'
p28
aS'kilometre'
p29
aS'\\'
aS'xce'
p30
aS'\\'
aS'xbc'
p31
asS'chunk_seq'
p32
(lp33
S'B-NP'
p34
aS'I-NP'
p35
aS'I-NP'
p36
aS'I-NP'
p37
aS'I-NP'
p38
aS'I-NP'
p39
aS'I-NP'
p40
aS'I-NP'
p41
aS'E-NP'
p42
aS'S-VP'
p43
aS'O'
aS'O'
aS'O'
aS'O'
asS'dep_seq'
p44
(lp45
(lp46
S'dep'
p47
aS'5'
aS'1'
aa(lp48
S'amod'
p49
aS'5'
aS'2'
aa(lp50
S'nn'
p51
aS'5'
aS'3'
aa(lp52
S'nn'
p53
aS'5'
aS'4'
aa(lp54
S'root'
p55
aS'0'
aS'5'
aa(lp56
S'advmod'
p57
aS'5'
aS'6'
aa(lp58
S'dep'
p59
aS'5'
aS'7'
aa(lp60
S'dep'
p61
aS'5'
aS'8'
aa(lp62
S'dep'
p63
aS'5'
aS'9'
aa(lp64
S'discourse'
p65
aS'5'
aS'10'
p66
aa(lp67
S'dep'
p68
aS'10'
p69
aS'11'
p70
aa(lp71
S'dep'
p72
aS'10'
p73
aS'12'
p74
aa(lp75
S'dep'
p76
aS'10'
p77
aS'13'
p78
aa(lp79
S'dep'
p80
aS'10'
p81
aS'14'
p82
aasS'srls'
p83
(lp84
sS'pos_seq'
p85
(lp86
S'NN'
p87
aS'JJ'
p88
aS'NNP'
p89
aS'NNP'
p90
aS'NNP'
p91
aS'RB'
p92
aS'JJ'
p93
aS'NN'
p94
aS'NN'
p95
aS'NN'
p96
aS'FW'
p97
aS'FW'
p98
aS'FW'
p99
aS'FW'
p100
asS'ner_seq'
p101
(lp102
S'O'
aS'O'
aS'O'
aS'O'
aS'O'
aS'O'
aS'O'
aS'O'
aS'O'
aS'O'
aS'O'
aS'O'
aS'O'
aS'O'
assb.