ccopy_reg
_reconstructor
p1
(c__main__
KBproperty
p2
c__builtin__
object
p3
NtRp4
(dp5
S'comment'
p6
S''
sS'domain'
p7
S'Given Name '
p8
sS'instances_count'
p9
S'2'
sS'label'
p10
S'name day'
p11
sS'range'
p12
S'date '
p13
sS'prop_uri'
p14
S"'http://dbpedia.org/ontology/nameDay'"
p15
sS'annotations'
p16
(dp17
S'bag_of_words'
p18
(lp19
S'Given'
p20
aS'Name'
p21
aS'name'
p22
aS'day'
p23
aS'date'
p24
asS'chunk_seq'
p25
(lp26
S'S-PP'
p27
aS'B-NP'
p28
aS'I-NP'
p29
aS'I-NP'
p30
aS'E-NP'
p31
asS'dep_seq'
p32
(lp33
(lp34
S'root'
p35
aS'0'
aS'1'
aa(lp36
S'nn'
p37
aS'5'
aS'2'
aa(lp38
S'nn'
p39
aS'5'
aS'3'
aa(lp40
S'nn'
p41
aS'5'
aS'4'
aa(lp42
S'dep'
p43
aS'1'
aS'5'
aasS'srls'
p44
(lp45
(dp46
S'A1'
p47
S'Name name day'
p48
sS'V'
g20
sasS'pos_seq'
p49
(lp50
S'VBN'
p51
aS'NN'
p52
aS'NN'
p53
aS'NN'
p54
aS'NN'
p55
asS'ner_seq'
p56
(lp57
S'O'
aS'O'
aS'O'
aS'O'
aS'O'
assb.