ccopy_reg
_reconstructor
p1
(c__main__
KBproperty
p2
c__builtin__
object
p3
NtRp4
(dp5
S'comment'
p6
S''
sS'domain'
p7
S'Olympics '
p8
sS'instances_count'
p9
S'79'
p10
sS'label'
p11
S'number of participating athletes'
p12
sS'range'
p13
S'non Negative Integer '
p14
sS'prop_uri'
p15
S"'http://dbpedia.org/ontology/numberOfParticipatingAthletes'"
p16
sS'annotations'
p17
(dp18
S'bag_of_words'
p19
(lp20
S'Olympics'
p21
aS'number'
p22
aS'of'
p23
aS'participating'
p24
aS'athletes'
p25
aS'non'
p26
aS'Negative'
p27
aS'Integer'
p28
asS'chunk_seq'
p29
(lp30
S'B-NP'
p31
aS'E-NP'
p32
aS'S-PP'
p33
aS'B-NP'
p34
aS'E-NP'
p35
aS'B-NP'
p36
aS'I-NP'
p37
aS'E-NP'
p38
asS'dep_seq'
p39
(lp40
(lp41
S'nn'
p42
aS'2'
aS'1'
aa(lp43
S'root'
p44
aS'0'
aS'2'
aa(lp45
S'amod'
p46
aS'5'
aS'4'
aa(lp47
S'prep_of'
p48
aS'2'
aS'5'
aa(lp49
S'dep'
p50
aS'7'
aS'6'
aa(lp51
S'amod'
p52
aS'8'
aS'7'
aa(lp53
S'dep'
p54
aS'2'
aS'8'
aasS'srls'
p55
(lp56
(dp57
S'A0'
p58
g25
sS'V'
g24
sasS'pos_seq'
p59
(lp60
S'NNS'
p61
aS'NN'
p62
aS'IN'
p63
aS'VBG'
p64
aS'NNS'
p65
aS'VBP'
p66
aS'JJ'
p67
aS'NN'
p68
asS'ner_seq'
p69
(lp70
S'S-MISC'
p71
aS'O'
aS'O'
aS'O'
aS'O'
aS'O'
aS'B-MISC'
p72
aS'E-MISC'
p73
assb.