ccopy_reg
_reconstructor
p1
(c__main__
KBproperty
p2
c__builtin__
object
p3
NtRp4
(dp5
S'comment'
p6
S''
sS'domain'
p7
S'Space Mission '
p8
sS'instances_count'
p9
S'0'
sS'label'
p10
S'next mission'
p11
sS'range'
p12
S'Space Mission '
p13
sS'prop_uri'
p14
S"'http://dbpedia.org/ontology/nextMission'"
p15
sS'annotations'
p16
(dp17
S'bag_of_words'
p18
(lp19
S'Space'
p20
aS'Mission'
p21
aS'next'
p22
aS'mission'
p23
aS'Space'
p24
aS'Mission'
p25
asS'chunk_seq'
p26
(lp27
S'B-NP'
p28
aS'E-NP'
p29
aS'B-NP'
p30
aS'I-NP'
p31
aS'I-NP'
p32
aS'E-NP'
p33
asS'dep_seq'
p34
(lp35
(lp36
S'nn'
p37
aS'2'
aS'1'
aa(lp38
S'root'
p39
aS'0'
aS'2'
aa(lp40
S'amod'
p41
aS'6'
aS'3'
aa(lp42
S'nn'
p43
aS'6'
aS'4'
aa(lp44
S'nn'
p45
aS'6'
aS'5'
aa(lp46
S'dep'
p47
aS'2'
aS'6'
aasS'srls'
p48
(lp49
sS'pos_seq'
p50
(lp51
S'NNP'
p52
aS'NNP'
p53
aS'JJ'
p54
aS'NN'
p55
aS'NNP'
p56
aS'NNP'
p57
asS'ner_seq'
p58
(lp59
S'B-ORG'
p60
aS'E-ORG'
p61
aS'O'
aS'O'
aS'B-ORG'
p62
aS'E-ORG'
p63
assb.