ccopy_reg
_reconstructor
p1
(c__main__
KBproperty
p2
c__builtin__
object
p3
NtRp4
(dp5
S'comment'
p6
S'The Political party of leader.'
p7
sS'domain'
p8
S'Legislature '
p9
sS'instances_count'
p10
S'829'
p11
sS'label'
p12
S'political party of leader'
p13
sS'range'
p14
S'Political Party '
p15
sS'prop_uri'
p16
S"'http://dbpedia.org/ontology/politicalPartyOfLeader'"
p17
sS'annotations'
p18
(dp19
S'bag_of_words'
p20
(lp21
S'Legislature'
p22
aS'political'
p23
aS'party'
p24
aS'of'
p25
aS'leader'
p26
aS'Political'
p27
aS'Party'
p28
aS'The'
p29
aS'Political'
p30
aS'party'
p31
aS'of'
p32
aS'leader'
p33
aS'.'
asS'chunk_seq'
p34
(lp35
S'B-NP'
p36
aS'I-NP'
p37
aS'E-NP'
p38
aS'S-PP'
p39
aS'B-NP'
p40
aS'I-NP'
p41
aS'E-NP'
p42
aS'B-NP'
p43
aS'I-NP'
p44
aS'E-NP'
p45
aS'S-PP'
p46
aS'S-NP'
p47
aS'O'
asS'dep_seq'
p48
(lp49
(lp50
S'nn'
p51
aS'3'
aS'1'
aa(lp52
S'amod'
p53
aS'3'
aS'2'
aa(lp54
S'root'
p55
aS'0'
aS'3'
aa(lp56
S'nn'
p57
aS'7'
aS'5'
aa(lp58
S'nn'
p59
aS'7'
aS'6'
aa(lp60
S'prep_of'
p61
aS'3'
aS'7'
aa(lp62
S'det'
p63
aS'10'
p64
aS'8'
aa(lp65
S'amod'
p66
aS'10'
p67
aS'9'
aa(lp68
S'dep'
p69
aS'3'
aS'10'
p70
aa(lp71
S'prep_of'
p72
aS'3'
aS'12'
p73
aasS'srls'
p74
(lp75
sS'pos_seq'
p76
(lp77
S'NNP'
p78
aS'JJ'
p79
aS'NN'
p80
aS'IN'
p81
aS'NN'
p82
aS'NNP'
p83
aS'NNP'
p84
aS'DT'
p85
aS'JJ'
p86
aS'NN'
p87
aS'IN'
p88
aS'NN'
p89
aS'.'
asS'ner_seq'
p90
(lp91
S'O'
aS'O'
aS'O'
aS'O'
aS'O'
aS'B-ORG'
p92
aS'I-ORG'
p93
aS'I-ORG'
p94
aS'E-ORG'
p95
aS'O'
aS'O'
aS'O'
aS'O'
assb.