ccopy_reg
_reconstructor
p1
(c__main__
KBproperty
p2
c__builtin__
object
p3
NtRp4
(dp5
S'comment'
p6
S''
sS'domain'
p7
S''
sS'instances_count'
p8
S'5676'
p9
sS'label'
p10
S'highschool'
p11
sS'range'
p12
S'School '
p13
sS'prop_uri'
p14
S"'http://dbpedia.org/ontology/highschool'"
p15
sS'annotations'
p16
(dp17
S'bag_of_words'
p18
(lp19
S'highschool'
p20
aS'School'
p21
asS'chunk_seq'
p22
(lp23
S'O'
aS'O'
asS'dep_seq'
p24
(lp25
(lp26
S'dep'
p27
aS'2'
aS'1'
aa(lp28
S'root'
p29
aS'0'
aS'2'
aasS'srls'
p30
(lp31
sS'pos_seq'
p32
(lp33
S'SYM'
p34
aS'NNP'
p35
asS'ner_seq'
p36
(lp37
S'O'
aS'O'
assb.