ccopy_reg
_reconstructor
p1
(c__main__
KBproperty
p2
c__builtin__
object
p3
NtRp4
(dp5
S'comment'
p6
S''
sS'domain'
p7
S'Site Of Special Scientific Interest '
p8
sS'instances_count'
p9
S'814'
p10
sS'label'
p11
S'interest'
p12
sS'range'
p13
S'string '
p14
sS'prop_uri'
p15
S"'http://dbpedia.org/ontology/interest'"
p16
sS'annotations'
p17
(dp18
S'bag_of_words'
p19
(lp20
S'Site'
p21
aS'Of'
p22
aS'Special'
p23
aS'Scientific'
p24
aS'Interest'
p25
aS'interest'
p26
aS'string'
p27
asS'chunk_seq'
p28
(lp29
S'S-NP'
p30
aS'S-PP'
p31
aS'B-NP'
p32
aS'I-NP'
p33
aS'I-NP'
p34
aS'I-NP'
p35
aS'E-NP'
p36
asS'dep_seq'
p37
(lp38
(lp39
S'root'
p40
aS'0'
aS'1'
aa(lp41
S'nn'
p42
aS'7'
aS'3'
aa(lp43
S'nn'
p44
aS'7'
aS'4'
aa(lp45
S'nn'
p46
aS'7'
aS'5'
aa(lp47
S'nn'
p48
aS'7'
aS'6'
aa(lp49
S'prep_of'
p50
aS'1'
aS'7'
aasS'srls'
p51
(lp52
sS'pos_seq'
p53
(lp54
S'NN'
p55
aS'IN'
p56
aS'NNP'
p57
aS'NNP'
p58
aS'NNP'
p59
aS'NN'
p60
aS'NN'
p61
asS'ner_seq'
p62
(lp63
S'O'
aS'O'
aS'O'
aS'O'
aS'O'
aS'O'
aS'O'
assb.