ccopy_reg
_reconstructor
p1
(c__main__
KBproperty
p2
c__builtin__
object
p3
NtRp4
(dp5
S'comment'
p6
S''
sS'domain'
p7
S'Populated Place '
p8
sS'instances_count'
p9
S'1987'
p10
sS'label'
p11
S'saint'
p12
sS'range'
p13
S'Saint '
p14
sS'prop_uri'
p15
S"'http://dbpedia.org/ontology/saint'"
p16
sS'annotations'
p17
(dp18
S'bag_of_words'
p19
(lp20
S'Populated'
p21
aS'Place'
p22
aS'saint'
p23
aS'Saint'
p24
asS'chunk_seq'
p25
(lp26
S'B-NP'
p27
aS'I-NP'
p28
aS'I-NP'
p29
aS'E-NP'
p30
asS'dep_seq'
p31
(lp32
(lp33
S'amod'
p34
aS'2'
aS'1'
aa(lp35
S'root'
p36
aS'0'
aS'2'
aa(lp37
S'nn'
p38
aS'4'
aS'3'
aa(lp39
S'dep'
p40
aS'2'
aS'4'
aasS'srls'
p41
(lp42
sS'pos_seq'
p43
(lp44
S'VBN'
p45
aS'NN'
p46
aS'NN'
p47
aS'NNP'
p48
asS'ner_seq'
p49
(lp50
S'O'
aS'O'
aS'O'
aS'O'
assb.