ccopy_reg
_reconstructor
p1
(c__main__
KBproperty
p2
c__builtin__
object
p3
NtRp4
(dp5
S'comment'
p6
S'Use dc:language for literal language for object'
p7
sS'domain'
p8
S''
sS'instances_count'
p9
S'107288'
p10
sS'label'
p11
S'language'
p12
sS'range'
p13
S'Language '
p14
sS'prop_uri'
p15
S"'http://dbpedia.org/ontology/language'"
p16
sS'annotations'
p17
(dp18
S'bag_of_words'
p19
(lp20
S'language'
p21
aS'Language'
p22
aS'Use'
p23
aS'dc'
p24
aS':'
aS'language'
p25
aS'for'
p26
aS'literal'
p27
aS'language'
p28
aS'for'
p29
aS'object'
p30
asS'chunk_seq'
p31
(lp32
S'B-NP'
p33
aS'I-NP'
p34
aS'I-NP'
p35
aS'E-NP'
p36
aS'O'
aS'S-NP'
p37
aS'S-PP'
p38
aS'B-NP'
p39
aS'E-NP'
p40
aS'S-PP'
p41
aS'S-NP'
p42
asS'dep_seq'
p43
(lp44
(lp45
S'nn'
p46
aS'4'
aS'1'
aa(lp47
S'nn'
p48
aS'4'
aS'2'
aa(lp49
S'nn'
p50
aS'4'
aS'3'
aa(lp51
S'root'
p52
aS'0'
aS'4'
aa(lp53
S'dep'
p54
aS'4'
aS'6'
aa(lp55
S'amod'
p56
aS'9'
aS'8'
aa(lp57
S'prep_for'
p58
aS'6'
aS'9'
aa(lp59
S'prep_for'
p60
aS'6'
aS'11'
p61
aasS'srls'
p62
(lp63
sS'pos_seq'
p64
(lp65
S'NN'
p66
aS'NNP'
p67
aS'NNP'
p68
aS'NN'
p69
aS':'
aS'NN'
p70
aS'IN'
p71
aS'JJ'
p72
aS'NN'
p73
aS'IN'
p74
aS'NN'
p75
asS'ner_seq'
p76
(lp77
S'O'
aS'O'
aS'O'
aS'O'
aS'O'
aS'O'
aS'O'
aS'O'
aS'O'
aS'O'
aS'O'
assb.