ccopy_reg
_reconstructor
p1
(c__main__
KBproperty
p2
c__builtin__
object
p3
NtRp4
(dp5
S'comment'
p6
S''
sS'domain'
p7
S'Island '
p8
sS'instances_count'
p9
S'2698'
p10
sS'label'
p11
S'archipelago'
p12
sS'range'
p13
S''
sS'prop_uri'
p14
S"'http://dbpedia.org/ontology/archipelago'"
p15
sS'annotations'
p16
(dp17
S'bag_of_words'
p18
(lp19
S'Island'
p20
aS'archipelago'
p21
asS'chunk_seq'
p22
(lp23
S'B-NP'
p24
aS'E-NP'
p25
asS'dep_seq'
p26
(lp27
(lp28
S'nn'
p29
aS'2'
aS'1'
aa(lp30
S'root'
p31
aS'0'
aS'2'
aasS'srls'
p32
(lp33
sS'pos_seq'
p34
(lp35
S'NNP'
p36
aS'NN'
p37
asS'ner_seq'
p38
(lp39
S'S-LOC'
p40
aS'O'
assb.