ccopy_reg
_reconstructor
p1
(c__main__
KBproperty
p2
c__builtin__
object
p3
NtRp4
(dp5
S'comment'
p6
S'bluecoordinate in the RGB space'
p7
sS'domain'
p8
S'Colour '
p9
sS'instances_count'
p10
S'1089'
p11
sS'label'
p12
g7
sS'range'
p13
S'non Negative Integer '
p14
sS'prop_uri'
p15
S"'http://dbpedia.org/ontology/rgbCoordinateBlue'"
p16
sS'annotations'
p17
(dp18
S'bag_of_words'
p19
(lp20
S'Colour'
p21
aS'rgb'
p22
aS'Coordinate'
p23
aS'Blue'
p24
aS'non'
p25
aS'Negative'
p26
aS'Integer'
p27
aS'bluecoordinate'
p28
aS'in'
p29
aS'the'
p30
aS'RGB'
p31
aS'space'
p32
asS'chunk_seq'
p33
(lp34
S'B-NP'
p35
aS'I-NP'
p36
aS'I-NP'
p37
aS'I-NP'
p38
aS'I-NP'
p39
aS'I-NP'
p40
aS'I-NP'
p41
aS'E-NP'
p42
aS'S-PP'
p43
aS'B-NP'
p44
aS'I-NP'
p45
aS'E-NP'
p46
asS'dep_seq'
p47
(lp48
(lp49
S'nn'
p50
aS'2'
aS'1'
aa(lp51
S'nsubj'
p52
aS'8'
aS'2'
aa(lp53
S'dep'
p54
aS'8'
aS'3'
aa(lp55
S'nn'
p56
aS'8'
aS'4'
aa(lp57
S'amod'
p58
aS'6'
aS'5'
aa(lp59
S'amod'
p60
aS'8'
aS'6'
aa(lp61
S'nn'
p62
aS'8'
aS'7'
aa(lp63
S'root'
p64
aS'0'
aS'8'
aa(lp65
S'det'
p66
aS'12'
p67
aS'10'
p68
aa(lp69
S'nn'
p70
aS'12'
p71
aS'11'
p72
aa(lp73
S'prep_in'
p74
aS'8'
aS'12'
p75
aasS'srls'
p76
(lp77
sS'pos_seq'
p78
(lp79
S'NN'
p80
aS'NN'
p81
aS'NNP'
p82
aS'NNP'
p83
aS'JJ'
p84
aS'JJ'
p85
aS'NN'
p86
aS'NN'
p87
aS'IN'
p88
aS'DT'
p89
aS'NNP'
p90
aS'NN'
p91
asS'ner_seq'
p92
(lp93
S'O'
aS'O'
aS'B-MISC'
p94
aS'I-MISC'
p95
aS'I-MISC'
p96
aS'I-MISC'
p97
aS'E-MISC'
p98
aS'O'
aS'O'
aS'O'
aS'O'
aS'O'
assb.