ccopy_reg
_reconstructor
p1
(c__main__
KBproperty
p2
c__builtin__
object
p3
NtRp4
(dp5
S'comment'
p6
S''
sS'domain'
p7
S'Route Of Transportation '
p8
sS'instances_count'
p9
S'237'
p10
sS'label'
p11
S'toll $'
p12
sS'range'
p13
S'double '
p14
sS'prop_uri'
p15
S"'http://dbpedia.org/ontology/toll'"
p16
sS'annotations'
p17
(dp18
S'bag_of_words'
p19
(lp20
S'Route'
p21
aS'Of'
p22
aS'Transportation'
p23
aS'toll'
p24
aS'$'
aS'double'
p25
asS'chunk_seq'
p26
(lp27
S'S-NP'
p28
aS'S-PP'
p29
aS'S-NP'
p30
aS'B-NP'
p31
aS'I-NP'
p32
aS'E-NP'
p33
asS'dep_seq'
p34
(lp35
(lp36
S'nsubj'
p37
aS'5'
aS'1'
aa(lp38
S'prep_of'
p39
aS'5'
aS'3'
aa(lp40
S'dep'
p41
aS'5'
aS'4'
aa(lp42
S'root'
p43
aS'0'
aS'5'
aa(lp44
S'dep'
p45
aS'5'
aS'6'
aasS'srls'
p46
(lp47
sS'pos_seq'
p48
(lp49
S'NNP'
p50
aS'IN'
p51
aS'NNP'
p52
aS'NN'
p53
aS'$'
aS'JJ'
p54
asS'ner_seq'
p55
(lp56
S'B-ORG'
p57
aS'I-ORG'
p58
aS'E-ORG'
p59
aS'O'
aS'O'
aS'O'
assb.