ccopy_reg
_reconstructor
p1
(c__main__
KBproperty
p2
c__builtin__
object
p3
NtRp4
(dp5
S'comment'
p6
S'A picture of a thing.'
p7
sS'domain'
p8
S''
sS'instances_count'
p9
S'3354'
p10
sS'label'
p11
S'picture'
p12
sS'range'
p13
S''
sS'prop_uri'
p14
S"'http://dbpedia.org/ontology/picture'"
p15
sS'annotations'
p16
(dp17
S'bag_of_words'
p18
(lp19
S'picture'
p20
aS'A'
aS'picture'
p21
aS'of'
p22
aS'a'
aS'thing'
p23
aS'.'
asS'chunk_seq'
p24
(lp25
S'B-NP'
p26
aS'I-NP'
p27
aS'E-NP'
p28
aS'S-PP'
p29
aS'B-NP'
p30
aS'E-NP'
p31
aS'O'
asS'dep_seq'
p32
(lp33
(lp34
S'root'
p35
aS'0'
aS'1'
aa(lp36
S'det'
p37
aS'3'
aS'2'
aa(lp38
S'dobj'
p39
aS'1'
aS'3'
aa(lp40
S'det'
p41
aS'6'
aS'5'
aa(lp42
S'prep_of'
p43
aS'3'
aS'6'
aasS'srls'
p44
(lp45
sS'pos_seq'
p46
(lp47
S'NN'
p48
aS'DT'
p49
aS'NN'
p50
aS'IN'
p51
aS'DT'
p52
aS'NN'
p53
aS'.'
asS'ner_seq'
p54
(lp55
S'O'
aS'O'
aS'O'
aS'O'
aS'O'
aS'O'
aS'O'
assb.