ccopy_reg
_reconstructor
p1
(c__main__
KBproperty
p2
c__builtin__
object
p3
NtRp4
(dp5
S'comment'
p6
S'Original use of the architectural structure if it is currently being used as anything other than its original purpose.'
p7
sS'domain'
p8
S'Architectural Structure '
p9
sS'instances_count'
p10
S'0'
sS'label'
p11
S'originally used for'
p12
sS'range'
p13
S'string '
p14
sS'prop_uri'
p15
S"'http://dbpedia.org/ontology/originallyUsedFor'"
p16
sS'annotations'
p17
(dp18
S'bag_of_words'
p19
(lp20
S'Architectural'
p21
aS'Structure'
p22
aS'originally'
p23
aS'used'
p24
aS'for'
p25
aS'string'
p26
aS'Original'
p27
aS'use'
p28
aS'of'
p29
aS'the'
p30
aS'architectural'
p31
aS'structure'
p32
aS'if'
p33
aS'it'
p34
aS'is'
p35
aS'currently'
p36
aS'being'
p37
aS'used'
p38
aS'as'
p39
aS'anything'
p40
aS'other'
p41
aS'than'
p42
aS'its'
p43
aS'original'
p44
aS'purpose'
p45
aS'.'
asS'chunk_seq'
p46
(lp47
S'B-NP'
p48
aS'E-NP'
p49
aS'B-VP'
p50
aS'E-VP'
p51
aS'S-PP'
p52
aS'B-NP'
p53
aS'I-NP'
p54
aS'E-NP'
p55
aS'S-PP'
p56
aS'B-NP'
p57
aS'I-NP'
p58
aS'E-NP'
p59
aS'S-SBAR'
p60
aS'S-NP'
p61
aS'B-VP'
p62
aS'I-VP'
p63
aS'I-VP'
p64
aS'E-VP'
p65
aS'S-PP'
p66
aS'S-NP'
p67
aS'S-ADJP'
p68
aS'S-PP'
p69
aS'B-NP'
p70
aS'I-NP'
p71
aS'E-NP'
p72
aS'O'
asS'dep_seq'
p73
(lp74
(lp75
S'nn'
p76
aS'2'
aS'1'
aa(lp77
S'root'
p78
aS'0'
aS'2'
aa(lp79
S'advmod'
p80
aS'4'
aS'3'
aa(lp81
S'partmod'
p82
aS'2'
aS'4'
aa(lp83
S'nn'
p84
aS'8'
aS'6'
aa(lp85
S'amod'
p86
aS'8'
aS'7'
aa(lp87
S'prep_for'
p88
aS'4'
aS'8'
aa(lp89
S'det'
p90
aS'12'
p91
aS'10'
p92
aa(lp93
S'amod'
p94
aS'12'
p95
aS'11'
p96
aa(lp97
S'prep_of'
p98
aS'8'
aS'12'
p99
aa(lp100
S'mark'
p101
aS'18'
p102
aS'13'
p103
aa(lp104
S'nsubjpass'
p105
aS'18'
p106
aS'14'
p107
aa(lp108
S'aux'
p109
aS'18'
p110
aS'15'
p111
aa(lp112
S'advmod'
p113
aS'18'
p114
aS'16'
p115
aa(lp116
S'auxpass'
p117
aS'18'
p118
aS'17'
p119
aa(lp120
S'dep'
p121
aS'2'
aS'18'
p122
aa(lp123
S'prep_as'
p124
aS'22'
p125
aS'20'
p126
aa(lp127
S'amod'
p128
aS'20'
p129
aS'21'
p130
aa(lp131
S'advmod'
p132
aS'18'
p133
aS'22'
p134
aa(lp135
S'poss'
p136
aS'25'
p137
aS'23'
p138
aa(lp139
S'amod'
p140
aS'25'
p141
aS'24'
p142
aa(lp143
S'pobj'
p144
aS'22'
p145
aS'25'
p146
aasS'srls'
p147
(lp148
(dp149
S'A1'
p150
S'for string Original use of the architectural structure if it is currently being used as anything other than its original purpose'
p151
sS'A0'
p152
S'Architectural Structure'
p153
sS'AM-TMP'
p154
g23
sS'V'
g24
sa(dp155
S'A1'
p156
g34
sS'A2'
p157
S'as anything other than its original purpose'
p158
sS'AM-TMP'
p159
g36
sS'V'
g38
sasS'pos_seq'
p160
(lp161
S'NNP'
p162
aS'NNP'
p163
aS'RB'
p164
aS'VBN'
p165
aS'IN'
p166
aS'NN'
p167
aS'JJ'
p168
aS'NN'
p169
aS'IN'
p170
aS'DT'
p171
aS'JJ'
p172
aS'NN'
p173
aS'IN'
p174
aS'PRP'
p175
aS'VBZ'
p176
aS'RB'
p177
aS'VBG'
p178
aS'VBN'
p179
aS'IN'
p180
aS'NN'
p181
aS'JJ'
p182
aS'IN'
p183
aS'PRP$'
p184
aS'JJ'
p185
aS'NN'
p186
aS'.'
asS'ner_seq'
p187
(lp188
S'O'
aS'O'
aS'O'
aS'O'
aS'O'
aS'O'
aS'O'
aS'O'
aS'O'
aS'O'
aS'O'
aS'O'
aS'O'
aS'O'
aS'O'
aS'O'
aS'O'
aS'O'
aS'O'
aS'O'
aS'O'
aS'O'
aS'O'
aS'O'
aS'O'
aS'O'
assb.