ccopy_reg
_reconstructor
p1
(c__main__
KBproperty
p2
c__builtin__
object
p3
NtRp4
(dp5
S'comment'
p6
S''
sS'domain'
p7
S'Person '
p8
sS'instances_count'
p9
S'0'
sS'label'
p10
S'imposed danse competition'
p11
sS'range'
p12
S'string '
p13
sS'prop_uri'
p14
S"'http://dbpedia.org/ontology/imposedDanseCompetition'"
p15
sS'annotations'
p16
(dp17
S'bag_of_words'
p18
(lp19
S'Person'
p20
aS'imposed'
p21
aS'danse'
p22
aS'competition'
p23
aS'string'
p24
asS'chunk_seq'
p25
(lp26
S'S-NP'
p27
aS'S-VP'
p28
aS'B-NP'
p29
aS'I-NP'
p30
aS'E-NP'
p31
asS'dep_seq'
p32
(lp33
(lp34
S'nsubj'
p35
aS'2'
aS'1'
aa(lp36
S'root'
p37
aS'0'
aS'2'
aa(lp38
S'nn'
p39
aS'5'
aS'3'
aa(lp40
S'nn'
p41
aS'5'
aS'4'
aa(lp42
S'dobj'
p43
aS'2'
aS'5'
aasS'srls'
p44
(lp45
(dp46
S'A1'
p47
S'danse competition string'
p48
sS'A0'
p49
g20
sS'V'
g21
sasS'pos_seq'
p50
(lp51
S'NN'
p52
aS'VBD'
p53
aS'NN'
p54
aS'NN'
p55
aS'NN'
p56
asS'ner_seq'
p57
(lp58
S'O'
aS'O'
aS'O'
aS'O'
aS'O'
assb.