ccopy_reg
_reconstructor
p1
(c__main__
KBproperty
p2
c__builtin__
object
p3
NtRp4
(dp5
S'comment'
p6
S'code book or statute book referred to in this legal case'
p7
sS'domain'
p8
S'Legal Case '
p9
sS'instances_count'
p10
S'0'
sS'label'
p11
S'code book'
p12
sS'range'
p13
S'string '
p14
sS'prop_uri'
p15
S"'http://dbpedia.org/ontology/codeBook'"
p16
sS'annotations'
p17
(dp18
S'bag_of_words'
p19
(lp20
S'Legal'
p21
aS'Case'
p22
aS'code'
p23
aS'book'
p24
aS'string'
p25
aS'code'
p26
aS'book'
p27
aS'or'
p28
aS'statute'
p29
aS'book'
p30
aS'referred'
p31
aS'to'
p32
aS'in'
p33
aS'this'
p34
aS'legal'
p35
aS'case'
p36
asS'chunk_seq'
p37
(lp38
S'B-NP'
p39
aS'I-NP'
p40
aS'I-NP'
p41
aS'I-NP'
p42
aS'I-NP'
p43
aS'I-NP'
p44
aS'E-NP'
p45
aS'O'
aS'B-NP'
p46
aS'E-NP'
p47
aS'S-VP'
p48
aS'S-PP'
p49
aS'S-PP'
p50
aS'B-NP'
p51
aS'I-NP'
p52
aS'E-NP'
p53
asS'dep_seq'
p54
(lp55
(lp56
S'nn'
p57
aS'7'
aS'1'
aa(lp58
S'nn'
p59
aS'7'
aS'2'
aa(lp60
S'nn'
p61
aS'7'
aS'3'
aa(lp62
S'nn'
p63
aS'7'
aS'4'
aa(lp64
S'nn'
p65
aS'7'
aS'5'
aa(lp66
S'nn'
p67
aS'7'
aS'6'
aa(lp68
S'nsubj'
p69
aS'11'
p70
aS'7'
aa(lp71
S'nn'
p72
aS'10'
p73
aS'9'
aa(lp74
S'conj_or'
p75
aS'7'
aS'10'
p76
aa(lp77
S'root'
p78
aS'0'
aS'11'
p79
aa(lp80
S'prep'
p81
aS'11'
p82
aS'12'
p83
aa(lp84
S'pcomp'
p85
aS'12'
p86
aS'13'
p87
aa(lp88
S'det'
p89
aS'16'
p90
aS'14'
p91
aa(lp92
S'amod'
p93
aS'16'
p94
aS'15'
p95
aa(lp96
S'pobj'
p97
aS'13'
p98
aS'16'
p99
aasS'srls'
p100
(lp101
(dp102
S'A1'
p103
S'to in this legal case'
p104
sS'A0'
p105
S'Legal Case code book string code book or statute book'
p106
sS'V'
g31
sasS'pos_seq'
p107
(lp108
S'NNP'
p109
aS'NNP'
p110
aS'NN'
p111
aS'NN'
p112
aS'NN'
p113
aS'NN'
p114
aS'NN'
p115
aS'CC'
p116
aS'NN'
p117
aS'NN'
p118
aS'VBD'
p119
aS'TO'
p120
aS'IN'
p121
aS'DT'
p122
aS'JJ'
p123
aS'NN'
p124
asS'ner_seq'
p125
(lp126
S'O'
aS'O'
aS'O'
aS'O'
aS'O'
aS'O'
aS'O'
aS'O'
aS'O'
aS'O'
aS'O'
aS'O'
aS'O'
aS'O'
aS'O'
aS'O'
assb.