ccopy_reg
_reconstructor
p1
(c__main__
KBproperty
p2
c__builtin__
object
p3
NtRp4
(dp5
S'comment'
p6
S''
sS'domain'
p7
S''
sS'instances_count'
p8
S'5'
sS'label'
p9
S'belfast distance km'
p10
sS'range'
p11
S''
sS'prop_uri'
p12
S"'http://dbpedia.org/property/belfastDistanceKm'"
p13
sS'annotations'
p14
(dp15
S'bag_of_words'
p16
(lp17
S'belfast'
p18
aS'distance'
p19
aS'km'
p20
asS'chunk_seq'
p21
(lp22
S'B-NP'
p23
aS'I-NP'
p24
aS'E-NP'
p25
asS'dep_seq'
p26
(lp27
(lp28
S'amod'
p29
aS'2'
aS'1'
aa(lp30
S'root'
p31
aS'0'
aS'2'
aa(lp32
S'punct'
p33
aS'2'
aS'3'
aasS'srls'
p34
(lp35
sS'pos_seq'
p36
(lp37
S'JJS'
p38
aS'NN'
p39
aS'.'
asS'ner_seq'
p40
(lp41
S'O'
aS'O'
aS'O'
assb.