ccopy_reg
_reconstructor
p1
(c__main__
KBproperty
p2
c__builtin__
object
p3
NtRp4
(dp5
S'comment'
p6
S''
sS'domain'
p7
S'Supreme Court Of The United States Case '
p8
sS'instances_count'
p9
S'5'
sS'label'
p10
S'decide date'
p11
sS'range'
p12
S'date '
p13
sS'prop_uri'
p14
S"'http://dbpedia.org/ontology/decideDate'"
p15
sS'annotations'
p16
(dp17
S'bag_of_words'
p18
(lp19
S'Supreme'
p20
aS'Court'
p21
aS'Of'
p22
aS'The'
p23
aS'United'
p24
aS'States'
p25
aS'Case'
p26
aS'decide'
p27
aS'date'
p28
aS'date'
p29
asS'chunk_seq'
p30
(lp31
S'B-NP'
p32
aS'E-NP'
p33
aS'S-PP'
p34
aS'B-NP'
p35
aS'I-NP'
p36
aS'I-NP'
p37
aS'E-NP'
p38
aS'S-VP'
p39
aS'B-NP'
p40
aS'E-NP'
p41
asS'dep_seq'
p42
(lp43
(lp44
S'nn'
p45
aS'2'
aS'1'
aa(lp46
S'nsubj'
p47
aS'8'
aS'2'
aa(lp48
S'det'
p49
aS'7'
aS'4'
aa(lp50
S'nn'
p51
aS'7'
aS'5'
aa(lp52
S'nn'
p53
aS'7'
aS'6'
aa(lp54
S'prep_of'
p55
aS'2'
aS'7'
aa(lp56
S'root'
p57
aS'0'
aS'8'
aa(lp58
S'nn'
p59
aS'10'
p60
aS'9'
aa(lp61
S'dobj'
p62
aS'8'
aS'10'
p63
aasS'srls'
p64
(lp65
(dp66
S'A0'
p67
S'Supreme Court Of The United States Case'
p68
sS'AM-TMP'
p69
S'date date'
p70
sS'V'
g27
sasS'pos_seq'
p71
(lp72
S'NNP'
p73
aS'NNP'
p74
aS'IN'
p75
aS'DT'
p76
aS'NNP'
p77
aS'NNP'
p78
aS'NNP'
p79
aS'VBP'
p80
aS'NN'
p81
aS'NN'
p82
asS'ner_seq'
p83
(lp84
S'O'
aS'B-ORG'
p85
aS'I-ORG'
p86
aS'I-ORG'
p87
aS'I-ORG'
p88
aS'I-ORG'
p89
aS'E-ORG'
p90
aS'O'
aS'O'
aS'O'
assb.