ccopy_reg
_reconstructor
p1
(c__main__
KBproperty
p2
c__builtin__
object
p3
NtRp4
(dp5
S'comment'
p6
S''
sS'domain'
p7
S''
sS'instances_count'
p8
S'5'
sS'label'
p9
S'number of staff'
p10
sS'range'
p11
S''
sS'prop_uri'
p12
S"'http://dbpedia.org/property/numberOfStaff'"
p13
sS'annotations'
p14
(dp15
S'bag_of_words'
p16
(lp17
S'number'
p18
aS'of'
p19
aS'staff'
p20
asS'chunk_seq'
p21
(lp22
S'S-NP'
p23
aS'S-PP'
p24
aS'S-NP'
p25
asS'dep_seq'
p26
(lp27
(lp28
S'root'
p29
aS'0'
aS'1'
aa(lp30
S'prep_of'
p31
aS'1'
aS'3'
aasS'srls'
p32
(lp33
sS'pos_seq'
p34
(lp35
S'NN'
p36
aS'IN'
p37
aS'NN'
p38
asS'ner_seq'
p39
(lp40
S'O'
aS'O'
aS'O'
assb.