ccopy_reg
_reconstructor
p1
(c__main__
KBproperty
p2
c__builtin__
object
p3
NtRp4
(dp5
S'comment'
p6
S'The term of the on-going session e.g.: "40th Canadian Parliament".'
p7
sS'domain'
p8
S'Legislature '
p9
sS'instances_count'
p10
S'581'
p11
sS'label'
p12
S'legislative period name'
p13
sS'range'
p14
S'string '
p15
sS'prop_uri'
p16
S"'http://dbpedia.org/ontology/legislativePeriodName'"
p17
sS'annotations'
p18
(dp19
S'bag_of_words'
p20
(lp21
S'Legislature'
p22
aS'legislative'
p23
aS'period'
p24
aS'name'
p25
aS'string'
p26
aS'The'
p27
aS'term'
p28
aS'of'
p29
aS'the'
p30
aS'on-going'
p31
aS'session'
p32
aS'e.g.'
p33
aS':'
aS'"'
aS'40th'
p34
aS'Canadian'
p35
aS'Parliament'
p36
aS'"'
aS'.'
asS'chunk_seq'
p37
(lp38
S'B-NP'
p39
aS'I-NP'
p40
aS'I-NP'
p41
aS'I-NP'
p42
aS'E-NP'
p43
aS'B-NP'
p44
aS'E-NP'
p45
aS'S-PP'
p46
aS'B-NP'
p47
aS'I-NP'
p48
aS'E-NP'
p49
aS'S-ADVP'
p50
aS'O'
aS'B-NP'
p51
aS'I-NP'
p52
aS'I-NP'
p53
aS'I-NP'
p54
aS'E-NP'
p55
aS'O'
asS'dep_seq'
p56
(lp57
(lp58
S'nn'
p59
aS'5'
aS'1'
aa(lp60
S'amod'
p61
aS'5'
aS'2'
aa(lp62
S'nn'
p63
aS'5'
aS'3'
aa(lp64
S'nn'
p65
aS'5'
aS'4'
aa(lp66
S'root'
p67
aS'0'
aS'5'
aa(lp68
S'det'
p69
aS'7'
aS'6'
aa(lp70
S'dep'
p71
aS'5'
aS'7'
aa(lp72
S'det'
p73
aS'11'
p74
aS'9'
aa(lp75
S'amod'
p76
aS'11'
p77
aS'going'
p78
aa(lp79
S'prep_of'
p80
aS'7'
aS'11'
p81
aa(lp82
S'advmod'
p83
aS'5'
aS'12'
p84
aa(lp85
S'amod'
p86
aS'18'
p87
aS'14'
p88
aa(lp89
S'amod'
p90
aS'18'
p91
aS'15'
p92
aa(lp93
S'nn'
p94
aS'18'
p95
aS'16'
p96
aa(lp97
S'nn'
p98
aS'18'
p99
aS'17'
p100
aa(lp101
S'dep'
p102
aS'5'
aS'18'
p103
aasS'srls'
p104
(lp105
sS'pos_seq'
p106
(lp107
S'NN'
p108
aS'JJ'
p109
aS'NN'
p110
aS'NN'
p111
aS'NN'
p112
aS'DT'
p113
aS'NN'
p114
aS'IN'
p115
aS'DT'
p116
aS'JJ'
p117
aS'NN'
p118
aS'RB'
p119
aS':'
aS'JJ'
p120
aS'JJ'
p121
aS'NNP'
p122
aS'NNP'
p123
aS'NN'
p124
aS'.'
asS'ner_seq'
p125
(lp126
S'O'
aS'O'
aS'O'
aS'O'
aS'O'
aS'O'
aS'O'
aS'O'
aS'O'
aS'O'
aS'O'
aS'O'
aS'O'
aS'O'
aS'O'
aS'S-MISC'
p127
aS'O'
aS'O'
aS'O'
assb.