ccopy_reg
_reconstructor
p1
(c__main__
KBproperty
p2
c__builtin__
object
p3
NtRp4
(dp5
S'comment'
p6
S'wars that were typical for the usage of a weapon'
p7
sS'domain'
p8
S'Weapon '
p9
sS'instances_count'
p10
S'4670'
p11
sS'label'
p12
S'used in war'
p13
sS'range'
p14
S'Military Conflict '
p15
sS'prop_uri'
p16
S"'http://dbpedia.org/ontology/usedInWar'"
p17
sS'annotations'
p18
(dp19
S'bag_of_words'
p20
(lp21
S'Weapon'
p22
aS'used'
p23
aS'in'
p24
aS'war'
p25
aS'Military'
p26
aS'Conflict'
p27
aS'wars'
p28
aS'that'
p29
aS'were'
p30
aS'typical'
p31
aS'for'
p32
aS'the'
p33
aS'usage'
p34
aS'of'
p35
aS'a'
aS'weapon'
p36
asS'chunk_seq'
p37
(lp38
S'S-NP'
p39
aS'S-VP'
p40
aS'S-PP'
p41
aS'B-NP'
p42
aS'I-NP'
p43
aS'I-NP'
p44
aS'E-NP'
p45
aS'S-NP'
p46
aS'S-VP'
p47
aS'S-ADJP'
p48
aS'S-PP'
p49
aS'B-NP'
p50
aS'E-NP'
p51
aS'S-PP'
p52
aS'B-NP'
p53
aS'E-NP'
p54
asS'dep_seq'
p55
(lp56
(lp57
S'root'
p58
aS'0'
aS'1'
aa(lp59
S'nsubj'
p60
aS'10'
p61
aS'1'
aa(lp62
S'partmod'
p63
aS'1'
aS'2'
aa(lp64
S'nn'
p65
aS'7'
aS'4'
aa(lp66
S'nn'
p67
aS'7'
aS'5'
aa(lp68
S'nn'
p69
aS'7'
aS'6'
aa(lp70
S'prep_in'
p71
aS'2'
aS'7'
aa(lp72
S'cop'
p73
aS'10'
p74
aS'9'
aa(lp75
S'rcmod'
p76
aS'1'
aS'10'
p77
aa(lp78
S'det'
p79
aS'13'
p80
aS'12'
p81
aa(lp82
S'prep_for'
p83
aS'10'
p84
aS'13'
p85
aa(lp86
S'det'
p87
aS'16'
p88
aS'15'
p89
aa(lp90
S'prep_of'
p91
aS'13'
p92
aS'16'
p93
aasS'srls'
p94
(lp95
(dp96
S'A1'
p97
g22
sS'A2'
p98
S'in war Military Conflict wars that were typical for the usage of a weapon'
p99
sS'V'
g23
sasS'pos_seq'
p100
(lp101
S'NN'
p102
aS'VBN'
p103
aS'IN'
p104
aS'NN'
p105
aS'NNP'
p106
aS'NNP'
p107
aS'NNS'
p108
aS'WDT'
p109
aS'VBD'
p110
aS'JJ'
p111
aS'IN'
p112
aS'DT'
p113
aS'NN'
p114
aS'IN'
p115
aS'DT'
p116
aS'NN'
p117
asS'ner_seq'
p118
(lp119
S'O'
aS'O'
aS'O'
aS'O'
aS'B-MISC'
p120
aS'E-MISC'
p121
aS'O'
aS'O'
aS'O'
aS'O'
aS'O'
aS'O'
aS'O'
aS'O'
aS'O'
aS'O'
assb.