ccopy_reg
_reconstructor
p1
(c__main__
KBproperty
p2
c__builtin__
object
p3
NtRp4
(dp5
S'comment'
p6
S''
sS'domain'
p7
S''
sS'instances_count'
p8
S'290'
p9
sS'label'
p10
S'max-depth m'
p11
sS'range'
p12
S''
sS'prop_uri'
p13
S"'http://dbpedia.org/property/maxDepthM'"
p14
sS'annotations'
p15
(dp16
S'bag_of_words'
p17
(lp18
S'max'
p19
aS'-'
aS'depth'
p20
aS'm'
asS'chunk_seq'
p21
(lp22
S'S-NP'
p23
aS'O'
aS'B-NP'
p24
aS'E-NP'
p25
asS'dep_seq'
p26
(lp27
(lp28
S'root'
p29
aS'0'
aS'1'
aa(lp30
S'dep'
p31
aS'1'
aS'3'
aa(lp32
S'dep'
p33
aS'3'
aS'4'
aasS'srls'
p34
(lp35
sS'pos_seq'
p36
(lp37
S'NN'
p38
aS':'
aS'NN'
p39
aS'.'
asS'ner_seq'
p40
(lp41
S'O'
aS'O'
aS'O'
aS'O'
assb.