ccopy_reg
_reconstructor
p1
(c__main__
KBproperty
p2
c__builtin__
object
p3
NtRp4
(dp5
S'comment'
p6
S'von Klitzing electromagnetic constant RK'
p7
sS'domain'
p8
S'Celestial Body '
p9
sS'instances_count'
p10
S'0'
sS'label'
p11
g7
sS'range'
p12
S'double '
p13
sS'prop_uri'
p14
S"'http://dbpedia.org/ontology/vonKlitzingConstant'"
p15
sS'annotations'
p16
(dp17
S'bag_of_words'
p18
(lp19
S'Celestial'
p20
aS'Body'
p21
aS'von'
p22
aS'Klitzing'
p23
aS'Constant'
p24
aS'double'
p25
aS'von'
p26
aS'Klitzing'
p27
aS'electromagnetic'
p28
aS'constant'
p29
aS'RK'
p30
asS'chunk_seq'
p31
(lp32
S'B-NP'
p33
aS'I-NP'
p34
aS'I-NP'
p35
aS'I-NP'
p36
aS'I-NP'
p37
aS'I-NP'
p38
aS'I-NP'
p39
aS'I-NP'
p40
aS'I-NP'
p41
aS'I-NP'
p42
aS'E-NP'
p43
asS'dep_seq'
p44
(lp45
(lp46
S'amod'
p47
aS'7'
aS'1'
aa(lp48
S'nn'
p49
aS'7'
aS'2'
aa(lp50
S'nn'
p51
aS'7'
aS'3'
aa(lp52
S'nn'
p53
aS'7'
aS'4'
aa(lp54
S'nn'
p55
aS'7'
aS'5'
aa(lp56
S'amod'
p57
aS'7'
aS'6'
aa(lp58
S'dep'
p59
aS'11'
p60
aS'7'
aa(lp61
S'amod'
p62
aS'7'
aS'8'
aa(lp63
S'amod'
p64
aS'11'
p65
aS'9'
aa(lp66
S'amod'
p67
aS'11'
p68
aS'10'
p69
aa(lp70
S'root'
p71
aS'0'
aS'11'
p72
aasS'srls'
p73
(lp74
sS'pos_seq'
p75
(lp76
S'JJ'
p77
aS'NN'
p78
aS'NN'
p79
aS'NNP'
p80
aS'NNP'
p81
aS'JJ'
p82
aS'NN'
p83
aS'VBG'
p84
aS'JJ'
p85
aS'JJ'
p86
aS'NNP'
p87
asS'ner_seq'
p88
(lp89
S'O'
aS'O'
aS'O'
aS'S-PER'
p90
aS'O'
aS'O'
aS'O'
aS'S-PER'
p91
aS'O'
aS'O'
aS'S-ORG'
p92
assb.