ccopy_reg
_reconstructor
p1
(c__main__
KBproperty
p2
c__builtin__
object
p3
NtRp4
(dp5
S'comment'
p6
S'discovery date'
p7
sS'domain'
p8
S'Celestial Body '
p9
sS'instances_count'
p10
S'3037'
p11
sS'label'
p12
g7
sS'range'
p13
S'date '
p14
sS'prop_uri'
p15
S"'http://dbpedia.org/ontology/discovered'"
p16
sS'annotations'
p17
(dp18
S'bag_of_words'
p19
(lp20
S'Celestial'
p21
aS'Body'
p22
aS'discovered'
p23
aS'date'
p24
aS'discovery'
p25
aS'date'
p26
asS'chunk_seq'
p27
(lp28
S'B-NP'
p29
aS'E-NP'
p30
aS'S-VP'
p31
aS'B-NP'
p32
aS'I-NP'
p33
aS'E-NP'
p34
asS'dep_seq'
p35
(lp36
(lp37
S'amod'
p38
aS'2'
aS'1'
aa(lp39
S'root'
p40
aS'0'
aS'2'
aa(lp41
S'partmod'
p42
aS'2'
aS'3'
aa(lp43
S'iobj'
p44
aS'3'
aS'4'
aa(lp45
S'nn'
p46
aS'6'
aS'5'
aa(lp47
S'dobj'
p48
aS'3'
aS'6'
aasS'srls'
p49
(lp50
(dp51
S'A1'
p52
S'date discovery date'
p53
sS'A0'
p54
S'Celestial Body'
p55
sS'V'
g23
sasS'pos_seq'
p56
(lp57
S'JJ'
p58
aS'NN'
p59
aS'VBN'
p60
aS'NN'
p61
aS'NN'
p62
aS'NN'
p63
asS'ner_seq'
p64
(lp65
S'B-ORG'
p66
aS'E-ORG'
p67
aS'O'
aS'O'
aS'O'
aS'O'
assb.