ccopy_reg
_reconstructor
p1
(c__main__
KBproperty
p2
c__builtin__
object
p3
NtRp4
(dp5
S'comment'
p6
S'original maximum boat length \\xce\\xbc'
p7
sS'domain'
p8
S'Canal '
p9
sS'instances_count'
p10
S'5'
sS'label'
p11
g7
sS'range'
p12
S'double '
p13
sS'prop_uri'
p14
S"'http://dbpedia.org/ontology/originalMaximumBoatLength'"
p15
sS'annotations'
p16
(dp17
S'bag_of_words'
p18
(lp19
S'Canal'
p20
aS'original'
p21
aS'Maximum'
p22
aS'Boat'
p23
aS'Length'
p24
aS'double'
p25
aS'original'
p26
aS'maximum'
p27
aS'boat'
p28
aS'length'
p29
aS'\\'
aS'xce'
p30
aS'\\'
aS'xbc'
p31
asS'chunk_seq'
p32
(lp33
S'B-NP'
p34
aS'I-NP'
p35
aS'I-NP'
p36
aS'I-NP'
p37
aS'I-NP'
p38
aS'I-NP'
p39
aS'I-NP'
p40
aS'I-NP'
p41
aS'I-NP'
p42
aS'E-NP'
p43
aS'O'
aS'O'
aS'O'
aS'O'
asS'dep_seq'
p44
(lp45
(lp46
S'nn'
p47
aS'5'
aS'1'
aa(lp48
S'amod'
p49
aS'5'
aS'2'
aa(lp50
S'nn'
p51
aS'5'
aS'3'
aa(lp52
S'nn'
p53
aS'5'
aS'4'
aa(lp54
S'nsubj'
p55
aS'11'
p56
aS'5'
aa(lp57
S'amod'
p58
aS'10'
p59
aS'6'
aa(lp60
S'amod'
p61
aS'10'
p62
aS'7'
aa(lp63
S'amod'
p64
aS'10'
p65
aS'8'
aa(lp66
S'nn'
p67
aS'10'
p68
aS'9'
aa(lp69
S'nsubj'
p70
aS'11'
p71
aS'10'
p72
aa(lp73
S'root'
p74
aS'0'
aS'11'
p75
aa(lp76
S'nn'
p77
aS'14'
p78
aS'12'
p79
aa(lp80
S'nn'
p81
aS'14'
p82
aS'13'
p83
aa(lp84
S'advmod'
p85
aS'11'
p86
aS'14'
p87
aasS'srls'
p88
(lp89
sS'pos_seq'
p90
(lp91
S'NNP'
p92
aS'JJ'
p93
aS'NNP'
p94
aS'NNP'
p95
aS'NNP'
p96
aS'JJ'
p97
aS'JJ'
p98
aS'JJ'
p99
aS'NN'
p100
aS'NN'
p101
aS'FW'
p102
aS'FW'
p103
aS'FW'
p104
aS'FW'
p105
asS'ner_seq'
p106
(lp107
S'O'
aS'O'
aS'O'
aS'O'
aS'O'
aS'O'
aS'O'
aS'O'
aS'O'
aS'O'
aS'O'
aS'O'
aS'O'
aS'O'
assb.