ccopy_reg
_reconstructor
p1
(c__main__
KBproperty
p2
c__builtin__
object
p3
NtRp4
(dp5
S'comment'
p6
S'Waterway that goes through the tunnel.'
p7
sS'domain'
p8
S'Waterway Tunnel '
p9
sS'instances_count'
p10
S'22'
p11
sS'label'
p12
S'waterway through tunnel'
p13
sS'range'
p14
S''
sS'prop_uri'
p15
S"'http://dbpedia.org/ontology/waterwayThroughTunnel'"
p16
sS'annotations'
p17
(dp18
S'bag_of_words'
p19
(lp20
S'Waterway'
p21
aS'Tunnel'
p22
aS'waterway'
p23
aS'through'
p24
aS'tunnel'
p25
aS'Waterway'
p26
aS'that'
p27
aS'goes'
p28
aS'through'
p29
aS'the'
p30
aS'tunnel'
p31
aS'.'
asS'chunk_seq'
p32
(lp33
S'B-NP'
p34
aS'I-NP'
p35
aS'E-NP'
p36
aS'S-PP'
p37
aS'B-NP'
p38
aS'E-NP'
p39
aS'S-NP'
p40
aS'S-VP'
p41
aS'S-PP'
p42
aS'B-NP'
p43
aS'E-NP'
p44
aS'O'
asS'dep_seq'
p45
(lp46
(lp47
S'nn'
p48
aS'3'
aS'1'
aa(lp49
S'nn'
p50
aS'3'
aS'2'
aa(lp51
S'root'
p52
aS'0'
aS'3'
aa(lp53
S'nsubj'
p54
aS'8'
aS'3'
aa(lp55
S'nn'
p56
aS'6'
aS'5'
aa(lp57
S'prep_through'
p58
aS'3'
aS'6'
aa(lp59
S'rcmod'
p60
aS'3'
aS'8'
aa(lp61
S'det'
p62
aS'11'
p63
aS'10'
p64
aa(lp65
S'prep_through'
p66
aS'8'
aS'11'
p67
aasS'srls'
p68
(lp69
(dp70
S'AM-DIR'
p71
S'through the tunnel'
p72
sS'R-A1'
p73
g27
sS'V'
g28
sasS'pos_seq'
p74
(lp75
S'NNP'
p76
aS'NNP'
p77
aS'NN'
p78
aS'IN'
p79
aS'NN'
p80
aS'NN'
p81
aS'WDT'
p82
aS'VBZ'
p83
aS'IN'
p84
aS'DT'
p85
aS'NN'
p86
aS'.'
asS'ner_seq'
p87
(lp88
S'O'
aS'O'
aS'O'
aS'O'
aS'O'
aS'O'
aS'O'
aS'O'
aS'O'
aS'O'
aS'O'
aS'O'
assb.