ccopy_reg
_reconstructor
p1
(c__main__
KBproperty
p2
c__builtin__
object
p3
NtRp4
(dp5
S'comment'
p6
S'individualised PND number'
p7
sS'domain'
p8
S'Person '
p9
sS'instances_count'
p10
S'0'
sS'label'
p11
g7
sS'range'
p12
S'non Negative Integer '
p13
sS'prop_uri'
p14
S"'http://dbpedia.org/ontology/individualisedPnd'"
p15
sS'annotations'
p16
(dp17
S'bag_of_words'
p18
(lp19
S'Person'
p20
aS'individualised'
p21
aS'Pnd'
p22
aS'non'
p23
aS'Negative'
p24
aS'Integer'
p25
aS'individualised'
p26
aS'PND'
p27
aS'number'
p28
asS'chunk_seq'
p29
(lp30
S'S-NP'
p31
aS'S-VP'
p32
aS'B-NP'
p33
aS'I-NP'
p34
aS'I-NP'
p35
aS'I-NP'
p36
aS'I-NP'
p37
aS'I-NP'
p38
aS'E-NP'
p39
asS'dep_seq'
p40
(lp41
(lp42
S'nsubj'
p43
aS'2'
aS'1'
aa(lp44
S'root'
p45
aS'0'
aS'2'
aa(lp46
S'nn'
p47
aS'9'
aS'3'
aa(lp48
S'amod'
p49
aS'9'
aS'4'
aa(lp50
S'nn'
p51
aS'9'
aS'5'
aa(lp52
S'nn'
p53
aS'9'
aS'6'
aa(lp54
S'amod'
p55
aS'9'
aS'7'
aa(lp56
S'nn'
p57
aS'9'
aS'8'
aa(lp58
S'dobj'
p59
aS'2'
aS'9'
aasS'srls'
p60
(lp61
(dp62
S'A1'
p63
S'Pnd non Negative Integer individualised PND number'
p64
sS'A0'
p65
g20
sS'V'
g21
sasS'pos_seq'
p66
(lp67
S'NN'
p68
aS'VBD'
p69
aS'NNP'
p70
aS'JJ'
p71
aS'NNP'
p72
aS'NNP'
p73
aS'JJ'
p74
aS'NNP'
p75
aS'NN'
p76
asS'ner_seq'
p77
(lp78
S'O'
aS'O'
aS'S-PER'
p79
aS'O'
aS'O'
aS'O'
aS'O'
aS'O'
aS'O'
assb.