ccopy_reg
_reconstructor
p1
(c__main__
KBproperty
p2
c__builtin__
object
p3
NtRp4
(dp5
S'comment'
p6
S'Number of things eg vehicles sold'
p7
sS'domain'
p8
S'Sales '
p9
sS'instances_count'
p10
S'6062'
p11
sS'label'
p12
S'number sold'
p13
sS'range'
p14
S'non Negative Integer '
p15
sS'prop_uri'
p16
S"'http://dbpedia.org/ontology/numberSold'"
p17
sS'annotations'
p18
(dp19
S'bag_of_words'
p20
(lp21
S'Sales'
p22
aS'number'
p23
aS'sold'
p24
aS'non'
p25
aS'Negative'
p26
aS'Integer'
p27
aS'Number'
p28
aS'of'
p29
aS'things'
p30
aS'eg'
p31
aS'vehicles'
p32
aS'sold'
p33
asS'chunk_seq'
p34
(lp35
S'B-NP'
p36
aS'E-NP'
p37
aS'S-VP'
p38
aS'B-NP'
p39
aS'I-NP'
p40
aS'I-NP'
p41
aS'E-NP'
p42
aS'S-PP'
p43
aS'S-NP'
p44
aS'B-NP'
p45
aS'E-NP'
p46
aS'S-VP'
p47
asS'dep_seq'
p48
(lp49
(lp50
S'nn'
p51
aS'2'
aS'1'
aa(lp52
S'nsubj'
p53
aS'3'
aS'2'
aa(lp54
S'root'
p55
aS'0'
aS'3'
aa(lp56
S'amod'
p57
aS'7'
aS'4'
aa(lp58
S'amod'
p59
aS'7'
aS'5'
aa(lp60
S'nn'
p61
aS'7'
aS'6'
aa(lp62
S'dobj'
p63
aS'3'
aS'7'
aa(lp64
S'prep_of'
p65
aS'7'
aS'9'
aa(lp66
S'dobj'
p67
aS'12'
p68
aS'9'
aa(lp69
S'amod'
p70
aS'11'
p71
aS'10'
p72
aa(lp73
S'nsubj'
p74
aS'12'
p75
aS'11'
p76
aa(lp77
S'rcmod'
p78
aS'9'
aS'12'
p79
aasS'srls'
p80
(lp81
(dp82
S'A1'
p83
S'Sales number  non Negative Integer Number of things eg vehicles sold'
p84
sS'V'
g24
sasS'pos_seq'
p85
(lp86
S'NNS'
p87
aS'NN'
p88
aS'VBD'
p89
aS'JJ'
p90
aS'JJ'
p91
aS'NNP'
p92
aS'NNP'
p93
aS'IN'
p94
aS'NNS'
p95
aS'JJ'
p96
aS'NNS'
p97
aS'VBD'
p98
asS'ner_seq'
p99
(lp100
S'O'
aS'O'
aS'O'
aS'O'
aS'O'
aS'O'
aS'O'
aS'O'
aS'O'
aS'O'
aS'O'
aS'O'
assb.