ccopy_reg
_reconstructor
p1
(c__main__
KBproperty
p2
c__builtin__
object
p3
NtRp4
(dp5
S'comment'
p6
S'Coat of arms heraldic image or emblem'
p7
sS'domain'
p8
S''
sS'instances_count'
p9
S'0'
sS'label'
p10
S'blazon'
p11
sS'range'
p12
S'string '
p13
sS'prop_uri'
p14
S"'http://dbpedia.org/ontology/blazon'"
p15
sS'annotations'
p16
(dp17
S'bag_of_words'
p18
(lp19
S'blazon'
p20
aS'string'
p21
aS'Coat'
p22
aS'of'
p23
aS'arms'
p24
aS'heraldic'
p25
aS'image'
p26
aS'or'
p27
aS'emblem'
p28
asS'chunk_seq'
p29
(lp30
S'B-NP'
p31
aS'I-NP'
p32
aS'E-NP'
p33
aS'S-PP'
p34
aS'B-NP'
p35
aS'I-NP'
p36
aS'I-NP'
p37
aS'I-NP'
p38
aS'E-NP'
p39
asS'dep_seq'
p40
(lp41
(lp42
S'nn'
p43
aS'3'
aS'1'
aa(lp44
S'nn'
p45
aS'3'
aS'2'
aa(lp46
S'root'
p47
aS'0'
aS'3'
aa(lp48
S'nn'
p49
aS'7'
aS'5'
aa(lp50
S'amod'
p51
aS'7'
aS'6'
aa(lp52
S'prep_of'
p53
aS'3'
aS'7'
aa(lp54
S'conj_or'
p55
aS'7'
aS'9'
aasS'srls'
p56
(lp57
sS'pos_seq'
p58
(lp59
S'NN'
p60
aS'NN'
p61
aS'NN'
p62
aS'IN'
p63
aS'NNS'
p64
aS'JJ'
p65
aS'NN'
p66
aS'CC'
p67
aS'NN'
p68
asS'ner_seq'
p69
(lp70
S'O'
aS'O'
aS'O'
aS'O'
aS'O'
aS'O'
aS'O'
aS'O'
aS'O'
assb.