ccopy_reg
_reconstructor
p1
(c__main__
KBproperty
p2
c__builtin__
object
p3
NtRp4
(dp5
S'comment'
p6
S'variant or variation'
p7
sS'domain'
p8
S''
sS'instances_count'
p9
S'635'
p10
sS'label'
p11
g7
sS'range'
p12
S''
sS'prop_uri'
p13
S"'http://dbpedia.org/ontology/hasVariant'"
p14
sS'annotations'
p15
(dp16
S'bag_of_words'
p17
(lp18
S'has'
p19
aS'Variant'
p20
aS'variant'
p21
aS'or'
p22
aS'variation'
p23
asS'chunk_seq'
p24
(lp25
S'S-VP'
p26
aS'B-NP'
p27
aS'I-NP'
p28
aS'I-NP'
p29
aS'E-NP'
p30
asS'dep_seq'
p31
(lp32
(lp33
S'root'
p34
aS'0'
aS'1'
aa(lp35
S'nn'
p36
aS'3'
aS'2'
aa(lp37
S'dobj'
p38
aS'1'
aS'3'
aa(lp39
S'conj_or'
p40
aS'3'
aS'5'
aasS'srls'
p41
(lp42
sS'pos_seq'
p43
(lp44
S'VBZ'
p45
aS'NN'
p46
aS'NN'
p47
aS'CC'
p48
aS'NN'
p49
asS'ner_seq'
p50
(lp51
S'O'
aS'O'
aS'O'
aS'O'
aS'O'
assb.