ccopy_reg
_reconstructor
p1
(c__main__
KBproperty
p2
c__builtin__
object
p3
NtRp4
(dp5
S'comment'
p6
S'Link from a Wikipage to an external page'
p7
sS'domain'
p8
S''
sS'instances_count'
p9
S'7584367'
p10
sS'label'
p11
g7
sS'range'
p12
S''
sS'prop_uri'
p13
S"'http://dbpedia.org/ontology/wikiPageExternalLink'"
p14
sS'annotations'
p15
(dp16
S'bag_of_words'
p17
(lp18
S'wiki'
p19
aS'Page'
p20
aS'External'
p21
aS'Link'
p22
aS'Link'
p23
aS'from'
p24
aS'a'
aS'Wikipage'
p25
aS'to'
p26
aS'an'
p27
aS'external'
p28
aS'page'
p29
asS'chunk_seq'
p30
(lp31
S'B-NP'
p32
aS'I-NP'
p33
aS'I-NP'
p34
aS'I-NP'
p35
aS'E-NP'
p36
aS'S-PP'
p37
aS'B-NP'
p38
aS'E-NP'
p39
aS'S-PP'
p40
aS'B-NP'
p41
aS'I-NP'
p42
aS'E-NP'
p43
asS'dep_seq'
p44
(lp45
(lp46
S'nn'
p47
aS'5'
aS'1'
aa(lp48
S'nn'
p49
aS'5'
aS'2'
aa(lp50
S'nn'
p51
aS'5'
aS'3'
aa(lp52
S'nn'
p53
aS'5'
aS'4'
aa(lp54
S'root'
p55
aS'0'
aS'5'
aa(lp56
S'det'
p57
aS'8'
aS'7'
aa(lp58
S'prep_from'
p59
aS'5'
aS'8'
aa(lp60
S'det'
p61
aS'12'
p62
aS'10'
p63
aa(lp64
S'amod'
p65
aS'12'
p66
aS'11'
p67
aa(lp68
S'prep_to'
p69
aS'5'
aS'12'
p70
aasS'srls'
p71
(lp72
sS'pos_seq'
p73
(lp74
S'NN'
p75
aS'NNP'
p76
aS'NNP'
p77
aS'NNP'
p78
aS'NNP'
p79
aS'IN'
p80
aS'DT'
p81
aS'NNP'
p82
aS'TO'
p83
aS'DT'
p84
aS'JJ'
p85
aS'NN'
p86
asS'ner_seq'
p87
(lp88
S'O'
aS'O'
aS'S-MISC'
p89
aS'O'
aS'O'
aS'O'
aS'O'
aS'S-MISC'
p90
aS'O'
aS'O'
aS'O'
aS'O'
assb.