ccopy_reg
_reconstructor
p1
(c__main__
KBproperty
p2
c__builtin__
object
p3
NtRp4
(dp5
S'comment'
p6
S'The Internet Broadway Database ID IBDB ID from ibdb.com.'
p7
sS'domain'
p8
S'Play '
p9
sS'instances_count'
p10
S'1'
sS'label'
p11
S'IBDB ID'
p12
sS'range'
p13
S'string '
p14
sS'prop_uri'
p15
S"'http://dbpedia.org/ontology/ibdbId'"
p16
sS'annotations'
p17
(dp18
S'bag_of_words'
p19
(lp20
S'Play'
p21
aS'IBDB'
p22
aS'ID'
p23
aS'string'
p24
aS'The'
p25
aS'Internet'
p26
aS'Broadway'
p27
aS'Database'
p28
aS'ID'
p29
aS'IBDB'
p30
aS'ID'
p31
aS'from'
p32
aS'ibdb'
p33
aS'.com'
p34
aS'.'
asS'chunk_seq'
p35
(lp36
S'S-VP'
p37
aS'B-NP'
p38
aS'I-NP'
p39
aS'E-NP'
p40
aS'B-NP'
p41
aS'I-NP'
p42
aS'I-NP'
p43
aS'I-NP'
p44
aS'I-NP'
p45
aS'I-NP'
p46
aS'E-NP'
p47
aS'S-PP'
p48
aS'B-NP'
p49
aS'E-NP'
p50
aS'O'
asS'dep_seq'
p51
(lp52
(lp53
S'root'
p54
aS'0'
aS'1'
aa(lp55
S'nn'
p56
aS'4'
aS'2'
aa(lp57
S'nn'
p58
aS'4'
aS'3'
aa(lp59
S'iobj'
p60
aS'1'
aS'4'
aa(lp61
S'det'
p62
aS'11'
p63
aS'5'
aa(lp64
S'nn'
p65
aS'11'
p66
aS'6'
aa(lp67
S'nn'
p68
aS'11'
p69
aS'7'
aa(lp70
S'nn'
p71
aS'11'
p72
aS'8'
aa(lp73
S'nn'
p74
aS'11'
p75
aS'9'
aa(lp76
S'nn'
p77
aS'11'
p78
aS'10'
p79
aa(lp80
S'dobj'
p81
aS'1'
aS'11'
p82
aa(lp83
S'amod'
p84
aS'14'
p85
aS'13'
p86
aa(lp87
S'prep_from'
p88
aS'11'
p89
aS'14'
p90
aasS'srls'
p91
(lp92
(dp93
S'A1'
p94
S'IBDB ID string'
p95
sS'A0'
p96
S'The Internet Broadway Database ID IBDB ID from ibdb .com'
p97
sS'V'
g21
sasS'pos_seq'
p98
(lp99
S'VB'
p100
aS'NNP'
p101
aS'NNP'
p102
aS'NN'
p103
aS'DT'
p104
aS'NNP'
p105
aS'NNP'
p106
aS'NNP'
p107
aS'NNP'
p108
aS'NNP'
p109
aS'NN'
p110
aS'IN'
p111
aS'JJ'
p112
aS'NN'
p113
aS'.'
asS'ner_seq'
p114
(lp115
S'O'
aS'S-MISC'
p116
aS'O'
aS'O'
aS'O'
aS'B-ORG'
p117
aS'I-ORG'
p118
aS'E-ORG'
p119
aS'O'
aS'O'
aS'O'
aS'O'
aS'O'
aS'O'
aS'O'
assb.