ccopy_reg
_reconstructor
p1
(c__main__
KBproperty
p2
c__builtin__
object
p3
NtRp4
(dp5
S'comment'
p6
S'National cuisine of a Food or Restaurant'
p7
sS'domain'
p8
S''
sS'instances_count'
p9
S'765'
p10
sS'label'
p11
S'cuisine'
p12
sS'range'
p13
S'string '
p14
sS'prop_uri'
p15
S"'http://dbpedia.org/ontology/cuisine'"
p16
sS'annotations'
p17
(dp18
S'bag_of_words'
p19
(lp20
S'cuisine'
p21
aS'string'
p22
aS'National'
p23
aS'cuisine'
p24
aS'of'
p25
aS'a'
aS'Food'
p26
aS'or'
p27
aS'Restaurant'
p28
asS'chunk_seq'
p29
(lp30
S'B-NP'
p31
aS'I-NP'
p32
aS'I-NP'
p33
aS'E-NP'
p34
aS'S-PP'
p35
aS'B-NP'
p36
aS'I-NP'
p37
aS'I-NP'
p38
aS'E-NP'
p39
asS'dep_seq'
p40
(lp41
(lp42
S'nn'
p43
aS'4'
aS'1'
aa(lp44
S'nn'
p45
aS'4'
aS'2'
aa(lp46
S'amod'
p47
aS'4'
aS'3'
aa(lp48
S'root'
p49
aS'0'
aS'4'
aa(lp50
S'det'
p51
aS'7'
aS'6'
aa(lp52
S'prep_of'
p53
aS'4'
aS'7'
aa(lp54
S'conj_or'
p55
aS'7'
aS'9'
aasS'srls'
p56
(lp57
sS'pos_seq'
p58
(lp59
S'NN'
p60
aS'NN'
p61
aS'JJ'
p62
aS'NN'
p63
aS'IN'
p64
aS'DT'
p65
aS'NNP'
p66
aS'CC'
p67
aS'NNP'
p68
asS'ner_seq'
p69
(lp70
S'O'
aS'O'
aS'S-MISC'
p71
aS'O'
aS'O'
aS'O'
aS'O'
aS'O'
aS'O'
assb.