ccopy_reg
_reconstructor
p1
(c__main__
KBproperty
p2
c__builtin__
object
p3
NtRp4
(dp5
S'comment'
p6
S'The start date of the project.'
p7
sS'domain'
p8
S'Project '
p9
sS'instances_count'
p10
S'2'
sS'label'
p11
S'project start date'
p12
sS'range'
p13
S'date '
p14
sS'prop_uri'
p15
S"'http://dbpedia.org/ontology/projectStartDate'"
p16
sS'annotations'
p17
(dp18
S'bag_of_words'
p19
(lp20
S'Project'
p21
aS'project'
p22
aS'start'
p23
aS'date'
p24
aS'date'
p25
aS'The'
p26
aS'start'
p27
aS'date'
p28
aS'of'
p29
aS'the'
p30
aS'project'
p31
aS'.'
asS'chunk_seq'
p32
(lp33
S'B-NP'
p34
aS'E-NP'
p35
aS'S-VP'
p36
aS'B-NP'
p37
aS'E-NP'
p38
aS'B-NP'
p39
aS'I-NP'
p40
aS'E-NP'
p41
aS'S-PP'
p42
aS'B-NP'
p43
aS'E-NP'
p44
aS'O'
asS'dep_seq'
p45
(lp46
(lp47
S'nn'
p48
aS'2'
aS'1'
aa(lp49
S'nsubj'
p50
aS'3'
aS'2'
aa(lp51
S'root'
p52
aS'0'
aS'3'
aa(lp53
S'nn'
p54
aS'5'
aS'4'
aa(lp55
S'iobj'
p56
aS'3'
aS'5'
aa(lp57
S'det'
p58
aS'8'
aS'6'
aa(lp59
S'nn'
p60
aS'8'
aS'7'
aa(lp61
S'dobj'
p62
aS'3'
aS'8'
aa(lp63
S'det'
p64
aS'11'
p65
aS'10'
p66
aa(lp67
S'prep_of'
p68
aS'8'
aS'11'
p69
aasS'srls'
p70
(lp71
(dp72
S'A0'
p73
S'Project project'
p74
sS'AM-TMP'
p75
S'date date The start date of the project'
p76
sS'V'
g23
sasS'pos_seq'
p77
(lp78
S'NN'
p79
aS'NN'
p80
aS'VB'
p81
aS'NN'
p82
aS'NN'
p83
aS'DT'
p84
aS'NN'
p85
aS'NN'
p86
aS'IN'
p87
aS'DT'
p88
aS'NN'
p89
aS'.'
asS'ner_seq'
p90
(lp91
S'O'
aS'O'
aS'O'
aS'O'
aS'O'
aS'O'
aS'O'
aS'O'
aS'O'
aS'O'
aS'O'
aS'O'
assb.