ccopy_reg
_reconstructor
p1
(c__main__
KBproperty
p2
c__builtin__
object
p3
NtRp4
(dp5
S'comment'
p6
S'The regin where the thing is located or is connected to.'
p7
sS'domain'
p8
S''
sS'instances_count'
p9
S'75141'
p10
sS'label'
p11
S'region'
p12
sS'range'
p13
S'Place '
p14
sS'prop_uri'
p15
S"'http://dbpedia.org/ontology/region'"
p16
sS'annotations'
p17
(dp18
S'bag_of_words'
p19
(lp20
S'region'
p21
aS'Place'
p22
aS'The'
p23
aS'regin'
p24
aS'where'
p25
aS'the'
p26
aS'thing'
p27
aS'is'
p28
aS'located'
p29
aS'or'
p30
aS'is'
p31
aS'connected'
p32
aS'to'
p33
aS'.'
asS'chunk_seq'
p34
(lp35
S'B-NP'
p36
aS'E-NP'
p37
aS'B-NP'
p38
aS'E-NP'
p39
aS'S-ADVP'
p40
aS'B-NP'
p41
aS'E-NP'
p42
aS'B-VP'
p43
aS'E-VP'
p44
aS'O'
aS'B-VP'
p45
aS'E-VP'
p46
aS'S-PP'
p47
aS'O'
asS'dep_seq'
p48
(lp49
(lp50
S'dep'
p51
aS'4'
aS'1'
aa(lp52
S'dep'
p53
aS'1'
aS'2'
aa(lp54
S'det'
p55
aS'4'
aS'3'
aa(lp56
S'root'
p57
aS'0'
aS'4'
aa(lp58
S'prep_to'
p59
aS'12'
p60
aS'4'
aa(lp61
S'advmod'
p62
aS'9'
aS'5'
aa(lp63
S'det'
p64
aS'7'
aS'6'
aa(lp65
S'nsubjpass'
p66
aS'9'
aS'7'
aa(lp67
S'auxpass'
p68
aS'9'
aS'8'
aa(lp69
S'rcmod'
p70
aS'4'
aS'9'
aa(lp71
S'auxpass'
p72
aS'12'
p73
aS'11'
p74
aa(lp75
S'conj_or'
p76
aS'9'
aS'12'
p77
aasS'srls'
p78
(lp79
(dp80
S'A1'
p81
S'The regin where the thing is located or is connected to'
p82
sS'A2'
p83
g21
sS'V'
g22
sa(dp84
S'A1'
p85
S'the thing'
p86
sS'V'
g29
sa(dp87
S'A1'
p88
S'the thing'
p89
sS'V'
g32
sasS'pos_seq'
p90
(lp91
S'NN'
p92
aS'VBP'
p93
aS'DT'
p94
aS'NN'
p95
aS'WRB'
p96
aS'DT'
p97
aS'NN'
p98
aS'VBZ'
p99
aS'VBN'
p100
aS'CC'
p101
aS'VBZ'
p102
aS'VBN'
p103
aS'TO'
p104
aS'.'
asS'ner_seq'
p105
(lp106
S'O'
aS'O'
aS'O'
aS'O'
aS'O'
aS'O'
aS'O'
aS'O'
aS'O'
aS'O'
aS'O'
aS'O'
aS'O'
aS'O'
assb.