ccopy_reg
_reconstructor
p1
(c__main__
KBproperty
p2
c__builtin__
object
p3
NtRp4
(dp5
S'comment'
p6
S'the total number of albums released by the musical artist'
p7
sS'domain'
p8
S'Musical Artist '
p9
sS'instances_count'
p10
S'0'
sS'label'
p11
S'number of albums'
p12
sS'range'
p13
S'non Negative Integer '
p14
sS'prop_uri'
p15
S"'http://dbpedia.org/ontology/numberOfAlbums'"
p16
sS'annotations'
p17
(dp18
S'bag_of_words'
p19
(lp20
S'Musical'
p21
aS'Artist'
p22
aS'number'
p23
aS'of'
p24
aS'albums'
p25
aS'non'
p26
aS'Negative'
p27
aS'Integer'
p28
aS'the'
p29
aS'total'
p30
aS'number'
p31
aS'of'
p32
aS'albums'
p33
aS'released'
p34
aS'by'
p35
aS'the'
p36
aS'musical'
p37
aS'artist'
p38
asS'chunk_seq'
p39
(lp40
S'B-NP'
p41
aS'I-NP'
p42
aS'E-NP'
p43
aS'S-PP'
p44
aS'B-NP'
p45
aS'I-NP'
p46
aS'I-NP'
p47
aS'E-NP'
p48
aS'B-NP'
p49
aS'I-NP'
p50
aS'E-NP'
p51
aS'S-PP'
p52
aS'S-NP'
p53
aS'S-VP'
p54
aS'S-PP'
p55
aS'B-NP'
p56
aS'I-NP'
p57
aS'E-NP'
p58
asS'dep_seq'
p59
(lp60
(lp61
S'amod'
p62
aS'3'
aS'1'
aa(lp63
S'nn'
p64
aS'3'
aS'2'
aa(lp65
S'root'
p66
aS'0'
aS'3'
aa(lp67
S'nn'
p68
aS'8'
aS'5'
aa(lp69
S'amod'
p70
aS'8'
aS'6'
aa(lp71
S'amod'
p72
aS'6'
aS'7'
aa(lp73
S'prep_of'
p74
aS'3'
aS'8'
aa(lp75
S'det'
p76
aS'11'
p77
aS'9'
aa(lp78
S'amod'
p79
aS'11'
p80
aS'10'
p81
aa(lp82
S'dep'
p83
aS'3'
aS'11'
p84
aa(lp85
S'prep_of'
p86
aS'11'
p87
aS'13'
p88
aa(lp89
S'partmod'
p90
aS'11'
p91
aS'14'
p92
aa(lp93
S'det'
p94
aS'18'
p95
aS'16'
p96
aa(lp97
S'amod'
p98
aS'18'
p99
aS'17'
p100
aa(lp101
S'agent'
p102
aS'14'
p103
aS'18'
p104
aasS'srls'
p105
(lp106
(dp107
S'A1'
p108
S'albums non Negative Integer the total number of albums'
p109
sS'A0'
p110
S'by the musical artist'
p111
sS'V'
g34
sasS'pos_seq'
p112
(lp113
S'JJ'
p114
aS'NNP'
p115
aS'NN'
p116
aS'IN'
p117
aS'NNS'
p118
aS'JJ'
p119
aS'NNP'
p120
aS'NNP'
p121
aS'DT'
p122
aS'JJ'
p123
aS'NN'
p124
aS'IN'
p125
aS'NNS'
p126
aS'VBN'
p127
aS'IN'
p128
aS'DT'
p129
aS'JJ'
p130
aS'NN'
p131
asS'ner_seq'
p132
(lp133
S'O'
aS'O'
aS'O'
aS'O'
aS'O'
aS'O'
aS'O'
aS'O'
aS'O'
aS'O'
aS'O'
aS'O'
aS'O'
aS'O'
aS'O'
aS'O'
aS'O'
aS'O'
assb.