ccopy_reg
_reconstructor
p1
(c__main__
KBproperty
p2
c__builtin__
object
p3
NtRp4
(dp5
S'comment'
p6
S''
sS'domain'
p7
S''
sS'instances_count'
p8
S'2806'
p9
sS'label'
p10
S'iso-code-region'
p11
sS'range'
p12
S''
sS'prop_uri'
p13
S"'http://dbpedia.org/property/isoCodeRegion'"
p14
sS'annotations'
p15
(dp16
S'bag_of_words'
p17
(lp18
S'iso'
p19
aS'-'
aS'code'
p20
aS'-'
aS'region'
p21
asS'chunk_seq'
p22
(lp23
S'S-NP'
p24
aS'O'
aS'S-NP'
p25
aS'O'
aS'O'
asS'dep_seq'
p26
(lp27
(lp28
S'dep'
p29
aS'3'
aS'1'
aa(lp30
S'root'
p31
aS'0'
aS'3'
aa(lp32
S'dep'
p33
aS'3'
aS'5'
aasS'srls'
p34
(lp35
sS'pos_seq'
p36
(lp37
S'SYM'
p38
aS':'
aS'NN'
p39
aS':'
aS'NN'
p40
asS'ner_seq'
p41
(lp42
S'O'
aS'O'
aS'O'
aS'O'
aS'O'
assb.