ccopy_reg
_reconstructor
p1
(c__main__
KBproperty
p2
c__builtin__
object
p3
NtRp4
(dp5
S'comment'
p6
S''
sS'domain'
p7
S'Broadcaster '
p8
sS'instances_count'
p9
S'3767'
p10
sS'label'
p11
S'effectiveRadiatedPower W'
p12
sS'range'
p13
S'double '
p14
sS'prop_uri'
p15
S"'http://dbpedia.org/ontology/effectiveRadiatedPower'"
p16
sS'annotations'
p17
(dp18
S'bag_of_words'
p19
(lp20
S'Broadcaster'
p21
aS'effectiveRadiatedPower'
p22
aS'W'
aS'double'
p23
asS'chunk_seq'
p24
(lp25
S'B-NP'
p26
aS'I-NP'
p27
aS'I-NP'
p28
aS'E-NP'
p29
asS'dep_seq'
p30
(lp31
(lp32
S'nn'
p33
aS'3'
aS'1'
aa(lp34
S'nn'
p35
aS'3'
aS'2'
aa(lp36
S'root'
p37
aS'0'
aS'3'
aa(lp38
S'advmod'
p39
aS'3'
aS'4'
aasS'srls'
p40
(lp41
sS'pos_seq'
p42
(lp43
S'NNP'
p44
aS'NNP'
p45
aS'NNP'
p46
aS'RB'
p47
asS'ner_seq'
p48
(lp49
S'O'
aS'O'
aS'O'
aS'O'
assb.