ccopy_reg
_reconstructor
p1
(c__main__
KBproperty
p2
c__builtin__
object
p3
NtRp4
(dp5
S'comment'
p6
S''
sS'domain'
p7
S''
sS'instances_count'
p8
S'2'
sS'label'
p9
S'othertitles'
p10
sS'range'
p11
S''
sS'prop_uri'
p12
S"'http://dbpedia.org/property/othertitles'"
p13
sS'annotations'
p14
(dp15
S'bag_of_words'
p16
(lp17
S'othertitles'
p18
asS'chunk_seq'
p19
(lp20
S'S-NP'
p21
asS'dep_seq'
p22
(lp23
(lp24
S'root'
p25
aS'0'
aS'1'
aasS'srls'
p26
(lp27
sS'pos_seq'
p28
(lp29
S'NNS'
p30
asS'ner_seq'
p31
(lp32
S'O'
assb.