ccopy_reg
_reconstructor
p1
(c__main__
KBproperty
p2
c__builtin__
object
p3
NtRp4
(dp5
S'comment'
p6
S''
sS'domain'
p7
S'Olympics '
p8
sS'instances_count'
p9
S'0'
sS'label'
p10
S'olympic oath sworn by athlete'
p11
sS'range'
p12
S'Person '
p13
sS'prop_uri'
p14
S"'http://dbpedia.org/ontology/olympicOathSwornByAthlete'"
p15
sS'annotations'
p16
(dp17
S'bag_of_words'
p18
(lp19
S'Olympics'
p20
aS'olympic'
p21
aS'oath'
p22
aS'sworn'
p23
aS'by'
p24
aS'athlete'
p25
aS'Person'
p26
asS'chunk_seq'
p27
(lp28
S'B-NP'
p29
aS'I-NP'
p30
aS'E-NP'
p31
aS'S-VP'
p32
aS'S-PP'
p33
aS'B-NP'
p34
aS'E-NP'
p35
asS'dep_seq'
p36
(lp37
(lp38
S'nn'
p39
aS'3'
aS'1'
aa(lp40
S'amod'
p41
aS'3'
aS'2'
aa(lp42
S'root'
p43
aS'0'
aS'3'
aa(lp44
S'amod'
p45
aS'3'
aS'4'
aa(lp46
S'nn'
p47
aS'7'
aS'6'
aa(lp48
S'prep_by'
p49
aS'4'
aS'7'
aasS'srls'
p50
(lp51
(dp52
S'A1'
p53
S'Olympics olympic oath'
p54
sS'A0'
p55
S'by athlete Person'
p56
sS'V'
g23
sasS'pos_seq'
p57
(lp58
S'NNS'
p59
aS'JJ'
p60
aS'NN'
p61
aS'VBN'
p62
aS'IN'
p63
aS'NN'
p64
aS'NN'
p65
asS'ner_seq'
p66
(lp67
S'S-MISC'
p68
aS'O'
aS'O'
aS'O'
aS'O'
aS'O'
aS'O'
assb.