ccopy_reg
_reconstructor
p1
(c__main__
KBproperty
p2
c__builtin__
object
p3
NtRp4
(dp5
S'comment'
p6
S''
sS'domain'
p7
S''
sS'instances_count'
p8
S'125'
p9
sS'label'
p10
S'currency name in local'
p11
sS'range'
p12
S''
sS'prop_uri'
p13
S"'http://dbpedia.org/property/currencyNameInLocal'"
p14
sS'annotations'
p15
(dp16
S'bag_of_words'
p17
(lp18
S'currency'
p19
aS'name'
p20
aS'in'
p21
aS'local'
p22
asS'chunk_seq'
p23
(lp24
S'B-NP'
p25
aS'E-NP'
p26
aS'S-PP'
p27
aS'S-ADJP'
p28
asS'dep_seq'
p29
(lp30
(lp31
S'nn'
p32
aS'2'
aS'1'
aa(lp33
S'root'
p34
aS'0'
aS'2'
aa(lp35
S'prep_in'
p36
aS'2'
aS'4'
aasS'srls'
p37
(lp38
sS'pos_seq'
p39
(lp40
S'NN'
p41
aS'NN'
p42
aS'IN'
p43
aS'JJ'
p44
asS'ner_seq'
p45
(lp46
S'O'
aS'O'
aS'O'
aS'O'
assb.