ccopy_reg
_reconstructor
p1
(c__main__
KBproperty
p2
c__builtin__
object
p3
NtRp4
(dp5
S'comment'
p6
S'Year visitor information was gathered.'
p7
sS'domain'
p8
S'Architectural Structure '
p9
sS'instances_count'
p10
S'3668'
p11
sS'label'
p12
S'visitor statistics as of'
p13
sS'range'
p14
S'g Year '
p15
sS'prop_uri'
p16
S"'http://dbpedia.org/ontology/visitorStatisticsAsOf'"
p17
sS'annotations'
p18
(dp19
S'bag_of_words'
p20
(lp21
S'Architectural'
p22
aS'Structure'
p23
aS'visitor'
p24
aS'statistics'
p25
aS'as'
p26
aS'of'
p27
aS'g'
aS'Year'
p28
aS'Year'
p29
aS'visitor'
p30
aS'information'
p31
aS'was'
p32
aS'gathered'
p33
aS'.'
asS'chunk_seq'
p34
(lp35
S'B-NP'
p36
aS'I-NP'
p37
aS'I-NP'
p38
aS'E-NP'
p39
aS'S-PP'
p40
aS'S-PP'
p41
aS'B-NP'
p42
aS'I-NP'
p43
aS'I-NP'
p44
aS'I-NP'
p45
aS'E-NP'
p46
aS'B-VP'
p47
aS'E-VP'
p48
aS'O'
asS'dep_seq'
p49
(lp50
(lp51
S'amod'
p52
aS'4'
aS'1'
aa(lp53
S'nn'
p54
aS'4'
aS'2'
aa(lp55
S'nn'
p56
aS'4'
aS'3'
aa(lp57
S'nsubjpass'
p58
aS'13'
p59
aS'4'
aa(lp60
S'prepc_as_of'
p61
aS'4'
aS'6'
aa(lp62
S'nn'
p63
aS'11'
p64
aS'7'
aa(lp65
S'nn'
p66
aS'11'
p67
aS'8'
aa(lp68
S'nn'
p69
aS'11'
p70
aS'9'
aa(lp71
S'nn'
p72
aS'11'
p73
aS'10'
p74
aa(lp75
S'pobj'
p76
aS'4'
aS'11'
p77
aa(lp78
S'auxpass'
p79
aS'13'
p80
aS'12'
p81
aa(lp82
S'root'
p83
aS'0'
aS'13'
p84
aasS'srls'
p85
(lp86
(dp87
S'A1'
p88
S'Architectural Structure visitor statistics as of g Year Year visitor information'
p89
sS'V'
g33
sasS'pos_seq'
p90
(lp91
S'JJ'
p92
aS'NN'
p93
aS'NN'
p94
aS'NNS'
p95
aS'IN'
p96
aS'IN'
p97
aS'NN'
p98
aS'NN'
p99
aS'NN'
p100
aS'NN'
p101
aS'NN'
p102
aS'VBD'
p103
aS'VBN'
p104
aS'.'
asS'ner_seq'
p105
(lp106
S'O'
aS'O'
aS'O'
aS'O'
aS'O'
aS'O'
aS'O'
aS'O'
aS'O'
aS'O'
aS'O'
aS'O'
aS'O'
aS'O'
assb.