ccopy_reg
_reconstructor
p1
(c__main__
KBproperty
p2
c__builtin__
object
p3
NtRp4
(dp5
S'comment'
p6
S'Dutch project with material for 40000 digitized biographies including former colonies of the Netherlands.'
p7
sS'domain'
p8
S''
sS'instances_count'
p9
S'2'
sS'label'
p10
S'BPN Id'
p11
sS'range'
p12
S'string '
p13
sS'prop_uri'
p14
S"'http://dbpedia.org/ontology/bpnId'"
p15
sS'annotations'
p16
(dp17
S'bag_of_words'
p18
(lp19
S'BPN'
p20
aS'Id'
p21
aS'string'
p22
aS'Dutch'
p23
aS'project'
p24
aS'with'
p25
aS'material'
p26
aS'for'
p27
aS'40000'
p28
aS'digitized'
p29
aS'biographies'
p30
aS'including'
p31
aS'former'
p32
aS'colonies'
p33
aS'of'
p34
aS'the'
p35
aS'Netherlands'
p36
aS'.'
asS'chunk_seq'
p37
(lp38
S'B-NP'
p39
aS'I-NP'
p40
aS'I-NP'
p41
aS'I-NP'
p42
aS'E-NP'
p43
aS'S-PP'
p44
aS'S-NP'
p45
aS'S-PP'
p46
aS'B-NP'
p47
aS'I-NP'
p48
aS'E-NP'
p49
aS'S-PP'
p50
aS'B-NP'
p51
aS'E-NP'
p52
aS'S-PP'
p53
aS'B-NP'
p54
aS'E-NP'
p55
aS'O'
asS'dep_seq'
p56
(lp57
(lp58
S'nn'
p59
aS'5'
aS'1'
aa(lp60
S'nn'
p61
aS'5'
aS'2'
aa(lp62
S'nn'
p63
aS'5'
aS'3'
aa(lp64
S'amod'
p65
aS'5'
aS'4'
aa(lp66
S'root'
p67
aS'0'
aS'5'
aa(lp68
S'prep_with'
p69
aS'5'
aS'7'
aa(lp70
S'num'
p71
aS'11'
p72
aS'9'
aa(lp73
S'amod'
p74
aS'11'
p75
aS'10'
p76
aa(lp77
S'prep_for'
p78
aS'7'
aS'11'
p79
aa(lp80
S'amod'
p81
aS'14'
p82
aS'13'
p83
aa(lp84
S'prep_including'
p85
aS'11'
p86
aS'14'
p87
aa(lp88
S'det'
p89
aS'17'
p90
aS'16'
p91
aa(lp92
S'prep_of'
p93
aS'14'
p94
aS'17'
p95
aasS'srls'
p96
(lp97
(dp98
S'A1'
p99
S'former colonies of the Netherlands'
p100
sS'A2'
p101
S'40000 digitized biographies'
p102
sS'V'
g31
sasS'pos_seq'
p103
(lp104
S'NNP'
p105
aS'NNP'
p106
aS'NN'
p107
aS'JJ'
p108
aS'NN'
p109
aS'IN'
p110
aS'NN'
p111
aS'IN'
p112
aS'CD'
p113
aS'JJ'
p114
aS'NNS'
p115
aS'VBG'
p116
aS'JJ'
p117
aS'NNS'
p118
aS'IN'
p119
aS'DT'
p120
aS'NNP'
p121
aS'.'
asS'ner_seq'
p122
(lp123
S'O'
aS'O'
aS'O'
aS'S-MISC'
p124
aS'O'
aS'O'
aS'O'
aS'O'
aS'O'
aS'O'
aS'O'
aS'O'
aS'O'
aS'O'
aS'O'
aS'O'
aS'S-LOC'
p125
aS'O'
assb.