ccopy_reg
_reconstructor
p1
(c__main__
KBproperty
p2
c__builtin__
object
p3
NtRp4
(dp5
S'comment'
p6
S'A person playing for a sports team. inverseOf team'
p7
sS'domain'
p8
S'Sports Team '
p9
sS'instances_count'
p10
S'0'
sS'label'
p11
S'player in team'
p12
sS'range'
p13
S'Person '
p14
sS'prop_uri'
p15
S"'http://dbpedia.org/ontology/playerInTeam'"
p16
sS'annotations'
p17
(dp18
S'bag_of_words'
p19
(lp20
S'Sports'
p21
aS'Team'
p22
aS'player'
p23
aS'in'
p24
aS'team'
p25
aS'Person'
p26
aS'A'
aS'person'
p27
aS'playing'
p28
aS'for'
p29
aS'a'
aS'sports'
p30
aS'team.'
p31
aS'inverseOf'
p32
aS'team'
p33
asS'chunk_seq'
p34
(lp35
S'B-NP'
p36
aS'I-NP'
p37
aS'E-NP'
p38
aS'S-PP'
p39
aS'B-NP'
p40
aS'E-NP'
p41
aS'B-NP'
p42
aS'E-NP'
p43
aS'S-VP'
p44
aS'S-PP'
p45
aS'B-NP'
p46
aS'I-NP'
p47
aS'I-NP'
p48
aS'I-NP'
p49
aS'E-NP'
p50
asS'dep_seq'
p51
(lp52
(lp53
S'nn'
p54
aS'3'
aS'1'
aa(lp55
S'nn'
p56
aS'3'
aS'2'
aa(lp57
S'dep'
p58
aS'8'
aS'3'
aa(lp59
S'nn'
p60
aS'6'
aS'5'
aa(lp61
S'prep_in'
p62
aS'3'
aS'6'
aa(lp63
S'det'
p64
aS'8'
aS'7'
aa(lp65
S'root'
p66
aS'0'
aS'8'
aa(lp67
S'dep'
p68
aS'8'
aS'9'
aa(lp69
S'det'
p70
aS'15'
p71
aS'11'
p72
aa(lp73
S'nn'
p74
aS'15'
p75
aS'12'
p76
aa(lp77
S'advmod'
p78
aS'15'
p79
aS'13'
p80
aa(lp81
S'amod'
p82
aS'15'
p83
aS'14'
p84
aa(lp85
S'prep_for'
p86
aS'9'
aS'15'
p87
aasS'srls'
p88
(lp89
(dp90
S'A1'
p91
S'for a sports team. inverseOf team'
p92
sS'A0'
p93
S'A person'
p94
sS'V'
g28
sasS'pos_seq'
p95
(lp96
S'NNP'
p97
aS'NNP'
p98
aS'NN'
p99
aS'IN'
p100
aS'NN'
p101
aS'NN'
p102
aS'DT'
p103
aS'NN'
p104
aS'VBG'
p105
aS'IN'
p106
aS'DT'
p107
aS'NNS'
p108
aS'RB'
p109
aS'JJ'
p110
aS'NN'
p111
asS'ner_seq'
p112
(lp113
S'B-ORG'
p114
aS'E-ORG'
p115
aS'O'
aS'O'
aS'O'
aS'O'
aS'O'
aS'O'
aS'O'
aS'O'
aS'O'
aS'O'
aS'O'
aS'O'
aS'O'
assb.