ccopy_reg
_reconstructor
p1
(c__main__
KBproperty
p2
c__builtin__
object
p3
NtRp4
(dp5
S'comment'
p6
S'In biology kingdom Latin: regnum pl. regna is a taxonomic rank which is either the highest rank or in the more recent three-domain system the rank below domain.'
p7
sS'domain'
p8
S'Species '
p9
sS'instances_count'
p10
S'291751'
p11
sS'label'
p12
S'kingdom'
p13
sS'range'
p14
S''
sS'prop_uri'
p15
S"'http://dbpedia.org/ontology/kingdom'"
p16
sS'annotations'
p17
(dp18
S'bag_of_words'
p19
(lp20
S'Species'
p21
aS'kingdom'
p22
aS'In'
p23
aS'biology'
p24
aS'kingdom'
p25
aS'Latin'
p26
aS':'
aS'regnum'
p27
aS'pl.'
p28
aS'regna'
p29
aS'is'
p30
aS'a'
aS'taxonomic'
p31
aS'rank'
p32
aS'which'
p33
aS'is'
p34
aS'either'
p35
aS'the'
p36
aS'highest'
p37
aS'rank'
p38
aS'or'
p39
aS'in'
p40
aS'the'
p41
aS'more'
p42
aS'recent'
p43
aS'three-'
p44
aS'domain'
p45
aS'system'
p46
aS'the'
p47
aS'rank'
p48
aS'below'
p49
aS'domain'
p50
aS'.'
asS'chunk_seq'
p51
(lp52
S'B-NP'
p53
aS'E-NP'
p54
aS'S-PP'
p55
aS'B-NP'
p56
aS'E-NP'
p57
aS'S-ADVP'
p58
aS'O'
aS'B-NP'
p59
aS'I-NP'
p60
aS'E-NP'
p61
aS'S-VP'
p62
aS'B-NP'
p63
aS'I-NP'
p64
aS'E-NP'
p65
aS'S-NP'
p66
aS'S-VP'
p67
aS'O'
aS'B-NP'
p68
aS'I-NP'
p69
aS'E-NP'
p70
aS'O'
aS'S-PP'
p71
aS'B-NP'
p72
aS'I-NP'
p73
aS'I-NP'
p74
aS'I-NP'
p75
aS'I-NP'
p76
aS'E-NP'
p77
aS'B-NP'
p78
aS'E-NP'
p79
aS'S-PP'
p80
aS'S-NP'
p81
aS'O'
asS'dep_seq'
p82
(lp83
(lp84
S'nn'
p85
aS'2'
aS'1'
aa(lp86
S'root'
p87
aS'0'
aS'2'
aa(lp88
S'prep_in'
p89
aS'2'
aS'4'
aa(lp90
S'dep'
p91
aS'4'
aS'5'
aa(lp92
S'amod'
p93
aS'4'
aS'6'
aa(lp94
S'dep'
p95
aS'10'
p96
aS'8'
aa(lp97
S'dep'
p98
aS'10'
p99
aS'9'
aa(lp100
S'nsubj'
p101
aS'14'
p102
aS'10'
p103
aa(lp104
S'cop'
p105
aS'14'
p106
aS'11'
p107
aa(lp108
S'det'
p109
aS'14'
p110
aS'12'
p111
aa(lp112
S'amod'
p113
aS'14'
p114
aS'13'
p115
aa(lp116
S'dep'
p117
aS'2'
aS'14'
p118
aa(lp119
S'nsubj'
p120
aS'20'
p121
aS'14'
p122
aa(lp123
S'cop'
p124
aS'20'
p125
aS'16'
p126
aa(lp127
S'preconj'
p128
aS'20'
p129
aS'17'
p130
aa(lp131
S'det'
p132
aS'20'
p133
aS'18'
p134
aa(lp135
S'amod'
p136
aS'20'
p137
aS'19'
p138
aa(lp139
S'rcmod'
p140
aS'14'
p141
aS'20'
p142
aa(lp143
S'conj_or'
p144
aS'20'
p145
aS'22'
p146
aa(lp147
S'det'
p148
aS'28'
p149
aS'23'
p150
aa(lp151
S'advmod'
p152
aS'28'
p153
aS'24'
p154
aa(lp155
S'amod'
p156
aS'28'
p157
aS'25'
p158
aa(lp159
S'amod'
p160
aS'28'
p161
aS''
aa(lp162
S'nn'
p163
aS'28'
p164
aS'27'
p165
aa(lp166
S'pobj'
p167
aS'22'
p168
aS'28'
p169
aa(lp170
S'det'
p171
aS'30'
p172
aS'29'
p173
aa(lp174
S'dep'
p175
aS'20'
p176
aS'30'
p177
aa(lp178
S'prep_below'
p179
aS'30'
p180
aS'32'
p181
aasS'srls'
p182
(lp183
sS'pos_seq'
p184
(lp185
S'NNS'
p186
aS'NN'
p187
aS'IN'
p188
aS'NN'
p189
aS'FW'
p190
aS'FW'
p191
aS'FW'
p192
aS'FW'
p193
aS'FW'
p194
aS'FW'
p195
aS'VBZ'
p196
aS'DT'
p197
aS'JJ'
p198
aS'NN'
p199
aS'WDT'
p200
aS'VBZ'
p201
aS'CC'
p202
aS'DT'
p203
aS'JJS'
p204
aS'NN'
p205
aS'CC'
p206
aS'IN'
p207
aS'DT'
p208
aS'RBR'
p209
aS'JJ'
p210
aS'JJ'
p211
aS'NN'
p212
aS'NN'
p213
aS'DT'
p214
aS'NN'
p215
aS'IN'
p216
aS'NN'
p217
aS'.'
asS'ner_seq'
p218
(lp219
S'O'
aS'O'
aS'O'
aS'O'
aS'O'
aS'S-MISC'
p220
aS'O'
aS'O'
aS'O'
aS'O'
aS'O'
aS'O'
aS'O'
aS'O'
aS'O'
aS'O'
aS'O'
aS'O'
aS'O'
aS'O'
aS'O'
aS'O'
aS'O'
aS'O'
aS'O'
aS'O'
aS'O'
aS'O'
aS'O'
aS'O'
aS'O'
aS'O'
aS'O'
assb.