ccopy_reg
_reconstructor
p1
(c__main__
KBproperty
p2
c__builtin__
object
p3
NtRp4
(dp5
S'comment'
p6
S''
sS'domain'
p7
S''
sS'instances_count'
p8
S'254'
p9
sS'label'
p10
S'designated other1 name'
p11
sS'range'
p12
S''
sS'prop_uri'
p13
S"'http://dbpedia.org/property/designatedOther1Name'"
p14
sS'annotations'
p15
(dp16
S'bag_of_words'
p17
(lp18
S'designated'
p19
aS'other1'
p20
aS'name'
p21
asS'chunk_seq'
p22
(lp23
S'B-NP'
p24
aS'I-NP'
p25
aS'E-NP'
p26
asS'dep_seq'
p27
(lp28
(lp29
S'amod'
p30
aS'3'
aS'1'
aa(lp31
S'nn'
p32
aS'3'
aS'2'
aa(lp33
S'root'
p34
aS'0'
aS'3'
aasS'srls'
p35
(lp36
(dp37
S'A1'
p38
g20
sS'V'
g19
sasS'pos_seq'
p39
(lp40
S'VBN'
p41
aS'NNS'
p42
aS'NN'
p43
asS'ner_seq'
p44
(lp45
S'O'
aS'O'
aS'O'
assb.