ccopy_reg
_reconstructor
p1
(c__main__
KBproperty
p2
c__builtin__
object
p3
NtRp4
(dp5
S'comment'
p6
S''
sS'domain'
p7
S''
sS'instances_count'
p8
S'819'
p9
sS'label'
p10
S'street-address'
p11
sS'range'
p12
S''
sS'prop_uri'
p13
S"'http://dbpedia.org/property/streetAddress'"
p14
sS'annotations'
p15
(dp16
S'bag_of_words'
p17
(lp18
S'street'
p19
aS'-'
aS'address'
p20
asS'chunk_seq'
p21
(lp22
S'B-NP'
p23
aS'I-NP'
p24
aS'E-NP'
p25
asS'dep_seq'
p26
(lp27
(lp28
S'root'
p29
aS'0'
aS'1'
aa(lp30
S'dep'
p31
aS'1'
aS'3'
aasS'srls'
p32
(lp33
sS'pos_seq'
p34
(lp35
S'NN'
p36
aS':'
aS'NN'
p37
asS'ner_seq'
p38
(lp39
S'O'
aS'O'
aS'O'
assb.