ccopy_reg
_reconstructor
p1
(c__main__
KBproperty
p2
c__builtin__
object
p3
NtRp4
(dp5
S'comment'
p6
S'Type of historic place as defined by the US National Park Service. For instance National Historic Landmark National Monument or National Battlefield.'
p7
sS'domain'
p8
S'Historic Place '
p9
sS'instances_count'
p10
S'268'
p11
sS'label'
p12
S'NRHP type'
p13
sS'range'
p14
S''
sS'prop_uri'
p15
S"'http://dbpedia.org/ontology/nrhpType'"
p16
sS'annotations'
p17
(dp18
S'bag_of_words'
p19
(lp20
S'Historic'
p21
aS'Place'
p22
aS'NRHP'
p23
aS'type'
p24
aS'Type'
p25
aS'of'
p26
aS'historic'
p27
aS'place'
p28
aS'as'
p29
aS'defined'
p30
aS'by'
p31
aS'the'
p32
aS'US'
p33
aS'National'
p34
aS'Park'
p35
aS'Service.'
p36
aS'For'
p37
aS'instance'
p38
aS'National'
p39
aS'Historic'
p40
aS'Landmark'
p41
aS'National'
p42
aS'Monument'
p43
aS'or'
p44
aS'National'
p45
aS'Battlefield'
p46
aS'.'
asS'chunk_seq'
p47
(lp48
S'B-NP'
p49
aS'I-NP'
p50
aS'I-NP'
p51
aS'I-NP'
p52
aS'E-NP'
p53
aS'S-PP'
p54
aS'B-NP'
p55
aS'E-NP'
p56
aS'S-SBAR'
p57
aS'S-VP'
p58
aS'S-PP'
p59
aS'B-NP'
p60
aS'I-NP'
p61
aS'I-NP'
p62
aS'I-NP'
p63
aS'E-NP'
p64
aS'S-PP'
p65
aS'B-NP'
p66
aS'I-NP'
p67
aS'I-NP'
p68
aS'I-NP'
p69
aS'I-NP'
p70
aS'I-NP'
p71
aS'I-NP'
p72
aS'I-NP'
p73
aS'E-NP'
p74
aS'O'
asS'dep_seq'
p75
(lp76
(lp77
S'amod'
p78
aS'5'
aS'1'
aa(lp79
S'nn'
p80
aS'5'
aS'2'
aa(lp81
S'nn'
p82
aS'5'
aS'3'
aa(lp83
S'nn'
p84
aS'5'
aS'4'
aa(lp85
S'root'
p86
aS'0'
aS'5'
aa(lp87
S'amod'
p88
aS'8'
aS'7'
aa(lp89
S'prep_of'
p90
aS'5'
aS'8'
aa(lp91
S'mark'
p92
aS'10'
p93
aS'9'
aa(lp94
S'dep'
p95
aS'5'
aS'10'
p96
aa(lp97
S'det'
p98
aS'16'
p99
aS'12'
p100
aa(lp101
S'nn'
p102
aS'16'
p103
aS'13'
p104
aa(lp105
S'nn'
p106
aS'16'
p107
aS'14'
p108
aa(lp109
S'nn'
p110
aS'16'
p111
aS'15'
p112
aa(lp113
S'prep_by'
p114
aS'10'
p115
aS'16'
p116
aa(lp117
S'prep_for'
p118
aS'5'
aS'18'
p119
aa(lp120
S'nn'
p121
aS'23'
p122
aS'19'
p123
aa(lp124
S'nn'
p125
aS'23'
p126
aS'20'
p127
aa(lp128
S'nn'
p129
aS'23'
p130
aS'21'
p131
aa(lp132
S'nn'
p133
aS'23'
p134
aS'22'
p135
aa(lp136
S'dep'
p137
aS'5'
aS'23'
p138
aa(lp139
S'nn'
p140
aS'26'
p141
aS'25'
p142
aa(lp143
S'conj_or'
p144
aS'23'
p145
aS'26'
p146
aasS'srls'
p147
(lp148
(dp149
S'A1'
p150
S'Historic Place NRHP type Type'
p151
sS'A0'
p152
S'by the US National Park Service. For instance National Historic Landmark National Monument or National Battlefield'
p153
sS'V'
g30
sasS'pos_seq'
p154
(lp155
S'JJ'
p156
aS'NNP'
p157
aS'NNP'
p158
aS'NN'
p159
aS'NN'
p160
aS'IN'
p161
aS'JJ'
p162
aS'NN'
p163
aS'IN'
p164
aS'VBN'
p165
aS'IN'
p166
aS'DT'
p167
aS'NNP'
p168
aS'NNP'
p169
aS'NNP'
p170
aS'NNP'
p171
aS'IN'
p172
aS'NN'
p173
aS'NNP'
p174
aS'NNP'
p175
aS'NNP'
p176
aS'NNP'
p177
aS'NNP'
p178
aS'CC'
p179
aS'NNP'
p180
aS'NNP'
p181
aS'.'
asS'ner_seq'
p182
(lp183
S'O'
aS'O'
aS'O'
aS'O'
aS'O'
aS'O'
aS'O'
aS'O'
aS'O'
aS'O'
aS'O'
aS'O'
aS'B-ORG'
p184
aS'I-ORG'
p185
aS'I-ORG'
p186
aS'E-ORG'
p187
aS'O'
aS'O'
aS'B-ORG'
p188
aS'I-ORG'
p189
aS'I-ORG'
p190
aS'I-ORG'
p191
aS'I-ORG'
p192
aS'I-ORG'
p193
aS'I-ORG'
p194
aS'E-ORG'
p195
aS'O'
assb.