ccopy_reg
_reconstructor
p1
(c__main__
KBproperty
p2
c__builtin__
object
p3
NtRp4
(dp5
S'comment'
p6
S'The overall subject matter dealt with by the play.'
p7
sS'domain'
p8
S'Play '
p9
sS'instances_count'
p10
S'583'
p11
sS'label'
p12
S'subject of play'
p13
sS'range'
p14
S'string '
p15
sS'prop_uri'
p16
S"'http://dbpedia.org/ontology/subjectOfPlay'"
p17
sS'annotations'
p18
(dp19
S'bag_of_words'
p20
(lp21
S'Play'
p22
aS'subject'
p23
aS'of'
p24
aS'play'
p25
aS'string'
p26
aS'The'
p27
aS'overall'
p28
aS'subject'
p29
aS'matter'
p30
aS'dealt'
p31
aS'with'
p32
aS'by'
p33
aS'the'
p34
aS'play'
p35
aS'.'
asS'chunk_seq'
p36
(lp37
S'S-VP'
p38
aS'S-NP'
p39
aS'S-PP'
p40
aS'B-NP'
p41
aS'E-NP'
p42
aS'B-NP'
p43
aS'I-NP'
p44
aS'I-NP'
p45
aS'E-NP'
p46
aS'S-VP'
p47
aS'S-PP'
p48
aS'S-PP'
p49
aS'B-NP'
p50
aS'E-NP'
p51
aS'O'
asS'dep_seq'
p52
(lp53
(lp54
S'dep'
p55
aS'2'
aS'1'
aa(lp56
S'nsubj'
p57
aS'10'
p58
aS'2'
aa(lp59
S'nn'
p60
aS'5'
aS'4'
aa(lp61
S'prep_of'
p62
aS'2'
aS'5'
aa(lp63
S'det'
p64
aS'9'
aS'6'
aa(lp65
S'amod'
p66
aS'9'
aS'7'
aa(lp67
S'amod'
p68
aS'9'
aS'8'
aa(lp69
S'nsubj'
p70
aS'10'
p71
aS'9'
aa(lp72
S'root'
p73
aS'0'
aS'10'
p74
aa(lp75
S'prep'
p76
aS'10'
p77
aS'11'
p78
aa(lp79
S'pcomp'
p80
aS'11'
p81
aS'12'
p82
aa(lp83
S'det'
p84
aS'14'
p85
aS'13'
p86
aa(lp87
S'pobj'
p88
aS'12'
p89
aS'14'
p90
aasS'srls'
p91
(lp92
(dp93
S'A1'
p94
S'subject of play string The overall subject matter dealt with by the play'
p95
sS'V'
g22
sa(dp96
S'A1'
p97
S'The overall subject matter'
p98
sS'A0'
p99
S'by the play'
p100
sS'V'
g31
sasS'pos_seq'
p101
(lp102
S'VB'
p103
aS'NN'
p104
aS'IN'
p105
aS'NN'
p106
aS'NN'
p107
aS'DT'
p108
aS'JJ'
p109
aS'JJ'
p110
aS'NN'
p111
aS'VBN'
p112
aS'IN'
p113
aS'IN'
p114
aS'DT'
p115
aS'NN'
p116
aS'.'
asS'ner_seq'
p117
(lp118
S'O'
aS'O'
aS'O'
aS'O'
aS'O'
aS'O'
aS'O'
aS'O'
aS'O'
aS'O'
aS'O'
aS'O'
aS'O'
aS'O'
aS'O'
assb.