ccopy_reg
_reconstructor
p1
(c__main__
KBproperty
p2
c__builtin__
object
p3
NtRp4
(dp5
S'comment'
p6
S'The person that creates invents the food eg. Caesar Cardini is the creator of the Caesar salad.'
p7
sS'domain'
p8
S'Food '
p9
sS'instances_count'
p10
S'313'
p11
sS'label'
p12
S'creator of dish'
p13
sS'range'
p14
S'Person '
p15
sS'prop_uri'
p16
S"'http://dbpedia.org/ontology/creatorOfDish'"
p17
sS'annotations'
p18
(dp19
S'bag_of_words'
p20
(lp21
S'Food'
p22
aS'creator'
p23
aS'of'
p24
aS'dish'
p25
aS'Person'
p26
aS'The'
p27
aS'person'
p28
aS'that'
p29
aS'creates'
p30
aS'invents'
p31
aS'the'
p32
aS'food'
p33
aS'eg.'
p34
aS'Caesar'
p35
aS'Cardini'
p36
aS'is'
p37
aS'the'
p38
aS'creator'
p39
aS'of'
p40
aS'the'
p41
aS'Caesar'
p42
aS'salad'
p43
aS'.'
asS'chunk_seq'
p44
(lp45
S'B-NP'
p46
aS'E-NP'
p47
aS'S-PP'
p48
aS'B-NP'
p49
aS'E-NP'
p50
aS'B-NP'
p51
aS'E-NP'
p52
aS'S-NP'
p53
aS'S-VP'
p54
aS'S-VP'
p55
aS'B-NP'
p56
aS'E-NP'
p57
aS'S-PP'
p58
aS'B-NP'
p59
aS'E-NP'
p60
aS'S-VP'
p61
aS'B-NP'
p62
aS'E-NP'
p63
aS'S-PP'
p64
aS'B-NP'
p65
aS'I-NP'
p66
aS'E-NP'
p67
aS'O'
asS'dep_seq'
p68
(lp69
(lp70
S'nn'
p71
aS'2'
aS'1'
aa(lp72
S'nsubj'
p73
aS'9'
aS'2'
aa(lp74
S'nsubj'
p75
aS'18'
p76
aS'2'
aa(lp77
S'nn'
p78
aS'5'
aS'4'
aa(lp79
S'prep_of'
p80
aS'2'
aS'5'
aa(lp81
S'det'
p82
aS'7'
aS'6'
aa(lp83
S'dep'
p84
aS'2'
aS'7'
aa(lp85
S'rcmod'
p86
aS'2'
aS'9'
aa(lp87
S'ccomp'
p88
aS'9'
aS'10'
p89
aa(lp90
S'det'
p91
aS'12'
p92
aS'11'
p93
aa(lp94
S'dobj'
p95
aS'10'
p96
aS'12'
p97
aa(lp98
S'nn'
p99
aS'15'
p100
aS'14'
p101
aa(lp102
S'prep_eg.'
p103
aS'10'
p104
aS'15'
p105
aa(lp106
S'cop'
p107
aS'18'
p108
aS'16'
p109
aa(lp110
S'det'
p111
aS'18'
p112
aS'17'
p113
aa(lp114
S'root'
p115
aS'0'
aS'18'
p116
aa(lp117
S'det'
p118
aS'22'
p119
aS'20'
p120
aa(lp121
S'nn'
p122
aS'22'
p123
aS'21'
p124
aa(lp125
S'prep_of'
p126
aS'18'
p127
aS'22'
p128
aasS'srls'
p129
(lp130
(dp131
S'A0'
p132
S'The person'
p133
sS'R-A0'
p134
g29
sS'V'
g30
sa(dp135
S'A1'
p136
S'the food'
p137
sS'A0'
p138
S'The person'
p139
sS'R-A0'
p140
g29
sS'V'
g31
sasS'pos_seq'
p141
(lp142
S'NN'
p143
aS'NN'
p144
aS'IN'
p145
aS'NN'
p146
aS'NN'
p147
aS'DT'
p148
aS'NN'
p149
aS'WDT'
p150
aS'VBZ'
p151
aS'VBZ'
p152
aS'DT'
p153
aS'NN'
p154
aS'IN'
p155
aS'NNP'
p156
aS'NNP'
p157
aS'VBZ'
p158
aS'DT'
p159
aS'NN'
p160
aS'IN'
p161
aS'DT'
p162
aS'NNP'
p163
aS'NN'
p164
aS'.'
asS'ner_seq'
p165
(lp166
S'O'
aS'O'
aS'O'
aS'O'
aS'O'
aS'O'
aS'O'
aS'O'
aS'O'
aS'O'
aS'O'
aS'O'
aS'O'
aS'B-PER'
p167
aS'E-PER'
p168
aS'O'
aS'O'
aS'O'
aS'O'
aS'O'
aS'S-MISC'
p169
aS'O'
aS'O'
assb.