ccopy_reg
_reconstructor
p1
(c__main__
KBproperty
p2
c__builtin__
object
p3
NtRp4
(dp5
S'comment'
p6
S"a preference to put one's left or right foot forward in surfing wakeboarding skateboarding wakeskating snowboarding and mountainboarding. The term is sometimes applied to the foot a footballer uses to kick."
p7
sS'domain'
p8
S'Sport '
p9
sS'instances_count'
p10
S'0'
sS'label'
p11
S'Footedness'
p12
sS'range'
p13
S'Person '
p14
sS'prop_uri'
p15
S"'http://dbpedia.org/ontology/footedness'"
p16
sS'annotations'
p17
(dp18
S'bag_of_words'
p19
(lp20
S'Sport'
p21
aS'Footedness'
p22
aS'Person'
p23
aS'a'
aS'preference'
p24
aS'to'
p25
aS'put'
p26
aS'one'
p27
aS"'s"
p28
aS'left'
p29
aS'or'
p30
aS'right'
p31
aS'foot'
p32
aS'forward'
p33
aS'in'
p34
aS'surfing'
p35
aS'wakeboarding'
p36
aS'skateboarding'
p37
aS'wakeskating'
p38
aS'snowboarding'
p39
aS'and'
p40
aS'mountainboarding'
p41
aS'.'
aS'The'
p42
aS'term'
p43
aS'is'
p44
aS'sometimes'
p45
aS'applied'
p46
aS'to'
p47
aS'the'
p48
aS'foot'
p49
aS'a'
aS'footballer'
p50
aS'uses'
p51
aS'to'
p52
aS'kick'
p53
aS'.'
asS'chunk_seq'
p54
(lp55
S'B-NP'
p56
aS'I-NP'
p57
aS'E-NP'
p58
aS'B-NP'
p59
aS'E-NP'
p60
aS'B-VP'
p61
aS'E-VP'
p62
aS'S-NP'
p63
aS'S-NP'
p64
aS'B-ADJP'
p65
aS'I-ADJP'
p66
aS'I-ADJP'
p67
aS'E-ADJP'
p68
aS'S-ADVP'
p69
aS'S-PP'
p70
aS'B-NP'
p71
aS'I-NP'
p72
aS'I-NP'
p73
aS'I-NP'
p74
aS'I-NP'
p75
aS'I-NP'
p76
aS'E-NP'
p77
aS'O'
aS'B-NP'
p78
aS'E-NP'
p79
aS'B-VP'
p80
aS'I-VP'
p81
aS'E-VP'
p82
aS'S-PP'
p83
aS'B-NP'
p84
aS'E-NP'
p85
aS'B-NP'
p86
aS'E-NP'
p87
aS'B-VP'
p88
aS'I-VP'
p89
aS'E-VP'
p90
aS'O'
asS'dep_seq'
p91
(lp92
(lp93
S'nn'
p94
aS'3'
aS'1'
aa(lp95
S'nn'
p96
aS'3'
aS'2'
aa(lp97
S'nsubjpass'
p98
aS'28'
p99
aS'3'
aa(lp100
S'det'
p101
aS'5'
aS'4'
aa(lp102
S'dep'
p103
aS'3'
aS'5'
aa(lp104
S'aux'
p105
aS'7'
aS'6'
aa(lp106
S'infmod'
p107
aS'5'
aS'7'
aa(lp108
S'poss'
p109
aS'13'
p110
aS'8'
aa(lp111
S'amod'
p112
aS'13'
p113
aS'10'
p114
aa(lp115
S'conj_or'
p116
aS'10'
p117
aS'12'
p118
aa(lp119
S'dobj'
p120
aS'7'
aS'13'
p121
aa(lp122
S'advmod'
p123
aS'5'
aS'14'
p124
aa(lp125
S'prepc_in'
p126
aS'5'
aS'16'
p127
aa(lp128
S'xcomp'
p129
aS'16'
p130
aS'17'
p131
aa(lp132
S'nn'
p133
aS'20'
p134
aS'18'
p135
aa(lp136
S'nn'
p137
aS'20'
p138
aS'19'
p139
aa(lp140
S'dobj'
p141
aS'17'
p142
aS'20'
p143
aa(lp144
S'conj_and'
p145
aS'20'
p146
aS'22'
p147
aa(lp148
S'det'
p149
aS'25'
p150
aS'24'
p151
aa(lp152
S'nsubjpass'
p153
aS'28'
p154
aS'25'
p155
aa(lp156
S'auxpass'
p157
aS'28'
p158
aS'26'
p159
aa(lp160
S'advmod'
p161
aS'28'
p162
aS'27'
p163
aa(lp164
S'root'
p165
aS'0'
aS'28'
p166
aa(lp167
S'det'
p168
aS'31'
p169
aS'30'
p170
aa(lp171
S'prep_to'
p172
aS'28'
p173
aS'31'
p174
aa(lp175
S'dobj'
p176
aS'34'
p177
aS'31'
p178
aa(lp179
S'det'
p180
aS'33'
p181
aS'32'
p182
aa(lp183
S'nsubj'
p184
aS'34'
p185
aS'33'
p186
aa(lp187
S'xsubj'
p188
aS'36'
p189
aS'33'
p190
aa(lp191
S'rcmod'
p192
aS'31'
p193
aS'34'
p194
aa(lp195
S'aux'
p196
aS'36'
p197
aS'35'
p198
aa(lp199
S'xcomp'
p200
aS'34'
p201
aS'36'
p202
aasS'srls'
p203
(lp204
(dp205
S'A1'
p206
S"one 's left or right foot"
p207
sS'A0'
p208
S'Sport Footedness Person'
p209
sS'AM-MNR'
p210
S'forward in surfing wakeboarding skateboarding wakeskating snowboarding and mountainboarding'
p211
sS'V'
g26
sa(dp212
S'A1'
p213
S'wakeboarding skateboarding wakeskating snowboarding and mountainboarding'
p214
sS'V'
g35
sa(dp215
S'A1'
p216
S'skateboarding wakeskating snowboarding and mountainboarding'
p217
sS'A0'
p218
S"one 's left or right foot forward in surfing"
p219
sS'V'
g36
sa(dp220
S'A1'
p221
S'The term  a footballer uses to kick'
p222
sS'A2'
p223
S'to the foot'
p224
sS'AM-TMP'
p225
g45
sS'V'
g46
sa(dp226
S'A1'
p227
S'the foot  to kick'
p228
sS'A0'
p229
S'a footballer'
p230
sS'V'
g51
sa(dp231
S'A1'
p232
S'the foot'
p233
sS'A0'
p234
S'a footballer'
p235
sS'V'
g53
sasS'pos_seq'
p236
(lp237
S'NNP'
p238
aS'NNP'
p239
aS'NNP'
p240
aS'DT'
p241
aS'NN'
p242
aS'TO'
p243
aS'VB'
p244
aS'NN'
p245
aS'POS'
p246
aS'VBN'
p247
aS'CC'
p248
aS'JJ'
p249
aS'NN'
p250
aS'RB'
p251
aS'IN'
p252
aS'VBG'
p253
aS'VBG'
p254
aS'NN'
p255
aS'NN'
p256
aS'NN'
p257
aS'CC'
p258
aS'NN'
p259
aS'.'
aS'DT'
p260
aS'NN'
p261
aS'VBZ'
p262
aS'RB'
p263
aS'VBN'
p264
aS'TO'
p265
aS'DT'
p266
aS'NN'
p267
aS'DT'
p268
aS'NN'
p269
aS'VBZ'
p270
aS'TO'
p271
aS'VB'
p272
aS'.'
asS'ner_seq'
p273
(lp274
S'B-MISC'
p275
aS'I-MISC'
p276
aS'E-MISC'
p277
aS'O'
aS'O'
aS'O'
aS'O'
aS'O'
aS'O'
aS'O'
aS'O'
aS'O'
aS'O'
aS'O'
aS'O'
aS'O'
aS'O'
aS'O'
aS'O'
aS'O'
aS'O'
aS'O'
aS'O'
aS'O'
aS'O'
aS'O'
aS'O'
aS'O'
aS'O'
aS'O'
aS'O'
aS'O'
aS'O'
aS'O'
aS'O'
aS'O'
aS'O'
assb.