ccopy_reg
_reconstructor
p1
(c__main__
KBproperty
p2
c__builtin__
object
p3
NtRp4
(dp5
S'comment'
p6
S'The Library of Congress Classification LCC is a system of library classification developed by the Library of Congress.'
p7
sS'domain'
p8
S'Written Work '
p9
sS'instances_count'
p10
S'7043'
p11
sS'label'
p12
S'LCC'
p13
sS'range'
p14
S'string '
p15
sS'prop_uri'
p16
S"'http://dbpedia.org/ontology/lcc'"
p17
sS'annotations'
p18
(dp19
S'bag_of_words'
p20
(lp21
S'Written'
p22
aS'Work'
p23
aS'LCC'
p24
aS'string'
p25
aS'The'
p26
aS'Library'
p27
aS'of'
p28
aS'Congress'
p29
aS'Classification'
p30
aS'LCC'
p31
aS'is'
p32
aS'a'
aS'system'
p33
aS'of'
p34
aS'library'
p35
aS'classification'
p36
aS'developed'
p37
aS'by'
p38
aS'the'
p39
aS'Library'
p40
aS'of'
p41
aS'Congress'
p42
aS'.'
asS'chunk_seq'
p43
(lp44
S'B-NP'
p45
aS'I-NP'
p46
aS'I-NP'
p47
aS'E-NP'
p48
aS'B-NP'
p49
aS'E-NP'
p50
aS'S-PP'
p51
aS'S-NP'
p52
aS'B-NP'
p53
aS'E-NP'
p54
aS'S-VP'
p55
aS'B-NP'
p56
aS'E-NP'
p57
aS'S-PP'
p58
aS'B-NP'
p59
aS'E-NP'
p60
aS'S-VP'
p61
aS'S-PP'
p62
aS'B-NP'
p63
aS'E-NP'
p64
aS'S-PP'
p65
aS'S-NP'
p66
aS'O'
asS'dep_seq'
p67
(lp68
(lp69
S'nn'
p70
aS'4'
aS'1'
aa(lp71
S'nn'
p72
aS'4'
aS'2'
aa(lp73
S'nn'
p74
aS'4'
aS'3'
aa(lp75
S'root'
p76
aS'0'
aS'4'
aa(lp77
S'det'
p78
aS'9'
aS'5'
aa(lp79
S'dep'
p80
aS'9'
aS'6'
aa(lp81
S'prep_of'
p82
aS'6'
aS'8'
aa(lp83
S'nsubj'
p84
aS'13'
p85
aS'9'
aa(lp86
S'nsubj'
p87
aS'13'
p88
aS'10'
p89
aa(lp90
S'cop'
p91
aS'13'
p92
aS'11'
p93
aa(lp94
S'det'
p95
aS'13'
p96
aS'12'
p97
aa(lp98
S'rcmod'
p99
aS'4'
aS'13'
p100
aa(lp101
S'nn'
p102
aS'16'
p103
aS'15'
p104
aa(lp105
S'prep_of'
p106
aS'13'
p107
aS'16'
p108
aa(lp109
S'partmod'
p110
aS'16'
p111
aS'17'
p112
aa(lp113
S'det'
p114
aS'20'
p115
aS'19'
p116
aa(lp117
S'agent'
p118
aS'17'
p119
aS'20'
p120
aa(lp121
S'prep_of'
p122
aS'20'
p123
aS'22'
p124
aasS'srls'
p125
(lp126
(dp127
S'A1'
p128
S'a system of library classification'
p129
sS'A0'
p130
S'by the Library of Congress'
p131
sS'V'
g37
sasS'pos_seq'
p132
(lp133
S'NNP'
p134
aS'NNP'
p135
aS'NNP'
p136
aS'NN'
p137
aS'DT'
p138
aS'NNP'
p139
aS'IN'
p140
aS'NNP'
p141
aS'NNP'
p142
aS'NNP'
p143
aS'VBZ'
p144
aS'DT'
p145
aS'NN'
p146
aS'IN'
p147
aS'NN'
p148
aS'NN'
p149
aS'VBN'
p150
aS'IN'
p151
aS'DT'
p152
aS'NNP'
p153
aS'IN'
p154
aS'NNP'
p155
aS'.'
asS'ner_seq'
p156
(lp157
S'O'
aS'O'
aS'S-ORG'
p158
aS'O'
aS'B-ORG'
p159
aS'I-ORG'
p160
aS'I-ORG'
p161
aS'E-ORG'
p162
aS'O'
aS'S-ORG'
p163
aS'O'
aS'O'
aS'O'
aS'O'
aS'O'
aS'O'
aS'O'
aS'O'
aS'O'
aS'B-ORG'
p164
aS'I-ORG'
p165
aS'E-ORG'
p166
aS'O'
assb.