ccopy_reg
_reconstructor
p1
(c__main__
KBproperty
p2
c__builtin__
object
p3
NtRp4
(dp5
S'comment'
p6
S'comitat of a settlement'
p7
sS'domain'
p8
S'Hungary Settlement '
p9
sS'instances_count'
p10
S'0'
sS'label'
p11
g7
sS'range'
p12
S'string '
p13
sS'prop_uri'
p14
S"'http://dbpedia.org/ontology/comitat'"
p15
sS'annotations'
p16
(dp17
S'bag_of_words'
p18
(lp19
S'Hungary'
p20
aS'Settlement'
p21
aS'comitat'
p22
aS'string'
p23
aS'comitat'
p24
aS'of'
p25
aS'a'
aS'settlement'
p26
asS'chunk_seq'
p27
(lp28
S'B-NP'
p29
aS'I-NP'
p30
aS'I-NP'
p31
aS'I-NP'
p32
aS'E-NP'
p33
aS'S-PP'
p34
aS'B-NP'
p35
aS'E-NP'
p36
asS'dep_seq'
p37
(lp38
(lp39
S'nn'
p40
aS'5'
aS'1'
aa(lp41
S'nn'
p42
aS'5'
aS'2'
aa(lp43
S'amod'
p44
aS'5'
aS'3'
aa(lp45
S'nn'
p46
aS'5'
aS'4'
aa(lp47
S'root'
p48
aS'0'
aS'5'
aa(lp49
S'det'
p50
aS'8'
aS'7'
aa(lp51
S'prep_of'
p52
aS'5'
aS'8'
aasS'srls'
p53
(lp54
sS'pos_seq'
p55
(lp56
S'NNP'
p57
aS'NNP'
p58
aS'JJ'
p59
aS'NN'
p60
aS'NN'
p61
aS'IN'
p62
aS'DT'
p63
aS'NN'
p64
asS'ner_seq'
p65
(lp66
S'S-LOC'
p67
aS'O'
aS'O'
aS'O'
aS'O'
aS'O'
aS'O'
aS'O'
assb.