ccopy_reg
_reconstructor
p1
(c__main__
KBproperty
p2
c__builtin__
object
p3
NtRp4
(dp5
S'comment'
p6
S'Code assigned to Dutch monuments at the provincial level mostly for monuments in the countryside or for waterworks'
p7
sS'domain'
p8
S'Place '
p9
sS'instances_count'
p10
S'0'
sS'label'
p11
S'monument code provinciall'
p12
sS'range'
p13
S'string '
p14
sS'prop_uri'
p15
S"'http://dbpedia.org/ontology/codeProvincialMonument'"
p16
sS'annotations'
p17
(dp18
S'bag_of_words'
p19
(lp20
S'Place'
p21
aS'monument'
p22
aS'code'
p23
aS'provinciall'
p24
aS'string'
p25
aS'Code'
p26
aS'assigned'
p27
aS'to'
p28
aS'Dutch'
p29
aS'monuments'
p30
aS'at'
p31
aS'the'
p32
aS'provincial'
p33
aS'level'
p34
aS'mostly'
p35
aS'for'
p36
aS'monuments'
p37
aS'in'
p38
aS'the'
p39
aS'countryside'
p40
aS'or'
p41
aS'for'
p42
aS'waterworks'
p43
asS'chunk_seq'
p44
(lp45
S'B-NP'
p46
aS'I-NP'
p47
aS'I-NP'
p48
aS'I-NP'
p49
aS'I-NP'
p50
aS'E-NP'
p51
aS'S-VP'
p52
aS'S-PP'
p53
aS'B-NP'
p54
aS'E-NP'
p55
aS'S-PP'
p56
aS'B-NP'
p57
aS'I-NP'
p58
aS'E-NP'
p59
aS'S-ADVP'
p60
aS'S-PP'
p61
aS'S-NP'
p62
aS'S-PP'
p63
aS'B-NP'
p64
aS'E-NP'
p65
aS'S-PP'
p66
aS'S-PP'
p67
aS'S-NP'
p68
asS'dep_seq'
p69
(lp70
(lp71
S'nn'
p72
aS'6'
aS'1'
aa(lp73
S'nn'
p74
aS'6'
aS'2'
aa(lp75
S'nn'
p76
aS'6'
aS'3'
aa(lp77
S'amod'
p78
aS'6'
aS'4'
aa(lp79
S'nn'
p80
aS'6'
aS'5'
aa(lp81
S'root'
p82
aS'0'
aS'6'
aa(lp83
S'partmod'
p84
aS'6'
aS'7'
aa(lp85
S'amod'
p86
aS'10'
p87
aS'9'
aa(lp88
S'prep_to'
p89
aS'7'
aS'10'
p90
aa(lp91
S'det'
p92
aS'14'
p93
aS'12'
p94
aa(lp95
S'amod'
p96
aS'14'
p97
aS'13'
p98
aa(lp99
S'prep_at'
p100
aS'7'
aS'14'
p101
aa(lp102
S'advmod'
p103
aS'7'
aS'15'
p104
aa(lp105
S'prep_for'
p106
aS'7'
aS'17'
p107
aa(lp108
S'conj_or'
p109
aS'17'
p110
aS"17'"
p111
aa(lp112
S'det'
p113
aS'20'
p114
aS'19'
p115
aa(lp116
S'prep_in'
p117
aS'17'
p118
aS'20'
p119
aa(lp120
S'prep_for'
p121
aS"17'"
p122
aS'23'
p123
aasS'srls'
p124
(lp125
(dp126
S'A1'
p127
S'provinciall string Code'
p128
sS'A2'
p129
S'to Dutch monuments at the provincial level'
p130
sS'AM-PNC'
p131
S'mostly for monuments in the countryside or for waterworks'
p132
sS'V'
g27
sasS'pos_seq'
p133
(lp134
S'NN'
p135
aS'NN'
p136
aS'NN'
p137
aS'JJ'
p138
aS'NN'
p139
aS'NN'
p140
aS'VBN'
p141
aS'TO'
p142
aS'JJ'
p143
aS'NNS'
p144
aS'IN'
p145
aS'DT'
p146
aS'JJ'
p147
aS'NN'
p148
aS'RB'
p149
aS'IN'
p150
aS'NNS'
p151
aS'IN'
p152
aS'DT'
p153
aS'NN'
p154
aS'CC'
p155
aS'IN'
p156
aS'NN'
p157
asS'ner_seq'
p158
(lp159
S'O'
aS'O'
aS'O'
aS'O'
aS'O'
aS'O'
aS'O'
aS'O'
aS'S-MISC'
p160
aS'O'
aS'O'
aS'O'
aS'O'
aS'O'
aS'O'
aS'O'
aS'O'
aS'O'
aS'O'
aS'O'
aS'O'
aS'O'
aS'O'
assb.