ccopy_reg
_reconstructor
p1
(c__main__
KBproperty
p2
c__builtin__
object
p3
NtRp4
(dp5
S'comment'
p6
S'code istat'
p7
sS'domain'
p8
S'Populated Place '
p9
sS'instances_count'
p10
S'0'
sS'label'
p11
g7
sS'range'
p12
S'string '
p13
sS'prop_uri'
p14
S"'http://dbpedia.org/ontology/istat'"
p15
sS'annotations'
p16
(dp17
S'bag_of_words'
p18
(lp19
S'Populated'
p20
aS'Place'
p21
aS'istat'
p22
aS'string'
p23
aS'code'
p24
aS'istat'
p25
asS'chunk_seq'
p26
(lp27
S'B-NP'
p28
aS'I-NP'
p29
aS'I-NP'
p30
aS'I-NP'
p31
aS'E-NP'
p32
aS'O'
asS'dep_seq'
p33
(lp34
(lp35
S'amod'
p36
aS'5'
aS'1'
aa(lp37
S'nn'
p38
aS'5'
aS'2'
aa(lp39
S'amod'
p40
aS'5'
aS'3'
aa(lp41
S'nn'
p42
aS'5'
aS'4'
aa(lp43
S'root'
p44
aS'0'
aS'5'
aa(lp45
S'punct'
p46
aS'5'
aS'6'
aasS'srls'
p47
(lp48
sS'pos_seq'
p49
(lp50
S'JJ'
p51
aS'NN'
p52
aS'JJ'
p53
aS'NN'
p54
aS'NN'
p55
aS'.'
asS'ner_seq'
p56
(lp57
S'O'
aS'O'
aS'O'
aS'O'
aS'O'
aS'O'
assb.