ccopy_reg
_reconstructor
p1
(c__main__
KBproperty
p2
c__builtin__
object
p3
NtRp4
(dp5
S'comment'
p6
S'diameter \\xce\\xbc'
p7
sS'domain'
p8
S''
sS'instances_count'
p9
S'1306'
p10
sS'label'
p11
g7
sS'range'
p12
S'double '
p13
sS'prop_uri'
p14
S"'http://dbpedia.org/ontology/diameter'"
p15
sS'annotations'
p16
(dp17
S'bag_of_words'
p18
(lp19
S'diameter'
p20
aS'double'
p21
aS'diameter'
p22
aS'\\'
aS'xce'
p23
aS'\\'
aS'xbc'
p24
asS'chunk_seq'
p25
(lp26
S'O'
aS'O'
aS'O'
aS'O'
aS'O'
aS'O'
aS'O'
asS'dep_seq'
p27
(lp28
(lp29
S'nn'
p30
aS'7'
aS'1'
aa(lp31
S'nn'
p32
aS'7'
aS'2'
aa(lp33
S'nn'
p34
aS'7'
aS'3'
aa(lp35
S'nn'
p36
aS'7'
aS'4'
aa(lp37
S'nn'
p38
aS'7'
aS'5'
aa(lp39
S'nn'
p40
aS'7'
aS'6'
aa(lp41
S'root'
p42
aS'0'
aS'7'
aasS'srls'
p43
(lp44
sS'pos_seq'
p45
(lp46
S'FW'
p47
aS'FW'
p48
aS'FW'
p49
aS'FW'
p50
aS'FW'
p51
aS'FW'
p52
aS'FW'
p53
asS'ner_seq'
p54
(lp55
S'O'
aS'O'
aS'O'
aS'O'
aS'O'
aS'O'
aS'O'
assb.