ccopy_reg
_reconstructor
p1
(c__main__
KBproperty
p2
c__builtin__
object
p3
NtRp4
(dp5
S'comment'
p6
S'height above average terrain \\xce\\xbc'
p7
sS'domain'
p8
S'Broadcaster '
p9
sS'instances_count'
p10
S'4877'
p11
sS'label'
p12
g7
sS'range'
p13
S'double '
p14
sS'prop_uri'
p15
S"'http://dbpedia.org/ontology/heightAboveAverageTerrain'"
p16
sS'annotations'
p17
(dp18
S'bag_of_words'
p19
(lp20
S'Broadcaster'
p21
aS'height'
p22
aS'Above'
p23
aS'Average'
p24
aS'Terrain'
p25
aS'double'
p26
aS'height'
p27
aS'above'
p28
aS'average'
p29
aS'terrain'
p30
aS'\\'
aS'xce'
p31
aS'\\'
aS'xbc'
p32
asS'chunk_seq'
p33
(lp34
S'B-NP'
p35
aS'E-NP'
p36
aS'S-PP'
p37
aS'B-NP'
p38
aS'E-NP'
p39
aS'B-NP'
p40
aS'E-NP'
p41
aS'S-PP'
p42
aS'B-NP'
p43
aS'E-NP'
p44
aS'O'
aS'O'
aS'O'
aS'O'
asS'dep_seq'
p45
(lp46
(lp47
S'nn'
p48
aS'2'
aS'1'
aa(lp49
S'nsubj'
p50
aS'11'
p51
aS'2'
aa(lp52
S'amod'
p53
aS'7'
aS'4'
aa(lp54
S'nn'
p55
aS'7'
aS'5'
aa(lp56
S'amod'
p57
aS'7'
aS'6'
aa(lp58
S'prep_above'
p59
aS'2'
aS'7'
aa(lp60
S'amod'
p61
aS'10'
p62
aS'9'
aa(lp63
S'prep_above'
p64
aS'2'
aS'10'
p65
aa(lp66
S'root'
p67
aS'0'
aS'11'
p68
aa(lp69
S'dep'
p70
aS'14'
p71
aS'12'
p72
aa(lp73
S'dep'
p74
aS'14'
p75
aS'13'
p76
aa(lp77
S'dep'
p78
aS'11'
p79
aS'14'
p80
aasS'srls'
p81
(lp82
sS'pos_seq'
p83
(lp84
S'NN'
p85
aS'NN'
p86
aS'IN'
p87
aS'JJ'
p88
aS'NN'
p89
aS'JJ'
p90
aS'NN'
p91
aS'IN'
p92
aS'JJ'
p93
aS'NN'
p94
aS'FW'
p95
aS'FW'
p96
aS'FW'
p97
aS'FW'
p98
asS'ner_seq'
p99
(lp100
S'O'
aS'O'
aS'O'
aS'O'
aS'O'
aS'O'
aS'O'
aS'O'
aS'O'
aS'O'
aS'O'
aS'O'
aS'O'
aS'O'
assb.