ccopy_reg
_reconstructor
p1
(c__main__
KBproperty
p2
c__builtin__
object
p3
NtRp4
(dp5
S'comment'
p6
S'A meaning of a word or phrase that is suggested or implied as opposed to a denotation or literal meaning.'
p7
sS'domain'
p8
S''
sS'instances_count'
p9
S'60'
p10
sS'label'
p11
S'connotation'
p12
sS'range'
p13
S''
sS'prop_uri'
p14
S"'http://dbpedia.org/ontology/connotation'"
p15
sS'annotations'
p16
(dp17
S'bag_of_words'
p18
(lp19
S'connotation'
p20
aS'A'
aS'meaning'
p21
aS'of'
p22
aS'a'
aS'word'
p23
aS'or'
p24
aS'phrase'
p25
aS'that'
p26
aS'is'
p27
aS'suggested'
p28
aS'or'
p29
aS'implied'
p30
aS'as'
p31
aS'opposed'
p32
aS'to'
p33
aS'a'
aS'denotation'
p34
aS'or'
p35
aS'literal'
p36
aS'meaning'
p37
aS'.'
asS'chunk_seq'
p38
(lp39
S'S-NP'
p40
aS'B-NP'
p41
aS'E-NP'
p42
aS'S-PP'
p43
aS'B-NP'
p44
aS'I-NP'
p45
aS'I-NP'
p46
aS'E-NP'
p47
aS'S-NP'
p48
aS'B-VP'
p49
aS'I-VP'
p50
aS'I-VP'
p51
aS'E-VP'
p52
aS'S-SBAR'
p53
aS'S-VP'
p54
aS'S-PP'
p55
aS'B-NP'
p56
aS'E-NP'
p57
aS'O'
aS'B-NP'
p58
aS'E-NP'
p59
aS'O'
asS'dep_seq'
p60
(lp61
(lp62
S'root'
p63
aS'0'
aS'1'
aa(lp64
S'det'
p65
aS'3'
aS'2'
aa(lp66
S'dep'
p67
aS'1'
aS'3'
aa(lp68
S'det'
p69
aS'6'
aS'5'
aa(lp70
S'prep_of'
p71
aS'3'
aS'6'
aa(lp72
S'nsubjpass'
p73
aS'11'
p74
aS'6'
aa(lp75
S'conj_or'
p76
aS'6'
aS'8'
aa(lp77
S'auxpass'
p78
aS'11'
p79
aS'10'
p80
aa(lp81
S'rcmod'
p82
aS'6'
aS'11'
p83
aa(lp84
S'conj_or'
p85
aS'11'
p86
aS'13'
p87
aa(lp88
S'prepc_as'
p89
aS'11'
p90
aS'15'
p91
aa(lp92
S'det'
p93
aS'18'
p94
aS'17'
p95
aa(lp96
S'nn'
p97
aS'21'
p98
aS'18'
p99
aa(lp100
S'conj_or'
p101
aS'18'
p102
aS'20'
p103
aa(lp104
S'prep_to'
p105
aS'15'
p106
aS'21'
p107
aasS'srls'
p108
(lp109
(dp110
S'A1'
p111
S'a word or phrase'
p112
sS'R-A1'
p113
g26
sS'AM-MNR'
p114
S'as opposed to a denotation or literal meaning'
p115
sS'V'
g28
sa(dp116
S'A1'
p117
S'a word or phrase  as opposed to a denotation or literal meaning'
p118
sS'R-A1'
p119
g26
sS'V'
g30
sa(dp120
S'A1'
p121
S'to a denotation or literal meaning'
p122
sS'V'
g32
sasS'pos_seq'
p123
(lp124
S'NN'
p125
aS'DT'
p126
aS'NN'
p127
aS'IN'
p128
aS'DT'
p129
aS'NN'
p130
aS'CC'
p131
aS'NN'
p132
aS'WDT'
p133
aS'VBZ'
p134
aS'VBN'
p135
aS'CC'
p136
aS'VBN'
p137
aS'IN'
p138
aS'VBN'
p139
aS'TO'
p140
aS'DT'
p141
aS'NN'
p142
aS'CC'
p143
aS'JJ'
p144
aS'NN'
p145
aS'.'
asS'ner_seq'
p146
(lp147
S'O'
aS'O'
aS'O'
aS'O'
aS'O'
aS'O'
aS'O'
aS'O'
aS'O'
aS'O'
aS'O'
aS'O'
aS'O'
aS'O'
aS'O'
aS'O'
aS'O'
aS'O'
aS'O'
aS'O'
aS'O'
aS'O'
assb.