ccopy_reg
_reconstructor
p1
(c__main__
KBproperty
p2
c__builtin__
object
p3
NtRp4
(dp5
S'comment'
p6
S''
sS'domain'
p7
S''
sS'instances_count'
p8
S'136'
p9
sS'label'
p10
S'bar pass rate'
p11
sS'range'
p12
S''
sS'prop_uri'
p13
S"'http://dbpedia.org/property/barPassRate'"
p14
sS'annotations'
p15
(dp16
S'bag_of_words'
p17
(lp18
S'bar'
p19
aS'pass'
p20
aS'rate'
p21
asS'chunk_seq'
p22
(lp23
S'B-NP'
p24
aS'I-NP'
p25
aS'E-NP'
p26
asS'dep_seq'
p27
(lp28
(lp29
S'nsubj'
p30
aS'2'
aS'1'
aa(lp31
S'root'
p32
aS'0'
aS'2'
aa(lp33
S'dobj'
p34
aS'2'
aS'3'
aasS'srls'
p35
(lp36
(dp37
S'A1'
p38
g21
sS'V'
g20
sasS'pos_seq'
p39
(lp40
S'NN'
p41
aS'VB'
p42
aS'NN'
p43
asS'ner_seq'
p44
(lp45
S'O'
aS'O'
aS'O'
assb.