ccopy_reg
_reconstructor
p1
(c__main__
KBproperty
p2
c__builtin__
object
p3
NtRp4
(dp5
S'comment'
p6
S''
sS'domain'
p7
S'Species '
p8
sS'instances_count'
p9
S'0'
sS'label'
p10
S'sub-family'
p11
sS'range'
p12
S'Taxon '
p13
sS'prop_uri'
p14
S"'http://dbpedia.org/ontology/subFamily'"
p15
sS'annotations'
p16
(dp17
S'bag_of_words'
p18
(lp19
S'Species'
p20
aS'sub'
p21
aS'-'
aS'family'
p22
aS'Taxon'
p23
asS'chunk_seq'
p24
(lp25
S'S-NP'
p26
aS'S-VP'
p27
aS'O'
aS'B-NP'
p28
aS'E-NP'
p29
asS'dep_seq'
p30
(lp31
(lp32
S'root'
p33
aS'0'
aS'1'
aa(lp34
S'dep'
p35
aS'1'
aS'2'
aa(lp36
S'nn'
p37
aS'5'
aS'4'
aa(lp38
S'dep'
p39
aS'1'
aS'5'
aasS'srls'
p40
(lp41
sS'pos_seq'
p42
(lp43
S'NNS'
p44
aS'VBP'
p45
aS':'
aS'NN'
p46
aS'NN'
p47
asS'ner_seq'
p48
(lp49
S'O'
aS'O'
aS'O'
aS'O'
aS'O'
assb.