ccopy_reg
_reconstructor
p1
(c__main__
KBproperty
p2
c__builtin__
object
p3
NtRp4
(dp5
S'comment'
p6
S"a municipality's present name"
p7
sS'domain'
p8
S'Former Municipality '
p9
sS'instances_count'
p10
S'0'
sS'label'
p11
S'"a municipality\'s present name"'
p12
sS'range'
p13
S'string '
p14
sS'prop_uri'
p15
S"'http://dbpedia.org/ontology/presentName'"
p16
sS'annotations'
p17
(dp18
S'bag_of_words'
p19
(lp20
S'Former'
p21
aS'Municipality'
p22
aS'present'
p23
aS'Name'
p24
aS'string'
p25
aS'a'
aS'municipality'
p26
aS"'s"
p27
aS'present'
p28
aS'name'
p29
asS'chunk_seq'
p30
(lp31
S'B-NP'
p32
aS'I-NP'
p33
aS'I-NP'
p34
aS'I-NP'
p35
aS'E-NP'
p36
aS'B-NP'
p37
aS'E-NP'
p38
aS'B-NP'
p39
aS'I-NP'
p40
aS'E-NP'
p41
asS'dep_seq'
p42
(lp43
(lp44
S'nn'
p45
aS'5'
aS'1'
aa(lp46
S'nn'
p47
aS'5'
aS'2'
aa(lp48
S'amod'
p49
aS'5'
aS'3'
aa(lp50
S'nn'
p51
aS'5'
aS'4'
aa(lp52
S'root'
p53
aS'0'
aS'5'
aa(lp54
S'det'
p55
aS'7'
aS'6'
aa(lp56
S'poss'
p57
aS'10'
p58
aS'7'
aa(lp59
S'amod'
p60
aS'10'
p61
aS'9'
aa(lp62
S'dep'
p63
aS'5'
aS'10'
p64
aasS'srls'
p65
(lp66
sS'pos_seq'
p67
(lp68
S'NNP'
p69
aS'NNP'
p70
aS'JJ'
p71
aS'NN'
p72
aS'NN'
p73
aS'DT'
p74
aS'NN'
p75
aS'POS'
p76
aS'JJ'
p77
aS'NN'
p78
asS'ner_seq'
p79
(lp80
S'O'
aS'O'
aS'O'
aS'O'
aS'O'
aS'O'
aS'O'
aS'O'
aS'O'
aS'O'
assb.