ccopy_reg
_reconstructor
p1
(c__main__
KBproperty
p2
c__builtin__
object
p3
NtRp4
(dp5
S'comment'
p6
S'Scale parameters that can be understood by Geohack eg "type:" "scale:" "region:" "altitude:". Use "_" for several eg "type:landmark_scale:50000". See https://fr.wikipedia.org/wiki/Mod\\xc3\\xa8le:Infobox_Subdivision_administrative for examples and https://fr.wikipedia.org/wiki/Mod\\xc3\\xa8le:GeoTemplate/Utilisation#La_mention_Type:... for a complete list'
p7
sS'domain'
p8
S'Place '
p9
sS'instances_count'
p10
S'0'
sS'label'
p11
S'type coordinate'
p12
sS'range'
p13
S'string '
p14
sS'prop_uri'
p15
S"'http://dbpedia.org/ontology/typeCoordinate'"
p16
sS'annotations'
p17
(dp18
S'bag_of_words'
p19
(lp20
S'Place'
p21
aS'type'
p22
aS'coordinate'
p23
aS'string'
p24
aS'Scale'
p25
aS'parameters'
p26
aS'that'
p27
aS'can'
p28
aS'be'
p29
aS'understood'
p30
aS'by'
p31
aS'Geohack'
p32
aS'eg'
p33
aS'"'
aS'type'
p34
aS':'
aS'"'
aS'"'
aS'scale'
p35
aS':'
aS'"'
aS'"'
aS'region'
p36
aS':'
aS'"'
aS'"'
aS'altitude'
p37
aS':'
aS'"'
aS'.'
aS'Use'
p38
aS'"'
aS'_'
aS'"'
aS'for'
p39
aS'several'
p40
aS'eg'
p41
aS'"'
aS'type'
p42
aS':'
aS'landmark'
p43
aS'_'
aS'scale'
p44
aS':'
aS'50000'
p45
aS'"'
aS'.'
aS'See'
p46
aS'https'
p47
aS':'
aS'//'
p48
aS'fr.'
p49
aS'wikipedia'
p50
aS'.org'
p51
aS'/'
aS'wiki'
p52
aS'/'
aS'Mod'
p53
aS'\\'
aS'xc3'
p54
aS'\\'
aS'xa8le'
p55
aS':'
aS'Infobox'
p56
aS'_'
aS'Subdivision'
p57
aS'_'
aS'administrative'
p58
aS'for'
p59
aS'examples'
p60
aS'and'
p61
aS'https'
p62
aS':'
aS'//'
p63
aS'fr.'
p64
aS'wikipedia'
p65
aS'.org'
p66
aS'/'
aS'wiki'
p67
aS'/'
aS'Mod'
p68
aS'\\'
aS'xc3'
p69
aS'\\'
aS'xa8le'
p70
aS':'
aS'GeoTemplate'
p71
aS'/'
aS'Utilisation'
p72
aS'#'
aS'La'
p73
aS'_'
aS'mention'
p74
aS'_'
aS'Type'
p75
aS':'
aS'...'
p76
aS'for'
p77
aS'a'
aS'complete'
p78
aS'list'
p79
asS'chunk_seq'
p80
(lp81
S'B-NP'
p82
aS'I-NP'
p83
aS'I-NP'
p84
aS'I-NP'
p85
aS'I-NP'
p86
aS'E-NP'
p87
aS'S-NP'
p88
aS'B-VP'
p89
aS'I-VP'
p90
aS'E-VP'
p91
aS'S-PP'
p92
aS'B-NP'
p93
aS'I-NP'
p94
aS'I-NP'
p95
aS'E-NP'
p96
aS'O'
aS'B-NP'
p97
aS'I-NP'
p98
aS'E-NP'
p99
aS'O'
aS'B-NP'
p100
aS'I-NP'
p101
aS'E-NP'
p102
aS'O'
aS'B-NP'
p103
aS'I-NP'
p104
aS'E-NP'
p105
aS'O'
aS'O'
aS'O'
aS'O'
aS'O'
aS'O'
aS'O'
aS'S-PP'
p106
aS'B-NP'
p107
aS'I-NP'
p108
aS'I-NP'
p109
aS'E-NP'
p110
aS'O'
aS'B-NP'
p111
aS'I-NP'
p112
aS'E-NP'
p113
aS'O'
aS'B-NP'
p114
aS'E-NP'
p115
aS'O'
aS'S-VP'
p116
aS'S-NP'
p117
aS'O'
aS'O'
aS'O'
aS'O'
aS'O'
aS'O'
aS'O'
aS'O'
aS'O'
aS'O'
aS'O'
aS'O'
aS'O'
aS'O'
aS'O'
aS'O'
aS'O'
aS'O'
aS'O'
aS'S-PP'
p118
aS'S-NP'
p119
aS'O'
aS'S-NP'
p120
aS'O'
aS'O'
aS'O'
aS'O'
aS'O'
aS'O'
aS'O'
aS'O'
aS'O'
aS'O'
aS'O'
aS'O'
aS'O'
aS'O'
aS'S-NP'
p121
aS'O'
aS'O'
aS'O'
aS'O'
aS'O'
aS'O'
aS'O'
aS'O'
aS'O'
aS'O'
aS'S-PP'
p122
aS'B-NP'
p123
aS'I-NP'
p124
aS'E-NP'
p125
asS'dep_seq'
p126
(lp127
(lp128
S'nn'
p129
aS'6'
aS'1'
aa(lp130
S'nn'
p131
aS'6'
aS'2'
aa(lp132
S'dep'
p133
aS'6'
aS'3'
aa(lp134
S'nn'
p135
aS'6'
aS'4'
aa(lp136
S'nn'
p137
aS'6'
aS'5'
aa(lp138
S'dep'
p139
aS'48'
p140
aS'6'
aa(lp141
S'dep'
p142
aS'48'
p143
aS'7'
aa(lp144
S'dep'
p145
aS'48'
p146
aS'8'
aa(lp147
S'dep'
p148
aS'48'
p149
aS'9'
aa(lp150
S'dep'
p151
aS'48'
p152
aS'10'
p153
aa(lp154
S'dep'
p155
aS'48'
p156
aS'11'
p157
aa(lp158
S'nn'
p159
aS'15'
p160
aS'12'
p161
aa(lp162
S'nn'
p163
aS'15'
p164
aS'13'
p165
aa(lp166
S'nn'
p167
aS'15'
p168
aS'14'
p169
aa(lp170
S'dep'
p171
aS'48'
p172
aS'15'
p173
aa(lp174
S'amod'
p175
aS'19'
p176
aS'17'
p177
aa(lp178
S'amod'
p179
aS'19'
p180
aS'18'
p181
aa(lp182
S'dep'
p183
aS'48'
p184
aS'19'
p185
aa(lp186
S'amod'
p187
aS'23'
p188
aS'21'
p189
aa(lp190
S'amod'
p191
aS'23'
p192
aS'22'
p193
aa(lp194
S'dep'
p195
aS'48'
p196
aS'23'
p197
aa(lp198
S'amod'
p199
aS'26'
p200
aS'25'
p201
aa(lp202
S'amod'
p203
aS'27'
p204
aS'26'
p205
aa(lp206
S'dep'
p207
aS'48'
p208
aS'27'
p209
aa(lp210
S'amod'
p211
aS'34'
p212
aS'29'
p213
aa(lp214
S'dep'
p215
aS'29'
p216
aS'31'
p217
aa(lp218
S'dep'
p219
aS'29'
p220
aS'32'
p221
aa(lp222
S'nn'
p223
aS'34'
p224
aS'33'
p225
aa(lp226
S'dep'
p227
aS'48'
p228
aS'34'
p229
aa(lp230
S'amod'
p231
aS'39'
p232
aS'36'
p233
aa(lp234
S'amod'
p235
aS'39'
p236
aS'37'
p237
aa(lp238
S'amod'
p239
aS'39'
p240
aS'38'
p241
aa(lp242
S'prep_for'
p243
aS'48'
p244
aS'39'
p245
aa(lp246
S'nn'
p247
aS'43'
p248
aS'41'
p249
aa(lp250
S'num'
p251
aS'43'
p252
aS'42'
p253
aa(lp254
S'dep'
p255
aS'39'
p256
aS'43'
p257
aa(lp258
S'num'
p259
aS'46'
p260
aS'45'
p261
aa(lp262
S'nsubj'
p263
aS'48'
p264
aS'46'
p265
aa(lp266
S'root'
p267
aS'0'
aS'48'
p268
aa(lp269
S'dobj'
p270
aS'48'
p271
aS'49'
p272
aa(lp273
S'nn'
p274
aS'62'
p275
aS'51'
p276
aa(lp277
S'nn'
p278
aS'62'
p279
aS'52'
p280
aa(lp281
S'nn'
p282
aS'62'
p283
aS'53'
p284
aa(lp285
S'nn'
p286
aS'62'
p287
aS'54'
p288
aa(lp289
S'nn'
p290
aS'62'
p291
aS'55'
p292
aa(lp293
S'nn'
p294
aS'62'
p295
aS'56'
p296
aa(lp297
S'nn'
p298
aS'62'
p299
aS'57'
p300
aa(lp301
S'nn'
p302
aS'62'
p303
aS'58'
p304
aa(lp305
S'nn'
p306
aS'62'
p307
aS'59'
p308
aa(lp309
S'nn'
p310
aS'62'
p311
aS'60'
p312
aa(lp313
S'nn'
p314
aS'62'
p315
aS'61'
p316
aa(lp317
S'dep'
p318
aS'48'
p319
aS'62'
p320
aa(lp321
S'dep'
p322
aS'68'
p323
aS'64'
p324
aa(lp325
S'nn'
p326
aS'64'
p327
aS'65'
p328
aa(lp329
S'nn'
p330
aS'64'
p331
aS'66'
p332
aa(lp333
S'dep'
p334
aS'64'
p335
aS'67'
p336
aa(lp337
S'dep'
p338
aS'85'
p339
aS'68'
p340
aa(lp341
S'prep_for'
p342
aS'68'
p343
aS'70'
p344
aa(lp345
S'conj_and'
p346
aS'70'
p347
aS'72'
p348
aa(lp349
S'nn'
p350
aS'85'
p351
aS'74'
p352
aa(lp353
S'nn'
p354
aS'85'
p355
aS'75'
p356
aa(lp357
S'nn'
p358
aS'85'
p359
aS'76'
p360
aa(lp361
S'nn'
p362
aS'85'
p363
aS'77'
p364
aa(lp365
S'nn'
p366
aS'85'
p367
aS'78'
p368
aa(lp369
S'nn'
p370
aS'85'
p371
aS'79'
p372
aa(lp373
S'nn'
p374
aS'85'
p375
aS'80'
p376
aa(lp377
S'nn'
p378
aS'85'
p379
aS'81'
p380
aa(lp381
S'nn'
p382
aS'85'
p383
aS'82'
p384
aa(lp385
S'nn'
p386
aS'85'
p387
aS'83'
p388
aa(lp389
S'nn'
p390
aS'85'
p391
aS'84'
p392
aa(lp393
S'parataxis'
p394
aS'48'
p395
aS'85'
p396
aa(lp397
S'nn'
p398
aS'95'
p399
aS'87'
p400
aa(lp401
S'punct'
p402
aS'95'
p403
aS'88'
p404
aa(lp405
S'nn'
p406
aS'95'
p407
aS'89'
p408
aa(lp409
S'dep'
p410
aS'94'
p411
aS'90'
p412
aa(lp413
S'dep'
p414
aS'94'
p415
aS'91'
p416
aa(lp417
S'dep'
p418
aS'94'
p419
aS'92'
p420
aa(lp421
S'dep'
p422
aS'94'
p423
aS'93'
p424
aa(lp425
S'num'
p426
aS'95'
p427
aS'94'
p428
aa(lp429
S'dep'
p430
aS'48'
p431
aS'95'
p432
aa(lp433
S'det'
p434
aS'101'
p435
aS'99'
p436
aa(lp437
S'amod'
p438
aS'101'
p439
aS'100'
p440
aa(lp441
S'prep_for'
p442
aS'48'
p443
aS'101'
p444
aasS'srls'
p445
(lp446
(dp447
S'A1'
p448
S'string Scale parameters'
p449
sS'V'
g23
sa(dp450
S'A1'
p451
S'string Scale parameters'
p452
sS'A0'
p453
S'by Geohack eg " type'
p454
sS'V'
g30
sS'R-A1'
p455
g27
sS'AM-MOD'
p456
g28
sa(dp457
S'A1'
p458
S'https : // fr. wikipedia .org / wiki / Mod \\ xc3 \\ xa8le : Infobox _ Subdivision _ administrative for examples and https : // fr. wikipedia .org / wiki / Mod \\ xc3 \\ xa8le : GeoTemplate / Utilisation # La _ mention _ Type : ... for a complete list'
p459
sS'V'
g46
sasS'pos_seq'
p460
(lp461
S'NN'
p462
aS'NN'
p463
aS'VB'
p464
aS'NN'
p465
aS'NN'
p466
aS'NNS'
p467
aS'WDT'
p468
aS'MD'
p469
aS'VB'
p470
aS'VBN'
p471
aS'IN'
p472
aS'NNP'
p473
aS'FW'
p474
aS'FW'
p475
aS'NN'
p476
aS':'
aS'JJ'
p477
aS'JJ'
p478
aS'NN'
p479
aS':'
aS'JJ'
p480
aS'JJ'
p481
aS'NN'
p482
aS':'
aS'JJ'
p483
aS'JJ'
p484
aS'NN'
p485
aS':'
aS'LS'
p486
aS'.'
aS'NNP'
p487
aS'FW'
p488
aS'FW'
p489
aS'FW'
p490
aS'IN'
p491
aS'JJ'
p492
aS'JJ'
p493
aS'JJ'
p494
aS'NN'
p495
aS':'
aS'NN'
p496
aS'CD'
p497
aS'NN'
p498
aS':'
aS'CD'
p499
aS'NN'
p500
aS'.'
aS'VB'
p501
aS'NNS'
p502
aS':'
aS'FW'
p503
aS'FW'
p504
aS'FW'
p505
aS'FW'
p506
aS'FW'
p507
aS'FW'
p508
aS'FW'
p509
aS'FW'
p510
aS'FW'
p511
aS'FW'
p512
aS'FW'
p513
aS'FW'
p514
aS'FW'
p515
aS'FW'
p516
aS'FW'
p517
aS'FW'
p518
aS'FW'
p519
aS'JJ'
p520
aS'IN'
p521
aS'NNS'
p522
aS'CC'
p523
aS'NNS'
p524
aS':'
aS'FW'
p525
aS'FW'
p526
aS'FW'
p527
aS'FW'
p528
aS'FW'
p529
aS'FW'
p530
aS'FW'
p531
aS'FW'
p532
aS'FW'
p533
aS'FW'
p534
aS'FW'
p535
aS'FW'
p536
aS':'
aS'NNP'
p537
aS':'
aS'NN'
p538
aS'FW'
p539
aS'FW'
p540
aS'FW'
p541
aS'FW'
p542
aS'FW'
p543
aS'NNP'
p544
aS':'
aS':'
aS'IN'
p545
aS'DT'
p546
aS'JJ'
p547
aS'NN'
p548
asS'ner_seq'
p549
(lp550
S'O'
aS'O'
aS'O'
aS'O'
aS'O'
aS'O'
aS'O'
aS'O'
aS'O'
aS'O'
aS'O'
aS'S-MISC'
p551
aS'O'
aS'O'
aS'O'
aS'O'
aS'O'
aS'O'
aS'O'
aS'O'
aS'O'
aS'O'
aS'O'
aS'O'
aS'O'
aS'O'
aS'O'
aS'O'
aS'O'
aS'O'
aS'O'
aS'O'
aS'O'
aS'O'
aS'O'
aS'O'
aS'O'
aS'O'
aS'O'
aS'O'
aS'O'
aS'O'
aS'O'
aS'O'
aS'O'
aS'O'
aS'O'
aS'O'
aS'O'
aS'O'
aS'O'
aS'O'
aS'O'
aS'O'
aS'O'
aS'O'
aS'O'
aS'S-MISC'
p552
aS'O'
aS'O'
aS'O'
aS'O'
aS'O'
aS'S-LOC'
p553
aS'O'
aS'O'
aS'O'
aS'O'
aS'O'
aS'O'
aS'O'
aS'O'
aS'O'
aS'O'
aS'O'
aS'O'
aS'O'
aS'O'
aS'O'
aS'O'
aS'S-MISC'
p554
aS'O'
aS'O'
aS'O'
aS'O'
aS'O'
aS'S-LOC'
p555
aS'O'
aS'O'
aS'O'
aS'S-ORG'
p556
aS'O'
aS'O'
aS'O'
aS'O'
aS'O'
aS'O'
aS'O'
aS'O'
aS'O'
aS'O'
assb.