ccopy_reg
_reconstructor
p1
(c__main__
KBproperty
p2
c__builtin__
object
p3
NtRp4
(dp5
S'comment'
p6
S'Indicates an annotation associated with this document'
p7
sS'domain'
p8
S'Document '
p9
sS'instances_count'
p10
S'0'
sS'label'
p11
g7
sS'range'
p12
S'Annotation '
p13
sS'prop_uri'
p14
S"'http://dbpedia.org/ontology/hasAnnotation'"
p15
sS'annotations'
p16
(dp17
S'bag_of_words'
p18
(lp19
S'Document'
p20
aS'has'
p21
aS'Annotation'
p22
aS'Annotation'
p23
aS'Indicates'
p24
aS'an'
p25
aS'annotation'
p26
aS'associated'
p27
aS'with'
p28
aS'this'
p29
aS'document'
p30
asS'chunk_seq'
p31
(lp32
S'S-NP'
p33
aS'S-VP'
p34
aS'B-NP'
p35
aS'E-NP'
p36
aS'S-VP'
p37
aS'B-NP'
p38
aS'E-NP'
p39
aS'S-VP'
p40
aS'S-PP'
p41
aS'B-NP'
p42
aS'E-NP'
p43
asS'dep_seq'
p44
(lp45
(lp46
S'nsubj'
p47
aS'2'
aS'1'
aa(lp48
S'root'
p49
aS'0'
aS'2'
aa(lp50
S'nn'
p51
aS'4'
aS'3'
aa(lp52
S'nsubj'
p53
aS'5'
aS'4'
aa(lp54
S'ccomp'
p55
aS'2'
aS'5'
aa(lp56
S'det'
p57
aS'7'
aS'6'
aa(lp58
S'dobj'
p59
aS'5'
aS'7'
aa(lp60
S'partmod'
p61
aS'7'
aS'8'
aa(lp62
S'det'
p63
aS'11'
p64
aS'10'
p65
aa(lp66
S'prep_with'
p67
aS'8'
aS'11'
p68
aasS'srls'
p69
(lp70
(dp71
S'A1'
p72
S'Annotation Annotation Indicates an annotation associated with this document'
p73
sS'A0'
p74
g20
sS'V'
g21
sa(dp75
S'A1'
p76
S'an annotation associated with this document'
p77
sS'A0'
p78
S'Annotation Annotation'
p79
sS'V'
g24
sa(dp80
S'A1'
p81
S'an annotation'
p82
sS'A2'
p83
S'with this document'
p84
sS'V'
g27
sasS'pos_seq'
p85
(lp86
S'NN'
p87
aS'VBZ'
p88
aS'NNP'
p89
aS'NNP'
p90
aS'VBZ'
p91
aS'DT'
p92
aS'NN'
p93
aS'VBN'
p94
aS'IN'
p95
aS'DT'
p96
aS'NN'
p97
asS'ner_seq'
p98
(lp99
S'O'
aS'O'
aS'O'
aS'O'
aS'O'
aS'O'
aS'O'
aS'O'
aS'O'
aS'O'
aS'O'
assb.