ccopy_reg
_reconstructor
p1
(c__main__
KBproperty
p2
c__builtin__
object
p3
NtRp4
(dp5
S'comment'
p6
S''
sS'domain'
p7
S''
sS'instances_count'
p8
S'3348'
p9
sS'label'
p10
S'meaning'
p11
sS'range'
p12
S'string '
p13
sS'prop_uri'
p14
S"'http://dbpedia.org/ontology/meaning'"
p15
sS'annotations'
p16
(dp17
S'bag_of_words'
p18
(lp19
S'meaning'
p20
aS'string'
p21
asS'chunk_seq'
p22
(lp23
S'S-VP'
p24
aS'O'
asS'dep_seq'
p25
(lp26
(lp27
S'root'
p28
aS'0'
aS'1'
aa(lp29
S'pobj'
p30
aS'1'
aS'2'
aasS'srls'
p31
(lp32
(dp33
S'A1'
p34
g21
sS'V'
g20
sasS'pos_seq'
p35
(lp36
S'VBG'
p37
aS'NN'
p38
asS'ner_seq'
p39
(lp40
S'O'
aS'O'
assb.