ccopy_reg
_reconstructor
p1
(c__main__
KBproperty
p2
c__builtin__
object
p3
NtRp4
(dp5
S'comment'
p6
S''
sS'domain'
p7
S'Biomolecule '
p8
sS'instances_count'
p9
S'2602'
p10
sS'label'
p11
S'OMIM id'
p12
sS'range'
p13
S'integer '
p14
sS'prop_uri'
p15
S"'http://dbpedia.org/ontology/omim'"
p16
sS'annotations'
p17
(dp18
S'bag_of_words'
p19
(lp20
S'Biomolecule'
p21
aS'OMIM'
p22
aS'id'
p23
aS'integer'
p24
asS'chunk_seq'
p25
(lp26
S'B-NP'
p27
aS'I-NP'
p28
aS'I-NP'
p29
aS'E-NP'
p30
asS'dep_seq'
p31
(lp32
(lp33
S'nn'
p34
aS'4'
aS'1'
aa(lp35
S'nn'
p36
aS'4'
aS'2'
aa(lp37
S'nn'
p38
aS'4'
aS'3'
aa(lp39
S'root'
p40
aS'0'
aS'4'
aasS'srls'
p41
(lp42
sS'pos_seq'
p43
(lp44
S'NNP'
p45
aS'NNP'
p46
aS'NN'
p47
aS'NN'
p48
asS'ner_seq'
p49
(lp50
S'B-PER'
p51
aS'E-PER'
p52
aS'O'
aS'O'
assb.