ccopy_reg
_reconstructor
p1
(c__main__
KBproperty
p2
c__builtin__
object
p3
NtRp4
(dp5
S'comment'
p6
S'Date when an Organization eg PoliticalParty Company or Species ceased to exist'
p7
sS'domain'
p8
S''
sS'instances_count'
p9
S'1970'
p10
sS'label'
p11
S'extinction date'
p12
sS'range'
p13
S'date '
p14
sS'prop_uri'
p15
S"'http://dbpedia.org/ontology/extinctionDate'"
p16
sS'annotations'
p17
(dp18
S'bag_of_words'
p19
(lp20
S'extinction'
p21
aS'date'
p22
aS'date'
p23
aS'Date'
p24
aS'when'
p25
aS'an'
p26
aS'Organization'
p27
aS'eg'
p28
aS'PoliticalParty'
p29
aS'Company'
p30
aS'or'
p31
aS'Species'
p32
aS'ceased'
p33
aS'to'
p34
aS'exist'
p35
asS'chunk_seq'
p36
(lp37
S'B-NP'
p38
aS'E-NP'
p39
aS'B-NP'
p40
aS'E-NP'
p41
aS'S-ADVP'
p42
aS'B-NP'
p43
aS'I-NP'
p44
aS'I-NP'
p45
aS'I-NP'
p46
aS'I-NP'
p47
aS'I-NP'
p48
aS'E-NP'
p49
aS'B-VP'
p50
aS'I-VP'
p51
aS'E-VP'
p52
asS'dep_seq'
p53
(lp54
(lp55
S'nn'
p56
aS'4'
aS'1'
aa(lp57
S'nn'
p58
aS'4'
aS'2'
aa(lp59
S'nn'
p60
aS'4'
aS'3'
aa(lp61
S'dep'
p62
aS'10'
p63
aS'4'
aa(lp64
S'advmod'
p65
aS'10'
p66
aS'5'
aa(lp67
S'det'
p68
aS'10'
p69
aS'6'
aa(lp70
S'nn'
p71
aS'10'
p72
aS'7'
aa(lp73
S'nn'
p74
aS'10'
p75
aS'8'
aa(lp76
S'nn'
p77
aS'10'
p78
aS'9'
aa(lp79
S'root'
p80
aS'0'
aS'10'
p81
aa(lp82
S'nsubj'
p83
aS'13'
p84
aS'12'
p85
aa(lp86
S'xsubj'
p87
aS'15'
p88
aS'12'
p89
aa(lp90
S'conj_or'
p91
aS'10'
p92
aS'13'
p93
aa(lp94
S'aux'
p95
aS'15'
p96
aS'14'
p97
aa(lp98
S'xcomp'
p99
aS'13'
p100
aS'15'
p101
aasS'srls'
p102
(lp103
(dp104
S'A0'
p105
S'an Organization eg PoliticalParty Company or Species'
p106
sS'C-A1'
p107
S'to exist'
p108
sS'V'
g33
sasS'pos_seq'
p109
(lp110
S'NN'
p111
aS'NN'
p112
aS'NN'
p113
aS'NN'
p114
aS'WRB'
p115
aS'DT'
p116
aS'NNP'
p117
aS'NNP'
p118
aS'NNP'
p119
aS'NNP'
p120
aS'CC'
p121
aS'NNP'
p122
aS'VBD'
p123
aS'TO'
p124
aS'VB'
p125
asS'ner_seq'
p126
(lp127
S'O'
aS'O'
aS'O'
aS'O'
aS'O'
aS'O'
aS'O'
aS'O'
aS'B-ORG'
p128
aS'E-ORG'
p129
aS'O'
aS'O'
aS'O'
aS'O'
aS'O'
assb.