ccopy_reg
_reconstructor
p1
(c__main__
KBproperty
p2
c__builtin__
object
p3
NtRp4
(dp5
S'comment'
p6
S'http://dbpedia.org/ontology/Deanery'
p7
sS'domain'
p8
S'Diocese '
p9
sS'instances_count'
p10
S'0'
sS'label'
p11
g7
sS'range'
p12
S'Parish '
p13
sS'prop_uri'
p14
S"'http://dbpedia.org/ontology/deanery'"
p15
sS'annotations'
p16
(dp17
S'bag_of_words'
p18
(lp19
S'Diocese'
p20
aS'deanery'
p21
aS'Parish'
p22
aS'http'
p23
aS':'
aS'//'
p24
aS'dbpedia'
p25
aS'.org'
p26
aS'/'
aS'ontology'
p27
aS'/'
aS'Deanery'
p28
asS'chunk_seq'
p29
(lp30
S'B-NP'
p31
aS'I-NP'
p32
aS'I-NP'
p33
aS'E-NP'
p34
aS'O'
aS'O'
aS'O'
aS'O'
aS'O'
aS'O'
aS'O'
aS'O'
asS'dep_seq'
p35
(lp36
(lp37
S'nn'
p38
aS'3'
aS'1'
aa(lp39
S'nn'
p40
aS'3'
aS'2'
aa(lp41
S'root'
p42
aS'0'
aS'3'
aa(lp43
S'dep'
p44
aS'3'
aS'4'
aa(lp45
S'dep'
p46
aS'7'
aS'6'
aa(lp47
S'dep'
p48
aS'4'
aS'7'
aa(lp49
S'dep'
p50
aS'7'
aS'8'
aa(lp51
S'prep'
p52
aS'7'
aS'9'
aa(lp53
S'pobj'
p54
aS'9'
aS'10'
p55
aa(lp56
S'prep'
p57
aS'10'
p58
aS'11'
p59
aa(lp60
S'pobj'
p61
aS'11'
p62
aS'12'
p63
aasS'srls'
p64
(lp65
sS'pos_seq'
p66
(lp67
S'NNP'
p68
aS'NN'
p69
aS'NNP'
p70
aS'NN'
p71
aS':'
aS'FW'
p72
aS'FW'
p73
aS'FW'
p74
aS'FW'
p75
aS'FW'
p76
aS'FW'
p77
aS'NNP'
p78
asS'ner_seq'
p79
(lp80
S'O'
aS'O'
aS'O'
aS'O'
aS'O'
aS'O'
aS'O'
aS'O'
aS'O'
aS'O'
aS'O'
aS'S-ORG'
p81
assb.