ccopy_reg
_reconstructor
p1
(c__main__
KBproperty
p2
c__builtin__
object
p3
NtRp4
(dp5
S'comment'
p6
S''
sS'domain'
p7
S'Lake '
p8
sS'instances_count'
p9
S'1172'
p10
sS'label'
p11
S'area of catchment m2'
p12
sS'range'
p13
S'double '
p14
sS'prop_uri'
p15
S"'http://dbpedia.org/ontology/areaOfCatchment'"
p16
sS'annotations'
p17
(dp18
S'bag_of_words'
p19
(lp20
S'Lake'
p21
aS'area'
p22
aS'of'
p23
aS'catchment'
p24
aS'm2'
p25
aS'double'
p26
asS'chunk_seq'
p27
(lp28
S'B-NP'
p29
aS'E-NP'
p30
aS'S-PP'
p31
aS'B-NP'
p32
aS'E-NP'
p33
aS'S-ADVP'
p34
asS'dep_seq'
p35
(lp36
(lp37
S'nn'
p38
aS'2'
aS'1'
aa(lp39
S'root'
p40
aS'0'
aS'2'
aa(lp41
S'nn'
p42
aS'5'
aS'4'
aa(lp43
S'prep_of'
p44
aS'2'
aS'5'
aa(lp45
S'advmod'
p46
aS'5'
aS'6'
aasS'srls'
p47
(lp48
sS'pos_seq'
p49
(lp50
S'NNP'
p51
aS'NN'
p52
aS'IN'
p53
aS'NN'
p54
aS'NN'
p55
aS'RB'
p56
asS'ner_seq'
p57
(lp58
S'O'
aS'O'
aS'O'
aS'O'
aS'O'
aS'O'
assb.