ccopy_reg
_reconstructor
p1
(c__main__
KBproperty
p2
c__builtin__
object
p3
NtRp4
(dp5
S'comment'
p6
S''
sS'domain'
p7
S'Skyscraper '
p8
sS'instances_count'
p9
S'0'
sS'label'
p10
S'tor floor height'
p11
sS'range'
p12
S'non Negative Integer '
p13
sS'prop_uri'
p14
S"'http://dbpedia.org/ontology/topFloorHeight'"
p15
sS'annotations'
p16
(dp17
S'bag_of_words'
p18
(lp19
S'Skyscraper'
p20
aS'tor'
p21
aS'floor'
p22
aS'height'
p23
aS'non'
p24
aS'Negative'
p25
aS'Integer'
p26
asS'chunk_seq'
p27
(lp28
S'B-NP'
p29
aS'I-NP'
p30
aS'I-NP'
p31
aS'E-NP'
p32
aS'B-NP'
p33
aS'I-NP'
p34
aS'E-NP'
p35
asS'dep_seq'
p36
(lp37
(lp38
S'nn'
p39
aS'4'
aS'1'
aa(lp40
S'num'
p41
aS'4'
aS'2'
aa(lp42
S'nn'
p43
aS'4'
aS'3'
aa(lp44
S'root'
p45
aS'0'
aS'4'
aa(lp46
S'advmod'
p47
aS'7'
aS'5'
aa(lp48
S'amod'
p49
aS'7'
aS'6'
aa(lp50
S'dep'
p51
aS'4'
aS'7'
aasS'srls'
p52
(lp53
sS'pos_seq'
p54
(lp55
S'NN'
p56
aS'CD'
p57
aS'NN'
p58
aS'NN'
p59
aS'RB'
p60
aS'JJ'
p61
aS'NN'
p62
asS'ner_seq'
p63
(lp64
S'O'
aS'O'
aS'O'
aS'O'
aS'O'
aS'O'
aS'O'
assb.