ccopy_reg
_reconstructor
p1
(c__main__
KBproperty
p2
c__builtin__
object
p3
NtRp4
(dp5
S'comment'
p6
S'date of final flight'
p7
sS'domain'
p8
S'Rocket '
p9
sS'instances_count'
p10
S'169'
p11
sS'label'
p12
S'final flight'
p13
sS'range'
p14
S'date '
p15
sS'prop_uri'
p16
S"'http://dbpedia.org/ontology/finalFlight'"
p17
sS'annotations'
p18
(dp19
S'bag_of_words'
p20
(lp21
S'Rocket'
p22
aS'final'
p23
aS'flight'
p24
aS'date'
p25
aS'date'
p26
aS'of'
p27
aS'final'
p28
aS'flight'
p29
asS'chunk_seq'
p30
(lp31
S'B-NP'
p32
aS'I-NP'
p33
aS'I-NP'
p34
aS'E-NP'
p35
aS'S-NP'
p36
aS'S-PP'
p37
aS'B-NP'
p38
aS'E-NP'
p39
asS'dep_seq'
p40
(lp41
(lp42
S'nn'
p43
aS'5'
aS'1'
aa(lp44
S'amod'
p45
aS'5'
aS'2'
aa(lp46
S'nn'
p47
aS'5'
aS'3'
aa(lp48
S'nn'
p49
aS'5'
aS'4'
aa(lp50
S'root'
p51
aS'0'
aS'5'
aa(lp52
S'amod'
p53
aS'8'
aS'7'
aa(lp54
S'prep_of'
p55
aS'5'
aS'8'
aasS'srls'
p56
(lp57
sS'pos_seq'
p58
(lp59
S'NNP'
p60
aS'JJ'
p61
aS'NN'
p62
aS'NN'
p63
aS'NN'
p64
aS'IN'
p65
aS'JJ'
p66
aS'NN'
p67
asS'ner_seq'
p68
(lp69
S'O'
aS'O'
aS'O'
aS'O'
aS'O'
aS'O'
aS'O'
aS'O'
assb.