ccopy_reg
_reconstructor
p1
(c__main__
KBproperty
p2
c__builtin__
object
p3
NtRp4
(dp5
S'comment'
p6
S'active years end date manager'
p7
sS'domain'
p8
S'Person '
p9
sS'instances_count'
p10
S'0'
sS'label'
p11
g7
sS'range'
p12
S'string '
p13
sS'prop_uri'
p14
S"'http://dbpedia.org/ontology/activeYearsEndDateMgr'"
p15
sS'annotations'
p16
(dp17
S'bag_of_words'
p18
(lp19
S'Person'
p20
aS'active'
p21
aS'Years'
p22
aS'End'
p23
aS'Date'
p24
aS'Mgr'
p25
aS'string'
p26
aS'active'
p27
aS'years'
p28
aS'end'
p29
aS'date'
p30
aS'manager'
p31
asS'chunk_seq'
p32
(lp33
S'B-NP'
p34
aS'I-NP'
p35
aS'E-NP'
p36
aS'S-VP'
p37
aS'B-NP'
p38
aS'I-NP'
p39
aS'I-NP'
p40
aS'I-NP'
p41
aS'I-NP'
p42
aS'I-NP'
p43
aS'I-NP'
p44
aS'E-NP'
p45
asS'dep_seq'
p46
(lp47
(lp48
S'nn'
p49
aS'3'
aS'1'
aa(lp50
S'amod'
p51
aS'3'
aS'2'
aa(lp52
S'nsubj'
p53
aS'4'
aS'3'
aa(lp54
S'root'
p55
aS'0'
aS'4'
aa(lp56
S'nsubj'
p57
aS'10'
p58
aS'5'
aa(lp59
S'nn'
p60
aS'9'
aS'6'
aa(lp61
S'nn'
p62
aS'9'
aS'7'
aa(lp63
S'amod'
p64
aS'9'
aS'8'
aa(lp65
S'nsubj'
p66
aS'10'
p67
aS'9'
aa(lp68
S'ccomp'
p69
aS'4'
aS'10'
p70
aa(lp71
S'xcomp'
p72
aS'4'
aS'10'
p73
aa(lp74
S'nn'
p75
aS'12'
p76
aS'11'
p77
aa(lp78
S'dobj'
p79
aS'10'
p80
aS'12'
p81
aasS'srls'
p82
(lp83
(dp84
S'A1'
p85
S'Person active Years  Date Mgr string'
p86
sS'V'
g23
sasS'pos_seq'
p87
(lp88
S'NN'
p89
aS'JJ'
p90
aS'NNS'
p91
aS'VB'
p92
aS'NN'
p93
aS'NNP'
p94
aS'NN'
p95
aS'JJ'
p96
aS'NNS'
p97
aS'NN'
p98
aS'NN'
p99
aS'NN'
p100
asS'ner_seq'
p101
(lp102
S'O'
aS'O'
aS'O'
aS'O'
aS'O'
aS'O'
aS'O'
aS'O'
aS'O'
aS'O'
aS'O'
aS'O'
assb.