ccopy_reg
_reconstructor
p1
(c__main__
KBproperty
p2
c__builtin__
object
p3
NtRp4
(dp5
S'comment'
p6
S'A defined objective of the project.'
p7
sS'domain'
p8
S'Project '
p9
sS'instances_count'
p10
S'9'
sS'label'
p11
S'project objective'
p12
sS'range'
p13
S'string '
p14
sS'prop_uri'
p15
S"'http://dbpedia.org/ontology/projectObjective'"
p16
sS'annotations'
p17
(dp18
S'bag_of_words'
p19
(lp20
S'Project'
p21
aS'project'
p22
aS'objective'
p23
aS'string'
p24
aS'A'
aS'defined'
p25
aS'objective'
p26
aS'of'
p27
aS'the'
p28
aS'project'
p29
aS'.'
asS'chunk_seq'
p30
(lp31
S'B-NP'
p32
aS'I-NP'
p33
aS'I-NP'
p34
aS'E-NP'
p35
aS'B-NP'
p36
aS'I-NP'
p37
aS'E-NP'
p38
aS'S-PP'
p39
aS'B-NP'
p40
aS'E-NP'
p41
aS'O'
asS'dep_seq'
p42
(lp43
(lp44
S'nn'
p45
aS'4'
aS'1'
aa(lp46
S'nn'
p47
aS'4'
aS'2'
aa(lp48
S'amod'
p49
aS'4'
aS'3'
aa(lp50
S'root'
p51
aS'0'
aS'4'
aa(lp52
S'det'
p53
aS'7'
aS'5'
aa(lp54
S'amod'
p55
aS'7'
aS'6'
aa(lp56
S'dep'
p57
aS'4'
aS'7'
aa(lp58
S'det'
p59
aS'10'
p60
aS'9'
aa(lp61
S'prep_of'
p62
aS'4'
aS'10'
p63
aasS'srls'
p64
(lp65
(dp66
S'A1'
p67
g26
sS'V'
g25
sasS'pos_seq'
p68
(lp69
S'NN'
p70
aS'NN'
p71
aS'JJ'
p72
aS'NN'
p73
aS'DT'
p74
aS'VBN'
p75
aS'NN'
p76
aS'IN'
p77
aS'DT'
p78
aS'NN'
p79
aS'.'
asS'ner_seq'
p80
(lp81
S'O'
aS'O'
aS'O'
aS'O'
aS'O'
aS'O'
aS'O'
aS'O'
aS'O'
aS'O'
aS'O'
assb.