ccopy_reg
_reconstructor
p1
(c__main__
KBproperty
p2
c__builtin__
object
p3
NtRp4
(dp5
S'comment'
p6
S''
sS'domain'
p7
S'Populated Place '
p8
sS'instances_count'
p9
S'281'
p10
sS'label'
p11
S'population rural'
p12
sS'range'
p13
S'non Negative Integer '
p14
sS'prop_uri'
p15
S"'http://dbpedia.org/ontology/populationRural'"
p16
sS'annotations'
p17
(dp18
S'bag_of_words'
p19
(lp20
S'Populated'
p21
aS'Place'
p22
aS'population'
p23
aS'rural'
p24
aS'non'
p25
aS'Negative'
p26
aS'Integer'
p27
asS'chunk_seq'
p28
(lp29
S'B-NP'
p30
aS'I-NP'
p31
aS'I-NP'
p32
aS'I-NP'
p33
aS'I-NP'
p34
aS'I-NP'
p35
aS'E-NP'
p36
asS'dep_seq'
p37
(lp38
(lp39
S'amod'
p40
aS'3'
aS'1'
aa(lp41
S'nn'
p42
aS'3'
aS'2'
aa(lp43
S'dep'
p44
aS'7'
aS'3'
aa(lp45
S'amod'
p46
aS'7'
aS'4'
aa(lp47
S'amod'
p48
aS'7'
aS'5'
aa(lp49
S'amod'
p50
aS'7'
aS'6'
aa(lp51
S'root'
p52
aS'0'
aS'7'
aasS'srls'
p53
(lp54
sS'pos_seq'
p55
(lp56
S'JJ'
p57
aS'NN'
p58
aS'NN'
p59
aS'JJ'
p60
aS'JJ'
p61
aS'JJ'
p62
aS'NN'
p63
asS'ner_seq'
p64
(lp65
S'O'
aS'O'
aS'O'
aS'O'
aS'O'
aS'B-MISC'
p66
aS'E-MISC'
p67
assb.