ccopy_reg
_reconstructor
p1
(c__main__
KBproperty
p2
c__builtin__
object
p3
NtRp4
(dp5
S'comment'
p6
S'Official UCI code for cycling teams'
p7
sS'domain'
p8
S'Cycling Team '
p9
sS'instances_count'
p10
S'359'
p11
sS'label'
p12
S'UCI code'
p13
sS'range'
p14
S'string '
p15
sS'prop_uri'
p16
S"'http://dbpedia.org/ontology/uciCode'"
p17
sS'annotations'
p18
(dp19
S'bag_of_words'
p20
(lp21
S'Cycling'
p22
aS'Team'
p23
aS'UCI'
p24
aS'code'
p25
aS'string'
p26
aS'Official'
p27
aS'UCI'
p28
aS'code'
p29
aS'for'
p30
aS'cycling'
p31
aS'teams'
p32
asS'chunk_seq'
p33
(lp34
S'B-NP'
p35
aS'I-NP'
p36
aS'I-NP'
p37
aS'I-NP'
p38
aS'I-NP'
p39
aS'I-NP'
p40
aS'I-NP'
p41
aS'E-NP'
p42
aS'S-PP'
p43
aS'B-NP'
p44
aS'E-NP'
p45
asS'dep_seq'
p46
(lp47
(lp48
S'nn'
p49
aS'8'
aS'1'
aa(lp50
S'nn'
p51
aS'8'
aS'2'
aa(lp52
S'nn'
p53
aS'8'
aS'3'
aa(lp54
S'nn'
p55
aS'8'
aS'4'
aa(lp56
S'nn'
p57
aS'8'
aS'5'
aa(lp58
S'nn'
p59
aS'8'
aS'6'
aa(lp60
S'nn'
p61
aS'8'
aS'7'
aa(lp62
S'root'
p63
aS'0'
aS'8'
aa(lp64
S'nn'
p65
aS'11'
p66
aS'10'
p67
aa(lp68
S'prep_for'
p69
aS'8'
aS'11'
p70
aasS'srls'
p71
(lp72
sS'pos_seq'
p73
(lp74
S'NNP'
p75
aS'NNP'
p76
aS'NNP'
p77
aS'NN'
p78
aS'NN'
p79
aS'NNP'
p80
aS'NNP'
p81
aS'NN'
p82
aS'IN'
p83
aS'NN'
p84
aS'NNS'
p85
asS'ner_seq'
p86
(lp87
S'O'
aS'O'
aS'S-ORG'
p88
aS'O'
aS'O'
aS'O'
aS'S-ORG'
p89
aS'O'
aS'O'
aS'O'
aS'O'
assb.