ccopy_reg
_reconstructor
p1
(c__main__
KBproperty
p2
c__builtin__
object
p3
NtRp4
(dp5
S'comment'
p6
S''
sS'domain'
p7
S''
sS'instances_count'
p8
S'0'
sS'label'
p9
S'year of creation'
p10
sS'range'
p11
S'g Year '
p12
sS'prop_uri'
p13
S"'http://dbpedia.org/ontology/creationYear'"
p14
sS'annotations'
p15
(dp16
S'bag_of_words'
p17
(lp18
S'year'
p19
aS'of'
p20
aS'creation'
p21
aS'g'
aS'Year'
p22
asS'chunk_seq'
p23
(lp24
S'S-NP'
p25
aS'S-PP'
p26
aS'S-NP'
p27
aS'B-NP'
p28
aS'E-NP'
p29
asS'dep_seq'
p30
(lp31
(lp32
S'root'
p33
aS'0'
aS'1'
aa(lp34
S'prep_of'
p35
aS'1'
aS'3'
aa(lp36
S'num'
p37
aS'5'
aS'4'
aa(lp38
S'dep'
p39
aS'1'
aS'5'
aasS'srls'
p40
(lp41
sS'pos_seq'
p42
(lp43
S'NN'
p44
aS'IN'
p45
aS'NN'
p46
aS'CD'
p47
aS'NN'
p48
asS'ner_seq'
p49
(lp50
S'O'
aS'O'
aS'O'
aS'O'
aS'O'
assb.