ccopy_reg
_reconstructor
p1
(c__main__
KBproperty
p2
c__builtin__
object
p3
NtRp4
(dp5
S'comment'
p6
S'http://dbpedia.org/ontology/PopulatedPlace'
p7
sS'domain'
p8
S'Military Conflict '
p9
sS'instances_count'
p10
S'2698'
p11
sS'label'
p12
g7
sS'range'
p13
S'Administrative Region '
p14
sS'prop_uri'
p15
S"'http://dbpedia.org/ontology/territory'"
p16
sS'annotations'
p17
(dp18
S'bag_of_words'
p19
(lp20
S'Military'
p21
aS'Conflict'
p22
aS'territory'
p23
aS'Administrative'
p24
aS'Region'
p25
aS'http'
p26
aS':'
aS'//'
p27
aS'dbpedia'
p28
aS'.org'
p29
aS'/'
aS'ontology'
p30
aS'/'
aS'PopulatedPlace'
p31
asS'chunk_seq'
p32
(lp33
S'B-NP'
p34
aS'I-NP'
p35
aS'I-NP'
p36
aS'I-NP'
p37
aS'I-NP'
p38
aS'E-NP'
p39
aS'O'
aS'O'
aS'O'
aS'O'
aS'O'
aS'O'
aS'O'
aS'O'
asS'dep_seq'
p40
(lp41
(lp42
S'nn'
p43
aS'5'
aS'1'
aa(lp44
S'nn'
p45
aS'5'
aS'2'
aa(lp46
S'nn'
p47
aS'5'
aS'3'
aa(lp48
S'nn'
p49
aS'5'
aS'4'
aa(lp50
S'dep'
p51
aS'14'
p52
aS'5'
aa(lp53
S'dep'
p54
aS'5'
aS'6'
aa(lp55
S'dep'
p56
aS'14'
p57
aS'8'
aa(lp58
S'dep'
p59
aS'14'
p60
aS'9'
aa(lp61
S'dep'
p62
aS'14'
p63
aS'10'
p64
aa(lp65
S'dep'
p66
aS'14'
p67
aS'11'
p68
aa(lp69
S'dep'
p70
aS'14'
p71
aS'12'
p72
aa(lp73
S'dep'
p74
aS'14'
p75
aS'13'
p76
aa(lp77
S'root'
p78
aS'0'
aS'14'
p79
aasS'srls'
p80
(lp81
sS'pos_seq'
p82
(lp83
S'NNP'
p84
aS'NNP'
p85
aS'NN'
p86
aS'NNP'
p87
aS'NNP'
p88
aS'NN'
p89
aS':'
aS'FW'
p90
aS'FW'
p91
aS'FW'
p92
aS'FW'
p93
aS'FW'
p94
aS'FW'
p95
aS'NNP'
p96
asS'ner_seq'
p97
(lp98
S'B-ORG'
p99
aS'I-ORG'
p100
aS'I-ORG'
p101
aS'I-ORG'
p102
aS'E-ORG'
p103
aS'O'
aS'O'
aS'O'
aS'O'
aS'O'
aS'O'
aS'O'
aS'O'
aS'S-LOC'
p104
assb.