ccopy_reg
_reconstructor
p1
(c__main__
KBproperty
p2
c__builtin__
object
p3
NtRp4
(dp5
S'comment'
p6
S'number of seats in House of Commons-like parliaments'
p7
sS'domain'
p8
S'Political Party '
p9
sS'instances_count'
p10
S'0'
sS'label'
p11
S'number of seats in parliament'
p12
sS'range'
p13
S'non Negative Integer '
p14
sS'prop_uri'
p15
S"'http://dbpedia.org/ontology/numberOfSeatsInParliament'"
p16
sS'annotations'
p17
(dp18
S'bag_of_words'
p19
(lp20
S'Political'
p21
aS'Party'
p22
aS'number'
p23
aS'of'
p24
aS'seats'
p25
aS'in'
p26
aS'parliament'
p27
aS'non'
p28
aS'Negative'
p29
aS'Integer'
p30
aS'number'
p31
aS'of'
p32
aS'seats'
p33
aS'in'
p34
aS'House'
p35
aS'of'
p36
aS'Commons'
p37
aS'-'
aS'like'
p38
aS'parliaments'
p39
asS'chunk_seq'
p40
(lp41
S'B-NP'
p42
aS'I-NP'
p43
aS'E-NP'
p44
aS'S-PP'
p45
aS'S-NP'
p46
aS'S-PP'
p47
aS'S-NP'
p48
aS'B-NP'
p49
aS'I-NP'
p50
aS'I-NP'
p51
aS'E-NP'
p52
aS'S-PP'
p53
aS'S-NP'
p54
aS'S-PP'
p55
aS'S-NP'
p56
aS'S-PP'
p57
aS'S-NP'
p58
aS'O'
aS'S-PP'
p59
aS'S-NP'
p60
asS'dep_seq'
p61
(lp62
(lp63
S'amod'
p64
aS'3'
aS'1'
aa(lp65
S'nn'
p66
aS'3'
aS'2'
aa(lp67
S'dep'
p68
aS'11'
p69
aS'3'
aa(lp70
S'prep_of'
p71
aS'3'
aS'5'
aa(lp72
S'prep_in'
p73
aS'5'
aS'7'
aa(lp74
S'amod'
p75
aS'11'
p76
aS'8'
aa(lp77
S'amod'
p78
aS'11'
p79
aS'9'
aa(lp80
S'nn'
p81
aS'11'
p82
aS'10'
p83
aa(lp84
S'root'
p85
aS'0'
aS'11'
p86
aa(lp87
S'prep_of'
p88
aS'11'
p89
aS'13'
p90
aa(lp91
S'prep_in'
p92
aS'13'
p93
aS'15'
p94
aa(lp95
S'prep_of'
p96
aS'15'
p97
aS'17'
p98
aa(lp99
S'prep_like'
p100
aS'11'
p101
aS'20'
p102
aasS'srls'
p103
(lp104
sS'pos_seq'
p105
(lp106
S'JJ'
p107
aS'NNP'
p108
aS'NN'
p109
aS'IN'
p110
aS'NNS'
p111
aS'IN'
p112
aS'NN'
p113
aS'JJ'
p114
aS'JJ'
p115
aS'NN'
p116
aS'NN'
p117
aS'IN'
p118
aS'NNS'
p119
aS'IN'
p120
aS'NNP'
p121
aS'IN'
p122
aS'NNPS'
p123
aS':'
aS'IN'
p124
aS'NNS'
p125
asS'ner_seq'
p126
(lp127
S'O'
aS'O'
aS'O'
aS'O'
aS'O'
aS'O'
aS'O'
aS'O'
aS'O'
aS'O'
aS'O'
aS'O'
aS'O'
aS'O'
aS'B-ORG'
p128
aS'I-ORG'
p129
aS'E-ORG'
p130
aS'O'
aS'O'
aS'O'
assb.