ccopy_reg
_reconstructor
p1
(c__main__
KBproperty
p2
c__builtin__
object
p3
NtRp4
(dp5
S'comment'
p6
S'political mandate'
p7
sS'domain'
p8
S''
sS'instances_count'
p9
S'0'
sS'label'
p10
g7
sS'range'
p11
S'string '
p12
sS'prop_uri'
p13
S"'http://dbpedia.org/ontology/mandate'"
p14
sS'annotations'
p15
(dp16
S'bag_of_words'
p17
(lp18
S'mandate'
p19
aS'string'
p20
aS'political'
p21
aS'mandate'
p22
asS'chunk_seq'
p23
(lp24
S'B-NP'
p25
aS'I-NP'
p26
aS'I-NP'
p27
aS'E-NP'
p28
asS'dep_seq'
p29
(lp30
(lp31
S'nn'
p32
aS'4'
aS'1'
aa(lp33
S'nn'
p34
aS'4'
aS'2'
aa(lp35
S'amod'
p36
aS'4'
aS'3'
aa(lp37
S'root'
p38
aS'0'
aS'4'
aasS'srls'
p39
(lp40
sS'pos_seq'
p41
(lp42
S'NN'
p43
aS'NN'
p44
aS'JJ'
p45
aS'NN'
p46
asS'ner_seq'
p47
(lp48
S'O'
aS'O'
aS'O'
aS'O'
assb.