ccopy_reg
_reconstructor
p1
(c__main__
KBproperty
p2
c__builtin__
object
p3
NtRp4
(dp5
S'comment'
p6
S''
sS'domain'
p7
S'Soccer Player '
p8
sS'instances_count'
p9
S'0'
sS'label'
p10
S'appearances in national team'
p11
sS'range'
p12
S'non Negative Integer '
p13
sS'prop_uri'
p14
S"'http://dbpedia.org/ontology/appearancesInNationalTeam'"
p15
sS'annotations'
p16
(dp17
S'bag_of_words'
p18
(lp19
S'Soccer'
p20
aS'Player'
p21
aS'appearances'
p22
aS'in'
p23
aS'national'
p24
aS'team'
p25
aS'non'
p26
aS'Negative'
p27
aS'Integer'
p28
asS'chunk_seq'
p29
(lp30
S'B-NP'
p31
aS'E-NP'
p32
aS'S-VP'
p33
aS'S-PP'
p34
aS'B-NP'
p35
aS'I-NP'
p36
aS'I-NP'
p37
aS'I-NP'
p38
aS'E-NP'
p39
asS'dep_seq'
p40
(lp41
(lp42
S'nn'
p43
aS'3'
aS'1'
aa(lp44
S'nn'
p45
aS'3'
aS'2'
aa(lp46
S'dep'
p47
aS'9'
aS'3'
aa(lp48
S'amod'
p49
aS'6'
aS'5'
aa(lp50
S'prep_in'
p51
aS'3'
aS'6'
aa(lp52
S'amod'
p53
aS'9'
aS'7'
aa(lp54
S'amod'
p55
aS'9'
aS'8'
aa(lp56
S'root'
p57
aS'0'
aS'9'
aasS'srls'
p58
(lp59
sS'pos_seq'
p60
(lp61
S'NNP'
p62
aS'NNP'
p63
aS'NNS'
p64
aS'IN'
p65
aS'JJ'
p66
aS'NN'
p67
aS'JJ'
p68
aS'JJ'
p69
aS'NN'
p70
asS'ner_seq'
p71
(lp72
S'O'
aS'O'
aS'O'
aS'O'
aS'O'
aS'O'
aS'O'
aS'B-MISC'
p73
aS'E-MISC'
p74
assb.