ccopy_reg
_reconstructor
p1
(c__main__
KBproperty
p2
c__builtin__
object
p3
NtRp4
(dp5
S'comment'
p6
S''
sS'domain'
p7
S'Event '
p8
sS'instances_count'
p9
S'0'
sS'label'
p10
S'caused by'
p11
sS'range'
p12
S''
sS'prop_uri'
p13
S"'http://dbpedia.org/ontology/causedBy'"
p14
sS'annotations'
p15
(dp16
S'bag_of_words'
p17
(lp18
S'Event'
p19
aS'caused'
p20
aS'by'
p21
asS'chunk_seq'
p22
(lp23
S'S-NP'
p24
aS'S-VP'
p25
aS'S-PP'
p26
asS'dep_seq'
p27
(lp28
(lp29
S'nsubj'
p30
aS'2'
aS'1'
aa(lp31
S'root'
p32
aS'0'
aS'2'
aa(lp33
S'advmod'
p34
aS'2'
aS'3'
aasS'srls'
p35
(lp36
(dp37
S'A1'
p38
g19
sS'A2'
p39
g21
sS'V'
g20
sasS'pos_seq'
p40
(lp41
S'NN'
p42
aS'VBN'
p43
aS'IN'
p44
asS'ner_seq'
p45
(lp46
S'O'
aS'O'
aS'O'
assb.