ccopy_reg
_reconstructor
p1
(c__main__
KBproperty
p2
c__builtin__
object
p3
NtRp4
(dp5
S'comment'
p6
S'Rank of something among other things of the same kind eg Constellations by Area; MusicalAlbums by popularity etc'
p7
sS'domain'
p8
S''
sS'instances_count'
p9
S'0'
sS'label'
p10
S'rank'
p11
sS'range'
p12
S'string '
p13
sS'prop_uri'
p14
S"'http://dbpedia.org/ontology/rank'"
p15
sS'annotations'
p16
(dp17
S'bag_of_words'
p18
(lp19
S'rank'
p20
aS'string'
p21
aS'Rank'
p22
aS'of'
p23
aS'something'
p24
aS'among'
p25
aS'other'
p26
aS'things'
p27
aS'of'
p28
aS'the'
p29
aS'same'
p30
aS'kind'
p31
aS'eg'
p32
aS'Constellations'
p33
aS'by'
p34
aS'Area'
p35
aS';'
aS'MusicalAlbums'
p36
aS'by'
p37
aS'popularity'
p38
aS'etc'
p39
asS'chunk_seq'
p40
(lp41
S'B-NP'
p42
aS'I-NP'
p43
aS'E-NP'
p44
aS'S-PP'
p45
aS'S-NP'
p46
aS'S-PP'
p47
aS'B-NP'
p48
aS'E-NP'
p49
aS'S-PP'
p50
aS'B-NP'
p51
aS'I-NP'
p52
aS'I-NP'
p53
aS'I-NP'
p54
aS'E-NP'
p55
aS'S-PP'
p56
aS'S-NP'
p57
aS'O'
aS'S-NP'
p58
aS'S-PP'
p59
aS'S-NP'
p60
aS'O'
asS'dep_seq'
p61
(lp62
(lp63
S'nn'
p64
aS'3'
aS'1'
aa(lp65
S'nn'
p66
aS'3'
aS'2'
aa(lp67
S'root'
p68
aS'0'
aS'3'
aa(lp69
S'prep_of'
p70
aS'3'
aS'5'
aa(lp71
S'amod'
p72
aS'8'
aS'7'
aa(lp73
S'prep_among'
p74
aS'3'
aS'8'
aa(lp75
S'det'
p76
aS'12'
p77
aS'10'
p78
aa(lp79
S'amod'
p80
aS'12'
p81
aS'11'
p82
aa(lp83
S'nn'
p84
aS'13'
p85
aS'12'
p86
aa(lp87
S'prep_of'
p88
aS'8'
aS'13'
p89
aa(lp90
S'dep'
p91
aS'13'
p92
aS'14'
p93
aa(lp94
S'prep_by'
p95
aS'13'
p96
aS'16'
p97
aa(lp98
S'dep'
p99
aS'3'
aS'18'
p100
aa(lp101
S'prep_by'
p102
aS'18'
p103
aS'20'
p104
aa(lp105
S'punct'
p106
aS'3'
aS'21'
p107
aasS'srls'
p108
(lp109
sS'pos_seq'
p110
(lp111
S'NN'
p112
aS'NN'
p113
aS'NN'
p114
aS'IN'
p115
aS'NN'
p116
aS'IN'
p117
aS'JJ'
p118
aS'NNS'
p119
aS'IN'
p120
aS'DT'
p121
aS'JJ'
p122
aS'NN'
p123
aS'NN'
p124
aS'NNS'
p125
aS'IN'
p126
aS'NNP'
p127
aS':'
aS'NNS'
p128
aS'IN'
p129
aS'NN'
p130
aS'.'
asS'ner_seq'
p131
(lp132
S'O'
aS'O'
aS'O'
aS'O'
aS'O'
aS'O'
aS'O'
aS'O'
aS'O'
aS'O'
aS'O'
aS'O'
aS'O'
aS'O'
aS'O'
aS'O'
aS'O'
aS'S-ORG'
p133
aS'O'
aS'O'
aS'O'
assb.