ccopy_reg
_reconstructor
p1
(c__main__
KBproperty
p2
c__builtin__
object
p3
NtRp4
(dp5
S'comment'
p6
S''
sS'domain'
p7
S'Single '
p8
sS'instances_count'
p9
S'23788'
p10
sS'label'
p11
S'b side'
p12
sS'range'
p13
S'string '
p14
sS'prop_uri'
p15
S"'http://dbpedia.org/ontology/bSide'"
p16
sS'annotations'
p17
(dp18
S'bag_of_words'
p19
(lp20
S'Single'
p21
aS'b'
aS'side'
p22
aS'string'
p23
asS'chunk_seq'
p24
(lp25
S'B-NP'
p26
aS'I-NP'
p27
aS'I-NP'
p28
aS'E-NP'
p29
asS'dep_seq'
p30
(lp31
(lp32
S'amod'
p33
aS'4'
aS'1'
aa(lp34
S'nn'
p35
aS'4'
aS'2'
aa(lp36
S'nn'
p37
aS'4'
aS'3'
aa(lp38
S'root'
p39
aS'0'
aS'4'
aasS'srls'
p40
(lp41
sS'pos_seq'
p42
(lp43
S'JJ'
p44
aS'NN'
p45
aS'NN'
p46
aS'NN'
p47
asS'ner_seq'
p48
(lp49
S'O'
aS'O'
aS'O'
aS'O'
assb.