ccopy_reg
_reconstructor
p1
(c__main__
KBproperty
p2
c__builtin__
object
p3
NtRp4
(dp5
S'comment'
p6
S'Date of reopening the architectural structure.'
p7
sS'domain'
p8
S'Architectural Structure '
p9
sS'instances_count'
p10
S'22'
p11
sS'label'
p12
S'reopening date'
p13
sS'range'
p14
S'date '
p15
sS'prop_uri'
p16
S"'http://dbpedia.org/ontology/reopeningDate'"
p17
sS'annotations'
p18
(dp19
S'bag_of_words'
p20
(lp21
S'Architectural'
p22
aS'Structure'
p23
aS'reopening'
p24
aS'date'
p25
aS'date'
p26
aS'Date'
p27
aS'of'
p28
aS'reopening'
p29
aS'the'
p30
aS'architectural'
p31
aS'structure'
p32
aS'.'
asS'chunk_seq'
p33
(lp34
S'B-NP'
p35
aS'E-NP'
p36
aS'S-VP'
p37
aS'B-NP'
p38
aS'I-NP'
p39
aS'E-NP'
p40
aS'S-PP'
p41
aS'S-VP'
p42
aS'B-NP'
p43
aS'I-NP'
p44
aS'E-NP'
p45
aS'O'
asS'dep_seq'
p46
(lp47
(lp48
S'amod'
p49
aS'2'
aS'1'
aa(lp50
S'root'
p51
aS'0'
aS'2'
aa(lp52
S'partmod'
p53
aS'2'
aS'3'
aa(lp54
S'nn'
p55
aS'6'
aS'4'
aa(lp56
S'nn'
p57
aS'6'
aS'5'
aa(lp58
S'dobj'
p59
aS'3'
aS'6'
aa(lp60
S'prepc_of'
p61
aS'2'
aS'8'
aa(lp62
S'det'
p63
aS'11'
p64
aS'9'
aa(lp65
S'amod'
p66
aS'11'
p67
aS'10'
p68
aa(lp69
S'dobj'
p70
aS'8'
aS'11'
p71
aasS'srls'
p72
(lp73
(dp74
S'A0'
p75
S'Architectural Structure'
p76
sS'AM-TMP'
p77
S'date date Date'
p78
sS'V'
g24
sa(dp79
S'A1'
p80
S'the architectural structure'
p81
sS'A0'
p82
S'Architectural Structure'
p83
sS'V'
g29
sasS'pos_seq'
p84
(lp85
S'JJ'
p86
aS'NN'
p87
aS'VBG'
p88
aS'NN'
p89
aS'NN'
p90
aS'NN'
p91
aS'IN'
p92
aS'VBG'
p93
aS'DT'
p94
aS'JJ'
p95
aS'NN'
p96
aS'.'
asS'ner_seq'
p97
(lp98
S'O'
aS'O'
aS'O'
aS'O'
aS'O'
aS'O'
aS'O'
aS'O'
aS'O'
aS'O'
aS'O'
aS'O'
assb.