ccopy_reg
_reconstructor
p1
(c__main__
KBproperty
p2
c__builtin__
object
p3
NtRp4
(dp5
S'comment'
p6
S''
sS'domain'
p7
S'Work '
p8
sS'instances_count'
p9
S'155094'
p10
sS'label'
p11
S'subsequent work'
p12
sS'range'
p13
S'Work '
p14
sS'prop_uri'
p15
S"'http://dbpedia.org/ontology/subsequentWork'"
p16
sS'annotations'
p17
(dp18
S'bag_of_words'
p19
(lp20
S'Work'
p21
aS'subsequent'
p22
aS'work'
p23
aS'Work'
p24
asS'chunk_seq'
p25
(lp26
S'S-VP'
p27
aS'B-NP'
p28
aS'E-NP'
p29
aS'S-NP'
p30
asS'dep_seq'
p31
(lp32
(lp33
S'root'
p34
aS'0'
aS'1'
aa(lp35
S'amod'
p36
aS'3'
aS'2'
aa(lp37
S'dobj'
p38
aS'1'
aS'3'
aa(lp39
S'iobj'
p40
aS'1'
aS'3'
aa(lp41
S'dobj'
p42
aS'1'
aS'4'
aa(lp43
S'dep'
p44
aS'3'
aS'4'
aasS'srls'
p45
(lp46
(dp47
S'A1'
p48
S'subsequent work Work'
p49
sS'V'
g21
sasS'pos_seq'
p50
(lp51
S'VB'
p52
aS'JJ'
p53
aS'NN'
p54
aS'NN'
p55
asS'ner_seq'
p56
(lp57
S'O'
aS'O'
aS'O'
aS'O'
assb.