ccopy_reg
_reconstructor
p1
(c__main__
KBproperty
p2
c__builtin__
object
p3
NtRp4
(dp5
S'comment'
p6
S''
sS'domain'
p7
S'Person '
p8
sS'instances_count'
p9
S'0'
sS'label'
p10
S'created'
p11
sS'range'
p12
S'Work '
p13
sS'prop_uri'
p14
S"'http://dbpedia.org/ontology/created'"
p15
sS'annotations'
p16
(dp17
S'bag_of_words'
p18
(lp19
S'Person'
p20
aS'created'
p21
aS'Work'
p22
asS'chunk_seq'
p23
(lp24
S'S-NP'
p25
aS'S-VP'
p26
aS'S-NP'
p27
asS'dep_seq'
p28
(lp29
(lp30
S'root'
p31
aS'0'
aS'1'
aa(lp32
S'partmod'
p33
aS'1'
aS'2'
aa(lp34
S'dobj'
p35
aS'2'
aS'3'
aasS'srls'
p36
(lp37
(dp38
S'A1'
p39
g22
sS'A0'
p40
g20
sS'V'
g21
sasS'pos_seq'
p41
(lp42
S'NN'
p43
aS'VBN'
p44
aS'NN'
p45
asS'ner_seq'
p46
(lp47
S'O'
aS'O'
aS'O'
assb.