ccopy_reg
_reconstructor
p1
(c__main__
KBproperty
p2
c__builtin__
object
p3
NtRp4
(dp5
S'comment'
p6
S'maximum preparation time s'
p7
sS'domain'
p8
S'Food '
p9
sS'instances_count'
p10
S'1'
sS'label'
p11
g7
sS'range'
p12
S'double '
p13
sS'prop_uri'
p14
S"'http://dbpedia.org/ontology/maxTime'"
p15
sS'annotations'
p16
(dp17
S'bag_of_words'
p18
(lp19
S'Food'
p20
aS'max'
p21
aS'Time'
p22
aS'double'
p23
aS'maximum'
p24
aS'preparation'
p25
aS'time'
p26
aS's'
asS'chunk_seq'
p27
(lp28
S'B-NP'
p29
aS'I-NP'
p30
aS'E-NP'
p31
aS'B-NP'
p32
aS'I-NP'
p33
aS'E-NP'
p34
aS'S-NP'
p35
aS'O'
asS'dep_seq'
p36
(lp37
(lp38
S'nn'
p39
aS'3'
aS'1'
aa(lp40
S'nn'
p41
aS'3'
aS'2'
aa(lp42
S'dep'
p43
aS'7'
aS'3'
aa(lp44
S'amod'
p45
aS'7'
aS'4'
aa(lp46
S'nn'
p47
aS'7'
aS'5'
aa(lp48
S'nn'
p49
aS'7'
aS'6'
aa(lp50
S'root'
p51
aS'0'
aS'7'
aa(lp52
S'punct'
p53
aS'7'
aS'8'
aasS'srls'
p54
(lp55
sS'pos_seq'
p56
(lp57
S'NN'
p58
aS'NN'
p59
aS'NNP'
p60
aS'JJ'
p61
aS'NN'
p62
aS'NN'
p63
aS'NN'
p64
aS'.'
asS'ner_seq'
p65
(lp66
S'O'
aS'O'
aS'O'
aS'O'
aS'O'
aS'O'
aS'O'
aS'O'
assb.