ccopy_reg
_reconstructor
p1
(c__main__
KBproperty
p2
c__builtin__
object
p3
NtRp4
(dp5
S'comment'
p6
S'Authority data from the National Library of Sweden'
p7
sS'domain'
p8
S''
sS'instances_count'
p9
S'4'
sS'label'
p10
S'SELIBR Id'
p11
sS'range'
p12
S'string '
p13
sS'prop_uri'
p14
S"'http://dbpedia.org/ontology/selibrId'"
p15
sS'annotations'
p16
(dp17
S'bag_of_words'
p18
(lp19
S'SELIBR'
p20
aS'Id'
p21
aS'string'
p22
aS'Authority'
p23
aS'data'
p24
aS'from'
p25
aS'the'
p26
aS'National'
p27
aS'Library'
p28
aS'of'
p29
aS'Sweden'
p30
asS'chunk_seq'
p31
(lp32
S'B-NP'
p33
aS'I-NP'
p34
aS'I-NP'
p35
aS'I-NP'
p36
aS'E-NP'
p37
aS'S-PP'
p38
aS'B-NP'
p39
aS'I-NP'
p40
aS'E-NP'
p41
aS'S-PP'
p42
aS'S-NP'
p43
asS'dep_seq'
p44
(lp45
(lp46
S'nn'
p47
aS'5'
aS'1'
aa(lp48
S'nn'
p49
aS'5'
aS'2'
aa(lp50
S'nn'
p51
aS'5'
aS'3'
aa(lp52
S'nn'
p53
aS'5'
aS'4'
aa(lp54
S'root'
p55
aS'0'
aS'5'
aa(lp56
S'det'
p57
aS'9'
aS'7'
aa(lp58
S'nn'
p59
aS'9'
aS'8'
aa(lp60
S'prep_from'
p61
aS'5'
aS'9'
aa(lp62
S'prep_of'
p63
aS'9'
aS'11'
p64
aasS'srls'
p65
(lp66
sS'pos_seq'
p67
(lp68
S'NNP'
p69
aS'NNP'
p70
aS'NN'
p71
aS'NN'
p72
aS'NNS'
p73
aS'IN'
p74
aS'DT'
p75
aS'NNP'
p76
aS'NNP'
p77
aS'IN'
p78
aS'NNP'
p79
asS'ner_seq'
p80
(lp81
S'B-ORG'
p82
aS'I-ORG'
p83
aS'I-ORG'
p84
aS'E-ORG'
p85
aS'O'
aS'O'
aS'O'
aS'B-ORG'
p86
aS'E-ORG'
p87
aS'O'
aS'S-LOC'
p88
assb.