ccopy_reg
_reconstructor
p1
(c__main__
KBproperty
p2
c__builtin__
object
p3
NtRp4
(dp5
S'comment'
p6
S'language regulator or academy'
p7
sS'domain'
p8
S''
sS'instances_count'
p9
S'221'
p10
sS'label'
p11
g7
sS'range'
p12
S'Language '
p13
sS'prop_uri'
p14
S"'http://dbpedia.org/ontology/languageRegulator'"
p15
sS'annotations'
p16
(dp17
S'bag_of_words'
p18
(lp19
S'language'
p20
aS'Regulator'
p21
aS'Language'
p22
aS'language'
p23
aS'regulator'
p24
aS'or'
p25
aS'academy'
p26
asS'chunk_seq'
p27
(lp28
S'B-NP'
p29
aS'I-NP'
p30
aS'I-NP'
p31
aS'I-NP'
p32
aS'I-NP'
p33
aS'I-NP'
p34
aS'E-NP'
p35
asS'dep_seq'
p36
(lp37
(lp38
S'nn'
p39
aS'5'
aS'1'
aa(lp40
S'nn'
p41
aS'5'
aS'2'
aa(lp42
S'nn'
p43
aS'5'
aS'3'
aa(lp44
S'nn'
p45
aS'5'
aS'4'
aa(lp46
S'root'
p47
aS'0'
aS'5'
aa(lp48
S'conj_or'
p49
aS'5'
aS'7'
aasS'srls'
p50
(lp51
sS'pos_seq'
p52
(lp53
S'NN'
p54
aS'NNP'
p55
aS'NNP'
p56
aS'NN'
p57
aS'NN'
p58
aS'CC'
p59
aS'NN'
p60
asS'ner_seq'
p61
(lp62
S'O'
aS'B-MISC'
p63
aS'E-MISC'
p64
aS'O'
aS'O'
aS'O'
aS'O'
assb.