ccopy_reg
_reconstructor
p1
(c__main__
KBproperty
p2
c__builtin__
object
p3
NtRp4
(dp5
S'comment'
p6
S"employer's celebration"
p7
sS'domain'
p8
S'Settlement '
p9
sS'instances_count'
p10
S'0'
sS'label'
p11
S'"employer\'s celebration"'
p12
sS'range'
p13
S'string '
p14
sS'prop_uri'
p15
S"'http://dbpedia.org/ontology/employersCelebration'"
p16
sS'annotations'
p17
(dp18
S'bag_of_words'
p19
(lp20
S'Settlement'
p21
aS'employers'
p22
aS'Celebration'
p23
aS'string'
p24
aS'employer'
p25
aS"'s"
p26
aS'celebration'
p27
asS'chunk_seq'
p28
(lp29
S'B-NP'
p30
aS'I-NP'
p31
aS'I-NP'
p32
aS'I-NP'
p33
aS'E-NP'
p34
aS'B-NP'
p35
aS'E-NP'
p36
asS'dep_seq'
p37
(lp38
(lp39
S'nn'
p40
aS'5'
aS'1'
aa(lp41
S'nn'
p42
aS'5'
aS'2'
aa(lp43
S'nn'
p44
aS'5'
aS'3'
aa(lp45
S'nn'
p46
aS'5'
aS'4'
aa(lp47
S'poss'
p48
aS'7'
aS'5'
aa(lp49
S'root'
p50
aS'0'
aS'7'
aasS'srls'
p51
(lp52
sS'pos_seq'
p53
(lp54
S'NN'
p55
aS'NNS'
p56
aS'NN'
p57
aS'NN'
p58
aS'NN'
p59
aS'POS'
p60
aS'NN'
p61
asS'ner_seq'
p62
(lp63
S'O'
aS'O'
aS'O'
aS'O'
aS'O'
aS'O'
aS'O'
assb.