ccopy_reg
_reconstructor
p1
(c__main__
KBproperty
p2
c__builtin__
object
p3
NtRp4
(dp5
S'comment'
p6
S'A junction or cross to another route.'
p7
sS'domain'
p8
S'Route Of Transportation '
p9
sS'instances_count'
p10
S'28940'
p11
sS'label'
p12
S'route junction'
p13
sS'range'
p14
S'Route Of Transportation '
p15
sS'prop_uri'
p16
S"'http://dbpedia.org/ontology/routeJunction'"
p17
sS'annotations'
p18
(dp19
S'bag_of_words'
p20
(lp21
S'Route'
p22
aS'Of'
p23
aS'Transportation'
p24
aS'route'
p25
aS'junction'
p26
aS'Route'
p27
aS'Of'
p28
aS'Transportation'
p29
aS'A'
aS'junction'
p30
aS'or'
p31
aS'cross'
p32
aS'to'
p33
aS'another'
p34
aS'route'
p35
aS'.'
asS'chunk_seq'
p36
(lp37
S'S-NP'
p38
aS'S-PP'
p39
aS'B-NP'
p40
aS'I-NP'
p41
aS'I-NP'
p42
aS'E-NP'
p43
aS'S-PP'
p44
aS'S-NP'
p45
aS'B-NP'
p46
aS'E-NP'
p47
aS'O'
aS'S-VP'
p48
aS'S-PP'
p49
aS'B-NP'
p50
aS'E-NP'
p51
aS'O'
asS'dep_seq'
p52
(lp53
(lp54
S'root'
p55
aS'0'
aS'1'
aa(lp56
S'prep_of'
p57
aS'1'
aS'3'
aa(lp58
S'nn'
p59
aS'5'
aS'4'
aa(lp60
S'dep'
p61
aS'1'
aS'5'
aa(lp62
S'dep'
p63
aS'1'
aS'6'
aa(lp64
S'prep_of'
p65
aS'6'
aS'8'
aa(lp66
S'det'
p67
aS'10'
p68
aS'9'
aa(lp69
S'dep'
p70
aS'8'
aS'10'
p71
aa(lp72
S'conj_or'
p73
aS'6'
aS'12'
p74
aa(lp75
S'det'
p76
aS'15'
p77
aS'14'
p78
aa(lp79
S'prep_to'
p80
aS'12'
p81
aS'15'
p82
aasS'srls'
p83
(lp84
(dp85
S'A0'
p86
S'Route Of Transportation route junction Route Of Transportation'
p87
sS'A2'
p88
S'to another route'
p89
sS'V'
g32
sasS'pos_seq'
p90
(lp91
S'NNP'
p92
aS'IN'
p93
aS'NNP'
p94
aS'NN'
p95
aS'NN'
p96
aS'NN'
p97
aS'IN'
p98
aS'NN'
p99
aS'DT'
p100
aS'NN'
p101
aS'CC'
p102
aS'VB'
p103
aS'TO'
p104
aS'DT'
p105
aS'NN'
p106
aS'.'
asS'ner_seq'
p107
(lp108
S'B-ORG'
p109
aS'I-ORG'
p110
aS'E-ORG'
p111
aS'O'
aS'O'
aS'B-ORG'
p112
aS'I-ORG'
p113
aS'E-ORG'
p114
aS'O'
aS'O'
aS'O'
aS'O'
aS'O'
aS'O'
aS'O'
aS'O'
assb.