ccopy_reg
_reconstructor
p1
(c__main__
KBproperty
p2
c__builtin__
object
p3
NtRp4
(dp5
S'comment'
p6
S'minimum discharge m\\xc2\\xb3/s'
p7
sS'domain'
p8
S''
sS'instances_count'
p9
S'922'
p10
sS'label'
p11
g7
sS'range'
p12
S'double '
p13
sS'prop_uri'
p14
S"'http://dbpedia.org/ontology/minimumDischarge'"
p15
sS'annotations'
p16
(dp17
S'bag_of_words'
p18
(lp19
S'minimum'
p20
aS'Discharge'
p21
aS'double'
p22
aS'minimum'
p23
aS'discharge'
p24
aS'm'
aS'\\'
aS'xc2'
p25
aS'\\'
aS'xb3'
p26
aS'/s'
p27
asS'chunk_seq'
p28
(lp29
S'B-NP'
p30
aS'I-NP'
p31
aS'I-NP'
p32
aS'I-NP'
p33
aS'E-NP'
p34
aS'S-NP'
p35
aS'O'
aS'O'
aS'O'
aS'O'
aS'O'
asS'dep_seq'
p36
(lp37
(lp38
S'amod'
p39
aS'5'
aS'1'
aa(lp40
S'nn'
p41
aS'5'
aS'2'
aa(lp42
S'amod'
p43
aS'5'
aS'3'
aa(lp44
S'nn'
p45
aS'5'
aS'4'
aa(lp46
S'root'
p47
aS'0'
aS'5'
aa(lp48
S'nn'
p49
aS'5'
aS'6'
aa(lp50
S'nn'
p51
aS'5'
aS'7'
aa(lp52
S'nn'
p53
aS'5'
aS'8'
aa(lp54
S'nn'
p55
aS'5'
aS'9'
aa(lp56
S'dep'
p57
aS'5'
aS'10'
p58
aa(lp59
S'punct'
p60
aS'5'
aS'11'
p61
aasS'srls'
p62
(lp63
sS'pos_seq'
p64
(lp65
S'JJ'
p66
aS'NN'
p67
aS'JJ'
p68
aS'NN'
p69
aS'NN'
p70
aS'FW'
p71
aS'FW'
p72
aS'FW'
p73
aS'FW'
p74
aS'FW'
p75
aS'.'
asS'ner_seq'
p76
(lp77
S'O'
aS'O'
aS'O'
aS'O'
aS'O'
aS'O'
aS'O'
aS'O'
aS'O'
aS'O'
aS'O'
assb.