ccopy_reg
_reconstructor
p1
(c__main__
KBproperty
p2
c__builtin__
object
p3
NtRp4
(dp5
S'comment'
p6
S'size of a file or software'
p7
sS'domain'
p8
S''
sS'instances_count'
p9
S'816'
p10
sS'label'
p11
S'size B'
p12
sS'range'
p13
S'double '
p14
sS'prop_uri'
p15
S"'http://dbpedia.org/ontology/fileSize'"
p16
sS'annotations'
p17
(dp18
S'bag_of_words'
p19
(lp20
S'size'
p21
aS'B'
aS'double'
p22
aS'size'
p23
aS'of'
p24
aS'a'
aS'file'
p25
aS'or'
p26
aS'software'
p27
asS'chunk_seq'
p28
(lp29
S'B-NP'
p30
aS'I-NP'
p31
aS'I-NP'
p32
aS'E-NP'
p33
aS'S-PP'
p34
aS'B-NP'
p35
aS'I-NP'
p36
aS'I-NP'
p37
aS'E-NP'
p38
asS'dep_seq'
p39
(lp40
(lp41
S'nn'
p42
aS'4'
aS'1'
aa(lp43
S'nn'
p44
aS'4'
aS'2'
aa(lp45
S'amod'
p46
aS'4'
aS'3'
aa(lp47
S'root'
p48
aS'0'
aS'4'
aa(lp49
S'det'
p50
aS'7'
aS'6'
aa(lp51
S'prep_of'
p52
aS'4'
aS'7'
aa(lp53
S'conj_or'
p54
aS'7'
aS'9'
aasS'srls'
p55
(lp56
sS'pos_seq'
p57
(lp58
S'NN'
p59
aS'NNP'
p60
aS'JJ'
p61
aS'NN'
p62
aS'IN'
p63
aS'DT'
p64
aS'NN'
p65
aS'CC'
p66
aS'NN'
p67
asS'ner_seq'
p68
(lp69
S'O'
aS'O'
aS'O'
aS'O'
aS'O'
aS'O'
aS'O'
aS'O'
aS'O'
assb.