ccopy_reg
_reconstructor
p1
(c__main__
KBproperty
p2
c__builtin__
object
p3
NtRp4
(dp5
S'comment'
p6
S'e-teatr.pl id'
p7
sS'domain'
p8
S'Film '
p9
sS'instances_count'
p10
S'0'
sS'label'
p11
g7
sS'range'
p12
S'string '
p13
sS'prop_uri'
p14
S"'http://dbpedia.org/ontology/eTeatrId'"
p15
sS'annotations'
p16
(dp17
S'bag_of_words'
p18
(lp19
S'Film'
p20
aS'e'
aS'Teatr'
p21
aS'Id'
p22
aS'string'
p23
aS'e'
aS'-'
aS'teatr'
p24
aS'.'
aS'pl'
p25
aS'id'
p26
asS'chunk_seq'
p27
(lp28
S'B-NP'
p29
aS'I-NP'
p30
aS'I-NP'
p31
aS'I-NP'
p32
aS'I-NP'
p33
aS'E-NP'
p34
aS'O'
aS'S-NP'
p35
aS'O'
aS'O'
aS'O'
asS'dep_seq'
p36
(lp37
(lp38
S'nn'
p39
aS'6'
aS'1'
aa(lp40
S'nn'
p41
aS'6'
aS'2'
aa(lp42
S'nn'
p43
aS'6'
aS'3'
aa(lp44
S'nn'
p45
aS'6'
aS'4'
aa(lp46
S'nn'
p47
aS'6'
aS'5'
aa(lp48
S'root'
p49
aS'0'
aS'6'
aa(lp50
S'dep'
p51
aS'6'
aS'8'
aa(lp52
S'punct'
p53
aS'11'
p54
aS'10'
p55
aa(lp56
S'dep'
p57
aS'6'
aS'11'
p58
aasS'srls'
p59
(lp60
sS'pos_seq'
p61
(lp62
S'NNP'
p63
aS'NN'
p64
aS'NNP'
p65
aS'NNP'
p66
aS'NN'
p67
aS'NN'
p68
aS':'
aS'NN'
p69
aS'.'
aS'-RRB-'
p70
aS'NN'
p71
asS'ner_seq'
p72
(lp73
S'O'
aS'O'
aS'S-ORG'
p74
aS'O'
aS'O'
aS'O'
aS'O'
aS'O'
aS'O'
aS'O'
aS'O'
assb.