ccopy_reg
_reconstructor
p1
(c__main__
KBproperty
p2
c__builtin__
object
p3
NtRp4
(dp5
S'comment'
p6
S'discharge m\\xc2\\xb3/s'
p7
sS'domain'
p8
S'Stream '
p9
sS'instances_count'
p10
S'2141'
p11
sS'label'
p12
g7
sS'range'
p13
S'double '
p14
sS'prop_uri'
p15
S"'http://dbpedia.org/ontology/discharge'"
p16
sS'annotations'
p17
(dp18
S'bag_of_words'
p19
(lp20
S'Stream'
p21
aS'discharge'
p22
aS'double'
p23
aS'discharge'
p24
aS'm'
aS'\\'
aS'xc2'
p25
aS'\\'
aS'xb3'
p26
aS'/s'
p27
asS'chunk_seq'
p28
(lp29
S'B-NP'
p30
aS'E-NP'
p31
aS'B-NP'
p32
aS'E-NP'
p33
aS'S-NP'
p34
aS'O'
aS'O'
aS'O'
aS'O'
aS'O'
asS'dep_seq'
p35
(lp36
(lp37
S'nn'
p38
aS'2'
aS'1'
aa(lp39
S'root'
p40
aS'0'
aS'2'
aa(lp41
S'amod'
p42
aS'4'
aS'3'
aa(lp43
S'dep'
p44
aS'2'
aS'4'
aa(lp45
S'nn'
p46
aS'9'
aS'5'
aa(lp47
S'nn'
p48
aS'9'
aS'6'
aa(lp49
S'nn'
p50
aS'9'
aS'7'
aa(lp51
S'nn'
p52
aS'9'
aS'8'
aa(lp53
S'dep'
p54
aS'4'
aS'9'
aa(lp55
S'punct'
p56
aS'9'
aS'10'
p57
aasS'srls'
p58
(lp59
(dp60
S'A1'
p61
S'double discharge m \\ xc2 \\ xb3 /s'
p62
sS'A0'
p63
g21
sS'V'
g22
sasS'pos_seq'
p64
(lp65
S'NN'
p66
aS'NN'
p67
aS'JJ'
p68
aS'NN'
p69
aS'FW'
p70
aS'FW'
p71
aS'FW'
p72
aS'FW'
p73
aS'FW'
p74
aS'.'
asS'ner_seq'
p75
(lp76
S'O'
aS'O'
aS'O'
aS'O'
aS'O'
aS'O'
aS'O'
aS'O'
aS'O'
aS'O'
assb.