ccopy_reg
_reconstructor
p1
(c__main__
KBproperty
p2
c__builtin__
object
p3
NtRp4
(dp5
S'comment'
p6
S''
sS'domain'
p7
S''
sS'instances_count'
p8
S'305'
p9
sS'label'
p10
S'area sq mi'
p11
sS'range'
p12
S''
sS'prop_uri'
p13
S"'http://dbpedia.org/property/areaSqMi'"
p14
sS'annotations'
p15
(dp16
S'bag_of_words'
p17
(lp18
S'area'
p19
aS'sq'
p20
aS'mi'
p21
asS'chunk_seq'
p22
(lp23
S'O'
aS'O'
aS'O'
asS'dep_seq'
p24
(lp25
(lp26
S'root'
p27
aS'0'
aS'1'
aa(lp28
S'num'
p29
aS'1'
aS'2'
aa(lp30
S'punct'
p31
aS'1'
aS'3'
aasS'srls'
p32
(lp33
sS'pos_seq'
p34
(lp35
S'NN'
p36
aS'CD'
p37
aS'.'
asS'ner_seq'
p38
(lp39
S'O'
aS'O'
aS'O'
assb.