ccopy_reg
_reconstructor
p1
(c__main__
KBproperty
p2
c__builtin__
object
p3
NtRp4
(dp5
S'comment'
p6
S''
sS'domain'
p7
S'Space Mission '
p8
sS'instances_count'
p9
S'0'
sS'label'
p10
S'spacewalk begin'
p11
sS'range'
p12
S'date '
p13
sS'prop_uri'
p14
S"'http://dbpedia.org/ontology/spacewalkBegin'"
p15
sS'annotations'
p16
(dp17
S'bag_of_words'
p18
(lp19
S'Space'
p20
aS'Mission'
p21
aS'spacewalk'
p22
aS'begin'
p23
aS'date'
p24
asS'chunk_seq'
p25
(lp26
S'B-NP'
p27
aS'I-NP'
p28
aS'E-NP'
p29
aS'S-VP'
p30
aS'S-NP'
p31
asS'dep_seq'
p32
(lp33
(lp34
S'nn'
p35
aS'2'
aS'1'
aa(lp36
S'nsubj'
p37
aS'4'
aS'2'
aa(lp38
S'dep'
p39
aS'4'
aS'3'
aa(lp40
S'root'
p41
aS'0'
aS'4'
aa(lp42
S'dobj'
p43
aS'4'
aS'5'
aasS'srls'
p44
(lp45
(dp46
S'A1'
p47
S'Space Mission date'
p48
sS'V'
g23
sasS'pos_seq'
p49
(lp50
S'NNP'
p51
aS'NNP'
p52
aS'NN'
p53
aS'VB'
p54
aS'NN'
p55
asS'ner_seq'
p56
(lp57
S'B-ORG'
p58
aS'E-ORG'
p59
aS'O'
aS'O'
aS'O'
assb.