ccopy_reg
_reconstructor
p1
(c__main__
KBproperty
p2
c__builtin__
object
p3
NtRp4
(dp5
S'comment'
p6
S'Number of votes given to candidate'
p7
sS'domain'
p8
S'Election '
p9
sS'instances_count'
p10
S'0'
sS'label'
p11
g7
sS'range'
p12
S'non Negative Integer '
p13
sS'prop_uri'
p14
S"'http://dbpedia.org/ontology/popularVote'"
p15
sS'annotations'
p16
(dp17
S'bag_of_words'
p18
(lp19
S'Election'
p20
aS'popular'
p21
aS'Vote'
p22
aS'non'
p23
aS'Negative'
p24
aS'Integer'
p25
aS'Number'
p26
aS'of'
p27
aS'votes'
p28
aS'given'
p29
aS'to'
p30
aS'candidate'
p31
asS'chunk_seq'
p32
(lp33
S'B-NP'
p34
aS'I-NP'
p35
aS'I-NP'
p36
aS'I-NP'
p37
aS'I-NP'
p38
aS'I-NP'
p39
aS'E-NP'
p40
aS'S-PP'
p41
aS'S-NP'
p42
aS'S-PP'
p43
aS'S-PP'
p44
aS'S-NP'
p45
asS'dep_seq'
p46
(lp47
(lp48
S'nn'
p49
aS'7'
aS'1'
aa(lp50
S'amod'
p51
aS'7'
aS'2'
aa(lp52
S'nn'
p53
aS'7'
aS'3'
aa(lp54
S'amod'
p55
aS'7'
aS'4'
aa(lp56
S'nn'
p57
aS'7'
aS'5'
aa(lp58
S'nn'
p59
aS'7'
aS'6'
aa(lp60
S'root'
p61
aS'0'
aS'7'
aa(lp62
S'prep_of'
p63
aS'7'
aS'9'
aa(lp64
S'prep'
p65
aS'7'
aS'10'
p66
aa(lp67
S'pcomp'
p68
aS'10'
p69
aS'11'
p70
aa(lp71
S'pobj'
p72
aS'11'
p73
aS'12'
p74
aasS'srls'
p75
(lp76
(dp77
S'A1'
p78
g28
sS'A2'
p79
S'to candidate'
p80
sS'V'
g29
sasS'pos_seq'
p81
(lp82
S'NN'
p83
aS'JJ'
p84
aS'NNP'
p85
aS'JJ'
p86
aS'NNP'
p87
aS'NNP'
p88
aS'NNP'
p89
aS'IN'
p90
aS'NNS'
p91
aS'VBN'
p92
aS'TO'
p93
aS'NN'
p94
asS'ner_seq'
p95
(lp96
S'O'
aS'O'
aS'O'
aS'O'
aS'O'
aS'O'
aS'O'
aS'O'
aS'O'
aS'O'
aS'O'
aS'O'
assb.