ccopy_reg
_reconstructor
p1
(c__main__
KBproperty
p2
c__builtin__
object
p3
NtRp4
(dp5
S'comment'
p6
S'A key word of the project.'
p7
sS'domain'
p8
S'Project '
p9
sS'instances_count'
p10
S'11'
p11
sS'label'
p12
S'project keyword'
p13
sS'range'
p14
S'string '
p15
sS'prop_uri'
p16
S"'http://dbpedia.org/ontology/projectKeyword'"
p17
sS'annotations'
p18
(dp19
S'bag_of_words'
p20
(lp21
S'Project'
p22
aS'project'
p23
aS'keyword'
p24
aS'string'
p25
aS'A'
aS'key'
p26
aS'word'
p27
aS'of'
p28
aS'the'
p29
aS'project'
p30
aS'.'
asS'chunk_seq'
p31
(lp32
S'B-NP'
p33
aS'I-NP'
p34
aS'I-NP'
p35
aS'E-NP'
p36
aS'B-NP'
p37
aS'I-NP'
p38
aS'E-NP'
p39
aS'S-PP'
p40
aS'B-NP'
p41
aS'E-NP'
p42
aS'O'
asS'dep_seq'
p43
(lp44
(lp45
S'nn'
p46
aS'4'
aS'1'
aa(lp47
S'nn'
p48
aS'4'
aS'2'
aa(lp49
S'nn'
p50
aS'4'
aS'3'
aa(lp51
S'root'
p52
aS'0'
aS'4'
aa(lp53
S'det'
p54
aS'7'
aS'5'
aa(lp55
S'amod'
p56
aS'7'
aS'6'
aa(lp57
S'dep'
p58
aS'4'
aS'7'
aa(lp59
S'det'
p60
aS'10'
p61
aS'9'
aa(lp62
S'prep_of'
p63
aS'7'
aS'10'
p64
aasS'srls'
p65
(lp66
sS'pos_seq'
p67
(lp68
S'NN'
p69
aS'NN'
p70
aS'NN'
p71
aS'NN'
p72
aS'DT'
p73
aS'JJ'
p74
aS'NN'
p75
aS'IN'
p76
aS'DT'
p77
aS'NN'
p78
aS'.'
asS'ner_seq'
p79
(lp80
S'O'
aS'O'
aS'O'
aS'O'
aS'O'
aS'O'
aS'O'
aS'O'
aS'O'
aS'O'
aS'O'
assb.