ccopy_reg
_reconstructor
p1
(c__main__
KBproperty
p2
c__builtin__
object
p3
NtRp4
(dp5
S'comment'
p6
S''
sS'domain'
p7
S''
sS'instances_count'
p8
S'70'
p9
sS'label'
p10
S'Born'
p11
sS'range'
p12
S''
sS'prop_uri'
p13
S"'http://dbpedia.org/property/born'"
p14
sS'annotations'
p15
(dp16
S'bag_of_words'
p17
(lp18
S'Born'
p19
asS'chunk_seq'
p20
(lp21
S'O'
asS'dep_seq'
p22
(lp23
(lp24
S'root'
p25
aS'0'
aS'1'
aasS'srls'
p26
(lp27
(dp28
S'V'
g19
sasS'pos_seq'
p29
(lp30
S'VBN'
p31
asS'ner_seq'
p32
(lp33
S'O'
assb.