ccopy_reg
_reconstructor
p1
(c__main__
KBproperty
p2
c__builtin__
object
p3
NtRp4
(dp5
S'comment'
p6
S'Subject has served as the regent of another monarch'
p7
sS'domain'
p8
S'Monarch '
p9
sS'instances_count'
p10
S'0'
sS'label'
p11
S'regent of'
p12
sS'range'
p13
S'Monarch '
p14
sS'prop_uri'
p15
S"'http://dbpedia.org/ontology/regentOf'"
p16
sS'annotations'
p17
(dp18
S'bag_of_words'
p19
(lp20
S'Monarch'
p21
aS'regent'
p22
aS'of'
p23
aS'Monarch'
p24
aS'Subject'
p25
aS'has'
p26
aS'served'
p27
aS'as'
p28
aS'the'
p29
aS'regent'
p30
aS'of'
p31
aS'another'
p32
aS'monarch'
p33
asS'chunk_seq'
p34
(lp35
S'B-NP'
p36
aS'E-NP'
p37
aS'S-PP'
p38
aS'B-NP'
p39
aS'E-NP'
p40
aS'B-VP'
p41
aS'E-VP'
p42
aS'S-PP'
p43
aS'B-NP'
p44
aS'E-NP'
p45
aS'S-PP'
p46
aS'B-NP'
p47
aS'E-NP'
p48
asS'dep_seq'
p49
(lp50
(lp51
S'nn'
p52
aS'2'
aS'1'
aa(lp53
S'nsubj'
p54
aS'7'
aS'2'
aa(lp55
S'nn'
p56
aS'5'
aS'4'
aa(lp57
S'prep_of'
p58
aS'2'
aS'5'
aa(lp59
S'aux'
p60
aS'7'
aS'6'
aa(lp61
S'root'
p62
aS'0'
aS'7'
aa(lp63
S'det'
p64
aS'10'
p65
aS'9'
aa(lp66
S'prep_as'
p67
aS'7'
aS'10'
p68
aa(lp69
S'det'
p70
aS'13'
p71
aS'12'
p72
aa(lp73
S'prep_of'
p74
aS'10'
p75
aS'13'
p76
aasS'srls'
p77
(lp78
(dp79
S'A1'
p80
S'as the regent of another monarch'
p81
sS'A0'
p82
S'Monarch regent of Monarch Subject'
p83
sS'V'
g27
sasS'pos_seq'
p84
(lp85
S'NN'
p86
aS'NN'
p87
aS'IN'
p88
aS'NNP'
p89
aS'NNP'
p90
aS'VBZ'
p91
aS'VBN'
p92
aS'IN'
p93
aS'DT'
p94
aS'NN'
p95
aS'IN'
p96
aS'DT'
p97
aS'NN'
p98
asS'ner_seq'
p99
(lp100
S'O'
aS'O'
aS'O'
aS'B-MISC'
p101
aS'E-MISC'
p102
aS'O'
aS'O'
aS'O'
aS'O'
aS'O'
aS'O'
aS'O'
aS'O'
assb.