ccopy_reg
_reconstructor
p1
(c__main__
KBproperty
p2
c__builtin__
object
p3
NtRp4
(dp5
S'comment'
p6
S'Country the thing is located.'
p7
sS'domain'
p8
S''
sS'instances_count'
p9
S'22320'
p10
sS'label'
p11
S'pa\\xc5\\x84stwo'
p12
sS'range'
p13
S'Country '
p14
sS'prop_uri'
p15
S"'http://dbpedia.org/ontology/locationCountry'"
p16
sS'annotations'
p17
(dp18
S'bag_of_words'
p19
(lp20
S'pa'
p21
aS'\\'
aS'xc5'
p22
aS'\\'
aS'x84stwo'
p23
aS'Country'
p24
aS'Country'
p25
aS'the'
p26
aS'thing'
p27
aS'is'
p28
aS'located'
p29
aS'.'
asS'chunk_seq'
p30
(lp31
S'S-NP'
p32
aS'O'
aS'O'
aS'O'
aS'B-NP'
p33
aS'I-NP'
p34
aS'E-NP'
p35
aS'B-NP'
p36
aS'E-NP'
p37
aS'B-VP'
p38
aS'E-VP'
p39
aS'O'
asS'dep_seq'
p40
(lp41
(lp42
S'nn'
p43
aS'7'
aS'1'
aa(lp44
S'nn'
p45
aS'7'
aS'2'
aa(lp46
S'nn'
p47
aS'7'
aS'3'
aa(lp48
S'nn'
p49
aS'7'
aS'4'
aa(lp50
S'nn'
p51
aS'7'
aS'5'
aa(lp52
S'nn'
p53
aS'7'
aS'6'
aa(lp54
S'dep'
p55
aS'11'
p56
aS'7'
aa(lp57
S'det'
p58
aS'9'
aS'8'
aa(lp59
S'nsubjpass'
p60
aS'11'
p61
aS'9'
aa(lp62
S'auxpass'
p63
aS'11'
p64
aS'10'
p65
aa(lp66
S'root'
p67
aS'0'
aS'11'
p68
aasS'srls'
p69
(lp70
(dp71
S'A1'
p72
S'pa \\ xc5 \\ x84stwo Country Country the thing'
p73
sS'V'
g29
sasS'pos_seq'
p74
(lp75
S'FW'
p76
aS'FW'
p77
aS'FW'
p78
aS'FW'
p79
aS'FW'
p80
aS'NNP'
p81
aS'NNP'
p82
aS'DT'
p83
aS'NN'
p84
aS'VBZ'
p85
aS'VBN'
p86
aS'.'
asS'ner_seq'
p87
(lp88
S'O'
aS'O'
aS'O'
aS'O'
aS'O'
aS'B-ORG'
p89
aS'E-ORG'
p90
aS'O'
aS'O'
aS'O'
aS'O'
aS'O'
assb.