ccopy_reg
_reconstructor
p1
(c__main__
KBproperty
p2
c__builtin__
object
p3
NtRp4
(dp5
S'comment'
p6
S'The season number to which the TelevisionEpisode belongs.'
p7
sS'domain'
p8
S'Television Episode '
p9
sS'instances_count'
p10
S'7374'
p11
sS'label'
p12
S'season number'
p13
sS'range'
p14
S'non Negative Integer '
p15
sS'prop_uri'
p16
S"'http://dbpedia.org/ontology/seasonNumber'"
p17
sS'annotations'
p18
(dp19
S'bag_of_words'
p20
(lp21
S'Television'
p22
aS'Episode'
p23
aS'season'
p24
aS'number'
p25
aS'non'
p26
aS'Negative'
p27
aS'Integer'
p28
aS'The'
p29
aS'season'
p30
aS'number'
p31
aS'to'
p32
aS'which'
p33
aS'the'
p34
aS'TelevisionEpisode'
p35
aS'belongs'
p36
aS'.'
asS'chunk_seq'
p37
(lp38
S'B-NP'
p39
aS'I-NP'
p40
aS'I-NP'
p41
aS'E-NP'
p42
aS'B-NP'
p43
aS'I-NP'
p44
aS'E-NP'
p45
aS'B-NP'
p46
aS'I-NP'
p47
aS'E-NP'
p48
aS'S-PP'
p49
aS'S-NP'
p50
aS'B-NP'
p51
aS'E-NP'
p52
aS'S-VP'
p53
aS'O'
asS'dep_seq'
p54
(lp55
(lp56
S'nn'
p57
aS'4'
aS'1'
aa(lp58
S'nn'
p59
aS'4'
aS'2'
aa(lp60
S'nn'
p61
aS'4'
aS'3'
aa(lp62
S'root'
p63
aS'0'
aS'4'
aa(lp64
S'amod'
p65
aS'10'
p66
aS'5'
aa(lp67
S'amod'
p68
aS'10'
p69
aS'6'
aa(lp70
S'nn'
p71
aS'10'
p72
aS'7'
aa(lp73
S'det'
p74
aS'10'
p75
aS'8'
aa(lp76
S'nn'
p77
aS'10'
p78
aS'9'
aa(lp79
S'dep'
p80
aS'4'
aS'10'
p81
aa(lp82
S'prep_to'
p83
aS'15'
p84
aS'10'
p85
aa(lp86
S'rel'
p87
aS'15'
p88
aS'11'
p89
aa(lp90
S'det'
p91
aS'14'
p92
aS'13'
p93
aa(lp94
S'nsubj'
p95
aS'15'
p96
aS'14'
p97
aa(lp98
S'rcmod'
p99
aS'10'
p100
aS'15'
p101
aasS'srls'
p102
(lp103
(dp104
S'A0'
p105
S'the TelevisionEpisode'
p106
sS'V'
g36
sasS'pos_seq'
p107
(lp108
S'NN'
p109
aS'NN'
p110
aS'NN'
p111
aS'NN'
p112
aS'JJ'
p113
aS'JJ'
p114
aS'NN'
p115
aS'DT'
p116
aS'NN'
p117
aS'NN'
p118
aS'TO'
p119
aS'WDT'
p120
aS'DT'
p121
aS'NNP'
p122
aS'VBZ'
p123
aS'.'
asS'ner_seq'
p124
(lp125
S'O'
aS'O'
aS'O'
aS'O'
aS'O'
aS'O'
aS'O'
aS'O'
aS'O'
aS'O'
aS'O'
aS'O'
aS'O'
aS'S-MISC'
p126
aS'O'
aS'O'
assb.