ccopy_reg
_reconstructor
p1
(c__main__
KBproperty
p2
c__builtin__
object
p3
NtRp4
(dp5
S'comment'
p6
S'connects a referenced resource to another resource. This property is important to connect non-extracted resources to extracted ones'
p7
sS'domain'
p8
S'Reference '
p9
sS'instances_count'
p10
S'0'
sS'label'
p11
S'connects referenced to'
p12
sS'range'
p13
S''
sS'prop_uri'
p14
S"'http://dbpedia.org/ontology/connectsReferencedTo'"
p15
sS'annotations'
p16
(dp17
S'bag_of_words'
p18
(lp19
S'Reference'
p20
aS'connects'
p21
aS'referenced'
p22
aS'to'
p23
aS'connects'
p24
aS'a'
aS'referenced'
p25
aS'resource'
p26
aS'to'
p27
aS'another'
p28
aS'resource'
p29
aS'.'
aS'This'
p30
aS'property'
p31
aS'is'
p32
aS'important'
p33
aS'to'
p34
aS'connect'
p35
aS'non-'
p36
aS'extracted'
p37
aS'resources'
p38
aS'to'
p39
aS'extracted'
p40
aS'ones'
p41
asS'chunk_seq'
p42
(lp43
S'S-NP'
p44
aS'S-VP'
p45
aS'S-VP'
p46
aS'B-VP'
p47
aS'E-VP'
p48
aS'B-NP'
p49
aS'I-NP'
p50
aS'E-NP'
p51
aS'S-PP'
p52
aS'B-NP'
p53
aS'E-NP'
p54
aS'O'
aS'B-NP'
p55
aS'E-NP'
p56
aS'S-VP'
p57
aS'S-ADJP'
p58
aS'B-VP'
p59
aS'E-VP'
p60
aS'B-NP'
p61
aS'I-NP'
p62
aS'E-NP'
p63
aS'B-VP'
p64
aS'E-VP'
p65
aS'O'
asS'dep_seq'
p66
(lp67
(lp68
S'nsubj'
p69
aS'2'
aS'1'
aa(lp70
S'root'
p71
aS'0'
aS'2'
aa(lp72
S'dep'
p73
aS'2'
aS'3'
aa(lp74
S'aux'
p75
aS'5'
aS'4'
aa(lp76
S'xcomp'
p77
aS'3'
aS'5'
aa(lp78
S'det'
p79
aS'8'
aS'6'
aa(lp80
S'amod'
p81
aS'8'
aS'7'
aa(lp82
S'dobj'
p83
aS'5'
aS'8'
aa(lp84
S'det'
p85
aS'11'
p86
aS'10'
p87
aa(lp88
S'prep_to'
p89
aS'5'
aS'11'
p90
aa(lp91
S'det'
p92
aS'14'
p93
aS'13'
p94
aa(lp95
S'nsubj'
p96
aS'16'
p97
aS'14'
p98
aa(lp99
S'xsubj'
p100
aS'18'
p101
aS'14'
p102
aa(lp103
S'cop'
p104
aS'16'
p105
aS'15'
p106
aa(lp107
S'parataxis'
p108
aS'2'
aS'16'
p109
aa(lp110
S'aux'
p111
aS'18'
p112
aS'17'
p113
aa(lp114
S'xcomp'
p115
aS'16'
p116
aS'18'
p117
aa(lp118
S'amod'
p119
aS'21'
p120
aS''
aa(lp121
S'amod'
p122
aS'21'
p123
aS'20'
p124
aa(lp125
S'dobj'
p126
aS'18'
p127
aS'21'
p128
aa(lp129
S'amod'
p130
aS'24'
p131
aS'23'
p132
aa(lp133
S'prep_to'
p134
aS'18'
p135
aS'24'
p136
aasS'srls'
p137
(lp138
(dp139
S'A1'
p140
S'referenced to connects a referenced resource to another resource . This property is important to connect non- extracted resources to extracted ones'
p141
sS'V'
g21
sa(dp142
S'A1'
p143
S'a referenced resource to another resource . This property is important to connect non- extracted resources to extracted ones'
p144
sS'V'
g24
sa(dp145
S'A1'
p146
g26
sS'V'
g25
sa(dp147
S'A1'
p148
S'non- extracted resources'
p149
sS'A2'
p150
S'to extracted ones'
p151
sS'V'
g35
sa(dp152
S'A1'
p153
g38
sS'V'
g37
sa(dp154
S'A1'
p155
g41
sS'V'
g40
sasS'pos_seq'
p156
(lp157
S'NN'
p158
aS'VBZ'
p159
aS'VBN'
p160
aS'TO'
p161
aS'VB'
p162
aS'DT'
p163
aS'VBN'
p164
aS'NN'
p165
aS'TO'
p166
aS'DT'
p167
aS'NN'
p168
aS'.'
aS'DT'
p169
aS'NN'
p170
aS'VBZ'
p171
aS'JJ'
p172
aS'TO'
p173
aS'VB'
p174
aS'JJ'
p175
aS'VBN'
p176
aS'NNS'
p177
aS'TO'
p178
aS'VBN'
p179
aS'NNS'
p180
asS'ner_seq'
p181
(lp182
S'O'
aS'O'
aS'O'
aS'O'
aS'O'
aS'O'
aS'O'
aS'O'
aS'O'
aS'O'
aS'O'
aS'O'
aS'O'
aS'O'
aS'O'
aS'O'
aS'O'
aS'O'
aS'O'
aS'O'
aS'O'
aS'O'
aS'O'
aS'O'
assb.