ccopy_reg
_reconstructor
p1
(c__main__
KBproperty
p2
c__builtin__
object
p3
NtRp4
(dp5
S'comment'
p6
S'artistic movement or school with which artist is associated'
p7
sS'domain'
p8
S'Artist '
p9
sS'instances_count'
p10
S'7033'
p11
sS'label'
p12
S'movement'
p13
sS'range'
p14
S''
sS'prop_uri'
p15
S"'http://dbpedia.org/ontology/movement'"
p16
sS'annotations'
p17
(dp18
S'bag_of_words'
p19
(lp20
S'Artist'
p21
aS'movement'
p22
aS'artistic'
p23
aS'movement'
p24
aS'or'
p25
aS'school'
p26
aS'with'
p27
aS'which'
p28
aS'artist'
p29
aS'is'
p30
aS'associated'
p31
asS'chunk_seq'
p32
(lp33
S'B-NP'
p34
aS'E-NP'
p35
aS'B-NP'
p36
aS'E-NP'
p37
aS'O'
aS'S-NP'
p38
aS'S-PP'
p39
aS'S-NP'
p40
aS'S-NP'
p41
aS'B-VP'
p42
aS'E-VP'
p43
asS'dep_seq'
p44
(lp45
(lp46
S'nn'
p47
aS'4'
aS'1'
aa(lp48
S'nn'
p49
aS'4'
aS'2'
aa(lp50
S'amod'
p51
aS'4'
aS'3'
aa(lp52
S'nsubjpass'
p53
aS'11'
p54
aS'4'
aa(lp55
S'conj_or'
p56
aS'4'
aS'6'
aa(lp57
S'dep'
p58
aS'9'
aS'8'
aa(lp59
S'prep_with'
p60
aS'6'
aS'9'
aa(lp61
S'auxpass'
p62
aS'11'
p63
aS'10'
p64
aa(lp65
S'root'
p66
aS'0'
aS'11'
p67
aasS'srls'
p68
(lp69
sS'pos_seq'
p70
(lp71
S'NN'
p72
aS'NN'
p73
aS'JJ'
p74
aS'NN'
p75
aS'CC'
p76
aS'NN'
p77
aS'IN'
p78
aS'WDT'
p79
aS'NN'
p80
aS'VBZ'
p81
aS'VBN'
p82
asS'ner_seq'
p83
(lp84
S'O'
aS'O'
aS'O'
aS'O'
aS'O'
aS'O'
aS'O'
aS'O'
aS'O'
aS'O'
aS'O'
assb.