ccopy_reg
_reconstructor
p1
(c__main__
KBproperty
p2
c__builtin__
object
p3
NtRp4
(dp5
S'comment'
p6
S'the sport discipline the athlete practices e.g. Diving or that a board member of a sporting club is focussing at'
p7
sS'domain'
p8
S'Person '
p9
sS'instances_count'
p10
S'0'
sS'label'
p11
S'sport discipline'
p12
sS'range'
p13
S'Sport '
p14
sS'prop_uri'
p15
S"'http://dbpedia.org/ontology/sportDiscipline'"
p16
sS'annotations'
p17
(dp18
S'bag_of_words'
p19
(lp20
S'Person'
p21
aS'sport'
p22
aS'discipline'
p23
aS'Sport'
p24
aS'the'
p25
aS'sport'
p26
aS'discipline'
p27
aS'the'
p28
aS'athlete'
p29
aS'practices'
p30
aS'e.g.'
p31
aS'Diving'
p32
aS'or'
p33
aS'that'
p34
aS'a'
aS'board'
p35
aS'member'
p36
aS'of'
p37
aS'a'
aS'sporting'
p38
aS'club'
p39
aS'is'
p40
aS'focussing'
p41
aS'at'
p42
asS'chunk_seq'
p43
(lp44
S'B-NP'
p45
aS'I-NP'
p46
aS'I-NP'
p47
aS'E-NP'
p48
aS'B-NP'
p49
aS'I-NP'
p50
aS'E-NP'
p51
aS'B-NP'
p52
aS'I-NP'
p53
aS'E-NP'
p54
aS'S-PP'
p55
aS'S-VP'
p56
aS'O'
aS'S-SBAR'
p57
aS'B-NP'
p58
aS'I-NP'
p59
aS'E-NP'
p60
aS'S-PP'
p61
aS'B-NP'
p62
aS'I-NP'
p63
aS'E-NP'
p64
aS'B-VP'
p65
aS'E-VP'
p66
aS'S-PP'
p67
asS'dep_seq'
p68
(lp69
(lp70
S'nn'
p71
aS'2'
aS'1'
aa(lp72
S'nsubj'
p73
aS'3'
aS'2'
aa(lp74
S'root'
p75
aS'0'
aS'3'
aa(lp76
S'dobj'
p77
aS'3'
aS'4'
aa(lp78
S'det'
p79
aS'7'
aS'5'
aa(lp80
S'nn'
p81
aS'7'
aS'6'
aa(lp82
S'nsubj'
p83
aS'23'
p84
aS'7'
aa(lp85
S'det'
p86
aS'10'
p87
aS'8'
aa(lp88
S'nn'
p89
aS'10'
p90
aS'9'
aa(lp91
S'dep'
p92
aS'7'
aS'10'
p93
aa(lp94
S'prep_e.g.'
p95
aS'7'
aS'12'
p96
aa(lp97
S'conj_or'
p98
aS'7'
aS'14'
p99
aa(lp100
S'det'
p101
aS'17'
p102
aS'15'
p103
aa(lp104
S'nn'
p105
aS'17'
p106
aS'16'
p107
aa(lp108
S'dep'
p109
aS'7'
aS'17'
p110
aa(lp111
S'det'
p112
aS'21'
p113
aS'19'
p114
aa(lp115
S'nn'
p116
aS'21'
p117
aS'20'
p118
aa(lp119
S'prep_of'
p120
aS'17'
p121
aS'21'
p122
aa(lp123
S'aux'
p124
aS'23'
p125
aS'22'
p126
aa(lp127
S'dep'
p128
aS'3'
aS'23'
p129
aa(lp130
S'prep'
p131
aS'23'
p132
aS'24'
p133
aasS'srls'
p134
(lp135
(dp136
S'V'
g32
sa(dp137
S'A0'
p138
S'a board member of a sporting club'
p139
sS'V'
g41
sasS'pos_seq'
p140
(lp141
S'NN'
p142
aS'NN'
p143
aS'NN'
p144
aS'NNP'
p145
aS'DT'
p146
aS'NN'
p147
aS'NN'
p148
aS'DT'
p149
aS'NN'
p150
aS'NNS'
p151
aS'IN'
p152
aS'VBG'
p153
aS'CC'
p154
aS'IN'
p155
aS'DT'
p156
aS'NN'
p157
aS'NN'
p158
aS'IN'
p159
aS'DT'
p160
aS'NN'
p161
aS'NN'
p162
aS'VBZ'
p163
aS'VBG'
p164
aS'IN'
p165
asS'ner_seq'
p166
(lp167
S'O'
aS'O'
aS'O'
aS'S-ORG'
p168
aS'O'
aS'O'
aS'O'
aS'O'
aS'O'
aS'O'
aS'O'
aS'O'
aS'O'
aS'O'
aS'O'
aS'O'
aS'O'
aS'O'
aS'O'
aS'O'
aS'O'
aS'O'
aS'O'
aS'O'
assb.