ccopy_reg
_reconstructor
p1
(c__main__
KBproperty
p2
c__builtin__
object
p3
NtRp4
(dp5
S'comment'
p6
S'The county where the thing is located.'
p7
sS'domain'
p8
S''
sS'instances_count'
p9
S'9061'
p10
sS'label'
p11
S'county'
p12
sS'range'
p13
S'Populated Place '
p14
sS'prop_uri'
p15
S"'http://dbpedia.org/ontology/county'"
p16
sS'annotations'
p17
(dp18
S'bag_of_words'
p19
(lp20
S'county'
p21
aS'Populated'
p22
aS'Place'
p23
aS'The'
p24
aS'county'
p25
aS'where'
p26
aS'the'
p27
aS'thing'
p28
aS'is'
p29
aS'located'
p30
aS'.'
asS'chunk_seq'
p31
(lp32
S'B-NP'
p33
aS'I-NP'
p34
aS'E-NP'
p35
aS'B-NP'
p36
aS'E-NP'
p37
aS'S-ADVP'
p38
aS'B-NP'
p39
aS'E-NP'
p40
aS'B-VP'
p41
aS'E-VP'
p42
aS'O'
asS'dep_seq'
p43
(lp44
(lp45
S'nn'
p46
aS'3'
aS'1'
aa(lp47
S'amod'
p48
aS'3'
aS'2'
aa(lp49
S'dep'
p50
aS'5'
aS'3'
aa(lp51
S'det'
p52
aS'5'
aS'4'
aa(lp53
S'root'
p54
aS'0'
aS'5'
aa(lp55
S'advmod'
p56
aS'10'
p57
aS'6'
aa(lp58
S'det'
p59
aS'8'
aS'7'
aa(lp60
S'nsubjpass'
p61
aS'10'
p62
aS'8'
aa(lp63
S'auxpass'
p64
aS'10'
p65
aS'9'
aa(lp66
S'rcmod'
p67
aS'5'
aS'10'
p68
aasS'srls'
p69
(lp70
(dp71
S'A1'
p72
S'the thing'
p73
sS'V'
g30
sasS'pos_seq'
p74
(lp75
S'NN'
p76
aS'VBN'
p77
aS'NN'
p78
aS'DT'
p79
aS'NN'
p80
aS'WRB'
p81
aS'DT'
p82
aS'NN'
p83
aS'VBZ'
p84
aS'VBN'
p85
aS'.'
asS'ner_seq'
p86
(lp87
S'O'
aS'O'
aS'O'
aS'O'
aS'O'
aS'O'
aS'O'
aS'O'
aS'O'
aS'O'
aS'O'
assb.