ccopy_reg
_reconstructor
p1
(c__main__
KBproperty
p2
c__builtin__
object
p3
NtRp4
(dp5
S'comment'
p6
S'The place where the person died.'
p7
sS'domain'
p8
S'Person '
p9
sS'instances_count'
p10
S'303256'
p11
sS'label'
p12
S'death place'
p13
sS'range'
p14
S'Place '
p15
sS'prop_uri'
p16
S"'http://dbpedia.org/ontology/deathPlace'"
p17
sS'annotations'
p18
(dp19
S'bag_of_words'
p20
(lp21
S'Person'
p22
aS'death'
p23
aS'place'
p24
aS'Place'
p25
aS'The'
p26
aS'place'
p27
aS'where'
p28
aS'the'
p29
aS'person'
p30
aS'died'
p31
aS'.'
asS'chunk_seq'
p32
(lp33
S'B-NP'
p34
aS'I-NP'
p35
aS'I-NP'
p36
aS'E-NP'
p37
aS'B-NP'
p38
aS'E-NP'
p39
aS'S-ADVP'
p40
aS'B-NP'
p41
aS'E-NP'
p42
aS'S-VP'
p43
aS'O'
asS'dep_seq'
p44
(lp45
(lp46
S'nn'
p47
aS'4'
aS'1'
aa(lp48
S'nn'
p49
aS'4'
aS'2'
aa(lp50
S'nn'
p51
aS'4'
aS'3'
aa(lp52
S'dep'
p53
aS'6'
aS'4'
aa(lp54
S'det'
p55
aS'6'
aS'5'
aa(lp56
S'root'
p57
aS'0'
aS'6'
aa(lp58
S'advmod'
p59
aS'10'
p60
aS'7'
aa(lp61
S'det'
p62
aS'9'
aS'8'
aa(lp63
S'nsubj'
p64
aS'10'
p65
aS'9'
aa(lp66
S'rcmod'
p67
aS'6'
aS'10'
p68
aasS'srls'
p69
(lp70
(dp71
S'A1'
p72
S'the person'
p73
sS'V'
g31
sasS'pos_seq'
p74
(lp75
S'NN'
p76
aS'NN'
p77
aS'NN'
p78
aS'NN'
p79
aS'DT'
p80
aS'NN'
p81
aS'WRB'
p82
aS'DT'
p83
aS'NN'
p84
aS'VBD'
p85
aS'.'
asS'ner_seq'
p86
(lp87
S'O'
aS'O'
aS'O'
aS'O'
aS'O'
aS'O'
aS'O'
aS'O'
aS'O'
aS'O'
aS'O'
assb.