ccopy_reg
_reconstructor
p1
(c__main__
KBproperty
p2
c__builtin__
object
p3
NtRp4
(dp5
S'comment'
p6
S'when or in which project the person was selected to train as an astronaut'
p7
sS'domain'
p8
S'Astronaut '
p9
sS'instances_count'
p10
S'582'
p11
sS'label'
p12
S'selection'
p13
sS'range'
p14
S''
sS'prop_uri'
p15
S"'http://dbpedia.org/ontology/selection'"
p16
sS'annotations'
p17
(dp18
S'bag_of_words'
p19
(lp20
S'Astronaut'
p21
aS'selection'
p22
aS'when'
p23
aS'or'
p24
aS'in'
p25
aS'which'
p26
aS'project'
p27
aS'the'
p28
aS'person'
p29
aS'was'
p30
aS'selected'
p31
aS'to'
p32
aS'train'
p33
aS'as'
p34
aS'an'
p35
aS'astronaut'
p36
asS'chunk_seq'
p37
(lp38
S'B-NP'
p39
aS'E-NP'
p40
aS'S-ADVP'
p41
aS'O'
aS'S-PP'
p42
aS'B-NP'
p43
aS'E-NP'
p44
aS'B-NP'
p45
aS'E-NP'
p46
aS'B-VP'
p47
aS'I-VP'
p48
aS'I-VP'
p49
aS'E-VP'
p50
aS'S-PP'
p51
aS'B-NP'
p52
aS'E-NP'
p53
asS'dep_seq'
p54
(lp55
(lp56
S'nn'
p57
aS'2'
aS'1'
aa(lp58
S'dep'
p59
aS'12'
p60
aS'2'
aa(lp61
S'advmod'
p62
aS'12'
p63
aS'3'
aa(lp64
S'conj_or'
p65
aS'12'
p66
aS'5'
aa(lp67
S'det'
p68
aS'7'
aS'6'
aa(lp69
S'pobj'
p70
aS'5'
aS'7'
aa(lp71
S'det'
p72
aS'9'
aS'8'
aa(lp73
S'dep'
p74
aS'12'
p75
aS'9'
aa(lp76
S'dep'
p77
aS'12'
p78
aS'10'
p79
aa(lp80
S'dep'
p81
aS'12'
p82
aS'11'
p83
aa(lp84
S'root'
p85
aS'0'
aS'12'
p86
aa(lp87
S'dep'
p88
aS'12'
p89
aS'13'
p90
aa(lp91
S'dep'
p92
aS'12'
p93
aS'14'
p94
aa(lp95
S'det'
p96
aS'16'
p97
aS'15'
p98
aa(lp99
S'pobj'
p100
aS'14'
p101
aS'16'
p102
aasS'srls'
p103
(lp104
(dp105
S'A1'
p106
S'Astronaut selection when or in which project the person'
p107
sS'A3'
p108
S'to train as an astronaut'
p109
sS'V'
g31
sa(dp110
S'A1'
p111
S'Astronaut selection when or in which project the person'
p112
sS'A2'
p113
S'as an astronaut'
p114
sS'V'
g33
sasS'pos_seq'
p115
(lp116
S'NN'
p117
aS'NN'
p118
aS'WRB'
p119
aS'CC'
p120
aS'IN'
p121
aS'WDT'
p122
aS'NN'
p123
aS'DT'
p124
aS'NN'
p125
aS'VBD'
p126
aS'VBN'
p127
aS'TO'
p128
aS'VB'
p129
aS'IN'
p130
aS'DT'
p131
aS'NN'
p132
asS'ner_seq'
p133
(lp134
S'O'
aS'O'
aS'O'
aS'O'
aS'O'
aS'O'
aS'O'
aS'O'
aS'O'
aS'O'
aS'O'
aS'O'
aS'O'
aS'O'
aS'O'
aS'O'
assb.