ccopy_reg
_reconstructor
p1
(c__main__
KBproperty
p2
c__builtin__
object
p3
NtRp4
(dp5
S'comment'
p6
S"A Person's role in an event"
p7
sS'domain'
p8
S'Agent '
p9
sS'instances_count'
p10
S'0'
sS'label'
p11
S'"A Person\'s role in an event"'
p12
sS'range'
p13
S'Event '
p14
sS'prop_uri'
p15
S"'http://dbpedia.org/ontology/roleInEvent'"
p16
sS'annotations'
p17
(dp18
S'bag_of_words'
p19
(lp20
S'Agent'
p21
aS'role'
p22
aS'In'
p23
aS'Event'
p24
aS'Event'
p25
aS'A'
aS'Person'
p26
aS"'s"
p27
aS'role'
p28
aS'in'
p29
aS'an'
p30
aS'event'
p31
asS'chunk_seq'
p32
(lp33
S'B-NP'
p34
aS'E-NP'
p35
aS'S-PP'
p36
aS'B-NP'
p37
aS'E-NP'
p38
aS'B-NP'
p39
aS'E-NP'
p40
aS'B-NP'
p41
aS'E-NP'
p42
aS'S-PP'
p43
aS'B-NP'
p44
aS'E-NP'
p45
asS'dep_seq'
p46
(lp47
(lp48
S'nn'
p49
aS'2'
aS'1'
aa(lp50
S'root'
p51
aS'0'
aS'2'
aa(lp52
S'nn'
p53
aS'7'
aS'4'
aa(lp54
S'nn'
p55
aS'7'
aS'5'
aa(lp56
S'det'
p57
aS'7'
aS'6'
aa(lp58
S'poss'
p59
aS'9'
aS'7'
aa(lp60
S'prep_in'
p61
aS'2'
aS'9'
aa(lp62
S'det'
p63
aS'12'
p64
aS'11'
p65
aa(lp66
S'prep_in'
p67
aS'9'
aS'12'
p68
aasS'srls'
p69
(lp70
sS'pos_seq'
p71
(lp72
S'NN'
p73
aS'NN'
p74
aS'IN'
p75
aS'NN'
p76
aS'NN'
p77
aS'DT'
p78
aS'NN'
p79
aS'POS'
p80
aS'NN'
p81
aS'IN'
p82
aS'DT'
p83
aS'NN'
p84
asS'ner_seq'
p85
(lp86
S'O'
aS'O'
aS'O'
aS'O'
aS'O'
aS'O'
aS'O'
aS'O'
aS'O'
aS'O'
aS'O'
aS'O'
assb.