ccopy_reg
_reconstructor
p1
(c__main__
KBproperty
p2
c__builtin__
object
p3
NtRp4
(dp5
S'comment'
p6
S''
sS'domain'
p7
S'Tennis Player '
p8
sS'instances_count'
p9
S'0'
sS'label'
p10
S'doubles rankings'
p11
sS'range'
p12
S'non Negative Integer '
p13
sS'prop_uri'
p14
S"'http://dbpedia.org/ontology/rankingsDoubles'"
p15
sS'annotations'
p16
(dp17
S'bag_of_words'
p18
(lp19
S'Tennis'
p20
aS'Player'
p21
aS'doubles'
p22
aS'rankings'
p23
aS'non'
p24
aS'Negative'
p25
aS'Integer'
p26
asS'chunk_seq'
p27
(lp28
S'B-NP'
p29
aS'E-NP'
p30
aS'S-VP'
p31
aS'S-NP'
p32
aS'B-NP'
p33
aS'I-NP'
p34
aS'E-NP'
p35
asS'dep_seq'
p36
(lp37
(lp38
S'nn'
p39
aS'2'
aS'1'
aa(lp40
S'nsubj'
p41
aS'3'
aS'2'
aa(lp42
S'root'
p43
aS'0'
aS'3'
aa(lp44
S'iobj'
p45
aS'3'
aS'4'
aa(lp46
S'amod'
p47
aS'7'
aS'5'
aa(lp48
S'amod'
p49
aS'7'
aS'6'
aa(lp50
S'dobj'
p51
aS'3'
aS'7'
aasS'srls'
p52
(lp53
(dp54
S'A1'
p55
S'rankings non Negative Integer'
p56
sS'A0'
p57
S'Tennis Player'
p58
sS'V'
g22
sasS'pos_seq'
p59
(lp60
S'NNP'
p61
aS'NNP'
p62
aS'VBZ'
p63
aS'NNS'
p64
aS'JJ'
p65
aS'JJ'
p66
aS'NN'
p67
asS'ner_seq'
p68
(lp69
S'O'
aS'O'
aS'O'
aS'O'
aS'O'
aS'B-MISC'
p70
aS'E-MISC'
p71
assb.