ccopy_reg
_reconstructor
p1
(c__main__
KBproperty
p2
c__builtin__
object
p3
NtRp4
(dp5
S'comment'
p6
S'the person who is responsible for the film set design'
p7
sS'domain'
p8
S'Film '
p9
sS'instances_count'
p10
S'0'
sS'label'
p11
S'set designer'
p12
sS'range'
p13
S'Person '
p14
sS'prop_uri'
p15
S"'http://dbpedia.org/ontology/setDesigner'"
p16
sS'annotations'
p17
(dp18
S'bag_of_words'
p19
(lp20
S'Film'
p21
aS'set'
p22
aS'designer'
p23
aS'Person'
p24
aS'the'
p25
aS'person'
p26
aS'who'
p27
aS'is'
p28
aS'responsible'
p29
aS'for'
p30
aS'the'
p31
aS'film'
p32
aS'set'
p33
aS'design'
p34
asS'chunk_seq'
p35
(lp36
S'S-NP'
p37
aS'S-VP'
p38
aS'B-NP'
p39
aS'E-NP'
p40
aS'B-NP'
p41
aS'E-NP'
p42
aS'S-NP'
p43
aS'S-VP'
p44
aS'S-ADJP'
p45
aS'S-PP'
p46
aS'B-NP'
p47
aS'E-NP'
p48
aS'S-VP'
p49
aS'S-NP'
p50
asS'dep_seq'
p51
(lp52
(lp53
S'nn'
p54
aS'4'
aS'1'
aa(lp55
S'amod'
p56
aS'4'
aS'2'
aa(lp57
S'nn'
p58
aS'4'
aS'3'
aa(lp59
S'dep'
p60
aS'6'
aS'4'
aa(lp61
S'det'
p62
aS'6'
aS'5'
aa(lp63
S'root'
p64
aS'0'
aS'6'
aa(lp65
S'nsubj'
p66
aS'9'
aS'6'
aa(lp67
S'cop'
p68
aS'9'
aS'8'
aa(lp69
S'rcmod'
p70
aS'6'
aS'9'
aa(lp71
S'det'
p72
aS'12'
p73
aS'11'
p74
aa(lp75
S'prep_for'
p76
aS'9'
aS'12'
p77
aa(lp78
S'partmod'
p79
aS'12'
p80
aS'13'
p81
aa(lp82
S'dobj'
p83
aS'13'
p84
aS'14'
p85
aasS'srls'
p86
(lp87
(dp88
S'A1'
p89
S'the person who is responsible for the film set design'
p90
sS'A0'
p91
g21
sS'A2'
p92
S'designer Person'
p93
sS'V'
g22
sasS'pos_seq'
p94
(lp95
S'NN'
p96
aS'VBN'
p97
aS'NN'
p98
aS'NN'
p99
aS'DT'
p100
aS'NN'
p101
aS'WP'
p102
aS'VBZ'
p103
aS'JJ'
p104
aS'IN'
p105
aS'DT'
p106
aS'NN'
p107
aS'VBN'
p108
aS'NN'
p109
asS'ner_seq'
p110
(lp111
S'O'
aS'O'
aS'O'
aS'O'
aS'O'
aS'O'
aS'O'
aS'O'
aS'O'
aS'O'
aS'O'
aS'O'
aS'O'
aS'O'
assb.