ccopy_reg
_reconstructor
p1
(c__main__
KBproperty
p2
c__builtin__
object
p3
NtRp4
(dp5
S'comment'
p6
S''
sS'domain'
p7
S'Sales '
p8
sS'instances_count'
p9
S'155'
p10
sS'label'
p11
S'end year of sales'
p12
sS'range'
p13
S'g Year '
p14
sS'prop_uri'
p15
S"'http://dbpedia.org/ontology/endYearOfSales'"
p16
sS'annotations'
p17
(dp18
S'bag_of_words'
p19
(lp20
S'Sales'
p21
aS'end'
p22
aS'year'
p23
aS'of'
p24
aS'sales'
p25
aS'g'
aS'Year'
p26
asS'chunk_seq'
p27
(lp28
S'B-NP'
p29
aS'I-NP'
p30
aS'E-NP'
p31
aS'S-PP'
p32
aS'S-NP'
p33
aS'B-NP'
p34
aS'E-NP'
p35
asS'dep_seq'
p36
(lp37
(lp38
S'nn'
p39
aS'3'
aS'1'
aa(lp40
S'nn'
p41
aS'3'
aS'2'
aa(lp42
S'root'
p43
aS'0'
aS'3'
aa(lp44
S'prep_of'
p45
aS'3'
aS'5'
aa(lp46
S'num'
p47
aS'7'
aS'6'
aa(lp48
S'dep'
p49
aS'3'
aS'7'
aasS'srls'
p50
(lp51
sS'pos_seq'
p52
(lp53
S'NNS'
p54
aS'NN'
p55
aS'NN'
p56
aS'IN'
p57
aS'NNS'
p58
aS'CD'
p59
aS'NN'
p60
asS'ner_seq'
p61
(lp62
S'O'
aS'O'
aS'O'
aS'O'
aS'O'
aS'O'
aS'O'
assb.