ccopy_reg
_reconstructor
p1
(c__main__
KBproperty
p2
c__builtin__
object
p3
NtRp4
(dp5
S'comment'
p6
S'Temporary Placement in the Music Charts'
p7
sS'domain'
p8
S'Charts Placements '
p9
sS'instances_count'
p10
S'0'
sS'label'
p11
g7
sS'range'
p12
S'string '
p13
sS'prop_uri'
p14
S"'http://dbpedia.org/ontology/tempPlace'"
p15
sS'annotations'
p16
(dp17
S'bag_of_words'
p18
(lp19
S'Charts'
p20
aS'Placements'
p21
aS'temp'
p22
aS'Place'
p23
aS'string'
p24
aS'Temporary'
p25
aS'Placement'
p26
aS'in'
p27
aS'the'
p28
aS'Music'
p29
aS'Charts'
p30
asS'chunk_seq'
p31
(lp32
S'B-NP'
p33
aS'I-NP'
p34
aS'I-NP'
p35
aS'I-NP'
p36
aS'I-NP'
p37
aS'I-NP'
p38
aS'E-NP'
p39
aS'S-PP'
p40
aS'B-NP'
p41
aS'I-NP'
p42
aS'E-NP'
p43
asS'dep_seq'
p44
(lp45
(lp46
S'nn'
p47
aS'7'
aS'1'
aa(lp48
S'nn'
p49
aS'7'
aS'2'
aa(lp50
S'nn'
p51
aS'7'
aS'3'
aa(lp52
S'nn'
p53
aS'7'
aS'4'
aa(lp54
S'nn'
p55
aS'7'
aS'5'
aa(lp56
S'amod'
p57
aS'7'
aS'6'
aa(lp58
S'root'
p59
aS'0'
aS'7'
aa(lp60
S'det'
p61
aS'11'
p62
aS'9'
aa(lp63
S'nn'
p64
aS'11'
p65
aS'10'
p66
aa(lp67
S'prep_in'
p68
aS'7'
aS'11'
p69
aasS'srls'
p70
(lp71
sS'pos_seq'
p72
(lp73
S'NNPS'
p74
aS'NNPS'
p75
aS'NN'
p76
aS'NNP'
p77
aS'NN'
p78
aS'JJ'
p79
aS'NN'
p80
aS'IN'
p81
aS'DT'
p82
aS'NNP'
p83
aS'NNPS'
p84
asS'ner_seq'
p85
(lp86
S'O'
aS'O'
aS'O'
aS'O'
aS'O'
aS'O'
aS'O'
aS'O'
aS'O'
aS'B-MISC'
p87
aS'E-MISC'
p88
assb.