ccopy_reg
_reconstructor
p1
(c__main__
KBproperty
p2
c__builtin__
object
p3
NtRp4
(dp5
S'comment'
p6
S''
sS'domain'
p7
S'Company '
p8
sS'instances_count'
p9
S'2962'
p10
sS'label'
p11
S'operating income $'
p12
sS'range'
p13
S'double '
p14
sS'prop_uri'
p15
S"'http://dbpedia.org/ontology/operatingIncome'"
p16
sS'annotations'
p17
(dp18
S'bag_of_words'
p19
(lp20
S'Company'
p21
aS'operating'
p22
aS'income'
p23
aS'$'
aS'double'
p24
asS'chunk_seq'
p25
(lp26
S'B-NP'
p27
aS'I-NP'
p28
aS'E-NP'
p29
aS'B-NP'
p30
aS'E-NP'
p31
asS'dep_seq'
p32
(lp33
(lp34
S'nn'
p35
aS'3'
aS'1'
aa(lp36
S'amod'
p37
aS'3'
aS'2'
aa(lp38
S'root'
p39
aS'0'
aS'3'
aa(lp40
S'amod'
p41
aS'3'
aS'4'
aa(lp42
S'dep'
p43
aS'4'
aS'5'
aasS'srls'
p44
(lp45
(dp46
S'A1'
p47
g23
sS'A0'
p48
g21
sS'V'
g22
sasS'pos_seq'
p49
(lp50
S'NN'
p51
aS'VBG'
p52
aS'NN'
p53
aS'$'
aS'JJ'
p54
asS'ner_seq'
p55
(lp56
S'O'
aS'O'
aS'O'
aS'O'
aS'O'
assb.