ccopy_reg
_reconstructor
p1
(c__main__
KBproperty
p2
c__builtin__
object
p3
NtRp4
(dp5
S'comment'
p6
S''
sS'domain'
p7
S'Soccer Player '
p8
sS'instances_count'
p9
S'872003'
p10
sS'label'
p11
S'years'
p12
sS'range'
p13
S'g Year '
p14
sS'prop_uri'
p15
S"'http://dbpedia.org/ontology/years'"
p16
sS'annotations'
p17
(dp18
S'bag_of_words'
p19
(lp20
S'Soccer'
p21
aS'Player'
p22
aS'years'
p23
aS'g'
aS'Year'
p24
asS'chunk_seq'
p25
(lp26
S'B-NP'
p27
aS'I-NP'
p28
aS'E-NP'
p29
aS'B-NP'
p30
aS'E-NP'
p31
asS'dep_seq'
p32
(lp33
(lp34
S'nn'
p35
aS'3'
aS'1'
aa(lp36
S'nn'
p37
aS'3'
aS'2'
aa(lp38
S'root'
p39
aS'0'
aS'3'
aa(lp40
S'poss'
p41
aS'3'
aS'5'
aasS'srls'
p42
(lp43
sS'pos_seq'
p44
(lp45
S'NNP'
p46
aS'NNP'
p47
aS'NNS'
p48
aS'POS'
p49
aS'NN'
p50
asS'ner_seq'
p51
(lp52
S'O'
aS'O'
aS'O'
aS'O'
aS'O'
assb.