ccopy_reg
_reconstructor
p1
(c__main__
KBproperty
p2
c__builtin__
object
p3
NtRp4
(dp5
S'comment'
p6
S'purpose of the rocket'
p7
sS'domain'
p8
S'Rocket '
p9
sS'instances_count'
p10
S'242'
p11
sS'label'
p12
S'rocket function'
p13
sS'range'
p14
S''
sS'prop_uri'
p15
S"'http://dbpedia.org/ontology/rocketFunction'"
p16
sS'annotations'
p17
(dp18
S'bag_of_words'
p19
(lp20
S'Rocket'
p21
aS'rocket'
p22
aS'function'
p23
aS'purpose'
p24
aS'of'
p25
aS'the'
p26
aS'rocket'
p27
asS'chunk_seq'
p28
(lp29
S'B-NP'
p30
aS'I-NP'
p31
aS'I-NP'
p32
aS'E-NP'
p33
aS'S-PP'
p34
aS'B-NP'
p35
aS'E-NP'
p36
asS'dep_seq'
p37
(lp38
(lp39
S'nn'
p40
aS'4'
aS'1'
aa(lp41
S'nn'
p42
aS'4'
aS'2'
aa(lp43
S'nn'
p44
aS'4'
aS'3'
aa(lp45
S'root'
p46
aS'0'
aS'4'
aa(lp47
S'det'
p48
aS'7'
aS'6'
aa(lp49
S'prep_of'
p50
aS'4'
aS'7'
aasS'srls'
p51
(lp52
sS'pos_seq'
p53
(lp54
S'NNP'
p55
aS'NN'
p56
aS'NN'
p57
aS'NN'
p58
aS'IN'
p59
aS'DT'
p60
aS'NN'
p61
asS'ner_seq'
p62
(lp63
S'O'
aS'O'
aS'O'
aS'O'
aS'O'
aS'O'
aS'O'
assb.