ccopy_reg
_reconstructor
p1
(c__main__
KBproperty
p2
c__builtin__
object
p3
NtRp4
(dp5
S'comment'
p6
S"A ship's displacement is its mass at any given time."
p7
sS'domain'
p8
S'Ship '
p9
sS'instances_count'
p10
S'5093'
p11
sS'label'
p12
S'displacement g'
p13
sS'range'
p14
S'double '
p15
sS'prop_uri'
p16
S"'http://dbpedia.org/ontology/shipDisplacement'"
p17
sS'annotations'
p18
(dp19
S'bag_of_words'
p20
(lp21
S'Ship'
p22
aS'displacement'
p23
aS'g'
aS'double'
p24
aS'A'
aS'ship'
p25
aS"'s"
p26
aS'displacement'
p27
aS'is'
p28
aS'its'
p29
aS'mass'
p30
aS'at'
p31
aS'any'
p32
aS'given'
p33
aS'time.'
p34
asS'chunk_seq'
p35
(lp36
S'B-NP'
p37
aS'I-NP'
p38
aS'E-NP'
p39
aS'B-NP'
p40
aS'I-NP'
p41
aS'E-NP'
p42
aS'B-NP'
p43
aS'E-NP'
p44
aS'S-VP'
p45
aS'B-NP'
p46
aS'E-NP'
p47
aS'S-PP'
p48
aS'B-NP'
p49
aS'I-NP'
p50
aS'E-NP'
p51
asS'dep_seq'
p52
(lp53
(lp54
S'nn'
p55
aS'3'
aS'1'
aa(lp56
S'nn'
p57
aS'3'
aS'2'
aa(lp58
S'nn'
p59
aS'8'
aS'3'
aa(lp60
S'advmod'
p61
aS'8'
aS'4'
aa(lp62
S'det'
p63
aS'6'
aS'5'
aa(lp64
S'poss'
p65
aS'8'
aS'6'
aa(lp66
S'nsubj'
p67
aS'11'
p68
aS'8'
aa(lp69
S'cop'
p70
aS'11'
p71
aS'9'
aa(lp72
S'poss'
p73
aS'11'
p74
aS'10'
p75
aa(lp76
S'root'
p77
aS'0'
aS'11'
p78
aa(lp79
S'prep_at'
p80
aS'11'
p81
aS'13'
p82
aa(lp83
S'amod'
p84
aS'13'
p85
aS'14'
p86
aa(lp87
S'punct'
p88
aS'13'
p89
aS'15'
p90
aasS'srls'
p91
(lp92
(dp93
S'A1'
p94
g34
sS'V'
g33
sasS'pos_seq'
p95
(lp96
S'NN'
p97
aS'NN'
p98
aS'NN'
p99
aS'RB'
p100
aS'DT'
p101
aS'NN'
p102
aS'POS'
p103
aS'NN'
p104
aS'VBZ'
p105
aS'PRP$'
p106
aS'NN'
p107
aS'IN'
p108
aS'DT'
p109
aS'VBN'
p110
aS'.'
asS'ner_seq'
p111
(lp112
S'O'
aS'O'
aS'O'
aS'O'
aS'O'
aS'O'
aS'O'
aS'O'
aS'O'
aS'O'
aS'O'
aS'O'
aS'O'
aS'O'
aS'O'
assb.