ccopy_reg
_reconstructor
p1
(c__main__
KBproperty
p2
c__builtin__
object
p3
NtRp4
(dp5
S'comment'
p6
S'The country or other power the person served. Multiple countries may be indicated together with the corresponding dates. This field should not be used to indicate a particular service branch which is better indicated by the branch field.'
p7
sS'domain'
p8
S'Person '
p9
sS'instances_count'
p10
S'19739'
p11
sS'label'
p12
S'allegiance'
p13
sS'range'
p14
S'string '
p15
sS'prop_uri'
p16
S"'http://dbpedia.org/ontology/allegiance'"
p17
sS'annotations'
p18
(dp19
S'bag_of_words'
p20
(lp21
S'Person'
p22
aS'allegiance'
p23
aS'string'
p24
aS'The'
p25
aS'country'
p26
aS'or'
p27
aS'other'
p28
aS'power'
p29
aS'the'
p30
aS'person'
p31
aS'served'
p32
aS'.'
aS'Multiple'
p33
aS'countries'
p34
aS'may'
p35
aS'be'
p36
aS'indicated'
p37
aS'together'
p38
aS'with'
p39
aS'the'
p40
aS'corresponding'
p41
aS'dates'
p42
aS'.'
aS'This'
p43
aS'field'
p44
aS'should'
p45
aS'not'
p46
aS'be'
p47
aS'used'
p48
aS'to'
p49
aS'indicate'
p50
aS'a'
aS'particular'
p51
aS'service'
p52
aS'branch'
p53
aS'which'
p54
aS'is'
p55
aS'better'
p56
aS'indicated'
p57
aS'by'
p58
aS'the'
p59
aS'branch'
p60
aS'field'
p61
aS'.'
asS'chunk_seq'
p62
(lp63
S'B-NP'
p64
aS'I-NP'
p65
aS'E-NP'
p66
aS'B-NP'
p67
aS'E-NP'
p68
aS'O'
aS'B-NP'
p69
aS'E-NP'
p70
aS'B-NP'
p71
aS'E-NP'
p72
aS'S-VP'
p73
aS'O'
aS'B-NP'
p74
aS'E-NP'
p75
aS'B-VP'
p76
aS'I-VP'
p77
aS'E-VP'
p78
aS'S-ADVP'
p79
aS'S-PP'
p80
aS'B-NP'
p81
aS'I-NP'
p82
aS'E-NP'
p83
aS'O'
aS'B-NP'
p84
aS'E-NP'
p85
aS'B-VP'
p86
aS'I-VP'
p87
aS'I-VP'
p88
aS'E-VP'
p89
aS'B-VP'
p90
aS'E-VP'
p91
aS'B-NP'
p92
aS'I-NP'
p93
aS'I-NP'
p94
aS'E-NP'
p95
aS'S-NP'
p96
aS'B-VP'
p97
aS'I-VP'
p98
aS'E-VP'
p99
aS'S-PP'
p100
aS'B-NP'
p101
aS'I-NP'
p102
aS'E-NP'
p103
aS'O'
asS'dep_seq'
p104
(lp105
(lp106
S'nn'
p107
aS'3'
aS'1'
aa(lp108
S'nn'
p109
aS'3'
aS'2'
aa(lp110
S'nsubjpass'
p111
aS'29'
p112
aS'3'
aa(lp113
S'xsubj'
p114
aS'31'
p115
aS'3'
aa(lp116
S'det'
p117
aS'5'
aS'4'
aa(lp118
S'dep'
p119
aS'3'
aS'5'
aa(lp120
S'amod'
p121
aS'8'
aS'7'
aa(lp122
S'conj_or'
p123
aS'5'
aS'8'
aa(lp124
S'dobj'
p125
aS'11'
p126
aS'8'
aa(lp127
S'det'
p128
aS'10'
p129
aS'9'
aa(lp130
S'nsubj'
p131
aS'11'
p132
aS'10'
p133
aa(lp134
S'rcmod'
p135
aS'8'
aS'11'
p136
aa(lp137
S'amod'
p138
aS'14'
p139
aS'13'
p140
aa(lp141
S'nsubjpass'
p142
aS'17'
p143
aS'14'
p144
aa(lp145
S'aux'
p146
aS'17'
p147
aS'15'
p148
aa(lp149
S'auxpass'
p150
aS'17'
p151
aS'16'
p152
aa(lp153
S'ccomp'
p154
aS'29'
p155
aS'17'
p156
aa(lp157
S'det'
p158
aS'22'
p159
aS'20'
p160
aa(lp161
S'amod'
p162
aS'22'
p163
aS'21'
p164
aa(lp165
S'prep_together_with'
p166
aS'17'
p167
aS'22'
p168
aa(lp169
S'det'
p170
aS'25'
p171
aS'24'
p172
aa(lp173
S'nsubjpass'
p174
aS'29'
p175
aS'25'
p176
aa(lp177
S'xsubj'
p178
aS'31'
p179
aS'25'
p180
aa(lp181
S'aux'
p182
aS'29'
p183
aS'26'
p184
aa(lp185
S'neg'
p186
aS'29'
p187
aS'27'
p188
aa(lp189
S'auxpass'
p190
aS'29'
p191
aS'28'
p192
aa(lp193
S'root'
p194
aS'0'
aS'29'
p195
aa(lp196
S'aux'
p197
aS'31'
p198
aS'30'
p199
aa(lp200
S'xcomp'
p201
aS'29'
p202
aS'31'
p203
aa(lp204
S'det'
p205
aS'35'
p206
aS'32'
p207
aa(lp208
S'amod'
p209
aS'35'
p210
aS'33'
p211
aa(lp212
S'nn'
p213
aS'35'
p214
aS'34'
p215
aa(lp216
S'dobj'
p217
aS'31'
p218
aS'35'
p219
aa(lp220
S'nsubjpass'
p221
aS'39'
p222
aS'35'
p223
aa(lp224
S'auxpass'
p225
aS'39'
p226
aS'37'
p227
aa(lp228
S'advmod'
p229
aS'39'
p230
aS'38'
p231
aa(lp232
S'rcmod'
p233
aS'35'
p234
aS'39'
p235
aa(lp236
S'det'
p237
aS'43'
p238
aS'41'
p239
aa(lp240
S'nn'
p241
aS'43'
p242
aS'42'
p243
aa(lp244
S'agent'
p245
aS'39'
p246
aS'43'
p247
aasS'srls'
p248
(lp249
(dp250
S'A0'
p251
S'the person'
p252
sS'V'
g32
sa(dp253
S'A1'
p254
S'Multiple countries'
p255
sS'AM-ADV'
p256
S'with the corresponding dates'
p257
sS'V'
g37
sS'AM-MNR'
p258
g38
sS'AM-MOD'
p259
g35
sa(dp260
S'A1'
p261
S'This field'
p262
sS'V'
g48
sS'A2'
p263
S'to indicate a particular service branch which is better indicated by the branch field'
p264
sS'AM-NEG'
p265
g46
sS'AM-MOD'
p266
g45
sa(dp267
S'A1'
p268
S'a particular service branch which is better indicated by the branch field'
p269
sS'A0'
p270
S'This field'
p271
sS'V'
g50
sa(dp272
S'A1'
p273
S'a particular service branch'
p274
sS'A0'
p275
S'by the branch field'
p276
sS'R-A1'
p277
g54
sS'AM-MNR'
p278
g56
sS'V'
g57
sasS'pos_seq'
p279
(lp280
S'NN'
p281
aS'NN'
p282
aS'NN'
p283
aS'DT'
p284
aS'NN'
p285
aS'CC'
p286
aS'JJ'
p287
aS'NN'
p288
aS'DT'
p289
aS'NN'
p290
aS'VBD'
p291
aS'.'
aS'JJ'
p292
aS'NNS'
p293
aS'MD'
p294
aS'VB'
p295
aS'VBN'
p296
aS'RB'
p297
aS'IN'
p298
aS'DT'
p299
aS'JJ'
p300
aS'NNS'
p301
aS'.'
aS'DT'
p302
aS'NN'
p303
aS'MD'
p304
aS'RB'
p305
aS'VB'
p306
aS'VBN'
p307
aS'TO'
p308
aS'VB'
p309
aS'DT'
p310
aS'JJ'
p311
aS'NN'
p312
aS'NN'
p313
aS'WDT'
p314
aS'VBZ'
p315
aS'RBR'
p316
aS'VBN'
p317
aS'IN'
p318
aS'DT'
p319
aS'NN'
p320
aS'NN'
p321
aS'.'
asS'ner_seq'
p322
(lp323
S'O'
aS'O'
aS'O'
aS'O'
aS'O'
aS'O'
aS'O'
aS'O'
aS'O'
aS'O'
aS'O'
aS'O'
aS'O'
aS'O'
aS'O'
aS'O'
aS'O'
aS'O'
aS'O'
aS'O'
aS'O'
aS'O'
aS'O'
aS'O'
aS'O'
aS'O'
aS'O'
aS'O'
aS'O'
aS'O'
aS'O'
aS'O'
aS'O'
aS'O'
aS'O'
aS'O'
aS'O'
aS'O'
aS'O'
aS'O'
aS'O'
aS'O'
aS'O'
aS'O'
assb.