ccopy_reg
_reconstructor
p1
(c__main__
KBproperty
p2
c__builtin__
object
p3
NtRp4
(dp5
S'comment'
p6
S'Different usage of an airport'
p7
sS'domain'
p8
S'Airport '
p9
sS'instances_count'
p10
S'0'
sS'label'
p11
g7
sS'range'
p12
S'string '
p13
sS'prop_uri'
p14
S"'http://dbpedia.org/ontology/airportUsing'"
p15
sS'annotations'
p16
(dp17
S'bag_of_words'
p18
(lp19
S'Airport'
p20
aS'airport'
p21
aS'Using'
p22
aS'string'
p23
aS'Different'
p24
aS'usage'
p25
aS'of'
p26
aS'an'
p27
aS'airport'
p28
asS'chunk_seq'
p29
(lp30
S'B-NP'
p31
aS'E-NP'
p32
aS'S-VP'
p33
aS'B-NP'
p34
aS'I-NP'
p35
aS'E-NP'
p36
aS'S-PP'
p37
aS'B-NP'
p38
aS'E-NP'
p39
asS'dep_seq'
p40
(lp41
(lp42
S'nn'
p43
aS'2'
aS'1'
aa(lp44
S'root'
p45
aS'0'
aS'2'
aa(lp46
S'dep'
p47
aS'2'
aS'3'
aa(lp48
S'nn'
p49
aS'6'
aS'4'
aa(lp50
S'amod'
p51
aS'6'
aS'5'
aa(lp52
S'dobj'
p53
aS'3'
aS'6'
aa(lp54
S'det'
p55
aS'9'
aS'8'
aa(lp56
S'prep_of'
p57
aS'6'
aS'9'
aasS'srls'
p58
(lp59
(dp60
S'A1'
p61
S'string Different usage of an airport'
p62
sS'A0'
p63
S'Airport airport'
p64
sS'V'
g22
sasS'pos_seq'
p65
(lp66
S'NNP'
p67
aS'NN'
p68
aS'VBG'
p69
aS'NN'
p70
aS'JJ'
p71
aS'NN'
p72
aS'IN'
p73
aS'DT'
p74
aS'NN'
p75
asS'ner_seq'
p76
(lp77
S'S-LOC'
p78
aS'O'
aS'O'
aS'O'
aS'O'
aS'O'
aS'O'
aS'O'
aS'O'
assb.