ccopy_reg
_reconstructor
p1
(c__main__
KBproperty
p2
c__builtin__
object
p3
NtRp4
(dp5
S'comment'
p6
S'The number that an athlete wears in a team sport.'
p7
sS'domain'
p8
S'Sports Team Member '
p9
sS'instances_count'
p10
S'240676'
p11
sS'label'
p12
S'squad number'
p13
sS'range'
p14
S'non Negative Integer '
p15
sS'prop_uri'
p16
S"'http://dbpedia.org/ontology/squadNumber'"
p17
sS'annotations'
p18
(dp19
S'bag_of_words'
p20
(lp21
S'Sports'
p22
aS'Team'
p23
aS'Member'
p24
aS'squad'
p25
aS'number'
p26
aS'non'
p27
aS'Negative'
p28
aS'Integer'
p29
aS'The'
p30
aS'number'
p31
aS'that'
p32
aS'an'
p33
aS'athlete'
p34
aS'wears'
p35
aS'in'
p36
aS'a'
aS'team'
p37
aS'sport'
p38
aS'.'
asS'chunk_seq'
p39
(lp40
S'B-NP'
p41
aS'I-NP'
p42
aS'I-NP'
p43
aS'I-NP'
p44
aS'I-NP'
p45
aS'I-NP'
p46
aS'I-NP'
p47
aS'I-NP'
p48
aS'I-NP'
p49
aS'E-NP'
p50
aS'S-SBAR'
p51
aS'B-NP'
p52
aS'E-NP'
p53
aS'S-VP'
p54
aS'S-PP'
p55
aS'B-NP'
p56
aS'I-NP'
p57
aS'E-NP'
p58
aS'O'
asS'dep_seq'
p59
(lp60
(lp61
S'nn'
p62
aS'5'
aS'1'
aa(lp63
S'nn'
p64
aS'5'
aS'2'
aa(lp65
S'nn'
p66
aS'5'
aS'3'
aa(lp67
S'nn'
p68
aS'5'
aS'4'
aa(lp69
S'root'
p70
aS'0'
aS'5'
aa(lp71
S'amod'
p72
aS'10'
p73
aS'6'
aa(lp74
S'amod'
p75
aS'10'
p76
aS'7'
aa(lp77
S'nn'
p78
aS'10'
p79
aS'8'
aa(lp80
S'det'
p81
aS'10'
p82
aS'9'
aa(lp83
S'dep'
p84
aS'5'
aS'10'
p85
aa(lp86
S'dobj'
p87
aS'14'
p88
aS'10'
p89
aa(lp90
S'rel'
p91
aS'14'
p92
aS'11'
p93
aa(lp94
S'det'
p95
aS'13'
p96
aS'12'
p97
aa(lp98
S'nsubj'
p99
aS'14'
p100
aS'13'
p101
aa(lp102
S'rcmod'
p103
aS'10'
p104
aS'14'
p105
aa(lp106
S'det'
p107
aS'18'
p108
aS'16'
p109
aa(lp110
S'nn'
p111
aS'18'
p112
aS'17'
p113
aa(lp114
S'prep_in'
p115
aS'14'
p116
aS'18'
p117
aasS'srls'
p118
(lp119
(dp120
S'A0'
p121
S'an athlete'
p122
sS'AM-LOC'
p123
S'in a team sport'
p124
sS'V'
g35
sasS'pos_seq'
p125
(lp126
S'NNP'
p127
aS'NNP'
p128
aS'NNP'
p129
aS'NN'
p130
aS'NN'
p131
aS'JJ'
p132
aS'JJ'
p133
aS'NN'
p134
aS'DT'
p135
aS'NN'
p136
aS'IN'
p137
aS'DT'
p138
aS'NN'
p139
aS'VBZ'
p140
aS'IN'
p141
aS'DT'
p142
aS'NN'
p143
aS'NN'
p144
aS'.'
asS'ner_seq'
p145
(lp146
S'B-ORG'
p147
aS'E-ORG'
p148
aS'O'
aS'O'
aS'O'
aS'O'
aS'O'
aS'O'
aS'O'
aS'O'
aS'O'
aS'O'
aS'O'
aS'O'
aS'O'
aS'O'
aS'O'
aS'O'
aS'O'
assb.