ccopy_reg
_reconstructor
p1
(c__main__
KBproperty
p2
c__builtin__
object
p3
NtRp4
(dp5
S'comment'
p6
S'Identifies the founder of the described entity. This can be a person or a organisation for instance.'
p7
sS'domain'
p8
S''
sS'instances_count'
p9
S'12274'
p10
sS'label'
p11
S'founded by'
p12
sS'range'
p13
S'Agent '
p14
sS'prop_uri'
p15
S"'http://dbpedia.org/ontology/foundedBy'"
p16
sS'annotations'
p17
(dp18
S'bag_of_words'
p19
(lp20
S'founded'
p21
aS'by'
p22
aS'Agent'
p23
aS'Identifies'
p24
aS'the'
p25
aS'founder'
p26
aS'of'
p27
aS'the'
p28
aS'described'
p29
aS'entity'
p30
aS'.'
aS'This'
p31
aS'can'
p32
aS'be'
p33
aS'a'
aS'person'
p34
aS'or'
p35
aS'a'
aS'organisation'
p36
aS'for'
p37
aS'instance'
p38
aS'.'
asS'chunk_seq'
p39
(lp40
S'S-VP'
p41
aS'S-PP'
p42
aS'S-NP'
p43
aS'S-VP'
p44
aS'B-NP'
p45
aS'E-NP'
p46
aS'S-PP'
p47
aS'B-NP'
p48
aS'I-NP'
p49
aS'E-NP'
p50
aS'O'
aS'S-NP'
p51
aS'B-VP'
p52
aS'E-VP'
p53
aS'B-NP'
p54
aS'E-NP'
p55
aS'O'
aS'B-NP'
p56
aS'E-NP'
p57
aS'S-PP'
p58
aS'S-NP'
p59
aS'O'
asS'dep_seq'
p60
(lp61
(lp62
S'root'
p63
aS'0'
aS'1'
aa(lp64
S'prep_by'
p65
aS'1'
aS'3'
aa(lp66
S'dep'
p67
aS'1'
aS'4'
aa(lp68
S'det'
p69
aS'6'
aS'5'
aa(lp70
S'dobj'
p71
aS'4'
aS'6'
aa(lp72
S'det'
p73
aS'10'
p74
aS'8'
aa(lp75
S'amod'
p76
aS'10'
p77
aS'9'
aa(lp78
S'prep_of'
p79
aS'6'
aS'10'
p80
aa(lp81
S'nsubj'
p82
aS'1'
aS'12'
p83
aa(lp84
S'aux'
p85
aS'16'
p86
aS'13'
p87
aa(lp88
S'cop'
p89
aS'16'
p90
aS'14'
p91
aa(lp92
S'det'
p93
aS'16'
p94
aS'15'
p95
aa(lp96
S'dep'
p97
aS'1'
aS'16'
p98
aa(lp99
S'det'
p100
aS'19'
p101
aS'18'
p102
aa(lp103
S'conj_or'
p104
aS'16'
p105
aS'19'
p106
aa(lp107
S'prep_for'
p108
aS'16'
p109
aS'21'
p110
aasS'srls'
p111
(lp112
(dp113
S'A0'
p114
S'by Agent  the founder of the described entity'
p115
sS'V'
g21
sa(dp116
S'A1'
p117
S'the founder of the described entity'
p118
sS'A0'
p119
g23
sS'V'
g24
sa(dp120
S'A1'
p121
g30
sS'V'
g29
sasS'pos_seq'
p122
(lp123
S'VBN'
p124
aS'IN'
p125
aS'NN'
p126
aS'VBZ'
p127
aS'DT'
p128
aS'NN'
p129
aS'IN'
p130
aS'DT'
p131
aS'VBN'
p132
aS'NN'
p133
aS'.'
aS'DT'
p134
aS'MD'
p135
aS'VB'
p136
aS'DT'
p137
aS'NN'
p138
aS'CC'
p139
aS'DT'
p140
aS'NN'
p141
aS'IN'
p142
aS'NN'
p143
aS'.'
asS'ner_seq'
p144
(lp145
S'O'
aS'O'
aS'O'
aS'O'
aS'O'
aS'O'
aS'O'
aS'O'
aS'O'
aS'O'
aS'O'
aS'O'
aS'O'
aS'O'
aS'O'
aS'O'
aS'O'
aS'O'
aS'O'
aS'O'
aS'O'
aS'O'
assb.