ccopy_reg
_reconstructor
p1
(c__main__
KBproperty
p2
c__builtin__
object
p3
NtRp4
(dp5
S'comment'
p6
S"element placed above current element in D.I.Mendeleev's table"
p7
sS'domain'
p8
S''
sS'instances_count'
p9
S'0'
sS'label'
p10
S'element above'
p11
sS'range'
p12
S'Chemical Substance '
p13
sS'prop_uri'
p14
S"'http://dbpedia.org/ontology/elementAbove'"
p15
sS'annotations'
p16
(dp17
S'bag_of_words'
p18
(lp19
S'element'
p20
aS'above'
p21
aS'Chemical'
p22
aS'Substance'
p23
aS'element'
p24
aS'placed'
p25
aS'above'
p26
aS'current'
p27
aS'element'
p28
aS'in'
p29
aS'D.'
p30
aS'I.'
p31
aS'Mendeleev'
p32
aS"'s"
p33
aS'table'
p34
asS'chunk_seq'
p35
(lp36
S'S-VP'
p37
aS'S-PP'
p38
aS'B-NP'
p39
aS'I-NP'
p40
aS'E-NP'
p41
aS'S-VP'
p42
aS'S-PP'
p43
aS'B-NP'
p44
aS'E-NP'
p45
aS'S-PP'
p46
aS'B-NP'
p47
aS'I-NP'
p48
aS'E-NP'
p49
aS'B-NP'
p50
aS'E-NP'
p51
asS'dep_seq'
p52
(lp53
(lp54
S'root'
p55
aS'0'
aS'1'
aa(lp56
S'nn'
p57
aS'5'
aS'3'
aa(lp58
S'nn'
p59
aS'5'
aS'4'
aa(lp60
S'prep_above'
p61
aS'1'
aS'5'
aa(lp62
S'partmod'
p63
aS'5'
aS'6'
aa(lp64
S'amod'
p65
aS'9'
aS'8'
aa(lp66
S'prep_above'
p67
aS'6'
aS'9'
aa(lp68
S'nn'
p69
aS'13'
p70
aS'11'
p71
aa(lp72
S'nn'
p73
aS'13'
p74
aS'12'
p75
aa(lp76
S'poss'
p77
aS'15'
p78
aS'13'
p79
aa(lp80
S'prep_in'
p81
aS'6'
aS'15'
p82
aasS'srls'
p83
(lp84
(dp85
S'A1'
p86
S'Chemical Substance element'
p87
sS'AM-LOC'
p88
S"in D. I. Mendeleev 's table"
p89
sS'A2'
p90
S'above current element'
p91
sS'V'
g25
sasS'pos_seq'
p92
(lp93
S'NN'
p94
aS'IN'
p95
aS'NNP'
p96
aS'NNP'
p97
aS'NN'
p98
aS'VBN'
p99
aS'IN'
p100
aS'JJ'
p101
aS'NN'
p102
aS'IN'
p103
aS'NNP'
p104
aS'NNP'
p105
aS'NNP'
p106
aS'POS'
p107
aS'NN'
p108
asS'ner_seq'
p109
(lp110
S'O'
aS'O'
aS'O'
aS'O'
aS'O'
aS'O'
aS'O'
aS'O'
aS'O'
aS'O'
aS'B-PER'
p111
aS'I-PER'
p112
aS'E-PER'
p113
aS'O'
aS'O'
assb.