ccopy_reg
_reconstructor
p1
(c__main__
KBproperty
p2
c__builtin__
object
p3
NtRp4
(dp5
S'comment'
p6
S'A road that crosses another road at the junction.'
p7
sS'domain'
p8
S'Road Junction '
p9
sS'instances_count'
p10
S'132'
p11
sS'label'
p12
S'meeting road'
p13
sS'range'
p14
S'Road '
p15
sS'prop_uri'
p16
S"'http://dbpedia.org/ontology/meetingRoad'"
p17
sS'annotations'
p18
(dp19
S'bag_of_words'
p20
(lp21
S'Road'
p22
aS'Junction'
p23
aS'meeting'
p24
aS'road'
p25
aS'Road'
p26
aS'A'
aS'road'
p27
aS'that'
p28
aS'crosses'
p29
aS'another'
p30
aS'road'
p31
aS'at'
p32
aS'the'
p33
aS'junction'
p34
aS'.'
asS'chunk_seq'
p35
(lp36
S'B-NP'
p37
aS'I-NP'
p38
aS'I-NP'
p39
aS'I-NP'
p40
aS'E-NP'
p41
aS'B-NP'
p42
aS'E-NP'
p43
aS'S-NP'
p44
aS'S-VP'
p45
aS'B-NP'
p46
aS'E-NP'
p47
aS'S-PP'
p48
aS'B-NP'
p49
aS'E-NP'
p50
aS'O'
asS'dep_seq'
p51
(lp52
(lp53
S'nn'
p54
aS'5'
aS'1'
aa(lp55
S'nn'
p56
aS'5'
aS'2'
aa(lp57
S'nn'
p58
aS'5'
aS'3'
aa(lp59
S'nn'
p60
aS'5'
aS'4'
aa(lp61
S'dep'
p62
aS'7'
aS'5'
aa(lp63
S'det'
p64
aS'7'
aS'6'
aa(lp65
S'root'
p66
aS'0'
aS'7'
aa(lp67
S'nsubj'
p68
aS'9'
aS'7'
aa(lp69
S'rcmod'
p70
aS'7'
aS'9'
aa(lp71
S'det'
p72
aS'11'
p73
aS'10'
p74
aa(lp75
S'dobj'
p76
aS'9'
aS'11'
p77
aa(lp78
S'det'
p79
aS'14'
p80
aS'13'
p81
aa(lp82
S'prep_at'
p83
aS'11'
p84
aS'14'
p85
aasS'srls'
p86
(lp87
(dp88
S'A1'
p89
S'another road'
p90
sS'A0'
p91
S'A road'
p92
sS'R-A0'
p93
g28
sS'AM-LOC'
p94
S'at the junction'
p95
sS'V'
g29
sasS'pos_seq'
p96
(lp97
S'NNP'
p98
aS'NNP'
p99
aS'NN'
p100
aS'NN'
p101
aS'NN'
p102
aS'DT'
p103
aS'NN'
p104
aS'WDT'
p105
aS'VBZ'
p106
aS'DT'
p107
aS'NN'
p108
aS'IN'
p109
aS'DT'
p110
aS'NN'
p111
aS'.'
asS'ner_seq'
p112
(lp113
S'B-ORG'
p114
aS'E-ORG'
p115
aS'O'
aS'O'
aS'O'
aS'O'
aS'O'
aS'O'
aS'O'
aS'O'
aS'O'
aS'O'
aS'O'
aS'O'
aS'O'
assb.