ccopy_reg
_reconstructor
p1
(c__main__
KBproperty
p2
c__builtin__
object
p3
NtRp4
(dp5
S'comment'
p6
S'Initial use of the architectural structure.'
p7
sS'domain'
p8
S'Architectural Structure '
p9
sS'instances_count'
p10
S'0'
sS'label'
p11
S'initally used for'
p12
sS'range'
p13
S'string '
p14
sS'prop_uri'
p15
S"'http://dbpedia.org/ontology/initiallyUsedFor'"
p16
sS'annotations'
p17
(dp18
S'bag_of_words'
p19
(lp20
S'Architectural'
p21
aS'Structure'
p22
aS'initally'
p23
aS'used'
p24
aS'for'
p25
aS'string'
p26
aS'Initial'
p27
aS'use'
p28
aS'of'
p29
aS'the'
p30
aS'architectural'
p31
aS'structure'
p32
aS'.'
asS'chunk_seq'
p33
(lp34
S'B-NP'
p35
aS'E-NP'
p36
aS'B-VP'
p37
aS'E-VP'
p38
aS'S-PP'
p39
aS'B-NP'
p40
aS'I-NP'
p41
aS'E-NP'
p42
aS'S-PP'
p43
aS'B-NP'
p44
aS'I-NP'
p45
aS'E-NP'
p46
aS'O'
asS'dep_seq'
p47
(lp48
(lp49
S'amod'
p50
aS'2'
aS'1'
aa(lp51
S'nsubj'
p52
aS'3'
aS'2'
aa(lp53
S'root'
p54
aS'0'
aS'3'
aa(lp55
S'dep'
p56
aS'3'
aS'4'
aa(lp57
S'nn'
p58
aS'8'
aS'6'
aa(lp59
S'amod'
p60
aS'8'
aS'7'
aa(lp61
S'prep_for'
p62
aS'4'
aS'8'
aa(lp63
S'det'
p64
aS'12'
p65
aS'10'
p66
aa(lp67
S'amod'
p68
aS'12'
p69
aS'11'
p70
aa(lp71
S'prep_of'
p72
aS'8'
aS'12'
p73
aasS'srls'
p74
(lp75
(dp76
S'A1'
p77
S'Architectural Structure'
p78
sS'A2'
p79
S'for string Initial use of the architectural structure'
p80
sS'V'
g24
sasS'pos_seq'
p81
(lp82
S'JJ'
p83
aS'NN'
p84
aS'VBD'
p85
aS'VBN'
p86
aS'IN'
p87
aS'NN'
p88
aS'JJ'
p89
aS'NN'
p90
aS'IN'
p91
aS'DT'
p92
aS'JJ'
p93
aS'NN'
p94
aS'.'
asS'ner_seq'
p95
(lp96
S'O'
aS'O'
aS'O'
aS'O'
aS'O'
aS'O'
aS'O'
aS'O'
aS'O'
aS'O'
aS'O'
aS'O'
aS'O'
assb.