ccopy_reg
_reconstructor
p1
(c__main__
KBproperty
p2
c__builtin__
object
p3
NtRp4
(dp5
S'comment'
p6
S''
sS'domain'
p7
S'Record Label '
p8
sS'instances_count'
p9
S'1692'
p10
sS'label'
p11
S'distributing label'
p12
sS'range'
p13
S'Record Label '
p14
sS'prop_uri'
p15
S"'http://dbpedia.org/ontology/distributingLabel'"
p16
sS'annotations'
p17
(dp18
S'bag_of_words'
p19
(lp20
S'Record'
p21
aS'Label'
p22
aS'distributing'
p23
aS'label'
p24
aS'Record'
p25
aS'Label'
p26
asS'chunk_seq'
p27
(lp28
S'B-NP'
p29
aS'E-NP'
p30
aS'S-VP'
p31
aS'B-NP'
p32
aS'I-NP'
p33
aS'E-NP'
p34
asS'dep_seq'
p35
(lp36
(lp37
S'nn'
p38
aS'2'
aS'1'
aa(lp39
S'nsubj'
p40
aS'3'
aS'2'
aa(lp41
S'root'
p42
aS'0'
aS'3'
aa(lp43
S'nn'
p44
aS'6'
aS'4'
aa(lp45
S'nn'
p46
aS'6'
aS'5'
aa(lp47
S'dobj'
p48
aS'3'
aS'6'
aasS'srls'
p49
(lp50
(dp51
S'A1'
p52
S'label Record Label'
p53
sS'A0'
p54
S'Record Label'
p55
sS'V'
g23
sasS'pos_seq'
p56
(lp57
S'NNP'
p58
aS'NNP'
p59
aS'VBG'
p60
aS'NN'
p61
aS'NN'
p62
aS'NN'
p63
asS'ner_seq'
p64
(lp65
S'O'
aS'O'
aS'O'
aS'O'
aS'O'
aS'O'
assb.