ccopy_reg
_reconstructor
p1
(c__main__
KBproperty
p2
c__builtin__
object
p3
NtRp4
(dp5
S'comment'
p6
S'source confluence elevation \\xce\\xbc'
p7
sS'domain'
p8
S''
sS'instances_count'
p9
S'201'
p10
sS'label'
p11
g7
sS'range'
p12
S'double '
p13
sS'prop_uri'
p14
S"'http://dbpedia.org/ontology/sourceConfluenceElevation'"
p15
sS'annotations'
p16
(dp17
S'bag_of_words'
p18
(lp19
S'source'
p20
aS'Confluence'
p21
aS'Elevation'
p22
aS'double'
p23
aS'source'
p24
aS'confluence'
p25
aS'elevation'
p26
aS'\\'
aS'xce'
p27
aS'\\'
aS'xbc'
p28
asS'chunk_seq'
p29
(lp30
S'B-NP'
p31
aS'I-NP'
p32
aS'I-NP'
p33
aS'I-NP'
p34
aS'I-NP'
p35
aS'E-NP'
p36
aS'S-NP'
p37
aS'O'
aS'O'
aS'O'
aS'O'
asS'dep_seq'
p38
(lp39
(lp40
S'nn'
p41
aS'7'
aS'1'
aa(lp42
S'nn'
p43
aS'7'
aS'2'
aa(lp44
S'nn'
p45
aS'7'
aS'3'
aa(lp46
S'amod'
p47
aS'7'
aS'4'
aa(lp48
S'nn'
p49
aS'7'
aS'5'
aa(lp50
S'nn'
p51
aS'7'
aS'6'
aa(lp52
S'root'
p53
aS'0'
aS'7'
aa(lp54
S'nn'
p55
aS'7'
aS'8'
aa(lp56
S'nn'
p57
aS'7'
aS'9'
aa(lp58
S'nn'
p59
aS'7'
aS'10'
p60
aa(lp61
S'dep'
p62
aS'7'
aS'11'
p63
aasS'srls'
p64
(lp65
sS'pos_seq'
p66
(lp67
S'NN'
p68
aS'NN'
p69
aS'NN'
p70
aS'JJ'
p71
aS'NN'
p72
aS'NN'
p73
aS'NN'
p74
aS'FW'
p75
aS'FW'
p76
aS'FW'
p77
aS'FW'
p78
asS'ner_seq'
p79
(lp80
S'O'
aS'O'
aS'O'
aS'O'
aS'O'
aS'O'
aS'O'
aS'O'
aS'O'
aS'O'
aS'O'
assb.