ccopy_reg
_reconstructor
p1
(c__main__
KBproperty
p2
c__builtin__
object
p3
NtRp4
(dp5
S'comment'
p6
S''
sS'domain'
p7
S'Route Of Transportation '
p8
sS'instances_count'
p9
S'582'
p10
sS'label'
p11
S'vehicles per day'
p12
sS'range'
p13
S'non Negative Integer '
p14
sS'prop_uri'
p15
S"'http://dbpedia.org/ontology/vehiclesPerDay'"
p16
sS'annotations'
p17
(dp18
S'bag_of_words'
p19
(lp20
S'Route'
p21
aS'Of'
p22
aS'Transportation'
p23
aS'vehicles'
p24
aS'per'
p25
aS'day'
p26
aS'non'
p27
aS'Negative'
p28
aS'Integer'
p29
asS'chunk_seq'
p30
(lp31
S'S-NP'
p32
aS'S-PP'
p33
aS'B-NP'
p34
aS'E-NP'
p35
aS'S-PP'
p36
aS'B-NP'
p37
aS'I-NP'
p38
aS'I-NP'
p39
aS'E-NP'
p40
asS'dep_seq'
p41
(lp42
(lp43
S'dep'
p44
aS'9'
aS'1'
aa(lp45
S'nn'
p46
aS'4'
aS'3'
aa(lp47
S'prep_of'
p48
aS'1'
aS'4'
aa(lp49
S'prep_per'
p50
aS'1'
aS'6'
aa(lp51
S'advmod'
p52
aS'9'
aS'7'
aa(lp53
S'amod'
p54
aS'9'
aS'8'
aa(lp55
S'root'
p56
aS'0'
aS'9'
aasS'srls'
p57
(lp58
sS'pos_seq'
p59
(lp60
S'NNP'
p61
aS'IN'
p62
aS'NNP'
p63
aS'NNS'
p64
aS'IN'
p65
aS'NN'
p66
aS'RB'
p67
aS'JJ'
p68
aS'NN'
p69
asS'ner_seq'
p70
(lp71
S'B-ORG'
p72
aS'I-ORG'
p73
aS'E-ORG'
p74
aS'O'
aS'O'
aS'O'
aS'O'
aS'O'
aS'O'
assb.