ccopy_reg
_reconstructor
p1
(c__main__
KBproperty
p2
c__builtin__
object
p3
NtRp4
(dp5
S'comment'
p6
S'Creator of the text of a MusicalWork eg Musical Opera or Song'
p7
sS'domain'
p8
S'Musical Work '
p9
sS'instances_count'
p10
S'1910'
p11
sS'label'
p12
S'lyrics'
p13
sS'range'
p14
S'Person '
p15
sS'prop_uri'
p16
S"'http://dbpedia.org/ontology/lyrics'"
p17
sS'annotations'
p18
(dp19
S'bag_of_words'
p20
(lp21
S'Musical'
p22
aS'Work'
p23
aS'lyrics'
p24
aS'Person'
p25
aS'Creator'
p26
aS'of'
p27
aS'the'
p28
aS'text'
p29
aS'of'
p30
aS'a'
aS'MusicalWork'
p31
aS'eg'
p32
aS'Musical'
p33
aS'Opera'
p34
aS'or'
p35
aS'Song'
p36
asS'chunk_seq'
p37
(lp38
S'B-NP'
p39
aS'I-NP'
p40
aS'I-NP'
p41
aS'I-NP'
p42
aS'E-NP'
p43
aS'S-PP'
p44
aS'B-NP'
p45
aS'E-NP'
p46
aS'S-PP'
p47
aS'B-NP'
p48
aS'I-NP'
p49
aS'I-NP'
p50
aS'I-NP'
p51
aS'I-NP'
p52
aS'I-NP'
p53
aS'E-NP'
p54
asS'dep_seq'
p55
(lp56
(lp57
S'amod'
p58
aS'5'
aS'1'
aa(lp59
S'nn'
p60
aS'5'
aS'2'
aa(lp61
S'nn'
p62
aS'5'
aS'3'
aa(lp63
S'nn'
p64
aS'5'
aS'4'
aa(lp65
S'root'
p66
aS'0'
aS'5'
aa(lp67
S'det'
p68
aS'8'
aS'7'
aa(lp69
S'prep_of'
p70
aS'5'
aS'8'
aa(lp71
S'det'
p72
aS'14'
p73
aS'10'
p74
aa(lp75
S'amod'
p76
aS'14'
p77
aS'11'
p78
aa(lp79
S'nn'
p80
aS'14'
p81
aS'12'
p82
aa(lp83
S'nn'
p84
aS'14'
p85
aS'13'
p86
aa(lp87
S'prep_of'
p88
aS'8'
aS'14'
p89
aa(lp90
S'conj_or'
p91
aS'14'
p92
aS'16'
p93
aasS'srls'
p94
(lp95
sS'pos_seq'
p96
(lp97
S'JJ'
p98
aS'NN'
p99
aS'NNS'
p100
aS'NNP'
p101
aS'NNP'
p102
aS'IN'
p103
aS'DT'
p104
aS'NN'
p105
aS'IN'
p106
aS'DT'
p107
aS'JJ'
p108
aS'NN'
p109
aS'NNP'
p110
aS'NNP'
p111
aS'CC'
p112
aS'NN'
p113
asS'ner_seq'
p114
(lp115
S'O'
aS'O'
aS'O'
aS'O'
aS'O'
aS'O'
aS'O'
aS'O'
aS'O'
aS'O'
aS'B-MISC'
p116
aS'I-MISC'
p117
aS'I-MISC'
p118
aS'I-MISC'
p119
aS'I-MISC'
p120
aS'E-MISC'
p121
assb.