ccopy_reg
_reconstructor
p1
(c__main__
KBproperty
p2
c__builtin__
object
p3
NtRp4
(dp5
S'comment'
p6
S'winner of a competition in the double session as in tennis'
p7
sS'domain'
p8
S'Sports Event '
p9
sS'instances_count'
p10
S'0'
sS'label'
p11
S'champion in double'
p12
sS'range'
p13
S'Athlete '
p14
sS'prop_uri'
p15
S"'http://dbpedia.org/ontology/championInDouble'"
p16
sS'annotations'
p17
(dp18
S'bag_of_words'
p19
(lp20
S'Sports'
p21
aS'Event'
p22
aS'champion'
p23
aS'in'
p24
aS'double'
p25
aS'Athlete'
p26
aS'winner'
p27
aS'of'
p28
aS'a'
aS'competition'
p29
aS'in'
p30
aS'the'
p31
aS'double'
p32
aS'session'
p33
aS'as'
p34
aS'in'
p35
aS'tennis'
p36
asS'chunk_seq'
p37
(lp38
S'B-NP'
p39
aS'I-NP'
p40
aS'E-NP'
p41
aS'S-PP'
p42
aS'B-NP'
p43
aS'I-NP'
p44
aS'E-NP'
p45
aS'S-PP'
p46
aS'B-NP'
p47
aS'E-NP'
p48
aS'S-PP'
p49
aS'B-NP'
p50
aS'I-NP'
p51
aS'E-NP'
p52
aS'S-PP'
p53
aS'S-PP'
p54
aS'S-NP'
p55
asS'dep_seq'
p56
(lp57
(lp58
S'nn'
p59
aS'3'
aS'1'
aa(lp60
S'nn'
p61
aS'3'
aS'2'
aa(lp62
S'root'
p63
aS'0'
aS'3'
aa(lp64
S'amod'
p65
aS'7'
aS'5'
aa(lp66
S'nn'
p67
aS'7'
aS'6'
aa(lp68
S'prep_in'
p69
aS'3'
aS'7'
aa(lp70
S'det'
p71
aS'10'
p72
aS'9'
aa(lp73
S'prep_of'
p74
aS'3'
aS'10'
p75
aa(lp76
S'det'
p77
aS'14'
p78
aS'12'
p79
aa(lp80
S'amod'
p81
aS'14'
p82
aS'13'
p83
aa(lp84
S'prep_in'
p85
aS'10'
p86
aS'14'
p87
aa(lp88
S'prep'
p89
aS'10'
p90
aS'15'
p91
aa(lp92
S'pcomp'
p93
aS'15'
p94
aS'16'
p95
aa(lp96
S'pobj'
p97
aS'16'
p98
aS'17'
p99
aasS'srls'
p100
(lp101
sS'pos_seq'
p102
(lp103
S'NNS'
p104
aS'NN'
p105
aS'NN'
p106
aS'IN'
p107
aS'JJ'
p108
aS'NN'
p109
aS'NN'
p110
aS'IN'
p111
aS'DT'
p112
aS'NN'
p113
aS'IN'
p114
aS'DT'
p115
aS'JJ'
p116
aS'NN'
p117
aS'IN'
p118
aS'IN'
p119
aS'NN'
p120
asS'ner_seq'
p121
(lp122
S'O'
aS'O'
aS'O'
aS'O'
aS'O'
aS'O'
aS'O'
aS'O'
aS'O'
aS'O'
aS'O'
aS'O'
aS'O'
aS'O'
aS'O'
aS'O'
aS'O'
assb.