ccopy_reg
_reconstructor
p1
(c__main__
KBproperty
p2
c__builtin__
object
p3
NtRp4
(dp5
S'comment'
p6
S'The price of something eg a journal. For "total money earned by an Athlete" use gross'
p7
sS'domain'
p8
S''
sS'instances_count'
p9
S'0'
sS'label'
p10
S'price $'
p11
sS'range'
p12
S'double '
p13
sS'prop_uri'
p14
S"'http://dbpedia.org/ontology/price'"
p15
sS'annotations'
p16
(dp17
S'bag_of_words'
p18
(lp19
S'price'
p20
aS'$'
aS'double'
p21
aS'The'
p22
aS'price'
p23
aS'of'
p24
aS'something'
p25
aS'eg'
p26
aS'a'
aS'journal'
p27
aS'.'
aS'For'
p28
aS'"'
aS'total'
p29
aS'money'
p30
aS'earned'
p31
aS'by'
p32
aS'an'
p33
aS'Athlete'
p34
aS'"'
aS'use'
p35
aS'gross'
p36
asS'chunk_seq'
p37
(lp38
S'B-NP'
p39
aS'I-NP'
p40
aS'I-NP'
p41
aS'I-NP'
p42
aS'E-NP'
p43
aS'S-PP'
p44
aS'S-NP'
p45
aS'S-PP'
p46
aS'B-NP'
p47
aS'E-NP'
p48
aS'O'
aS'S-PP'
p49
aS'B-NP'
p50
aS'I-NP'
p51
aS'E-NP'
p52
aS'S-VP'
p53
aS'S-PP'
p54
aS'B-NP'
p55
aS'I-NP'
p56
aS'E-NP'
p57
aS'S-VP'
p58
aS'S-ADJP'
p59
asS'dep_seq'
p60
(lp61
(lp62
S'nn'
p63
aS'5'
aS'1'
aa(lp64
S'amod'
p65
aS'5'
aS'2'
aa(lp66
S'dep'
p67
aS'2'
aS'3'
aa(lp68
S'det'
p69
aS'5'
aS'4'
aa(lp70
S'root'
p71
aS'0'
aS'5'
aa(lp72
S'prep_of'
p73
aS'5'
aS'7'
aa(lp74
S'det'
p75
aS'10'
p76
aS'9'
aa(lp77
S'prep_eg'
p78
aS'7'
aS'10'
p79
aa(lp80
S'amod'
p81
aS'15'
p82
aS'13'
p83
aa(lp84
S'amod'
p85
aS'15'
p86
aS'14'
p87
aa(lp88
S'prep_for'
p89
aS'7'
aS'15'
p90
aa(lp91
S'partmod'
p92
aS'15'
p93
aS'16'
p94
aa(lp95
S'det'
p96
aS'19'
p97
aS'18'
p98
aa(lp99
S'agent'
p100
aS'16'
p101
aS'19'
p102
aa(lp103
S'dep'
p104
aS'19'
p105
aS'20'
p106
aa(lp107
S'dep'
p108
aS'19'
p109
aS'21'
p110
aa(lp111
S'amod'
p112
aS'19'
p113
aS'22'
p114
aasS'srls'
p115
(lp116
(dp117
S'A1'
p118
S'" total money'
p119
sS'A0'
p120
S'by an Athlete'
p121
sS'V'
g31
sa(dp122
S'A1'
p123
g36
sS'A3'
p124
S'For " total money'
p125
sS'V'
g35
sasS'pos_seq'
p126
(lp127
S'NN'
p128
aS'$'
aS'JJ'
p129
aS'DT'
p130
aS'NN'
p131
aS'IN'
p132
aS'NN'
p133
aS'IN'
p134
aS'DT'
p135
aS'NN'
p136
aS'.'
aS'IN'
p137
aS'JJ'
p138
aS'JJ'
p139
aS'NN'
p140
aS'VBN'
p141
aS'IN'
p142
aS'DT'
p143
aS'NN'
p144
aS'WDT'
p145
aS'VBP'
p146
aS'JJ'
p147
asS'ner_seq'
p148
(lp149
S'O'
aS'O'
aS'O'
aS'O'
aS'O'
aS'O'
aS'O'
aS'O'
aS'O'
aS'O'
aS'O'
aS'O'
aS'O'
aS'O'
aS'O'
aS'O'
aS'O'
aS'O'
aS'O'
aS'O'
aS'O'
aS'O'
assb.