ccopy_reg
_reconstructor
p1
(c__main__
KBproperty
p2
c__builtin__
object
p3
NtRp4
(dp5
S'comment'
p6
S"the sport specialty the athlete practices e.g. 'Ring' for a men's artistic gymnastics athlete"
p7
sS'domain'
p8
S'Athlete '
p9
sS'instances_count'
p10
S'0'
sS'label'
p11
S'sport specialty'
p12
sS'range'
p13
S'Sport '
p14
sS'prop_uri'
p15
S"'http://dbpedia.org/ontology/sportSpecialty'"
p16
sS'annotations'
p17
(dp18
S'bag_of_words'
p19
(lp20
S'Athlete'
p21
aS'sport'
p22
aS'specialty'
p23
aS'Sport'
p24
aS'the'
p25
aS'sport'
p26
aS'specialty'
p27
aS'the'
p28
aS'athlete'
p29
aS'practices'
p30
aS'e.g.'
p31
aS"'R"
p32
aS'ing'
p33
aS"'"
aS'for'
p34
aS'a'
aS'men'
p35
aS"'s"
p36
aS'artistic'
p37
aS'gymnastics'
p38
aS'athlete'
p39
asS'chunk_seq'
p40
(lp41
S'B-NP'
p42
aS'I-NP'
p43
aS'I-NP'
p44
aS'E-NP'
p45
aS'B-NP'
p46
aS'I-NP'
p47
aS'E-NP'
p48
aS'B-NP'
p49
aS'I-NP'
p50
aS'E-NP'
p51
aS'S-PP'
p52
aS'S-NP'
p53
aS'S-VP'
p54
aS'O'
aS'S-PP'
p55
aS'B-NP'
p56
aS'E-NP'
p57
aS'B-NP'
p58
aS'I-NP'
p59
aS'I-NP'
p60
aS'E-NP'
p61
asS'dep_seq'
p62
(lp63
(lp64
S'nn'
p65
aS'4'
aS'1'
aa(lp66
S'nn'
p67
aS'4'
aS'2'
aa(lp68
S'nn'
p69
aS'4'
aS'3'
aa(lp70
S'dep'
p71
aS'7'
aS'4'
aa(lp72
S'det'
p73
aS'7'
aS'5'
aa(lp74
S'nn'
p75
aS'7'
aS'6'
aa(lp76
S'root'
p77
aS'0'
aS'7'
aa(lp78
S'det'
p79
aS'10'
p80
aS'8'
aa(lp81
S'nn'
p82
aS'10'
p83
aS'9'
aa(lp84
S'dep'
p85
aS'7'
aS'10'
p86
aa(lp87
S'prep_e.g.'
p88
aS'7'
aS'12'
p89
aa(lp90
S'amod'
p91
aS'12'
p92
aS'13'
p93
aa(lp94
S'det'
p95
aS'17'
p96
aS'16'
p97
aa(lp98
S'poss'
p99
aS'21'
p100
aS'17'
p101
aa(lp102
S'amod'
p103
aS'21'
p104
aS'19'
p105
aa(lp106
S'nn'
p107
aS'21'
p108
aS'20'
p109
aa(lp110
S'prep_for'
p111
aS'7'
aS'21'
p112
aasS'srls'
p113
(lp114
sS'pos_seq'
p115
(lp116
S'NN'
p117
aS'NN'
p118
aS'NN'
p119
aS'NNP'
p120
aS'DT'
p121
aS'NN'
p122
aS'NN'
p123
aS'DT'
p124
aS'NN'
p125
aS'NNS'
p126
aS'IN'
p127
aS'NNP'
p128
aS'VBG'
p129
aS"''"
p130
aS'IN'
p131
aS'DT'
p132
aS'NNS'
p133
aS'POS'
p134
aS'JJ'
p135
aS'NNS'
p136
aS'NN'
p137
asS'ner_seq'
p138
(lp139
S'O'
aS'O'
aS'O'
aS'S-ORG'
p140
aS'O'
aS'O'
aS'O'
aS'O'
aS'O'
aS'O'
aS'O'
aS'O'
aS'O'
aS'O'
aS'O'
aS'O'
aS'O'
aS'O'
aS'O'
aS'O'
aS'O'
assb.