ccopy_reg
_reconstructor
p1
(c__main__
KBproperty
p2
c__builtin__
object
p3
NtRp4
(dp5
S'comment'
p6
S'distance to Dublin \\xce\\xbc'
p7
sS'domain'
p8
S'Settlement '
p9
sS'instances_count'
p10
S'5'
sS'label'
p11
g7
sS'range'
p12
S'double '
p13
sS'prop_uri'
p14
S"'http://dbpedia.org/ontology/distanceToDublin'"
p15
sS'annotations'
p16
(dp17
S'bag_of_words'
p18
(lp19
S'Settlement'
p20
aS'distance'
p21
aS'To'
p22
aS'Dublin'
p23
aS'double'
p24
aS'distance'
p25
aS'to'
p26
aS'Dublin'
p27
aS'\\'
aS'xce'
p28
aS'\\'
aS'xbc'
p29
asS'chunk_seq'
p30
(lp31
S'B-NP'
p32
aS'E-NP'
p33
aS'S-PP'
p34
aS'B-NP'
p35
aS'I-NP'
p36
aS'E-NP'
p37
aS'S-PP'
p38
aS'S-NP'
p39
aS'O'
aS'O'
aS'O'
aS'O'
asS'dep_seq'
p40
(lp41
(lp42
S'nn'
p43
aS'2'
aS'1'
aa(lp44
S'root'
p45
aS'0'
aS'2'
aa(lp46
S'nn'
p47
aS'6'
aS'4'
aa(lp48
S'amod'
p49
aS'6'
aS'5'
aa(lp50
S'prep_to'
p51
aS'2'
aS'6'
aa(lp52
S'prep_to'
p53
aS'2'
aS'8'
aa(lp54
S'dep'
p55
aS'2'
aS'9'
aa(lp56
S'dep'
p57
aS'12'
p58
aS'10'
p59
aa(lp60
S'dep'
p61
aS'12'
p62
aS'11'
p63
aa(lp64
S'dep'
p65
aS'9'
aS'12'
p66
aasS'srls'
p67
(lp68
sS'pos_seq'
p69
(lp70
S'NN'
p71
aS'NN'
p72
aS'TO'
p73
aS'NNP'
p74
aS'JJ'
p75
aS'NN'
p76
aS'TO'
p77
aS'NNP'
p78
aS'FW'
p79
aS'FW'
p80
aS'FW'
p81
aS'FW'
p82
asS'ner_seq'
p83
(lp84
S'O'
aS'O'
aS'O'
aS'S-LOC'
p85
aS'O'
aS'O'
aS'O'
aS'S-LOC'
p86
aS'O'
aS'O'
aS'O'
aS'O'
assb.