ccopy_reg
_reconstructor
p1
(c__main__
KBproperty
p2
c__builtin__
object
p3
NtRp4
(dp5
S'comment'
p6
S''
sS'domain'
p7
S''
sS'instances_count'
p8
S'254'
p9
sS'label'
p10
S'date of abandonment'
p11
sS'range'
p12
S'date '
p13
sS'prop_uri'
p14
S"'http://dbpedia.org/ontology/dateOfAbandonment'"
p15
sS'annotations'
p16
(dp17
S'bag_of_words'
p18
(lp19
S'date'
p20
aS'of'
p21
aS'abandonment'
p22
aS'date'
p23
asS'chunk_seq'
p24
(lp25
S'S-NP'
p26
aS'S-PP'
p27
aS'B-NP'
p28
aS'E-NP'
p29
asS'dep_seq'
p30
(lp31
(lp32
S'root'
p33
aS'0'
aS'1'
aa(lp34
S'prep_of'
p35
aS'1'
aS'3'
aa(lp36
S'dep'
p37
aS'1'
aS'4'
aasS'srls'
p38
(lp39
sS'pos_seq'
p40
(lp41
S'NN'
p42
aS'IN'
p43
aS'NN'
p44
aS'NN'
p45
asS'ner_seq'
p46
(lp47
S'O'
aS'O'
aS'O'
aS'O'
assb.