ccopy_reg
_reconstructor
p1
(c__main__
KBproperty
p2
c__builtin__
object
p3
NtRp4
(dp5
S'comment'
p6
S'The area of the thing in square meters.'
p7
sS'domain'
p8
S''
sS'instances_count'
p9
S'68566'
p10
sS'label'
p11
S'area m2'
p12
sS'range'
p13
S'double '
p14
sS'prop_uri'
p15
S"'http://dbpedia.org/ontology/area'"
p16
sS'annotations'
p17
(dp18
S'bag_of_words'
p19
(lp20
S'area'
p21
aS'm2'
p22
aS'double'
p23
aS'The'
p24
aS'area'
p25
aS'of'
p26
aS'the'
p27
aS'thing'
p28
aS'in'
p29
aS'square'
p30
aS'meters'
p31
aS'.'
asS'chunk_seq'
p32
(lp33
S'B-NP'
p34
aS'I-NP'
p35
aS'I-NP'
p36
aS'I-NP'
p37
aS'E-NP'
p38
aS'S-PP'
p39
aS'B-NP'
p40
aS'E-NP'
p41
aS'S-PP'
p42
aS'B-NP'
p43
aS'E-NP'
p44
aS'O'
asS'dep_seq'
p45
(lp46
(lp47
S'root'
p48
aS'0'
aS'1'
aa(lp49
S'advmod'
p50
aS'5'
aS'2'
aa(lp51
S'advmod'
p52
aS'5'
aS'3'
aa(lp53
S'det'
p54
aS'5'
aS'4'
aa(lp55
S'dobj'
p56
aS'1'
aS'5'
aa(lp57
S'det'
p58
aS'8'
aS'7'
aa(lp59
S'prep_of'
p60
aS'5'
aS'8'
aa(lp61
S'nn'
p62
aS'11'
p63
aS'10'
p64
aa(lp65
S'prep_in'
p66
aS'5'
aS'11'
p67
aasS'srls'
p68
(lp69
sS'pos_seq'
p70
(lp71
S'NN'
p72
aS'RB'
p73
aS'RB'
p74
aS'DT'
p75
aS'NN'
p76
aS'IN'
p77
aS'DT'
p78
aS'NN'
p79
aS'IN'
p80
aS'NN'
p81
aS'NNS'
p82
aS'.'
asS'ner_seq'
p83
(lp84
S'O'
aS'O'
aS'O'
aS'O'
aS'O'
aS'O'
aS'O'
aS'O'
aS'O'
aS'O'
aS'O'
aS'O'
assb.