ccopy_reg
_reconstructor
p1
(c__main__
KBproperty
p2
c__builtin__
object
p3
NtRp4
(dp5
S'comment'
p6
S'An influential wealthy person who supported an artist craftsman a scholar or a noble.. See also'
p7
sS'domain'
p8
S'Agent '
p9
sS'instances_count'
p10
S'0'
sS'label'
p11
S'patron art'
p12
sS'range'
p13
S'Artist '
p14
sS'prop_uri'
p15
S"'http://dbpedia.org/ontology/artPatron'"
p16
sS'annotations'
p17
(dp18
S'bag_of_words'
p19
(lp20
S'Agent'
p21
aS'patron'
p22
aS'art'
p23
aS'Artist'
p24
aS'An'
p25
aS'influential'
p26
aS'wealthy'
p27
aS'person'
p28
aS'who'
p29
aS'supported'
p30
aS'an'
p31
aS'artist'
p32
aS'craftsman'
p33
aS'a'
aS'scholar'
p34
aS'or'
p35
aS'a'
aS'noble'
p36
aS'..'
p37
aS'See'
p38
aS'also'
p39
asS'chunk_seq'
p40
(lp41
S'B-NP'
p42
aS'I-NP'
p43
aS'I-NP'
p44
aS'E-NP'
p45
aS'B-NP'
p46
aS'I-NP'
p47
aS'I-NP'
p48
aS'E-NP'
p49
aS'S-NP'
p50
aS'S-VP'
p51
aS'B-NP'
p52
aS'I-NP'
p53
aS'E-NP'
p54
aS'B-NP'
p55
aS'E-NP'
p56
aS'O'
aS'O'
aS'O'
aS'O'
aS'S-VP'
p57
aS'S-ADVP'
p58
asS'dep_seq'
p59
(lp60
(lp61
S'nn'
p62
aS'4'
aS'1'
aa(lp63
S'nn'
p64
aS'4'
aS'2'
aa(lp65
S'nn'
p66
aS'4'
aS'3'
aa(lp67
S'root'
p68
aS'0'
aS'4'
aa(lp69
S'det'
p70
aS'8'
aS'5'
aa(lp71
S'amod'
p72
aS'8'
aS'6'
aa(lp73
S'amod'
p74
aS'8'
aS'7'
aa(lp75
S'dep'
p76
aS'4'
aS'8'
aa(lp77
S'nsubj'
p78
aS'10'
p79
aS'8'
aa(lp80
S'rcmod'
p81
aS'8'
aS'10'
p82
aa(lp83
S'det'
p84
aS'13'
p85
aS'11'
p86
aa(lp87
S'nn'
p88
aS'13'
p89
aS'12'
p90
aa(lp91
S'iobj'
p92
aS'10'
p93
aS'13'
p94
aa(lp95
S'det'
p96
aS'15'
p97
aS'14'
p98
aa(lp99
S'dobj'
p100
aS'10'
p101
aS'15'
p102
aa(lp103
S'det'
p104
aS'18'
p105
aS'17'
p106
aa(lp107
S'conj_or'
p108
aS'15'
p109
aS'18'
p110
aa(lp111
S'punct'
p112
aS'8'
aS'19'
p113
aa(lp114
S'dep'
p115
aS'8'
aS'20'
p116
aa(lp117
S'advmod'
p118
aS'4'
aS'21'
p119
aasS'srls'
p120
(lp121
(dp122
S'A1'
p123
S'an artist craftsman a scholar or a noble'
p124
sS'A0'
p125
S'An influential wealthy person'
p126
sS'R-A0'
p127
g29
sS'V'
g30
sasS'pos_seq'
p128
(lp129
S'NN'
p130
aS'NN'
p131
aS'NN'
p132
aS'NNP'
p133
aS'DT'
p134
aS'JJ'
p135
aS'JJ'
p136
aS'NN'
p137
aS'WP'
p138
aS'VBD'
p139
aS'DT'
p140
aS'NN'
p141
aS'NN'
p142
aS'DT'
p143
aS'NN'
p144
aS'CC'
p145
aS'DT'
p146
aS'JJ'
p147
aS':'
aS'VB'
p148
aS'RB'
p149
asS'ner_seq'
p150
(lp151
S'O'
aS'O'
aS'O'
aS'O'
aS'O'
aS'O'
aS'O'
aS'O'
aS'O'
aS'O'
aS'O'
aS'O'
aS'O'
aS'O'
aS'O'
aS'O'
aS'O'
aS'O'
aS'O'
aS'O'
aS'O'
assb.