ccopy_reg
_reconstructor
p1
(c__main__
KBproperty
p2
c__builtin__
object
p3
NtRp4
(dp5
S'comment'
p6
S'A religious administrative body needs to know which places of worship it'
p7
sS'domain'
p8
S'Clerical Administrative Region '
p9
sS'instances_count'
p10
S'0'
sS'label'
p11
S'place of worship'
p12
sS'range'
p13
S'Church '
p14
sS'prop_uri'
p15
S"'http://dbpedia.org/ontology/placeOfWorship'"
p16
sS'annotations'
p17
(dp18
S'bag_of_words'
p19
(lp20
S'Clerical'
p21
aS'Administrative'
p22
aS'Region'
p23
aS'place'
p24
aS'of'
p25
aS'worship'
p26
aS'Church'
p27
aS'A'
aS'religious'
p28
aS'administrative'
p29
aS'body'
p30
aS'needs'
p31
aS'to'
p32
aS'know'
p33
aS'which'
p34
aS'places'
p35
aS'of'
p36
aS'worship'
p37
aS'it'
p38
asS'chunk_seq'
p39
(lp40
S'B-NP'
p41
aS'I-NP'
p42
aS'I-NP'
p43
aS'E-NP'
p44
aS'S-PP'
p45
aS'B-NP'
p46
aS'E-NP'
p47
aS'B-NP'
p48
aS'I-NP'
p49
aS'I-NP'
p50
aS'E-NP'
p51
aS'S-VP'
p52
aS'B-VP'
p53
aS'E-VP'
p54
aS'S-NP'
p55
aS'S-NP'
p56
aS'S-PP'
p57
aS'S-NP'
p58
aS'S-NP'
p59
asS'dep_seq'
p60
(lp61
(lp62
S'nn'
p63
aS'4'
aS'1'
aa(lp64
S'nn'
p65
aS'4'
aS'2'
aa(lp66
S'nn'
p67
aS'4'
aS'3'
aa(lp68
S'dep'
p69
aS'13'
p70
aS'4'
aa(lp71
S'dep'
p72
aS'13'
p73
aS'5'
aa(lp74
S'nn'
p75
aS'7'
aS'6'
aa(lp76
S'pobj'
p77
aS'5'
aS'7'
aa(lp78
S'det'
p79
aS'11'
p80
aS'8'
aa(lp81
S'amod'
p82
aS'11'
p83
aS'9'
aa(lp84
S'amod'
p85
aS'11'
p86
aS'10'
p87
aa(lp88
S'dep'
p89
aS'13'
p90
aS'11'
p91
aa(lp92
S'dep'
p93
aS'13'
p94
aS'12'
p95
aa(lp96
S'root'
p97
aS'0'
aS'13'
p98
aa(lp99
S'dep'
p100
aS'13'
p101
aS'14'
p102
aa(lp103
S'dep'
p104
aS'13'
p105
aS'15'
p106
aa(lp107
S'dep'
p108
aS'15'
p109
aS'16'
p110
aa(lp111
S'prep_of'
p112
aS'16'
p113
aS'18'
p114
aa(lp115
S'dep'
p116
aS'13'
p117
aS'19'
p118
aasS'srls'
p119
(lp120
(dp121
S'A0'
p122
S'Clerical Administrative Region place of worship Church A religious administrative body'
p123
sS'AM-PNC'
p124
S'to know which places of worship it'
p125
sS'V'
g31
sa(dp126
S'A1'
p127
S'which places of worship it'
p128
sS'A0'
p129
S'A religious administrative body'
p130
sS'V'
g33
sasS'pos_seq'
p131
(lp132
S'NNP'
p133
aS'NNP'
p134
aS'NNP'
p135
aS'NN'
p136
aS'IN'
p137
aS'NN'
p138
aS'NN'
p139
aS'DT'
p140
aS'JJ'
p141
aS'JJ'
p142
aS'NN'
p143
aS'VBZ'
p144
aS'TO'
p145
aS'VB'
p146
aS'WDT'
p147
aS'NNS'
p148
aS'IN'
p149
aS'NN'
p150
aS'PRP'
p151
asS'ner_seq'
p152
(lp153
S'O'
aS'B-MISC'
p154
aS'E-MISC'
p155
aS'O'
aS'O'
aS'O'
aS'O'
aS'O'
aS'O'
aS'O'
aS'O'
aS'O'
aS'O'
aS'O'
aS'O'
aS'O'
aS'O'
aS'O'
aS'O'
assb.