ccopy_reg
_reconstructor
p1
(c__main__
KBproperty
p2
c__builtin__
object
p3
NtRp4
(dp5
S'comment'
p6
S'A colour represented by a string holding its name e.g.: red or green.'
p7
sS'domain'
p8
S''
sS'instances_count'
p9
S'7768'
p10
sS'label'
p11
S'colour name'
p12
sS'range'
p13
S'lang String '
p14
sS'prop_uri'
p15
S"'http://dbpedia.org/ontology/colourName'"
p16
sS'annotations'
p17
(dp18
S'bag_of_words'
p19
(lp20
S'colour'
p21
aS'name'
p22
aS'lang'
p23
aS'String'
p24
aS'A'
aS'colour'
p25
aS'represented'
p26
aS'by'
p27
aS'a'
aS'string'
p28
aS'holding'
p29
aS'its'
p30
aS'name'
p31
aS'e.g.'
p32
aS':'
aS'red'
p33
aS'or'
p34
aS'green'
p35
aS'.'
asS'chunk_seq'
p36
(lp37
S'B-NP'
p38
aS'E-NP'
p39
aS'B-NP'
p40
aS'E-NP'
p41
aS'B-NP'
p42
aS'E-NP'
p43
aS'S-VP'
p44
aS'S-PP'
p45
aS'B-NP'
p46
aS'E-NP'
p47
aS'S-VP'
p48
aS'B-NP'
p49
aS'E-NP'
p50
aS'S-ADVP'
p51
aS'O'
aS'B-NP'
p52
aS'I-NP'
p53
aS'E-NP'
p54
aS'O'
asS'dep_seq'
p55
(lp56
(lp57
S'nn'
p58
aS'6'
aS'1'
aa(lp59
S'nn'
p60
aS'6'
aS'2'
aa(lp61
S'amod'
p62
aS'6'
aS'3'
aa(lp63
S'nn'
p64
aS'6'
aS'4'
aa(lp65
S'det'
p66
aS'6'
aS'5'
aa(lp67
S'nsubj'
p68
aS'7'
aS'6'
aa(lp69
S'root'
p70
aS'0'
aS'7'
aa(lp71
S'det'
p72
aS'10'
p73
aS'9'
aa(lp74
S'prep_by'
p75
aS'7'
aS'10'
p76
aa(lp77
S'partmod'
p78
aS'10'
p79
aS'11'
p80
aa(lp81
S'poss'
p82
aS'13'
p83
aS'12'
p84
aa(lp85
S'dobj'
p86
aS'11'
p87
aS'13'
p88
aa(lp89
S'advmod'
p90
aS'11'
p91
aS'14'
p92
aa(lp93
S'dep'
p94
aS'11'
p95
aS'16'
p96
aa(lp97
S'conj_or'
p98
aS'16'
p99
aS'18'
p100
aasS'srls'
p101
(lp102
(dp103
S'A1'
p104
g24
sS'V'
g23
sa(dp105
S'A1'
p106
S'A colour'
p107
sS'A0'
p108
S'by a string holding its name e.g.'
p109
sS'V'
g26
sa(dp110
S'A1'
p111
S'its name'
p112
sS'AM-MNR'
p113
S'string e.g.'
p114
sS'V'
g29
sasS'pos_seq'
p115
(lp116
S'NN'
p117
aS'NN'
p118
aS'VBG'
p119
aS'NN'
p120
aS'DT'
p121
aS'NN'
p122
aS'VBN'
p123
aS'IN'
p124
aS'DT'
p125
aS'NN'
p126
aS'VBG'
p127
aS'PRP$'
p128
aS'NN'
p129
aS'RB'
p130
aS':'
aS'JJ'
p131
aS'CC'
p132
aS'JJ'
p133
aS'.'
asS'ner_seq'
p134
(lp135
S'O'
aS'O'
aS'B-PER'
p136
aS'E-PER'
p137
aS'O'
aS'O'
aS'O'
aS'O'
aS'O'
aS'O'
aS'O'
aS'O'
aS'O'
aS'O'
aS'O'
aS'O'
aS'O'
aS'O'
aS'O'
assb.