ccopy_reg
_reconstructor
p1
(c__main__
KBproperty
p2
c__builtin__
object
p3
NtRp4
(dp5
S'comment'
p6
S''
sS'domain'
p7
S'Architectural Structure '
p8
sS'instances_count'
p9
S'2074'
p10
sS'label'
p11
S'rebuilding year'
p12
sS'range'
p13
S'g Year '
p14
sS'prop_uri'
p15
S"'http://dbpedia.org/ontology/rebuildingYear'"
p16
sS'annotations'
p17
(dp18
S'bag_of_words'
p19
(lp20
S'Architectural'
p21
aS'Structure'
p22
aS'rebuilding'
p23
aS'year'
p24
aS'g'
aS'Year'
p25
asS'chunk_seq'
p26
(lp27
S'B-NP'
p28
aS'E-NP'
p29
aS'S-VP'
p30
aS'B-NP'
p31
aS'I-NP'
p32
aS'E-NP'
p33
asS'dep_seq'
p34
(lp35
(lp36
S'amod'
p37
aS'2'
aS'1'
aa(lp38
S'root'
p39
aS'0'
aS'2'
aa(lp40
S'partmod'
p41
aS'2'
aS'3'
aa(lp42
S'nn'
p43
aS'6'
aS'4'
aa(lp44
S'num'
p45
aS'6'
aS'5'
aa(lp46
S'tmod'
p47
aS'3'
aS'6'
aasS'srls'
p48
(lp49
(dp50
S'A0'
p51
S'Architectural Structure'
p52
sS'AM-TMP'
p53
S'year g Year'
p54
sS'V'
g23
sasS'pos_seq'
p55
(lp56
S'JJ'
p57
aS'NN'
p58
aS'VBG'
p59
aS'NN'
p60
aS'CD'
p61
aS'NN'
p62
asS'ner_seq'
p63
(lp64
S'O'
aS'O'
aS'O'
aS'O'
aS'O'
aS'O'
assb.