ccopy_reg
_reconstructor
p1
(c__main__
KBproperty
p2
c__builtin__
object
p3
NtRp4
(dp5
S'comment'
p6
S''
sS'domain'
p7
S''
sS'instances_count'
p8
S'13913'
p9
sS'label'
p10
S'preceded by'
p11
sS'range'
p12
S''
sS'prop_uri'
p13
S"'http://dbpedia.org/property/precededBy'"
p14
sS'annotations'
p15
(dp16
S'bag_of_words'
p17
(lp18
S'preceded'
p19
aS'by'
p20
asS'chunk_seq'
p21
(lp22
S'S-VP'
p23
aS'S-PP'
p24
asS'dep_seq'
p25
(lp26
(lp27
S'root'
p28
aS'0'
aS'1'
aa(lp29
S'prep'
p30
aS'1'
aS'2'
aasS'srls'
p31
(lp32
(dp33
S'A2'
p34
g20
sS'V'
g19
sasS'pos_seq'
p35
(lp36
S'VBN'
p37
aS'IN'
p38
asS'ner_seq'
p39
(lp40
S'O'
aS'O'
assb.