ccopy_reg
_reconstructor
p1
(c__main__
KBproperty
p2
c__builtin__
object
p3
NtRp4
(dp5
S'comment'
p6
S'A file contained in a gallery'
p7
sS'domain'
p8
S'Document '
p9
sS'instances_count'
p10
S'0'
sS'label'
p11
S'gallery item'
p12
sS'range'
p13
S'File '
p14
sS'prop_uri'
p15
S"'http://dbpedia.org/ontology/galleryItem'"
p16
sS'annotations'
p17
(dp18
S'bag_of_words'
p19
(lp20
S'Document'
p21
aS'gallery'
p22
aS'item'
p23
aS'File'
p24
aS'A'
aS'file'
p25
aS'contained'
p26
aS'in'
p27
aS'a'
aS'gallery'
p28
asS'chunk_seq'
p29
(lp30
S'B-NP'
p31
aS'I-NP'
p32
aS'I-NP'
p33
aS'E-NP'
p34
aS'B-NP'
p35
aS'E-NP'
p36
aS'S-VP'
p37
aS'S-PP'
p38
aS'B-NP'
p39
aS'E-NP'
p40
asS'dep_seq'
p41
(lp42
(lp43
S'nn'
p44
aS'4'
aS'1'
aa(lp45
S'nn'
p46
aS'4'
aS'2'
aa(lp47
S'nn'
p48
aS'4'
aS'3'
aa(lp49
S'root'
p50
aS'0'
aS'4'
aa(lp51
S'dobj'
p52
aS'7'
aS'4'
aa(lp53
S'nn'
p54
aS'6'
aS'5'
aa(lp55
S'nsubj'
p56
aS'7'
aS'6'
aa(lp57
S'rcmod'
p58
aS'4'
aS'7'
aa(lp59
S'det'
p60
aS'10'
p61
aS'9'
aa(lp62
S'prep_in'
p63
aS'7'
aS'10'
p64
aasS'srls'
p65
(lp66
(dp67
S'A0'
p68
S'A file'
p69
sS'AM-LOC'
p70
S'in a gallery'
p71
sS'V'
g26
sasS'pos_seq'
p72
(lp73
S'NN'
p74
aS'NN'
p75
aS'NN'
p76
aS'NNP'
p77
aS'NNP'
p78
aS'NN'
p79
aS'VBN'
p80
aS'IN'
p81
aS'DT'
p82
aS'NN'
p83
asS'ner_seq'
p84
(lp85
S'O'
aS'O'
aS'O'
aS'O'
aS'O'
aS'O'
aS'O'
aS'O'
aS'O'
aS'O'
assb.