ccopy_reg
_reconstructor
p1
(c__main__
KBproperty
p2
c__builtin__
object
p3
NtRp4
(dp5
S'comment'
p6
S''
sS'domain'
p7
S'Bridge '
p8
sS'instances_count'
p9
S'3641'
p10
sS'label'
p11
S'crosses'
p12
sS'range'
p13
S'River '
p14
sS'prop_uri'
p15
S"'http://dbpedia.org/ontology/crosses'"
p16
sS'annotations'
p17
(dp18
S'bag_of_words'
p19
(lp20
S'Bridge'
p21
aS'crosses'
p22
aS'River'
p23
asS'chunk_seq'
p24
(lp25
S'S-NP'
p26
aS'S-VP'
p27
aS'O'
asS'dep_seq'
p28
(lp29
(lp30
S'nsubj'
p31
aS'2'
aS'1'
aa(lp32
S'root'
p33
aS'0'
aS'2'
aa(lp34
S'dobj'
p35
aS'2'
aS'3'
aasS'srls'
p36
(lp37
(dp38
S'A1'
p39
g23
sS'A0'
p40
g21
sS'V'
g22
sasS'pos_seq'
p41
(lp42
S'NN'
p43
aS'VBZ'
p44
aS'NN'
p45
asS'ner_seq'
p46
(lp47
S'O'
aS'O'
aS'S-LOC'
p48
assb.