ccopy_reg
_reconstructor
p1
(c__main__
KBproperty
p2
c__builtin__
object
p3
NtRp4
(dp5
S'comment'
p6
S"For compilation albums: the person or entity responsible for selecting the album's track listing."
p7
sS'domain'
p8
S'Album '
p9
sS'instances_count'
p10
S'295'
p11
sS'label'
p12
S'compiler'
p13
sS'range'
p14
S'Person '
p15
sS'prop_uri'
p16
S"'http://dbpedia.org/ontology/compiler'"
p17
sS'annotations'
p18
(dp19
S'bag_of_words'
p20
(lp21
S'Album'
p22
aS'compiler'
p23
aS'Person'
p24
aS'For'
p25
aS'compilation'
p26
aS'albums'
p27
aS':'
aS'the'
p28
aS'person'
p29
aS'or'
p30
aS'entity'
p31
aS'responsible'
p32
aS'for'
p33
aS'selecting'
p34
aS'the'
p35
aS'album'
p36
aS"'s"
p37
aS'track'
p38
aS'listing'
p39
aS'.'
asS'chunk_seq'
p40
(lp41
S'B-NP'
p42
aS'I-NP'
p43
aS'E-NP'
p44
aS'S-PP'
p45
aS'B-NP'
p46
aS'E-NP'
p47
aS'O'
aS'B-NP'
p48
aS'I-NP'
p49
aS'I-NP'
p50
aS'E-NP'
p51
aS'S-ADJP'
p52
aS'S-PP'
p53
aS'S-VP'
p54
aS'B-NP'
p55
aS'E-NP'
p56
aS'B-NP'
p57
aS'I-NP'
p58
aS'E-NP'
p59
aS'O'
asS'dep_seq'
p60
(lp61
(lp62
S'nn'
p63
aS'3'
aS'1'
aa(lp64
S'nn'
p65
aS'3'
aS'2'
aa(lp66
S'root'
p67
aS'0'
aS'3'
aa(lp68
S'nn'
p69
aS'6'
aS'5'
aa(lp70
S'prep_for'
p71
aS'3'
aS'6'
aa(lp72
S'det'
p73
aS'9'
aS'8'
aa(lp74
S'dep'
p75
aS'3'
aS'9'
aa(lp76
S'conj_or'
p77
aS'9'
aS'11'
p78
aa(lp79
S'amod'
p80
aS'9'
aS'12'
p81
aa(lp82
S'prepc_for'
p83
aS'12'
p84
aS'14'
p85
aa(lp86
S'det'
p87
aS'16'
p88
aS'15'
p89
aa(lp90
S'poss'
p91
aS'19'
p92
aS'16'
p93
aa(lp94
S'nn'
p95
aS'19'
p96
aS'18'
p97
aa(lp98
S'dobj'
p99
aS'14'
p100
aS'19'
p101
aasS'srls'
p102
(lp103
(dp104
S'A1'
p105
S"the album 's track listing"
p106
sS'A0'
p107
S'the person or entity'
p108
sS'V'
g34
sasS'pos_seq'
p109
(lp110
S'NN'
p111
aS'NN'
p112
aS'NN'
p113
aS'IN'
p114
aS'NN'
p115
aS'NNS'
p116
aS':'
aS'DT'
p117
aS'NN'
p118
aS'CC'
p119
aS'NN'
p120
aS'JJ'
p121
aS'IN'
p122
aS'VBG'
p123
aS'DT'
p124
aS'NN'
p125
aS'POS'
p126
aS'NN'
p127
aS'NN'
p128
aS'.'
asS'ner_seq'
p129
(lp130
S'O'
aS'O'
aS'O'
aS'O'
aS'O'
aS'O'
aS'O'
aS'O'
aS'O'
aS'O'
aS'O'
aS'O'
aS'O'
aS'O'
aS'O'
aS'O'
aS'O'
aS'O'
aS'O'
aS'O'
assb.