ccopy_reg
_reconstructor
p1
(c__main__
KBproperty
p2
c__builtin__
object
p3
NtRp4
(dp5
S'comment'
p6
S'UN/LOCODE the United Nations Code for Trade and Transport Locations is a geographic coding scheme developed and maintained by United Nations Economic Commission for Europe UNECE a unit of the United Nations. UN/LOCODE assigns codes to locations used in trade and transport  with functions such as seaports rail and road terminals airports post offices and border crossing points.'
p7
sS'domain'
p8
S'Place '
p9
sS'instances_count'
p10
S'0'
sS'label'
p11
S'UN/LOCODE'
p12
sS'range'
p13
S'string '
p14
sS'prop_uri'
p15
S"'http://dbpedia.org/ontology/unloCode'"
p16
sS'annotations'
p17
(dp18
S'bag_of_words'
p19
(lp20
S'Place'
p21
aS'UN'
p22
aS'/'
aS'LOCODE'
p23
aS'string'
p24
aS'UN'
p25
aS'/'
aS'LOCODE'
p26
aS'the'
p27
aS'United'
p28
aS'Nations'
p29
aS'Code'
p30
aS'for'
p31
aS'Trade'
p32
aS'and'
p33
aS'Transport'
p34
aS'Locations'
p35
aS'is'
p36
aS'a'
aS'geographic'
p37
aS'coding'
p38
aS'scheme'
p39
aS'developed'
p40
aS'and'
p41
aS'maintained'
p42
aS'by'
p43
aS'United'
p44
aS'Nations'
p45
aS'Economic'
p46
aS'Commission'
p47
aS'for'
p48
aS'Europe'
p49
aS'UNECE'
p50
aS'a'
aS'unit'
p51
aS'of'
p52
aS'the'
p53
aS'United'
p54
aS'Nations'
p55
aS'.'
aS'UN'
p56
aS'/'
aS'LOCODE'
p57
aS'assigns'
p58
aS'codes'
p59
aS'to'
p60
aS'locations'
p61
aS'used'
p62
aS'in'
p63
aS'trade'
p64
aS'and'
p65
aS'transport'
p66
aS'with'
p67
aS'functions'
p68
aS'such'
p69
aS'as'
p70
aS'seaports'
p71
aS'rail'
p72
aS'and'
p73
aS'road'
p74
aS'terminals'
p75
aS'airports'
p76
aS'post'
p77
aS'offices'
p78
aS'and'
p79
aS'border'
p80
aS'crossing'
p81
aS'points'
p82
aS'.'
asS'chunk_seq'
p83
(lp84
S'S-NP'
p85
aS'B-NP'
p86
aS'I-NP'
p87
aS'I-NP'
p88
aS'I-NP'
p89
aS'E-NP'
p90
aS'O'
aS'S-NP'
p91
aS'B-NP'
p92
aS'I-NP'
p93
aS'I-NP'
p94
aS'E-NP'
p95
aS'S-PP'
p96
aS'B-NP'
p97
aS'I-NP'
p98
aS'I-NP'
p99
aS'E-NP'
p100
aS'S-VP'
p101
aS'B-NP'
p102
aS'I-NP'
p103
aS'I-NP'
p104
aS'E-NP'
p105
aS'B-VP'
p106
aS'I-VP'
p107
aS'E-VP'
p108
aS'S-PP'
p109
aS'B-NP'
p110
aS'I-NP'
p111
aS'I-NP'
p112
aS'E-NP'
p113
aS'S-PP'
p114
aS'S-NP'
p115
aS'B-NP'
p116
aS'I-NP'
p117
aS'E-NP'
p118
aS'S-PP'
p119
aS'B-NP'
p120
aS'I-NP'
p121
aS'E-NP'
p122
aS'O'
aS'S-NP'
p123
aS'O'
aS'S-NP'
p124
aS'S-VP'
p125
aS'S-NP'
p126
aS'S-PP'
p127
aS'S-NP'
p128
aS'S-VP'
p129
aS'S-PP'
p130
aS'B-NP'
p131
aS'I-NP'
p132
aS'E-NP'
p133
aS'S-PP'
p134
aS'S-NP'
p135
aS'B-PP'
p136
aS'E-PP'
p137
aS'B-NP'
p138
aS'E-NP'
p139
aS'O'
aS'B-NP'
p140
aS'E-NP'
p141
aS'S-NP'
p142
aS'S-VP'
p143
aS'B-NP'
p144
aS'I-NP'
p145
aS'I-NP'
p146
aS'I-NP'
p147
aS'E-NP'
p148
aS'O'
asS'dep_seq'
p149
(lp150
(lp151
S'nn'
p152
aS'6'
aS'1'
aa(lp153
S'nn'
p154
aS'6'
aS'2'
aa(lp155
S'punct'
p156
aS'6'
aS'3'
aa(lp157
S'amod'
p158
aS'6'
aS'4'
aa(lp159
S'nn'
p160
aS'6'
aS'5'
aa(lp161
S'nn'
p162
aS'8'
aS'6'
aa(lp163
S'punct'
p164
aS'8'
aS'7'
aa(lp165
S'nsubj'
p166
aS'22'
p167
aS'8'
aa(lp168
S'det'
p169
aS'12'
p170
aS'9'
aa(lp171
S'nn'
p172
aS'12'
p173
aS'10'
p174
aa(lp175
S'nn'
p176
aS'12'
p177
aS'11'
p178
aa(lp179
S'dep'
p180
aS'8'
aS'12'
p181
aa(lp182
S'prep_for'
p183
aS'8'
aS'14'
p184
aa(lp185
S'nn'
p186
aS'17'
p187
aS'16'
p188
aa(lp189
S'conj_and'
p190
aS'14'
p191
aS'17'
p192
aa(lp193
S'cop'
p194
aS'22'
p195
aS'18'
p196
aa(lp197
S'det'
p198
aS'22'
p199
aS'19'
p200
aa(lp201
S'amod'
p202
aS'22'
p203
aS'20'
p204
aa(lp205
S'nn'
p206
aS'22'
p207
aS'21'
p208
aa(lp209
S'csubj'
p210
aS'63'
p211
aS'22'
p212
aa(lp213
S'partmod'
p214
aS'22'
p215
aS'23'
p216
aa(lp217
S'conj_and'
p218
aS'23'
p219
aS'25'
p220
aa(lp221
S'nn'
p222
aS'30'
p223
aS'27'
p224
aa(lp225
S'nn'
p226
aS'30'
p227
aS'28'
p228
aa(lp229
S'nn'
p230
aS'30'
p231
aS'29'
p232
aa(lp233
S'agent'
p234
aS'23'
p235
aS'30'
p236
aa(lp237
S'nn'
p238
aS'33'
p239
aS'32'
p240
aa(lp241
S'prep_for'
p242
aS'22'
p243
aS'33'
p244
aa(lp245
S'det'
p246
aS'35'
p247
aS'34'
p248
aa(lp249
S'dep'
p250
aS'22'
p251
aS'35'
p252
aa(lp253
S'det'
p254
aS'43'
p255
aS'37'
p256
aa(lp257
S'nn'
p258
aS'43'
p259
aS'38'
p260
aa(lp261
S'nn'
p262
aS'43'
p263
aS'39'
p264
aa(lp265
S'nn'
p266
aS'43'
p267
aS'41'
p268
aa(lp269
S'punct'
p270
aS'43'
p271
aS'42'
p272
aa(lp273
S'prep_of'
p274
aS'35'
p275
aS'43'
p276
aa(lp277
S'dep'
p278
aS'22'
p279
aS'44'
p280
aa(lp281
S'dobj'
p282
aS'44'
p283
aS'45'
p284
aa(lp285
S'prep_to'
p286
aS'45'
p287
aS'47'
p288
aa(lp289
S'partmod'
p290
aS'47'
p291
aS'48'
p292
aa(lp293
S'prep_in'
p294
aS'48'
p295
aS'50'
p296
aa(lp297
S'conj_and'
p298
aS'50'
p299
aS'52'
p300
aa(lp301
S'prep_with'
p302
aS'50'
p303
aS'54'
p304
aa(lp305
S'nn'
p306
aS'58'
p307
aS'57'
p308
aa(lp309
S'prep_such_as'
p310
aS'54'
p311
aS'58'
p312
aa(lp313
S'nn'
p314
aS'62'
p315
aS'60'
p316
aa(lp317
S'nn'
p318
aS'62'
p319
aS'61'
p320
aa(lp321
S'conj_and'
p322
aS'58'
p323
aS'62'
p324
aa(lp325
S'root'
p326
aS'0'
aS'63'
p327
aa(lp328
S'dobj'
p329
aS'63'
p330
aS'64'
p331
aa(lp332
S'nn'
p333
aS'68'
p334
aS'66'
p335
aa(lp336
S'nn'
p337
aS'68'
p338
aS'67'
p339
aa(lp340
S'conj_and'
p341
aS'64'
p342
aS'68'
p343
aasS'srls'
p344
(lp345
(dp346
S'A1'
p347
S'a geographic coding scheme'
p348
sS'V'
g40
sa(dp349
S'A1'
p350
S'a geographic coding scheme'
p351
sS'A0'
p352
S'by United Nations Economic Commission'
p353
sS'V'
g42
sa(dp354
S'A1'
p355
g59
sS'A0'
p356
S'UN / LOCODE'
p357
sS'A2'
p358
S'to locations used in trade and transport with functions such as seaports rail and road terminals airports post offices and border crossing points'
p359
sS'V'
g58
sa(dp360
S'A1'
p361
g61
sS'V'
g62
sa(dp362
S'A1'
p363
g78
sS'A0'
p364
g76
sS'V'
g77
sasS'pos_seq'
p365
(lp366
S'NNP'
p367
aS'NNP'
p368
aS':'
aS'JJ'
p369
aS'NN'
p370
aS'NNP'
p371
aS':'
aS'NNP'
p372
aS'DT'
p373
aS'NNP'
p374
aS'NNPS'
p375
aS'NNP'
p376
aS'IN'
p377
aS'NNP'
p378
aS'CC'
p379
aS'NNP'
p380
aS'NNPS'
p381
aS'VBZ'
p382
aS'DT'
p383
aS'JJ'
p384
aS'NN'
p385
aS'NN'
p386
aS'VBN'
p387
aS'CC'
p388
aS'VBN'
p389
aS'IN'
p390
aS'NNP'
p391
aS'NNPS'
p392
aS'NNP'
p393
aS'NNP'
p394
aS'IN'
p395
aS'NNP'
p396
aS'NNP'
p397
aS'DT'
p398
aS'NN'
p399
aS'IN'
p400
aS'DT'
p401
aS'NNP'
p402
aS'NNPS'
p403
aS'.'
aS'NNP'
p404
aS':'
aS'NNP'
p405
aS'VBZ'
p406
aS'NNS'
p407
aS'TO'
p408
aS'NNS'
p409
aS'VBN'
p410
aS'IN'
p411
aS'NN'
p412
aS'CC'
p413
aS'NN'
p414
aS'IN'
p415
aS'NNS'
p416
aS'JJ'
p417
aS'IN'
p418
aS'NNS'
p419
aS'NN'
p420
aS'CC'
p421
aS'NN'
p422
aS'NNS'
p423
aS'NNS'
p424
aS'VBP'
p425
aS'NNS'
p426
aS'CC'
p427
aS'NN'
p428
aS'NN'
p429
aS'NNS'
p430
aS'.'
asS'ner_seq'
p431
(lp432
S'O'
aS'O'
aS'O'
aS'O'
aS'O'
aS'B-ORG'
p433
aS'I-ORG'
p434
aS'E-ORG'
p435
aS'O'
aS'B-ORG'
p436
aS'I-ORG'
p437
aS'I-ORG'
p438
aS'I-ORG'
p439
aS'I-ORG'
p440
aS'I-ORG'
p441
aS'I-ORG'
p442
aS'E-ORG'
p443
aS'O'
aS'O'
aS'O'
aS'O'
aS'O'
aS'O'
aS'O'
aS'O'
aS'O'
aS'B-ORG'
p444
aS'I-ORG'
p445
aS'I-ORG'
p446
aS'I-ORG'
p447
aS'I-ORG'
p448
aS'I-ORG'
p449
aS'E-ORG'
p450
aS'O'
aS'O'
aS'O'
aS'O'
aS'B-ORG'
p451
aS'E-ORG'
p452
aS'O'
aS'B-MISC'
p453
aS'I-MISC'
p454
aS'E-MISC'
p455
aS'O'
aS'O'
aS'O'
aS'O'
aS'O'
aS'O'
aS'O'
aS'O'
aS'O'
aS'O'
aS'O'
aS'O'
aS'O'
aS'O'
aS'O'
aS'O'
aS'O'
aS'O'
aS'O'
aS'O'
aS'O'
aS'O'
aS'O'
aS'O'
aS'O'
aS'O'
assb.