ccopy_reg
_reconstructor
p1
(c__main__
KBproperty
p2
c__builtin__
object
p3
NtRp4
(dp5
S'comment'
p6
S'population percentage male'
p7
sS'domain'
p8
S'Populated Place '
p9
sS'instances_count'
p10
S'0'
sS'label'
p11
g7
sS'range'
p12
S'non Negative Integer '
p13
sS'prop_uri'
p14
S"'http://dbpedia.org/ontology/populationPctMen'"
p15
sS'annotations'
p16
(dp17
S'bag_of_words'
p18
(lp19
S'Populated'
p20
aS'Place'
p21
aS'population'
p22
aS'Pct'
p23
aS'Men'
p24
aS'non'
p25
aS'Negative'
p26
aS'Integer'
p27
aS'population'
p28
aS'percentage'
p29
aS'male'
p30
asS'chunk_seq'
p31
(lp32
S'B-NP'
p33
aS'I-NP'
p34
aS'E-NP'
p35
aS'B-NP'
p36
aS'E-NP'
p37
aS'B-NP'
p38
aS'I-NP'
p39
aS'I-NP'
p40
aS'I-NP'
p41
aS'I-NP'
p42
aS'E-NP'
p43
asS'dep_seq'
p44
(lp45
(lp46
S'amod'
p47
aS'2'
aS'1'
aa(lp48
S'root'
p49
aS'0'
aS'2'
aa(lp50
S'dep'
p51
aS'2'
aS'3'
aa(lp52
S'nn'
p53
aS'5'
aS'4'
aa(lp54
S'iobj'
p55
aS'3'
aS'5'
aa(lp56
S'possessive'
p57
aS'11'
p58
aS'6'
aa(lp59
S'nn'
p60
aS'11'
p61
aS'7'
aa(lp62
S'nn'
p63
aS'11'
p64
aS'8'
aa(lp65
S'nn'
p66
aS'11'
p67
aS'9'
aa(lp68
S'nn'
p69
aS'11'
p70
aS'10'
p71
aa(lp72
S'dobj'
p73
aS'3'
aS'11'
p74
aasS'srls'
p75
(lp76
sS'pos_seq'
p77
(lp78
S'JJ'
p79
aS'NN'
p80
aS'NN'
p81
aS'NNP'
p82
aS'NNP'
p83
aS'POS'
p84
aS'NNP'
p85
aS'NNP'
p86
aS'NN'
p87
aS'NN'
p88
aS'NN'
p89
asS'ner_seq'
p90
(lp91
S'O'
aS'O'
aS'O'
aS'O'
aS'O'
aS'O'
aS'B-MISC'
p92
aS'E-MISC'
p93
aS'O'
aS'O'
aS'O'
assb.