ccopy_reg
_reconstructor
p1
(c__main__
KBproperty
p2
c__builtin__
object
p3
NtRp4
(dp5
S'comment'
p6
S'CODEN is a six character alphanumeric bibliographic code that provides concise unique and unambiguous identification of the titles of serials and non-serial publications from all subject areas.'
p7
sS'domain'
p8
S'Written Work '
p9
sS'instances_count'
p10
S'2010'
p11
sS'label'
p12
S'CODEN'
p13
sS'range'
p14
S'string '
p15
sS'prop_uri'
p16
S"'http://dbpedia.org/ontology/coden'"
p17
sS'annotations'
p18
(dp19
S'bag_of_words'
p20
(lp21
S'Written'
p22
aS'Work'
p23
aS'CODEN'
p24
aS'string'
p25
aS'CODEN'
p26
aS'is'
p27
aS'a'
aS'six'
p28
aS'character'
p29
aS'alphanumeric'
p30
aS'bibliographic'
p31
aS'code'
p32
aS'that'
p33
aS'provides'
p34
aS'concise'
p35
aS'unique'
p36
aS'and'
p37
aS'unambiguous'
p38
aS'identification'
p39
aS'of'
p40
aS'the'
p41
aS'titles'
p42
aS'of'
p43
aS'serials'
p44
aS'and'
p45
aS'non-'
p46
aS'serial'
p47
aS'publications'
p48
aS'from'
p49
aS'all'
p50
aS'subject'
p51
aS'areas'
p52
aS'.'
asS'chunk_seq'
p53
(lp54
S'B-NP'
p55
aS'I-NP'
p56
aS'I-NP'
p57
aS'I-NP'
p58
aS'E-NP'
p59
aS'S-VP'
p60
aS'B-NP'
p61
aS'I-NP'
p62
aS'I-NP'
p63
aS'I-NP'
p64
aS'I-NP'
p65
aS'E-NP'
p66
aS'S-NP'
p67
aS'S-VP'
p68
aS'B-NP'
p69
aS'I-NP'
p70
aS'I-NP'
p71
aS'I-NP'
p72
aS'E-NP'
p73
aS'S-PP'
p74
aS'B-NP'
p75
aS'E-NP'
p76
aS'S-PP'
p77
aS'B-NP'
p78
aS'I-NP'
p79
aS'I-NP'
p80
aS'I-NP'
p81
aS'E-NP'
p82
aS'S-PP'
p83
aS'B-NP'
p84
aS'I-NP'
p85
aS'E-NP'
p86
aS'O'
asS'dep_seq'
p87
(lp88
(lp89
S'nn'
p90
aS'5'
aS'1'
aa(lp91
S'nn'
p92
aS'5'
aS'2'
aa(lp93
S'nn'
p94
aS'5'
aS'3'
aa(lp95
S'nn'
p96
aS'5'
aS'4'
aa(lp97
S'nsubj'
p98
aS'12'
p99
aS'5'
aa(lp100
S'cop'
p101
aS'12'
p102
aS'6'
aa(lp103
S'det'
p104
aS'12'
p105
aS'7'
aa(lp106
S'num'
p107
aS'12'
p108
aS'8'
aa(lp109
S'nn'
p110
aS'12'
p111
aS'9'
aa(lp112
S'amod'
p113
aS'12'
p114
aS'10'
p115
aa(lp116
S'amod'
p117
aS'12'
p118
aS'11'
p119
aa(lp120
S'root'
p121
aS'0'
aS'12'
p122
aa(lp123
S'nsubj'
p124
aS'14'
p125
aS'12'
p126
aa(lp127
S'rcmod'
p128
aS'12'
p129
aS'14'
p130
aa(lp131
S'dep'
p132
aS'16'
p133
aS'15'
p134
aa(lp135
S'amod'
p136
aS'19'
p137
aS'16'
p138
aa(lp139
S'conj_and'
p140
aS'16'
p141
aS'18'
p142
aa(lp143
S'dobj'
p144
aS'14'
p145
aS'19'
p146
aa(lp147
S'det'
p148
aS'22'
p149
aS'21'
p150
aa(lp151
S'prep_of'
p152
aS'19'
p153
aS'22'
p154
aa(lp155
S'prep_of'
p156
aS'22'
p157
aS'24'
p158
aa(lp159
S'amod'
p160
aS'28'
p161
aS''
aa(lp162
S'amod'
p163
aS'28'
p164
aS'27'
p165
aa(lp166
S'conj_and'
p167
aS'24'
p168
aS'28'
p169
aa(lp170
S'det'
p171
aS'32'
p172
aS'30'
p173
aa(lp174
S'amod'
p175
aS'32'
p176
aS'31'
p177
aa(lp178
S'prep_from'
p179
aS'19'
p180
aS'32'
p181
aasS'srls'
p182
(lp183
(dp184
S'A1'
p185
S'concise unique and unambiguous identification of the titles of serials and non- serial publications'
p186
sS'A0'
p187
S'a six character alphanumeric bibliographic code'
p188
sS'A2'
p189
S'from all subject areas'
p190
sS'R-A0'
p191
g33
sS'V'
g34
sasS'pos_seq'
p192
(lp193
S'NNP'
p194
aS'NNP'
p195
aS'NNP'
p196
aS'NN'
p197
aS'NNP'
p198
aS'VBZ'
p199
aS'DT'
p200
aS'CD'
p201
aS'NN'
p202
aS'JJ'
p203
aS'JJ'
p204
aS'NN'
p205
aS'WDT'
p206
aS'VBZ'
p207
aS'JJ'
p208
aS'JJ'
p209
aS'CC'
p210
aS'JJ'
p211
aS'NN'
p212
aS'IN'
p213
aS'DT'
p214
aS'NNS'
p215
aS'IN'
p216
aS'NNS'
p217
aS'CC'
p218
aS'JJ'
p219
aS'JJ'
p220
aS'NNS'
p221
aS'IN'
p222
aS'DT'
p223
aS'JJ'
p224
aS'NNS'
p225
aS'.'
asS'ner_seq'
p226
(lp227
S'O'
aS'O'
aS'S-ORG'
p228
aS'O'
aS'S-LOC'
p229
aS'O'
aS'O'
aS'O'
aS'O'
aS'O'
aS'O'
aS'O'
aS'O'
aS'O'
aS'O'
aS'O'
aS'O'
aS'O'
aS'O'
aS'O'
aS'O'
aS'O'
aS'O'
aS'O'
aS'O'
aS'O'
aS'O'
aS'O'
aS'O'
aS'O'
aS'O'
aS'O'
aS'O'
assb.