ccopy_reg
_reconstructor
p1
(c__main__
KBproperty
p2
c__builtin__
object
p3
NtRp4
(dp5
S'comment'
p6
S"Address of something as literal. Usually Building but we also use it for the address of a Region's or Settlement's government"
p7
sS'domain'
p8
S''
sS'instances_count'
p9
S'52662'
p10
sS'label'
p11
S'address'
p12
sS'range'
p13
S'lang String '
p14
sS'prop_uri'
p15
S"'http://dbpedia.org/ontology/address'"
p16
sS'annotations'
p17
(dp18
S'bag_of_words'
p19
(lp20
S'address'
p21
aS'lang'
p22
aS'String'
p23
aS'Address'
p24
aS'of'
p25
aS'something'
p26
aS'as'
p27
aS'literal'
p28
aS'.'
aS'Usually'
p29
aS'Building'
p30
aS'but'
p31
aS'we'
p32
aS'also'
p33
aS'use'
p34
aS'it'
p35
aS'for'
p36
aS'the'
p37
aS'address'
p38
aS'of'
p39
aS'a'
aS'Region'
p40
aS"'s"
p41
aS'or'
p42
aS'Settlement'
p43
aS"'s"
p44
aS'government'
p45
asS'chunk_seq'
p46
(lp47
S'B-NP'
p48
aS'I-NP'
p49
aS'I-NP'
p50
aS'E-NP'
p51
aS'S-PP'
p52
aS'S-NP'
p53
aS'S-PP'
p54
aS'S-ADJP'
p55
aS'O'
aS'S-ADVP'
p56
aS'S-VP'
p57
aS'O'
aS'S-NP'
p58
aS'S-ADVP'
p59
aS'S-VP'
p60
aS'S-NP'
p61
aS'S-PP'
p62
aS'B-NP'
p63
aS'E-NP'
p64
aS'S-PP'
p65
aS'B-NP'
p66
aS'E-NP'
p67
aS'S-NP'
p68
aS'O'
aS'S-NP'
p69
aS'B-NP'
p70
aS'E-NP'
p71
asS'dep_seq'
p72
(lp73
(lp74
S'dep'
p75
aS'8'
aS'1'
aa(lp76
S'dep'
p77
aS'8'
aS'2'
aa(lp78
S'dep'
p79
aS'2'
aS'3'
aa(lp80
S'dep'
p81
aS'3'
aS'4'
aa(lp82
S'prep_of'
p83
aS'3'
aS'6'
aa(lp84
S'dep'
p85
aS'8'
aS'7'
aa(lp86
S'root'
p87
aS'0'
aS'8'
aa(lp88
S'advmod'
p89
aS'11'
p90
aS'10'
p91
aa(lp92
S'dep'
p93
aS'8'
aS'11'
p94
aa(lp95
S'nsubj'
p96
aS'15'
p97
aS'13'
p98
aa(lp99
S'advmod'
p100
aS'15'
p101
aS'14'
p102
aa(lp103
S'conj_but'
p104
aS'8'
aS'15'
p105
aa(lp106
S'dobj'
p107
aS'15'
p108
aS'16'
p109
aa(lp110
S'det'
p111
aS'19'
p112
aS'18'
p113
aa(lp114
S'prep_for'
p115
aS'15'
p116
aS'19'
p117
aa(lp118
S'det'
p119
aS'22'
p120
aS'21'
p121
aa(lp122
S'prep_of'
p123
aS'19'
p124
aS'22'
p125
aa(lp126
S'possessive'
p127
aS'22'
p128
aS'23'
p129
aa(lp130
S'poss'
p131
aS'27'
p132
aS'25'
p133
aa(lp134
S'conj_or'
p135
aS'22'
p136
aS'27'
p137
aasS'srls'
p138
(lp139
(dp140
S'A1'
p141
S'String Address'
p142
sS'V'
g22
sa(dp143
S'AM-TMP'
p144
g29
sS'V'
g30
sa(dp145
S'A1'
p146
g35
sS'A0'
p147
g32
sS'AM-DIS'
p148
g33
sS'A2'
p149
S"for the address of a Region 's or Settlement 's government"
p150
sS'V'
g34
sasS'pos_seq'
p151
(lp152
S'NN'
p153
aS'VBG'
p154
aS'NNP'
p155
aS'NNP'
p156
aS'IN'
p157
aS'NN'
p158
aS'IN'
p159
aS'JJ'
p160
aS'.'
aS'RB'
p161
aS'VBG'
p162
aS'CC'
p163
aS'PRP'
p164
aS'RB'
p165
aS'VBP'
p166
aS'PRP'
p167
aS'IN'
p168
aS'DT'
p169
aS'NN'
p170
aS'IN'
p171
aS'DT'
p172
aS'NNP'
p173
aS'POS'
p174
aS'CC'
p175
aS'NNP'
p176
aS'POS'
p177
aS'NN'
p178
asS'ner_seq'
p179
(lp180
S'O'
aS'O'
aS'O'
aS'O'
aS'O'
aS'O'
aS'O'
aS'O'
aS'O'
aS'O'
aS'O'
aS'O'
aS'O'
aS'O'
aS'O'
aS'O'
aS'O'
aS'O'
aS'O'
aS'O'
aS'O'
aS'O'
aS'O'
aS'O'
aS'O'
aS'O'
aS'O'
assb.