ccopy_reg
_reconstructor
p1
(c__main__
KBproperty
p2
c__builtin__
object
p3
NtRp4
(dp5
S'comment'
p6
S''
sS'domain'
p7
S'Formula One Racing '
p8
sS'instances_count'
p9
S'0'
sS'label'
p10
S'number of laps'
p11
sS'range'
p12
S'non Negative Integer '
p13
sS'prop_uri'
p14
S"'http://dbpedia.org/ontology/numberOfLaps'"
p15
sS'annotations'
p16
(dp17
S'bag_of_words'
p18
(lp19
S'Formula'
p20
aS'One'
p21
aS'Racing'
p22
aS'number'
p23
aS'of'
p24
aS'laps'
p25
aS'non'
p26
aS'Negative'
p27
aS'Integer'
p28
asS'chunk_seq'
p29
(lp30
S'B-NP'
p31
aS'I-NP'
p32
aS'I-NP'
p33
aS'E-NP'
p34
aS'S-PP'
p35
aS'S-NP'
p36
aS'B-NP'
p37
aS'I-NP'
p38
aS'E-NP'
p39
asS'dep_seq'
p40
(lp41
(lp42
S'root'
p43
aS'0'
aS'1'
aa(lp44
S'num'
p45
aS'4'
aS'2'
aa(lp46
S'nn'
p47
aS'4'
aS'3'
aa(lp48
S'dobj'
p49
aS'1'
aS'4'
aa(lp50
S'prep_of'
p51
aS'4'
aS'6'
aa(lp52
S'amod'
p53
aS'9'
aS'7'
aa(lp54
S'amod'
p55
aS'9'
aS'8'
aa(lp56
S'dep'
p57
aS'4'
aS'9'
aasS'srls'
p58
(lp59
sS'pos_seq'
p60
(lp61
S'NN'
p62
aS'CD'
p63
aS'NNP'
p64
aS'NN'
p65
aS'IN'
p66
aS'NNS'
p67
aS'JJ'
p68
aS'JJ'
p69
aS'NN'
p70
asS'ner_seq'
p71
(lp72
S'O'
aS'O'
aS'O'
aS'O'
aS'O'
aS'O'
aS'O'
aS'O'
aS'O'
assb.