ccopy_reg
_reconstructor
p1
(c__main__
KBproperty
p2
c__builtin__
object
p3
NtRp4
(dp5
S'comment'
p6
S'Type is too general. We should be able to distinguish types of music from types of architecture'
p7
sS'domain'
p8
S'Musical Work '
p9
sS'instances_count'
p10
S'0'
sS'label'
p11
S'musicType'
p12
sS'range'
p13
S''
sS'prop_uri'
p14
S"'http://dbpedia.org/ontology/musicType'"
p15
sS'annotations'
p16
(dp17
S'bag_of_words'
p18
(lp19
S'Musical'
p20
aS'Work'
p21
aS'musicType'
p22
aS'Type'
p23
aS'is'
p24
aS'too'
p25
aS'general'
p26
aS'.'
aS'We'
p27
aS'should'
p28
aS'be'
p29
aS'able'
p30
aS'to'
p31
aS'distinguish'
p32
aS'types'
p33
aS'of'
p34
aS'music'
p35
aS'from'
p36
aS'types'
p37
aS'of'
p38
aS'architecture'
p39
asS'chunk_seq'
p40
(lp41
S'B-NP'
p42
aS'I-NP'
p43
aS'I-NP'
p44
aS'E-NP'
p45
aS'S-VP'
p46
aS'B-ADJP'
p47
aS'E-ADJP'
p48
aS'O'
aS'S-NP'
p49
aS'B-VP'
p50
aS'E-VP'
p51
aS'S-ADJP'
p52
aS'B-VP'
p53
aS'E-VP'
p54
aS'S-NP'
p55
aS'S-PP'
p56
aS'S-NP'
p57
aS'S-PP'
p58
aS'S-NP'
p59
aS'S-PP'
p60
aS'S-NP'
p61
asS'dep_seq'
p62
(lp63
(lp64
S'nn'
p65
aS'4'
aS'1'
aa(lp66
S'nn'
p67
aS'4'
aS'2'
aa(lp68
S'nn'
p69
aS'4'
aS'3'
aa(lp70
S'nsubj'
p71
aS'7'
aS'4'
aa(lp72
S'cop'
p73
aS'7'
aS'5'
aa(lp74
S'advmod'
p75
aS'7'
aS'6'
aa(lp76
S'root'
p77
aS'0'
aS'7'
aa(lp78
S'nsubj'
p79
aS'12'
p80
aS'9'
aa(lp81
S'xsubj'
p82
aS'14'
p83
aS'9'
aa(lp84
S'aux'
p85
aS'12'
p86
aS'10'
p87
aa(lp88
S'cop'
p89
aS'12'
p90
aS'11'
p91
aa(lp92
S'parataxis'
p93
aS'7'
aS'12'
p94
aa(lp95
S'aux'
p96
aS'14'
p97
aS'13'
p98
aa(lp99
S'xcomp'
p100
aS'12'
p101
aS'14'
p102
aa(lp103
S'dobj'
p104
aS'14'
p105
aS'15'
p106
aa(lp107
S'prep_of'
p108
aS'15'
p109
aS'17'
p110
aa(lp111
S'prep_from'
p112
aS'15'
p113
aS'19'
p114
aa(lp115
S'prep_of'
p116
aS'19'
p117
aS'21'
p118
aasS'srls'
p119
(lp120
(dp121
S'A1'
p122
S'types of music'
p123
sS'A0'
p124
g27
sS'A2'
p125
S'from types of architecture'
p126
sS'V'
g32
sasS'pos_seq'
p127
(lp128
S'NNP'
p129
aS'NNP'
p130
aS'NNP'
p131
aS'NNP'
p132
aS'VBZ'
p133
aS'RB'
p134
aS'JJ'
p135
aS'.'
aS'PRP'
p136
aS'MD'
p137
aS'VB'
p138
aS'JJ'
p139
aS'TO'
p140
aS'VB'
p141
aS'NNS'
p142
aS'IN'
p143
aS'NN'
p144
aS'IN'
p145
aS'NNS'
p146
aS'IN'
p147
aS'NN'
p148
asS'ner_seq'
p149
(lp150
S'O'
aS'O'
aS'O'
aS'O'
aS'O'
aS'O'
aS'O'
aS'O'
aS'O'
aS'O'
aS'O'
aS'O'
aS'O'
aS'O'
aS'O'
aS'O'
aS'O'
aS'O'
aS'O'
aS'O'
aS'O'
assb.