ccopy_reg
_reconstructor
p1
(c__main__
KBproperty
p2
c__builtin__
object
p3
NtRp4
(dp5
S'comment'
p6
S'indicates another place situated inside.'
p7
sS'domain'
p8
S'Place '
p9
sS'instances_count'
p10
S'0'
sS'label'
p11
S'has inside place'
p12
sS'range'
p13
S'Place '
p14
sS'prop_uri'
p15
S"'http://dbpedia.org/ontology/hasInsidePlace'"
p16
sS'annotations'
p17
(dp18
S'bag_of_words'
p19
(lp20
S'Place'
p21
aS'has'
p22
aS'inside'
p23
aS'place'
p24
aS'Place'
p25
aS'indicates'
p26
aS'another'
p27
aS'place'
p28
aS'situated'
p29
aS'inside'
p30
aS'.'
asS'chunk_seq'
p31
(lp32
S'S-NP'
p33
aS'S-VP'
p34
aS'B-NP'
p35
aS'I-NP'
p36
aS'E-NP'
p37
aS'S-VP'
p38
aS'B-NP'
p39
aS'E-NP'
p40
aS'S-VP'
p41
aS'S-ADVP'
p42
aS'O'
asS'dep_seq'
p43
(lp44
(lp45
S'nsubj'
p46
aS'2'
aS'1'
aa(lp47
S'root'
p48
aS'0'
aS'2'
aa(lp49
S'amod'
p50
aS'4'
aS'3'
aa(lp51
S'dobj'
p52
aS'2'
aS'4'
aa(lp53
S'nsubj'
p54
aS'6'
aS'5'
aa(lp55
S'rcmod'
p56
aS'4'
aS'6'
aa(lp57
S'det'
p58
aS'8'
aS'7'
aa(lp59
S'dobj'
p60
aS'6'
aS'8'
aa(lp61
S'partmod'
p62
aS'8'
aS'9'
aa(lp63
S'advmod'
p64
aS'9'
aS'10'
p65
aasS'srls'
p66
(lp67
(dp68
S'A1'
p69
S'inside place Place indicates another place situated inside'
p70
sS'A0'
p71
g21
sS'V'
g22
sa(dp72
S'A1'
p73
S'another place situated inside'
p74
sS'A0'
p75
S'Place has inside place Place'
p76
sS'V'
g26
sa(dp77
S'A1'
p78
S'another place'
p79
sS'AM-LOC'
p80
g30
sS'V'
g29
sasS'pos_seq'
p81
(lp82
S'NN'
p83
aS'VBZ'
p84
aS'JJ'
p85
aS'NN'
p86
aS'NN'
p87
aS'VBZ'
p88
aS'DT'
p89
aS'NN'
p90
aS'VBN'
p91
aS'RB'
p92
aS'.'
asS'ner_seq'
p93
(lp94
S'O'
aS'O'
aS'O'
aS'O'
aS'O'
aS'O'
aS'O'
aS'O'
aS'O'
aS'O'
aS'O'
assb.