ccopy_reg
_reconstructor
p1
(c__main__
KBproperty
p2
c__builtin__
object
p3
NtRp4
(dp5
S'comment'
p6
S'The subject influenced the object. inverseOf influencedBy. Subject and object can be Persons or Works eg ProgrammingLanguage108003280'
p7
sS'domain'
p8
S''
sS'instances_count'
p9
I7088
sS'phrases'
p10
NsS'syn_hypo'
p11
S''
sS'label'
p12
S'influenced'
p13
sS'range'
p14
S''
sS'uniq_subjs'
p15
S'7088'
p16
sS'uniq_objs'
p17
I0
sS'prop_uri'
p18
S'http://dbpedia.org/ontology/influenced'
p19
sS'annotations'
p20
(dp21
S'bag_of_words'
p22
(lp23
S'influenced'
p24
aS'The'
p25
aS'subject'
p26
aS'influenced'
p27
aS'the'
p28
aS'object'
p29
aS'.'
aS'inverseOf'
p30
aS'influencedBy'
p31
aS'.'
aS'Subject'
p32
aS'and'
p33
aS'object'
p34
aS'can'
p35
aS'be'
p36
aS'Persons'
p37
aS'or'
p38
aS'Works'
p39
aS'eg'
p40
aS'ProgrammingLanguage108003280'
p41
asS'chunk_seq'
p42
(lp43
S'S-VP'
p44
aS'B-NP'
p45
aS'E-NP'
p46
aS'S-VP'
p47
aS'B-NP'
p48
aS'E-NP'
p49
aS'O'
aS'B-NP'
p50
aS'I-NP'
p51
aS'I-NP'
p52
aS'I-NP'
p53
aS'I-NP'
p54
aS'E-NP'
p55
aS'B-VP'
p56
aS'E-VP'
p57
aS'B-NP'
p58
aS'I-NP'
p59
aS'E-NP'
p60
aS'S-PP'
p61
aS'S-NP'
p62
asS'dep_seq'
p63
(lp64
(lp65
S'root'
p66
aS'0'
aS'1'
aa(lp67
S'det'
p68
aS'3'
aS'2'
aa(lp69
S'nsubj'
p70
aS'4'
aS'3'
aa(lp71
S'ccomp'
p72
aS'1'
aS'4'
aa(lp73
S'det'
p74
aS'9'
aS'5'
aa(lp75
S'nn'
p76
aS'9'
aS'6'
aa(lp77
S'amod'
p78
aS'9'
aS'8'
aa(lp79
S'conj_and'
p80
aS'9'
aS'8'
aa(lp81
S'nsubj'
p82
aS'16'
p83
aS'9'
aa(lp84
S'conj_and'
p85
aS'9'
aS'11'
p86
aa(lp87
S'nn'
p88
aS'9'
aS'11'
p89
aa(lp90
S'conj_and'
p91
aS'9'
aS'13'
p92
aa(lp93
S'aux'
p94
aS'16'
p95
aS'14'
p96
aa(lp97
S'cop'
p98
aS'16'
p99
aS'15'
p100
aa(lp101
S'ccomp'
p102
aS'4'
aS'16'
p103
aa(lp104
S'conj_or'
p105
aS'16'
p106
aS'18'
p107
aa(lp108
S'prep_eg'
p109
aS'16'
p110
aS'20'
p111
aasS'srls'
p112
(lp113
(dp114
S'A1'
p115
S'The subject influenced the object . inverseOf influencedBy . Subject and object can be Persons or Works eg ProgrammingLanguage108003280'
p116
sS'V'
g24
sa(dp117
S'A1'
p118
S'the object . inverseOf influencedBy . Subject and object can be Persons or Works eg ProgrammingLanguage108003280'
p119
sS'A0'
p120
S'The subject'
p121
sS'V'
g27
sasS'pos_seq'
p122
(lp123
S'VBD'
p124
aS'DT'
p125
aS'NN'
p126
aS'VBD'
p127
aS'DT'
p128
aS'NN'
p129
aS'.'
aS'JJ'
p130
aS'JJ'
p131
aS'.'
aS'NNP'
p132
aS'CC'
p133
aS'NN'
p134
aS'MD'
p135
aS'VB'
p136
aS'NNPS'
p137
aS'CC'
p138
aS'NNP'
p139
aS'IN'
p140
aS'NNP'
p141
asS'ner_seq'
p142
(lp143
S'O'
aS'O'
aS'O'
aS'O'
aS'O'
aS'O'
aS'O'
aS'B-PER'
p144
aS'E-PER'
p145
aS'O'
aS'O'
aS'O'
aS'O'
aS'O'
aS'O'
aS'O'
aS'O'
aS'O'
aS'O'
aS'S-ORG'
p146
assb.