ccopy_reg
_reconstructor
p1
(c__main__
KBproperty
p2
c__builtin__
object
p3
NtRp4
(dp5
S'comment'
p6
S'A colour represented by its entity.71495721'
p7
sS'domain'
p8
S''
sS'instances_count'
p9
I200
sS'phrases'
p10
NsS'syn_hypo'
p11
Vdyecoloring_materialcolouring_materialcolorcolourdyestuffcoloring_materialcolouring_materialcolorcolourhematochromecoloring_materialcolouring_materialcolorcolourindicatorcoloring_materialcolouring_materialcolorcolourmordantcoloring_materialcolouring_materialcolorcolourpaintcoloring_materialcolouring_materialcolorcolourpigmentcoloring_materialcolouring_materialcolorcolourpigmentcoloring_materialcolouring_materialcolorcolourpigmentcoloring_materialcolouring_materialcolorcolourstaincoloring_materialcolouring_materialcolorcolourtincture
p12
sS'label'
p13
S'colour'
p14
sS'range'
p15
S'Colour '
p16
sS'uniq_subjs'
p17
S'200'
p18
sS'uniq_objs'
p19
I0
sS'prop_uri'
p20
S'http://dbpedia.org/ontology/colour'
p21
sS'annotations'
p22
(dp23
S'bag_of_words'
p24
(lp25
S'colour'
p26
aS'Colour'
p27
aS'A'
aS'colour'
p28
aS'represented'
p29
aS'by'
p30
aS'its'
p31
aS'entity.71495721'
p32
asS'chunk_seq'
p33
(lp34
S'B-NP'
p35
aS'E-NP'
p36
aS'B-NP'
p37
aS'E-NP'
p38
aS'S-VP'
p39
aS'S-PP'
p40
aS'B-NP'
p41
aS'E-NP'
p42
asS'dep_seq'
p43
(lp44
(lp45
S'dep'
p46
aS'4'
aS'1'
aa(lp47
S'nn'
p48
aS'4'
aS'2'
aa(lp49
S'nn'
p50
aS'4'
aS'3'
aa(lp51
S'root'
p52
aS'0'
aS'4'
aa(lp53
S'partmod'
p54
aS'4'
aS'5'
aa(lp55
S'poss'
p56
aS'8'
aS'7'
aa(lp57
S'agent'
p58
aS'5'
aS'8'
aasS'srls'
p59
(lp60
(dp61
S'A1'
p62
S'A colour'
p63
sS'A0'
p64
S'by its entity.71495721'
p65
sS'V'
g29
sasS'pos_seq'
p66
(lp67
S'SYM'
p68
aS'NNP'
p69
aS'NNP'
p70
aS'NN'
p71
aS'VBN'
p72
aS'IN'
p73
aS'PRP$'
p74
aS'NN'
p75
asS'ner_seq'
p76
(lp77
S'O'
aS'O'
aS'O'
aS'O'
aS'O'
aS'O'
aS'O'
aS'O'
assb.