ccopy_reg
_reconstructor
p1
(c__main__
KBproperty
p2
c__builtin__
object
p3
NtRp4
(dp5
S'comment'
p6
S'Compare with bishopric00'
p7
sS'domain'
p8
S'Religious Building '
p9
sS'instances_count'
p10
I0
sS'phrases'
p11
NsS'syn_hypo'
p12
V
sS'label'
p13
S'eparchy'
p14
sS'range'
p15
S''
sS'uniq_subjs'
p16
S'0'
sS'uniq_objs'
p17
I0
sS'prop_uri'
p18
S'http://dbpedia.org/ontology/eparchy'
p19
sS'annotations'
p20
(dp21
S'bag_of_words'
p22
(lp23
S'Religious'
p24
aS'Building'
p25
aS'eparchy'
p26
aS'Compare'
p27
aS'with'
p28
aS'bishopric00'
p29
asS'chunk_seq'
p30
(lp31
S'B-NP'
p32
aS'I-NP'
p33
aS'I-NP'
p34
aS'E-NP'
p35
aS'S-PP'
p36
aS'S-NP'
p37
asS'dep_seq'
p38
(lp39
(lp40
S'nn'
p41
aS'3'
aS'1'
aa(lp42
S'nn'
p43
aS'3'
aS'2'
aa(lp44
S'nsubj'
p45
aS'4'
aS'3'
aa(lp46
S'root'
p47
aS'0'
aS'4'
aa(lp48
S'prep_with'
p49
aS'4'
aS'6'
aasS'srls'
p50
(lp51
sS'pos_seq'
p52
(lp53
S'NNP'
p54
aS'NNP'
p55
aS'NN'
p56
aS'NNP'
p57
aS'IN'
p58
aS'NN'
p59
asS'ner_seq'
p60
(lp61
S'O'
aS'O'
aS'O'
aS'O'
aS'O'
aS'O'
assb.