ccopy_reg
_reconstructor
p1
(c__main__
KBproperty
p2
c__builtin__
object
p3
NtRp4
(dp5
S'comment'
p6
S'00'
p7
sS'domain'
p8
S'Musical Artist '
p9
sS'instances_count'
p10
I0
sS'phrases'
p11
NsS'syn_hypo'
p12
S''
sS'label'
p13
S'Music Band'
p14
sS'range'
p15
S'Band '
p16
sS'uniq_subjs'
p17
S'0'
sS'uniq_objs'
p18
I0
sS'prop_uri'
p19
S'http://dbpedia.org/ontology/musicBand'
p20
sS'annotations'
p21
(dp22
S'bag_of_words'
p23
(lp24
S'Musical'
p25
aS'Artist'
p26
aS'Music'
p27
aS'Band'
p28
aS'Band'
p29
aS'00'
p30
asS'chunk_seq'
p31
(lp32
S'B-NP'
p33
aS'I-NP'
p34
aS'I-NP'
p35
aS'I-NP'
p36
aS'E-NP'
p37
aS'O'
asS'dep_seq'
p38
(lp39
(lp40
S'amod'
p41
aS'5'
aS'1'
aa(lp42
S'nn'
p43
aS'5'
aS'2'
aa(lp44
S'nn'
p45
aS'5'
aS'3'
aa(lp46
S'nn'
p47
aS'5'
aS'4'
aa(lp48
S'root'
p49
aS'0'
aS'5'
aa(lp50
S'num'
p51
aS'5'
aS'6'
aasS'srls'
p52
(lp53
sS'pos_seq'
p54
(lp55
S'JJ'
p56
aS'NNP'
p57
aS'NNP'
p58
aS'NNP'
p59
aS'NNP'
p60
aS'CD'
p61
asS'ner_seq'
p62
(lp63
S'B-MISC'
p64
aS'I-MISC'
p65
aS'I-MISC'
p66
aS'I-MISC'
p67
aS'I-MISC'
p68
aS'E-MISC'
p69
assb.