ccopy_reg
_reconstructor
p1
(c__main__
KBproperty
p2
c__builtin__
object
p3
NtRp4
(dp5
S'comment'
p6
S'1299212320'
p7
sS'domain'
p8
S'Stream '
p9
sS'instances_count'
p10
I341
sS'phrases'
p11
(lp12
S' which country; start'
p13
aS' river;start\n'
p14
asS'syn_hypo'
p15
S''
sS'label'
p16
S'source country'
p17
sS'range'
p18
S'Country '
p19
sS'uniq_subjs'
p20
S'341'
p21
sS'uniq_objs'
p22
I0
sS'prop_uri'
p23
S'http://dbpedia.org/ontology/sourceCountry'
p24
sS'annotations'
p25
(dp26
S'bag_of_words'
p27
(lp28
S'Stream'
p29
aS'source'
p30
aS'country'
p31
aS'Country'
p32
aS'1299212320'
p33
asS'chunk_seq'
p34
(lp35
S'B-NP'
p36
aS'I-NP'
p37
aS'I-NP'
p38
aS'E-NP'
p39
aS'S-ADVP'
p40
asS'dep_seq'
p41
(lp42
(lp43
S'nn'
p44
aS'4'
aS'1'
aa(lp45
S'nn'
p46
aS'4'
aS'2'
aa(lp47
S'nn'
p48
aS'4'
aS'3'
aa(lp49
S'root'
p50
aS'0'
aS'4'
aa(lp51
S'num'
p52
aS'4'
aS'5'
aasS'srls'
p53
(lp54
sS'pos_seq'
p55
(lp56
S'NN'
p57
aS'NN'
p58
aS'NN'
p59
aS'NN'
p60
aS'CD'
p61
asS'ner_seq'
p62
(lp63
S'O'
aS'O'
aS'O'
aS'O'
aS'O'
assb.