ccopy_reg
_reconstructor
p1
(c__main__
KBproperty
p2
c__builtin__
object
p3
NtRp4
(dp5
S'comment'
p6
S'00'
p7
sS'domain'
p8
S'Populated Place '
p9
sS'instances_count'
p10
I0
sS'phrases'
p11
NsS'syn_hypo'
p12
S''
sS'label'
p13
S'per capita income as of'
p14
sS'range'
p15
S'date '
p16
sS'uniq_subjs'
p17
S'0'
sS'uniq_objs'
p18
I0
sS'prop_uri'
p19
S'http://dbpedia.org/ontology/perCapitaIncomeAsOf'
p20
sS'annotations'
p21
(dp22
S'bag_of_words'
p23
(lp24
S'Populated'
p25
aS'Place'
p26
aS'per'
p27
aS'capita'
p28
aS'income'
p29
aS'as'
p30
aS'of'
p31
aS'date'
p32
aS'00'
p33
asS'chunk_seq'
p34
(lp35
S'B-NP'
p36
aS'E-NP'
p37
aS'S-PP'
p38
aS'B-NP'
p39
aS'E-NP'
p40
aS'S-PP'
p41
aS'S-PP'
p42
aS'S-NP'
p43
aS'O'
asS'dep_seq'
p44
(lp45
(lp46
S'amod'
p47
aS'2'
aS'1'
aa(lp48
S'root'
p49
aS'0'
aS'2'
aa(lp50
S'nn'
p51
aS'5'
aS'4'
aa(lp52
S'prep_per'
p53
aS'2'
aS'5'
aa(lp54
S'prepc_as_of'
p55
aS'2'
aS'7'
aa(lp56
S'pobj'
p57
aS'2'
aS'8'
aa(lp58
S'dep'
p59
aS'2'
aS'9'
aasS'srls'
p60
(lp61
sS'pos_seq'
p62
(lp63
S'JJ'
p64
aS'NN'
p65
aS'IN'
p66
aS'NN'
p67
aS'NN'
p68
aS'IN'
p69
aS'IN'
p70
aS'NN'
p71
aS'CD'
p72
asS'ner_seq'
p73
(lp74
S'O'
aS'O'
aS'O'
aS'O'
aS'O'
aS'O'
aS'O'
aS'O'
aS'O'
assb.