ccopy_reg
_reconstructor
p1
(c__main__
KBproperty
p2
c__builtin__
object
p3
NtRp4
(dp5
S'comment'
p6
S'5139230023'
p7
sS'domain'
p8
S'Musical Work '
p9
sS'instances_count'
p10
I5541
sS'phrases'
p11
NsS'syn_hypo'
p12
S''
sS'label'
p13
S'recorded in'
p14
sS'range'
p15
S'Populated Place '
p16
sS'uniq_subjs'
p17
S'5541'
p18
sS'uniq_objs'
p19
I0
sS'prop_uri'
p20
S'http://dbpedia.org/ontology/recordedIn'
p21
sS'annotations'
p22
(dp23
S'bag_of_words'
p24
(lp25
S'Musical'
p26
aS'Work'
p27
aS'recorded'
p28
aS'in'
p29
aS'Populated'
p30
aS'Place'
p31
aS'5139230023'
p32
asS'chunk_seq'
p33
(lp34
S'B-NP'
p35
aS'E-NP'
p36
aS'S-VP'
p37
aS'S-PP'
p38
aS'B-NP'
p39
aS'I-NP'
p40
aS'E-NP'
p41
asS'dep_seq'
p42
(lp43
(lp44
S'amod'
p45
aS'2'
aS'1'
aa(lp46
S'nsubj'
p47
aS'3'
aS'2'
aa(lp48
S'root'
p49
aS'0'
aS'3'
aa(lp50
S'amod'
p51
aS'7'
aS'5'
aa(lp52
S'nn'
p53
aS'7'
aS'6'
aa(lp54
S'prep_in'
p55
aS'3'
aS'7'
aasS'srls'
p56
(lp57
(dp58
S'A0'
p59
S'Musical Work'
p60
sS'AM-LOC'
p61
S'in Populated Place 5139230023'
p62
sS'V'
g28
sasS'pos_seq'
p63
(lp64
S'JJ'
p65
aS'NN'
p66
aS'VBN'
p67
aS'IN'
p68
aS'JJ'
p69
aS'NN'
p70
aS'NN'
p71
asS'ner_seq'
p72
(lp73
S'O'
aS'O'
aS'O'
aS'O'
aS'O'
aS'O'
aS'O'
assb.