ccopy_reg
_reconstructor
p1
(c__main__
KBproperty
p2
c__builtin__
object
p3
NtRp4
(dp5
S'comment'
p6
S'1703013094'
p7
sS'domain'
p8
S'Military Conflict '
p9
sS'instances_count'
p10
I9327
sS'phrases'
p11
NsS'syn_hypo'
p12
Vaftereffectconsequenceeffectoutcomeresulteventissueupshotaftermathconsequenceeffectoutcomeresulteventissueupshotwakeconsequenceeffectoutcomeresulteventissueupshotbackwashconsequenceeffectoutcomeresulteventissueupshotbandwagon_effectconsequenceeffectoutcomeresulteventissueupshotbrisanceconsequenceeffectoutcomeresulteventissueupshotbutterfly_effectconsequenceeffectoutcomeresulteventissueupshotby-productconsequenceeffectoutcomeresulteventissueupshotbyproductconsequenceeffectoutcomeresulteventissueupshotchangeconsequenceeffectoutcomeresulteventissueupshotcoattails_effectconsequenceeffectoutcomeresulteventissueupshotCoriolis_effectconsequenceeffectoutcomeresulteventissueupshotdentconsequenceeffectoutcomeresulteventissueupshotdomino_effectconsequenceeffectoutcomeresulteventissueupshotharvestconsequenceeffectoutcomeresulteventissueupshotimpactconsequenceeffectoutcomeresulteventissueupshotwallopconsequenceeffectoutcomeresulteventissueupshotinfluenceconsequenceeffectoutcomeresulteventissueupshotknock-on_effectconsequenceeffectoutcomeresulteventissueupshotoffspringconsequenceeffectoutcomeresulteventissueupshotmaterializationconsequenceeffectoutcomeresulteventissueupshotmaterialisationconsequenceeffectoutcomeresulteventissueupshotoutgrowthconsequenceeffectoutcomeresulteventissueupshotbranchconsequenceeffectoutcomeresulteventissueupshotoffshootconsequenceeffectoutcomeresulteventissueupshotoffsetconsequenceeffectoutcomeresulteventissueupshotplacebo_effectconsequenceeffectoutcomeresulteventissueupshotposition_effectconsequenceeffectoutcomeresulteventissueupshotproductconsequenceeffectoutcomeresulteventissueupshotrepercussionconsequenceeffectoutcomeresulteventissueupshotreverberationconsequenceeffectoutcomeresulteventissueupshotresponseconsequenceeffectoutcomeresulteventissueupshotside_effectconsequenceeffectoutcomeresulteventissueupshotfalloutconsequenceeffectoutcomeresulteventissueupshotspillover
p13
sS'label'
p14
S'result'
p15
sS'range'
p16
S'string '
p17
sS'uniq_subjs'
p18
S'9327'
p19
sS'uniq_objs'
p20
I0
sS'prop_uri'
p21
S'http://dbpedia.org/ontology/result'
p22
sS'annotations'
p23
(dp24
S'bag_of_words'
p25
(lp26
S'Military'
p27
aS'Conflict'
p28
aS'result'
p29
aS'string'
p30
aS'1703013094'
p31
asS'chunk_seq'
p32
(lp33
S'B-NP'
p34
aS'E-NP'
p35
aS'S-VP'
p36
aS'B-NP'
p37
aS'E-NP'
p38
asS'dep_seq'
p39
(lp40
(lp41
S'nn'
p42
aS'2'
aS'1'
aa(lp43
S'nsubj'
p44
aS'3'
aS'2'
aa(lp45
S'root'
p46
aS'0'
aS'3'
aa(lp47
S'nn'
p48
aS'5'
aS'4'
aa(lp49
S'dobj'
p50
aS'3'
aS'5'
aasS'srls'
p51
(lp52
(dp53
S'A2'
p54
S'Military Conflict  string 1703013094'
p55
sS'V'
g29
sasS'pos_seq'
p56
(lp57
S'NNP'
p58
aS'NNP'
p59
aS'VBP'
p60
aS'NN'
p61
aS'NN'
p62
asS'ner_seq'
p63
(lp64
S'O'
aS'O'
aS'O'
aS'O'
aS'O'
assb.