ccopy_reg
_reconstructor
p1
(c__main__
KBproperty
p2
c__builtin__
object
p3
NtRp4
(dp5
S'comment'
p6
S'746414'
p7
sS'domain'
p8
S'Person '
p9
sS'instances_count'
p10
I161
sS'phrases'
p11
NsS'syn_hypo'
p12
VAdvanced_Research_and_Development_Activityagencyfederal_agencygovernment_agencybureauofficeauthorityARDAagencyfederal_agencygovernment_agencybureauofficeauthorityAir_Force_Intelligence_Surveillance_and_Reconnaissanceagencyfederal_agencygovernment_agencybureauofficeauthorityAir_Force_ISRagencyfederal_agencygovernment_agencybureauofficeauthorityAFISRagencyfederal_agencygovernment_agencybureauofficeauthorityArmy_Intelligenceagencyfederal_agencygovernment_agencybureauofficeauthorityAIagencyfederal_agencygovernment_agencybureauofficeauthorityBallistic_Missile_Defense_Organizationagencyfederal_agencygovernment_agencybureauofficeauthorityBMDOagencyfederal_agencygovernment_agencybureauofficeauthorityBureau_of_Customsagencyfederal_agencygovernment_agencybureauofficeauthorityCustoms_Bureauagencyfederal_agencygovernment_agencybureauofficeauthorityCustoms_Serviceagencyfederal_agencygovernment_agencybureauofficeauthorityUSCBagencyfederal_agencygovernment_agencybureauofficeauthorityBureau_of_Diplomatic_Securityagencyfederal_agencygovernment_agencybureauofficeauthorityDSagencyfederal_agencygovernment_agencybureauofficeauthorityBureau_of_Engraving_and_Printingagencyfederal_agencygovernment_agencybureauofficeauthorityBureau_of_Intelligence_and_Researchagencyfederal_agencygovernment_agencybureauofficeauthorityINRagencyfederal_agencygovernment_agencybureauofficeauthorityBureau_of_Justice_Assistanceagencyfederal_agencygovernment_agencybureauofficeauthorityBJAagencyfederal_agencygovernment_agencybureauofficeauthorityBureau_of_Justice_Statisticsagencyfederal_agencygovernment_agencybureauofficeauthorityBJSagencyfederal_agencygovernment_agencybureauofficeauthorityBureau_of_the_Censusagencyfederal_agencygovernment_agencybureauofficeauthorityCensus_Bureauagencyfederal_agencygovernment_agencybureauofficeauthorityCasualty_Care_Research_Centeragencyfederal_agencygovernment_agencybureauofficeauthorityCCRCagencyfederal_agencygovernment_agencybureauofficeauthorityCenter_for_Disease_Control_and_Preventionagencyfederal_agencygovernment_agencybureauofficeauthorityCDCagencyfederal_agencygovernment_agencybureauofficeauthorityComptroller_of_the_Currencyagencyfederal_agencygovernment_agencybureauofficeauthorityCounterterrorist_Centeragencyfederal_agencygovernment_agencybureauofficeauthorityCTCagencyfederal_agencygovernment_agencybureauofficeauthorityDefense_Advanced_Research_Projects_Agencyagencyfederal_agencygovernment_agencybureauofficeauthorityDARPAagencyfederal_agencygovernment_agencybureauofficeauthorityDefense_Information_Systems_Agencyagencyfederal_agencygovernment_agencybureauofficeauthorityDISAagencyfederal_agencygovernment_agencybureauofficeauthorityDefense_Logistics_Agencyagencyfederal_agencygovernment_agencybureauofficeauthorityDefense_Reutilization_and_Marketing_Serviceagencyfederal_agencygovernment_agencybureauofficeauthorityDRMSagencyfederal_agencygovernment_agencybureauofficeauthorityDefense_Technical_Information_Centeragencyfederal_agencygovernment_agencybureauofficeauthorityDTICagencyfederal_agencygovernment_agencybureauofficeauthorityDepartment_of_Defense_Laboratory_Systemagencyfederal_agencygovernment_agencybureauofficeauthorityLABLINKagencyfederal_agencygovernment_agencybureauofficeauthorityDepartment_of_Energy_Intelligenceagencyfederal_agencygovernment_agencybureauofficeauthorityDOEIagencyfederal_agencygovernment_agencybureauofficeauthorityexecutive_agencyagencyfederal_agencygovernment_agencybureauofficeauthorityFederal_Aviation_Agencyagencyfederal_agencygovernment_agencybureauofficeauthorityFAAagencyfederal_agencygovernment_agencybureauofficeauthorityFederal_Housing_Administrationagencyfederal_agencygovernment_agencybureauofficeauthorityFHAagencyfederal_agencygovernment_agencybureauofficeauthorityFinancial_Management_Serviceagencyfederal_agencygovernment_agencybureauofficeauthorityFood_and_Drug_Administrationagencyfederal_agencygovernment_agencybureauofficeauthorityFDAagencyfederal_agencygovernment_agencybureauofficeauthorityForeign_Serviceagencyfederal_agencygovernment_agencybureauofficeauthorityGovernment_Accounting_Officeagencyfederal_agencygovernment_agencybureauofficeauthorityGAOagencyfederal_agencygovernment_agencybureauofficeauthorityUnited_States_Government_Accounting_Officeagencyfederal_agencygovernment_agencybureauofficeauthorityImmigration_and_Naturalization_Serviceagencyfederal_agencygovernment_agencybureauofficeauthorityINSagencyfederal_agencygovernment_agencybureauofficeauthorityindependent_agencyagencyfederal_agencygovernment_agencybureauofficeauthorityInternal_Revenue_Serviceagencyfederal_agencygovernment_agencybureauofficeauthorityIRSagencyfederal_agencygovernment_agencybureauofficeauthoritylaw_enforcement_agencyagencyfederal_agencygovernment_agencybureauofficeauthoritylocal_authorityagencyfederal_agencygovernment_agencybureauofficeauthorityMarine_Corps_Intelligence_Activityagencyfederal_agencygovernment_agencybureauofficeauthorityMCIAagencyfederal_agencygovernment_agencybureauofficeauthorityNational_Climatic_Data_Centeragencyfederal_agencygovernment_agencybureauofficeauthorityNCDCagencyfederal_agencygovernment_agencybureauofficeauthorityNational_Geospatial-Intelligence_Agencyagencyfederal_agencygovernment_agencybureauofficeauthorityNGAagencyfederal_agencygovernment_agencybureauofficeauthorityNational_Guard_Bureauagencyfederal_agencygovernment_agencybureauofficeauthorityNGBagencyfederal_agencygovernment_agencybureauofficeauthorityNational_Institute_of_Standards_and_Technologyagencyfederal_agencygovernment_agencybureauofficeauthorityNISTagencyfederal_agencygovernment_agencybureauofficeauthorityNational_Institutes_of_Healthagencyfederal_agencygovernment_agencybureauofficeauthorityNIHagencyfederal_agencygovernment_agencybureauofficeauthorityNational_Oceanic_and_Atmospheric_Administrationagencyfederal_agencygovernment_agencybureauofficeauthorityNOAAagencyfederal_agencygovernment_agencybureauofficeauthorityNational_Park_Serviceagencyfederal_agencygovernment_agencybureauofficeauthorityNational_Technical_Information_Serviceagencyfederal_agencygovernment_agencybureauofficeauthorityNTISagencyfederal_agencygovernment_agencybureauofficeauthorityNational_Weather_Serviceagencyfederal_agencygovernment_agencybureauofficeauthorityNaval_Air_Warfare_Center_Weapons_Divisionagencyfederal_agencygovernment_agencybureauofficeauthorityNAWCWPNSagencyfederal_agencygovernment_agencybureauofficeauthorityNaval_Special_Warfareagencyfederal_agencygovernment_agencybureauofficeauthorityNSWagencyfederal_agencygovernment_agencybureauofficeauthorityNaval_Surface_Warfare_Centeragencyfederal_agencygovernment_agencybureauofficeauthorityNSWCagencyfederal_agencygovernment_agencybureauofficeauthorityNaval_Underwater_Warfare_Centeragencyfederal_agencygovernment_agencybureauofficeauthorityNUWCagencyfederal_agencygovernment_agencybureauofficeauthorityNonproliferation_Centeragencyfederal_agencygovernment_agencybureauofficeauthorityNPCagencyfederal_agencygovernment_agencybureauofficeauthorityOccupational_Safety_and_Health_Administrationagencyfederal_agencygovernment_agencybureauofficeauthorityOSHAagencyfederal_agencygovernment_agencybureauofficeauthorityOffice_of_Intelligence_Supportagencyfederal_agencygovernment_agencybureauofficeauthorityOISagencyfederal_agencygovernment_agencybureauofficeauthorityOffice_of_Naval_Intelligenceagencyfederal_agencygovernment_agencybureauofficeauthorityONIagencyfederal_agencygovernment_agencybureauofficeauthorityorganagencyfederal_agencygovernment_agencybureauofficeauthorityPatent_and_Trademark_Office_Databaseagencyfederal_agencygovernment_agencybureauofficeauthorityPatent_Officeagencyfederal_agencygovernment_agencybureauofficeauthorityTechnology_Administrationagencyfederal_agencygovernment_agencybureauofficeauthorityTransportation_Security_Administrationagencyfederal_agencygovernment_agencybureauofficeauthorityTSAagencyfederal_agencygovernment_agencybureauofficeauthorityUnited_States_Air_Forceagencyfederal_agencygovernment_agencybureauofficeauthorityU._S._Air_Forceagencyfederal_agencygovernment_agencybureauofficeauthorityUS_Air_Forceagencyfederal_agencygovernment_agencybureauofficeauthorityAir_Forceagencyfederal_agencygovernment_agencybureauofficeauthorityUSAFagencyfederal_agencygovernment_agencybureauofficeauthorityUnited_States_Armyagencyfederal_agencygovernment_agencybureauofficeauthorityUS_Armyagencyfederal_agencygovernment_agencybureauofficeauthorityU._S._Armyagencyfederal_agencygovernment_agencybureauofficeauthorityArmyagencyfederal_agencygovernment_agencybureauofficeauthorityUSAagencyfederal_agencygovernment_agencybureauofficeauthorityUnited_States_Border_Patrolagencyfederal_agencygovernment_agencybureauofficeauthorityUS_Border_Patrolagencyfederal_agencygovernment_agencybureauofficeauthorityUnited_States_Coast_Guardagencyfederal_agencygovernment_agencybureauofficeauthorityU._S._Coast_Guardagencyfederal_agencygovernment_agencybureauofficeauthorityUS_Coast_Guardagencyfederal_agencygovernment_agencybureauofficeauthorityUnited_States_Fish_and_Wildlife_Serviceagencyfederal_agencygovernment_agencybureauofficeauthorityUS_Fish_and_Wildlife_Serviceagencyfederal_agencygovernment_agencybureauofficeauthorityFWSagencyfederal_agencygovernment_agencybureauofficeauthorityUnited_States_Government_Printing_Officeagencyfederal_agencygovernment_agencybureauofficeauthorityUS_Government_Printing_Officeagencyfederal_agencygovernment_agencybureauofficeauthorityGovernment_Printing_Officeagencyfederal_agencygovernment_agencybureauofficeauthorityGPOagencyfederal_agencygovernment_agencybureauofficeauthorityUnited_States_Navyagencyfederal_agencygovernment_agencybureauofficeauthorityUS_Navyagencyfederal_agencygovernment_agencybureauofficeauthorityUSNagencyfederal_agencygovernment_agencybureauofficeauthorityNavyagencyfederal_agencygovernment_agencybureauofficeauthorityUnited_States_Public_Health_Serviceagencyfederal_agencygovernment_agencybureauofficeauthorityPHS
p13
sS'label'
p14
S'agency'
p15
sS'range'
p16
S''
sS'uniq_subjs'
p17
S'161'
p18
sS'uniq_objs'
p19
I0
sS'prop_uri'
p20
S'http://dbpedia.org/ontology/agency'
p21
sS'annotations'
p22
(dp23
S'bag_of_words'
p24
(lp25
S'Person'
p26
aS'agency'
p27
aS'746414'
p28
asS'chunk_seq'
p29
(lp30
S'B-NP'
p31
aS'E-NP'
p32
aS'O'
asS'dep_seq'
p33
(lp34
(lp35
S'nn'
p36
aS'2'
aS'1'
aa(lp37
S'root'
p38
aS'0'
aS'2'
aa(lp39
S'punct'
p40
aS'2'
aS'3'
aasS'srls'
p41
(lp42
sS'pos_seq'
p43
(lp44
S'NN'
p45
aS'NN'
p46
aS'.'
asS'ner_seq'
p47
(lp48
S'O'
aS'O'
aS'O'
assb.