ccopy_reg
_reconstructor
p1
(c__main__
KBproperty
p2
c__builtin__
object
p3
NtRp4
(dp5
S'comment'
p6
S'121650111260'
p7
sS'domain'
p8
S''
sS'instances_count'
p9
I115005
sS'phrases'
p10
NsS'syn_hypo'
p11
V
sS'label'
p12
S'alias'
p13
sS'range'
p14
S'lang String '
p15
sS'uniq_subjs'
p16
S'115005'
p17
sS'uniq_objs'
p18
I0
sS'prop_uri'
p19
S'http://dbpedia.org/ontology/alias'
p20
sS'annotations'
p21
(dp22
S'bag_of_words'
p23
(lp24
S'alias'
p25
aS'lang'
p26
aS'String'
p27
aS'121650111260'
p28
asS'chunk_seq'
p29
(lp30
S'B-NP'
p31
aS'I-NP'
p32
aS'E-NP'
p33
aS'O'
asS'dep_seq'
p34
(lp35
(lp36
S'dep'
p37
aS'3'
aS'1'
aa(lp38
S'amod'
p39
aS'3'
aS'2'
aa(lp40
S'root'
p41
aS'0'
aS'3'
aa(lp42
S'num'
p43
aS'3'
aS'4'
aasS'srls'
p44
(lp45
sS'pos_seq'
p46
(lp47
S'LS'
p48
aS'VBG'
p49
aS'NN'
p50
aS'CD'
p51
asS'ner_seq'
p52
(lp53
S'O'
aS'B-PER'
p54
aS'E-PER'
p55
aS'O'
assb.