ccopy_reg
_reconstructor
p1
(c__main__
KBproperty
p2
c__builtin__
object
p3
NtRp4
(dp5
S'comment'
p6
S'46712889'
p7
sS'domain'
p8
S'Saint '
p9
sS'instances_count'
p10
I184
sS'phrases'
p11
NsS'syn_hypo'
p12
S''
sS'label'
p13
S'venerated in'
p14
sS'range'
p15
S'Organisation '
p16
sS'uniq_subjs'
p17
S'184'
p18
sS'uniq_objs'
p19
I0
sS'prop_uri'
p20
S'http://dbpedia.org/ontology/veneratedIn'
p21
sS'annotations'
p22
(dp23
S'bag_of_words'
p24
(lp25
S'Saint'
p26
aS'venerated'
p27
aS'in'
p28
aS'Organisation'
p29
aS'46712889'
p30
asS'chunk_seq'
p31
(lp32
S'O'
aS'S-VP'
p33
aS'S-PP'
p34
aS'B-NP'
p35
aS'E-NP'
p36
asS'dep_seq'
p37
(lp38
(lp39
S'nsubj'
p40
aS'2'
aS'1'
aa(lp41
S'root'
p42
aS'0'
aS'2'
aa(lp43
S'prep_in'
p44
aS'2'
aS'4'
aa(lp45
S'punct'
p46
aS'4'
aS'5'
aasS'srls'
p47
(lp48
(dp49
S'A1'
p50
g26
sS'AM-LOC'
p51
S'in Organisation 46712889'
p52
sS'V'
g27
sasS'pos_seq'
p53
(lp54
S'NNP'
p55
aS'VBN'
p56
aS'IN'
p57
aS'NNP'
p58
aS'.'
asS'ner_seq'
p59
(lp60
S'O'
aS'O'
aS'O'
aS'O'
aS'O'
assb.