ccopy_reg
_reconstructor
p1
(c__main__
KBproperty
p2
c__builtin__
object
p3
NtRp4
(dp5
S'comment'
p6
S'00'
p7
sS'domain'
p8
S''
sS'instances_count'
p9
I0
sS'phrases'
p10
NsS'syn_hypo'
p11
Vage_normaveragenormmeanaveragenormmean_valueaveragenormmedianaveragenormmedian_valueaveragenormmodeaveragenormmodal_value
p12
sS'label'
p13
S'average'
p14
sS'range'
p15
S'double '
p16
sS'uniq_subjs'
p17
S'0'
sS'uniq_objs'
p18
I0
sS'prop_uri'
p19
S'http://dbpedia.org/ontology/average'
p20
sS'annotations'
p21
(dp22
S'bag_of_words'
p23
(lp24
S'average'
p25
aS'double'
p26
aS'00'
p27
asS'chunk_seq'
p28
(lp29
S'B-NP'
p30
aS'I-NP'
p31
aS'E-NP'
p32
asS'dep_seq'
p33
(lp34
(lp35
S'amod'
p36
aS'3'
aS'1'
aa(lp37
S'advmod'
p38
aS'3'
aS'2'
aa(lp39
S'root'
p40
aS'0'
aS'3'
aasS'srls'
p41
(lp42
sS'pos_seq'
p43
(lp44
S'JJ'
p45
aS'RB'
p46
aS'CD'
p47
asS'ner_seq'
p48
(lp49
S'O'
aS'O'
aS'O'
assb.