ccopy_reg
_reconstructor
p1
(c__main__
KBproperty
p2
c__builtin__
object
p3
NtRp4
(dp5
S'comment'
p6
S'Number of lawyers or attorneys in the company.415408'
p7
sS'domain'
p8
S'Law Firm '
p9
sS'instances_count'
p10
I188
sS'phrases'
p11
NsS'syn_hypo'
p12
S''
sS'label'
p13
S'number of lawyers'
p14
sS'range'
p15
S'non Negative Integer '
p16
sS'uniq_subjs'
p17
S'188'
p18
sS'uniq_objs'
p19
I0
sS'prop_uri'
p20
S'http://dbpedia.org/ontology/numberOfLawyers'
p21
sS'annotations'
p22
(dp23
S'bag_of_words'
p24
(lp25
S'Law'
p26
aS'Firm'
p27
aS'number'
p28
aS'of'
p29
aS'lawyers'
p30
aS'non'
p31
aS'Negative'
p32
aS'Integer'
p33
aS'Number'
p34
aS'of'
p35
aS'lawyers'
p36
aS'or'
p37
aS'attorneys'
p38
aS'in'
p39
aS'the'
p40
aS'company.415408'
p41
asS'chunk_seq'
p42
(lp43
S'B-NP'
p44
aS'I-NP'
p45
aS'E-NP'
p46
aS'S-PP'
p47
aS'S-NP'
p48
aS'B-NP'
p49
aS'I-NP'
p50
aS'I-NP'
p51
aS'E-NP'
p52
aS'S-PP'
p53
aS'B-NP'
p54
aS'I-NP'
p55
aS'E-NP'
p56
aS'S-PP'
p57
aS'B-NP'
p58
aS'E-NP'
p59
asS'dep_seq'
p60
(lp61
(lp62
S'nn'
p63
aS'3'
aS'1'
aa(lp64
S'nn'
p65
aS'3'
aS'2'
aa(lp66
S'nn'
p67
aS'9'
aS'3'
aa(lp68
S'prep_of'
p69
aS'9'
aS'5'
aa(lp70
S'possessive'
p71
aS'9'
aS'6'
aa(lp72
S'nn'
p73
aS'9'
aS'7'
aa(lp74
S'nn'
p75
aS'9'
aS'8'
aa(lp76
S'root'
p77
aS'0'
aS'9'
aa(lp78
S'prep_of'
p79
aS'9'
aS'11'
p80
aa(lp81
S'conj_or'
p82
aS'11'
p83
aS'13'
p84
aa(lp85
S'det'
p86
aS'16'
p87
aS'15'
p88
aa(lp89
S'prep_in'
p90
aS'9'
aS'16'
p91
aasS'srls'
p92
(lp93
sS'pos_seq'
p94
(lp95
S'NNP'
p96
aS'NNP'
p97
aS'NN'
p98
aS'IN'
p99
aS'NNS'
p100
aS'POS'
p101
aS'NNP'
p102
aS'NNP'
p103
aS'NNP'
p104
aS'IN'
p105
aS'NNS'
p106
aS'CC'
p107
aS'NNS'
p108
aS'IN'
p109
aS'DT'
p110
aS'NN'
p111
asS'ner_seq'
p112
(lp113
S'O'
aS'O'
aS'O'
aS'O'
aS'O'
aS'O'
aS'O'
aS'O'
aS'O'
aS'O'
aS'O'
aS'O'
aS'O'
aS'O'
aS'O'
aS'O'
assb.