ccopy_reg
_reconstructor
p1
(c__main__
KBproperty
p2
c__builtin__
object
p3
NtRp4
(dp5
S'comment'
p6
S'Reserved for DBpedia.1522711815227111'
p7
sS'domain'
p8
S''
sS'instances_count'
p9
I15227118
sS'phrases'
p10
NsS'syn_hypo'
p11
S''
sS'label'
p12
S'Wikipage revision ID'
p13
sS'range'
p14
S'integer '
p15
sS'uniq_subjs'
p16
S'15227118'
p17
sS'uniq_objs'
p18
I0
sS'prop_uri'
p19
S'http://dbpedia.org/ontology/wikiPageRevisionID'
p20
sS'annotations'
p21
(dp22
S'bag_of_words'
p23
(lp24
S'Wikipage'
p25
aS'revision'
p26
aS'ID'
p27
aS'integer'
p28
aS'Reserved'
p29
aS'for'
p30
aS'DBpedia.1522711815227111'
p31
asS'chunk_seq'
p32
(lp33
S'B-NP'
p34
aS'I-NP'
p35
aS'I-NP'
p36
aS'E-NP'
p37
aS'S-VP'
p38
aS'S-PP'
p39
aS'S-NP'
p40
asS'dep_seq'
p41
(lp42
(lp43
S'nn'
p44
aS'4'
aS'1'
aa(lp45
S'nn'
p46
aS'4'
aS'2'
aa(lp47
S'nn'
p48
aS'4'
aS'3'
aa(lp49
S'nsubj'
p50
aS'5'
aS'4'
aa(lp51
S'root'
p52
aS'0'
aS'5'
aa(lp53
S'prep_for'
p54
aS'5'
aS'7'
aasS'srls'
p55
(lp56
(dp57
S'A1'
p58
S'Wikipage revision ID integer'
p59
sS'A2'
p60
S'for DBpedia.1522711815227111'
p61
sS'V'
g29
sasS'pos_seq'
p62
(lp63
S'NNP'
p64
aS'NN'
p65
aS'NN'
p66
aS'NN'
p67
aS'VBN'
p68
aS'IN'
p69
aS'NNP'
p70
asS'ner_seq'
p71
(lp72
S'O'
aS'O'
aS'O'
aS'O'
aS'O'
aS'O'
aS'S-PER'
p73
assb.