ccopy_reg
_reconstructor
p1
(c__main__
KBproperty
p2
c__builtin__
object
p3
NtRp4
(dp5
S'comment'
p6
S'15361428'
p7
sS'domain'
p8
S'Broadcaster '
p9
sS'instances_count'
p10
I391
sS'phrases'
p11
NsS'syn_hypo'
p12
S''
sS'label'
p13
S'share of audience'
p14
sS'range'
p15
S'float '
p16
sS'uniq_subjs'
p17
S'391'
p18
sS'uniq_objs'
p19
I0
sS'prop_uri'
p20
S'http://dbpedia.org/ontology/shareOfAudience'
p21
sS'annotations'
p22
(dp23
S'bag_of_words'
p24
(lp25
S'Broadcaster'
p26
aS'share'
p27
aS'of'
p28
aS'audience'
p29
aS'float'
p30
aS'15361428'
p31
asS'chunk_seq'
p32
(lp33
S'B-NP'
p34
aS'E-NP'
p35
aS'S-PP'
p36
aS'B-NP'
p37
aS'E-NP'
p38
aS'S-ADJP'
p39
asS'dep_seq'
p40
(lp41
(lp42
S'nn'
p43
aS'2'
aS'1'
aa(lp44
S'root'
p45
aS'0'
aS'2'
aa(lp46
S'nn'
p47
aS'5'
aS'4'
aa(lp48
S'prep_of'
p49
aS'2'
aS'5'
aa(lp50
S'punct'
p51
aS'5'
aS'6'
aasS'srls'
p52
(lp53
sS'pos_seq'
p54
(lp55
S'NN'
p56
aS'NN'
p57
aS'IN'
p58
aS'NN'
p59
aS'NN'
p60
aS'.'
asS'ner_seq'
p61
(lp62
S'O'
aS'O'
aS'O'
aS'O'
aS'O'
aS'O'
assb.