ccopy_reg
_reconstructor
p1
(c__main__
KBproperty
p2
c__builtin__
object
p3
NtRp4
(dp5
S'comment'
p6
S'The year in which construction of the Place was finished.4670245738'
p7
sS'domain'
p8
S'Place '
p9
sS'instances_count'
p10
I517
sS'phrases'
p11
NsS'syn_hypo'
p12
S''
sS'label'
p13
S'year of construction'
p14
sS'range'
p15
S'g Year '
p16
sS'uniq_subjs'
p17
S'517'
p18
sS'uniq_objs'
p19
I0
sS'prop_uri'
p20
S'http://dbpedia.org/ontology/yearOfConstruction'
p21
sS'annotations'
p22
(dp23
S'bag_of_words'
p24
(lp25
S'Place'
p26
aS'year'
p27
aS'of'
p28
aS'construction'
p29
aS'g'
aS'Year'
p30
aS'The'
p31
aS'year'
p32
aS'in'
p33
aS'which'
p34
aS'construction'
p35
aS'of'
p36
aS'the'
p37
aS'Place'
p38
aS'was'
p39
aS'finished.4670245738'
p40
asS'chunk_seq'
p41
(lp42
S'B-NP'
p43
aS'E-NP'
p44
aS'S-PP'
p45
aS'S-NP'
p46
aS'B-NP'
p47
aS'E-NP'
p48
aS'B-NP'
p49
aS'E-NP'
p50
aS'S-PP'
p51
aS'S-NP'
p52
aS'S-NP'
p53
aS'S-PP'
p54
aS'B-NP'
p55
aS'E-NP'
p56
aS'S-VP'
p57
aS'S-ADJP'
p58
asS'dep_seq'
p59
(lp60
(lp61
S'nn'
p62
aS'2'
aS'1'
aa(lp63
S'root'
p64
aS'0'
aS'2'
aa(lp65
S'prep_in'
p66
aS'16'
p67
aS'2'
aa(lp68
S'nn'
p69
aS'6'
aS'4'
aa(lp70
S'nn'
p71
aS'6'
aS'5'
aa(lp72
S'prep_of'
p73
aS'2'
aS'6'
aa(lp74
S'det'
p75
aS'8'
aS'7'
aa(lp76
S'dep'
p77
aS'2'
aS'8'
aa(lp78
S'rel'
p79
aS'16'
p80
aS'9'
aa(lp81
S'nsubj'
p82
aS'16'
p83
aS'11'
p84
aa(lp85
S'det'
p86
aS'14'
p87
aS'13'
p88
aa(lp89
S'prep_of'
p90
aS'11'
p91
aS'14'
p92
aa(lp93
S'cop'
p94
aS'16'
p95
aS'15'
p96
aa(lp97
S'rcmod'
p98
aS'2'
aS'16'
p99
aasS'srls'
p100
(lp101
sS'pos_seq'
p102
(lp103
S'NN'
p104
aS'NN'
p105
aS'IN'
p106
aS'NN'
p107
aS'NN'
p108
aS'NN'
p109
aS'DT'
p110
aS'NN'
p111
aS'IN'
p112
aS'WDT'
p113
aS'NN'
p114
aS'IN'
p115
aS'DT'
p116
aS'NNP'
p117
aS'VBD'
p118
aS'NN'
p119
asS'ner_seq'
p120
(lp121
S'O'
aS'O'
aS'O'
aS'O'
aS'O'
aS'O'
aS'O'
aS'O'
aS'O'
aS'O'
aS'O'
aS'O'
aS'O'
aS'O'
aS'O'
aS'O'
assb.