ccopy_reg
_reconstructor
p1
(c__main__
KBproperty
p2
c__builtin__
object
p3
NtRp4
(dp5
S'comment'
p6
S'the living thing class from the Latin "classis" according to the biological taxonomy00'
p7
sS'domain'
p8
S'Species '
p9
sS'instances_count'
p10
I0
sS'phrases'
p11
NsS'syn_hypo'
p12
S''
sS'label'
p13
S'classis'
p14
sS'range'
p15
S''
sS'uniq_subjs'
p16
S'0'
sS'uniq_objs'
p17
I0
sS'prop_uri'
p18
S'http://dbpedia.org/ontology/classis'
p19
sS'annotations'
p20
(dp21
S'bag_of_words'
p22
(lp23
S'Species'
p24
aS'classis'
p25
aS'the'
p26
aS'living'
p27
aS'thing'
p28
aS'class'
p29
aS'from'
p30
aS'the'
p31
aS'Latin'
p32
aS'"'
aS'classis'
p33
aS'"'
aS'according'
p34
aS'to'
p35
aS'the'
p36
aS'biological'
p37
aS'taxonomy00'
p38
asS'chunk_seq'
p39
(lp40
S'S-NP'
p41
aS'S-VP'
p42
aS'B-NP'
p43
aS'I-NP'
p44
aS'I-NP'
p45
aS'E-NP'
p46
aS'S-PP'
p47
aS'B-NP'
p48
aS'I-NP'
p49
aS'I-NP'
p50
aS'I-NP'
p51
aS'E-NP'
p52
aS'S-PP'
p53
aS'S-PP'
p54
aS'B-NP'
p55
aS'I-NP'
p56
aS'E-NP'
p57
asS'dep_seq'
p58
(lp59
(lp60
S'nsubj'
p61
aS'2'
aS'1'
aa(lp62
S'root'
p63
aS'0'
aS'2'
aa(lp64
S'det'
p65
aS'6'
aS'3'
aa(lp66
S'nn'
p67
aS'6'
aS'4'
aa(lp68
S'nn'
p69
aS'6'
aS'5'
aa(lp70
S'dobj'
p71
aS'2'
aS'6'
aa(lp72
S'det'
p73
aS'9'
aS'8'
aa(lp74
S'prep_from'
p75
aS'2'
aS'9'
aa(lp76
S'dep'
p77
aS'9'
aS'10'
p78
aa(lp79
S'nn'
p80
aS'12'
p81
aS'11'
p82
aa(lp83
S'advmod'
p84
aS'9'
aS'12'
p85
aa(lp86
S'prepc_according_to'
p87
aS'2'
aS'14'
p88
aa(lp89
S'det'
p90
aS'17'
p91
aS'15'
p92
aa(lp93
S'amod'
p94
aS'17'
p95
aS'16'
p96
aa(lp97
S'pobj'
p98
aS'2'
aS'17'
p99
aasS'srls'
p100
(lp101
(dp102
S'A1'
p103
S'the living thing class'
p104
sS'A0'
p105
g24
sS'A2'
p106
S'from the Latin " classis "'
p107
sS'AM-MNR'
p108
S'according to the biological taxonomy00'
p109
sS'V'
g25
sasS'pos_seq'
p110
(lp111
S'NNS'
p112
aS'VBZ'
p113
aS'DT'
p114
aS'NN'
p115
aS'NN'
p116
aS'NN'
p117
aS'IN'
p118
aS'DT'
p119
aS'FW'
p120
aS'FW'
p121
aS'FW'
p122
aS'FW'
p123
aS'VBG'
p124
aS'TO'
p125
aS'DT'
p126
aS'JJ'
p127
aS'NN'
p128
asS'ner_seq'
p129
(lp130
S'O'
aS'O'
aS'O'
aS'O'
aS'O'
aS'O'
aS'O'
aS'O'
aS'S-MISC'
p131
aS'O'
aS'O'
aS'O'
aS'O'
aS'O'
aS'O'
aS'O'
aS'O'
assb.