ccopy_reg
_reconstructor
p1
(c__main__
KBproperty
p2
c__builtin__
object
p3
NtRp4
(dp5
S'comment'
p6
S'Place of the building in the list of the highest buildings in the country00'
p7
sS'domain'
p8
S'Skyscraper '
p9
sS'instances_count'
p10
I0
sS'phrases'
p11
NsS'syn_hypo'
p12
S''
sS'label'
p13
S'country rank'
p14
sS'range'
p15
S'non Negative Integer '
p16
sS'uniq_subjs'
p17
S'0'
sS'uniq_objs'
p18
I0
sS'prop_uri'
p19
S'http://dbpedia.org/ontology/countryRank'
p20
sS'annotations'
p21
(dp22
S'bag_of_words'
p23
(lp24
S'Skyscraper'
p25
aS'country'
p26
aS'rank'
p27
aS'non'
p28
aS'Negative'
p29
aS'Integer'
p30
aS'Place'
p31
aS'of'
p32
aS'the'
p33
aS'building'
p34
aS'in'
p35
aS'the'
p36
aS'list'
p37
aS'of'
p38
aS'the'
p39
aS'highest'
p40
aS'buildings'
p41
aS'in'
p42
aS'the'
p43
aS'country00'
p44
asS'chunk_seq'
p45
(lp46
S'B-NP'
p47
aS'I-NP'
p48
aS'I-NP'
p49
aS'I-NP'
p50
aS'I-NP'
p51
aS'I-NP'
p52
aS'E-NP'
p53
aS'S-PP'
p54
aS'B-NP'
p55
aS'E-NP'
p56
aS'S-PP'
p57
aS'B-NP'
p58
aS'E-NP'
p59
aS'S-PP'
p60
aS'B-NP'
p61
aS'I-NP'
p62
aS'E-NP'
p63
aS'S-PP'
p64
aS'B-NP'
p65
aS'E-NP'
p66
asS'dep_seq'
p67
(lp68
(lp69
S'nn'
p70
aS'3'
aS'1'
aa(lp71
S'nn'
p72
aS'3'
aS'2'
aa(lp73
S'dep'
p74
aS'7'
aS'3'
aa(lp75
S'amod'
p76
aS'7'
aS'4'
aa(lp77
S'nn'
p78
aS'7'
aS'5'
aa(lp79
S'nn'
p80
aS'7'
aS'6'
aa(lp81
S'root'
p82
aS'0'
aS'7'
aa(lp83
S'det'
p84
aS'10'
p85
aS'9'
aa(lp86
S'prep_of'
p87
aS'7'
aS'10'
p88
aa(lp89
S'det'
p90
aS'13'
p91
aS'12'
p92
aa(lp93
S'prep_in'
p94
aS'7'
aS'13'
p95
aa(lp96
S'det'
p97
aS'17'
p98
aS'15'
p99
aa(lp100
S'amod'
p101
aS'17'
p102
aS'16'
p103
aa(lp104
S'prep_of'
p105
aS'13'
p106
aS'17'
p107
aa(lp108
S'det'
p109
aS'20'
p110
aS'19'
p111
aa(lp112
S'prep_in'
p113
aS'17'
p114
aS'20'
p115
aasS'srls'
p116
(lp117
sS'pos_seq'
p118
(lp119
S'NN'
p120
aS'NN'
p121
aS'NN'
p122
aS'JJ'
p123
aS'NNP'
p124
aS'NNP'
p125
aS'NNP'
p126
aS'IN'
p127
aS'DT'
p128
aS'NN'
p129
aS'IN'
p130
aS'DT'
p131
aS'NN'
p132
aS'IN'
p133
aS'DT'
p134
aS'JJS'
p135
aS'NNS'
p136
aS'IN'
p137
aS'DT'
p138
aS'NN'
p139
asS'ner_seq'
p140
(lp141
S'O'
aS'O'
aS'O'
aS'O'
aS'O'
aS'O'
aS'O'
aS'O'
aS'O'
aS'O'
aS'O'
aS'O'
aS'O'
aS'O'
aS'O'
aS'O'
aS'O'
aS'O'
aS'O'
aS'O'
assb.