ccopy_reg
_reconstructor
p1
(c__main__
KBproperty
p2
c__builtin__
object
p3
NtRp4
(dp5
S'comment'
p6
S'A file contained in a gallery00'
p7
sS'domain'
p8
S'Document '
p9
sS'instances_count'
p10
I0
sS'phrases'
p11
NsS'syn_hypo'
p12
S''
sS'label'
p13
S'gallery item'
p14
sS'range'
p15
S'File '
p16
sS'uniq_subjs'
p17
S'0'
sS'uniq_objs'
p18
I0
sS'prop_uri'
p19
S'http://dbpedia.org/ontology/galleryItem'
p20
sS'annotations'
p21
(dp22
S'bag_of_words'
p23
(lp24
S'Document'
p25
aS'gallery'
p26
aS'item'
p27
aS'File'
p28
aS'A'
aS'file'
p29
aS'contained'
p30
aS'in'
p31
aS'a'
aS'gallery00'
p32
asS'chunk_seq'
p33
(lp34
S'B-NP'
p35
aS'I-NP'
p36
aS'I-NP'
p37
aS'E-NP'
p38
aS'B-NP'
p39
aS'E-NP'
p40
aS'S-VP'
p41
aS'S-PP'
p42
aS'B-NP'
p43
aS'E-NP'
p44
asS'dep_seq'
p45
(lp46
(lp47
S'nn'
p48
aS'4'
aS'1'
aa(lp49
S'nn'
p50
aS'4'
aS'2'
aa(lp51
S'nn'
p52
aS'4'
aS'3'
aa(lp53
S'root'
p54
aS'0'
aS'4'
aa(lp55
S'dobj'
p56
aS'7'
aS'4'
aa(lp57
S'nn'
p58
aS'6'
aS'5'
aa(lp59
S'nsubj'
p60
aS'7'
aS'6'
aa(lp61
S'rcmod'
p62
aS'4'
aS'7'
aa(lp63
S'det'
p64
aS'10'
p65
aS'9'
aa(lp66
S'prep_in'
p67
aS'7'
aS'10'
p68
aasS'srls'
p69
(lp70
(dp71
S'A1'
p72
S'A file'
p73
sS'A0'
p74
S'in a gallery00'
p75
sS'V'
g30
sasS'pos_seq'
p76
(lp77
S'NN'
p78
aS'NN'
p79
aS'NN'
p80
aS'NNP'
p81
aS'NNP'
p82
aS'NN'
p83
aS'VBN'
p84
aS'IN'
p85
aS'DT'
p86
aS'NN'
p87
asS'ner_seq'
p88
(lp89
S'O'
aS'O'
aS'O'
aS'O'
aS'O'
aS'O'
aS'O'
aS'O'
aS'O'
aS'O'
assb.