ccopy_reg
_reconstructor
p1
(c__main__
KBproperty
p2
c__builtin__
object
p3
NtRp4
(dp5
S'comment'
p6
S'4227641320'
p7
sS'domain'
p8
S''
sS'instances_count'
p9
I1477
sS'phrases'
p10
NsS'syn_hypo'
p11
VAmerican_statestateprovinceAustralian_statestateprovinceCanadian_provincestateprovincecommonwealthstateprovinceeparchystateprovinceItalian_regionstateprovinceSoviet_Socialist_Republic
p12
sS'label'
p13
S'state'
p14
sS'range'
p15
S'Populated Place '
p16
sS'uniq_subjs'
p17
S'1477'
p18
sS'uniq_objs'
p19
I0
sS'prop_uri'
p20
S'http://dbpedia.org/ontology/state'
p21
sS'annotations'
p22
(dp23
S'bag_of_words'
p24
(lp25
S'state'
p26
aS'Populated'
p27
aS'Place'
p28
aS'4227641320'
p29
asS'chunk_seq'
p30
(lp31
S'B-NP'
p32
aS'I-NP'
p33
aS'E-NP'
p34
aS'O'
asS'dep_seq'
p35
(lp36
(lp37
S'nn'
p38
aS'3'
aS'1'
aa(lp39
S'amod'
p40
aS'3'
aS'2'
aa(lp41
S'root'
p42
aS'0'
aS'3'
aa(lp43
S'num'
p44
aS'3'
aS'4'
aasS'srls'
p45
(lp46
(dp47
S'A1'
p48
S'state Place'
p49
sS'V'
g27
sasS'pos_seq'
p50
(lp51
S'NN'
p52
aS'VBN'
p53
aS'NN'
p54
aS'CD'
p55
asS'ner_seq'
p56
(lp57
S'O'
aS'O'
aS'O'
aS'O'
assb.