ccopy_reg
_reconstructor
p1
(c__main__
KBproperty
p2
c__builtin__
object
p3
NtRp4
(dp5
S'comment'
p6
S'The service number held by the individual during military service.740671'
p7
sS'domain'
p8
S'Military Person '
p9
sS'instances_count'
p10
I735
sS'phrases'
p11
NsS'syn_hypo'
p12
S''
sS'label'
p13
S'service number'
p14
sS'range'
p15
S'string '
p16
sS'uniq_subjs'
p17
S'735'
p18
sS'uniq_objs'
p19
I0
sS'prop_uri'
p20
S'http://dbpedia.org/ontology/serviceNumber'
p21
sS'annotations'
p22
(dp23
S'bag_of_words'
p24
(lp25
S'Military'
p26
aS'Person'
p27
aS'service'
p28
aS'number'
p29
aS'string'
p30
aS'The'
p31
aS'service'
p32
aS'number'
p33
aS'held'
p34
aS'by'
p35
aS'the'
p36
aS'individual'
p37
aS'during'
p38
aS'military'
p39
aS'service.740671'
p40
asS'chunk_seq'
p41
(lp42
S'B-NP'
p43
aS'I-NP'
p44
aS'I-NP'
p45
aS'I-NP'
p46
aS'E-NP'
p47
aS'B-NP'
p48
aS'I-NP'
p49
aS'E-NP'
p50
aS'S-VP'
p51
aS'S-PP'
p52
aS'B-NP'
p53
aS'E-NP'
p54
aS'S-PP'
p55
aS'B-NP'
p56
aS'E-NP'
p57
asS'dep_seq'
p58
(lp59
(lp60
S'amod'
p61
aS'5'
aS'1'
aa(lp62
S'nn'
p63
aS'5'
aS'2'
aa(lp64
S'nn'
p65
aS'5'
aS'3'
aa(lp66
S'nn'
p67
aS'5'
aS'4'
aa(lp68
S'root'
p69
aS'0'
aS'5'
aa(lp70
S'dobj'
p71
aS'9'
aS'5'
aa(lp72
S'det'
p73
aS'8'
aS'6'
aa(lp74
S'nn'
p75
aS'8'
aS'7'
aa(lp76
S'nsubj'
p77
aS'9'
aS'8'
aa(lp78
S'rcmod'
p79
aS'5'
aS'9'
aa(lp80
S'det'
p81
aS'12'
p82
aS'11'
p83
aa(lp84
S'prep_by'
p85
aS'9'
aS'12'
p86
aa(lp87
S'amod'
p88
aS'15'
p89
aS'14'
p90
aa(lp91
S'prep_during'
p92
aS'9'
aS'15'
p93
aasS'srls'
p94
(lp95
(dp96
S'A1'
p97
S'Military Person service number string The service number'
p98
sS'A0'
p99
S'by the individual'
p100
sS'AM-TMP'
p101
S'during military service.740671'
p102
sS'V'
g34
sasS'pos_seq'
p103
(lp104
S'JJ'
p105
aS'NN'
p106
aS'NN'
p107
aS'NN'
p108
aS'NN'
p109
aS'DT'
p110
aS'NN'
p111
aS'NN'
p112
aS'VBN'
p113
aS'IN'
p114
aS'DT'
p115
aS'NN'
p116
aS'IN'
p117
aS'JJ'
p118
aS'NN'
p119
asS'ner_seq'
p120
(lp121
S'O'
aS'O'
aS'O'
aS'O'
aS'O'
aS'O'
aS'O'
aS'O'
aS'O'
aS'O'
aS'O'
aS'O'
aS'O'
aS'O'
aS'O'
assb.