ccopy_reg
_reconstructor
p1
(c__main__
KBproperty
p2
c__builtin__
object
p3
NtRp4
(dp5
S'comment'
p6
S'Main ingredient used to prepare a specific Food or Beverage. For strings use ingredientName for objects use ingredient.124583729'
p7
sS'domain'
p8
S'Food '
p9
sS'instances_count'
p10
I12458
sS'phrases'
p11
NsS'syn_hypo'
p12
Vadmixtureingredientintermixtureingredientbase
p13
sS'label'
p14
S'ingredient'
p15
sS'range'
p16
S''
sS'uniq_subjs'
p17
S'1464'
p18
sS'uniq_objs'
p19
I0
sS'prop_uri'
p20
S'http://dbpedia.org/ontology/ingredient'
p21
sS'annotations'
p22
(dp23
S'bag_of_words'
p24
(lp25
S'Food'
p26
aS'ingredient'
p27
aS'Main'
p28
aS'ingredient'
p29
aS'used'
p30
aS'to'
p31
aS'prepare'
p32
aS'a'
aS'specific'
p33
aS'Food'
p34
aS'or'
p35
aS'Beverage'
p36
aS'.'
aS'For'
p37
aS'strings'
p38
aS'use'
p39
aS'ingredientName'
p40
aS'for'
p41
aS'objects'
p42
aS'use'
p43
aS'ingredient.124583729'
p44
asS'chunk_seq'
p45
(lp46
S'B-NP'
p47
aS'I-NP'
p48
aS'I-NP'
p49
aS'E-NP'
p50
aS'S-VP'
p51
aS'B-VP'
p52
aS'E-VP'
p53
aS'B-NP'
p54
aS'I-NP'
p55
aS'I-NP'
p56
aS'I-NP'
p57
aS'E-NP'
p58
aS'O'
aS'S-PP'
p59
aS'S-NP'
p60
aS'S-VP'
p61
aS'S-ADJP'
p62
aS'S-PP'
p63
aS'S-NP'
p64
aS'S-VP'
p65
aS'S-NP'
p66
asS'dep_seq'
p67
(lp68
(lp69
S'nn'
p70
aS'4'
aS'1'
aa(lp71
S'nn'
p72
aS'4'
aS'2'
aa(lp73
S'nn'
p74
aS'4'
aS'3'
aa(lp75
S'nsubj'
p76
aS'20'
p77
aS'4'
aa(lp78
S'partmod'
p79
aS'4'
aS'5'
aa(lp80
S'aux'
p81
aS'7'
aS'6'
aa(lp82
S'xcomp'
p83
aS'5'
aS'7'
aa(lp84
S'det'
p85
aS'10'
p86
aS'8'
aa(lp87
S'amod'
p88
aS'10'
p89
aS'9'
aa(lp90
S'dobj'
p91
aS'7'
aS'10'
p92
aa(lp93
S'conj_or'
p94
aS'10'
p95
aS'12'
p96
aa(lp97
S'prep_for'
p98
aS'20'
p99
aS'15'
p100
aa(lp101
S'dep'
p102
aS'15'
p103
aS'16'
p104
aa(lp105
S'dobj'
p106
aS'16'
p107
aS'17'
p108
aa(lp109
S'prep_for'
p110
aS'16'
p111
aS'19'
p112
aa(lp113
S'root'
p114
aS'0'
aS'20'
p115
aa(lp116
S'dobj'
p117
aS'20'
p118
aS'21'
p119
aasS'srls'
p120
(lp121
(dp122
S'V'
g30
sa(dp123
S'A1'
p124
S'a specific Food or Beverage'
p125
sS'A0'
p126
S'Food ingredient Main ingredient'
p127
sS'V'
g32
sa(dp128
S'A1'
p129
g40
sS'A0'
p130
g38
sS'A2'
p131
S'for objects use ingredient.124583729'
p132
sS'V'
g39
sa(dp133
S'A1'
p134
g44
sS'A0'
p135
g42
sS'V'
g43
sasS'pos_seq'
p136
(lp137
S'NN'
p138
aS'NN'
p139
aS'NNP'
p140
aS'NN'
p141
aS'VBN'
p142
aS'TO'
p143
aS'VB'
p144
aS'DT'
p145
aS'JJ'
p146
aS'NNP'
p147
aS'CC'
p148
aS'NNP'
p149
aS'.'
aS'IN'
p150
aS'NNS'
p151
aS'VBP'
p152
aS'JJ'
p153
aS'IN'
p154
aS'NNS'
p155
aS'VBP'
p156
aS'NN'
p157
asS'ner_seq'
p158
(lp159
S'O'
aS'O'
aS'O'
aS'O'
aS'O'
aS'O'
aS'O'
aS'O'
aS'O'
aS'O'
aS'O'
aS'O'
aS'O'
aS'O'
aS'O'
aS'O'
aS'O'
aS'O'
aS'O'
aS'O'
aS'O'
assb.