ccopy_reg
_reconstructor
p1
(c__main__
KBproperty
p2
c__builtin__
object
p3
NtRp4
(dp5
S'comment'
p6
S'winner of a competition in the double session as in tennis00'
p7
sS'domain'
p8
S'Sports Event '
p9
sS'instances_count'
p10
I0
sS'phrases'
p11
NsS'syn_hypo'
p12
S''
sS'label'
p13
S'champion in double'
p14
sS'range'
p15
S'Athlete '
p16
sS'uniq_subjs'
p17
S'0'
sS'uniq_objs'
p18
I0
sS'prop_uri'
p19
S'http://dbpedia.org/ontology/championInDouble'
p20
sS'annotations'
p21
(dp22
S'bag_of_words'
p23
(lp24
S'Sports'
p25
aS'Event'
p26
aS'champion'
p27
aS'in'
p28
aS'double'
p29
aS'Athlete'
p30
aS'winner'
p31
aS'of'
p32
aS'a'
aS'competition'
p33
aS'in'
p34
aS'the'
p35
aS'double'
p36
aS'session'
p37
aS'as'
p38
aS'in'
p39
aS'tennis00'
p40
asS'chunk_seq'
p41
(lp42
S'B-NP'
p43
aS'I-NP'
p44
aS'E-NP'
p45
aS'S-PP'
p46
aS'B-NP'
p47
aS'I-NP'
p48
aS'E-NP'
p49
aS'S-PP'
p50
aS'B-NP'
p51
aS'E-NP'
p52
aS'S-PP'
p53
aS'B-NP'
p54
aS'I-NP'
p55
aS'E-NP'
p56
aS'S-PP'
p57
aS'S-PP'
p58
aS'S-NP'
p59
asS'dep_seq'
p60
(lp61
(lp62
S'nn'
p63
aS'3'
aS'1'
aa(lp64
S'nn'
p65
aS'3'
aS'2'
aa(lp66
S'root'
p67
aS'0'
aS'3'
aa(lp68
S'amod'
p69
aS'7'
aS'5'
aa(lp70
S'nn'
p71
aS'7'
aS'6'
aa(lp72
S'prep_in'
p73
aS'3'
aS'7'
aa(lp74
S'det'
p75
aS'10'
p76
aS'9'
aa(lp77
S'prep_of'
p78
aS'3'
aS'10'
p79
aa(lp80
S'det'
p81
aS'14'
p82
aS'12'
p83
aa(lp84
S'amod'
p85
aS'14'
p86
aS'13'
p87
aa(lp88
S'prep_in'
p89
aS'10'
p90
aS'14'
p91
aa(lp92
S'prep'
p93
aS'10'
p94
aS'15'
p95
aa(lp96
S'pcomp'
p97
aS'15'
p98
aS'16'
p99
aa(lp100
S'pobj'
p101
aS'16'
p102
aS'17'
p103
aasS'srls'
p104
(lp105
sS'pos_seq'
p106
(lp107
S'NNS'
p108
aS'NN'
p109
aS'NN'
p110
aS'IN'
p111
aS'JJ'
p112
aS'NN'
p113
aS'NN'
p114
aS'IN'
p115
aS'DT'
p116
aS'NN'
p117
aS'IN'
p118
aS'DT'
p119
aS'JJ'
p120
aS'NN'
p121
aS'IN'
p122
aS'IN'
p123
aS'NN'
p124
asS'ner_seq'
p125
(lp126
S'O'
aS'O'
aS'O'
aS'O'
aS'O'
aS'O'
aS'O'
aS'O'
aS'O'
aS'O'
aS'O'
aS'O'
aS'O'
aS'O'
aS'O'
aS'O'
aS'O'
assb.