ccopy_reg
_reconstructor
p1
(c__main__
KBproperty
p2
c__builtin__
object
p3
NtRp4
(dp5
S'comment'
p6
S'Name of a character in play.5373904'
p7
sS'domain'
p8
S'Play '
p9
sS'instances_count'
p10
I4737
sS'phrases'
p11
NsS'syn_hypo'
p12
S''
sS'label'
p13
S'character in play'
p14
sS'range'
p15
S'string '
p16
sS'uniq_subjs'
p17
S'4737'
p18
sS'uniq_objs'
p19
I0
sS'prop_uri'
p20
S'http://dbpedia.org/ontology/characterInPlay'
p21
sS'annotations'
p22
(dp23
S'bag_of_words'
p24
(lp25
S'Play'
p26
aS'character'
p27
aS'in'
p28
aS'play'
p29
aS'string'
p30
aS'Name'
p31
aS'of'
p32
aS'a'
aS'character'
p33
aS'in'
p34
aS'play.5373904'
p35
asS'chunk_seq'
p36
(lp37
S'S-VP'
p38
aS'S-NP'
p39
aS'S-PP'
p40
aS'B-NP'
p41
aS'I-NP'
p42
aS'E-NP'
p43
aS'S-PP'
p44
aS'B-NP'
p45
aS'E-NP'
p46
aS'S-PP'
p47
aS'S-NP'
p48
asS'dep_seq'
p49
(lp50
(lp51
S'root'
p52
aS'0'
aS'1'
aa(lp53
S'dobj'
p54
aS'1'
aS'2'
aa(lp55
S'nn'
p56
aS'6'
aS'4'
aa(lp57
S'nn'
p58
aS'6'
aS'5'
aa(lp59
S'prep_in'
p60
aS'2'
aS'6'
aa(lp61
S'det'
p62
aS'9'
aS'8'
aa(lp63
S'prep_of'
p64
aS'6'
aS'9'
aa(lp65
S'prep_in'
p66
aS'1'
aS'11'
p67
aasS'srls'
p68
(lp69
(dp70
S'A1'
p71
g27
sS'AM-MNR'
p72
S'in play string Name of a character in play.5373904'
p73
sS'V'
g26
sasS'pos_seq'
p74
(lp75
S'VB'
p76
aS'NN'
p77
aS'IN'
p78
aS'NN'
p79
aS'NN'
p80
aS'NN'
p81
aS'IN'
p82
aS'DT'
p83
aS'NN'
p84
aS'IN'
p85
aS'NN'
p86
asS'ner_seq'
p87
(lp88
S'O'
aS'O'
aS'O'
aS'O'
aS'O'
aS'O'
aS'O'
aS'O'
aS'O'
aS'O'
aS'O'
assb.