ccopy_reg
_reconstructor
p1
(c__main__
KBproperty
p2
c__builtin__
object
p3
NtRp4
(dp5
S'comment'
p6
S'high-ranking solicitor00'
p7
sS'domain'
p8
S'Legal Case '
p9
sS'instances_count'
p10
I0
sS'phrases'
p11
NsS'syn_hypo'
p12
S''
sS'label'
p13
S'solicitor general'
p14
sS'range'
p15
S'Person '
p16
sS'uniq_subjs'
p17
S'0'
sS'uniq_objs'
p18
I0
sS'prop_uri'
p19
S'http://dbpedia.org/ontology/solicitorGeneral'
p20
sS'annotations'
p21
(dp22
S'bag_of_words'
p23
(lp24
S'Legal'
p25
aS'Case'
p26
aS'solicitor'
p27
aS'general'
p28
aS'Person'
p29
aS'high-ranking'
p30
aS'solicitor00'
p31
asS'chunk_seq'
p32
(lp33
S'B-NP'
p34
aS'I-NP'
p35
aS'I-NP'
p36
aS'I-NP'
p37
aS'E-NP'
p38
aS'B-NP'
p39
aS'E-NP'
p40
asS'dep_seq'
p41
(lp42
(lp43
S'nn'
p44
aS'5'
aS'1'
aa(lp45
S'nn'
p46
aS'5'
aS'2'
aa(lp47
S'nn'
p48
aS'5'
aS'3'
aa(lp49
S'amod'
p50
aS'5'
aS'4'
aa(lp51
S'root'
p52
aS'0'
aS'5'
aa(lp53
S'amod'
p54
aS'7'
aS'ranking'
p55
aa(lp56
S'dep'
p57
aS'5'
aS'7'
aasS'srls'
p58
(lp59
sS'pos_seq'
p60
(lp61
S'NNP'
p62
aS'NNP'
p63
aS'NN'
p64
aS'JJ'
p65
aS'NN'
p66
aS'JJ'
p67
aS'NN'
p68
asS'ner_seq'
p69
(lp70
S'O'
aS'O'
aS'O'
aS'O'
aS'O'
aS'O'
aS'O'
assb.