ccopy_reg
_reconstructor
p1
(c__main__
KBproperty
p2
c__builtin__
object
p3
NtRp4
(dp5
S'comment'
p6
S'00'
p7
sS'domain'
p8
S'Olympics '
p9
sS'instances_count'
p10
I0
sS'phrases'
p11
NsS'syn_hypo'
p12
S''
sS'label'
p13
S'official opened by'
p14
sS'range'
p15
S'Person '
p16
sS'uniq_subjs'
p17
S'0'
sS'uniq_objs'
p18
I0
sS'prop_uri'
p19
S'http://dbpedia.org/ontology/officialOpenedBy'
p20
sS'annotations'
p21
(dp22
S'bag_of_words'
p23
(lp24
S'Olympics'
p25
aS'official'
p26
aS'opened'
p27
aS'by'
p28
aS'Person'
p29
aS'00'
p30
asS'chunk_seq'
p31
(lp32
S'B-NP'
p33
aS'E-NP'
p34
aS'S-VP'
p35
aS'S-PP'
p36
aS'S-NP'
p37
aS'O'
asS'dep_seq'
p38
(lp39
(lp40
S'nn'
p41
aS'2'
aS'1'
aa(lp42
S'nsubj'
p43
aS'3'
aS'2'
aa(lp44
S'root'
p45
aS'0'
aS'3'
aa(lp46
S'prep_by'
p47
aS'3'
aS'5'
aa(lp48
S'num'
p49
aS'5'
aS'6'
aasS'srls'
p50
(lp51
(dp52
S'A1'
p53
S'Olympics official'
p54
sS'AM-MNR'
p55
S'by Person 00'
p56
sS'V'
g27
sasS'pos_seq'
p57
(lp58
S'NNS'
p59
aS'NN'
p60
aS'VBN'
p61
aS'IN'
p62
aS'NN'
p63
aS'CD'
p64
asS'ner_seq'
p65
(lp66
S'S-MISC'
p67
aS'O'
aS'O'
aS'O'
aS'O'
aS'O'
assb.