ccopy_reg
_reconstructor
p1
(c__main__
KBproperty
p2
c__builtin__
object
p3
NtRp4
(dp5
S'comment'
p6
S'Information on the type of platforms at the station.1836017983'
p7
sS'domain'
p8
S'Station '
p9
sS'instances_count'
p10
I1258
sS'phrases'
p11
NsS'syn_hypo'
p12
S''
sS'label'
p13
S'railway platforms'
p14
sS'range'
p15
S'string '
p16
sS'uniq_subjs'
p17
S'1258'
p18
sS'uniq_objs'
p19
I0
sS'prop_uri'
p20
S'http://dbpedia.org/ontology/railwayPlatforms'
p21
sS'annotations'
p22
(dp23
S'bag_of_words'
p24
(lp25
S'Station'
p26
aS'railway'
p27
aS'platforms'
p28
aS'string'
p29
aS'Information'
p30
aS'on'
p31
aS'the'
p32
aS'type'
p33
aS'of'
p34
aS'platforms'
p35
aS'at'
p36
aS'the'
p37
aS'station.1836017983'
p38
asS'chunk_seq'
p39
(lp40
S'B-NP'
p41
aS'I-NP'
p42
aS'I-NP'
p43
aS'I-NP'
p44
aS'E-NP'
p45
aS'S-PP'
p46
aS'B-NP'
p47
aS'E-NP'
p48
aS'S-PP'
p49
aS'S-NP'
p50
aS'S-PP'
p51
aS'B-NP'
p52
aS'E-NP'
p53
asS'dep_seq'
p54
(lp55
(lp56
S'nn'
p57
aS'5'
aS'1'
aa(lp58
S'nn'
p59
aS'5'
aS'2'
aa(lp60
S'nn'
p61
aS'5'
aS'3'
aa(lp62
S'nn'
p63
aS'5'
aS'4'
aa(lp64
S'root'
p65
aS'0'
aS'5'
aa(lp66
S'det'
p67
aS'8'
aS'7'
aa(lp68
S'prep_on'
p69
aS'5'
aS'8'
aa(lp70
S'prep_of'
p71
aS'8'
aS'10'
p72
aa(lp73
S'det'
p74
aS'13'
p75
aS'12'
p76
aa(lp77
S'prep_at'
p78
aS'5'
aS'13'
p79
aasS'srls'
p80
(lp81
sS'pos_seq'
p82
(lp83
S'NN'
p84
aS'NN'
p85
aS'NNS'
p86
aS'NN'
p87
aS'NN'
p88
aS'IN'
p89
aS'DT'
p90
aS'NN'
p91
aS'IN'
p92
aS'NNS'
p93
aS'IN'
p94
aS'DT'
p95
aS'NN'
p96
asS'ner_seq'
p97
(lp98
S'O'
aS'O'
aS'O'
aS'O'
aS'O'
aS'O'
aS'O'
aS'O'
aS'O'
aS'O'
aS'O'
aS'O'
aS'O'
assb.