ccopy_reg
_reconstructor
p1
(c__main__
KBproperty
p2
c__builtin__
object
p3
NtRp4
(dp5
S'comment'
p6
S'The year in which number of visitors occurred.9696'
p7
sS'domain'
p8
S'Historic Place '
p9
sS'instances_count'
p10
I15
sS'phrases'
p11
NsS'syn_hypo'
p12
S''
sS'label'
p13
S'number of visitors as of'
p14
sS'range'
p15
S'g Year '
p16
sS'uniq_subjs'
p17
S'15'
p18
sS'uniq_objs'
p19
I0
sS'prop_uri'
p20
S'http://dbpedia.org/ontology/numberOfVisitorsAsOf'
p21
sS'annotations'
p22
(dp23
S'bag_of_words'
p24
(lp25
S'Historic'
p26
aS'Place'
p27
aS'number'
p28
aS'of'
p29
aS'visitors'
p30
aS'as'
p31
aS'of'
p32
aS'g'
aS'Year'
p33
aS'The'
p34
aS'year'
p35
aS'in'
p36
aS'which'
p37
aS'number'
p38
aS'of'
p39
aS'visitors'
p40
aS'occurred.9696'
p41
asS'chunk_seq'
p42
(lp43
S'B-NP'
p44
aS'I-NP'
p45
aS'E-NP'
p46
aS'S-PP'
p47
aS'S-NP'
p48
aS'S-PP'
p49
aS'S-PP'
p50
aS'B-NP'
p51
aS'E-NP'
p52
aS'B-NP'
p53
aS'E-NP'
p54
aS'S-PP'
p55
aS'S-NP'
p56
aS'S-NP'
p57
aS'S-PP'
p58
aS'S-NP'
p59
aS'S-ADJP'
p60
asS'dep_seq'
p61
(lp62
(lp63
S'amod'
p64
aS'3'
aS'1'
aa(lp65
S'nn'
p66
aS'3'
aS'2'
aa(lp67
S'root'
p68
aS'0'
aS'3'
aa(lp69
S'prep_of'
p70
aS'3'
aS'5'
aa(lp71
S'nn'
p72
aS'9'
aS'8'
aa(lp73
S'prep_as_of'
p74
aS'5'
aS'9'
aa(lp75
S'det'
p76
aS'11'
p77
aS'10'
p78
aa(lp79
S'dep'
p80
aS'9'
aS'11'
p81
aa(lp82
S'dep'
p83
aS'14'
p84
aS'13'
p85
aa(lp86
S'prep_in'
p87
aS'3'
aS'14'
p88
aa(lp89
S'prep_of'
p90
aS'14'
p91
aS'16'
p92
aa(lp93
S'dep'
p94
aS'3'
aS'17'
p95
aasS'srls'
p96
(lp97
sS'pos_seq'
p98
(lp99
S'JJ'
p100
aS'NN'
p101
aS'NN'
p102
aS'IN'
p103
aS'NNS'
p104
aS'IN'
p105
aS'IN'
p106
aS'NN'
p107
aS'NN'
p108
aS'DT'
p109
aS'NN'
p110
aS'IN'
p111
aS'WDT'
p112
aS'NN'
p113
aS'IN'
p114
aS'NNS'
p115
aS'.'
asS'ner_seq'
p116
(lp117
S'O'
aS'O'
aS'O'
aS'O'
aS'O'
aS'O'
aS'O'
aS'O'
aS'O'
aS'O'
aS'O'
aS'O'
aS'O'
aS'O'
aS'O'
aS'O'
aS'O'
assb.