ccopy_reg
_reconstructor
p1
(c__main__
KBproperty
p2
c__builtin__
object
p3
NtRp4
(dp5
S'comment'
p6
S'source confluence elevation \\xce\\xbc'
p7
sS'domain'
p8
S''
sS'instances_count'
p9
I189
sS'phrases'
p10
NsS'syn_hypo'
p11
S''
sS'label'
p12
g7
sS'range'
p13
S'double '
p14
sS'uniq_subjs'
p15
S'189'
p16
sS'uniq_objs'
p17
I0
sS'prop_uri'
p18
S'http://dbpedia.org/ontology/sourceConfluenceElevation'
p19
sS'annotations'
p20
(dp21
S'bag_of_words'
p22
(lp23
S'source'
p24
aS'Confluence'
p25
aS'Elevation'
p26
aS'double'
p27
aS'source'
p28
aS'confluence'
p29
aS'elevation'
p30
aS'\\'
aS'xce'
p31
aS'\\'
aS'xbc'
p32
asS'chunk_seq'
p33
(lp34
S'B-NP'
p35
aS'I-NP'
p36
aS'I-NP'
p37
aS'I-NP'
p38
aS'I-NP'
p39
aS'E-NP'
p40
aS'S-NP'
p41
aS'O'
aS'O'
aS'O'
aS'O'
asS'dep_seq'
p42
(lp43
(lp44
S'nn'
p45
aS'7'
aS'1'
aa(lp46
S'nn'
p47
aS'7'
aS'2'
aa(lp48
S'nn'
p49
aS'7'
aS'3'
aa(lp50
S'amod'
p51
aS'7'
aS'4'
aa(lp52
S'nn'
p53
aS'7'
aS'5'
aa(lp54
S'nn'
p55
aS'7'
aS'6'
aa(lp56
S'root'
p57
aS'0'
aS'7'
aa(lp58
S'nn'
p59
aS'7'
aS'8'
aa(lp60
S'nn'
p61
aS'7'
aS'9'
aa(lp62
S'nn'
p63
aS'7'
aS'10'
p64
aa(lp65
S'dep'
p66
aS'7'
aS'11'
p67
aasS'srls'
p68
(lp69
sS'pos_seq'
p70
(lp71
S'NN'
p72
aS'NN'
p73
aS'NN'
p74
aS'JJ'
p75
aS'NN'
p76
aS'NN'
p77
aS'NN'
p78
aS'FW'
p79
aS'FW'
p80
aS'FW'
p81
aS'FW'
p82
asS'ner_seq'
p83
(lp84
S'O'
aS'O'
aS'O'
aS'O'
aS'O'
aS'O'
aS'O'
aS'O'
aS'O'
aS'O'
aS'O'
assb.