ccopy_reg
_reconstructor
p1
(c__main__
KBproperty
p2
c__builtin__
object
p3
NtRp4
(dp5
S'comment'
p6
S'00'
p7
sS'domain'
p8
S'Person '
p9
sS'instances_count'
p10
I0
sS'phrases'
p11
NsS'syn_hypo'
p12
S''
sS'label'
p13
S'birth sign'
p14
sS'range'
p15
S''
sS'uniq_subjs'
p16
S'0'
sS'uniq_objs'
p17
I0
sS'prop_uri'
p18
S'http://dbpedia.org/ontology/birthSign'
p19
sS'annotations'
p20
(dp21
S'bag_of_words'
p22
(lp23
S'Person'
p24
aS'birth'
p25
aS'sign'
p26
aS'00'
p27
asS'chunk_seq'
p28
(lp29
S'B-NP'
p30
aS'I-NP'
p31
aS'E-NP'
p32
aS'S-ADVP'
p33
asS'dep_seq'
p34
(lp35
(lp36
S'nn'
p37
aS'2'
aS'1'
aa(lp38
S'nsubj'
p39
aS'3'
aS'2'
aa(lp40
S'root'
p41
aS'0'
aS'3'
aa(lp42
S'dobj'
p43
aS'3'
aS'4'
aasS'srls'
p44
(lp45
sS'pos_seq'
p46
(lp47
S'NN'
p48
aS'NN'
p49
aS'NN'
p50
aS'CD'
p51
asS'ner_seq'
p52
(lp53
S'O'
aS'O'
aS'O'
aS'O'
assb.