ccopy_reg
_reconstructor
p1
(c__main__
KBproperty
p2
c__builtin__
object
p3
NtRp4
(dp5
S'comment'
p6
S'winner of a competition in the single session to distinguish from the double session as in tennis00'
p7
sS'domain'
p8
S'Sports Event '
p9
sS'instances_count'
p10
I0
sS'phrases'
p11
NsS'syn_hypo'
p12
S''
sS'label'
p13
S'champion in single'
p14
sS'range'
p15
S'Athlete '
p16
sS'uniq_subjs'
p17
S'0'
sS'uniq_objs'
p18
I0
sS'prop_uri'
p19
S'http://dbpedia.org/ontology/championInSingle'
p20
sS'annotations'
p21
(dp22
S'bag_of_words'
p23
(lp24
S'Sports'
p25
aS'Event'
p26
aS'champion'
p27
aS'in'
p28
aS'single'
p29
aS'Athlete'
p30
aS'winner'
p31
aS'of'
p32
aS'a'
aS'competition'
p33
aS'in'
p34
aS'the'
p35
aS'single'
p36
aS'session'
p37
aS'to'
p38
aS'distinguish'
p39
aS'from'
p40
aS'the'
p41
aS'double'
p42
aS'session'
p43
aS'as'
p44
aS'in'
p45
aS'tennis00'
p46
asS'chunk_seq'
p47
(lp48
S'B-NP'
p49
aS'I-NP'
p50
aS'E-NP'
p51
aS'S-PP'
p52
aS'B-NP'
p53
aS'I-NP'
p54
aS'E-NP'
p55
aS'S-PP'
p56
aS'B-NP'
p57
aS'E-NP'
p58
aS'S-PP'
p59
aS'B-NP'
p60
aS'I-NP'
p61
aS'E-NP'
p62
aS'B-VP'
p63
aS'E-VP'
p64
aS'S-PP'
p65
aS'B-NP'
p66
aS'I-NP'
p67
aS'E-NP'
p68
aS'S-PP'
p69
aS'S-PP'
p70
aS'S-NP'
p71
asS'dep_seq'
p72
(lp73
(lp74
S'nn'
p75
aS'3'
aS'1'
aa(lp76
S'nn'
p77
aS'3'
aS'2'
aa(lp78
S'root'
p79
aS'0'
aS'3'
aa(lp80
S'amod'
p81
aS'7'
aS'5'
aa(lp82
S'nn'
p83
aS'7'
aS'6'
aa(lp84
S'prep_in'
p85
aS'3'
aS'7'
aa(lp86
S'det'
p87
aS'10'
p88
aS'9'
aa(lp89
S'prep_of'
p90
aS'7'
aS'10'
p91
aa(lp92
S'det'
p93
aS'14'
p94
aS'12'
p95
aa(lp96
S'amod'
p97
aS'14'
p98
aS'13'
p99
aa(lp100
S'prep_in'
p101
aS'10'
p102
aS'14'
p103
aa(lp104
S'aux'
p105
aS'16'
p106
aS'15'
p107
aa(lp108
S'infmod'
p109
aS'10'
p110
aS'16'
p111
aa(lp112
S'det'
p113
aS'20'
p114
aS'18'
p115
aa(lp116
S'amod'
p117
aS'20'
p118
aS'19'
p119
aa(lp120
S'prep_from'
p121
aS'16'
p122
aS'20'
p123
aa(lp124
S'prep'
p125
aS'16'
p126
aS'21'
p127
aa(lp128
S'pcomp'
p129
aS'21'
p130
aS'22'
p131
aa(lp132
S'pobj'
p133
aS'22'
p134
aS'23'
p135
aasS'srls'
p136
(lp137
(dp138
S'A0'
p139
S'Sports Event champion in single Athlete winner of a competition in the single session'
p140
sS'A2'
p141
S'from the double session  in tennis00'
p142
sS'V'
g39
sasS'pos_seq'
p143
(lp144
S'NNS'
p145
aS'NN'
p146
aS'NN'
p147
aS'IN'
p148
aS'JJ'
p149
aS'NN'
p150
aS'NN'
p151
aS'IN'
p152
aS'DT'
p153
aS'NN'
p154
aS'IN'
p155
aS'DT'
p156
aS'JJ'
p157
aS'NN'
p158
aS'TO'
p159
aS'VB'
p160
aS'IN'
p161
aS'DT'
p162
aS'JJ'
p163
aS'NN'
p164
aS'IN'
p165
aS'IN'
p166
aS'NN'
p167
asS'ner_seq'
p168
(lp169
S'O'
aS'O'
aS'O'
aS'O'
aS'O'
aS'O'
aS'O'
aS'O'
aS'O'
aS'O'
aS'O'
aS'O'
aS'O'
aS'O'
aS'O'
aS'O'
aS'O'
aS'O'
aS'O'
aS'O'
aS'O'
aS'O'
aS'O'
assb.