ccopy_reg
_reconstructor
p1
(c__main__
KBproperty
p2
c__builtin__
object
p3
NtRp4
(dp5
S'comment'
p6
S'discharge average m\\xc2\\xb3/s'
p7
sS'domain'
p8
S'Mean Of Transportation '
p9
sS'instances_count'
p10
I146
sS'phrases'
p11
NsS'syn_hypo'
p12
S''
sS'label'
p13
g7
sS'range'
p14
S'double '
p15
sS'uniq_subjs'
p16
S'146'
p17
sS'uniq_objs'
p18
I0
sS'prop_uri'
p19
S'http://dbpedia.org/ontology/dischargeAverage'
p20
sS'annotations'
p21
(dp22
S'bag_of_words'
p23
(lp24
S'Mean'
p25
aS'Of'
p26
aS'Transportation'
p27
aS'discharge'
p28
aS'Average'
p29
aS'double'
p30
aS'discharge'
p31
aS'average'
p32
aS'm'
aS'\\'
aS'xc2'
p33
aS'\\'
aS'xb3'
p34
aS'/s'
p35
asS'chunk_seq'
p36
(lp37
S'S-NP'
p38
aS'S-PP'
p39
aS'B-NP'
p40
aS'I-NP'
p41
aS'I-NP'
p42
aS'I-NP'
p43
aS'E-NP'
p44
aS'S-NP'
p45
aS'O'
aS'O'
aS'O'
aS'O'
aS'O'
aS'O'
asS'dep_seq'
p46
(lp47
(lp48
S'nsubj'
p49
aS'4'
aS'1'
aa(lp50
S'prep_of'
p51
aS'4'
aS'3'
aa(lp52
S'root'
p53
aS'0'
aS'4'
aa(lp54
S'amod'
p55
aS'8'
aS'5'
aa(lp56
S'amod'
p57
aS'8'
aS'6'
aa(lp58
S'nn'
p59
aS'8'
aS'7'
aa(lp60
S'dobj'
p61
aS'4'
aS'8'
aa(lp62
S'nn'
p63
aS'8'
aS'9'
aa(lp64
S'nn'
p65
aS'8'
aS'10'
p66
aa(lp67
S'nn'
p68
aS'8'
aS'11'
p69
aa(lp70
S'nn'
p71
aS'8'
aS'12'
p72
aa(lp73
S'dep'
p74
aS'8'
aS'13'
p75
aa(lp76
S'punct'
p77
aS'8'
aS'14'
p78
aasS'srls'
p79
(lp80
sS'pos_seq'
p81
(lp82
S'NNP'
p83
aS'IN'
p84
aS'NN'
p85
aS'NN'
p86
aS'JJ'
p87
aS'JJ'
p88
aS'NN'
p89
aS'NN'
p90
aS'FW'
p91
aS'FW'
p92
aS'FW'
p93
aS'FW'
p94
aS'FW'
p95
aS'.'
asS'ner_seq'
p96
(lp97
S'O'
aS'O'
aS'O'
aS'O'
aS'O'
aS'O'
aS'O'
aS'O'
aS'O'
aS'O'
aS'O'
aS'O'
aS'O'
aS'O'
assb.