ccopy_reg
_reconstructor
p1
(c__main__
KBproperty
p2
c__builtin__
object
p3
NtRp4
(dp5
S'comment'
p6
S'wins at Senior Euro'
p7
sS'domain'
p8
S'Golf Player '
p9
sS'instances_count'
p10
I0
sS'phrases'
p11
NsS'syn_hypo'
p12
S''
sS'label'
p13
g7
sS'range'
p14
S''
sS'uniq_subjs'
p15
S'0'
sS'uniq_objs'
p16
I0
sS'prop_uri'
p17
S'http://dbpedia.org/ontology/winsAtSenEuro'
p18
sS'annotations'
p19
(dp20
S'bag_of_words'
p21
(lp22
S'Golf'
p23
aS'Player'
p24
aS'wins'
p25
aS'At'
p26
aS'Sen'
p27
aS'Euro'
p28
aS'wins'
p29
aS'at'
p30
aS'Senior'
p31
aS'Euro'
p32
asS'chunk_seq'
p33
(lp34
S'B-NP'
p35
aS'E-NP'
p36
aS'S-VP'
p37
aS'S-PP'
p38
aS'B-NP'
p39
aS'E-NP'
p40
aS'S-VP'
p41
aS'S-PP'
p42
aS'B-NP'
p43
aS'E-NP'
p44
asS'dep_seq'
p45
(lp46
(lp47
S'nn'
p48
aS'2'
aS'1'
aa(lp49
S'nsubj'
p50
aS'3'
aS'2'
aa(lp51
S'root'
p52
aS'0'
aS'3'
aa(lp53
S'nn'
p54
aS'6'
aS'5'
aa(lp55
S'prep_at'
p56
aS'3'
aS'6'
aa(lp57
S'dep'
p58
aS'3'
aS'7'
aa(lp59
S'nn'
p60
aS'10'
p61
aS'9'
aa(lp62
S'prep_at'
p63
aS'7'
aS'10'
p64
aasS'srls'
p65
(lp66
(dp67
S'A1'
p68
S'At Sen Euro'
p69
sS'A0'
p70
S'Golf Player'
p71
sS'V'
g25
sa(dp72
S'A0'
p73
g28
sS'AM-LOC'
p74
S'at Senior Euro'
p75
sS'V'
g29
sasS'pos_seq'
p76
(lp77
S'NNP'
p78
aS'NNP'
p79
aS'VBZ'
p80
aS'IN'
p81
aS'NNP'
p82
aS'NNP'
p83
aS'VBZ'
p84
aS'IN'
p85
aS'NNP'
p86
aS'NNP'
p87
asS'ner_seq'
p88
(lp89
S'B-ORG'
p90
aS'E-ORG'
p91
aS'O'
aS'O'
aS'B-LOC'
p92
aS'E-LOC'
p93
aS'O'
aS'O'
aS'B-MISC'
p94
aS'E-MISC'
p95
assb.