ccopy_reg
_reconstructor
p1
(c__main__
KBproperty
p2
c__builtin__
object
p3
NtRp4
(dp5
S'comment'
p6
S'00'
p7
sS'domain'
p8
S'Multi Volume Publication '
p9
sS'instances_count'
p10
I0
sS'phrases'
p11
NsS'syn_hypo'
p12
S''
sS'label'
p13
S'umbrella title'
p14
sS'range'
p15
S'lang String '
p16
sS'uniq_subjs'
p17
S'0'
sS'uniq_objs'
p18
I0
sS'prop_uri'
p19
S'http://dbpedia.org/ontology/umbrellaTitle'
p20
sS'annotations'
p21
(dp22
S'bag_of_words'
p23
(lp24
S'Multi'
p25
aS'Volume'
p26
aS'Publication'
p27
aS'umbrella'
p28
aS'title'
p29
aS'lang'
p30
aS'String'
p31
aS'00'
p32
asS'chunk_seq'
p33
(lp34
S'B-NP'
p35
aS'I-NP'
p36
aS'I-NP'
p37
aS'I-NP'
p38
aS'I-NP'
p39
aS'I-NP'
p40
aS'E-NP'
p41
aS'O'
asS'dep_seq'
p42
(lp43
(lp44
S'nn'
p45
aS'7'
aS'1'
aa(lp46
S'nn'
p47
aS'7'
aS'2'
aa(lp48
S'nn'
p49
aS'7'
aS'3'
aa(lp50
S'nn'
p51
aS'7'
aS'4'
aa(lp52
S'nn'
p53
aS'7'
aS'5'
aa(lp54
S'amod'
p55
aS'7'
aS'6'
aa(lp56
S'root'
p57
aS'0'
aS'7'
aa(lp58
S'num'
p59
aS'7'
aS'8'
aasS'srls'
p60
(lp61
sS'pos_seq'
p62
(lp63
S'NNP'
p64
aS'NNP'
p65
aS'NNP'
p66
aS'NN'
p67
aS'NN'
p68
aS'VBG'
p69
aS'NN'
p70
aS'CD'
p71
asS'ner_seq'
p72
(lp73
S'O'
aS'O'
aS'O'
aS'O'
aS'O'
aS'B-PER'
p74
aS'E-PER'
p75
aS'O'
assb.