ccopy_reg
_reconstructor
p1
(c__main__
KBproperty
p2
c__builtin__
object
p3
NtRp4
(dp5
S'comment'
p6
S'number of people who earns his living from a specified activity.00'
p7
sS'domain'
p8
S'Activity '
p9
sS'instances_count'
p10
I0
sS'phrases'
p11
NsS'syn_hypo'
p12
S''
sS'label'
p13
S'number of professionals'
p14
sS'range'
p15
S'non Negative Integer '
p16
sS'uniq_subjs'
p17
S'0'
sS'uniq_objs'
p18
I0
sS'prop_uri'
p19
S'http://dbpedia.org/ontology/numberOfProfessionals'
p20
sS'annotations'
p21
(dp22
S'bag_of_words'
p23
(lp24
S'Activity'
p25
aS'number'
p26
aS'of'
p27
aS'professionals'
p28
aS'non'
p29
aS'Negative'
p30
aS'Integer'
p31
aS'number'
p32
aS'of'
p33
aS'people'
p34
aS'who'
p35
aS'earns'
p36
aS'his'
p37
aS'living'
p38
aS'from'
p39
aS'a'
aS'specified'
p40
aS'activity.00'
p41
asS'chunk_seq'
p42
(lp43
S'B-NP'
p44
aS'E-NP'
p45
aS'S-PP'
p46
aS'S-NP'
p47
aS'B-NP'
p48
aS'I-NP'
p49
aS'I-NP'
p50
aS'E-NP'
p51
aS'S-PP'
p52
aS'S-NP'
p53
aS'S-NP'
p54
aS'S-VP'
p55
aS'B-NP'
p56
aS'E-NP'
p57
aS'S-PP'
p58
aS'B-NP'
p59
aS'I-NP'
p60
aS'E-NP'
p61
asS'dep_seq'
p62
(lp63
(lp64
S'nn'
p65
aS'2'
aS'1'
aa(lp66
S'root'
p67
aS'0'
aS'2'
aa(lp68
S'amod'
p69
aS'8'
aS'4'
aa(lp70
S'dep'
p71
aS'4'
aS'5'
aa(lp72
S'nn'
p73
aS'8'
aS'6'
aa(lp74
S'nn'
p75
aS'8'
aS'7'
aa(lp76
S'prep_of'
p77
aS'2'
aS'8'
aa(lp78
S'prep_of'
p79
aS'8'
aS'10'
p80
aa(lp81
S'nsubj'
p82
aS'12'
p83
aS'10'
p84
aa(lp85
S'rcmod'
p86
aS'10'
p87
aS'12'
p88
aa(lp89
S'poss'
p90
aS'14'
p91
aS'13'
p92
aa(lp93
S'dobj'
p94
aS'12'
p95
aS'14'
p96
aa(lp97
S'det'
p98
aS'18'
p99
aS'16'
p100
aa(lp101
S'amod'
p102
aS'18'
p103
aS'17'
p104
aa(lp105
S'prep_from'
p106
aS'12'
p107
aS'18'
p108
aasS'srls'
p109
(lp110
(dp111
S'A1'
p112
S'his living'
p113
sS'A0'
p114
S'professionals non Negative Integer number people'
p115
sS'A3'
p116
S'from a specified activity.00'
p117
sS'R-A0'
p118
g35
sS'V'
g36
sa(dp119
S'A1'
p120
g41
sS'V'
g40
sasS'pos_seq'
p121
(lp122
S'NN'
p123
aS'NN'
p124
aS'IN'
p125
aS'NNS'
p126
aS'POS'
p127
aS'NNP'
p128
aS'NNP'
p129
aS'NN'
p130
aS'IN'
p131
aS'NNS'
p132
aS'WP'
p133
aS'VBZ'
p134
aS'PRP$'
p135
aS'NN'
p136
aS'IN'
p137
aS'DT'
p138
aS'VBN'
p139
aS'NN'
p140
asS'ner_seq'
p141
(lp142
S'O'
aS'O'
aS'O'
aS'O'
aS'O'
aS'O'
aS'O'
aS'O'
aS'O'
aS'O'
aS'O'
aS'O'
aS'O'
aS'O'
aS'O'
aS'O'
aS'O'
aS'O'
assb.