ccopy_reg
_reconstructor
p1
(c__main__
KBproperty
p2
c__builtin__
object
p3
NtRp4
(dp5
S'comment'
p6
S'so named since'
p7
sS'domain'
p8
S''
sS'instances_count'
p9
I0
sS'phrases'
p10
NsS'syn_hypo'
p11
S''
sS'label'
p12
g7
sS'range'
p13
S'g Year '
p14
sS'uniq_subjs'
p15
S'0'
sS'uniq_objs'
p16
I0
sS'prop_uri'
p17
S'http://dbpedia.org/ontology/nameAsOf'
p18
sS'annotations'
p19
(dp20
S'bag_of_words'
p21
(lp22
S'name'
p23
aS'As'
p24
aS'Of'
p25
aS'g'
aS'Year'
p26
aS'so'
p27
aS'named'
p28
aS'since'
p29
asS'chunk_seq'
p30
(lp31
S'S-NP'
p32
aS'S-PP'
p33
aS'S-PP'
p34
aS'B-NP'
p35
aS'E-NP'
p36
aS'B-ADJP'
p37
aS'E-ADJP'
p38
aS'S-SBAR'
p39
asS'dep_seq'
p40
(lp41
(lp42
S'root'
p43
aS'0'
aS'1'
aa(lp44
S'prepc_as_of'
p45
aS'1'
aS'3'
aa(lp46
S'nn'
p47
aS'5'
aS'4'
aa(lp48
S'pobj'
p49
aS'1'
aS'5'
aa(lp50
S'advmod'
p51
aS'7'
aS'6'
aa(lp52
S'partmod'
p53
aS'5'
aS'7'
aa(lp54
S'prep'
p55
aS'1'
aS'8'
aasS'srls'
p56
(lp57
(dp58
S'A1'
p59
S'name As Of g Year'
p60
sS'V'
g28
sasS'pos_seq'
p61
(lp62
S'NN'
p63
aS'IN'
p64
aS'IN'
p65
aS'NN'
p66
aS'NN'
p67
aS'RB'
p68
aS'VBN'
p69
aS'IN'
p70
asS'ner_seq'
p71
(lp72
S'O'
aS'O'
aS'O'
aS'O'
aS'O'
aS'O'
aS'O'
aS'O'
assb.