ccopy_reg
_reconstructor
p1
(c__main__
KBproperty
p2
c__builtin__
object
p3
NtRp4
(dp5
S'comment'
p6
S'discharge m\\xc2\\xb3/s'
p7
sS'domain'
p8
S'Stream '
p9
sS'instances_count'
p10
I1572
sS'phrases'
p11
NsS'syn_hypo'
p12
S''
sS'label'
p13
g7
sS'range'
p14
S'double '
p15
sS'uniq_subjs'
p16
S'1572'
p17
sS'uniq_objs'
p18
I0
sS'prop_uri'
p19
S'http://dbpedia.org/ontology/discharge'
p20
sS'annotations'
p21
(dp22
S'bag_of_words'
p23
(lp24
S'Stream'
p25
aS'discharge'
p26
aS'double'
p27
aS'discharge'
p28
aS'm'
aS'\\'
aS'xc2'
p29
aS'\\'
aS'xb3'
p30
aS'/s'
p31
asS'chunk_seq'
p32
(lp33
S'B-NP'
p34
aS'E-NP'
p35
aS'B-NP'
p36
aS'E-NP'
p37
aS'S-NP'
p38
aS'O'
aS'O'
aS'O'
aS'O'
aS'O'
asS'dep_seq'
p39
(lp40
(lp41
S'nn'
p42
aS'2'
aS'1'
aa(lp43
S'root'
p44
aS'0'
aS'2'
aa(lp45
S'amod'
p46
aS'4'
aS'3'
aa(lp47
S'dep'
p48
aS'2'
aS'4'
aa(lp49
S'nn'
p50
aS'9'
aS'5'
aa(lp51
S'nn'
p52
aS'9'
aS'6'
aa(lp53
S'nn'
p54
aS'9'
aS'7'
aa(lp55
S'nn'
p56
aS'9'
aS'8'
aa(lp57
S'dep'
p58
aS'4'
aS'9'
aa(lp59
S'punct'
p60
aS'9'
aS'10'
p61
aasS'srls'
p62
(lp63
(dp64
S'A1'
p65
S'double discharge m \\ xc2 \\ xb3 /s'
p66
sS'A0'
p67
g25
sS'V'
g26
sasS'pos_seq'
p68
(lp69
S'NN'
p70
aS'NN'
p71
aS'JJ'
p72
aS'NN'
p73
aS'FW'
p74
aS'FW'
p75
aS'FW'
p76
aS'FW'
p77
aS'FW'
p78
aS'.'
asS'ner_seq'
p79
(lp80
S'O'
aS'O'
aS'O'
aS'O'
aS'O'
aS'O'
aS'O'
aS'O'
aS'O'
aS'O'
assb.