ccopy_reg
_reconstructor
p1
(c__main__
KBproperty
p2
c__builtin__
object
p3
NtRp4
(dp5
S'comment'
p6
S'active years end year manager'
p7
sS'domain'
p8
S'Person '
p9
sS'instances_count'
p10
I0
sS'phrases'
p11
NsS'syn_hypo'
p12
S''
sS'label'
p13
g7
sS'range'
p14
S'g Year '
p15
sS'uniq_subjs'
p16
S'0'
sS'uniq_objs'
p17
I0
sS'prop_uri'
p18
S'http://dbpedia.org/ontology/activeYearsEndYearMgr'
p19
sS'annotations'
p20
(dp21
S'bag_of_words'
p22
(lp23
S'Person'
p24
aS'active'
p25
aS'Years'
p26
aS'End'
p27
aS'Year'
p28
aS'Mgr'
p29
aS'g'
aS'Year'
p30
aS'active'
p31
aS'years'
p32
aS'end'
p33
aS'year'
p34
aS'manager'
p35
asS'chunk_seq'
p36
(lp37
S'B-NP'
p38
aS'I-NP'
p39
aS'E-NP'
p40
aS'S-VP'
p41
aS'B-NP'
p42
aS'I-NP'
p43
aS'I-NP'
p44
aS'E-NP'
p45
aS'B-NP'
p46
aS'E-NP'
p47
aS'S-VP'
p48
aS'B-NP'
p49
aS'E-NP'
p50
asS'dep_seq'
p51
(lp52
(lp53
S'nn'
p54
aS'5'
aS'1'
aa(lp55
S'amod'
p56
aS'5'
aS'2'
aa(lp57
S'nn'
p58
aS'5'
aS'3'
aa(lp59
S'dep'
p60
aS'5'
aS'4'
aa(lp61
S'dep'
p62
aS'8'
aS'5'
aa(lp63
S'nn'
p64
aS'8'
aS'6'
aa(lp65
S'nn'
p66
aS'8'
aS'7'
aa(lp67
S'root'
p68
aS'0'
aS'8'
aa(lp69
S'amod'
p70
aS'10'
p71
aS'9'
aa(lp72
S'nsubj'
p73
aS'11'
p74
aS'10'
p75
aa(lp76
S'rcmod'
p77
aS'8'
aS'11'
p78
aa(lp79
S'nn'
p80
aS'13'
p81
aS'12'
p82
aa(lp83
S'dobj'
p84
aS'11'
p85
aS'13'
p86
aasS'srls'
p87
(lp88
(dp89
S'A1'
p90
S'Person active Years'
p91
sS'A2'
p92
S'Year Mgr g Year'
p93
sS'V'
g27
sa(dp94
S'A1'
p95
S'Person active Years End Year Mgr g Year active years'
p96
sS'A2'
p97
S'year manager'
p98
sS'V'
g33
sasS'pos_seq'
p99
(lp100
S'NN'
p101
aS'JJ'
p102
aS'NNS'
p103
aS'VBP'
p104
aS'NN'
p105
aS'NNP'
p106
aS'NN'
p107
aS'NN'
p108
aS'JJ'
p109
aS'NNS'
p110
aS'VBP'
p111
aS'NN'
p112
aS'NN'
p113
asS'ner_seq'
p114
(lp115
S'O'
aS'O'
aS'O'
aS'O'
aS'O'
aS'O'
aS'O'
aS'O'
aS'O'
aS'O'
aS'O'
aS'O'
aS'O'
assb.