ccopy_reg
_reconstructor
p1
(c__main__
KBproperty
p2
c__builtin__
object
p3
NtRp4
(dp5
S'comment'
p6
S'55773301'
p7
sS'domain'
p8
S''
sS'instances_count'
p9
I267
sS'phrases'
p10
NsS'syn_hypo'
p11
Varcherysportathleticsathletic_gamesportathleticsblood_sportsportathleticscontact_sportsportathleticscyclingsportathleticsfunambulismsportathleticstightrope_walkingsportathleticsgymnasticssportathleticsgymnastic_exercisesportathleticsjudosportathleticsoutdoor_sportsportathleticsfield_sportsportathleticsracingsportathleticsridingsportathleticshorseback_ridingsportathleticsequitationsportathleticsrock_climbingsportathleticsrowingsportathleticsrowsportathleticsskatingsportathleticsskiingsportathleticssleddingsportathleticsspectator_sportsportathleticsteam_sportsportathleticstrack_and_fieldsportathleticswater_sportsportathleticsaquatics
p12
sS'label'
p13
S'sport'
p14
sS'range'
p15
S'Sport '
p16
sS'uniq_subjs'
p17
S'267'
p18
sS'uniq_objs'
p19
I0
sS'prop_uri'
p20
S'http://dbpedia.org/ontology/sport'
p21
sS'annotations'
p22
(dp23
S'bag_of_words'
p24
(lp25
S'sport'
p26
aS'Sport'
p27
aS'55773301'
p28
asS'chunk_seq'
p29
(lp30
S'B-NP'
p31
aS'E-NP'
p32
aS'S-ADJP'
p33
asS'dep_seq'
p34
(lp35
(lp36
S'nn'
p37
aS'2'
aS'1'
aa(lp38
S'root'
p39
aS'0'
aS'2'
aa(lp40
S'punct'
p41
aS'2'
aS'3'
aasS'srls'
p42
(lp43
sS'pos_seq'
p44
(lp45
S'NN'
p46
aS'NNP'
p47
aS'.'
asS'ner_seq'
p48
(lp49
S'B-MISC'
p50
aS'E-MISC'
p51
aS'O'
assb.