ccopy_reg
_reconstructor
p1
(c__main__
KBproperty
p2
c__builtin__
object
p3
NtRp4
(dp5
S'comment'
p6
S'the highway system that a route is part of5145'
p7
sS'domain'
p8
S'Road '
p9
sS'instances_count'
p10
I29
sS'phrases'
p11
NsS'syn_hypo'
p12
S''
sS'label'
p13
S'highway system'
p14
sS'range'
p15
S''
sS'uniq_subjs'
p16
S'29'
p17
sS'uniq_objs'
p18
I0
sS'prop_uri'
p19
S'http://dbpedia.org/ontology/highwaySystem'
p20
sS'annotations'
p21
(dp22
S'bag_of_words'
p23
(lp24
S'Road'
p25
aS'highway'
p26
aS'system'
p27
aS'the'
p28
aS'highway'
p29
aS'system'
p30
aS'that'
p31
aS'a'
aS'route'
p32
aS'is'
p33
aS'part'
p34
aS'of5145'
p35
asS'chunk_seq'
p36
(lp37
S'B-NP'
p38
aS'I-NP'
p39
aS'E-NP'
p40
aS'B-NP'
p41
aS'I-NP'
p42
aS'E-NP'
p43
aS'S-NP'
p44
aS'B-NP'
p45
aS'E-NP'
p46
aS'S-VP'
p47
aS'S-NP'
p48
aS'S-ADJP'
p49
asS'dep_seq'
p50
(lp51
(lp52
S'nn'
p53
aS'3'
aS'1'
aa(lp54
S'nn'
p55
aS'3'
aS'2'
aa(lp56
S'dep'
p57
aS'6'
aS'3'
aa(lp58
S'det'
p59
aS'6'
aS'4'
aa(lp60
S'nn'
p61
aS'6'
aS'5'
aa(lp62
S'root'
p63
aS'0'
aS'6'
aa(lp64
S'dobj'
p65
aS'11'
p66
aS'6'
aa(lp67
S'rel'
p68
aS'11'
p69
aS'7'
aa(lp70
S'det'
p71
aS'9'
aS'8'
aa(lp72
S'nsubj'
p73
aS'11'
p74
aS'9'
aa(lp75
S'cop'
p76
aS'11'
p77
aS'10'
p78
aa(lp79
S'rcmod'
p80
aS'6'
aS'11'
p81
aa(lp82
S'punct'
p83
aS'11'
p84
aS'12'
p85
aasS'srls'
p86
(lp87
sS'pos_seq'
p88
(lp89
S'NN'
p90
aS'NN'
p91
aS'NN'
p92
aS'DT'
p93
aS'NN'
p94
aS'NN'
p95
aS'IN'
p96
aS'DT'
p97
aS'NN'
p98
aS'VBZ'
p99
aS'NN'
p100
aS'.'
asS'ner_seq'
p101
(lp102
S'O'
aS'O'
aS'O'
aS'O'
aS'O'
aS'O'
aS'O'
aS'O'
aS'O'
aS'O'
aS'O'
aS'O'
assb.