ccopy_reg
_reconstructor
p1
(c__main__
KBproperty
p2
c__builtin__
object
p3
NtRp4
(dp5
S'comment'
p6
S'723711'
p7
sS'domain'
p8
S'Saint '
p9
sS'instances_count'
p10
I57
sS'phrases'
p11
NsS'syn_hypo'
p12
S''
sS'label'
p13
S'beatified by'
p14
sS'range'
p15
S'Person '
p16
sS'uniq_subjs'
p17
S'57'
p18
sS'uniq_objs'
p19
I0
sS'prop_uri'
p20
S'http://dbpedia.org/ontology/beatifiedBy'
p21
sS'annotations'
p22
(dp23
S'bag_of_words'
p24
(lp25
S'Saint'
p26
aS'beatified'
p27
aS'by'
p28
aS'Person'
p29
aS'723711'
p30
asS'chunk_seq'
p31
(lp32
S'S-NP'
p33
aS'S-VP'
p34
aS'S-PP'
p35
aS'B-NP'
p36
aS'E-NP'
p37
asS'dep_seq'
p38
(lp39
(lp40
S'nsubj'
p41
aS'2'
aS'1'
aa(lp42
S'root'
p43
aS'0'
aS'2'
aa(lp44
S'nn'
p45
aS'5'
aS'4'
aa(lp46
S'prep_by'
p47
aS'2'
aS'5'
aasS'srls'
p48
(lp49
(dp50
S'A1'
p51
g26
sS'A0'
p52
S'by Person 723711'
p53
sS'V'
g27
sasS'pos_seq'
p54
(lp55
S'NN'
p56
aS'VBN'
p57
aS'IN'
p58
aS'NN'
p59
aS'NN'
p60
asS'ner_seq'
p61
(lp62
S'O'
aS'O'
aS'O'
aS'O'
aS'O'
assb.