ccopy_reg
_reconstructor
p1
(c__main__
KBproperty
p2
c__builtin__
object
p3
NtRp4
(dp5
S'comment'
p6
S'237164'
p7
sS'domain'
p8
S'Route Of Transportation '
p9
sS'instances_count'
p10
I107
sS'phrases'
p11
NsS'syn_hypo'
p12
S''
sS'label'
p13
S'toll $'
p14
sS'range'
p15
S'double '
p16
sS'uniq_subjs'
p17
S'107'
p18
sS'uniq_objs'
p19
I0
sS'prop_uri'
p20
S'http://dbpedia.org/ontology/toll'
p21
sS'annotations'
p22
(dp23
S'bag_of_words'
p24
(lp25
S'Route'
p26
aS'Of'
p27
aS'Transportation'
p28
aS'toll'
p29
aS'$'
aS'double'
p30
aS'237164'
p31
asS'chunk_seq'
p32
(lp33
S'S-NP'
p34
aS'S-PP'
p35
aS'S-NP'
p36
aS'B-NP'
p37
aS'I-NP'
p38
aS'I-NP'
p39
aS'E-NP'
p40
asS'dep_seq'
p41
(lp42
(lp43
S'root'
p44
aS'0'
aS'1'
aa(lp45
S'prep_of'
p46
aS'1'
aS'3'
aa(lp47
S'nn'
p48
aS'7'
aS'4'
aa(lp49
S'amod'
p50
aS'7'
aS'5'
aa(lp51
S'dep'
p52
aS'5'
aS'6'
aa(lp53
S'dep'
p54
aS'1'
aS'7'
aasS'srls'
p55
(lp56
sS'pos_seq'
p57
(lp58
S'NNP'
p59
aS'IN'
p60
aS'NNP'
p61
aS'NN'
p62
aS'$'
aS'JJ'
p63
aS'NN'
p64
asS'ner_seq'
p65
(lp66
S'B-ORG'
p67
aS'I-ORG'
p68
aS'E-ORG'
p69
aS'O'
aS'O'
aS'O'
aS'O'
assb.