ccopy_reg
_reconstructor
p1
(c__main__
KBproperty
p2
c__builtin__
object
p3
NtRp4
(dp5
S'comment'
p6
S'00'
p7
sS'domain'
p8
S'Olympics '
p9
sS'instances_count'
p10
I0
sS'phrases'
p11
NsS'syn_hypo'
p12
S''
sS'label'
p13
S'olympic oath sworn by athlete'
p14
sS'range'
p15
S'Person '
p16
sS'uniq_subjs'
p17
S'0'
sS'uniq_objs'
p18
I0
sS'prop_uri'
p19
S'http://dbpedia.org/ontology/olympicOathSwornByAthlete'
p20
sS'annotations'
p21
(dp22
S'bag_of_words'
p23
(lp24
S'Olympics'
p25
aS'olympic'
p26
aS'oath'
p27
aS'sworn'
p28
aS'by'
p29
aS'athlete'
p30
aS'Person'
p31
aS'00'
p32
asS'chunk_seq'
p33
(lp34
S'B-NP'
p35
aS'I-NP'
p36
aS'E-NP'
p37
aS'S-VP'
p38
aS'S-PP'
p39
aS'B-NP'
p40
aS'E-NP'
p41
aS'O'
asS'dep_seq'
p42
(lp43
(lp44
S'nn'
p45
aS'3'
aS'1'
aa(lp46
S'amod'
p47
aS'3'
aS'2'
aa(lp48
S'root'
p49
aS'0'
aS'3'
aa(lp50
S'partmod'
p51
aS'3'
aS'4'
aa(lp52
S'nn'
p53
aS'7'
aS'6'
aa(lp54
S'agent'
p55
aS'4'
aS'7'
aa(lp56
S'advmod'
p57
aS'3'
aS'8'
aasS'srls'
p58
(lp59
(dp60
S'A1'
p61
S'Olympics olympic oath'
p62
sS'A0'
p63
S'by athlete Person'
p64
sS'V'
g32
sasS'pos_seq'
p65
(lp66
S'NNS'
p67
aS'JJ'
p68
aS'NN'
p69
aS'VBN'
p70
aS'IN'
p71
aS'NN'
p72
aS'NN'
p73
aS'CD'
p74
asS'ner_seq'
p75
(lp76
S'S-MISC'
p77
aS'O'
aS'O'
aS'O'
aS'O'
aS'O'
aS'O'
aS'O'
assb.