ccopy_reg
_reconstructor
p1
(c__main__
KBproperty
p2
c__builtin__
object
p3
NtRp4
(dp5
S'comment'
p6
S'1111'
p7
sS'domain'
p8
S'Canal '
p9
sS'instances_count'
p10
I10
sS'phrases'
p11
NsS'syn_hypo'
p12
S''
sS'label'
p13
S'date completed'
p14
sS'range'
p15
S'date '
p16
sS'uniq_subjs'
p17
S'10'
p18
sS'uniq_objs'
p19
I0
sS'prop_uri'
p20
S'http://dbpedia.org/ontology/dateCompleted'
p21
sS'annotations'
p22
(dp23
S'bag_of_words'
p24
(lp25
S'Canal'
p26
aS'date'
p27
aS'completed'
p28
aS'date'
p29
aS'1111'
p30
asS'chunk_seq'
p31
(lp32
S'B-NP'
p33
aS'E-NP'
p34
aS'S-VP'
p35
aS'B-NP'
p36
aS'E-NP'
p37
asS'dep_seq'
p38
(lp39
(lp40
S'nn'
p41
aS'2'
aS'1'
aa(lp42
S'root'
p43
aS'0'
aS'2'
aa(lp44
S'partmod'
p45
aS'2'
aS'3'
aa(lp46
S'dobj'
p47
aS'3'
aS'4'
aa(lp48
S'dep'
p49
aS'2'
aS'5'
aasS'srls'
p50
(lp51
(dp52
S'A1'
p53
S'Canal date  date 1111'
p54
sS'V'
g28
sasS'pos_seq'
p55
(lp56
S'NN'
p57
aS'NN'
p58
aS'VBN'
p59
aS'NN'
p60
aS'NN'
p61
asS'ner_seq'
p62
(lp63
S'O'
aS'O'
aS'O'
aS'O'
aS'O'
assb.