ccopy_reg
_reconstructor
p1
(c__main__
KBproperty
p2
c__builtin__
object
p3
NtRp4
(dp5
S'comment'
p6
S'the edition of the database used i.e. hg195858'
p7
sS'domain'
p8
S'Gene Location '
p9
sS'instances_count'
p10
I12
sS'phrases'
p11
NsS'syn_hypo'
p12
S''
sS'label'
p13
S'Genome DB'
p14
sS'range'
p15
S'string '
p16
sS'uniq_subjs'
p17
S'12'
p18
sS'uniq_objs'
p19
I0
sS'prop_uri'
p20
S'http://dbpedia.org/ontology/genomeDB'
p21
sS'annotations'
p22
(dp23
S'bag_of_words'
p24
(lp25
S'Gene'
p26
aS'Location'
p27
aS'Genome'
p28
aS'DB'
p29
aS'string'
p30
aS'the'
p31
aS'edition'
p32
aS'of'
p33
aS'the'
p34
aS'database'
p35
aS'used'
p36
aS'i.e.'
p37
aS'hg195858'
p38
asS'chunk_seq'
p39
(lp40
S'B-NP'
p41
aS'I-NP'
p42
aS'I-NP'
p43
aS'I-NP'
p44
aS'E-NP'
p45
aS'B-NP'
p46
aS'E-NP'
p47
aS'S-PP'
p48
aS'B-NP'
p49
aS'E-NP'
p50
aS'S-VP'
p51
aS'B-ADJP'
p52
aS'E-ADJP'
p53
asS'dep_seq'
p54
(lp55
(lp56
S'nn'
p57
aS'5'
aS'1'
aa(lp58
S'nn'
p59
aS'5'
aS'2'
aa(lp60
S'nn'
p61
aS'5'
aS'3'
aa(lp62
S'nn'
p63
aS'5'
aS'4'
aa(lp64
S'dep'
p65
aS'7'
aS'5'
aa(lp66
S'det'
p67
aS'7'
aS'6'
aa(lp68
S'root'
p69
aS'0'
aS'7'
aa(lp70
S'det'
p71
aS'10'
p72
aS'9'
aa(lp73
S'prep_of'
p74
aS'7'
aS'10'
p75
aa(lp76
S'partmod'
p77
aS'10'
p78
aS'11'
p79
aa(lp80
S'advmod'
p81
aS'11'
p82
aS'12'
p83
aa(lp84
S'dep'
p85
aS'7'
aS'13'
p86
aasS'srls'
p87
(lp88
(dp89
S'A1'
p90
S'the database'
p91
sS'AM-MNR'
p92
S'i.e. hg195858'
p93
sS'V'
g36
sasS'pos_seq'
p94
(lp95
S'NNP'
p96
aS'NNP'
p97
aS'NNP'
p98
aS'NNP'
p99
aS'NN'
p100
aS'DT'
p101
aS'NN'
p102
aS'IN'
p103
aS'DT'
p104
aS'NN'
p105
aS'VBN'
p106
aS'RB'
p107
aS'.'
asS'ner_seq'
p108
(lp109
S'O'
aS'O'
aS'O'
aS'O'
aS'O'
aS'O'
aS'O'
aS'O'
aS'O'
aS'O'
aS'O'
aS'O'
aS'O'
assb.