ccopy_reg
_reconstructor
p1
(c__main__
KBproperty
p2
c__builtin__
object
p3
NtRp4
(dp5
S'comment'
p6
S'16921113'
p7
sS'domain'
p8
S'Record Label '
p9
sS'instances_count'
p10
I462
sS'phrases'
p11
NsS'syn_hypo'
p12
S''
sS'label'
p13
S'distributing label'
p14
sS'range'
p15
S'Record Label '
p16
sS'uniq_subjs'
p17
S'462'
p18
sS'uniq_objs'
p19
I0
sS'prop_uri'
p20
S'http://dbpedia.org/ontology/distributingLabel'
p21
sS'annotations'
p22
(dp23
S'bag_of_words'
p24
(lp25
S'Record'
p26
aS'Label'
p27
aS'distributing'
p28
aS'label'
p29
aS'Record'
p30
aS'Label'
p31
aS'16921113'
p32
asS'chunk_seq'
p33
(lp34
S'B-NP'
p35
aS'E-NP'
p36
aS'S-VP'
p37
aS'B-NP'
p38
aS'I-NP'
p39
aS'I-NP'
p40
aS'E-NP'
p41
asS'dep_seq'
p42
(lp43
(lp44
S'nn'
p45
aS'2'
aS'1'
aa(lp46
S'nsubj'
p47
aS'3'
aS'2'
aa(lp48
S'root'
p49
aS'0'
aS'3'
aa(lp50
S'nn'
p51
aS'7'
aS'4'
aa(lp52
S'nn'
p53
aS'7'
aS'5'
aa(lp54
S'nn'
p55
aS'7'
aS'6'
aa(lp56
S'dobj'
p57
aS'3'
aS'7'
aasS'srls'
p58
(lp59
(dp60
S'A1'
p61
S'label Record Label 16921113'
p62
sS'A0'
p63
S'Record Label'
p64
sS'V'
g28
sasS'pos_seq'
p65
(lp66
S'NNP'
p67
aS'NNP'
p68
aS'VBG'
p69
aS'NN'
p70
aS'NNP'
p71
aS'NNP'
p72
aS'NN'
p73
asS'ner_seq'
p74
(lp75
S'O'
aS'O'
aS'O'
aS'O'
aS'O'
aS'O'
aS'O'
assb.