ccopy_reg
_reconstructor
p1
(c__main__
KBproperty
p2
c__builtin__
object
p3
NtRp4
(dp5
S'comment'
p6
S'The last election date for the house.844824'
p7
sS'domain'
p8
S'Legislature '
p9
sS'instances_count'
p10
I299
sS'phrases'
p11
NsS'syn_hypo'
p12
S''
sS'label'
p13
S'last election date'
p14
sS'range'
p15
S'date '
p16
sS'uniq_subjs'
p17
S'299'
p18
sS'uniq_objs'
p19
I0
sS'prop_uri'
p20
S'http://dbpedia.org/ontology/lastElectionDate'
p21
sS'annotations'
p22
(dp23
S'bag_of_words'
p24
(lp25
S'Legislature'
p26
aS'last'
p27
aS'election'
p28
aS'date'
p29
aS'date'
p30
aS'The'
p31
aS'last'
p32
aS'election'
p33
aS'date'
p34
aS'for'
p35
aS'the'
p36
aS'house.844824'
p37
asS'chunk_seq'
p38
(lp39
S'S-NP'
p40
aS'B-NP'
p41
aS'I-NP'
p42
aS'E-NP'
p43
aS'S-VP'
p44
aS'B-NP'
p45
aS'I-NP'
p46
aS'I-NP'
p47
aS'E-NP'
p48
aS'S-PP'
p49
aS'B-NP'
p50
aS'E-NP'
p51
asS'dep_seq'
p52
(lp53
(lp54
S'root'
p55
aS'0'
aS'1'
aa(lp56
S'amod'
p57
aS'5'
aS'2'
aa(lp58
S'nn'
p59
aS'5'
aS'3'
aa(lp60
S'nn'
p61
aS'5'
aS'4'
aa(lp62
S'dep'
p63
aS'9'
aS'5'
aa(lp64
S'det'
p65
aS'9'
aS'6'
aa(lp66
S'amod'
p67
aS'9'
aS'7'
aa(lp68
S'nn'
p69
aS'9'
aS'8'
aa(lp70
S'dep'
p71
aS'1'
aS'9'
aa(lp72
S'det'
p73
aS'12'
p74
aS'11'
p75
aa(lp76
S'prep_for'
p77
aS'9'
aS'12'
p78
aasS'srls'
p79
(lp80
sS'pos_seq'
p81
(lp82
S'NNP'
p83
aS'JJ'
p84
aS'NN'
p85
aS'NN'
p86
aS'NN'
p87
aS'DT'
p88
aS'JJ'
p89
aS'NN'
p90
aS'NN'
p91
aS'IN'
p92
aS'DT'
p93
aS'NN'
p94
asS'ner_seq'
p95
(lp96
S'O'
aS'O'
aS'O'
aS'O'
aS'O'
aS'O'
aS'O'
aS'O'
aS'O'
aS'O'
aS'O'
aS'O'
assb.