ccopy_reg
_reconstructor
p1
(c__main__
KBproperty
p2
c__builtin__
object
p3
NtRp4
(dp5
S'comment'
p6
S'Safety precautions that are used in the building.00'
p7
sS'domain'
p8
S'Building '
p9
sS'instances_count'
p10
I0
sS'phrases'
p11
NsS'syn_hypo'
p12
Vpeacesecuritypublic_securitysecurityprotectionsecuritysheltersecuritysecureness
p13
sS'label'
p14
S'security'
p15
sS'range'
p16
S'string '
p17
sS'uniq_subjs'
p18
S'0'
sS'uniq_objs'
p19
I0
sS'prop_uri'
p20
S'http://dbpedia.org/ontology/security'
p21
sS'annotations'
p22
(dp23
S'bag_of_words'
p24
(lp25
S'Building'
p26
aS'security'
p27
aS'string'
p28
aS'Safety'
p29
aS'precautions'
p30
aS'that'
p31
aS'are'
p32
aS'used'
p33
aS'in'
p34
aS'the'
p35
aS'building.00'
p36
asS'chunk_seq'
p37
(lp38
S'B-NP'
p39
aS'I-NP'
p40
aS'I-NP'
p41
aS'I-NP'
p42
aS'E-NP'
p43
aS'S-NP'
p44
aS'B-VP'
p45
aS'E-VP'
p46
aS'S-PP'
p47
aS'B-NP'
p48
aS'E-NP'
p49
asS'dep_seq'
p50
(lp51
(lp52
S'amod'
p53
aS'5'
aS'1'
aa(lp54
S'nn'
p55
aS'5'
aS'2'
aa(lp56
S'nn'
p57
aS'5'
aS'3'
aa(lp58
S'nn'
p59
aS'5'
aS'4'
aa(lp60
S'root'
p61
aS'0'
aS'5'
aa(lp62
S'nsubjpass'
p63
aS'8'
aS'5'
aa(lp64
S'auxpass'
p65
aS'8'
aS'7'
aa(lp66
S'rcmod'
p67
aS'5'
aS'8'
aa(lp68
S'det'
p69
aS'11'
p70
aS'10'
p71
aa(lp72
S'prep_in'
p73
aS'8'
aS'11'
p74
aasS'srls'
p75
(lp76
(dp77
S'A1'
p78
S'security string Safety precautions that are used in the building.00'
p79
sS'V'
g26
sa(dp80
S'A1'
p81
S'Building security string Safety precautions'
p82
sS'AM-LOC'
p83
S'in the building.00'
p84
sS'R-A1'
p85
g31
sS'V'
g33
sasS'pos_seq'
p86
(lp87
S'VBG'
p88
aS'NN'
p89
aS'NN'
p90
aS'NN'
p91
aS'NNS'
p92
aS'WDT'
p93
aS'VBP'
p94
aS'VBN'
p95
aS'IN'
p96
aS'DT'
p97
aS'NN'
p98
asS'ner_seq'
p99
(lp100
S'O'
aS'O'
aS'O'
aS'O'
aS'O'
aS'O'
aS'O'
aS'O'
aS'O'
aS'O'
aS'O'
assb.