ccopy_reg
_reconstructor
p1
(c__main__
KBproperty
p2
c__builtin__
object
p3
NtRp4
(dp5
S'comment'
p6
S'243611243042'
p7
sS'domain'
p8
S''
sS'instances_count'
p9
I2050
sS'phrases'
p10
NsS'syn_hypo'
p11
S''
sS'label'
p12
S'active years start year'
p13
sS'range'
p14
S'g Year '
p15
sS'uniq_subjs'
p16
S'2050'
p17
sS'uniq_objs'
p18
I0
sS'prop_uri'
p19
S'http://dbpedia.org/ontology/activeYearsStartYear'
p20
sS'annotations'
p21
(dp22
S'bag_of_words'
p23
(lp24
S'active'
p25
aS'years'
p26
aS'start'
p27
aS'year'
p28
aS'g'
aS'Year'
p29
aS'243611243042'
p30
asS'chunk_seq'
p31
(lp32
S'B-NP'
p33
aS'E-NP'
p34
aS'S-VP'
p35
aS'B-NP'
p36
aS'I-NP'
p37
aS'I-NP'
p38
aS'E-NP'
p39
asS'dep_seq'
p40
(lp41
(lp42
S'amod'
p43
aS'2'
aS'1'
aa(lp44
S'nsubj'
p45
aS'3'
aS'2'
aa(lp46
S'root'
p47
aS'0'
aS'3'
aa(lp48
S'nn'
p49
aS'7'
aS'4'
aa(lp50
S'nn'
p51
aS'7'
aS'5'
aa(lp52
S'nn'
p53
aS'7'
aS'6'
aa(lp54
S'dobj'
p55
aS'3'
aS'7'
aasS'srls'
p56
(lp57
(dp58
S'A1'
p59
S'active years'
p60
sS'AM-TMP'
p61
S'year g Year 243611243042'
p62
sS'V'
g27
sasS'pos_seq'
p63
(lp64
S'JJ'
p65
aS'NNS'
p66
aS'VBP'
p67
aS'NN'
p68
aS'NN'
p69
aS'NN'
p70
aS'NN'
p71
asS'ner_seq'
p72
(lp73
S'O'
aS'O'
aS'O'
aS'O'
aS'O'
aS'O'
aS'O'
assb.