ccopy_reg
_reconstructor
p1
(c__main__
KBproperty
p2
c__builtin__
object
p3
NtRp4
(dp5
S'comment'
p6
S'political mandate'
p7
sS'domain'
p8
S''
sS'instances_count'
p9
I0
sS'phrases'
p10
NsS'syn_hypo'
p11
S''
sS'label'
p12
g7
sS'range'
p13
S'string '
p14
sS'uniq_subjs'
p15
S'0'
sS'uniq_objs'
p16
I0
sS'prop_uri'
p17
S'http://dbpedia.org/ontology/mandate'
p18
sS'annotations'
p19
(dp20
S'bag_of_words'
p21
(lp22
S'mandate'
p23
aS'string'
p24
aS'political'
p25
aS'mandate'
p26
asS'chunk_seq'
p27
(lp28
S'B-NP'
p29
aS'I-NP'
p30
aS'I-NP'
p31
aS'E-NP'
p32
asS'dep_seq'
p33
(lp34
(lp35
S'nn'
p36
aS'4'
aS'1'
aa(lp37
S'nn'
p38
aS'4'
aS'2'
aa(lp39
S'amod'
p40
aS'4'
aS'3'
aa(lp41
S'root'
p42
aS'0'
aS'4'
aasS'srls'
p43
(lp44
sS'pos_seq'
p45
(lp46
S'NN'
p47
aS'NN'
p48
aS'JJ'
p49
aS'NN'
p50
asS'ner_seq'
p51
(lp52
S'O'
aS'O'
aS'O'
aS'O'
assb.