ccopy_reg
_reconstructor
p1
(c__main__
KBproperty
p2
c__builtin__
object
p3
NtRp4
(dp5
S'comment'
p6
S'The start location of the route.216170'
p7
sS'domain'
p8
S'Route Of Transportation '
p9
sS'instances_count'
p10
I198
sS'phrases'
p11
NsS'syn_hypo'
p12
S''
sS'label'
p13
S'route start location'
p14
sS'range'
p15
S'Place '
p16
sS'uniq_subjs'
p17
S'198'
p18
sS'uniq_objs'
p19
I0
sS'prop_uri'
p20
S'http://dbpedia.org/ontology/routeStartLocation'
p21
sS'annotations'
p22
(dp23
S'bag_of_words'
p24
(lp25
S'Route'
p26
aS'Of'
p27
aS'Transportation'
p28
aS'route'
p29
aS'start'
p30
aS'location'
p31
aS'Place'
p32
aS'The'
p33
aS'start'
p34
aS'location'
p35
aS'of'
p36
aS'the'
p37
aS'route.216170'
p38
asS'chunk_seq'
p39
(lp40
S'S-NP'
p41
aS'S-PP'
p42
aS'S-NP'
p43
aS'B-NP'
p44
aS'E-NP'
p45
aS'B-NP'
p46
aS'E-NP'
p47
aS'B-NP'
p48
aS'I-NP'
p49
aS'E-NP'
p50
aS'S-PP'
p51
aS'B-NP'
p52
aS'E-NP'
p53
asS'dep_seq'
p54
(lp55
(lp56
S'dep'
p57
aS'5'
aS'1'
aa(lp58
S'prep_of'
p59
aS'1'
aS'3'
aa(lp60
S'dep'
p61
aS'5'
aS'4'
aa(lp62
S'root'
p63
aS'0'
aS'5'
aa(lp64
S'nn'
p65
aS'7'
aS'6'
aa(lp66
S'nsubj'
p67
aS'10'
p68
aS'7'
aa(lp69
S'det'
p70
aS'10'
p71
aS'8'
aa(lp72
S'nn'
p73
aS'10'
p74
aS'9'
aa(lp75
S'xcomp'
p76
aS'5'
aS'10'
p77
aa(lp78
S'det'
p79
aS'13'
p80
aS'12'
p81
aa(lp82
S'prep_of'
p83
aS'10'
p84
aS'13'
p85
aasS'srls'
p86
(lp87
sS'pos_seq'
p88
(lp89
S'NNP'
p90
aS'IN'
p91
aS'NNP'
p92
aS'NN'
p93
aS'NN'
p94
aS'NN'
p95
aS'NNP'
p96
aS'DT'
p97
aS'NN'
p98
aS'NN'
p99
aS'IN'
p100
aS'DT'
p101
aS'NN'
p102
asS'ner_seq'
p103
(lp104
S'B-ORG'
p105
aS'I-ORG'
p106
aS'E-ORG'
p107
aS'O'
aS'O'
aS'O'
aS'O'
aS'O'
aS'O'
aS'O'
aS'O'
aS'O'
aS'O'
assb.