ccopy_reg
_reconstructor
p1
(c__main__
KBproperty
p2
c__builtin__
object
p3
NtRp4
(dp5
S'comment'
p6
S'indicate a place is a stop on a road.00'
p7
sS'domain'
p8
S'Place '
p9
sS'instances_count'
p10
I0
sS'phrases'
p11
NsS'syn_hypo'
p12
S''
sS'label'
p13
S'is route stop'
p14
sS'range'
p15
S'Route Stop '
p16
sS'uniq_subjs'
p17
S'0'
sS'uniq_objs'
p18
I0
sS'prop_uri'
p19
S'http://dbpedia.org/ontology/isRouteStop'
p20
sS'annotations'
p21
(dp22
S'bag_of_words'
p23
(lp24
S'Place'
p25
aS'is'
p26
aS'route'
p27
aS'stop'
p28
aS'Route'
p29
aS'Stop'
p30
aS'indicate'
p31
aS'a'
aS'place'
p32
aS'is'
p33
aS'a'
aS'stop'
p34
aS'on'
p35
aS'a'
aS'road.00'
p36
asS'chunk_seq'
p37
(lp38
S'S-NP'
p39
aS'S-VP'
p40
aS'B-NP'
p41
aS'I-NP'
p42
aS'I-NP'
p43
aS'E-NP'
p44
aS'S-VP'
p45
aS'B-NP'
p46
aS'E-NP'
p47
aS'S-VP'
p48
aS'B-NP'
p49
aS'E-NP'
p50
aS'S-PP'
p51
aS'B-NP'
p52
aS'E-NP'
p53
asS'dep_seq'
p54
(lp55
(lp56
S'nsubj'
p57
aS'2'
aS'1'
aa(lp58
S'root'
p59
aS'0'
aS'2'
aa(lp60
S'nn'
p61
aS'6'
aS'3'
aa(lp62
S'nn'
p63
aS'6'
aS'4'
aa(lp64
S'nn'
p65
aS'6'
aS'5'
aa(lp66
S'nsubj'
p67
aS'7'
aS'6'
aa(lp68
S'ccomp'
p69
aS'2'
aS'7'
aa(lp70
S'det'
p71
aS'9'
aS'8'
aa(lp72
S'nsubj'
p73
aS'12'
p74
aS'9'
aa(lp75
S'cop'
p76
aS'12'
p77
aS'10'
p78
aa(lp79
S'det'
p80
aS'12'
p81
aS'11'
p82
aa(lp83
S'ccomp'
p84
aS'7'
aS'12'
p85
aa(lp86
S'det'
p87
aS'15'
p88
aS'14'
p89
aa(lp90
S'prep_on'
p91
aS'12'
p92
aS'15'
p93
aasS'srls'
p94
(lp95
(dp96
S'A1'
p97
S'a place is a stop on a road.00'
p98
sS'A0'
p99
S'Route Stop'
p100
sS'V'
g31
sasS'pos_seq'
p101
(lp102
S'NN'
p103
aS'VBZ'
p104
aS'NN'
p105
aS'NN'
p106
aS'NNP'
p107
aS'NNP'
p108
aS'VBP'
p109
aS'DT'
p110
aS'NN'
p111
aS'VBZ'
p112
aS'DT'
p113
aS'NN'
p114
aS'IN'
p115
aS'DT'
p116
aS'NN'
p117
asS'ner_seq'
p118
(lp119
S'O'
aS'O'
aS'O'
aS'O'
aS'O'
aS'O'
aS'O'
aS'O'
aS'O'
aS'O'
aS'O'
aS'O'
aS'O'
aS'O'
aS'O'
assb.