ccopy_reg
_reconstructor
p1
(c__main__
KBproperty
p2
c__builtin__
object
p3
NtRp4
(dp5
S'comment'
p6
S'44'
p7
sS'domain'
p8
S'Golf Player '
p9
sS'instances_count'
p10
I4
sS'phrases'
p11
NsS'syn_hypo'
p12
S''
sS'label'
p13
S'wins at pro tournaments'
p14
sS'range'
p15
S''
sS'uniq_subjs'
p16
S'4'
sS'uniq_objs'
p17
I0
sS'prop_uri'
p18
S'http://dbpedia.org/ontology/winsAtProTournaments'
p19
sS'annotations'
p20
(dp21
S'bag_of_words'
p22
(lp23
S'Golf'
p24
aS'Player'
p25
aS'wins'
p26
aS'at'
p27
aS'pro'
p28
aS'tournaments'
p29
aS'44'
p30
asS'chunk_seq'
p31
(lp32
S'B-NP'
p33
aS'E-NP'
p34
aS'S-VP'
p35
aS'S-PP'
p36
aS'B-NP'
p37
aS'E-NP'
p38
aS'S-ADJP'
p39
asS'dep_seq'
p40
(lp41
(lp42
S'nn'
p43
aS'2'
aS'1'
aa(lp44
S'nsubj'
p45
aS'3'
aS'2'
aa(lp46
S'root'
p47
aS'0'
aS'3'
aa(lp48
S'amod'
p49
aS'6'
aS'5'
aa(lp50
S'prep_at'
p51
aS'3'
aS'6'
aa(lp52
S'punct'
p53
aS'3'
aS'7'
aasS'srls'
p54
(lp55
(dp56
S'A0'
p57
S'Golf Player'
p58
sS'AM-MNR'
p59
S'at pro tournaments 44'
p60
sS'V'
g26
sasS'pos_seq'
p61
(lp62
S'NNP'
p63
aS'NNP'
p64
aS'VBZ'
p65
aS'IN'
p66
aS'JJ'
p67
aS'NNS'
p68
aS'.'
asS'ner_seq'
p69
(lp70
S'B-ORG'
p71
aS'E-ORG'
p72
aS'O'
aS'O'
aS'O'
aS'O'
aS'O'
assb.