ccopy_reg
_reconstructor
p1
(c__main__
KBproperty
p2
c__builtin__
object
p3
NtRp4
(dp5
S'comment'
p6
S'date of an agreement'
p7
sS'domain'
p8
S'Place '
p9
sS'instances_count'
p10
I0
sS'phrases'
p11
NsS'syn_hypo'
p12
S''
sS'label'
p13
g7
sS'range'
p14
S'date '
p15
sS'uniq_subjs'
p16
S'0'
sS'uniq_objs'
p17
I0
sS'prop_uri'
p18
S'http://dbpedia.org/ontology/dateAgreement'
p19
sS'annotations'
p20
(dp21
S'bag_of_words'
p22
(lp23
S'Place'
p24
aS'date'
p25
aS'Agreement'
p26
aS'date'
p27
aS'date'
p28
aS'of'
p29
aS'an'
p30
aS'agreement'
p31
asS'chunk_seq'
p32
(lp33
S'B-NP'
p34
aS'I-NP'
p35
aS'I-NP'
p36
aS'I-NP'
p37
aS'E-NP'
p38
aS'S-PP'
p39
aS'B-NP'
p40
aS'E-NP'
p41
asS'dep_seq'
p42
(lp43
(lp44
S'nn'
p45
aS'5'
aS'1'
aa(lp46
S'nn'
p47
aS'5'
aS'2'
aa(lp48
S'nn'
p49
aS'5'
aS'3'
aa(lp50
S'nn'
p51
aS'5'
aS'4'
aa(lp52
S'root'
p53
aS'0'
aS'5'
aa(lp54
S'det'
p55
aS'8'
aS'7'
aa(lp56
S'prep_of'
p57
aS'5'
aS'8'
aasS'srls'
p58
(lp59
sS'pos_seq'
p60
(lp61
S'NN'
p62
aS'NN'
p63
aS'NN'
p64
aS'NN'
p65
aS'NN'
p66
aS'IN'
p67
aS'DT'
p68
aS'NN'
p69
asS'ner_seq'
p70
(lp71
S'O'
aS'O'
aS'O'
aS'O'
aS'O'
aS'O'
aS'O'
aS'O'
assb.