ccopy_reg
_reconstructor
p1
(c__main__
KBproperty
p2
c__builtin__
object
p3
NtRp4
(dp5
S'comment'
p6
S'Authority data on researchers academics etc. The ID range has been defined as a subset of the forthcoming ISNI range.00'
p7
sS'domain'
p8
S''
sS'instances_count'
p9
I0
sS'phrases'
p10
NsS'syn_hypo'
p11
S''
sS'label'
p12
S'ORCID Id'
p13
sS'range'
p14
S'string '
p15
sS'uniq_subjs'
p16
S'0'
sS'uniq_objs'
p17
I0
sS'prop_uri'
p18
S'http://dbpedia.org/ontology/orcidId'
p19
sS'annotations'
p20
(dp21
S'bag_of_words'
p22
(lp23
S'ORCID'
p24
aS'Id'
p25
aS'string'
p26
aS'Authority'
p27
aS'data'
p28
aS'on'
p29
aS'researchers'
p30
aS'academics'
p31
aS'etc.'
p32
aS'The'
p33
aS'ID'
p34
aS'range'
p35
aS'has'
p36
aS'been'
p37
aS'defined'
p38
aS'as'
p39
aS'a'
aS'subset'
p40
aS'of'
p41
aS'the'
p42
aS'forthcoming'
p43
aS'ISNI'
p44
aS'range.00'
p45
asS'chunk_seq'
p46
(lp47
S'B-NP'
p48
aS'I-NP'
p49
aS'I-NP'
p50
aS'I-NP'
p51
aS'E-NP'
p52
aS'S-PP'
p53
aS'B-NP'
p54
aS'E-NP'
p55
aS'S-VP'
p56
aS'B-NP'
p57
aS'I-NP'
p58
aS'E-NP'
p59
aS'B-VP'
p60
aS'I-VP'
p61
aS'E-VP'
p62
aS'S-PP'
p63
aS'B-NP'
p64
aS'E-NP'
p65
aS'S-PP'
p66
aS'B-NP'
p67
aS'I-NP'
p68
aS'I-NP'
p69
aS'E-NP'
p70
asS'dep_seq'
p71
(lp72
(lp73
S'nn'
p74
aS'5'
aS'1'
aa(lp75
S'nn'
p76
aS'5'
aS'2'
aa(lp77
S'nn'
p78
aS'5'
aS'3'
aa(lp79
S'nn'
p80
aS'5'
aS'4'
aa(lp81
S'nsubj'
p82
aS'9'
aS'5'
aa(lp83
S'nn'
p84
aS'8'
aS'7'
aa(lp85
S'prep_on'
p86
aS'5'
aS'8'
aa(lp87
S'root'
p88
aS'0'
aS'9'
aa(lp89
S'det'
p90
aS'12'
p91
aS'10'
p92
aa(lp93
S'nn'
p94
aS'12'
p95
aS'11'
p96
aa(lp97
S'nsubjpass'
p98
aS'15'
p99
aS'12'
p100
aa(lp101
S'aux'
p102
aS'15'
p103
aS'13'
p104
aa(lp105
S'auxpass'
p106
aS'15'
p107
aS'14'
p108
aa(lp109
S'ccomp'
p110
aS'9'
aS'15'
p111
aa(lp112
S'det'
p113
aS'18'
p114
aS'17'
p115
aa(lp116
S'prep_as'
p117
aS'15'
p118
aS'18'
p119
aa(lp120
S'det'
p121
aS'23'
p122
aS'20'
p123
aa(lp124
S'amod'
p125
aS'23'
p126
aS'21'
p127
aa(lp128
S'nn'
p129
aS'23'
p130
aS'22'
p131
aa(lp132
S'prep_of'
p133
aS'18'
p134
aS'23'
p135
aasS'srls'
p136
(lp137
(dp138
S'A1'
p139
S'ORCID Id string Authority data on researchers academics etc. The ID range'
p140
sS'A2'
p141
S'as a subset of the forthcoming ISNI range.00'
p142
sS'V'
g38
sasS'pos_seq'
p143
(lp144
S'NNP'
p145
aS'NNP'
p146
aS'NN'
p147
aS'NNP'
p148
aS'NNS'
p149
aS'IN'
p150
aS'NNS'
p151
aS'NNS'
p152
aS'VBP'
p153
aS'DT'
p154
aS'NN'
p155
aS'NN'
p156
aS'VBZ'
p157
aS'VBN'
p158
aS'VBN'
p159
aS'IN'
p160
aS'DT'
p161
aS'NN'
p162
aS'IN'
p163
aS'DT'
p164
aS'JJ'
p165
aS'NNP'
p166
aS'NN'
p167
asS'ner_seq'
p168
(lp169
S'B-ORG'
p170
aS'I-ORG'
p171
aS'I-ORG'
p172
aS'E-ORG'
p173
aS'O'
aS'O'
aS'O'
aS'O'
aS'O'
aS'O'
aS'O'
aS'O'
aS'O'
aS'O'
aS'O'
aS'O'
aS'O'
aS'O'
aS'O'
aS'O'
aS'O'
aS'S-LOC'
p174
aS'O'
assb.