ccopy_reg
_reconstructor
p1
(c__main__
KBproperty
p2
c__builtin__
object
p3
NtRp4
(dp5
S'comment'
p6
S'1313'
p7
sS'domain'
p8
S'Supreme Court Of The United States Case '
p9
sS'instances_count'
p10
I13
sS'phrases'
p11
NsS'syn_hypo'
p12
S''
sS'label'
p13
S'argue date'
p14
sS'range'
p15
S'date '
p16
sS'uniq_subjs'
p17
S'13'
p18
sS'uniq_objs'
p19
I0
sS'prop_uri'
p20
S'http://dbpedia.org/ontology/argueDate'
p21
sS'annotations'
p22
(dp23
S'bag_of_words'
p24
(lp25
S'Supreme'
p26
aS'Court'
p27
aS'Of'
p28
aS'The'
p29
aS'United'
p30
aS'States'
p31
aS'Case'
p32
aS'argue'
p33
aS'date'
p34
aS'date'
p35
aS'1313'
p36
asS'chunk_seq'
p37
(lp38
S'B-NP'
p39
aS'E-NP'
p40
aS'S-PP'
p41
aS'B-NP'
p42
aS'I-NP'
p43
aS'I-NP'
p44
aS'E-NP'
p45
aS'S-VP'
p46
aS'B-NP'
p47
aS'E-NP'
p48
aS'S-NP'
p49
asS'dep_seq'
p50
(lp51
(lp52
S'nn'
p53
aS'2'
aS'1'
aa(lp54
S'nsubj'
p55
aS'8'
aS'2'
aa(lp56
S'det'
p57
aS'7'
aS'4'
aa(lp58
S'nn'
p59
aS'7'
aS'5'
aa(lp60
S'nn'
p61
aS'7'
aS'6'
aa(lp62
S'prep_of'
p63
aS'2'
aS'7'
aa(lp64
S'root'
p65
aS'0'
aS'8'
aa(lp66
S'nn'
p67
aS'10'
p68
aS'9'
aa(lp69
S'dobj'
p70
aS'8'
aS'10'
p71
aa(lp72
S'iobj'
p73
aS'8'
aS'10'
p74
aa(lp75
S'dobj'
p76
aS'8'
aS'11'
p77
aa(lp78
S'dep'
p79
aS'10'
p80
aS'11'
p81
aasS'srls'
p82
(lp83
(dp84
S'A1'
p85
S'date date 1313'
p86
sS'A0'
p87
S'Supreme Court Of The United States Case'
p88
sS'V'
g33
sasS'pos_seq'
p89
(lp90
S'NNP'
p91
aS'NNP'
p92
aS'IN'
p93
aS'DT'
p94
aS'NNP'
p95
aS'NNP'
p96
aS'NNP'
p97
aS'VBP'
p98
aS'NN'
p99
aS'NN'
p100
aS'NN'
p101
asS'ner_seq'
p102
(lp103
S'O'
aS'B-ORG'
p104
aS'I-ORG'
p105
aS'I-ORG'
p106
aS'I-ORG'
p107
aS'I-ORG'
p108
aS'E-ORG'
p109
aS'O'
aS'O'
aS'O'
aS'O'
assb.