ccopy_reg
_reconstructor
p1
(c__main__
KBproperty
p2
c__builtin__
object
p3
NtRp4
(dp5
S'comment'
p6
S"specifies the colour type of the film i.e. 'colour' or 'b/w00"
p7
sS'domain'
p8
S'Film '
p9
sS'instances_count'
p10
I0
sS'phrases'
p11
NsS'syn_hypo'
p12
S''
sS'label'
p13
S'film colour type'
p14
sS'range'
p15
S'string '
p16
sS'uniq_subjs'
p17
S'0'
sS'uniq_objs'
p18
I0
sS'prop_uri'
p19
S'http://dbpedia.org/ontology/filmColourType'
p20
sS'annotations'
p21
(dp22
S'bag_of_words'
p23
(lp24
S'Film'
p25
aS'film'
p26
aS'colour'
p27
aS'type'
p28
aS'string'
p29
aS'specifies'
p30
aS'the'
p31
aS'colour'
p32
aS'type'
p33
aS'of'
p34
aS'the'
p35
aS'film'
p36
aS'i.e.'
p37
aS"'c"
p38
aS'olour'
p39
aS"'"
aS'or'
p40
aS"'b"
p41
aS'/'
aS'w00'
p42
asS'chunk_seq'
p43
(lp44
S'B-NP'
p45
aS'I-NP'
p46
aS'I-NP'
p47
aS'I-NP'
p48
aS'E-NP'
p49
aS'S-VP'
p50
aS'B-NP'
p51
aS'I-NP'
p52
aS'E-NP'
p53
aS'S-PP'
p54
aS'B-NP'
p55
aS'E-NP'
p56
aS'O'
aS'O'
aS'S-NP'
p57
aS'O'
aS'O'
aS'S-NP'
p58
aS'O'
aS'O'
asS'dep_seq'
p59
(lp60
(lp61
S'nn'
p62
aS'5'
aS'1'
aa(lp63
S'nn'
p64
aS'5'
aS'2'
aa(lp65
S'nn'
p66
aS'5'
aS'3'
aa(lp67
S'nn'
p68
aS'5'
aS'4'
aa(lp69
S'dep'
p70
aS'19'
p71
aS'5'
aa(lp72
S'dep'
p73
aS'19'
p74
aS'6'
aa(lp75
S'det'
p76
aS'9'
aS'7'
aa(lp77
S'nn'
p78
aS'9'
aS'8'
aa(lp79
S'dep'
p80
aS'19'
p81
aS'9'
aa(lp82
S'det'
p83
aS'12'
p84
aS'11'
p85
aa(lp86
S'prep_of'
p87
aS'9'
aS'12'
p88
aa(lp89
S'dep'
p90
aS'19'
p91
aS'13'
p92
aa(lp93
S'nn'
p94
aS'19'
p95
aS'14'
p96
aa(lp97
S'nn'
p98
aS'19'
p99
aS'15'
p100
aa(lp101
S'nn'
p102
aS'19'
p103
aS'17'
p104
aa(lp105
S'nn'
p106
aS'19'
p107
aS'18'
p108
aa(lp109
S'root'
p110
aS'0'
aS'19'
p111
aa(lp112
S'punct'
p113
aS'19'
p114
aS'20'
p115
aasS'srls'
p116
(lp117
(dp118
S'A1'
p119
S"the colour type of the film i.e. 'c olour ' or 'b / w00"
p120
sS'A0'
p121
S'Film film colour type string'
p122
sS'V'
g30
sasS'pos_seq'
p123
(lp124
S'NN'
p125
aS'NN'
p126
aS'NN'
p127
aS'NN'
p128
aS'NN'
p129
aS'VBZ'
p130
aS'DT'
p131
aS'NN'
p132
aS'NN'
p133
aS'IN'
p134
aS'DT'
p135
aS'NN'
p136
aS'FW'
p137
aS'FW'
p138
aS'FW'
p139
aS'FW'
p140
aS'FW'
p141
aS'FW'
p142
aS'FW'
p143
aS'.'
asS'ner_seq'
p144
(lp145
S'O'
aS'O'
aS'O'
aS'O'
aS'O'
aS'O'
aS'O'
aS'O'
aS'O'
aS'O'
aS'O'
aS'O'
aS'O'
aS'O'
aS'O'
aS'O'
aS'O'
aS'O'
aS'O'
aS'O'
assb.