ccopy_reg
_reconstructor
p1
(c__main__
KBproperty
p2
c__builtin__
object
p3
NtRp4
(dp5
S'comment'
p6
S'A postal code known in various countries as a post code postcode or ZIP code is a series of letters and/or digits appended to a postal address for the purpose of sorting mail.183875182829'
p7
sS'domain'
p8
S''
sS'instances_count'
p9
I183875
sS'phrases'
p10
NsS'syn_hypo'
p11
S''
sS'label'
p12
S'postal code'
p13
sS'range'
p14
S'string '
p15
sS'uniq_subjs'
p16
S'86408'
p17
sS'uniq_objs'
p18
I0
sS'prop_uri'
p19
S'http://dbpedia.org/ontology/postalCode'
p20
sS'annotations'
p21
(dp22
S'bag_of_words'
p23
(lp24
S'postal'
p25
aS'code'
p26
aS'string'
p27
aS'A'
aS'postal'
p28
aS'code'
p29
aS'known'
p30
aS'in'
p31
aS'various'
p32
aS'countries'
p33
aS'as'
p34
aS'a'
aS'post'
p35
aS'code'
p36
aS'postcode'
p37
aS'or'
p38
aS'ZIP'
p39
aS'code'
p40
aS'is'
p41
aS'a'
aS'series'
p42
aS'of'
p43
aS'letters'
p44
aS'and/or'
p45
aS'digits'
p46
aS'appended'
p47
aS'to'
p48
aS'a'
aS'postal'
p49
aS'address'
p50
aS'for'
p51
aS'the'
p52
aS'purpose'
p53
aS'of'
p54
aS'sorting'
p55
aS'mail.183875182829'
p56
asS'chunk_seq'
p57
(lp58
S'B-NP'
p59
aS'I-NP'
p60
aS'E-NP'
p61
aS'B-NP'
p62
aS'I-NP'
p63
aS'E-NP'
p64
aS'S-VP'
p65
aS'S-PP'
p66
aS'B-NP'
p67
aS'E-NP'
p68
aS'S-PP'
p69
aS'B-NP'
p70
aS'I-NP'
p71
aS'I-NP'
p72
aS'I-NP'
p73
aS'I-NP'
p74
aS'I-NP'
p75
aS'E-NP'
p76
aS'S-VP'
p77
aS'B-NP'
p78
aS'E-NP'
p79
aS'S-PP'
p80
aS'S-NP'
p81
aS'S-PP'
p82
aS'S-NP'
p83
aS'S-VP'
p84
aS'S-PP'
p85
aS'B-NP'
p86
aS'I-NP'
p87
aS'E-NP'
p88
aS'S-PP'
p89
aS'B-NP'
p90
aS'E-NP'
p91
aS'S-PP'
p92
aS'S-VP'
p93
aS'S-NP'
p94
asS'dep_seq'
p95
(lp96
(lp97
S'amod'
p98
aS'3'
aS'1'
aa(lp99
S'nn'
p100
aS'3'
aS'2'
aa(lp101
S'root'
p102
aS'0'
aS'3'
aa(lp103
S'det'
p104
aS'6'
aS'4'
aa(lp105
S'amod'
p106
aS'6'
aS'5'
aa(lp107
S'dep'
p108
aS'3'
aS'6'
aa(lp109
S'partmod'
p110
aS'6'
aS'7'
aa(lp111
S'amod'
p112
aS'10'
p113
aS'9'
aa(lp114
S'prep_in'
p115
aS'7'
aS'10'
p116
aa(lp117
S'mark'
p118
aS'21'
p119
aS'11'
p120
aa(lp121
S'det'
p122
aS'15'
p123
aS'12'
p124
aa(lp125
S'nn'
p126
aS'15'
p127
aS'13'
p128
aa(lp129
S'nn'
p130
aS'15'
p131
aS'14'
p132
aa(lp133
S'nsubj'
p134
aS'21'
p135
aS'15'
p136
aa(lp137
S'nn'
p138
aS'18'
p139
aS'17'
p140
aa(lp141
S'conj_or'
p142
aS'15'
p143
aS'18'
p144
aa(lp145
S'cop'
p146
aS'21'
p147
aS'19'
p148
aa(lp149
S'det'
p150
aS'21'
p151
aS'20'
p152
aa(lp153
S'advcl'
p154
aS'7'
aS'21'
p155
aa(lp156
S'prep_of'
p157
aS'21'
p158
aS'23'
p159
aa(lp160
S'prep_and/or'
p161
aS'21'
p162
aS'25'
p163
aa(lp164
S'partmod'
p165
aS'25'
p166
aS'26'
p167
aa(lp168
S'det'
p169
aS'30'
p170
aS'28'
p171
aa(lp172
S'amod'
p173
aS'30'
p174
aS'29'
p175
aa(lp176
S'prep_to'
p177
aS'26'
p178
aS'30'
p179
aa(lp180
S'det'
p181
aS'33'
p182
aS'32'
p183
aa(lp184
S'prep_for'
p185
aS'30'
p186
aS'33'
p187
aa(lp188
S'prepc_of'
p189
aS'33'
p190
aS'35'
p191
aa(lp192
S'dobj'
p193
aS'35'
p194
aS'36'
p195
aasS'srls'
p196
(lp197
(dp198
S'A1'
p199
S'postal code string A postal code'
p200
sS'AM-LOC'
p201
S'in various countries'
p202
sS'A2'
p203
S'as a post code postcode or ZIP code'
p204
sS'V'
g30
sa(dp205
S'A1'
p206
S'a series of letters and/or digits'
p207
sS'A2'
p208
S'to a postal address for the purpose of sorting mail.183875182829'
p209
sS'V'
g47
sa(dp210
S'A1'
p211
g56
sS'A0'
p212
g46
sS'V'
g55
sasS'pos_seq'
p213
(lp214
S'JJ'
p215
aS'NN'
p216
aS'NN'
p217
aS'DT'
p218
aS'JJ'
p219
aS'NN'
p220
aS'VBN'
p221
aS'IN'
p222
aS'JJ'
p223
aS'NNS'
p224
aS'IN'
p225
aS'DT'
p226
aS'NN'
p227
aS'NN'
p228
aS'NN'
p229
aS'CC'
p230
aS'NNP'
p231
aS'NN'
p232
aS'VBZ'
p233
aS'DT'
p234
aS'NN'
p235
aS'IN'
p236
aS'NNS'
p237
aS'IN'
p238
aS'NNS'
p239
aS'VBN'
p240
aS'TO'
p241
aS'DT'
p242
aS'JJ'
p243
aS'NN'
p244
aS'IN'
p245
aS'DT'
p246
aS'NN'
p247
aS'IN'
p248
aS'VBG'
p249
aS'NN'
p250
asS'ner_seq'
p251
(lp252
S'O'
aS'O'
aS'O'
aS'O'
aS'O'
aS'O'
aS'O'
aS'O'
aS'O'
aS'O'
aS'O'
aS'O'
aS'O'
aS'O'
aS'O'
aS'O'
aS'O'
aS'O'
aS'O'
aS'O'
aS'O'
aS'O'
aS'O'
aS'O'
aS'O'
aS'O'
aS'O'
aS'O'
aS'O'
aS'O'
aS'O'
aS'O'
aS'O'
aS'O'
aS'O'
aS'O'
assb.