ccopy_reg
_reconstructor
p1
(c__main__
KBproperty
p2
c__builtin__
object
p3
NtRp4
(dp5
S'comment'
p6
S'Ein Gr\\xc3\\xbcnder oder Gr\\xc3\\xbcndungsmitglied einer Organisation Religion oder eines Ortes.14331177'
p7
sS'domain'
p8
S''
sS'instances_count'
p9
I1433
sS'phrases'
p10
NsS'syn_hypo'
p11
V
sS'label'
p12
S'founder'
p13
sS'range'
p14
S'Person '
p15
sS'uniq_subjs'
p16
S'1337'
p17
sS'uniq_objs'
p18
I0
sS'prop_uri'
p19
S'http://dbpedia.org/ontology/founder'
p20
sS'annotations'
p21
(dp22
S'bag_of_words'
p23
(lp24
S'founder'
p25
aS'Person'
p26
aS'Ein'
p27
aS'Gr'
p28
aS'\\'
aS'xc3'
p29
aS'\\'
aS'xbcnder'
p30
aS'oder'
p31
aS'Gr'
p32
aS'\\'
aS'xc3'
p33
aS'\\'
aS'xbcndungsmitglied'
p34
aS'einer'
p35
aS'Organisation'
p36
aS'Religion'
p37
aS'oder'
p38
aS'eines'
p39
aS'Ortes.14331177'
p40
asS'chunk_seq'
p41
(lp42
S'O'
aS'O'
aS'O'
aS'O'
aS'O'
aS'O'
aS'O'
aS'O'
aS'O'
aS'O'
aS'O'
aS'O'
aS'O'
aS'O'
aS'O'
aS'O'
aS'O'
aS'O'
aS'O'
aS'O'
asS'dep_seq'
p43
(lp44
(lp45
S'nn'
p46
aS'4'
aS'1'
aa(lp47
S'nn'
p48
aS'4'
aS'2'
aa(lp49
S'nn'
p50
aS'4'
aS'3'
aa(lp51
S'nn'
p52
aS'16'
p53
aS'4'
aa(lp54
S'nn'
p55
aS'16'
p56
aS'5'
aa(lp57
S'discourse'
p58
aS'16'
p59
aS'6'
aa(lp60
S'dep'
p61
aS'6'
aS'7'
aa(lp62
S'dep'
p63
aS'6'
aS'8'
aa(lp64
S'dep'
p65
aS'6'
aS'9'
aa(lp66
S'dep'
p67
aS'6'
aS'10'
p68
aa(lp69
S'dep'
p70
aS'6'
aS'11'
p71
aa(lp72
S'dep'
p73
aS'6'
aS'12'
p74
aa(lp75
S'dep'
p76
aS'6'
aS'13'
p77
aa(lp78
S'dep'
p79
aS'6'
aS'14'
p80
aa(lp81
S'nn'
p82
aS'16'
p83
aS'15'
p84
aa(lp85
S'root'
p86
aS'0'
aS'16'
p87
aa(lp88
S'nn'
p89
aS'20'
p90
aS'17'
p91
aa(lp92
S'nn'
p93
aS'20'
p94
aS'18'
p95
aa(lp96
S'nn'
p97
aS'20'
p98
aS'19'
p99
aa(lp100
S'dep'
p101
aS'16'
p102
aS'20'
p103
aasS'srls'
p104
(lp105
sS'pos_seq'
p106
(lp107
S'NN'
p108
aS'NNP'
p109
aS'NNP'
p110
aS'NNP'
p111
aS'FW'
p112
aS'FW'
p113
aS'FW'
p114
aS'FW'
p115
aS'FW'
p116
aS'FW'
p117
aS'FW'
p118
aS'FW'
p119
aS'FW'
p120
aS'FW'
p121
aS'FW'
p122
aS'NNP'
p123
aS'NNP'
p124
aS'FW'
p125
aS'FW'
p126
aS'NNP'
p127
asS'ner_seq'
p128
(lp129
S'O'
aS'O'
aS'B-PER'
p130
aS'E-PER'
p131
aS'O'
aS'O'
aS'O'
aS'O'
aS'O'
aS'S-MISC'
p132
aS'O'
aS'O'
aS'O'
aS'O'
aS'O'
aS'B-MISC'
p133
aS'I-MISC'
p134
aS'I-MISC'
p135
aS'I-MISC'
p136
aS'E-MISC'
p137
assb.