ccopy_reg
_reconstructor
p1
(c__main__
KBproperty
p2
c__builtin__
object
p3
NtRp4
(dp5
S'comment'
p6
S'distance to Belfast \\xce\\xbc'
p7
sS'domain'
p8
S'Settlement '
p9
sS'instances_count'
p10
I70
sS'phrases'
p11
NsS'syn_hypo'
p12
S''
sS'label'
p13
g7
sS'range'
p14
S'double '
p15
sS'uniq_subjs'
p16
S'70'
p17
sS'uniq_objs'
p18
I0
sS'prop_uri'
p19
S'http://dbpedia.org/ontology/distanceToBelfast'
p20
sS'annotations'
p21
(dp22
S'bag_of_words'
p23
(lp24
S'Settlement'
p25
aS'distance'
p26
aS'To'
p27
aS'Belfast'
p28
aS'double'
p29
aS'distance'
p30
aS'to'
p31
aS'Belfast'
p32
aS'\\'
aS'xce'
p33
aS'\\'
aS'xbc'
p34
asS'chunk_seq'
p35
(lp36
S'B-NP'
p37
aS'E-NP'
p38
aS'S-PP'
p39
aS'B-NP'
p40
aS'I-NP'
p41
aS'E-NP'
p42
aS'S-PP'
p43
aS'S-NP'
p44
aS'O'
aS'O'
aS'O'
aS'O'
asS'dep_seq'
p45
(lp46
(lp47
S'nn'
p48
aS'2'
aS'1'
aa(lp49
S'dep'
p50
aS'6'
aS'2'
aa(lp51
S'prep_to'
p52
aS'2'
aS'4'
aa(lp53
S'amod'
p54
aS'6'
aS'5'
aa(lp55
S'root'
p56
aS'0'
aS'6'
aa(lp57
S'prep_to'
p58
aS'6'
aS'8'
aa(lp59
S'dep'
p60
aS'6'
aS'9'
aa(lp61
S'dep'
p62
aS'12'
p63
aS'10'
p64
aa(lp65
S'dep'
p66
aS'12'
p67
aS'11'
p68
aa(lp69
S'dep'
p70
aS'6'
aS'12'
p71
aasS'srls'
p72
(lp73
sS'pos_seq'
p74
(lp75
S'NN'
p76
aS'NN'
p77
aS'TO'
p78
aS'NNP'
p79
aS'JJ'
p80
aS'NN'
p81
aS'TO'
p82
aS'NNP'
p83
aS'FW'
p84
aS'FW'
p85
aS'FW'
p86
aS'FW'
p87
asS'ner_seq'
p88
(lp89
S'O'
aS'O'
aS'O'
aS'S-LOC'
p90
aS'O'
aS'O'
aS'O'
aS'S-LOC'
p91
aS'O'
aS'O'
aS'O'
aS'O'
assb.