ccopy_reg
_reconstructor
p1
(c__main__
KBproperty
p2
c__builtin__
object
p3
NtRp4
(dp5
S'comment'
p6
S'98419781'
p7
sS'domain'
p8
S''
sS'instances_count'
p9
I220
sS'phrases'
p10
NsS'syn_hypo'
p11
S''
sS'label'
p12
S'production start year'
p13
sS'range'
p14
S'g Year '
p15
sS'uniq_subjs'
p16
S'220'
p17
sS'uniq_objs'
p18
I0
sS'prop_uri'
p19
S'http://dbpedia.org/ontology/productionStartYear'
p20
sS'annotations'
p21
(dp22
S'bag_of_words'
p23
(lp24
S'production'
p25
aS'start'
p26
aS'year'
p27
aS'g'
aS'Year'
p28
aS'98419781'
p29
asS'chunk_seq'
p30
(lp31
S'B-NP'
p32
aS'I-NP'
p33
aS'I-NP'
p34
aS'I-NP'
p35
aS'I-NP'
p36
aS'E-NP'
p37
asS'dep_seq'
p38
(lp39
(lp40
S'nn'
p41
aS'3'
aS'1'
aa(lp42
S'nn'
p43
aS'3'
aS'2'
aa(lp44
S'root'
p45
aS'0'
aS'3'
aa(lp46
S'nn'
p47
aS'6'
aS'4'
aa(lp48
S'nn'
p49
aS'6'
aS'5'
aa(lp50
S'dep'
p51
aS'3'
aS'6'
aasS'srls'
p52
(lp53
sS'pos_seq'
p54
(lp55
S'NN'
p56
aS'NN'
p57
aS'NN'
p58
aS'NN'
p59
aS'NN'
p60
aS'NN'
p61
asS'ner_seq'
p62
(lp63
S'O'
aS'O'
aS'O'
aS'O'
aS'O'
aS'O'
assb.