ccopy_reg
_reconstructor
p1
(c__main__
KBproperty
p2
c__builtin__
object
p3
NtRp4
(dp5
S'comment'
p6
S'1946819466'
p7
sS'domain'
p8
S'Populated Place '
p9
sS'instances_count'
p10
I477
sS'phrases'
p11
NsS'syn_hypo'
p12
S''
sS'label'
p13
S'population as of'
p14
sS'range'
p15
S'date '
p16
sS'uniq_subjs'
p17
S'477'
p18
sS'uniq_objs'
p19
I0
sS'prop_uri'
p20
S'http://dbpedia.org/ontology/populationAsOf'
p21
sS'annotations'
p22
(dp23
S'bag_of_words'
p24
(lp25
S'Populated'
p26
aS'Place'
p27
aS'population'
p28
aS'as'
p29
aS'of'
p30
aS'date'
p31
aS'1946819466'
p32
asS'chunk_seq'
p33
(lp34
S'B-NP'
p35
aS'I-NP'
p36
aS'E-NP'
p37
aS'S-PP'
p38
aS'S-PP'
p39
aS'S-NP'
p40
aS'S-ADJP'
p41
asS'dep_seq'
p42
(lp43
(lp44
S'amod'
p45
aS'3'
aS'1'
aa(lp46
S'nn'
p47
aS'3'
aS'2'
aa(lp48
S'dep'
p49
aS'7'
aS'3'
aa(lp50
S'prepc_as_of'
p51
aS'3'
aS'5'
aa(lp52
S'pobj'
p53
aS'3'
aS'6'
aa(lp54
S'root'
p55
aS'0'
aS'7'
aasS'srls'
p56
(lp57
sS'pos_seq'
p58
(lp59
S'JJ'
p60
aS'NN'
p61
aS'NN'
p62
aS'IN'
p63
aS'IN'
p64
aS'NN'
p65
aS'.'
asS'ner_seq'
p66
(lp67
S'O'
aS'O'
aS'O'
aS'O'
aS'O'
aS'O'
aS'O'
assb.