ccopy_reg
_reconstructor
p1
(c__main__
KBproperty
p2
c__builtin__
object
p3
NtRp4
(dp5
S'comment'
p6
S'31143101'
p7
sS'domain'
p8
S'School '
p9
sS'instances_count'
p10
I1443
sS'phrases'
p11
NsS'syn_hypo'
p12
Vabundanceratioabundanceratioalbedoratioreflective_powerratioaspect_ratioratioaverageratiocephalic_indexratiobreadth_indexratiocranial_indexratioeccentricityratioefficiencyratioemployee_turnoverratioturnover_rateratioturnoverratiofacial_indexratiofocal_ratioratiof_numberratiostop_numberratiospeedratiofrequencyratiorelative_frequencyratiohematocritratiohaematocritratiopacked_cell_volumeratiointelligence_quotientratioIQratioI.Q.ratioload_factorratioloadingratioloss_ratioratioMach_numberratiomagnificationratiomargin_of_profitratioprofit_marginratiogross_marginratiomechanical_advantageratiomileageratiofuel_consumption_rateratiogasoline_mileageratiogas_mileageratiooddsratiobetting_oddsratioorder_of_magnituderatiomagnituderatiooutput-to-input_ratioratioprevalenceratioprice-to-earnings_ratioratioP/E_ratioratioproductivityratioproportionalityratioquotientratiorefractive_indexratioindex_of_refractionratiorelative_humidityratiorespiratory_quotientratiosafety_factorratiofactor_of_safetyratiosignal-to-noise_ratioratiosignal-to-noiseratiosignal/noise_ratioratiosignal/noiseratioS/Nratiostoichiometryratiotime_constant
p13
sS'label'
p14
S'ratio'
p15
sS'range'
p16
S'string '
p17
sS'uniq_subjs'
p18
S'1443'
p19
sS'uniq_objs'
p20
I0
sS'prop_uri'
p21
S'http://dbpedia.org/ontology/ratio'
p22
sS'annotations'
p23
(dp24
S'bag_of_words'
p25
(lp26
S'School'
p27
aS'ratio'
p28
aS'string'
p29
aS'31143101'
p30
asS'chunk_seq'
p31
(lp32
S'B-NP'
p33
aS'I-NP'
p34
aS'I-NP'
p35
aS'E-NP'
p36
asS'dep_seq'
p37
(lp38
(lp39
S'nn'
p40
aS'4'
aS'1'
aa(lp41
S'nn'
p42
aS'4'
aS'2'
aa(lp43
S'nn'
p44
aS'4'
aS'3'
aa(lp45
S'root'
p46
aS'0'
aS'4'
aasS'srls'
p47
(lp48
sS'pos_seq'
p49
(lp50
S'NN'
p51
aS'NN'
p52
aS'NN'
p53
aS'NN'
p54
asS'ner_seq'
p55
(lp56
S'O'
aS'O'
aS'O'
aS'O'
assb.