ccopy_reg
_reconstructor
p1
(c__main__
KBproperty
p2
c__builtin__
object
p3
NtRp4
(dp5
S'comment'
p6
S'00'
p7
sS'domain'
p8
S'Openswarm '
p9
sS'instances_count'
p10
I0
sS'phrases'
p11
NsS'syn_hypo'
p12
V
sS'label'
p13
S'names'
p14
sS'range'
p15
S'lang String '
p16
sS'uniq_subjs'
p17
S'0'
sS'uniq_objs'
p18
I0
sS'prop_uri'
p19
S'http://dbpedia.org/ontology/names'
p20
sS'annotations'
p21
(dp22
S'bag_of_words'
p23
(lp24
S'Openswarm'
p25
aS'names'
p26
aS'lang'
p27
aS'String'
p28
aS'00'
p29
asS'chunk_seq'
p30
(lp31
S'B-NP'
p32
aS'I-NP'
p33
aS'I-NP'
p34
aS'E-NP'
p35
aS'O'
asS'dep_seq'
p36
(lp37
(lp38
S'nn'
p39
aS'4'
aS'1'
aa(lp40
S'nn'
p41
aS'4'
aS'2'
aa(lp42
S'amod'
p43
aS'4'
aS'3'
aa(lp44
S'root'
p45
aS'0'
aS'4'
aa(lp46
S'num'
p47
aS'4'
aS'5'
aasS'srls'
p48
(lp49
(dp50
S'A0'
p51
S'Openswarm names'
p52
sS'V'
g27
sasS'pos_seq'
p53
(lp54
S'NNP'
p55
aS'NNS'
p56
aS'VBG'
p57
aS'NN'
p58
aS'CD'
p59
asS'ner_seq'
p60
(lp61
S'O'
aS'O'
aS'B-PER'
p62
aS'E-PER'
p63
aS'O'
assb.