ccopy_reg
_reconstructor
p1
(c__main__
KBproperty
p2
c__builtin__
object
p3
NtRp4
(dp5
S'comment'
p6
S'A colour represented by its hex code e.g.: #FF0000 or #40E0D0.10971097'
p7
sS'domain'
p8
S''
sS'instances_count'
p9
I783
sS'phrases'
p10
NsS'syn_hypo'
p11
S''
sS'label'
p12
S'colour hex code'
p13
sS'range'
p14
S'string '
p15
sS'uniq_subjs'
p16
S'783'
p17
sS'uniq_objs'
p18
I0
sS'prop_uri'
p19
S'http://dbpedia.org/ontology/colourHexCode'
p20
sS'annotations'
p21
(dp22
S'bag_of_words'
p23
(lp24
S'colour'
p25
aS'hex'
p26
aS'code'
p27
aS'string'
p28
aS'A'
aS'colour'
p29
aS'represented'
p30
aS'by'
p31
aS'its'
p32
aS'hex'
p33
aS'code'
p34
aS'e.g.'
p35
aS':'
aS'#'
aS'FF0000'
p36
aS'or'
p37
aS'#40'
p38
aS'E0D0.10971097'
p39
asS'chunk_seq'
p40
(lp41
S'S-NP'
p42
aS'S-VP'
p43
aS'B-NP'
p44
aS'E-NP'
p45
aS'B-NP'
p46
aS'E-NP'
p47
aS'S-VP'
p48
aS'S-PP'
p49
aS'B-NP'
p50
aS'I-NP'
p51
aS'E-NP'
p52
aS'S-ADVP'
p53
aS'O'
aS'B-NP'
p54
aS'I-NP'
p55
aS'I-NP'
p56
aS'I-NP'
p57
aS'E-NP'
p58
asS'dep_seq'
p59
(lp60
(lp61
S'nn'
p62
aS'4'
aS'1'
aa(lp63
S'dep'
p64
aS'4'
aS'2'
aa(lp65
S'nn'
p66
aS'4'
aS'3'
aa(lp67
S'root'
p68
aS'0'
aS'4'
aa(lp69
S'det'
p70
aS'6'
aS'5'
aa(lp71
S'dep'
p72
aS'4'
aS'6'
aa(lp73
S'partmod'
p74
aS'6'
aS'7'
aa(lp75
S'poss'
p76
aS'11'
p77
aS'9'
aa(lp78
S'nn'
p79
aS'11'
p80
aS'10'
p81
aa(lp82
S'agent'
p83
aS'7'
aS'11'
p84
aa(lp85
S'advmod'
p86
aS'11'
p87
aS'12'
p88
aa(lp89
S'amod'
p90
aS'15'
p91
aS'14'
p92
aa(lp93
S'dep'
p94
aS'11'
p95
aS'15'
p96
aa(lp97
S'amod'
p98
aS'18'
p99
aS'17'
p100
aa(lp101
S'conj_or'
p102
aS'15'
p103
aS'18'
p104
aasS'srls'
p105
(lp106
(dp107
S'A1'
p108
S'colour  code string'
p109
sS'V'
g26
sa(dp110
S'A1'
p111
S'colour hex code string A colour'
p112
sS'A0'
p113
S'by its hex code e.g.'
p114
sS'V'
g30
sasS'pos_seq'
p115
(lp116
S'NN'
p117
aS'VBP'
p118
aS'NN'
p119
aS'NN'
p120
aS'DT'
p121
aS'NN'
p122
aS'VBN'
p123
aS'IN'
p124
aS'PRP$'
p125
aS'NN'
p126
aS'NN'
p127
aS'RB'
p128
aS':'
aS'IN'
p129
aS'NNP'
p130
aS'CC'
p131
aS'JJ'
p132
aS'NNP'
p133
asS'ner_seq'
p134
(lp135
S'O'
aS'O'
aS'O'
aS'O'
aS'O'
aS'O'
aS'O'
aS'O'
aS'O'
aS'O'
aS'O'
aS'O'
aS'O'
aS'O'
aS'O'
aS'O'
aS'O'
aS'S-LOC'
p136
assb.