ccopy_reg
_reconstructor
p1
(c__main__
KBproperty
p2
c__builtin__
object
p3
NtRp4
(dp5
S'comment'
p6
S'438823258680'
p7
sS'domain'
p8
S'Place '
p9
sS'instances_count'
p10
I241
sS'phrases'
p11
NsS'syn_hypo'
p12
S''
sS'label'
p13
S'UTC offset'
p14
sS'range'
p15
S'string '
p16
sS'uniq_subjs'
p17
S'241'
p18
sS'uniq_objs'
p19
I0
sS'prop_uri'
p20
S'http://dbpedia.org/ontology/utcOffset'
p21
sS'annotations'
p22
(dp23
S'bag_of_words'
p24
(lp25
S'Place'
p26
aS'UTC'
p27
aS'offset'
p28
aS'string'
p29
aS'438823258680'
p30
asS'chunk_seq'
p31
(lp32
S'B-NP'
p33
aS'E-NP'
p34
aS'S-VP'
p35
aS'B-NP'
p36
aS'E-NP'
p37
asS'dep_seq'
p38
(lp39
(lp40
S'nsubj'
p41
aS'3'
aS'1'
aa(lp42
S'nsubj'
p43
aS'3'
aS'2'
aa(lp44
S'root'
p45
aS'0'
aS'3'
aa(lp46
S'dobj'
p47
aS'3'
aS'4'
aa(lp48
S'num'
p49
aS'4'
aS'5'
aasS'srls'
p50
(lp51
(dp52
S'A1'
p53
S'string 438823258680'
p54
sS'A2'
p55
g26
sS'AM-TMP'
p56
g27
sS'V'
g28
sasS'pos_seq'
p57
(lp58
S'NNP'
p59
aS'NNP'
p60
aS'VBD'
p61
aS'NN'
p62
aS'CD'
p63
asS'ner_seq'
p64
(lp65
S'O'
aS'O'
aS'O'
aS'O'
aS'O'
assb.