ccopy_reg
_reconstructor
p1
(c__main__
KBproperty
p2
c__builtin__
object
p3
NtRp4
(dp5
S'comment'
p6
S'The regin where the thing is located or is connected to.7514165063'
p7
sS'domain'
p8
S''
sS'instances_count'
p9
I12093
sS'phrases'
p10
NsS'syn_hypo'
p11
Vaerospaceregionpartairregionpartatmosphereregionpartairregionpartbeltregionpartbiosphereregionpartblack_holeregionpartbottomregionpartcountyregionpartdeep_spaceregionpartdepthregionpartdistanceregionpartEdenregionpartparadiseregionpartnirvanaregionpartheavenregionpartpromised_landregionpartShangri-laregionpartextremityregionpartheliosphereregionparthellregionparthell_on_earthregionparthellholeregionpartsnake_pitregionpartthe_pitsregionpartinfernoregionpartinsideregionpartinteriorregionpartintergalactic_spaceregionpartinterplanetary_spaceregionpartinterstellar_spaceregionpartionosphereregionpartKuiper_beltregionpartEdgeworth-Kuiper_beltregionpartlayerregionpartmareregionpartmariaregionpartoutsideregionpartexteriorregionpartPapuaregionpartradiusregionpartsideregionpartsign_of_the_zodiacregionpartstar_signregionpartsignregionpartmansionregionparthouseregionpartplanetary_houseregionpartSindregionparttopregionpartvacuumregionpartvacuityregionpartzodiacregionpartzone
p12
sS'label'
p13
S'region'
p14
sS'range'
p15
S'Place '
p16
sS'uniq_subjs'
p17
S'12093'
p18
sS'uniq_objs'
p19
I0
sS'prop_uri'
p20
S'http://dbpedia.org/ontology/region'
p21
sS'annotations'
p22
(dp23
S'bag_of_words'
p24
(lp25
S'region'
p26
aS'Place'
p27
aS'The'
p28
aS'regin'
p29
aS'where'
p30
aS'the'
p31
aS'thing'
p32
aS'is'
p33
aS'located'
p34
aS'or'
p35
aS'is'
p36
aS'connected'
p37
aS'to.7514165063'
p38
asS'chunk_seq'
p39
(lp40
S'B-NP'
p41
aS'E-NP'
p42
aS'B-NP'
p43
aS'E-NP'
p44
aS'S-ADVP'
p45
aS'B-NP'
p46
aS'E-NP'
p47
aS'B-VP'
p48
aS'E-VP'
p49
aS'O'
aS'B-VP'
p50
aS'E-VP'
p51
aS'O'
asS'dep_seq'
p52
(lp53
(lp54
S'dep'
p55
aS'4'
aS'1'
aa(lp56
S'dep'
p57
aS'1'
aS'2'
aa(lp58
S'det'
p59
aS'4'
aS'3'
aa(lp60
S'root'
p61
aS'0'
aS'4'
aa(lp62
S'advmod'
p63
aS'9'
aS'5'
aa(lp64
S'det'
p65
aS'7'
aS'6'
aa(lp66
S'nsubjpass'
p67
aS'9'
aS'7'
aa(lp68
S'auxpass'
p69
aS'9'
aS'8'
aa(lp70
S'rcmod'
p71
aS'4'
aS'9'
aa(lp72
S'auxpass'
p73
aS'12'
p74
aS'11'
p75
aa(lp76
S'conj_or'
p77
aS'9'
aS'12'
p78
aa(lp79
S'advmod'
p80
aS'12'
p81
aS'13'
p82
aasS'srls'
p83
(lp84
(dp85
S'A1'
p86
S'The regin where the thing is located or is connected to.7514165063'
p87
sS'V'
g27
sa(dp88
S'A1'
p89
S'the thing'
p90
sS'V'
g34
sa(dp91
S'A1'
p92
S'the thing to.7514165063'
p93
sS'V'
g37
sasS'pos_seq'
p94
(lp95
S'NN'
p96
aS'VBP'
p97
aS'DT'
p98
aS'NN'
p99
aS'WRB'
p100
aS'DT'
p101
aS'NN'
p102
aS'VBZ'
p103
aS'VBN'
p104
aS'CC'
p105
aS'VBZ'
p106
aS'VBN'
p107
aS'.'
asS'ner_seq'
p108
(lp109
S'O'
aS'O'
aS'O'
aS'O'
aS'O'
aS'O'
aS'O'
aS'O'
aS'O'
aS'O'
aS'O'
aS'O'
aS'O'
assb.