ccopy_reg
_reconstructor
p1
(c__main__
KBproperty
p2
c__builtin__
object
p3
NtRp4
(dp5
S'comment'
p6
S'2334323343'
p7
sS'domain'
p8
S''
sS'instances_count'
p9
I82
sS'phrases'
p10
NsS'syn_hypo'
p11
S''
sS'label'
p12
S'draft year'
p13
sS'range'
p14
S'g Year '
p15
sS'uniq_subjs'
p16
S'82'
p17
sS'uniq_objs'
p18
I0
sS'prop_uri'
p19
S'http://dbpedia.org/ontology/draftYear'
p20
sS'annotations'
p21
(dp22
S'bag_of_words'
p23
(lp24
S'draft'
p25
aS'year'
p26
aS'g'
aS'Year'
p27
aS'2334323343'
p28
asS'chunk_seq'
p29
(lp30
S'B-NP'
p31
aS'I-NP'
p32
aS'I-NP'
p33
aS'I-NP'
p34
aS'E-NP'
p35
asS'dep_seq'
p36
(lp37
(lp38
S'nn'
p39
aS'5'
aS'1'
aa(lp40
S'nn'
p41
aS'5'
aS'2'
aa(lp42
S'nn'
p43
aS'5'
aS'3'
aa(lp44
S'nn'
p45
aS'5'
aS'4'
aa(lp46
S'root'
p47
aS'0'
aS'5'
aasS'srls'
p48
(lp49
sS'pos_seq'
p50
(lp51
S'NN'
p52
aS'NN'
p53
aS'NN'
p54
aS'NN'
p55
aS'NN'
p56
asS'ner_seq'
p57
(lp58
S'O'
aS'O'
aS'O'
aS'O'
aS'O'
assb.