ccopy_reg
_reconstructor
p1
(c__main__
KBproperty
p2
c__builtin__
object
p3
NtRp4
(dp5
S'comment'
p6
S'00'
p7
sS'domain'
p8
S'Place '
p9
sS'instances_count'
p10
I0
sS'phrases'
p11
NsS'syn_hypo'
p12
S''
sS'label'
p13
S'blue long distance piste number'
p14
sS'range'
p15
S'non Negative Integer '
p16
sS'uniq_subjs'
p17
S'0'
sS'uniq_objs'
p18
I0
sS'prop_uri'
p19
S'http://dbpedia.org/ontology/blueLongDistancePisteNumber'
p20
sS'annotations'
p21
(dp22
S'bag_of_words'
p23
(lp24
S'Place'
p25
aS'blue'
p26
aS'long'
p27
aS'distance'
p28
aS'piste'
p29
aS'number'
p30
aS'non'
p31
aS'Negative'
p32
aS'Integer'
p33
aS'00'
p34
asS'chunk_seq'
p35
(lp36
S'B-NP'
p37
aS'I-NP'
p38
aS'I-NP'
p39
aS'I-NP'
p40
aS'I-NP'
p41
aS'I-NP'
p42
aS'I-NP'
p43
aS'I-NP'
p44
aS'E-NP'
p45
aS'O'
asS'dep_seq'
p46
(lp47
(lp48
S'dep'
p49
aS'9'
aS'1'
aa(lp50
S'amod'
p51
aS'1'
aS'2'
aa(lp52
S'advmod'
p53
aS'9'
aS'3'
aa(lp54
S'dep'
p55
aS'9'
aS'4'
aa(lp56
S'dep'
p57
aS'9'
aS'5'
aa(lp58
S'dep'
p59
aS'9'
aS'6'
aa(lp60
S'amod'
p61
aS'9'
aS'7'
aa(lp62
S'nn'
p63
aS'9'
aS'8'
aa(lp64
S'root'
p65
aS'0'
aS'9'
aa(lp66
S'num'
p67
aS'9'
aS'10'
p68
aasS'srls'
p69
(lp70
sS'pos_seq'
p71
(lp72
S'NN'
p73
aS'JJ'
p74
aS'JJ'
p75
aS'NN'
p76
aS'NN'
p77
aS'NN'
p78
aS'JJ'
p79
aS'NNP'
p80
aS'NNP'
p81
aS'CD'
p82
asS'ner_seq'
p83
(lp84
S'O'
aS'O'
aS'O'
aS'O'
aS'O'
aS'O'
aS'O'
aS'O'
aS'O'
aS'O'
assb.