ccopy_reg
_reconstructor
p1
(c__main__
KBproperty
p2
c__builtin__
object
p3
NtRp4
(dp5
S'comment'
p6
S'3257249'
p7
sS'domain'
p8
S'Wine Region '
p9
sS'instances_count'
p10
I252
sS'phrases'
p11
NsS'syn_hypo'
p12
S''
sS'label'
p13
S'growing grape'
p14
sS'range'
p15
S'Grape '
p16
sS'uniq_subjs'
p17
S'252'
p18
sS'uniq_objs'
p19
I0
sS'prop_uri'
p20
S'http://dbpedia.org/ontology/growingGrape'
p21
sS'annotations'
p22
(dp23
S'bag_of_words'
p24
(lp25
S'Wine'
p26
aS'Region'
p27
aS'growing'
p28
aS'grape'
p29
aS'Grape'
p30
aS'3257249'
p31
asS'chunk_seq'
p32
(lp33
S'B-NP'
p34
aS'E-NP'
p35
aS'S-VP'
p36
aS'B-NP'
p37
aS'E-NP'
p38
aS'O'
asS'dep_seq'
p39
(lp40
(lp41
S'nn'
p42
aS'2'
aS'1'
aa(lp43
S'nsubj'
p44
aS'3'
aS'2'
aa(lp45
S'root'
p46
aS'0'
aS'3'
aa(lp47
S'nn'
p48
aS'5'
aS'4'
aa(lp49
S'dobj'
p50
aS'3'
aS'5'
aa(lp51
S'punct'
p52
aS'5'
aS'6'
aasS'srls'
p53
(lp54
(dp55
S'A1'
p56
S'Wine Region  grape Grape 3257249'
p57
sS'V'
g28
sasS'pos_seq'
p58
(lp59
S'NNP'
p60
aS'NNP'
p61
aS'VBG'
p62
aS'NN'
p63
aS'NNP'
p64
aS'.'
asS'ner_seq'
p65
(lp66
S'O'
aS'O'
aS'O'
aS'O'
aS'S-MISC'
p67
aS'O'
assb.