ccopy_reg
_reconstructor
p1
(c__main__
KBproperty
p2
c__builtin__
object
p3
NtRp4
(dp5
S'comment'
p6
S'The route type abbreviation eg.: I for Interstate M for Motorway or NJ for New Jersey Route.1759517574'
p7
sS'domain'
p8
S'Route Of Transportation '
p9
sS'instances_count'
p10
I17595
sS'phrases'
p11
NsS'syn_hypo'
p12
S''
sS'label'
p13
S'route type abbreviation'
p14
sS'range'
p15
S'string '
p16
sS'uniq_subjs'
p17
S'230'
p18
sS'uniq_objs'
p19
I0
sS'prop_uri'
p20
S'http://dbpedia.org/ontology/routeTypeAbbreviation'
p21
sS'annotations'
p22
(dp23
S'bag_of_words'
p24
(lp25
S'Route'
p26
aS'Of'
p27
aS'Transportation'
p28
aS'route'
p29
aS'type'
p30
aS'abbreviation'
p31
aS'string'
p32
aS'The'
p33
aS'route'
p34
aS'type'
p35
aS'abbreviation'
p36
aS'eg.'
p37
aS':'
aS'I'
aS'for'
p38
aS'Interstate'
p39
aS'M'
aS'for'
p40
aS'Motorway'
p41
aS'or'
p42
aS'NJ'
p43
aS'for'
p44
aS'New'
p45
aS'Jersey'
p46
aS'Route.1759517574'
p47
asS'chunk_seq'
p48
(lp49
S'S-NP'
p50
aS'S-PP'
p51
aS'B-NP'
p52
aS'I-NP'
p53
aS'I-NP'
p54
aS'I-NP'
p55
aS'E-NP'
p56
aS'B-NP'
p57
aS'I-NP'
p58
aS'I-NP'
p59
aS'I-NP'
p60
aS'E-NP'
p61
aS'O'
aS'S-NP'
p62
aS'S-PP'
p63
aS'B-NP'
p64
aS'E-NP'
p65
aS'S-PP'
p66
aS'B-NP'
p67
aS'I-NP'
p68
aS'E-NP'
p69
aS'S-PP'
p70
aS'B-NP'
p71
aS'I-NP'
p72
aS'E-NP'
p73
asS'dep_seq'
p74
(lp75
(lp76
S'dep'
p77
aS'14'
p78
aS'1'
aa(lp79
S'dep'
p80
aS'14'
p81
aS'2'
aa(lp82
S'pobj'
p83
aS'2'
aS'3'
aa(lp84
S'nn'
p85
aS'5'
aS'4'
aa(lp86
S'nn'
p87
aS'7'
aS'5'
aa(lp88
S'nn'
p89
aS'7'
aS'6'
aa(lp90
S'dep'
p91
aS'14'
p92
aS'7'
aa(lp93
S'det'
p94
aS'11'
p95
aS'8'
aa(lp96
S'nn'
p97
aS'11'
p98
aS'9'
aa(lp99
S'nn'
p100
aS'11'
p101
aS'10'
p102
aa(lp103
S'dep'
p104
aS'14'
p105
aS'11'
p106
aa(lp107
S'dep'
p108
aS'14'
p109
aS'12'
p110
aa(lp111
S'root'
p112
aS'0'
aS'14'
p113
aa(lp114
S'nn'
p115
aS'17'
p116
aS'16'
p117
aa(lp118
S'prep_for'
p119
aS'14'
p120
aS'17'
p121
aa(lp122
S'prep_for'
p123
aS'14'
p124
aS'19'
p125
aa(lp126
S'conj_or'
p127
aS'19'
p128
aS'21'
p129
aa(lp130
S'nn'
p131
aS'25'
p132
aS'23'
p133
aa(lp134
S'nn'
p135
aS'25'
p136
aS'24'
p137
aa(lp138
S'prep_for'
p139
aS'14'
p140
aS'25'
p141
aasS'srls'
p142
(lp143
sS'pos_seq'
p144
(lp145
S'NNP'
p146
aS'IN'
p147
aS'NNP'
p148
aS'NN'
p149
aS'NN'
p150
aS'NN'
p151
aS'NN'
p152
aS'DT'
p153
aS'NN'
p154
aS'NN'
p155
aS'NN'
p156
aS'NN'
p157
aS':'
aS'PRP'
p158
aS'IN'
p159
aS'NNP'
p160
aS'NNP'
p161
aS'IN'
p162
aS'NNP'
p163
aS'CC'
p164
aS'NNP'
p165
aS'IN'
p166
aS'NNP'
p167
aS'NNP'
p168
aS'NNP'
p169
asS'ner_seq'
p170
(lp171
S'B-ORG'
p172
aS'I-ORG'
p173
aS'E-ORG'
p174
aS'O'
aS'O'
aS'O'
aS'O'
aS'O'
aS'O'
aS'O'
aS'O'
aS'O'
aS'O'
aS'O'
aS'O'
aS'O'
aS'O'
aS'O'
aS'O'
aS'O'
aS'S-LOC'
p175
aS'O'
aS'B-LOC'
p176
aS'I-LOC'
p177
aS'E-LOC'
p178
assb.