ccopy_reg
_reconstructor
p1
(c__main__
KBproperty
p2
c__builtin__
object
p3
NtRp4
(dp5
S'comment'
p6
S'682656'
p7
sS'domain'
p8
S'Site Of Special Scientific Interest '
p9
sS'instances_count'
p10
I46
sS'phrases'
p11
NsS'syn_hypo'
p12
S''
sS'label'
p13
S'area of search'
p14
sS'range'
p15
S'Populated Place '
p16
sS'uniq_subjs'
p17
S'46'
p18
sS'uniq_objs'
p19
I0
sS'prop_uri'
p20
S'http://dbpedia.org/ontology/areaOfSearch'
p21
sS'annotations'
p22
(dp23
S'bag_of_words'
p24
(lp25
S'Site'
p26
aS'Of'
p27
aS'Special'
p28
aS'Scientific'
p29
aS'Interest'
p30
aS'area'
p31
aS'of'
p32
aS'search'
p33
aS'Populated'
p34
aS'Place'
p35
aS'682656'
p36
asS'chunk_seq'
p37
(lp38
S'S-NP'
p39
aS'S-PP'
p40
aS'B-NP'
p41
aS'I-NP'
p42
aS'I-NP'
p43
aS'E-NP'
p44
aS'S-PP'
p45
aS'B-NP'
p46
aS'I-NP'
p47
aS'I-NP'
p48
aS'E-NP'
p49
asS'dep_seq'
p50
(lp51
(lp52
S'root'
p53
aS'0'
aS'1'
aa(lp54
S'nn'
p55
aS'6'
aS'3'
aa(lp56
S'nn'
p57
aS'6'
aS'4'
aa(lp58
S'nn'
p59
aS'6'
aS'5'
aa(lp60
S'prep_of'
p61
aS'1'
aS'6'
aa(lp62
S'nn'
p63
aS'11'
p64
aS'8'
aa(lp65
S'amod'
p66
aS'11'
p67
aS'9'
aa(lp68
S'nn'
p69
aS'11'
p70
aS'10'
p71
aa(lp72
S'prep_of'
p73
aS'6'
aS'11'
p74
aasS'srls'
p75
(lp76
sS'pos_seq'
p77
(lp78
S'NN'
p79
aS'IN'
p80
aS'NNP'
p81
aS'NNP'
p82
aS'NNP'
p83
aS'NN'
p84
aS'IN'
p85
aS'NN'
p86
aS'JJ'
p87
aS'NN'
p88
aS'NN'
p89
asS'ner_seq'
p90
(lp91
S'O'
aS'O'
aS'O'
aS'O'
aS'O'
aS'O'
aS'O'
aS'O'
aS'O'
aS'O'
aS'O'
assb.