ccopy_reg
_reconstructor
p1
(c__main__
KBproperty
p2
c__builtin__
object
p3
NtRp4
(dp5
S'comment'
p6
S'most recent average ACT scores88'
p7
sS'domain'
p8
S'School '
p9
sS'instances_count'
p10
I6
sS'phrases'
p11
NsS'syn_hypo'
p12
S''
sS'label'
p13
S'ACT score'
p14
sS'range'
p15
S''
sS'uniq_subjs'
p16
S'6'
sS'uniq_objs'
p17
I0
sS'prop_uri'
p18
S'http://dbpedia.org/ontology/actScore'
p19
sS'annotations'
p20
(dp21
S'bag_of_words'
p22
(lp23
S'School'
p24
aS'ACT'
p25
aS'score'
p26
aS'most'
p27
aS'recent'
p28
aS'average'
p29
aS'ACT'
p30
aS'scores88'
p31
asS'chunk_seq'
p32
(lp33
S'B-NP'
p34
aS'E-NP'
p35
aS'S-VP'
p36
aS'B-NP'
p37
aS'I-NP'
p38
aS'I-NP'
p39
aS'I-NP'
p40
aS'E-NP'
p41
asS'dep_seq'
p42
(lp43
(lp44
S'nn'
p45
aS'2'
aS'1'
aa(lp46
S'nsubj'
p47
aS'3'
aS'2'
aa(lp48
S'root'
p49
aS'0'
aS'3'
aa(lp50
S'advmod'
p51
aS'8'
aS'4'
aa(lp52
S'amod'
p53
aS'8'
aS'5'
aa(lp54
S'amod'
p55
aS'8'
aS'6'
aa(lp56
S'nn'
p57
aS'8'
aS'7'
aa(lp58
S'dobj'
p59
aS'3'
aS'8'
aasS'srls'
p60
(lp61
(dp62
S'A1'
p63
S'most recent average ACT scores88'
p64
sS'A0'
p65
S'School ACT'
p66
sS'V'
g26
sasS'pos_seq'
p67
(lp68
S'NNP'
p69
aS'NNP'
p70
aS'VBP'
p71
aS'RBS'
p72
aS'JJ'
p73
aS'JJ'
p74
aS'NN'
p75
aS'NN'
p76
asS'ner_seq'
p77
(lp78
S'O'
aS'O'
aS'O'
aS'O'
aS'O'
aS'O'
aS'O'
aS'O'
assb.