ccopy_reg
_reconstructor
p1
(c__main__
KBproperty
p2
c__builtin__
object
p3
NtRp4
(dp5
S'comment'
p6
S'A rank in the classification of organisms below family and above species; a taxon at that rank219377215619'
p7
sS'domain'
p8
S'Species '
p9
sS'instances_count'
p10
I219377
sS'phrases'
p11
NsS'syn_hypo'
p12
V
sS'label'
p13
S'genus'
p14
sS'range'
p15
S''
sS'uniq_subjs'
p16
S'31521'
p17
sS'uniq_objs'
p18
I0
sS'prop_uri'
p19
S'http://dbpedia.org/ontology/genus'
p20
sS'annotations'
p21
(dp22
S'bag_of_words'
p23
(lp24
S'Species'
p25
aS'genus'
p26
aS'A'
aS'rank'
p27
aS'in'
p28
aS'the'
p29
aS'classification'
p30
aS'of'
p31
aS'organisms'
p32
aS'below'
p33
aS'family'
p34
aS'and'
p35
aS'above'
p36
aS'species'
p37
aS';'
aS'a'
aS'taxon'
p38
aS'at'
p39
aS'that'
p40
aS'rank219377215619'
p41
asS'chunk_seq'
p42
(lp43
S'S-NP'
p44
aS'S-VP'
p45
aS'B-NP'
p46
aS'E-NP'
p47
aS'S-PP'
p48
aS'B-NP'
p49
aS'E-NP'
p50
aS'S-PP'
p51
aS'S-NP'
p52
aS'S-PP'
p53
aS'S-NP'
p54
aS'O'
aS'S-PP'
p55
aS'S-NP'
p56
aS'O'
aS'B-NP'
p57
aS'E-NP'
p58
aS'S-PP'
p59
aS'B-NP'
p60
aS'E-NP'
p61
asS'dep_seq'
p62
(lp63
(lp64
S'nsubj'
p65
aS'2'
aS'1'
aa(lp66
S'root'
p67
aS'0'
aS'2'
aa(lp68
S'det'
p69
aS'4'
aS'3'
aa(lp70
S'dobj'
p71
aS'2'
aS'4'
aa(lp72
S'conj_and'
p73
aS'4'
aS"4'"
p74
aa(lp75
S'det'
p76
aS'7'
aS'6'
aa(lp77
S'prep_above'
p78
aS"4'"
p79
aS'7'
aa(lp80
S'prep_in'
p81
aS'4'
aS'7'
aa(lp82
S'prep_of'
p83
aS'7'
aS'9'
aa(lp84
S'prep_below'
p85
aS'7'
aS'11'
p86
aa(lp87
S'pobj'
p88
aS'4'
aS'14'
p89
aa(lp90
S'det'
p91
aS'17'
p92
aS'16'
p93
aa(lp94
S'dep'
p95
aS'14'
p96
aS'17'
p97
aa(lp98
S'det'
p99
aS'20'
p100
aS'19'
p101
aa(lp102
S'prep_at'
p103
aS'17'
p104
aS'20'
p105
aasS'srls'
p106
(lp107
(dp108
S'A1'
p109
S'A rank in the classification of organisms below family and above species'
p110
sS'A0'
p111
g25
sS'V'
g26
sasS'pos_seq'
p112
(lp113
S'NNS'
p114
aS'VBP'
p115
aS'DT'
p116
aS'NN'
p117
aS'IN'
p118
aS'DT'
p119
aS'NN'
p120
aS'IN'
p121
aS'NNS'
p122
aS'IN'
p123
aS'NN'
p124
aS'CC'
p125
aS'IN'
p126
aS'NNS'
p127
aS':'
aS'DT'
p128
aS'NN'
p129
aS'IN'
p130
aS'DT'
p131
aS'NN'
p132
asS'ner_seq'
p133
(lp134
S'O'
aS'O'
aS'O'
aS'O'
aS'O'
aS'O'
aS'O'
aS'O'
aS'O'
aS'O'
aS'O'
aS'O'
aS'O'
aS'O'
aS'O'
aS'O'
aS'O'
aS'O'
aS'O'
aS'O'
assb.