ccopy_reg
_reconstructor
p1
(c__main__
KBproperty
p2
c__builtin__
object
p3
NtRp4
(dp5
S'comment'
p6
S'2294115968'
p7
sS'domain'
p8
S'Person '
p9
sS'instances_count'
p10
I7320
sS'phrases'
p11
(lp12
S' where;burried'
p13
aS' where;grave\n'
p14
asS'syn_hypo'
p15
S''
sS'label'
p16
S'resting place'
p17
sS'range'
p18
S'Place '
p19
sS'uniq_subjs'
p20
S'7320'
p21
sS'uniq_objs'
p22
I0
sS'prop_uri'
p23
S'http://dbpedia.org/ontology/restingPlace'
p24
sS'annotations'
p25
(dp26
S'bag_of_words'
p27
(lp28
S'Person'
p29
aS'resting'
p30
aS'place'
p31
aS'Place'
p32
aS'2294115968'
p33
asS'chunk_seq'
p34
(lp35
S'S-NP'
p36
aS'S-VP'
p37
aS'B-NP'
p38
aS'I-NP'
p39
aS'E-NP'
p40
asS'dep_seq'
p41
(lp42
(lp43
S'nn'
p44
aS'5'
aS'1'
aa(lp45
S'amod'
p46
aS'5'
aS'2'
aa(lp47
S'nn'
p48
aS'5'
aS'3'
aa(lp49
S'nn'
p50
aS'5'
aS'4'
aa(lp51
S'root'
p52
aS'0'
aS'5'
aasS'srls'
p53
(lp54
(dp55
S'A1'
p56
S'Person  Place 2294115968'
p57
sS'A2'
p58
g31
sS'V'
g30
sasS'pos_seq'
p59
(lp60
S'NN'
p61
aS'VBG'
p62
aS'NN'
p63
aS'NN'
p64
aS'NN'
p65
asS'ner_seq'
p66
(lp67
S'O'
aS'O'
aS'O'
aS'O'
aS'O'
assb.