ccopy_reg
_reconstructor
p1
(c__main__
KBproperty
p2
c__builtin__
object
p3
NtRp4
(dp5
S'comment'
p6
S'maximum boat beam \\xce\\xbc'
p7
sS'domain'
p8
S'Canal '
p9
sS'instances_count'
p10
I38
sS'phrases'
p11
NsS'syn_hypo'
p12
S''
sS'label'
p13
g7
sS'range'
p14
S'double '
p15
sS'uniq_subjs'
p16
S'38'
p17
sS'uniq_objs'
p18
I0
sS'prop_uri'
p19
S'http://dbpedia.org/ontology/maximumBoatBeam'
p20
sS'annotations'
p21
(dp22
S'bag_of_words'
p23
(lp24
S'Canal'
p25
aS'maximum'
p26
aS'Boat'
p27
aS'Beam'
p28
aS'double'
p29
aS'maximum'
p30
aS'boat'
p31
aS'beam'
p32
aS'\\'
aS'xce'
p33
aS'\\'
aS'xbc'
p34
asS'chunk_seq'
p35
(lp36
S'B-NP'
p37
aS'I-NP'
p38
aS'I-NP'
p39
aS'E-NP'
p40
aS'B-NP'
p41
aS'I-NP'
p42
aS'I-NP'
p43
aS'E-NP'
p44
aS'O'
aS'O'
aS'O'
aS'O'
asS'dep_seq'
p45
(lp46
(lp47
S'nn'
p48
aS'4'
aS'1'
aa(lp49
S'nn'
p50
aS'4'
aS'2'
aa(lp51
S'nn'
p52
aS'4'
aS'3'
aa(lp53
S'root'
p54
aS'0'
aS'4'
aa(lp55
S'dobj'
p56
aS'9'
aS'4'
aa(lp57
S'amod'
p58
aS'8'
aS'5'
aa(lp59
S'nn'
p60
aS'8'
aS'6'
aa(lp61
S'nn'
p62
aS'8'
aS'7'
aa(lp63
S'nsubj'
p64
aS'9'
aS'8'
aa(lp65
S'rcmod'
p66
aS'4'
aS'9'
aa(lp67
S'discourse'
p68
aS'9'
aS'10'
p69
aa(lp70
S'dep'
p71
aS'10'
p72
aS'11'
p73
aa(lp74
S'dep'
p75
aS'10'
p76
aS'12'
p77
aasS'srls'
p78
(lp79
sS'pos_seq'
p80
(lp81
S'NNP'
p82
aS'NN'
p83
aS'NNP'
p84
aS'NNP'
p85
aS'JJ'
p86
aS'NN'
p87
aS'NN'
p88
aS'NN'
p89
aS'FW'
p90
aS'FW'
p91
aS'FW'
p92
aS'FW'
p93
asS'ner_seq'
p94
(lp95
S'O'
aS'O'
aS'O'
aS'O'
aS'O'
aS'O'
aS'O'
aS'O'
aS'O'
aS'O'
aS'O'
aS'O'
assb.