ccopy_reg
_reconstructor
p1
(c__main__
KBproperty
p2
c__builtin__
object
p3
NtRp4
(dp5
S'comment'
p6
S'6363'
p7
sS'domain'
p8
S'Constellation '
p9
sS'instances_count'
p10
I44
sS'phrases'
p11
NsS'syn_hypo'
p12
Vneglectdeclinedeclinationdisusedeclinedeclinationtwilightdeclinedeclinationwreck
p13
sS'label'
p14
S'declination'
p15
sS'range'
p16
S'non Negative Integer '
p17
sS'uniq_subjs'
p18
S'44'
p19
sS'uniq_objs'
p20
I0
sS'prop_uri'
p21
S'http://dbpedia.org/ontology/declination'
p22
sS'annotations'
p23
(dp24
S'bag_of_words'
p25
(lp26
S'Constellation'
p27
aS'declination'
p28
aS'non'
p29
aS'Negative'
p30
aS'Integer'
p31
aS'6363'
p32
asS'chunk_seq'
p33
(lp34
S'S-NP'
p35
aS'S-VP'
p36
aS'B-NP'
p37
aS'I-NP'
p38
aS'I-NP'
p39
aS'E-NP'
p40
asS'dep_seq'
p41
(lp42
(lp43
S'nsubj'
p44
aS'2'
aS'1'
aa(lp45
S'root'
p46
aS'0'
aS'2'
aa(lp47
S'amod'
p48
aS'6'
aS'3'
aa(lp49
S'amod'
p50
aS'6'
aS'4'
aa(lp51
S'nn'
p52
aS'6'
aS'5'
aa(lp53
S'dobj'
p54
aS'2'
aS'6'
aasS'srls'
p55
(lp56
(dp57
S'A1'
p58
S'non Negative Integer 6363'
p59
sS'A0'
p60
g27
sS'V'
g28
sasS'pos_seq'
p61
(lp62
S'NN'
p63
aS'VBP'
p64
aS'JJ'
p65
aS'JJ'
p66
aS'NN'
p67
aS'NN'
p68
asS'ner_seq'
p69
(lp70
S'O'
aS'O'
aS'O'
aS'O'
aS'O'
aS'O'
assb.