ccopy_reg
_reconstructor
p1
(c__main__
KBproperty
p2
c__builtin__
object
p3
NtRp4
(dp5
S'comment'
p6
S'the previous municipality from which this one has been created or enlarged'
p7
sS'domain'
p8
S'Municipality '
p9
sS'instances_count'
p10
I0
sS'phrases'
p11
NsS'syn_hypo'
p12
S''
sS'label'
p13
g7
sS'range'
p14
S'Former Municipality '
p15
sS'uniq_subjs'
p16
S'0'
sS'uniq_objs'
p17
I0
sS'prop_uri'
p18
S'http://dbpedia.org/ontology/hasAbsorbedMunicipality'
p19
sS'annotations'
p20
(dp21
S'bag_of_words'
p22
(lp23
S'Municipality'
p24
aS'has'
p25
aS'Absorbed'
p26
aS'Municipality'
p27
aS'Former'
p28
aS'Municipality'
p29
aS'the'
p30
aS'previous'
p31
aS'municipality'
p32
aS'from'
p33
aS'which'
p34
aS'this'
p35
aS'one'
p36
aS'has'
p37
aS'been'
p38
aS'created'
p39
aS'or'
p40
aS'enlarged'
p41
asS'chunk_seq'
p42
(lp43
S'S-NP'
p44
aS'B-VP'
p45
aS'E-VP'
p46
aS'B-NP'
p47
aS'I-NP'
p48
aS'E-NP'
p49
aS'B-NP'
p50
aS'I-NP'
p51
aS'E-NP'
p52
aS'S-PP'
p53
aS'S-NP'
p54
aS'B-NP'
p55
aS'E-NP'
p56
aS'B-VP'
p57
aS'I-VP'
p58
aS'I-VP'
p59
aS'I-VP'
p60
aS'E-VP'
p61
asS'dep_seq'
p62
(lp63
(lp64
S'nsubj'
p65
aS'3'
aS'1'
aa(lp66
S'aux'
p67
aS'3'
aS'2'
aa(lp68
S'root'
p69
aS'0'
aS'3'
aa(lp70
S'nn'
p71
aS'6'
aS'4'
aa(lp72
S'nn'
p73
aS'6'
aS'5'
aa(lp74
S'dobj'
p75
aS'3'
aS'6'
aa(lp76
S'iobj'
p77
aS'3'
aS'6'
aa(lp78
S'det'
p79
aS'9'
aS'7'
aa(lp80
S'amod'
p81
aS'9'
aS'8'
aa(lp82
S'dobj'
p83
aS'3'
aS'9'
aa(lp84
S'dep'
p85
aS'6'
aS'9'
aa(lp86
S'prep_from'
p87
aS'16'
p88
aS'9'
aa(lp89
S'rel'
p90
aS'16'
p91
aS'10'
p92
aa(lp93
S'det'
p94
aS'13'
p95
aS'12'
p96
aa(lp97
S'nsubjpass'
p98
aS'16'
p99
aS'13'
p100
aa(lp101
S'aux'
p102
aS'16'
p103
aS'14'
p104
aa(lp105
S'auxpass'
p106
aS'16'
p107
aS'15'
p108
aa(lp109
S'rcmod'
p110
aS'9'
aS'16'
p111
aa(lp112
S'conj_or'
p113
aS'16'
p114
aS'18'
p115
aasS'srls'
p116
(lp117
(dp118
S'A1'
p119
S'Municipality Former Municipality the previous municipality from which this one has been created or enlarged'
p120
sS'A0'
p121
g24
sS'V'
g26
sa(dp122
S'A1'
p123
S'the previous municipality from which this one'
p124
sS'V'
g39
sasS'pos_seq'
p125
(lp126
S'NNP'
p127
aS'VBZ'
p128
aS'VBN'
p129
aS'NNP'
p130
aS'NNP'
p131
aS'NNP'
p132
aS'DT'
p133
aS'JJ'
p134
aS'NN'
p135
aS'IN'
p136
aS'WDT'
p137
aS'DT'
p138
aS'NN'
p139
aS'VBZ'
p140
aS'VBN'
p141
aS'VBN'
p142
aS'CC'
p143
aS'VBN'
p144
asS'ner_seq'
p145
(lp146
S'O'
aS'O'
aS'O'
aS'O'
aS'O'
aS'O'
aS'O'
aS'O'
aS'O'
aS'O'
aS'O'
aS'O'
aS'O'
aS'O'
aS'O'
aS'O'
aS'O'
aS'O'
assb.