ccopy_reg
_reconstructor
p1
(c__main__
KBproperty
p2
c__builtin__
object
p3
NtRp4
(dp5
S'comment'
p6
S'Zodiac Sign. Applies to persons planets etc00'
p7
sS'domain'
p8
S''
sS'instances_count'
p9
I0
sS'phrases'
p10
NsS'syn_hypo'
p11
S''
sS'label'
p12
S'zodiac sign'
p13
sS'range'
p14
S''
sS'uniq_subjs'
p15
S'0'
sS'uniq_objs'
p16
I0
sS'prop_uri'
p17
S'http://dbpedia.org/ontology/zodiacSign'
p18
sS'annotations'
p19
(dp20
S'bag_of_words'
p21
(lp22
S'zodiac'
p23
aS'sign'
p24
aS'Zodiac'
p25
aS'Sign'
p26
aS'.'
aS'Applies'
p27
aS'to'
p28
aS'persons'
p29
aS'planets'
p30
aS'etc00'
p31
asS'chunk_seq'
p32
(lp33
S'B-NP'
p34
aS'E-NP'
p35
aS'B-NP'
p36
aS'E-NP'
p37
aS'O'
aS'S-VP'
p38
aS'S-PP'
p39
aS'B-NP'
p40
aS'E-NP'
p41
aS'S-ADJP'
p42
asS'dep_seq'
p43
(lp44
(lp45
S'nsubj'
p46
aS'2'
aS'1'
aa(lp47
S'root'
p48
aS'0'
aS'2'
aa(lp49
S'nn'
p50
aS'4'
aS'3'
aa(lp51
S'dobj'
p52
aS'2'
aS'4'
aa(lp53
S'parataxis'
p54
aS'2'
aS'6'
aa(lp55
S'nn'
p56
aS'9'
aS'8'
aa(lp57
S'prep_to'
p58
aS'6'
aS'9'
aa(lp59
S'dobj'
p60
aS'6'
aS'10'
p61
aasS'srls'
p62
(lp63
(dp64
S'A2'
p65
S'to persons planets etc00'
p66
sS'V'
g27
sasS'pos_seq'
p67
(lp68
S'NN'
p69
aS'NN'
p70
aS'NNP'
p71
aS'NNP'
p72
aS'.'
aS'VBZ'
p73
aS'TO'
p74
aS'NNS'
p75
aS'NNS'
p76
aS'.'
asS'ner_seq'
p77
(lp78
S'O'
aS'O'
aS'S-MISC'
p79
aS'O'
aS'O'
aS'O'
aS'O'
aS'O'
aS'O'
aS'O'
assb.