ccopy_reg
_reconstructor
p1
(c__main__
KBproperty
p2
c__builtin__
object
p3
NtRp4
(dp5
S'comment'
p6
S'minimum discharge m\\xc2\\xb3/s'
p7
sS'domain'
p8
S''
sS'instances_count'
p9
I450
sS'phrases'
p10
NsS'syn_hypo'
p11
S''
sS'label'
p12
g7
sS'range'
p13
S'double '
p14
sS'uniq_subjs'
p15
S'450'
p16
sS'uniq_objs'
p17
I0
sS'prop_uri'
p18
S'http://dbpedia.org/ontology/minimumDischarge'
p19
sS'annotations'
p20
(dp21
S'bag_of_words'
p22
(lp23
S'minimum'
p24
aS'Discharge'
p25
aS'double'
p26
aS'minimum'
p27
aS'discharge'
p28
aS'm'
aS'\\'
aS'xc2'
p29
aS'\\'
aS'xb3'
p30
aS'/s'
p31
asS'chunk_seq'
p32
(lp33
S'B-NP'
p34
aS'I-NP'
p35
aS'I-NP'
p36
aS'I-NP'
p37
aS'E-NP'
p38
aS'S-NP'
p39
aS'O'
aS'O'
aS'O'
aS'O'
aS'O'
asS'dep_seq'
p40
(lp41
(lp42
S'amod'
p43
aS'5'
aS'1'
aa(lp44
S'nn'
p45
aS'5'
aS'2'
aa(lp46
S'amod'
p47
aS'5'
aS'3'
aa(lp48
S'nn'
p49
aS'5'
aS'4'
aa(lp50
S'root'
p51
aS'0'
aS'5'
aa(lp52
S'nn'
p53
aS'5'
aS'6'
aa(lp54
S'nn'
p55
aS'5'
aS'7'
aa(lp56
S'nn'
p57
aS'5'
aS'8'
aa(lp58
S'nn'
p59
aS'5'
aS'9'
aa(lp60
S'dep'
p61
aS'5'
aS'10'
p62
aa(lp63
S'punct'
p64
aS'5'
aS'11'
p65
aasS'srls'
p66
(lp67
sS'pos_seq'
p68
(lp69
S'JJ'
p70
aS'NN'
p71
aS'JJ'
p72
aS'NN'
p73
aS'NN'
p74
aS'FW'
p75
aS'FW'
p76
aS'FW'
p77
aS'FW'
p78
aS'FW'
p79
aS'.'
asS'ner_seq'
p80
(lp81
S'O'
aS'O'
aS'O'
aS'O'
aS'O'
aS'O'
aS'O'
aS'O'
aS'O'
aS'O'
aS'O'
assb.