ccopy_reg
_reconstructor
p1
(c__main__
KBproperty
p2
c__builtin__
object
p3
NtRp4
(dp5
S'comment'
p6
S'00'
p7
sS'domain'
p8
S'Athlete '
p9
sS'instances_count'
p10
I0
sS'phrases'
p11
NsS'syn_hypo'
p12
S''
sS'label'
p13
S'final lost team'
p14
sS'range'
p15
S'string '
p16
sS'uniq_subjs'
p17
S'0'
sS'uniq_objs'
p18
I0
sS'prop_uri'
p19
S'http://dbpedia.org/ontology/finalLostTeam'
p20
sS'annotations'
p21
(dp22
S'bag_of_words'
p23
(lp24
S'Athlete'
p25
aS'final'
p26
aS'lost'
p27
aS'team'
p28
aS'string'
p29
aS'00'
p30
asS'chunk_seq'
p31
(lp32
S'B-NP'
p33
aS'I-NP'
p34
aS'I-NP'
p35
aS'I-NP'
p36
aS'E-NP'
p37
aS'S-ADVP'
p38
asS'dep_seq'
p39
(lp40
(lp41
S'nn'
p42
aS'5'
aS'1'
aa(lp43
S'amod'
p44
aS'5'
aS'2'
aa(lp45
S'amod'
p46
aS'5'
aS'3'
aa(lp47
S'nn'
p48
aS'5'
aS'4'
aa(lp49
S'root'
p50
aS'0'
aS'5'
aa(lp51
S'advmod'
p52
aS'5'
aS'6'
aasS'srls'
p53
(lp54
(dp55
S'A1'
p56
S'Athlete final'
p57
sS'V'
g27
sasS'pos_seq'
p58
(lp59
S'NN'
p60
aS'JJ'
p61
aS'VBN'
p62
aS'NN'
p63
aS'NN'
p64
aS'CD'
p65
asS'ner_seq'
p66
(lp67
S'O'
aS'O'
aS'O'
aS'O'
aS'O'
aS'O'
assb.