ccopy_reg
_reconstructor
p1
(c__main__
KBproperty
p2
c__builtin__
object
p3
NtRp4
(dp5
S'comment'
p6
S'university a person goes or went to.26122442'
p7
sS'domain'
p8
S'Person '
p9
sS'instances_count'
p10
I1029
sS'phrases'
p11
NsS'syn_hypo'
p12
Vgownuniversityvarsity
p13
sS'label'
p14
S'university'
p15
sS'range'
p16
S'Educational Institution '
p17
sS'uniq_subjs'
p18
S'1029'
p19
sS'uniq_objs'
p20
I0
sS'prop_uri'
p21
S'http://dbpedia.org/ontology/university'
p22
sS'annotations'
p23
(dp24
S'bag_of_words'
p25
(lp26
S'Person'
p27
aS'university'
p28
aS'Educational'
p29
aS'Institution'
p30
aS'university'
p31
aS'a'
aS'person'
p32
aS'goes'
p33
aS'or'
p34
aS'went'
p35
aS'to.26122442'
p36
asS'chunk_seq'
p37
(lp38
S'B-NP'
p39
aS'I-NP'
p40
aS'I-NP'
p41
aS'I-NP'
p42
aS'E-NP'
p43
aS'B-NP'
p44
aS'E-NP'
p45
aS'S-VP'
p46
aS'O'
aS'S-VP'
p47
aS'S-ADJP'
p48
asS'dep_seq'
p49
(lp50
(lp51
S'nn'
p52
aS'5'
aS'1'
aa(lp53
S'nn'
p54
aS'5'
aS'2'
aa(lp55
S'nn'
p56
aS'5'
aS'3'
aa(lp57
S'nn'
p58
aS'5'
aS'4'
aa(lp59
S'nsubj'
p60
aS'8'
aS'5'
aa(lp61
S'det'
p62
aS'7'
aS'6'
aa(lp63
S'nsubj'
p64
aS'8'
aS'7'
aa(lp65
S'root'
p66
aS'0'
aS'8'
aa(lp67
S'conj_or'
p68
aS'8'
aS'10'
p69
aa(lp70
S'dobj'
p71
aS'10'
p72
aS'11'
p73
aasS'srls'
p74
(lp75
(dp76
S'A1'
p77
S'Person university Educational Institution university a person'
p78
sS'V'
g33
sa(dp79
S'A1'
p80
S'Person university Educational Institution university a person'
p81
sS'A2'
p82
g36
sS'V'
g35
sasS'pos_seq'
p83
(lp84
S'NN'
p85
aS'NN'
p86
aS'NNP'
p87
aS'NNP'
p88
aS'NN'
p89
aS'DT'
p90
aS'NN'
p91
aS'VBZ'
p92
aS'CC'
p93
aS'VBD'
p94
aS'.'
asS'ner_seq'
p95
(lp96
S'O'
aS'O'
aS'B-ORG'
p97
aS'E-ORG'
p98
aS'O'
aS'O'
aS'O'
aS'O'
aS'O'
aS'O'
aS'O'
assb.