ccopy_reg
_reconstructor
p1
(c__main__
KBproperty
p2
c__builtin__
object
p3
NtRp4
(dp5
S'comment'
p6
S'36553494'
p7
sS'domain'
p8
S''
sS'instances_count'
p9
I193
sS'phrases'
p10
NsS'syn_hypo'
p11
S''
sS'label'
p12
S'closing year'
p13
sS'range'
p14
S'g Year '
p15
sS'uniq_subjs'
p16
S'193'
p17
sS'uniq_objs'
p18
I0
sS'prop_uri'
p19
S'http://dbpedia.org/ontology/closingYear'
p20
sS'annotations'
p21
(dp22
S'bag_of_words'
p23
(lp24
S'closing'
p25
aS'year'
p26
aS'g'
aS'Year'
p27
aS'36553494'
p28
asS'chunk_seq'
p29
(lp30
S'S-VP'
p31
aS'B-NP'
p32
aS'I-NP'
p33
aS'I-NP'
p34
aS'E-NP'
p35
asS'dep_seq'
p36
(lp37
(lp38
S'amod'
p39
aS'5'
aS'1'
aa(lp40
S'nn'
p41
aS'5'
aS'2'
aa(lp42
S'nn'
p43
aS'5'
aS'3'
aa(lp44
S'nn'
p45
aS'5'
aS'4'
aa(lp46
S'root'
p47
aS'0'
aS'5'
aasS'srls'
p48
(lp49
(dp50
S'V'
g25
sasS'pos_seq'
p51
(lp52
S'VBG'
p53
aS'NN'
p54
aS'NN'
p55
aS'NN'
p56
aS'NN'
p57
asS'ner_seq'
p58
(lp59
S'O'
aS'O'
aS'O'
aS'O'
aS'O'
assb.