ccopy_reg
_reconstructor
p1
(c__main__
KBproperty
p2
c__builtin__
object
p3
NtRp4
(dp5
S'comment'
p6
S'Voice artist used in a TelevisionShow Movie or to sound the voice of a FictionalCharacter107402286'
p7
sS'domain'
p8
S''
sS'instances_count'
p9
I10740
sS'phrases'
p10
NsS'syn_hypo'
p11
Vandroglossia
p12
sS'label'
p13
S'voice'
p14
sS'range'
p15
S'Person '
p16
sS'uniq_subjs'
p17
S'4554'
p18
sS'uniq_objs'
p19
I0
sS'prop_uri'
p20
S'http://dbpedia.org/ontology/voice'
p21
sS'annotations'
p22
(dp23
S'bag_of_words'
p24
(lp25
S'voice'
p26
aS'Person'
p27
aS'Voice'
p28
aS'artist'
p29
aS'used'
p30
aS'in'
p31
aS'a'
aS'TelevisionShow'
p32
aS'Movie'
p33
aS'or'
p34
aS'to'
p35
aS'sound'
p36
aS'the'
p37
aS'voice'
p38
aS'of'
p39
aS'a'
aS'FictionalCharacter107402286'
p40
asS'chunk_seq'
p41
(lp42
S'B-NP'
p43
aS'I-NP'
p44
aS'I-NP'
p45
aS'E-NP'
p46
aS'S-VP'
p47
aS'S-PP'
p48
aS'B-NP'
p49
aS'I-NP'
p50
aS'E-NP'
p51
aS'O'
aS'B-VP'
p52
aS'E-VP'
p53
aS'B-NP'
p54
aS'E-NP'
p55
aS'S-PP'
p56
aS'B-NP'
p57
aS'E-NP'
p58
asS'dep_seq'
p59
(lp60
(lp61
S'nn'
p62
aS'4'
aS'1'
aa(lp63
S'nn'
p64
aS'4'
aS'2'
aa(lp65
S'nn'
p66
aS'4'
aS'3'
aa(lp67
S'nsubj'
p68
aS'5'
aS'4'
aa(lp69
S'root'
p70
aS'0'
aS'5'
aa(lp71
S'det'
p72
aS'9'
aS'7'
aa(lp73
S'nn'
p74
aS'9'
aS'8'
aa(lp75
S'prep_in'
p76
aS'5'
aS'9'
aa(lp77
S'aux'
p78
aS'12'
p79
aS'11'
p80
aa(lp81
S'conj_or'
p82
aS'5'
aS'12'
p83
aa(lp84
S'det'
p85
aS'14'
p86
aS'13'
p87
aa(lp88
S'dobj'
p89
aS'12'
p90
aS'14'
p91
aa(lp92
S'det'
p93
aS'17'
p94
aS'16'
p95
aa(lp96
S'prep_of'
p97
aS'14'
p98
aS'17'
p99
aasS'srls'
p100
(lp101
(dp102
S'A1'
p103
S'voice Person Voice artist'
p104
sS'AM-LOC'
p105
S'in a TelevisionShow Movie'
p106
sS'V'
g30
sa(dp107
S'A0'
p108
S'voice Person Voice artist'
p109
sS'A2'
p110
S'the voice of a FictionalCharacter107402286'
p111
sS'V'
g36
sasS'pos_seq'
p112
(lp113
S'NN'
p114
aS'NNP'
p115
aS'NNP'
p116
aS'NN'
p117
aS'VBN'
p118
aS'IN'
p119
aS'DT'
p120
aS'NNP'
p121
aS'NNP'
p122
aS'CC'
p123
aS'TO'
p124
aS'VB'
p125
aS'DT'
p126
aS'NN'
p127
aS'IN'
p128
aS'DT'
p129
aS'NNP'
p130
asS'ner_seq'
p131
(lp132
S'O'
aS'O'
aS'O'
aS'O'
aS'O'
aS'O'
aS'O'
aS'B-MISC'
p133
aS'E-MISC'
p134
aS'O'
aS'O'
aS'O'
aS'O'
aS'O'
aS'O'
aS'O'
aS'S-MISC'
p135
assb.