ccopy_reg
_reconstructor
p1
(c__main__
KBproperty
p2
c__builtin__
object
p3
NtRp4
(dp5
S'comment'
p6
S'33'
p7
sS'domain'
p8
S'Software '
p9
sS'instances_count'
p10
I3
sS'phrases'
p11
NsS'syn_hypo'
p12
S''
sS'label'
p13
S'Computing Media'
p14
sS'range'
p15
S''
sS'uniq_subjs'
p16
S'3'
sS'uniq_objs'
p17
I0
sS'prop_uri'
p18
S'http://dbpedia.org/ontology/computingMedia'
p19
sS'annotations'
p20
(dp21
S'bag_of_words'
p22
(lp23
S'Software'
p24
aS'Computing'
p25
aS'Media'
p26
aS'33'
p27
asS'chunk_seq'
p28
(lp29
S'B-NP'
p30
aS'I-NP'
p31
aS'E-NP'
p32
aS'S-ADJP'
p33
asS'dep_seq'
p34
(lp35
(lp36
S'nn'
p37
aS'3'
aS'1'
aa(lp38
S'nn'
p39
aS'3'
aS'2'
aa(lp40
S'root'
p41
aS'0'
aS'3'
aa(lp42
S'punct'
p43
aS'3'
aS'4'
aasS'srls'
p44
(lp45
sS'pos_seq'
p46
(lp47
S'NNP'
p48
aS'NNP'
p49
aS'NNP'
p50
aS'.'
asS'ner_seq'
p51
(lp52
S'B-ORG'
p53
aS'I-ORG'
p54
aS'E-ORG'
p55
aS'O'
assb.