ccopy_reg
_reconstructor
p1
(c__main__
KBproperty
p2
c__builtin__
object
p3
NtRp4
(dp5
S'comment'
p6
S'00'
p7
sS'domain'
p8
S''
sS'instances_count'
p9
I0
sS'phrases'
p10
NsS'syn_hypo'
p11
S''
sS'label'
p12
S'number of sports events'
p13
sS'range'
p14
S'non Negative Integer '
p15
sS'uniq_subjs'
p16
S'0'
sS'uniq_objs'
p17
I0
sS'prop_uri'
p18
S'http://dbpedia.org/ontology/numberOfSportsEvents'
p19
sS'annotations'
p20
(dp21
S'bag_of_words'
p22
(lp23
S'number'
p24
aS'of'
p25
aS'sports'
p26
aS'events'
p27
aS'non'
p28
aS'Negative'
p29
aS'Integer'
p30
aS'00'
p31
asS'chunk_seq'
p32
(lp33
S'S-NP'
p34
aS'S-PP'
p35
aS'B-NP'
p36
aS'E-NP'
p37
aS'S-VP'
p38
aS'B-NP'
p39
aS'E-NP'
p40
aS'O'
asS'dep_seq'
p41
(lp42
(lp43
S'root'
p44
aS'0'
aS'1'
aa(lp45
S'nn'
p46
aS'4'
aS'3'
aa(lp47
S'prep_of'
p48
aS'1'
aS'4'
aa(lp49
S'dep'
p50
aS'7'
aS'5'
aa(lp51
S'amod'
p52
aS'7'
aS'6'
aa(lp53
S'dep'
p54
aS'1'
aS'7'
aa(lp55
S'num'
p56
aS'7'
aS'8'
aasS'srls'
p57
(lp58
sS'pos_seq'
p59
(lp60
S'NN'
p61
aS'IN'
p62
aS'NNS'
p63
aS'NNS'
p64
aS'VBP'
p65
aS'JJ'
p66
aS'NN'
p67
aS'CD'
p68
asS'ner_seq'
p69
(lp70
S'O'
aS'O'
aS'O'
aS'O'
aS'O'
aS'O'
aS'O'
aS'O'
assb.