ccopy_reg
_reconstructor
p1
(c__main__
KBproperty
p2
c__builtin__
object
p3
NtRp4
(dp5
S'comment'
p6
S'start year'
p7
sS'domain'
p8
S''
sS'instances_count'
p9
I0
sS'phrases'
p10
NsS'syn_hypo'
p11
S''
sS'label'
p12
g7
sS'range'
p13
S'g Year '
p14
sS'uniq_subjs'
p15
S'0'
sS'uniq_objs'
p16
I0
sS'prop_uri'
p17
S'http://dbpedia.org/ontology/endYear'
p18
sS'annotations'
p19
(dp20
S'bag_of_words'
p21
(lp22
S'end'
p23
aS'Year'
p24
aS'g'
aS'Year'
p25
aS'start'
p26
aS'year'
p27
asS'chunk_seq'
p28
(lp29
S'B-NP'
p30
aS'I-NP'
p31
aS'I-NP'
p32
aS'I-NP'
p33
aS'I-NP'
p34
aS'E-NP'
p35
asS'dep_seq'
p36
(lp37
(lp38
S'nn'
p39
aS'6'
aS'1'
aa(lp40
S'nn'
p41
aS'6'
aS'2'
aa(lp42
S'nn'
p43
aS'6'
aS'3'
aa(lp44
S'nn'
p45
aS'6'
aS'4'
aa(lp46
S'nn'
p47
aS'6'
aS'5'
aa(lp48
S'root'
p49
aS'0'
aS'6'
aasS'srls'
p50
(lp51
sS'pos_seq'
p52
(lp53
S'NN'
p54
aS'NN'
p55
aS'NN'
p56
aS'NN'
p57
aS'NN'
p58
aS'NN'
p59
asS'ner_seq'
p60
(lp61
S'O'
aS'O'
aS'O'
aS'O'
aS'O'
aS'O'
assb.