ccopy_reg
_reconstructor
p1
(c__main__
KBproperty
p2
c__builtin__
object
p3
NtRp4
(dp5
S'comment'
p6
S'vastest lake'
p7
sS'domain'
p8
S'Place '
p9
sS'instances_count'
p10
I2371
sS'phrases'
p11
NsS'syn_hypo'
p12
S''
sS'label'
p13
g7
sS'range'
p14
S'Body Of Water '
p15
sS'uniq_subjs'
p16
S'2371'
p17
sS'uniq_objs'
p18
I0
sS'prop_uri'
p19
S'http://dbpedia.org/ontology/lake'
p20
sS'annotations'
p21
(dp22
S'bag_of_words'
p23
(lp24
S'Place'
p25
aS'lake'
p26
aS'Body'
p27
aS'Of'
p28
aS'Water'
p29
aS'vastest'
p30
aS'lake'
p31
asS'chunk_seq'
p32
(lp33
S'B-NP'
p34
aS'I-NP'
p35
aS'E-NP'
p36
aS'S-PP'
p37
aS'B-NP'
p38
aS'I-NP'
p39
aS'E-NP'
p40
asS'dep_seq'
p41
(lp42
(lp43
S'nn'
p44
aS'3'
aS'1'
aa(lp45
S'nn'
p46
aS'3'
aS'2'
aa(lp47
S'root'
p48
aS'0'
aS'3'
aa(lp49
S'prep_of'
p50
aS'3'
aS'5'
aa(lp51
S'amod'
p52
aS'7'
aS'6'
aa(lp53
S'dep'
p54
aS'3'
aS'7'
aasS'srls'
p55
(lp56
sS'pos_seq'
p57
(lp58
S'NN'
p59
aS'NN'
p60
aS'NN'
p61
aS'IN'
p62
aS'NNP'
p63
aS'JJ'
p64
aS'NN'
p65
asS'ner_seq'
p66
(lp67
S'O'
aS'O'
aS'B-ORG'
p68
aS'I-ORG'
p69
aS'E-ORG'
p70
aS'O'
aS'O'
assb.