ccopy_reg
_reconstructor
p1
(c__main__
KBproperty
p2
c__builtin__
object
p3
NtRp4
(dp5
S'comment'
p6
S'199197'
p7
sS'domain'
p8
S'Route Of Transportation '
p9
sS'instances_count'
p10
I11
sS'phrases'
p11
NsS'syn_hypo'
p12
S''
sS'label'
p13
S'number of lanes'
p14
sS'range'
p15
S'non Negative Integer '
p16
sS'uniq_subjs'
p17
S'11'
p18
sS'uniq_objs'
p19
I0
sS'prop_uri'
p20
S'http://dbpedia.org/ontology/numberOfLanes'
p21
sS'annotations'
p22
(dp23
S'bag_of_words'
p24
(lp25
S'Route'
p26
aS'Of'
p27
aS'Transportation'
p28
aS'number'
p29
aS'of'
p30
aS'lanes'
p31
aS'non'
p32
aS'Negative'
p33
aS'Integer'
p34
aS'199197'
p35
asS'chunk_seq'
p36
(lp37
S'S-NP'
p38
aS'S-PP'
p39
aS'B-NP'
p40
aS'E-NP'
p41
aS'S-PP'
p42
aS'B-NP'
p43
aS'I-NP'
p44
aS'I-NP'
p45
aS'I-NP'
p46
aS'E-NP'
p47
asS'dep_seq'
p48
(lp49
(lp50
S'root'
p51
aS'0'
aS'1'
aa(lp52
S'prep_of'
p53
aS'1'
aS'3'
aa(lp54
S'dep'
p55
aS'1'
aS'4'
aa(lp56
S'prep_of'
p57
aS'4'
aS'6'
aa(lp58
S'amod'
p59
aS'10'
p60
aS'7'
aa(lp61
S'amod'
p62
aS'10'
p63
aS'8'
aa(lp64
S'nn'
p65
aS'10'
p66
aS'9'
aa(lp67
S'dep'
p68
aS'1'
aS'10'
p69
aasS'srls'
p70
(lp71
sS'pos_seq'
p72
(lp73
S'NNP'
p74
aS'IN'
p75
aS'NNP'
p76
aS'NN'
p77
aS'IN'
p78
aS'NNS'
p79
aS'JJ'
p80
aS'JJ'
p81
aS'NN'
p82
aS'NN'
p83
asS'ner_seq'
p84
(lp85
S'B-ORG'
p86
aS'I-ORG'
p87
aS'E-ORG'
p88
aS'O'
aS'O'
aS'O'
aS'O'
aS'O'
aS'O'
aS'O'
assb.