ccopy_reg
_reconstructor
p1
(c__main__
KBproperty
p2
c__builtin__
object
p3
NtRp4
(dp5
S'comment'
p6
S'Official song anthem of a PopulatedPlace SportsTeam School or other783669'
p7
sS'domain'
p8
S''
sS'instances_count'
p9
I783
sS'phrases'
p10
NsS'syn_hypo'
p11
Vnational_anthem
p12
sS'label'
p13
S'anthem'
p14
sS'range'
p15
S'Work '
p16
sS'uniq_subjs'
p17
S'430'
p18
sS'uniq_objs'
p19
I0
sS'prop_uri'
p20
S'http://dbpedia.org/ontology/anthem'
p21
sS'annotations'
p22
(dp23
S'bag_of_words'
p24
(lp25
S'anthem'
p26
aS'Work'
p27
aS'Official'
p28
aS'song'
p29
aS'anthem'
p30
aS'of'
p31
aS'a'
aS'PopulatedPlace'
p32
aS'SportsTeam'
p33
aS'School'
p34
aS'or'
p35
aS'other783669'
p36
asS'chunk_seq'
p37
(lp38
S'B-NP'
p39
aS'I-NP'
p40
aS'I-NP'
p41
aS'I-NP'
p42
aS'E-NP'
p43
aS'S-PP'
p44
aS'B-NP'
p45
aS'I-NP'
p46
aS'I-NP'
p47
aS'I-NP'
p48
aS'I-NP'
p49
aS'E-NP'
p50
asS'dep_seq'
p51
(lp52
(lp53
S'nn'
p54
aS'5'
aS'1'
aa(lp55
S'nn'
p56
aS'5'
aS'2'
aa(lp57
S'nn'
p58
aS'5'
aS'3'
aa(lp59
S'nn'
p60
aS'5'
aS'4'
aa(lp61
S'root'
p62
aS'0'
aS'5'
aa(lp63
S'det'
p64
aS'10'
p65
aS'7'
aa(lp66
S'nn'
p67
aS'10'
p68
aS'8'
aa(lp69
S'nn'
p70
aS'10'
p71
aS'9'
aa(lp72
S'prep_of'
p73
aS'5'
aS'10'
p74
aa(lp75
S'conj_or'
p76
aS'10'
p77
aS'12'
p78
aasS'srls'
p79
(lp80
sS'pos_seq'
p81
(lp82
S'NN'
p83
aS'NNP'
p84
aS'NNP'
p85
aS'NN'
p86
aS'NN'
p87
aS'IN'
p88
aS'DT'
p89
aS'NNP'
p90
aS'NNP'
p91
aS'NNP'
p92
aS'CC'
p93
aS'NN'
p94
asS'ner_seq'
p95
(lp96
S'O'
aS'O'
aS'S-MISC'
p97
aS'O'
aS'O'
aS'O'
aS'O'
aS'B-MISC'
p98
aS'I-MISC'
p99
aS'E-MISC'
p100
aS'O'
aS'O'
assb.