ccopy_reg
_reconstructor
p1
(c__main__
KBproperty
p2
c__builtin__
object
p3
NtRp4
(dp5
S'comment'
p6
S'minimum elevation \\xce\\xbc'
p7
sS'domain'
p8
S'Place '
p9
sS'instances_count'
p10
I1614
sS'phrases'
p11
NsS'syn_hypo'
p12
S''
sS'label'
p13
g7
sS'range'
p14
S'double '
p15
sS'uniq_subjs'
p16
S'1614'
p17
sS'uniq_objs'
p18
I0
sS'prop_uri'
p19
S'http://dbpedia.org/ontology/minimumElevation'
p20
sS'annotations'
p21
(dp22
S'bag_of_words'
p23
(lp24
S'Place'
p25
aS'minimum'
p26
aS'Elevation'
p27
aS'double'
p28
aS'minimum'
p29
aS'elevation'
p30
aS'\\'
aS'xce'
p31
aS'\\'
aS'xbc'
p32
asS'chunk_seq'
p33
(lp34
S'B-NP'
p35
aS'I-NP'
p36
aS'I-NP'
p37
aS'I-NP'
p38
aS'I-NP'
p39
aS'E-NP'
p40
aS'O'
aS'O'
aS'O'
aS'O'
asS'dep_seq'
p41
(lp42
(lp43
S'root'
p44
aS'0'
aS'1'
aa(lp45
S'dep'
p46
aS'1'
aS'2'
aa(lp47
S'dep'
p48
aS'1'
aS'3'
aa(lp49
S'dep'
p50
aS'1'
aS'4'
aa(lp51
S'dep'
p52
aS'1'
aS'5'
aa(lp53
S'dep'
p54
aS'1'
aS'6'
aa(lp55
S'dep'
p56
aS'1'
aS'7'
aa(lp57
S'dep'
p58
aS'1'
aS'8'
aa(lp59
S'dep'
p60
aS'1'
aS'9'
aa(lp61
S'dep'
p62
aS'1'
aS'10'
p63
aasS'srls'
p64
(lp65
sS'pos_seq'
p66
(lp67
S'NN'
p68
aS'NN'
p69
aS'NN'
p70
aS'JJ'
p71
aS'NN'
p72
aS'NN'
p73
aS'FW'
p74
aS'FW'
p75
aS'FW'
p76
aS'FW'
p77
asS'ner_seq'
p78
(lp79
S'O'
aS'O'
aS'O'
aS'O'
aS'O'
aS'O'
aS'O'
aS'O'
aS'O'
aS'O'
assb.