ccopy_reg
_reconstructor
p1
(c__main__
KBproperty
p2
c__builtin__
object
p3
NtRp4
(dp5
S'comment'
p6
S'the size of the military unit74496444'
p7
sS'domain'
p8
S''
sS'instances_count'
p9
I3350
sS'phrases'
p10
NsS'syn_hypo'
p11
S''
sS'label'
p12
S'military unit size'
p13
sS'range'
p14
S'string '
p15
sS'uniq_subjs'
p16
S'3350'
p17
sS'uniq_objs'
p18
I0
sS'prop_uri'
p19
S'http://dbpedia.org/ontology/militaryUnitSize'
p20
sS'annotations'
p21
(dp22
S'bag_of_words'
p23
(lp24
S'military'
p25
aS'unit'
p26
aS'size'
p27
aS'string'
p28
aS'the'
p29
aS'size'
p30
aS'of'
p31
aS'the'
p32
aS'military'
p33
aS'unit74496444'
p34
asS'chunk_seq'
p35
(lp36
S'B-NP'
p37
aS'I-NP'
p38
aS'I-NP'
p39
aS'E-NP'
p40
aS'B-NP'
p41
aS'E-NP'
p42
aS'S-PP'
p43
aS'B-NP'
p44
aS'I-NP'
p45
aS'E-NP'
p46
asS'dep_seq'
p47
(lp48
(lp49
S'amod'
p50
aS'4'
aS'1'
aa(lp51
S'nn'
p52
aS'4'
aS'2'
aa(lp53
S'nn'
p54
aS'4'
aS'3'
aa(lp55
S'dep'
p56
aS'6'
aS'4'
aa(lp57
S'det'
p58
aS'6'
aS'5'
aa(lp59
S'root'
p60
aS'0'
aS'6'
aa(lp61
S'det'
p62
aS'10'
p63
aS'8'
aa(lp64
S'amod'
p65
aS'10'
p66
aS'9'
aa(lp67
S'prep_of'
p68
aS'6'
aS'10'
p69
aasS'srls'
p70
(lp71
sS'pos_seq'
p72
(lp73
S'JJ'
p74
aS'NN'
p75
aS'NN'
p76
aS'NN'
p77
aS'DT'
p78
aS'NN'
p79
aS'IN'
p80
aS'DT'
p81
aS'JJ'
p82
aS'NN'
p83
asS'ner_seq'
p84
(lp85
S'O'
aS'O'
aS'O'
aS'O'
aS'O'
aS'O'
aS'O'
aS'O'
aS'O'
aS'O'
assb.