ccopy_reg
_reconstructor
p1
(c__main__
KBproperty
p2
c__builtin__
object
p3
NtRp4
(dp5
S'comment'
p6
S'iso code of a community'
p7
sS'domain'
p8
S'Populated Place '
p9
sS'instances_count'
p10
I0
sS'phrases'
p11
NsS'syn_hypo'
p12
S''
sS'label'
p13
g7
sS'range'
p14
S'string '
p15
sS'uniq_subjs'
p16
S'0'
sS'uniq_objs'
p17
I0
sS'prop_uri'
p18
S'http://dbpedia.org/ontology/communityIsoCode'
p19
sS'annotations'
p20
(dp21
S'bag_of_words'
p22
(lp23
S'Populated'
p24
aS'Place'
p25
aS'community'
p26
aS'Iso'
p27
aS'Code'
p28
aS'string'
p29
aS'iso'
p30
aS'code'
p31
aS'of'
p32
aS'a'
aS'community'
p33
asS'chunk_seq'
p34
(lp35
S'B-NP'
p36
aS'I-NP'
p37
aS'I-NP'
p38
aS'I-NP'
p39
aS'I-NP'
p40
aS'I-NP'
p41
aS'I-NP'
p42
aS'E-NP'
p43
aS'S-PP'
p44
aS'B-NP'
p45
aS'E-NP'
p46
asS'dep_seq'
p47
(lp48
(lp49
S'amod'
p50
aS'8'
aS'1'
aa(lp51
S'nn'
p52
aS'8'
aS'2'
aa(lp53
S'nn'
p54
aS'8'
aS'3'
aa(lp55
S'nn'
p56
aS'8'
aS'4'
aa(lp57
S'nn'
p58
aS'8'
aS'5'
aa(lp59
S'nn'
p60
aS'8'
aS'6'
aa(lp61
S'amod'
p62
aS'8'
aS'7'
aa(lp63
S'root'
p64
aS'0'
aS'8'
aa(lp65
S'det'
p66
aS'11'
p67
aS'10'
p68
aa(lp69
S'prep_of'
p70
aS'8'
aS'11'
p71
aasS'srls'
p72
(lp73
sS'pos_seq'
p74
(lp75
S'JJ'
p76
aS'NN'
p77
aS'NN'
p78
aS'NNP'
p79
aS'NNP'
p80
aS'NN'
p81
aS'JJ'
p82
aS'NN'
p83
aS'IN'
p84
aS'DT'
p85
aS'NN'
p86
asS'ner_seq'
p87
(lp88
S'O'
aS'O'
aS'O'
aS'B-MISC'
p89
aS'E-MISC'
p90
aS'O'
aS'O'
aS'O'
aS'O'
aS'O'
aS'O'
assb.