ccopy_reg
_reconstructor
p1
(c__main__
KBproperty
p2
c__builtin__
object
p3
NtRp4
(dp5
S'comment'
p6
S'143983994'
p7
sS'domain'
p8
S'Mean Of Transportation '
p9
sS'instances_count'
p10
I1646
sS'phrases'
p11
NsS'syn_hypo'
p12
Vsub-assemblyassemblyweldment
p13
sS'label'
p14
S'assembly'
p15
sS'range'
p16
S''
sS'uniq_subjs'
p17
S'1646'
p18
sS'uniq_objs'
p19
I0
sS'prop_uri'
p20
S'http://dbpedia.org/ontology/assembly'
p21
sS'annotations'
p22
(dp23
S'bag_of_words'
p24
(lp25
S'Mean'
p26
aS'Of'
p27
aS'Transportation'
p28
aS'assembly'
p29
aS'143983994'
p30
asS'chunk_seq'
p31
(lp32
S'S-NP'
p33
aS'S-PP'
p34
aS'B-NP'
p35
aS'E-NP'
p36
aS'S-VP'
p37
asS'dep_seq'
p38
(lp39
(lp40
S'root'
p41
aS'0'
aS'1'
aa(lp42
S'prep_of'
p43
aS'1'
aS'3'
aa(lp44
S'nn'
p45
aS'5'
aS'4'
aa(lp46
S'dep'
p47
aS'1'
aS'5'
aasS'srls'
p48
(lp49
sS'pos_seq'
p50
(lp51
S'NNP'
p52
aS'IN'
p53
aS'NNP'
p54
aS'NN'
p55
aS'NN'
p56
asS'ner_seq'
p57
(lp58
S'O'
aS'B-ORG'
p59
aS'E-ORG'
p60
aS'O'
aS'O'
assb.