ccopy_reg
_reconstructor
p1
(c__main__
KBproperty
p2
c__builtin__
object
p3
NtRp4
(dp5
S'comment'
p6
S'715715'
p7
sS'domain'
p8
S''
sS'instances_count'
p9
I32
sS'phrases'
p10
NsS'syn_hypo'
p11
S''
sS'label'
p12
S'number of sports'
p13
sS'range'
p14
S'non Negative Integer '
p15
sS'uniq_subjs'
p16
S'32'
p17
sS'uniq_objs'
p18
I0
sS'prop_uri'
p19
S'http://dbpedia.org/ontology/numberOfSports'
p20
sS'annotations'
p21
(dp22
S'bag_of_words'
p23
(lp24
S'number'
p25
aS'of'
p26
aS'sports'
p27
aS'non'
p28
aS'Negative'
p29
aS'Integer'
p30
aS'715715'
p31
asS'chunk_seq'
p32
(lp33
S'S-NP'
p34
aS'S-PP'
p35
aS'B-NP'
p36
aS'I-NP'
p37
aS'I-NP'
p38
aS'I-NP'
p39
aS'E-NP'
p40
asS'dep_seq'
p41
(lp42
(lp43
S'dep'
p44
aS'7'
aS'1'
aa(lp45
S'prep_of'
p46
aS'1'
aS'3'
aa(lp47
S'amod'
p48
aS'7'
aS'4'
aa(lp49
S'amod'
p50
aS'7'
aS'5'
aa(lp51
S'nn'
p52
aS'7'
aS'6'
aa(lp53
S'root'
p54
aS'0'
aS'7'
aasS'srls'
p55
(lp56
sS'pos_seq'
p57
(lp58
S'NN'
p59
aS'IN'
p60
aS'NNS'
p61
aS'JJ'
p62
aS'JJ'
p63
aS'NN'
p64
aS'NN'
p65
asS'ner_seq'
p66
(lp67
S'O'
aS'O'
aS'O'
aS'O'
aS'O'
aS'O'
aS'O'
assb.