ccopy_reg
_reconstructor
p1
(c__main__
KBproperty
p2
c__builtin__
object
p3
NtRp4
(dp5
S'comment'
p6
S'00'
p7
sS'domain'
p8
S'Person '
p9
sS'instances_count'
p10
I0
sS'phrases'
p11
(lp12
S' where;die'
p13
aS' place of death'
p14
aS' where;died'
p15
aS' where;killed'
p16
aS' where;murder'
p17
aS' where;murdered'
p18
aS'died in\n'
p19
asS'syn_hypo'
p20
S''
sS'label'
p21
S'death place'
p22
sS'range'
p23
S'Sports Event '
p24
sS'uniq_subjs'
p25
S'0'
sS'uniq_objs'
p26
I0
sS'prop_uri'
p27
S'http://dbpedia.org/ontology/competitionTitle'
p28
sS'annotations'
p29
(dp30
S'bag_of_words'
p31
(lp32
S'Person'
p33
aS'death'
p34
aS'place'
p35
aS'Sports'
p36
aS'Event'
p37
aS'00'
p38
asS'chunk_seq'
p39
(lp40
S'B-NP'
p41
aS'I-NP'
p42
aS'I-NP'
p43
aS'I-NP'
p44
aS'E-NP'
p45
aS'S-ADVP'
p46
asS'dep_seq'
p47
(lp48
(lp49
S'nn'
p50
aS'3'
aS'1'
aa(lp51
S'nn'
p52
aS'3'
aS'2'
aa(lp53
S'dep'
p54
aS'5'
aS'3'
aa(lp55
S'nn'
p56
aS'5'
aS'4'
aa(lp57
S'root'
p58
aS'0'
aS'5'
aa(lp59
S'num'
p60
aS'5'
aS'6'
aasS'srls'
p61
(lp62
sS'pos_seq'
p63
(lp64
S'NN'
p65
aS'NN'
p66
aS'NN'
p67
aS'NNP'
p68
aS'NNP'
p69
aS'CD'
p70
asS'ner_seq'
p71
(lp72
S'O'
aS'O'
aS'O'
aS'O'
aS'O'
aS'O'
assb.