ccopy_reg
_reconstructor
p1
(c__main__
KBproperty
p2
c__builtin__
object
p3
NtRp4
(dp5
S'comment'
p6
S'Wikipage page ID'
p7
sS'domain'
p8
S''
sS'instances_count'
p9
I15227118
sS'phrases'
p10
NsS'syn_hypo'
p11
S''
sS'label'
p12
g7
sS'range'
p13
S'integer '
p14
sS'uniq_subjs'
p15
S'15227118'
p16
sS'uniq_objs'
p17
I0
sS'prop_uri'
p18
S'http://dbpedia.org/ontology/wikiPageID'
p19
sS'annotations'
p20
(dp21
S'bag_of_words'
p22
(lp23
S'wiki'
p24
aS'Page'
p25
aS'integer'
p26
aS'Wikipage'
p27
aS'page'
p28
aS'ID'
p29
asS'chunk_seq'
p30
(lp31
S'B-NP'
p32
aS'I-NP'
p33
aS'I-NP'
p34
aS'I-NP'
p35
aS'I-NP'
p36
aS'E-NP'
p37
asS'dep_seq'
p38
(lp39
(lp40
S'nn'
p41
aS'6'
aS'1'
aa(lp42
S'nn'
p43
aS'6'
aS'2'
aa(lp44
S'nn'
p45
aS'6'
aS'3'
aa(lp46
S'nn'
p47
aS'6'
aS'4'
aa(lp48
S'nn'
p49
aS'6'
aS'5'
aa(lp50
S'root'
p51
aS'0'
aS'6'
aasS'srls'
p52
(lp53
sS'pos_seq'
p54
(lp55
S'NN'
p56
aS'NNP'
p57
aS'NN'
p58
aS'NNP'
p59
aS'NN'
p60
aS'NN'
p61
asS'ner_seq'
p62
(lp63
S'O'
aS'O'
aS'O'
aS'O'
aS'O'
aS'O'
assb.