ccopy_reg
_reconstructor
p1
(c__main__
KBproperty
p2
c__builtin__
object
p3
NtRp4
(dp5
S'comment'
p6
S'language regulator or academy'
p7
sS'domain'
p8
S''
sS'instances_count'
p9
I151
sS'phrases'
p10
NsS'syn_hypo'
p11
S''
sS'label'
p12
g7
sS'range'
p13
S'Language '
p14
sS'uniq_subjs'
p15
S'151'
p16
sS'uniq_objs'
p17
I0
sS'prop_uri'
p18
S'http://dbpedia.org/ontology/languageRegulator'
p19
sS'annotations'
p20
(dp21
S'bag_of_words'
p22
(lp23
S'language'
p24
aS'Regulator'
p25
aS'Language'
p26
aS'language'
p27
aS'regulator'
p28
aS'or'
p29
aS'academy'
p30
asS'chunk_seq'
p31
(lp32
S'B-NP'
p33
aS'I-NP'
p34
aS'I-NP'
p35
aS'I-NP'
p36
aS'I-NP'
p37
aS'I-NP'
p38
aS'E-NP'
p39
asS'dep_seq'
p40
(lp41
(lp42
S'nn'
p43
aS'5'
aS'1'
aa(lp44
S'nn'
p45
aS'5'
aS'2'
aa(lp46
S'nn'
p47
aS'5'
aS'3'
aa(lp48
S'nn'
p49
aS'5'
aS'4'
aa(lp50
S'root'
p51
aS'0'
aS'5'
aa(lp52
S'conj_or'
p53
aS'5'
aS'7'
aasS'srls'
p54
(lp55
sS'pos_seq'
p56
(lp57
S'NN'
p58
aS'NNP'
p59
aS'NNP'
p60
aS'NN'
p61
aS'NN'
p62
aS'CC'
p63
aS'NN'
p64
asS'ner_seq'
p65
(lp66
S'O'
aS'B-MISC'
p67
aS'E-MISC'
p68
aS'O'
aS'O'
aS'O'
aS'O'
assb.