ccopy_reg
_reconstructor
p1
(c__main__
KBproperty
p2
c__builtin__
object
p3
NtRp4
(dp5
S'comment'
p6
S'16041224'
p7
sS'domain'
p8
S'School '
p9
sS'instances_count'
p10
I1403
sS'phrases'
p11
NsS'syn_hypo'
p12
Vchampionrivalchallengercompetitorcompetitioncontenderchamprivalchallengercompetitorcompetitioncontendertitle-holderrivalchallengercompetitorcompetitioncontendercomerrivalchallengercompetitorcompetitioncontenderfinalistrivalchallengercompetitorcompetitioncontenderfoerivalchallengercompetitorcompetitioncontenderenemyrivalchallengercompetitorcompetitioncontenderfront-runnerrivalchallengercompetitorcompetitioncontenderfavoriterivalchallengercompetitorcompetitioncontenderfavouriterivalchallengercompetitorcompetitioncontenderkingrivalchallengercompetitorcompetitioncontenderqueenrivalchallengercompetitorcompetitioncontenderworld-beaterrivalchallengercompetitorcompetitioncontenderrunner-uprivalchallengercompetitorcompetitioncontendersecond_bestrivalchallengercompetitorcompetitioncontenderscratchrivalchallengercompetitorcompetitioncontendersemifinalistrivalchallengercompetitorcompetitioncontenderstreet_fighterrivalchallengercompetitorcompetitioncontendertierrivalchallengercompetitorcompetitioncontendertilter
p13
sS'label'
p14
S'rival'
p15
sS'range'
p16
S'School '
p17
sS'uniq_subjs'
p18
S'1403'
p19
sS'uniq_objs'
p20
I0
sS'prop_uri'
p21
S'http://dbpedia.org/ontology/rival'
p22
sS'annotations'
p23
(dp24
S'bag_of_words'
p25
(lp26
S'School'
p27
aS'rival'
p28
aS'School'
p29
aS'16041224'
p30
asS'chunk_seq'
p31
(lp32
S'B-NP'
p33
aS'I-NP'
p34
aS'E-NP'
p35
aS'S-ADJP'
p36
asS'dep_seq'
p37
(lp38
(lp39
S'nn'
p40
aS'3'
aS'1'
aa(lp41
S'amod'
p42
aS'3'
aS'2'
aa(lp43
S'root'
p44
aS'0'
aS'3'
aa(lp45
S'punct'
p46
aS'3'
aS'4'
aasS'srls'
p47
(lp48
sS'pos_seq'
p49
(lp50
S'NNP'
p51
aS'JJ'
p52
aS'NNP'
p53
aS'.'
asS'ner_seq'
p54
(lp55
S'O'
aS'O'
aS'O'
aS'O'
assb.