ccopy_reg
_reconstructor
p1
(c__main__
KBproperty
p2
c__builtin__
object
p3
NtRp4
(dp5
S'comment'
p6
S'Award won by a Person Musical or other Work RaceHorse Building etc8599440950'
p7
sS'domain'
p8
S''
sS'instances_count'
p9
I85994
sS'phrases'
p10
NsS'syn_hypo'
p11
Vaddiction
p12
sS'label'
p13
S'award'
p14
sS'range'
p15
S'Award '
p16
sS'uniq_subjs'
p17
S'11804'
p18
sS'uniq_objs'
p19
I0
sS'prop_uri'
p20
S'http://dbpedia.org/ontology/award'
p21
sS'annotations'
p22
(dp23
S'bag_of_words'
p24
(lp25
S'award'
p26
aS'Award'
p27
aS'Award'
p28
aS'won'
p29
aS'by'
p30
aS'a'
aS'Person'
p31
aS'Musical'
p32
aS'or'
p33
aS'other'
p34
aS'Work'
p35
aS'RaceHorse'
p36
aS'Building'
p37
aS'etc8599440950'
p38
asS'chunk_seq'
p39
(lp40
S'B-NP'
p41
aS'I-NP'
p42
aS'E-NP'
p43
aS'S-VP'
p44
aS'S-PP'
p45
aS'B-NP'
p46
aS'I-NP'
p47
aS'I-NP'
p48
aS'I-NP'
p49
aS'I-NP'
p50
aS'I-NP'
p51
aS'I-NP'
p52
aS'E-NP'
p53
aS'S-ADJP'
p54
asS'dep_seq'
p55
(lp56
(lp57
S'nn'
p58
aS'3'
aS'1'
aa(lp59
S'nn'
p60
aS'3'
aS'2'
aa(lp61
S'root'
p62
aS'0'
aS'3'
aa(lp63
S'partmod'
p64
aS'3'
aS'4'
aa(lp65
S'det'
p66
aS'13'
p67
aS'6'
aa(lp68
S'nn'
p69
aS'13'
p70
aS'7'
aa(lp71
S'amod'
p72
aS'13'
p73
aS'8'
aa(lp74
S'conj_or'
p75
aS'8'
aS'10'
p76
aa(lp77
S'nn'
p78
aS'13'
p79
aS'11'
p80
aa(lp81
S'nn'
p82
aS'13'
p83
aS'12'
p84
aa(lp85
S'agent'
p86
aS'4'
aS'13'
p87
aa(lp88
S'punct'
p89
aS'13'
p90
aS'14'
p91
aasS'srls'
p92
(lp93
(dp94
S'A1'
p95
S'Musical or other Work RaceHorse Building etc8599440950'
p96
sS'A0'
p97
S'award Award Award'
p98
sS'AM-MNR'
p99
S'by a Person'
p100
sS'V'
g29
sasS'pos_seq'
p101
(lp102
S'NN'
p103
aS'NNP'
p104
aS'NNP'
p105
aS'VBD'
p106
aS'IN'
p107
aS'DT'
p108
aS'NN'
p109
aS'JJ'
p110
aS'CC'
p111
aS'JJ'
p112
aS'NNP'
p113
aS'NNP'
p114
aS'NNP'
p115
aS'.'
asS'ner_seq'
p116
(lp117
S'O'
aS'O'
aS'O'
aS'O'
aS'O'
aS'O'
aS'O'
aS'O'
aS'O'
aS'O'
aS'O'
aS'O'
aS'O'
aS'O'
assb.