ccopy_reg
_reconstructor
p1
(c__main__
KBproperty
p2
c__builtin__
object
p3
NtRp4
(dp5
S'comment'
p6
S'68214940'
p7
sS'domain'
p8
S'Person '
p9
sS'instances_count'
p10
I3848
sS'phrases'
p11
NsS'syn_hypo'
p12
Vbossemployerhireremployermasteremployermistressemployerpadroneemployerslave_driveremployerSimon_Legree
p13
sS'label'
p14
S'employer'
p15
sS'range'
p16
S'Organisation '
p17
sS'uniq_subjs'
p18
S'3848'
p19
sS'uniq_objs'
p20
I0
sS'prop_uri'
p21
S'http://dbpedia.org/ontology/employer'
p22
sS'annotations'
p23
(dp24
S'bag_of_words'
p25
(lp26
S'Person'
p27
aS'employer'
p28
aS'Organisation'
p29
aS'68214940'
p30
asS'chunk_seq'
p31
(lp32
S'B-NP'
p33
aS'I-NP'
p34
aS'E-NP'
p35
aS'O'
asS'dep_seq'
p36
(lp37
(lp38
S'nn'
p39
aS'3'
aS'1'
aa(lp40
S'nn'
p41
aS'3'
aS'2'
aa(lp42
S'root'
p43
aS'0'
aS'3'
aa(lp44
S'num'
p45
aS'3'
aS'4'
aasS'srls'
p46
(lp47
sS'pos_seq'
p48
(lp49
S'NN'
p50
aS'NN'
p51
aS'NNP'
p52
aS'CD'
p53
asS'ner_seq'
p54
(lp55
S'O'
aS'O'
aS'S-ORG'
p56
aS'O'
assb.