ccopy_reg
_reconstructor
p1
(c__main__
KBproperty
p2
c__builtin__
object
p3
NtRp4
(dp5
S'comment'
p6
S'sign name of a hungarian settlement'
p7
sS'domain'
p8
S'Hungary Settlement '
p9
sS'instances_count'
p10
I0
sS'phrases'
p11
NsS'syn_hypo'
p12
S''
sS'label'
p13
g7
sS'range'
p14
S'lang String '
p15
sS'uniq_subjs'
p16
S'0'
sS'uniq_objs'
p17
I0
sS'prop_uri'
p18
S'http://dbpedia.org/ontology/signName'
p19
sS'annotations'
p20
(dp21
S'bag_of_words'
p22
(lp23
S'Hungary'
p24
aS'Settlement'
p25
aS'sign'
p26
aS'Name'
p27
aS'lang'
p28
aS'String'
p29
aS'sign'
p30
aS'name'
p31
aS'of'
p32
aS'a'
aS'hungarian'
p33
aS'settlement'
p34
asS'chunk_seq'
p35
(lp36
S'B-NP'
p37
aS'I-NP'
p38
aS'I-NP'
p39
aS'I-NP'
p40
aS'I-NP'
p41
aS'I-NP'
p42
aS'I-NP'
p43
aS'E-NP'
p44
aS'S-PP'
p45
aS'B-NP'
p46
aS'I-NP'
p47
aS'E-NP'
p48
asS'dep_seq'
p49
(lp50
(lp51
S'nn'
p52
aS'8'
aS'1'
aa(lp53
S'nn'
p54
aS'8'
aS'2'
aa(lp55
S'nn'
p56
aS'8'
aS'3'
aa(lp57
S'nn'
p58
aS'8'
aS'4'
aa(lp59
S'amod'
p60
aS'8'
aS'5'
aa(lp61
S'nn'
p62
aS'8'
aS'6'
aa(lp63
S'nn'
p64
aS'8'
aS'7'
aa(lp65
S'root'
p66
aS'0'
aS'8'
aa(lp67
S'det'
p68
aS'12'
p69
aS'10'
p70
aa(lp71
S'amod'
p72
aS'12'
p73
aS'11'
p74
aa(lp75
S'prep_of'
p76
aS'8'
aS'12'
p77
aasS'srls'
p78
(lp79
sS'pos_seq'
p80
(lp81
S'NNP'
p82
aS'NNP'
p83
aS'NN'
p84
aS'NN'
p85
aS'VBG'
p86
aS'NN'
p87
aS'NN'
p88
aS'NN'
p89
aS'IN'
p90
aS'DT'
p91
aS'JJ'
p92
aS'NN'
p93
asS'ner_seq'
p94
(lp95
S'S-LOC'
p96
aS'O'
aS'O'
aS'B-MISC'
p97
aS'I-MISC'
p98
aS'E-MISC'
p99
aS'O'
aS'O'
aS'O'
aS'O'
aS'O'
aS'O'
assb.