ccopy_reg
_reconstructor
p1
(c__main__
KBproperty
p2
c__builtin__
object
p3
NtRp4
(dp5
S'comment'
p6
S'Sound recording somehow related to the subject237998635'
p7
sS'domain'
p8
S''
sS'instances_count'
p9
I23799
sS'phrases'
p10
NsS'syn_hypo'
p11
S''
sS'label'
p12
S'sound recording'
p13
sS'range'
p14
S'Sound '
p15
sS'uniq_subjs'
p16
S'23799'
p17
sS'uniq_objs'
p18
I0
sS'prop_uri'
p19
S'http://dbpedia.org/ontology/soundRecording'
p20
sS'annotations'
p21
(dp22
S'bag_of_words'
p23
(lp24
S'sound'
p25
aS'recording'
p26
aS'Sound'
p27
aS'Sound'
p28
aS'recording'
p29
aS'somehow'
p30
aS'related'
p31
aS'to'
p32
aS'the'
p33
aS'subject237998635'
p34
asS'chunk_seq'
p35
(lp36
S'B-NP'
p37
aS'I-NP'
p38
aS'I-NP'
p39
aS'I-NP'
p40
aS'E-NP'
p41
aS'B-VP'
p42
aS'E-VP'
p43
aS'S-PP'
p44
aS'B-NP'
p45
aS'E-NP'
p46
asS'dep_seq'
p47
(lp48
(lp49
S'amod'
p50
aS'5'
aS'1'
aa(lp51
S'amod'
p52
aS'5'
aS'2'
aa(lp53
S'nn'
p54
aS'5'
aS'3'
aa(lp55
S'nn'
p56
aS'5'
aS'4'
aa(lp57
S'root'
p58
aS'0'
aS'5'
aa(lp59
S'advmod'
p60
aS'7'
aS'6'
aa(lp61
S'amod'
p62
aS'5'
aS'7'
aa(lp63
S'det'
p64
aS'10'
p65
aS'9'
aa(lp66
S'prep_to'
p67
aS'7'
aS'10'
p68
aasS'srls'
p69
(lp70
(dp71
S'A1'
p72
S'Sound Sound recording'
p73
sS'V'
g26
sa(dp74
S'A1'
p75
S'sound recording Sound Sound recording'
p76
sS'A2'
p77
S'to the subject237998635'
p78
sS'AM-MNR'
p79
g30
sS'V'
g31
sasS'pos_seq'
p80
(lp81
S'JJ'
p82
aS'VBG'
p83
aS'NNP'
p84
aS'NNP'
p85
aS'NN'
p86
aS'RB'
p87
aS'VBN'
p88
aS'TO'
p89
aS'DT'
p90
aS'NN'
p91
asS'ner_seq'
p92
(lp93
S'O'
aS'O'
aS'B-ORG'
p94
aS'E-ORG'
p95
aS'O'
aS'O'
aS'O'
aS'O'
aS'O'
aS'O'
assb.