ccopy_reg
_reconstructor
p1
(c__main__
KBproperty
p2
c__builtin__
object
p3
NtRp4
(dp5
S'comment'
p6
S'long distance piste kilometre \\xce\\xbc'
p7
sS'domain'
p8
S'Place '
p9
sS'instances_count'
p10
I0
sS'phrases'
p11
NsS'syn_hypo'
p12
S''
sS'label'
p13
g7
sS'range'
p14
S'double '
p15
sS'uniq_subjs'
p16
S'0'
sS'uniq_objs'
p17
I0
sS'prop_uri'
p18
S'http://dbpedia.org/ontology/longDistancePisteKilometre'
p19
sS'annotations'
p20
(dp21
S'bag_of_words'
p22
(lp23
S'Place'
p24
aS'long'
p25
aS'Distance'
p26
aS'Piste'
p27
aS'Kilometre'
p28
aS'double'
p29
aS'long'
p30
aS'distance'
p31
aS'piste'
p32
aS'kilometre'
p33
aS'\\'
aS'xce'
p34
aS'\\'
aS'xbc'
p35
asS'chunk_seq'
p36
(lp37
S'B-NP'
p38
aS'I-NP'
p39
aS'I-NP'
p40
aS'I-NP'
p41
aS'I-NP'
p42
aS'I-NP'
p43
aS'I-NP'
p44
aS'I-NP'
p45
aS'E-NP'
p46
aS'S-VP'
p47
aS'O'
aS'O'
aS'O'
aS'O'
asS'dep_seq'
p48
(lp49
(lp50
S'dep'
p51
aS'5'
aS'1'
aa(lp52
S'amod'
p53
aS'5'
aS'2'
aa(lp54
S'nn'
p55
aS'5'
aS'3'
aa(lp56
S'nn'
p57
aS'5'
aS'4'
aa(lp58
S'root'
p59
aS'0'
aS'5'
aa(lp60
S'advmod'
p61
aS'5'
aS'6'
aa(lp62
S'dep'
p63
aS'5'
aS'7'
aa(lp64
S'dep'
p65
aS'5'
aS'8'
aa(lp66
S'dep'
p67
aS'5'
aS'9'
aa(lp68
S'discourse'
p69
aS'5'
aS'10'
p70
aa(lp71
S'dep'
p72
aS'10'
p73
aS'11'
p74
aa(lp75
S'dep'
p76
aS'10'
p77
aS'12'
p78
aa(lp79
S'dep'
p80
aS'10'
p81
aS'13'
p82
aa(lp83
S'dep'
p84
aS'10'
p85
aS'14'
p86
aasS'srls'
p87
(lp88
sS'pos_seq'
p89
(lp90
S'NN'
p91
aS'JJ'
p92
aS'NNP'
p93
aS'NNP'
p94
aS'NNP'
p95
aS'RB'
p96
aS'JJ'
p97
aS'NN'
p98
aS'NN'
p99
aS'NN'
p100
aS'FW'
p101
aS'FW'
p102
aS'FW'
p103
aS'FW'
p104
asS'ner_seq'
p105
(lp106
S'O'
aS'O'
aS'O'
aS'O'
aS'O'
aS'O'
aS'O'
aS'O'
aS'O'
aS'O'
aS'O'
aS'O'
aS'O'
aS'O'
assb.