ccopy_reg
_reconstructor
p1
(c__main__
KBproperty
p2
c__builtin__
object
p3
NtRp4
(dp5
S'comment'
p6
S'1447212386'
p7
sS'domain'
p8
S''
sS'instances_count'
p9
I1418
sS'phrases'
p10
NsS'syn_hypo'
p11
V
sS'label'
p12
S'channel'
p13
sS'range'
p14
S'Broadcaster '
p15
sS'uniq_subjs'
p16
S'1418'
p17
sS'uniq_objs'
p18
I0
sS'prop_uri'
p19
S'http://dbpedia.org/ontology/channel'
p20
sS'annotations'
p21
(dp22
S'bag_of_words'
p23
(lp24
S'channel'
p25
aS'Broadcaster'
p26
aS'1447212386'
p27
asS'chunk_seq'
p28
(lp29
S'B-NP'
p30
aS'I-NP'
p31
aS'E-NP'
p32
asS'dep_seq'
p33
(lp34
(lp35
S'nn'
p36
aS'3'
aS'1'
aa(lp37
S'nn'
p38
aS'3'
aS'2'
aa(lp39
S'root'
p40
aS'0'
aS'3'
aasS'srls'
p41
(lp42
sS'pos_seq'
p43
(lp44
S'NN'
p45
aS'NN'
p46
aS'NN'
p47
asS'ner_seq'
p48
(lp49
S'O'
aS'O'
aS'O'
assb.