ccopy_reg
_reconstructor
p1
(c__main__
KBproperty
p2
c__builtin__
object
p3
NtRp4
(dp5
S'comment'
p6
S'The country or other power the person served. Multiple countries may be indicated together with the corresponding dates. This field should not be used to indicate a particular service branch which is better indicated by the branch field.1973915336'
p7
sS'domain'
p8
S'Person '
p9
sS'instances_count'
p10
I19739
sS'phrases'
p11
NsS'syn_hypo'
p12
Vcommunalismcommitmentallegianceloyaltydedicationconsecrationcommitmentallegianceloyaltydedicationdevotioncommitmentallegianceloyaltydedicationenlistmentcommitmentallegianceloyaltydedicationfaith
p13
sS'label'
p14
S'allegiance'
p15
sS'range'
p16
S'string '
p17
sS'uniq_subjs'
p18
S'2350'
p19
sS'uniq_objs'
p20
I0
sS'prop_uri'
p21
S'http://dbpedia.org/ontology/allegiance'
p22
sS'annotations'
p23
(dp24
S'bag_of_words'
p25
(lp26
S'Person'
p27
aS'allegiance'
p28
aS'string'
p29
aS'The'
p30
aS'country'
p31
aS'or'
p32
aS'other'
p33
aS'power'
p34
aS'the'
p35
aS'person'
p36
aS'served'
p37
aS'.'
aS'Multiple'
p38
aS'countries'
p39
aS'may'
p40
aS'be'
p41
aS'indicated'
p42
aS'together'
p43
aS'with'
p44
aS'the'
p45
aS'corresponding'
p46
aS'dates'
p47
aS'.'
aS'This'
p48
aS'field'
p49
aS'should'
p50
aS'not'
p51
aS'be'
p52
aS'used'
p53
aS'to'
p54
aS'indicate'
p55
aS'a'
aS'particular'
p56
aS'service'
p57
aS'branch'
p58
aS'which'
p59
aS'is'
p60
aS'better'
p61
aS'indicated'
p62
aS'by'
p63
aS'the'
p64
aS'branch'
p65
aS'field.1973915336'
p66
asS'chunk_seq'
p67
(lp68
S'B-NP'
p69
aS'I-NP'
p70
aS'E-NP'
p71
aS'B-NP'
p72
aS'E-NP'
p73
aS'O'
aS'B-NP'
p74
aS'E-NP'
p75
aS'B-NP'
p76
aS'E-NP'
p77
aS'S-VP'
p78
aS'O'
aS'B-NP'
p79
aS'E-NP'
p80
aS'B-VP'
p81
aS'I-VP'
p82
aS'E-VP'
p83
aS'S-ADVP'
p84
aS'S-PP'
p85
aS'B-NP'
p86
aS'I-NP'
p87
aS'E-NP'
p88
aS'O'
aS'B-NP'
p89
aS'E-NP'
p90
aS'B-VP'
p91
aS'I-VP'
p92
aS'I-VP'
p93
aS'E-VP'
p94
aS'B-VP'
p95
aS'E-VP'
p96
aS'B-NP'
p97
aS'I-NP'
p98
aS'I-NP'
p99
aS'E-NP'
p100
aS'S-NP'
p101
aS'B-VP'
p102
aS'I-VP'
p103
aS'E-VP'
p104
aS'S-PP'
p105
aS'B-NP'
p106
aS'E-NP'
p107
aS'O'
asS'dep_seq'
p108
(lp109
(lp110
S'nn'
p111
aS'3'
aS'1'
aa(lp112
S'nn'
p113
aS'3'
aS'2'
aa(lp114
S'nsubjpass'
p115
aS'29'
p116
aS'3'
aa(lp117
S'xsubj'
p118
aS'31'
p119
aS'3'
aa(lp120
S'det'
p121
aS'5'
aS'4'
aa(lp122
S'dep'
p123
aS'3'
aS'5'
aa(lp124
S'amod'
p125
aS'8'
aS'7'
aa(lp126
S'conj_or'
p127
aS'5'
aS'8'
aa(lp128
S'dobj'
p129
aS'11'
p130
aS'8'
aa(lp131
S'det'
p132
aS'10'
p133
aS'9'
aa(lp134
S'nsubj'
p135
aS'11'
p136
aS'10'
p137
aa(lp138
S'rcmod'
p139
aS'8'
aS'11'
p140
aa(lp141
S'amod'
p142
aS'14'
p143
aS'13'
p144
aa(lp145
S'nsubjpass'
p146
aS'17'
p147
aS'14'
p148
aa(lp149
S'aux'
p150
aS'17'
p151
aS'15'
p152
aa(lp153
S'auxpass'
p154
aS'17'
p155
aS'16'
p156
aa(lp157
S'ccomp'
p158
aS'29'
p159
aS'17'
p160
aa(lp161
S'det'
p162
aS'22'
p163
aS'20'
p164
aa(lp165
S'amod'
p166
aS'22'
p167
aS'21'
p168
aa(lp169
S'prep_together_with'
p170
aS'17'
p171
aS'22'
p172
aa(lp173
S'det'
p174
aS'25'
p175
aS'24'
p176
aa(lp177
S'nsubjpass'
p178
aS'29'
p179
aS'25'
p180
aa(lp181
S'xsubj'
p182
aS'31'
p183
aS'25'
p184
aa(lp185
S'aux'
p186
aS'29'
p187
aS'26'
p188
aa(lp189
S'neg'
p190
aS'29'
p191
aS'27'
p192
aa(lp193
S'auxpass'
p194
aS'29'
p195
aS'28'
p196
aa(lp197
S'root'
p198
aS'0'
aS'29'
p199
aa(lp200
S'aux'
p201
aS'31'
p202
aS'30'
p203
aa(lp204
S'xcomp'
p205
aS'29'
p206
aS'31'
p207
aa(lp208
S'det'
p209
aS'35'
p210
aS'32'
p211
aa(lp212
S'amod'
p213
aS'35'
p214
aS'33'
p215
aa(lp216
S'nn'
p217
aS'35'
p218
aS'34'
p219
aa(lp220
S'dobj'
p221
aS'31'
p222
aS'35'
p223
aa(lp224
S'nsubjpass'
p225
aS'39'
p226
aS'35'
p227
aa(lp228
S'auxpass'
p229
aS'39'
p230
aS'37'
p231
aa(lp232
S'advmod'
p233
aS'39'
p234
aS'38'
p235
aa(lp236
S'rcmod'
p237
aS'35'
p238
aS'39'
p239
aa(lp240
S'det'
p241
aS'42'
p242
aS'41'
p243
aa(lp244
S'agent'
p245
aS'39'
p246
aS'42'
p247
aa(lp248
S'punct'
p249
aS'42'
p250
aS'43'
p251
aasS'srls'
p252
(lp253
(dp254
S'A0'
p255
S'the person'
p256
sS'V'
g37
sa(dp257
S'A1'
p258
S'Multiple countries'
p259
sS'AM-ADV'
p260
S'with the corresponding dates'
p261
sS'V'
g42
sS'AM-MNR'
p262
g43
sS'AM-MOD'
p263
g40
sa(dp264
S'A1'
p265
S'This field'
p266
sS'V'
g53
sS'A2'
p267
S'to indicate a particular service branch which is better indicated by the branch field.1973915336'
p268
sS'AM-NEG'
p269
g51
sS'AM-MOD'
p270
g50
sa(dp271
S'A1'
p272
S'a particular service branch which is better indicated by the branch field.1973915336'
p273
sS'A0'
p274
S'This field'
p275
sS'V'
g55
sa(dp276
S'A1'
p277
S'a particular service branch'
p278
sS'A0'
p279
S'by the branch field.1973915336'
p280
sS'R-A1'
p281
g59
sS'AM-MNR'
p282
g61
sS'V'
g62
sasS'pos_seq'
p283
(lp284
S'NN'
p285
aS'NN'
p286
aS'NN'
p287
aS'DT'
p288
aS'NN'
p289
aS'CC'
p290
aS'JJ'
p291
aS'NN'
p292
aS'DT'
p293
aS'NN'
p294
aS'VBD'
p295
aS'.'
aS'JJ'
p296
aS'NNS'
p297
aS'MD'
p298
aS'VB'
p299
aS'VBN'
p300
aS'RB'
p301
aS'IN'
p302
aS'DT'
p303
aS'JJ'
p304
aS'NNS'
p305
aS'.'
aS'DT'
p306
aS'NN'
p307
aS'MD'
p308
aS'RB'
p309
aS'VB'
p310
aS'VBN'
p311
aS'TO'
p312
aS'VB'
p313
aS'DT'
p314
aS'JJ'
p315
aS'NN'
p316
aS'NN'
p317
aS'WDT'
p318
aS'VBZ'
p319
aS'RBR'
p320
aS'VBN'
p321
aS'IN'
p322
aS'DT'
p323
aS'NN'
p324
aS'.'
asS'ner_seq'
p325
(lp326
S'O'
aS'O'
aS'O'
aS'O'
aS'O'
aS'O'
aS'O'
aS'O'
aS'O'
aS'O'
aS'O'
aS'O'
aS'O'
aS'O'
aS'O'
aS'O'
aS'O'
aS'O'
aS'O'
aS'O'
aS'O'
aS'O'
aS'O'
aS'O'
aS'O'
aS'O'
aS'O'
aS'O'
aS'O'
aS'O'
aS'O'
aS'O'
aS'O'
aS'O'
aS'O'
aS'O'
aS'O'
aS'O'
aS'O'
aS'O'
aS'O'
aS'O'
aS'O'
assb.