ccopy_reg
_reconstructor
p1
(c__main__
KBproperty
p2
c__builtin__
object
p3
NtRp4
(dp5
S'comment'
p6
S'4363027368'
p7
sS'domain'
p8
S'Person '
p9
sS'instances_count'
p10
I29546
sS'phrases'
p11
NsS'syn_hypo'
p12
S''
sS'label'
p13
S'known for'
p14
sS'range'
p15
S''
sS'uniq_subjs'
p16
S'29546'
p17
sS'uniq_objs'
p18
I0
sS'prop_uri'
p19
S'http://dbpedia.org/ontology/knownFor'
p20
sS'annotations'
p21
(dp22
S'bag_of_words'
p23
(lp24
S'Person'
p25
aS'known'
p26
aS'for'
p27
aS'4363027368'
p28
asS'chunk_seq'
p29
(lp30
S'S-NP'
p31
aS'S-VP'
p32
aS'S-PP'
p33
aS'S-NP'
p34
asS'dep_seq'
p35
(lp36
(lp37
S'root'
p38
aS'0'
aS'1'
aa(lp39
S'amod'
p40
aS'1'
aS'2'
aa(lp41
S'prep_for'
p42
aS'2'
aS'4'
aasS'srls'
p43
(lp44
(dp45
S'A1'
p46
g25
sS'A2'
p47
S'for 4363027368'
p48
sS'V'
g26
sasS'pos_seq'
p49
(lp50
S'NN'
p51
aS'VBN'
p52
aS'IN'
p53
aS'NN'
p54
asS'ner_seq'
p55
(lp56
S'O'
aS'O'
aS'O'
aS'O'
assb.