ccopy_reg
_reconstructor
p1
(c__main__
KBproperty
p2
c__builtin__
object
p3
NtRp4
(dp5
S'comment'
p6
S'Number of levels of platforms at the station.984983'
p7
sS'domain'
p8
S'Station '
p9
sS'instances_count'
p10
I12
sS'phrases'
p11
NsS'syn_hypo'
p12
S''
sS'label'
p13
S'number of platform levels'
p14
sS'range'
p15
S'integer '
p16
sS'uniq_subjs'
p17
S'12'
p18
sS'uniq_objs'
p19
I0
sS'prop_uri'
p20
S'http://dbpedia.org/ontology/numberOfPlatformLevels'
p21
sS'annotations'
p22
(dp23
S'bag_of_words'
p24
(lp25
S'Station'
p26
aS'number'
p27
aS'of'
p28
aS'platform'
p29
aS'levels'
p30
aS'integer'
p31
aS'Number'
p32
aS'of'
p33
aS'levels'
p34
aS'of'
p35
aS'platforms'
p36
aS'at'
p37
aS'the'
p38
aS'station.984983'
p39
asS'chunk_seq'
p40
(lp41
S'B-NP'
p42
aS'E-NP'
p43
aS'S-PP'
p44
aS'B-NP'
p45
aS'E-NP'
p46
aS'S-VP'
p47
aS'S-NP'
p48
aS'S-PP'
p49
aS'S-NP'
p50
aS'S-PP'
p51
aS'S-NP'
p52
aS'S-PP'
p53
aS'B-NP'
p54
aS'E-NP'
p55
asS'dep_seq'
p56
(lp57
(lp58
S'nn'
p59
aS'2'
aS'1'
aa(lp60
S'nsubj'
p61
aS'6'
aS'2'
aa(lp62
S'nn'
p63
aS'5'
aS'4'
aa(lp64
S'prep_of'
p65
aS'2'
aS'5'
aa(lp66
S'root'
p67
aS'0'
aS'6'
aa(lp68
S'dobj'
p69
aS'6'
aS'7'
aa(lp70
S'prep_of'
p71
aS'7'
aS'9'
aa(lp72
S'prep_of'
p73
aS'9'
aS'11'
p74
aa(lp75
S'det'
p76
aS'14'
p77
aS'13'
p78
aa(lp79
S'prep_at'
p80
aS'7'
aS'14'
p81
aasS'srls'
p82
(lp83
(dp84
S'A0'
p85
S'platform levels'
p86
sS'V'
g31
sasS'pos_seq'
p87
(lp88
S'NN'
p89
aS'NN'
p90
aS'IN'
p91
aS'NN'
p92
aS'NNS'
p93
aS'VBP'
p94
aS'NN'
p95
aS'IN'
p96
aS'NNS'
p97
aS'IN'
p98
aS'NNS'
p99
aS'IN'
p100
aS'DT'
p101
aS'NN'
p102
asS'ner_seq'
p103
(lp104
S'O'
aS'O'
aS'O'
aS'O'
aS'O'
aS'O'
aS'O'
aS'O'
aS'O'
aS'O'
aS'O'
aS'O'
aS'O'
aS'O'
assb.