ccopy_reg
_reconstructor
p1
(c__main__
KBproperty
p2
c__builtin__
object
p3
NtRp4
(dp5
S'comment'
p6
S'ISNI is a method for uniquely identifying the public identities of contributors to media content such as books TV programmes and newspaper articles.5050'
p7
sS'domain'
p8
S''
sS'instances_count'
p9
I50
sS'phrases'
p10
NsS'syn_hypo'
p11
S''
sS'label'
p12
S'ISNI Id'
p13
sS'range'
p14
S'string '
p15
sS'uniq_subjs'
p16
S'50'
p17
sS'uniq_objs'
p18
I0
sS'prop_uri'
p19
S'http://dbpedia.org/ontology/isniId'
p20
sS'annotations'
p21
(dp22
S'bag_of_words'
p23
(lp24
S'ISNI'
p25
aS'Id'
p26
aS'string'
p27
aS'ISNI'
p28
aS'is'
p29
aS'a'
aS'method'
p30
aS'for'
p31
aS'uniquely'
p32
aS'identifying'
p33
aS'the'
p34
aS'public'
p35
aS'identities'
p36
aS'of'
p37
aS'contributors'
p38
aS'to'
p39
aS'media'
p40
aS'content'
p41
aS'such'
p42
aS'as'
p43
aS'books'
p44
aS'TV'
p45
aS'programmes'
p46
aS'and'
p47
aS'newspaper'
p48
aS'articles.5050'
p49
asS'chunk_seq'
p50
(lp51
S'B-NP'
p52
aS'I-NP'
p53
aS'I-NP'
p54
aS'E-NP'
p55
aS'S-VP'
p56
aS'B-NP'
p57
aS'E-NP'
p58
aS'S-PP'
p59
aS'B-VP'
p60
aS'E-VP'
p61
aS'B-NP'
p62
aS'I-NP'
p63
aS'E-NP'
p64
aS'S-PP'
p65
aS'S-NP'
p66
aS'S-PP'
p67
aS'B-NP'
p68
aS'E-NP'
p69
aS'B-PP'
p70
aS'E-PP'
p71
aS'B-NP'
p72
aS'I-NP'
p73
aS'I-NP'
p74
aS'I-NP'
p75
aS'E-NP'
p76
aS'S-ADJP'
p77
asS'dep_seq'
p78
(lp79
(lp80
S'nn'
p81
aS'4'
aS'1'
aa(lp82
S'nn'
p83
aS'4'
aS'2'
aa(lp84
S'nn'
p85
aS'4'
aS'3'
aa(lp86
S'nsubj'
p87
aS'7'
aS'4'
aa(lp88
S'cop'
p89
aS'7'
aS'5'
aa(lp90
S'det'
p91
aS'7'
aS'6'
aa(lp92
S'root'
p93
aS'0'
aS'7'
aa(lp94
S'advmod'
p95
aS'10'
p96
aS'9'
aa(lp97
S'prepc_for'
p98
aS'7'
aS'10'
p99
aa(lp100
S'det'
p101
aS'13'
p102
aS'11'
p103
aa(lp104
S'amod'
p105
aS'13'
p106
aS'12'
p107
aa(lp108
S'dobj'
p109
aS'10'
p110
aS'13'
p111
aa(lp112
S'prep_of'
p113
aS'13'
p114
aS'15'
p115
aa(lp116
S'prep_to'
p117
aS'15'
p118
aS'17'
p119
aa(lp120
S'amod'
p121
aS'17'
p122
aS'18'
p123
aa(lp124
S'nn'
p125
aS'23'
p126
aS'21'
p127
aa(lp128
S'nn'
p129
aS'23'
p130
aS'22'
p131
aa(lp132
S'prep_such_as'
p133
aS'17'
p134
aS'23'
p135
aa(lp136
S'conj_and'
p137
aS'23'
p138
aS'25'
p139
aa(lp140
S'punct'
p141
aS'25'
p142
aS'26'
p143
aasS'srls'
p144
(lp145
(dp146
S'A1'
p147
S'the public identities of contributors'
p148
sS'A2'
p149
S'to media content such as books TV programmes and newspaper articles.5050'
p150
sS'AM-MNR'
p151
g32
sS'V'
g33
sasS'pos_seq'
p152
(lp153
S'NNP'
p154
aS'NNP'
p155
aS'NN'
p156
aS'NNP'
p157
aS'VBZ'
p158
aS'DT'
p159
aS'NN'
p160
aS'IN'
p161
aS'RB'
p162
aS'VBG'
p163
aS'DT'
p164
aS'JJ'
p165
aS'NNS'
p166
aS'IN'
p167
aS'NNS'
p168
aS'TO'
p169
aS'NNS'
p170
aS'JJ'
p171
aS'JJ'
p172
aS'IN'
p173
aS'NNS'
p174
aS'NN'
p175
aS'NNS'
p176
aS'CC'
p177
aS'NN'
p178
aS'.'
asS'ner_seq'
p179
(lp180
S'O'
aS'O'
aS'O'
aS'S-ORG'
p181
aS'O'
aS'O'
aS'O'
aS'O'
aS'O'
aS'O'
aS'O'
aS'O'
aS'O'
aS'O'
aS'O'
aS'O'
aS'O'
aS'O'
aS'O'
aS'O'
aS'O'
aS'O'
aS'O'
aS'O'
aS'O'
aS'O'
assb.