ccopy_reg
_reconstructor
p1
(c__main__
KBproperty
p2
c__builtin__
object
p3
NtRp4
(dp5
S'comment'
p6
S'00'
p7
sS'domain'
p8
S'Athlete '
p9
sS'instances_count'
p10
I0
sS'phrases'
p11
NsS'syn_hypo'
p12
S''
sS'label'
p13
S'team coached'
p14
sS'range'
p15
S'Sports Team '
p16
sS'uniq_subjs'
p17
S'0'
sS'uniq_objs'
p18
I0
sS'prop_uri'
p19
S'http://dbpedia.org/ontology/teamCoached'
p20
sS'annotations'
p21
(dp22
S'bag_of_words'
p23
(lp24
S'Athlete'
p25
aS'team'
p26
aS'coached'
p27
aS'Sports'
p28
aS'Team'
p29
aS'00'
p30
asS'chunk_seq'
p31
(lp32
S'B-NP'
p33
aS'E-NP'
p34
aS'S-VP'
p35
aS'B-NP'
p36
aS'E-NP'
p37
aS'S-ADVP'
p38
asS'dep_seq'
p39
(lp40
(lp41
S'nn'
p42
aS'2'
aS'1'
aa(lp43
S'nsubj'
p44
aS'3'
aS'2'
aa(lp45
S'root'
p46
aS'0'
aS'3'
aa(lp47
S'nn'
p48
aS'5'
aS'4'
aa(lp49
S'dobj'
p50
aS'3'
aS'5'
aa(lp51
S'num'
p52
aS'5'
aS'6'
aasS'srls'
p53
(lp54
(dp55
S'A1'
p56
S'Sports Team 00'
p57
sS'A0'
p58
S'Athlete team'
p59
sS'V'
g27
sasS'pos_seq'
p60
(lp61
S'NN'
p62
aS'NN'
p63
aS'VBD'
p64
aS'NNP'
p65
aS'NNP'
p66
aS'CD'
p67
asS'ner_seq'
p68
(lp69
S'O'
aS'O'
aS'O'
aS'B-ORG'
p70
aS'E-ORG'
p71
aS'O'
assb.