ccopy_reg
_reconstructor
p1
(c__main__
KBproperty
p2
c__builtin__
object
p3
NtRp4
(dp5
S'comment'
p6
S'perimeter \\xce\\xbc'
p7
sS'domain'
p8
S'Place '
p9
sS'instances_count'
p10
I0
sS'phrases'
p11
NsS'syn_hypo'
p12
S''
sS'label'
p13
g7
sS'range'
p14
S'double '
p15
sS'uniq_subjs'
p16
S'0'
sS'uniq_objs'
p17
I0
sS'prop_uri'
p18
S'http://dbpedia.org/ontology/perimeter'
p19
sS'annotations'
p20
(dp21
S'bag_of_words'
p22
(lp23
S'Place'
p24
aS'perimeter'
p25
aS'double'
p26
aS'perimeter'
p27
aS'\\'
aS'xce'
p28
aS'\\'
aS'xbc'
p29
asS'chunk_seq'
p30
(lp31
S'B-NP'
p32
aS'I-NP'
p33
aS'I-NP'
p34
aS'E-NP'
p35
aS'O'
aS'O'
aS'O'
aS'O'
asS'dep_seq'
p36
(lp37
(lp38
S'root'
p39
aS'0'
aS'1'
aa(lp40
S'dep'
p41
aS'1'
aS'2'
aa(lp42
S'dep'
p43
aS'1'
aS'3'
aa(lp44
S'dep'
p45
aS'1'
aS'4'
aa(lp46
S'dep'
p47
aS'1'
aS'5'
aa(lp48
S'dep'
p49
aS'1'
aS'6'
aa(lp50
S'dep'
p51
aS'1'
aS'7'
aa(lp52
S'dep'
p53
aS'1'
aS'8'
aasS'srls'
p54
(lp55
sS'pos_seq'
p56
(lp57
S'NN'
p58
aS'NN'
p59
aS'JJ'
p60
aS'NN'
p61
aS'FW'
p62
aS'FW'
p63
aS'FW'
p64
aS'FW'
p65
asS'ner_seq'
p66
(lp67
S'O'
aS'O'
aS'O'
aS'O'
aS'O'
aS'O'
aS'O'
aS'O'
assb.