ccopy_reg
_reconstructor
p1
(c__main__
KBproperty
p2
c__builtin__
object
p3
NtRp4
(dp5
S'comment'
p6
S'Date the play was first performed.1001989'
p7
sS'domain'
p8
S'Play '
p9
sS'instances_count'
p10
I979
sS'phrases'
p11
NsS'syn_hypo'
p12
S''
sS'label'
p13
S'premiere date'
p14
sS'range'
p15
S'date '
p16
sS'uniq_subjs'
p17
S'979'
p18
sS'uniq_objs'
p19
I0
sS'prop_uri'
p20
S'http://dbpedia.org/ontology/premiereDate'
p21
sS'annotations'
p22
(dp23
S'bag_of_words'
p24
(lp25
S'Play'
p26
aS'premiere'
p27
aS'date'
p28
aS'date'
p29
aS'Date'
p30
aS'the'
p31
aS'play'
p32
aS'was'
p33
aS'first'
p34
aS'performed.1001989'
p35
asS'chunk_seq'
p36
(lp37
S'S-VP'
p38
aS'B-NP'
p39
aS'E-NP'
p40
aS'B-NP'
p41
aS'E-NP'
p42
aS'B-NP'
p43
aS'E-NP'
p44
aS'S-VP'
p45
aS'B-NP'
p46
aS'E-NP'
p47
asS'dep_seq'
p48
(lp49
(lp50
S'dep'
p51
aS'10'
p52
aS'1'
aa(lp53
S'nn'
p54
aS'5'
aS'2'
aa(lp55
S'nn'
p56
aS'5'
aS'3'
aa(lp57
S'nn'
p58
aS'5'
aS'4'
aa(lp59
S'dobj'
p60
aS'1'
aS'5'
aa(lp61
S'det'
p62
aS'7'
aS'6'
aa(lp63
S'nsubj'
p64
aS'10'
p65
aS'7'
aa(lp66
S'cop'
p67
aS'10'
p68
aS'8'
aa(lp69
S'amod'
p70
aS'10'
p71
aS'9'
aa(lp72
S'root'
p73
aS'0'
aS'10'
p74
aasS'srls'
p75
(lp76
(dp77
S'A1'
p78
S'premiere date date Date the play'
p79
sS'V'
g26
sasS'pos_seq'
p80
(lp81
S'VB'
p82
aS'NN'
p83
aS'NN'
p84
aS'NN'
p85
aS'NN'
p86
aS'DT'
p87
aS'NN'
p88
aS'VBD'
p89
aS'JJ'
p90
aS'NN'
p91
asS'ner_seq'
p92
(lp93
S'O'
aS'O'
aS'O'
aS'O'
aS'O'
aS'O'
aS'O'
aS'O'
aS'O'
aS'O'
assb.