ccopy_reg
_reconstructor
p1
(c__main__
KBproperty
p2
c__builtin__
object
p3
NtRp4
(dp5
S'comment'
p6
S'2083819273'
p7
sS'domain'
p8
S'River '
p9
sS'instances_count'
p10
I6895
sS'phrases'
p11
NsS'syn_hypo'
p12
S''
sS'label'
p13
S'river mouth'
p14
sS'range'
p15
S'Body Of Water '
p16
sS'uniq_subjs'
p17
S'6895'
p18
sS'uniq_objs'
p19
I0
sS'prop_uri'
p20
S'http://dbpedia.org/ontology/riverMouth'
p21
sS'annotations'
p22
(dp23
S'bag_of_words'
p24
(lp25
S'River'
p26
aS'river'
p27
aS'mouth'
p28
aS'Body'
p29
aS'Of'
p30
aS'Water'
p31
aS'2083819273'
p32
asS'chunk_seq'
p33
(lp34
S'B-NP'
p35
aS'I-NP'
p36
aS'I-NP'
p37
aS'E-NP'
p38
aS'S-PP'
p39
aS'B-NP'
p40
aS'E-NP'
p41
asS'dep_seq'
p42
(lp43
(lp44
S'nn'
p45
aS'4'
aS'1'
aa(lp46
S'nn'
p47
aS'4'
aS'2'
aa(lp48
S'nn'
p49
aS'4'
aS'3'
aa(lp50
S'dep'
p51
aS'7'
aS'4'
aa(lp52
S'prep_of'
p53
aS'4'
aS'6'
aa(lp54
S'root'
p55
aS'0'
aS'7'
aasS'srls'
p56
(lp57
sS'pos_seq'
p58
(lp59
S'NN'
p60
aS'NN'
p61
aS'NN'
p62
aS'NN'
p63
aS'IN'
p64
aS'NNP'
p65
aS'.'
asS'ner_seq'
p66
(lp67
S'B-LOC'
p68
aS'E-LOC'
p69
aS'O'
aS'B-ORG'
p70
aS'I-ORG'
p71
aS'E-ORG'
p72
aS'O'
assb.