ccopy_reg
_reconstructor
p1
(c__main__
KBproperty
p2
c__builtin__
object
p3
NtRp4
(dp5
S'comment'
p6
S'Indexing code used by the Belgium National Statistical Institute to identify populated places.00'
p7
sS'domain'
p8
S'Populated Place '
p9
sS'instances_count'
p10
I0
sS'phrases'
p11
NsS'syn_hypo'
p12
S''
sS'label'
p13
S'NIS code'
p14
sS'range'
p15
S'Populated Place '
p16
sS'uniq_subjs'
p17
S'0'
sS'uniq_objs'
p18
I0
sS'prop_uri'
p19
S'http://dbpedia.org/ontology/nisCode'
p20
sS'annotations'
p21
(dp22
S'bag_of_words'
p23
(lp24
S'Populated'
p25
aS'Place'
p26
aS'NIS'
p27
aS'code'
p28
aS'Populated'
p29
aS'Place'
p30
aS'Indexing'
p31
aS'code'
p32
aS'used'
p33
aS'by'
p34
aS'the'
p35
aS'Belgium'
p36
aS'National'
p37
aS'Statistical'
p38
aS'Institute'
p39
aS'to'
p40
aS'identify'
p41
aS'populated'
p42
aS'places.00'
p43
asS'chunk_seq'
p44
(lp45
S'B-NP'
p46
aS'I-NP'
p47
aS'I-NP'
p48
aS'I-NP'
p49
aS'I-NP'
p50
aS'I-NP'
p51
aS'I-NP'
p52
aS'E-NP'
p53
aS'S-VP'
p54
aS'S-PP'
p55
aS'B-NP'
p56
aS'I-NP'
p57
aS'I-NP'
p58
aS'I-NP'
p59
aS'E-NP'
p60
aS'B-VP'
p61
aS'E-VP'
p62
aS'B-NP'
p63
aS'E-NP'
p64
asS'dep_seq'
p65
(lp66
(lp67
S'amod'
p68
aS'8'
aS'1'
aa(lp69
S'nn'
p70
aS'8'
aS'2'
aa(lp71
S'nn'
p72
aS'8'
aS'3'
aa(lp73
S'nn'
p74
aS'8'
aS'4'
aa(lp75
S'amod'
p76
aS'8'
aS'5'
aa(lp77
S'nn'
p78
aS'8'
aS'6'
aa(lp79
S'nn'
p80
aS'8'
aS'7'
aa(lp81
S'nsubj'
p82
aS'9'
aS'8'
aa(lp83
S'xsubj'
p84
aS'17'
p85
aS'8'
aa(lp86
S'root'
p87
aS'0'
aS'9'
aa(lp88
S'det'
p89
aS'15'
p90
aS'11'
p91
aa(lp92
S'nn'
p93
aS'15'
p94
aS'12'
p95
aa(lp96
S'nn'
p97
aS'15'
p98
aS'13'
p99
aa(lp100
S'nn'
p101
aS'15'
p102
aS'14'
p103
aa(lp104
S'prep_by'
p105
aS'9'
aS'15'
p106
aa(lp107
S'aux'
p108
aS'17'
p109
aS'16'
p110
aa(lp111
S'xcomp'
p112
aS'9'
aS'17'
p113
aa(lp114
S'amod'
p115
aS'19'
p116
aS'18'
p117
aa(lp118
S'dobj'
p119
aS'17'
p120
aS'19'
p121
aasS'srls'
p122
(lp123
(dp124
S'A1'
p125
S'NIS code  Indexing code'
p126
sS'A3'
p127
g30
sS'V'
g29
sa(dp128
S'A1'
p129
S'Populated Place NIS code Populated Place Indexing code'
p130
sS'A0'
p131
S'by the Belgium National Statistical Institute'
p132
sS'V'
g33
sa(dp133
S'A1'
p134
S'populated places.00'
p135
sS'A0'
p136
S'Populated Place NIS code Populated Place Indexing code used by the Belgium National Statistical Institute'
p137
sS'V'
g41
sasS'pos_seq'
p138
(lp139
S'VBN'
p140
aS'NNP'
p141
aS'NNP'
p142
aS'NN'
p143
aS'VBN'
p144
aS'NNP'
p145
aS'NNP'
p146
aS'NN'
p147
aS'VBN'
p148
aS'IN'
p149
aS'DT'
p150
aS'NNP'
p151
aS'NNP'
p152
aS'NNP'
p153
aS'NNP'
p154
aS'TO'
p155
aS'VB'
p156
aS'JJ'
p157
aS'NN'
p158
asS'ner_seq'
p159
(lp160
S'O'
aS'O'
aS'S-LOC'
p161
aS'O'
aS'O'
aS'O'
aS'O'
aS'O'
aS'O'
aS'O'
aS'O'
aS'B-ORG'
p162
aS'I-ORG'
p163
aS'I-ORG'
p164
aS'E-ORG'
p165
aS'O'
aS'O'
aS'O'
aS'O'
assb.