ccopy_reg
_reconstructor
p1
(c__main__
KBproperty
p2
c__builtin__
object
p3
NtRp4
(dp5
S'comment'
p6
S'00'
p7
sS'domain'
p8
S'Populated Place '
p9
sS'instances_count'
p10
I0
sS'phrases'
p11
NsS'syn_hypo'
p12
S''
sS'label'
p13
S'gross domestic product purchasing power parity per capita'
p14
sS'range'
p15
S'Gross Domestic Product Per Capita '
p16
sS'uniq_subjs'
p17
S'0'
sS'uniq_objs'
p18
I0
sS'prop_uri'
p19
S'http://dbpedia.org/ontology/grossDomesticProductPurchasingPowerParityPerCapita'
p20
sS'annotations'
p21
(dp22
S'bag_of_words'
p23
(lp24
S'Populated'
p25
aS'Place'
p26
aS'gross'
p27
aS'domestic'
p28
aS'product'
p29
aS'purchasing'
p30
aS'power'
p31
aS'parity'
p32
aS'per'
p33
aS'capita'
p34
aS'Gross'
p35
aS'Domestic'
p36
aS'Product'
p37
aS'Per'
p38
aS'Capita'
p39
aS'00'
p40
asS'chunk_seq'
p41
(lp42
S'B-NP'
p43
aS'I-NP'
p44
aS'I-NP'
p45
aS'I-NP'
p46
aS'E-NP'
p47
aS'S-VP'
p48
aS'B-NP'
p49
aS'E-NP'
p50
aS'S-PP'
p51
aS'B-NP'
p52
aS'I-NP'
p53
aS'I-NP'
p54
aS'E-NP'
p55
aS'O'
aS'O'
aS'O'
asS'dep_seq'
p56
(lp57
(lp58
S'amod'
p59
aS'8'
aS'1'
aa(lp60
S'nn'
p61
aS'8'
aS'2'
aa(lp62
S'amod'
p63
aS'8'
aS'3'
aa(lp64
S'amod'
p65
aS'8'
aS'4'
aa(lp66
S'nn'
p67
aS'8'
aS'5'
aa(lp68
S'amod'
p69
aS'8'
aS'6'
aa(lp70
S'nn'
p71
aS'8'
aS'7'
aa(lp72
S'root'
p73
aS'0'
aS'8'
aa(lp74
S'nn'
p75
aS'15'
p76
aS'10'
p77
aa(lp78
S'nn'
p79
aS'15'
p80
aS'11'
p81
aa(lp82
S'nn'
p83
aS'15'
p84
aS'12'
p85
aa(lp86
S'nn'
p87
aS'15'
p88
aS'13'
p89
aa(lp90
S'nn'
p91
aS'15'
p92
aS'14'
p93
aa(lp94
S'prep_per'
p95
aS'8'
aS'15'
p96
aa(lp97
S'num'
p98
aS'15'
p99
aS'16'
p100
aasS'srls'
p101
(lp102
(dp103
S'V'
g30
sasS'pos_seq'
p104
(lp105
S'VBN'
p106
aS'NN'
p107
aS'JJ'
p108
aS'JJ'
p109
aS'NN'
p110
aS'VBG'
p111
aS'NN'
p112
aS'NN'
p113
aS'IN'
p114
aS'NN'
p115
aS'NNP'
p116
aS'NNP'
p117
aS'NNP'
p118
aS'NNP'
p119
aS'NNP'
p120
aS'CD'
p121
asS'ner_seq'
p122
(lp123
S'O'
aS'O'
aS'O'
aS'O'
aS'O'
aS'O'
aS'O'
aS'O'
aS'O'
aS'O'
aS'O'
aS'O'
aS'O'
aS'O'
aS'O'
aS'O'
assb.