ccopy_reg
_reconstructor
p1
(c__main__
KBproperty
p2
c__builtin__
object
p3
NtRp4
(dp5
S'comment'
p6
S'number of goals scored'
p7
sS'domain'
p8
S'Career Station '
p9
sS'instances_count'
p10
I421
sS'phrases'
p11
NsS'syn_hypo'
p12
S''
sS'label'
p13
g7
sS'range'
p14
S'integer '
p15
sS'uniq_subjs'
p16
S'421'
p17
sS'uniq_objs'
p18
I0
sS'prop_uri'
p19
S'http://dbpedia.org/ontology/numberOfGoals'
p20
sS'annotations'
p21
(dp22
S'bag_of_words'
p23
(lp24
S'Career'
p25
aS'Station'
p26
aS'number'
p27
aS'Of'
p28
aS'Goals'
p29
aS'integer'
p30
aS'number'
p31
aS'of'
p32
aS'goals'
p33
aS'scored'
p34
asS'chunk_seq'
p35
(lp36
S'B-NP'
p37
aS'I-NP'
p38
aS'E-NP'
p39
aS'S-PP'
p40
aS'B-NP'
p41
aS'I-NP'
p42
aS'E-NP'
p43
aS'S-PP'
p44
aS'S-NP'
p45
aS'S-VP'
p46
asS'dep_seq'
p47
(lp48
(lp49
S'nn'
p50
aS'3'
aS'1'
aa(lp51
S'nn'
p52
aS'3'
aS'2'
aa(lp53
S'root'
p54
aS'0'
aS'3'
aa(lp55
S'prep_of'
p56
aS'3'
aS'5'
aa(lp57
S'nn'
p58
aS'7'
aS'6'
aa(lp59
S'dep'
p60
aS'3'
aS'7'
aa(lp61
S'prep_of'
p62
aS'3'
aS'9'
aa(lp63
S'dep'
p64
aS'3'
aS'10'
p65
aasS'srls'
p66
(lp67
sS'pos_seq'
p68
(lp69
S'NNP'
p70
aS'NNP'
p71
aS'NN'
p72
aS'IN'
p73
aS'NNS'
p74
aS'NN'
p75
aS'NN'
p76
aS'IN'
p77
aS'NNS'
p78
aS'VBD'
p79
asS'ner_seq'
p80
(lp81
S'O'
aS'O'
aS'O'
aS'O'
aS'O'
aS'O'
aS'O'
aS'O'
aS'O'
aS'O'
assb.