ccopy_reg
_reconstructor
p1
(c__main__
KBproperty
p2
c__builtin__
object
p3
NtRp4
(dp5
S'comment'
p6
S'Percentage of Galician speakers.00'
p7
sS'domain'
p8
S'Language '
p9
sS'instances_count'
p10
I0
sS'phrases'
p11
NsS'syn_hypo'
p12
S''
sS'label'
p13
S'galicianSpeakersPercentage'
p14
sS'range'
p15
S'string '
p16
sS'uniq_subjs'
p17
S'0'
sS'uniq_objs'
p18
I0
sS'prop_uri'
p19
S'http://dbpedia.org/ontology/galicianSpeakersPercentage'
p20
sS'annotations'
p21
(dp22
S'bag_of_words'
p23
(lp24
S'Language'
p25
aS'galicianSpeakersPercentage'
p26
aS'string'
p27
aS'Percentage'
p28
aS'of'
p29
aS'Galician'
p30
aS'speakers.00'
p31
asS'chunk_seq'
p32
(lp33
S'B-NP'
p34
aS'I-NP'
p35
aS'I-NP'
p36
aS'E-NP'
p37
aS'S-PP'
p38
aS'B-NP'
p39
aS'E-NP'
p40
asS'dep_seq'
p41
(lp42
(lp43
S'nn'
p44
aS'4'
aS'1'
aa(lp45
S'amod'
p46
aS'4'
aS'2'
aa(lp47
S'nn'
p48
aS'4'
aS'3'
aa(lp49
S'root'
p50
aS'0'
aS'4'
aa(lp51
S'amod'
p52
aS'7'
aS'6'
aa(lp53
S'prep_of'
p54
aS'4'
aS'7'
aasS'srls'
p55
(lp56
sS'pos_seq'
p57
(lp58
S'NN'
p59
aS'JJ'
p60
aS'NN'
p61
aS'NN'
p62
aS'IN'
p63
aS'JJ'
p64
aS'NN'
p65
asS'ner_seq'
p66
(lp67
S'O'
aS'O'
aS'O'
aS'O'
aS'O'
aS'S-MISC'
p68
aS'O'
assb.