ccopy_reg
_reconstructor
p1
(c__main__
KBproperty
p2
c__builtin__
object
p3
NtRp4
(dp5
S'comment'
p6
S'moment in time used as a referrence point for some time-vaying astronomical quantity30442930'
p7
sS'domain'
p8
S'Planet '
p9
sS'instances_count'
p10
I359
sS'phrases'
p11
NsS'syn_hypo'
p12
Vdayeraepochhistoric_perioderaepochageeraepochmodern_era
p13
sS'label'
p14
S'epoch'
p15
sS'range'
p16
S'string '
p17
sS'uniq_subjs'
p18
S'359'
p19
sS'uniq_objs'
p20
I0
sS'prop_uri'
p21
S'http://dbpedia.org/ontology/epoch'
p22
sS'annotations'
p23
(dp24
S'bag_of_words'
p25
(lp26
S'Planet'
p27
aS'epoch'
p28
aS'string'
p29
aS'moment'
p30
aS'in'
p31
aS'time'
p32
aS'used'
p33
aS'as'
p34
aS'a'
aS'referrence'
p35
aS'point'
p36
aS'for'
p37
aS'some'
p38
aS'time'
p39
aS'-'
aS'vaying'
p40
aS'astronomical'
p41
aS'quantity30442930'
p42
asS'chunk_seq'
p43
(lp44
S'B-NP'
p45
aS'I-NP'
p46
aS'I-NP'
p47
aS'E-NP'
p48
aS'S-PP'
p49
aS'S-NP'
p50
aS'S-VP'
p51
aS'S-PP'
p52
aS'B-NP'
p53
aS'I-NP'
p54
aS'E-NP'
p55
aS'S-PP'
p56
aS'B-NP'
p57
aS'E-NP'
p58
aS'O'
aS'B-NP'
p59
aS'I-NP'
p60
aS'E-NP'
p61
asS'dep_seq'
p62
(lp63
(lp64
S'nn'
p65
aS'4'
aS'1'
aa(lp66
S'nn'
p67
aS'4'
aS'2'
aa(lp68
S'nn'
p69
aS'4'
aS'3'
aa(lp70
S'dep'
p71
aS'18'
p72
aS'4'
aa(lp73
S'prep_in'
p74
aS'4'
aS'6'
aa(lp75
S'partmod'
p76
aS'6'
aS'7'
aa(lp77
S'det'
p78
aS'11'
p79
aS'9'
aa(lp80
S'amod'
p81
aS'11'
p82
aS'10'
p83
aa(lp84
S'prep_as'
p85
aS'7'
aS'11'
p86
aa(lp87
S'det'
p88
aS'14'
p89
aS'13'
p90
aa(lp91
S'prep_for'
p92
aS'7'
aS'14'
p93
aa(lp94
S'amod'
p95
aS'18'
p96
aS'16'
p97
aa(lp98
S'amod'
p99
aS'18'
p100
aS'17'
p101
aa(lp102
S'root'
p103
aS'0'
aS'18'
p104
aasS'srls'
p105
(lp106
(dp107
S'A1'
p108
S'time  vaying astronomical quantity30442930'
p109
sS'A2'
p110
S'as a referrence point'
p111
sS'AM-TMP'
p112
S'for some time'
p113
sS'V'
g33
sasS'pos_seq'
p114
(lp115
S'NN'
p116
aS'NN'
p117
aS'NN'
p118
aS'NN'
p119
aS'IN'
p120
aS'NN'
p121
aS'VBN'
p122
aS'IN'
p123
aS'DT'
p124
aS'JJ'
p125
aS'NN'
p126
aS'IN'
p127
aS'DT'
p128
aS'NN'
p129
aS':'
aS'JJ'
p130
aS'JJ'
p131
aS'NN'
p132
asS'ner_seq'
p133
(lp134
S'O'
aS'O'
aS'O'
aS'O'
aS'O'
aS'O'
aS'O'
aS'O'
aS'O'
aS'O'
aS'O'
aS'O'
aS'O'
aS'O'
aS'O'
aS'O'
aS'O'
aS'O'
assb.