ccopy_reg
_reconstructor
p1
(c__main__
KBproperty
p2
c__builtin__
object
p3
NtRp4
(dp5
S'comment'
p6
S'836300'
p7
sS'domain'
p8
S'Music Genre '
p9
sS'instances_count'
p10
I399
sS'phrases'
p11
NsS'syn_hypo'
p12
Vcurvaturederived_functionderivativedifferential_coefficientdifferentialfirst_derivativepartial_derivativederived_functionderivativedifferential_coefficientdifferentialfirst_derivativepartial
p13
sS'label'
p14
S'derivative'
p15
sS'range'
p16
S'Music Genre '
p17
sS'uniq_subjs'
p18
S'399'
p19
sS'uniq_objs'
p20
I0
sS'prop_uri'
p21
S'http://dbpedia.org/ontology/derivative'
p22
sS'annotations'
p23
(dp24
S'bag_of_words'
p25
(lp26
S'Music'
p27
aS'Genre'
p28
aS'derivative'
p29
aS'Music'
p30
aS'Genre'
p31
aS'836300'
p32
asS'chunk_seq'
p33
(lp34
S'B-NP'
p35
aS'I-NP'
p36
aS'I-NP'
p37
aS'I-NP'
p38
aS'E-NP'
p39
aS'O'
asS'dep_seq'
p40
(lp41
(lp42
S'nn'
p43
aS'5'
aS'1'
aa(lp44
S'nn'
p45
aS'5'
aS'2'
aa(lp46
S'amod'
p47
aS'5'
aS'3'
aa(lp48
S'nn'
p49
aS'5'
aS'4'
aa(lp50
S'root'
p51
aS'0'
aS'5'
aa(lp52
S'num'
p53
aS'5'
aS'6'
aasS'srls'
p54
(lp55
sS'pos_seq'
p56
(lp57
S'NNP'
p58
aS'NNP'
p59
aS'JJ'
p60
aS'NNP'
p61
aS'NNP'
p62
aS'CD'
p63
asS'ner_seq'
p64
(lp65
S'O'
aS'O'
aS'O'
aS'B-ORG'
p66
aS'E-ORG'
p67
aS'O'
assb.