ccopy_reg
_reconstructor
p1
(c__main__
KBproperty
p2
c__builtin__
object
p3
NtRp4
(dp5
S'comment'
p6
S'00'
p7
sS'domain'
p8
S'Person '
p9
sS'instances_count'
p10
I0
sS'phrases'
p11
NsS'syn_hypo'
p12
Vadornmentdecorationornamentornamentationarabesquedecorationornamentornamentationarchitectural_ornamentdecorationornamentornamentationbeadingdecorationornamentornamentationbeadworkdecorationornamentornamentationbowdecorationornamentornamentationbrassdecorationornamentornamentationcenterpiecedecorationornamentornamentationcentrepiecedecorationornamentornamentationChristmas_treedecorationornamentornamentationcockadedecorationornamentornamentationdesigndecorationornamentornamentationpatterndecorationornamentornamentationfiguredecorationornamentornamentationembellishmentdecorationornamentornamentationfinialdecorationornamentornamentationflower_arrangementdecorationornamentornamentationfloral_arrangementdecorationornamentornamentationfolderaldecorationornamentornamentationfalderoldecorationornamentornamentationfrilldecorationornamentornamentationgimcrackerydecorationornamentornamentationgimcrackdecorationornamentornamentationnonsensedecorationornamentornamentationtrumperydecorationornamentornamentationgargoyledecorationornamentornamentationgarnishdecorationornamentornamentationgarnishdecorationornamentornamentationgraffitodecorationornamentornamentationgraffitidecorationornamentornamentationhangingdecorationornamentornamentationwall_hangingdecorationornamentornamentationhood_ornamentdecorationornamentornamentationincrustationdecorationornamentornamentationencrustationdecorationornamentornamentationinlaydecorationornamentornamentationinterior_decorationdecorationornamentornamentationdecordecorationornamentornamentationknobdecorationornamentornamentationpommeldecorationornamentornamentationlunuladecorationornamentornamentationmoldingdecorationornamentornamentationmouldingdecorationornamentornamentationnailheaddecorationornamentornamentationneckletdecorationornamentornamentationoverlaydecorationornamentornamentationrosemalingdecorationornamentornamentationset_decorationdecorationornamentornamentationsgraffitodecorationornamentornamentationspiraldecorationornamentornamentationvolutedecorationornamentornamentationsprigdecorationornamentornamentationstuddecorationornamentornamentationrivetdecorationornamentornamentationtail_findecorationornamentornamentationtailfindecorationornamentornamentationfindecorationornamentornamentationtinseldecorationornamentornamentationtracerydecorationornamentornamentationwind_chimedecorationornamentornamentationwind_bell
p13
sS'label'
p14
S'decoration'
p15
sS'range'
p16
S''
sS'uniq_subjs'
p17
S'0'
sS'uniq_objs'
p18
I0
sS'prop_uri'
p19
S'http://dbpedia.org/ontology/decoration'
p20
sS'annotations'
p21
(dp22
S'bag_of_words'
p23
(lp24
S'Person'
p25
aS'decoration'
p26
aS'00'
p27
asS'chunk_seq'
p28
(lp29
S'B-NP'
p30
aS'E-NP'
p31
aS'S-ADVP'
p32
asS'dep_seq'
p33
(lp34
(lp35
S'nn'
p36
aS'2'
aS'1'
aa(lp37
S'root'
p38
aS'0'
aS'2'
aa(lp39
S'dep'
p40
aS'2'
aS'3'
aasS'srls'
p41
(lp42
sS'pos_seq'
p43
(lp44
S'NN'
p45
aS'NN'
p46
aS'CD'
p47
asS'ner_seq'
p48
(lp49
S'O'
aS'O'
aS'O'
assb.