ccopy_reg
_reconstructor
p1
(c__main__
KBproperty
p2
c__builtin__
object
p3
NtRp4
(dp5
S'comment'
p6
S'00'
p7
sS'domain'
p8
S'Person '
p9
sS'instances_count'
p10
I0
sS'phrases'
p11
NsS'syn_hypo'
p12
S''
sS'label'
p13
S'note on resting place'
p14
sS'range'
p15
S'string '
p16
sS'uniq_subjs'
p17
S'0'
sS'uniq_objs'
p18
I0
sS'prop_uri'
p19
S'http://dbpedia.org/ontology/noteOnRestingPlace'
p20
sS'annotations'
p21
(dp22
S'bag_of_words'
p23
(lp24
S'Person'
p25
aS'note'
p26
aS'on'
p27
aS'resting'
p28
aS'place'
p29
aS'string'
p30
aS'00'
p31
asS'chunk_seq'
p32
(lp33
S'S-NP'
p34
aS'S-VP'
p35
aS'S-PP'
p36
aS'B-NP'
p37
aS'I-NP'
p38
aS'E-NP'
p39
aS'O'
asS'dep_seq'
p40
(lp41
(lp42
S'nsubj'
p43
aS'2'
aS'1'
aa(lp44
S'root'
p45
aS'0'
aS'2'
aa(lp46
S'amod'
p47
aS'6'
aS'4'
aa(lp48
S'nn'
p49
aS'6'
aS'5'
aa(lp50
S'prep_on'
p51
aS'2'
aS'6'
aa(lp52
S'num'
p53
aS'6'
aS'7'
aasS'srls'
p54
(lp55
(dp56
S'A0'
p57
g25
sS'AM-LOC'
p58
S'on resting place string 00'
p59
sS'V'
g26
sa(dp60
S'A1'
p61
g29
sS'V'
g28
sasS'pos_seq'
p62
(lp63
S'NN'
p64
aS'VBP'
p65
aS'IN'
p66
aS'VBG'
p67
aS'NN'
p68
aS'NN'
p69
aS'CD'
p70
asS'ner_seq'
p71
(lp72
S'O'
aS'O'
aS'O'
aS'O'
aS'O'
aS'O'
aS'O'
assb.