ccopy_reg
_reconstructor
p1
(c__main__
KBproperty
p2
c__builtin__
object
p3
NtRp4
(dp5
S'comment'
p6
S'00'
p7
sS'domain'
p8
S'Person '
p9
sS'instances_count'
p10
I0
sS'phrases'
p11
NsS'syn_hypo'
p12
S''
sS'label'
p13
S'junior years start year'
p14
sS'range'
p15
S'g Year '
p16
sS'uniq_subjs'
p17
S'0'
sS'uniq_objs'
p18
I0
sS'prop_uri'
p19
S'http://dbpedia.org/ontology/juniorYearsStartYear'
p20
sS'annotations'
p21
(dp22
S'bag_of_words'
p23
(lp24
S'Person'
p25
aS'junior'
p26
aS'years'
p27
aS'start'
p28
aS'year'
p29
aS'g'
aS'Year'
p30
aS'00'
p31
asS'chunk_seq'
p32
(lp33
S'B-NP'
p34
aS'I-NP'
p35
aS'E-NP'
p36
aS'S-VP'
p37
aS'B-NP'
p38
aS'I-NP'
p39
aS'E-NP'
p40
aS'O'
asS'dep_seq'
p41
(lp42
(lp43
S'nn'
p44
aS'3'
aS'1'
aa(lp45
S'amod'
p46
aS'3'
aS'2'
aa(lp47
S'nsubj'
p48
aS'4'
aS'3'
aa(lp49
S'root'
p50
aS'0'
aS'4'
aa(lp51
S'nn'
p52
aS'7'
aS'5'
aa(lp53
S'nn'
p54
aS'7'
aS'6'
aa(lp55
S'tmod'
p56
aS'4'
aS'7'
aa(lp57
S'num'
p58
aS'7'
aS'8'
aasS'srls'
p59
(lp60
(dp61
S'A1'
p62
S'Person junior years'
p63
sS'AM-TMP'
p64
S'year g Year 00'
p65
sS'V'
g28
sasS'pos_seq'
p66
(lp67
S'NN'
p68
aS'JJ'
p69
aS'NNS'
p70
aS'VBP'
p71
aS'NN'
p72
aS'NN'
p73
aS'NN'
p74
aS'CD'
p75
asS'ner_seq'
p76
(lp77
S'O'
aS'O'
aS'O'
aS'O'
aS'O'
aS'O'
aS'O'
aS'O'
assb.