ccopy_reg
_reconstructor
p1
(c__main__
KBproperty
p2
c__builtin__
object
p3
NtRp4
(dp5
S'comment'
p6
S"Political party in the legislature eg.: European People's Party in the European Parliament.3547622"
p7
sS'domain'
p8
S'Legislature '
p9
sS'instances_count'
p10
I1405
sS'phrases'
p11
NsS'syn_hypo'
p12
S''
sS'label'
p13
S'political party in legislature'
p14
sS'range'
p15
S'Political Party '
p16
sS'uniq_subjs'
p17
S'1405'
p18
sS'uniq_objs'
p19
I0
sS'prop_uri'
p20
S'http://dbpedia.org/ontology/politicalPartyInLegislature'
p21
sS'annotations'
p22
(dp23
S'bag_of_words'
p24
(lp25
S'Legislature'
p26
aS'political'
p27
aS'party'
p28
aS'in'
p29
aS'legislature'
p30
aS'Political'
p31
aS'Party'
p32
aS'Political'
p33
aS'party'
p34
aS'in'
p35
aS'the'
p36
aS'legislature'
p37
aS'eg.'
p38
aS':'
aS'European'
p39
aS'People'
p40
aS"'s"
p41
aS'Party'
p42
aS'in'
p43
aS'the'
p44
aS'European'
p45
aS'Parliament.3547622'
p46
asS'chunk_seq'
p47
(lp48
S'B-NP'
p49
aS'I-NP'
p50
aS'E-NP'
p51
aS'S-PP'
p52
aS'B-NP'
p53
aS'I-NP'
p54
aS'I-NP'
p55
aS'I-NP'
p56
aS'E-NP'
p57
aS'S-PP'
p58
aS'B-NP'
p59
aS'E-NP'
p60
aS'S-ADVP'
p61
aS'O'
aS'B-NP'
p62
aS'E-NP'
p63
aS'B-NP'
p64
aS'E-NP'
p65
aS'S-PP'
p66
aS'B-NP'
p67
aS'I-NP'
p68
aS'E-NP'
p69
asS'dep_seq'
p70
(lp71
(lp72
S'nn'
p73
aS'3'
aS'1'
aa(lp74
S'amod'
p75
aS'3'
aS'2'
aa(lp76
S'dep'
p77
aS'18'
p78
aS'3'
aa(lp79
S'nn'
p80
aS'9'
aS'5'
aa(lp81
S'amod'
p82
aS'9'
aS'6'
aa(lp83
S'nn'
p84
aS'9'
aS'7'
aa(lp85
S'amod'
p86
aS'9'
aS'8'
aa(lp87
S'prep_in'
p88
aS'3'
aS'9'
aa(lp89
S'dep'
p90
aS'18'
p91
aS'10'
p92
aa(lp93
S'det'
p94
aS'12'
p95
aS'11'
p96
aa(lp97
S'pobj'
p98
aS'10'
p99
aS'12'
p100
aa(lp101
S'advmod'
p102
aS'18'
p103
aS'13'
p104
aa(lp105
S'amod'
p106
aS'16'
p107
aS'15'
p108
aa(lp109
S'poss'
p110
aS'18'
p111
aS'16'
p112
aa(lp113
S'root'
p114
aS'0'
aS'18'
p115
aa(lp116
S'det'
p117
aS'22'
p118
aS'20'
p119
aa(lp120
S'nn'
p121
aS'22'
p122
aS'21'
p123
aa(lp124
S'prep_in'
p125
aS'18'
p126
aS'22'
p127
aasS'srls'
p128
(lp129
sS'pos_seq'
p130
(lp131
S'NNP'
p132
aS'JJ'
p133
aS'NN'
p134
aS'IN'
p135
aS'NN'
p136
aS'JJ'
p137
aS'NNP'
p138
aS'JJ'
p139
aS'NN'
p140
aS'IN'
p141
aS'DT'
p142
aS'NN'
p143
aS'RB'
p144
aS':'
aS'JJ'
p145
aS'NNS'
p146
aS'POS'
p147
aS'NNP'
p148
aS'IN'
p149
aS'DT'
p150
aS'NNP'
p151
aS'NNP'
p152
asS'ner_seq'
p153
(lp154
S'O'
aS'O'
aS'O'
aS'O'
aS'O'
aS'B-ORG'
p155
aS'I-ORG'
p156
aS'I-ORG'
p157
aS'E-ORG'
p158
aS'O'
aS'O'
aS'O'
aS'O'
aS'O'
aS'B-ORG'
p159
aS'I-ORG'
p160
aS'I-ORG'
p161
aS'E-ORG'
p162
aS'O'
aS'O'
aS'B-MISC'
p163
aS'E-MISC'
p164
assb.