ccopy_reg
_reconstructor
p1
(c__main__
KBproperty
p2
c__builtin__
object
p3
NtRp4
(dp5
S'comment'
p6
S'38983835'
p7
sS'domain'
p8
S'Educational Institution '
p9
sS'instances_count'
p10
I2465
sS'phrases'
p11
NsS'syn_hypo'
p12
S''
sS'label'
p13
S'number of undergraduate students'
p14
sS'range'
p15
S'non Negative Integer '
p16
sS'uniq_subjs'
p17
S'2465'
p18
sS'uniq_objs'
p19
I0
sS'prop_uri'
p20
S'http://dbpedia.org/ontology/numberOfUndergraduateStudents'
p21
sS'annotations'
p22
(dp23
S'bag_of_words'
p24
(lp25
S'Educational'
p26
aS'Institution'
p27
aS'number'
p28
aS'of'
p29
aS'undergraduate'
p30
aS'students'
p31
aS'non'
p32
aS'Negative'
p33
aS'Integer'
p34
aS'38983835'
p35
asS'chunk_seq'
p36
(lp37
S'B-NP'
p38
aS'I-NP'
p39
aS'E-NP'
p40
aS'S-PP'
p41
aS'B-NP'
p42
aS'E-NP'
p43
aS'B-NP'
p44
aS'I-NP'
p45
aS'I-NP'
p46
aS'E-NP'
p47
asS'dep_seq'
p48
(lp49
(lp50
S'amod'
p51
aS'3'
aS'1'
aa(lp52
S'nn'
p53
aS'3'
aS'2'
aa(lp54
S'root'
p55
aS'0'
aS'3'
aa(lp56
S'amod'
p57
aS'6'
aS'5'
aa(lp58
S'prep_of'
p59
aS'3'
aS'6'
aa(lp60
S'dep'
p61
aS'3'
aS'7'
aa(lp62
S'amod'
p63
aS'10'
p64
aS'8'
aa(lp65
S'nn'
p66
aS'10'
p67
aS'9'
aa(lp68
S'dobj'
p69
aS'7'
aS'10'
p70
aasS'srls'
p71
(lp72
sS'pos_seq'
p73
(lp74
S'JJ'
p75
aS'NN'
p76
aS'NN'
p77
aS'IN'
p78
aS'JJ'
p79
aS'NNS'
p80
aS'VBP'
p81
aS'JJ'
p82
aS'NN'
p83
aS'NN'
p84
asS'ner_seq'
p85
(lp86
S'O'
aS'O'
aS'O'
aS'O'
aS'O'
aS'O'
aS'O'
aS'O'
aS'O'
aS'O'
assb.