ccopy_reg
_reconstructor
p1
(c__main__
KBproperty
p2
c__builtin__
object
p3
NtRp4
(dp5
S'comment'
p6
S'number of seats in the land parlement'
p7
sS'domain'
p8
S'Administrative Region '
p9
sS'instances_count'
p10
I0
sS'phrases'
p11
NsS'syn_hypo'
p12
S''
sS'label'
p13
g7
sS'range'
p14
S'non Negative Integer '
p15
sS'uniq_subjs'
p16
S'0'
sS'uniq_objs'
p17
I0
sS'prop_uri'
p18
S'http://dbpedia.org/ontology/seatNumber'
p19
sS'annotations'
p20
(dp21
S'bag_of_words'
p22
(lp23
S'Administrative'
p24
aS'Region'
p25
aS'seat'
p26
aS'Number'
p27
aS'non'
p28
aS'Negative'
p29
aS'Integer'
p30
aS'number'
p31
aS'of'
p32
aS'seats'
p33
aS'in'
p34
aS'the'
p35
aS'land'
p36
aS'parlement'
p37
asS'chunk_seq'
p38
(lp39
S'B-NP'
p40
aS'I-NP'
p41
aS'I-NP'
p42
aS'I-NP'
p43
aS'I-NP'
p44
aS'I-NP'
p45
aS'I-NP'
p46
aS'E-NP'
p47
aS'S-PP'
p48
aS'S-NP'
p49
aS'S-PP'
p50
aS'B-NP'
p51
aS'I-NP'
p52
aS'E-NP'
p53
asS'dep_seq'
p54
(lp55
(lp56
S'nn'
p57
aS'4'
aS'1'
aa(lp58
S'nn'
p59
aS'4'
aS'2'
aa(lp60
S'nn'
p61
aS'4'
aS'3'
aa(lp62
S'dep'
p63
aS'8'
aS'4'
aa(lp64
S'amod'
p65
aS'8'
aS'5'
aa(lp66
S'amod'
p67
aS'8'
aS'6'
aa(lp68
S'nn'
p69
aS'8'
aS'7'
aa(lp70
S'root'
p71
aS'0'
aS'8'
aa(lp72
S'prep_of'
p73
aS'8'
aS'10'
p74
aa(lp75
S'det'
p76
aS'14'
p77
aS'12'
p78
aa(lp79
S'nn'
p80
aS'14'
p81
aS'13'
p82
aa(lp83
S'prep_in'
p84
aS'10'
p85
aS'14'
p86
aasS'srls'
p87
(lp88
sS'pos_seq'
p89
(lp90
S'NNP'
p91
aS'NNP'
p92
aS'NN'
p93
aS'NNP'
p94
aS'JJ'
p95
aS'JJ'
p96
aS'NN'
p97
aS'NN'
p98
aS'IN'
p99
aS'NNS'
p100
aS'IN'
p101
aS'DT'
p102
aS'NN'
p103
aS'NN'
p104
asS'ner_seq'
p105
(lp106
S'B-MISC'
p107
aS'E-MISC'
p108
aS'O'
aS'O'
aS'O'
aS'O'
aS'O'
aS'O'
aS'O'
aS'O'
aS'O'
aS'O'
aS'O'
aS'O'
assb.