ccopy_reg
_reconstructor
p1
(c__main__
KBproperty
p2
c__builtin__
object
p3
NtRp4
(dp5
S'comment'
p6
S'person that first ascented a mountain'
p7
sS'domain'
p8
S'Mountain '
p9
sS'instances_count'
p10
I470
sS'phrases'
p11
NsS'syn_hypo'
p12
S''
sS'label'
p13
g7
sS'range'
p14
S'Person '
p15
sS'uniq_subjs'
p16
S'470'
p17
sS'uniq_objs'
p18
I0
sS'prop_uri'
p19
S'http://dbpedia.org/ontology/firstAscentPerson'
p20
sS'annotations'
p21
(dp22
S'bag_of_words'
p23
(lp24
S'Mountain'
p25
aS'first'
p26
aS'Ascent'
p27
aS'Person'
p28
aS'Person'
p29
aS'person'
p30
aS'that'
p31
aS'first'
p32
aS'ascented'
p33
aS'a'
aS'mountain'
p34
asS'chunk_seq'
p35
(lp36
S'B-NP'
p37
aS'I-NP'
p38
aS'I-NP'
p39
aS'I-NP'
p40
aS'I-NP'
p41
aS'E-NP'
p42
aS'S-SBAR'
p43
aS'S-ADVP'
p44
aS'S-VP'
p45
aS'B-NP'
p46
aS'E-NP'
p47
asS'dep_seq'
p48
(lp49
(lp50
S'nn'
p51
aS'6'
aS'1'
aa(lp52
S'amod'
p53
aS'6'
aS'2'
aa(lp54
S'nn'
p55
aS'6'
aS'3'
aa(lp56
S'nn'
p57
aS'6'
aS'4'
aa(lp58
S'nn'
p59
aS'6'
aS'5'
aa(lp60
S'root'
p61
aS'0'
aS'6'
aa(lp62
S'nsubj'
p63
aS'9'
aS'6'
aa(lp64
S'advmod'
p65
aS'9'
aS'8'
aa(lp66
S'rcmod'
p67
aS'6'
aS'9'
aa(lp68
S'det'
p69
aS'11'
p70
aS'10'
p71
aa(lp72
S'dobj'
p73
aS'9'
aS'11'
p74
aasS'srls'
p75
(lp76
(dp77
S'A1'
p78
S'a mountain'
p79
sS'A0'
p80
S'Mountain first Ascent Person Person person'
p81
sS'V'
g33
sS'R-A0'
p82
g31
sS'AM-TMP'
p83
g32
sasS'pos_seq'
p84
(lp85
S'NN'
p86
aS'JJ'
p87
aS'NN'
p88
aS'NN'
p89
aS'NN'
p90
aS'NN'
p91
aS'IN'
p92
aS'JJ'
p93
aS'VBD'
p94
aS'DT'
p95
aS'NN'
p96
asS'ner_seq'
p97
(lp98
S'S-ORG'
p99
aS'O'
aS'O'
aS'O'
aS'O'
aS'O'
aS'O'
aS'O'
aS'O'
aS'O'
aS'O'
assb.