ccopy_reg
_reconstructor
p1
(c__main__
KBproperty
p2
c__builtin__
object
p3
NtRp4
(dp5
S'comment'
p6
S'5938'
p7
sS'domain'
p8
S'Soccer Club '
p9
sS'instances_count'
p10
I58
sS'phrases'
p11
NsS'syn_hypo'
p12
S''
sS'label'
p13
S'first game'
p14
sS'range'
p15
S'string '
p16
sS'uniq_subjs'
p17
S'58'
p18
sS'uniq_objs'
p19
I0
sS'prop_uri'
p20
S'http://dbpedia.org/ontology/firstGame'
p21
sS'annotations'
p22
(dp23
S'bag_of_words'
p24
(lp25
S'Soccer'
p26
aS'Club'
p27
aS'first'
p28
aS'game'
p29
aS'string'
p30
aS'5938'
p31
asS'chunk_seq'
p32
(lp33
S'B-NP'
p34
aS'I-NP'
p35
aS'I-NP'
p36
aS'I-NP'
p37
aS'I-NP'
p38
aS'E-NP'
p39
asS'dep_seq'
p40
(lp41
(lp42
S'nn'
p43
aS'2'
aS'1'
aa(lp44
S'root'
p45
aS'0'
aS'2'
aa(lp46
S'amod'
p47
aS'6'
aS'3'
aa(lp48
S'nn'
p49
aS'6'
aS'4'
aa(lp50
S'nn'
p51
aS'6'
aS'5'
aa(lp52
S'dep'
p53
aS'2'
aS'6'
aasS'srls'
p54
(lp55
sS'pos_seq'
p56
(lp57
S'NNP'
p58
aS'NNP'
p59
aS'JJ'
p60
aS'NN'
p61
aS'NN'
p62
aS'NN'
p63
asS'ner_seq'
p64
(lp65
S'O'
aS'O'
aS'O'
aS'O'
aS'O'
aS'O'
assb.