ccopy_reg
_reconstructor
p1
(c__main__
KBproperty
p2
c__builtin__
object
p3
NtRp4
(dp5
S'comment'
p6
S'00'
p7
sS'domain'
p8
S'Place '
p9
sS'instances_count'
p10
I0
sS'phrases'
p11
NsS'syn_hypo'
p12
V
sS'label'
p13
S'relief'
p14
sS'range'
p15
S'string '
p16
sS'uniq_subjs'
p17
S'0'
sS'uniq_objs'
p18
I0
sS'prop_uri'
p19
S'http://dbpedia.org/ontology/relief'
p20
sS'annotations'
p21
(dp22
S'bag_of_words'
p23
(lp24
S'Place'
p25
aS'relief'
p26
aS'string'
p27
aS'00'
p28
asS'chunk_seq'
p29
(lp30
S'B-NP'
p31
aS'I-NP'
p32
aS'E-NP'
p33
aS'S-ADVP'
p34
asS'dep_seq'
p35
(lp36
(lp37
S'nn'
p38
aS'3'
aS'1'
aa(lp39
S'nn'
p40
aS'3'
aS'2'
aa(lp41
S'root'
p42
aS'0'
aS'3'
aa(lp43
S'advmod'
p44
aS'3'
aS'4'
aasS'srls'
p45
(lp46
sS'pos_seq'
p47
(lp48
S'NN'
p49
aS'NN'
p50
aS'NN'
p51
aS'CD'
p52
asS'ner_seq'
p53
(lp54
S'O'
aS'O'
aS'O'
aS'O'
assb.