ccopy_reg
_reconstructor
p1
(c__main__
KBproperty
p2
c__builtin__
object
p3
NtRp4
(dp5
S'comment'
p6
S'3030'
p7
sS'domain'
p8
S'River '
p9
sS'instances_count'
p10
I11
sS'phrases'
p11
NsS'syn_hypo'
p12
S''
sS'label'
p13
S'source confluence state'
p14
sS'range'
p15
S'Populated Place '
p16
sS'uniq_subjs'
p17
S'11'
p18
sS'uniq_objs'
p19
I0
sS'prop_uri'
p20
S'http://dbpedia.org/ontology/sourceConfluenceState'
p21
sS'annotations'
p22
(dp23
S'bag_of_words'
p24
(lp25
S'River'
p26
aS'source'
p27
aS'confluence'
p28
aS'state'
p29
aS'Populated'
p30
aS'Place'
p31
aS'3030'
p32
asS'chunk_seq'
p33
(lp34
S'B-NP'
p35
aS'I-NP'
p36
aS'I-NP'
p37
aS'I-NP'
p38
aS'I-NP'
p39
aS'E-NP'
p40
aS'O'
asS'dep_seq'
p41
(lp42
(lp43
S'nn'
p44
aS'6'
aS'1'
aa(lp45
S'nn'
p46
aS'6'
aS'2'
aa(lp47
S'nn'
p48
aS'6'
aS'3'
aa(lp49
S'nn'
p50
aS'6'
aS'4'
aa(lp51
S'amod'
p52
aS'6'
aS'5'
aa(lp53
S'root'
p54
aS'0'
aS'6'
aa(lp55
S'num'
p56
aS'6'
aS'7'
aasS'srls'
p57
(lp58
(dp59
S'A2'
p60
S'Place 3030'
p61
sS'V'
g30
sasS'pos_seq'
p62
(lp63
S'NN'
p64
aS'NN'
p65
aS'NN'
p66
aS'NN'
p67
aS'VBN'
p68
aS'NN'
p69
aS'CD'
p70
asS'ner_seq'
p71
(lp72
S'S-LOC'
p73
aS'O'
aS'O'
aS'O'
aS'O'
aS'O'
aS'O'
assb.