ccopy_reg
_reconstructor
p1
(c__main__
KBproperty
p2
c__builtin__
object
p3
NtRp4
(dp5
S'comment'
p6
S'00'
p7
sS'domain'
p8
S'Grave Monument '
p9
sS'instances_count'
p10
I0
sS'phrases'
p11
NsS'syn_hypo'
p12
S''
sS'label'
p13
S'in cemetery'
p14
sS'range'
p15
S'Cemetery '
p16
sS'uniq_subjs'
p17
S'0'
sS'uniq_objs'
p18
I0
sS'prop_uri'
p19
S'http://dbpedia.org/ontology/inCemetery'
p20
sS'annotations'
p21
(dp22
S'bag_of_words'
p23
(lp24
S'Grave'
p25
aS'Monument'
p26
aS'in'
p27
aS'cemetery'
p28
aS'Cemetery'
p29
aS'00'
p30
asS'chunk_seq'
p31
(lp32
S'B-NP'
p33
aS'E-NP'
p34
aS'S-PP'
p35
aS'B-NP'
p36
aS'E-NP'
p37
aS'S-ADVP'
p38
asS'dep_seq'
p39
(lp40
(lp41
S'amod'
p42
aS'2'
aS'1'
aa(lp43
S'root'
p44
aS'0'
aS'2'
aa(lp45
S'nn'
p46
aS'5'
aS'4'
aa(lp47
S'prep_in'
p48
aS'2'
aS'5'
aa(lp49
S'num'
p50
aS'5'
aS'6'
aasS'srls'
p51
(lp52
sS'pos_seq'
p53
(lp54
S'JJ'
p55
aS'NN'
p56
aS'IN'
p57
aS'NN'
p58
aS'NN'
p59
aS'CD'
p60
asS'ner_seq'
p61
(lp62
S'O'
aS'O'
aS'O'
aS'O'
aS'O'
aS'O'
assb.