ccopy_reg
_reconstructor
p1
(c__main__
KBproperty
p2
c__builtin__
object
p3
NtRp4
(dp5
S'comment'
p6
S'1034928'
p7
sS'domain'
p8
S'Educational Institution '
p9
sS'instances_count'
p10
I814
sS'phrases'
p11
NsS'syn_hypo'
p12
Vhuman_head
p13
sS'label'
p14
S'head'
p15
sS'range'
p16
S'Person '
p17
sS'uniq_subjs'
p18
S'814'
p19
sS'uniq_objs'
p20
I0
sS'prop_uri'
p21
S'http://dbpedia.org/ontology/head'
p22
sS'annotations'
p23
(dp24
S'bag_of_words'
p25
(lp26
S'Educational'
p27
aS'Institution'
p28
aS'head'
p29
aS'Person'
p30
aS'1034928'
p31
asS'chunk_seq'
p32
(lp33
S'B-NP'
p34
aS'I-NP'
p35
aS'I-NP'
p36
aS'E-NP'
p37
aS'S-ADJP'
p38
asS'dep_seq'
p39
(lp40
(lp41
S'nn'
p42
aS'4'
aS'1'
aa(lp43
S'nn'
p44
aS'4'
aS'2'
aa(lp45
S'amod'
p46
aS'4'
aS'3'
aa(lp47
S'root'
p48
aS'0'
aS'4'
aa(lp49
S'dep'
p50
aS'4'
aS'5'
aasS'srls'
p51
(lp52
sS'pos_seq'
p53
(lp54
S'NNP'
p55
aS'NNP'
p56
aS'JJ'
p57
aS'NN'
p58
aS'.'
asS'ner_seq'
p59
(lp60
S'B-ORG'
p61
aS'E-ORG'
p62
aS'O'
aS'O'
aS'O'
assb.