ccopy_reg
_reconstructor
p1
(c__main__
KBproperty
p2
c__builtin__
object
p3
NtRp4
(dp5
S'comment'
p6
S'A current member of an athletic team.00'
p7
sS'domain'
p8
S'Sports Team '
p9
sS'instances_count'
p10
I0
sS'phrases'
p11
NsS'syn_hypo'
p12
S''
sS'label'
p13
S'current team member'
p14
sS'range'
p15
S'Team Member '
p16
sS'uniq_subjs'
p17
S'0'
sS'uniq_objs'
p18
I0
sS'prop_uri'
p19
S'http://dbpedia.org/ontology/currentTeamMember'
p20
sS'annotations'
p21
(dp22
S'bag_of_words'
p23
(lp24
S'Sports'
p25
aS'Team'
p26
aS'current'
p27
aS'team'
p28
aS'member'
p29
aS'Team'
p30
aS'Member'
p31
aS'A'
aS'current'
p32
aS'member'
p33
aS'of'
p34
aS'an'
p35
aS'athletic'
p36
aS'team.00'
p37
asS'chunk_seq'
p38
(lp39
S'B-NP'
p40
aS'I-NP'
p41
aS'I-NP'
p42
aS'I-NP'
p43
aS'I-NP'
p44
aS'I-NP'
p45
aS'E-NP'
p46
aS'B-NP'
p47
aS'I-NP'
p48
aS'E-NP'
p49
aS'S-PP'
p50
aS'B-NP'
p51
aS'I-NP'
p52
aS'E-NP'
p53
asS'dep_seq'
p54
(lp55
(lp56
S'nn'
p57
aS'7'
aS'1'
aa(lp58
S'nn'
p59
aS'7'
aS'2'
aa(lp60
S'amod'
p61
aS'7'
aS'3'
aa(lp62
S'nn'
p63
aS'7'
aS'4'
aa(lp64
S'nn'
p65
aS'7'
aS'5'
aa(lp66
S'nn'
p67
aS'7'
aS'6'
aa(lp68
S'dep'
p69
aS'10'
p70
aS'7'
aa(lp71
S'nn'
p72
aS'10'
p73
aS'8'
aa(lp74
S'amod'
p75
aS'10'
p76
aS'9'
aa(lp77
S'root'
p78
aS'0'
aS'10'
p79
aa(lp80
S'det'
p81
aS'14'
p82
aS'12'
p83
aa(lp84
S'amod'
p85
aS'14'
p86
aS'13'
p87
aa(lp88
S'prep_of'
p89
aS'10'
p90
aS'14'
p91
aasS'srls'
p92
(lp93
sS'pos_seq'
p94
(lp95
S'NNP'
p96
aS'NNP'
p97
aS'JJ'
p98
aS'NN'
p99
aS'NN'
p100
aS'NNP'
p101
aS'NNP'
p102
aS'NNP'
p103
aS'JJ'
p104
aS'NN'
p105
aS'IN'
p106
aS'DT'
p107
aS'JJ'
p108
aS'NN'
p109
asS'ner_seq'
p110
(lp111
S'B-ORG'
p112
aS'E-ORG'
p113
aS'O'
aS'O'
aS'O'
aS'O'
aS'O'
aS'O'
aS'O'
aS'O'
aS'O'
aS'O'
aS'O'
aS'O'
assb.