ccopy_reg
_reconstructor
p1
(c__main__
KBproperty
p2
c__builtin__
object
p3
NtRp4
(dp5
S'comment'
p6
S"Information on station's parking facilities.47554633"
p7
sS'domain'
p8
S'Station '
p9
sS'instances_count'
p10
I1680
sS'phrases'
p11
NsS'syn_hypo'
p12
S''
sS'label'
p13
S'parking information'
p14
sS'range'
p15
S'string '
p16
sS'uniq_subjs'
p17
S'1680'
p18
sS'uniq_objs'
p19
I0
sS'prop_uri'
p20
S'http://dbpedia.org/ontology/parkingInformation'
p21
sS'annotations'
p22
(dp23
S'bag_of_words'
p24
(lp25
S'Station'
p26
aS'parking'
p27
aS'information'
p28
aS'string'
p29
aS'Information'
p30
aS'on'
p31
aS'station'
p32
aS"'s"
p33
aS'parking'
p34
aS'facilities.47554633'
p35
asS'chunk_seq'
p36
(lp37
S'B-NP'
p38
aS'I-NP'
p39
aS'I-NP'
p40
aS'I-NP'
p41
aS'E-NP'
p42
aS'S-PP'
p43
aS'S-NP'
p44
aS'B-NP'
p45
aS'I-NP'
p46
aS'E-NP'
p47
asS'dep_seq'
p48
(lp49
(lp50
S'nn'
p51
aS'5'
aS'1'
aa(lp52
S'nn'
p53
aS'5'
aS'2'
aa(lp54
S'nn'
p55
aS'5'
aS'3'
aa(lp56
S'nn'
p57
aS'5'
aS'4'
aa(lp58
S'root'
p59
aS'0'
aS'5'
aa(lp60
S'poss'
p61
aS'9'
aS'7'
aa(lp62
S'prep_on'
p63
aS'5'
aS'9'
aa(lp64
S'punct'
p65
aS'9'
aS'10'
p66
aasS'srls'
p67
(lp68
sS'pos_seq'
p69
(lp70
S'NN'
p71
aS'NN'
p72
aS'NN'
p73
aS'NN'
p74
aS'NN'
p75
aS'IN'
p76
aS'NN'
p77
aS'POS'
p78
aS'NN'
p79
aS'.'
asS'ner_seq'
p80
(lp81
S'O'
aS'O'
aS'O'
aS'O'
aS'O'
aS'O'
aS'O'
aS'O'
aS'O'
aS'O'
assb.