ccopy_reg
_reconstructor
p1
(c__main__
KBproperty
p2
c__builtin__
object
p3
NtRp4
(dp5
S'comment'
p6
S'00'
p7
sS'domain'
p8
S'Boxer '
p9
sS'instances_count'
p10
I0
sS'phrases'
p11
NsS'syn_hypo'
p12
Vheartbreakerdefeatlickinglurchdefeatlickingroutdefeatlickingshutoutdefeatlickingskunkdefeatlickingthrashingdefeatlickingwallopingdefeatlickingdebacledefeatlickingdrubbingdefeatlickingslaughterdefeatlickingtrouncingdefeatlickingwhippingdefeatlickingwaterloodefeatlickingwhitewash
p13
sS'label'
p14
S'defeat'
p15
sS'range'
p16
S'non Negative Integer '
p17
sS'uniq_subjs'
p18
S'0'
sS'uniq_objs'
p19
I0
sS'prop_uri'
p20
S'http://dbpedia.org/ontology/defeat'
p21
sS'annotations'
p22
(dp23
S'bag_of_words'
p24
(lp25
S'Boxer'
p26
aS'defeat'
p27
aS'non'
p28
aS'Negative'
p29
aS'Integer'
p30
aS'00'
p31
asS'chunk_seq'
p32
(lp33
S'S-NP'
p34
aS'S-VP'
p35
aS'B-NP'
p36
aS'I-NP'
p37
aS'E-NP'
p38
aS'O'
asS'dep_seq'
p39
(lp40
(lp41
S'root'
p42
aS'0'
aS'1'
aa(lp43
S'prep'
p44
aS'1'
aS'2'
aa(lp45
S'amod'
p46
aS'5'
aS'3'
aa(lp47
S'amod'
p48
aS'5'
aS'4'
aa(lp49
S'dep'
p50
aS'2'
aS'5'
aa(lp51
S'num'
p52
aS'5'
aS'6'
aasS'srls'
p53
(lp54
(dp55
S'A1'
p56
S'non Negative Integer 00'
p57
sS'V'
g27
sasS'pos_seq'
p58
(lp59
S'NN'
p60
aS'VB'
p61
aS'JJ'
p62
aS'JJ'
p63
aS'NN'
p64
aS'CD'
p65
asS'ner_seq'
p66
(lp67
S'O'
aS'O'
aS'O'
aS'O'
aS'O'
aS'O'
assb.