ccopy_reg
_reconstructor
p1
(c__main__
KBproperty
p2
c__builtin__
object
p3
NtRp4
(dp5
S'comment'
p6
S'4343'
p7
sS'domain'
p8
S'Mean Of Transportation '
p9
sS'instances_count'
p10
I42
sS'phrases'
p11
NsS'syn_hypo'
p12
S''
sS'label'
p13
S'introduction date'
p14
sS'range'
p15
S'date '
p16
sS'uniq_subjs'
p17
S'42'
p18
sS'uniq_objs'
p19
I0
sS'prop_uri'
p20
S'http://dbpedia.org/ontology/introductionDate'
p21
sS'annotations'
p22
(dp23
S'bag_of_words'
p24
(lp25
S'Mean'
p26
aS'Of'
p27
aS'Transportation'
p28
aS'introduction'
p29
aS'date'
p30
aS'date'
p31
aS'4343'
p32
asS'chunk_seq'
p33
(lp34
S'S-NP'
p35
aS'S-PP'
p36
aS'B-NP'
p37
aS'E-NP'
p38
aS'S-VP'
p39
aS'B-NP'
p40
aS'E-NP'
p41
asS'dep_seq'
p42
(lp43
(lp44
S'root'
p45
aS'0'
aS'1'
aa(lp46
S'prep_of'
p47
aS'1'
aS'3'
aa(lp48
S'nn'
p49
aS'7'
aS'4'
aa(lp50
S'nn'
p51
aS'7'
aS'5'
aa(lp52
S'nn'
p53
aS'7'
aS'6'
aa(lp54
S'dep'
p55
aS'1'
aS'7'
aasS'srls'
p56
(lp57
sS'pos_seq'
p58
(lp59
S'NNP'
p60
aS'IN'
p61
aS'NNP'
p62
aS'NN'
p63
aS'NN'
p64
aS'NN'
p65
aS'NN'
p66
asS'ner_seq'
p67
(lp68
S'O'
aS'B-ORG'
p69
aS'E-ORG'
p70
aS'O'
aS'O'
aS'O'
aS'O'
assb.