ccopy_reg
_reconstructor
p1
(c__main__
KBproperty
p2
c__builtin__
object
p3
NtRp4
(dp5
S'comment'
p6
S'The duration of the item movie audio recording event etc. in ISO 8601 date format5955'
p7
sS'domain'
p8
S'Event '
p9
sS'instances_count'
p10
I59
sS'phrases'
p11
NsS'syn_hypo'
p12
S''
sS'label'
p13
S'duration s'
p14
sS'range'
p15
S'double '
p16
sS'uniq_subjs'
p17
S'36'
p18
sS'uniq_objs'
p19
I0
sS'prop_uri'
p20
S'http://dbpedia.org/ontology/duration'
p21
sS'annotations'
p22
(dp23
S'bag_of_words'
p24
(lp25
S'Event'
p26
aS'duration'
p27
aS's'
aS'double'
p28
aS'The'
p29
aS'duration'
p30
aS'of'
p31
aS'the'
p32
aS'item'
p33
aS'movie'
p34
aS'audio'
p35
aS'recording'
p36
aS'event'
p37
aS'etc.'
p38
aS'in'
p39
aS'ISO'
p40
aS'8601'
p41
aS'date'
p42
aS'format5955'
p43
asS'chunk_seq'
p44
(lp45
S'B-NP'
p46
aS'E-NP'
p47
aS'S-VP'
p48
aS'B-NP'
p49
aS'I-NP'
p50
aS'E-NP'
p51
aS'S-PP'
p52
aS'B-NP'
p53
aS'I-NP'
p54
aS'I-NP'
p55
aS'I-NP'
p56
aS'I-NP'
p57
aS'I-NP'
p58
aS'E-NP'
p59
aS'S-PP'
p60
aS'B-NP'
p61
aS'I-NP'
p62
aS'E-NP'
p63
aS'S-NP'
p64
asS'dep_seq'
p65
(lp66
(lp67
S'nn'
p68
aS'2'
aS'1'
aa(lp69
S'nsubj'
p70
aS'6'
aS'2'
aa(lp71
S'dep'
p72
aS'6'
aS'3'
aa(lp73
S'advmod'
p74
aS'6'
aS'4'
aa(lp75
S'det'
p76
aS'6'
aS'5'
aa(lp77
S'root'
p78
aS'0'
aS'6'
aa(lp79
S'det'
p80
aS'14'
p81
aS'8'
aa(lp82
S'nn'
p83
aS'14'
p84
aS'9'
aa(lp85
S'nn'
p86
aS'14'
p87
aS'10'
p88
aa(lp89
S'nn'
p90
aS'14'
p91
aS'11'
p92
aa(lp93
S'nn'
p94
aS'14'
p95
aS'12'
p96
aa(lp97
S'nn'
p98
aS'14'
p99
aS'13'
p100
aa(lp101
S'prep_of'
p102
aS'6'
aS'14'
p103
aa(lp104
S'nn'
p105
aS'19'
p106
aS'16'
p107
aa(lp108
S'num'
p109
aS'19'
p110
aS'17'
p111
aa(lp112
S'nn'
p113
aS'19'
p114
aS'18'
p115
aa(lp116
S'prep_in'
p117
aS'6'
aS'19'
p118
aasS'srls'
p119
(lp120
sS'pos_seq'
p121
(lp122
S'NN'
p123
aS'NN'
p124
aS'MD'
p125
aS'RB'
p126
aS'DT'
p127
aS'NN'
p128
aS'IN'
p129
aS'DT'
p130
aS'NN'
p131
aS'NN'
p132
aS'NN'
p133
aS'NN'
p134
aS'NN'
p135
aS'NN'
p136
aS'IN'
p137
aS'NNP'
p138
aS'CD'
p139
aS'NN'
p140
aS'NN'
p141
asS'ner_seq'
p142
(lp143
S'O'
aS'O'
aS'O'
aS'O'
aS'O'
aS'O'
aS'O'
aS'O'
aS'O'
aS'O'
aS'O'
aS'O'
aS'O'
aS'O'
aS'O'
aS'B-MISC'
p144
aS'E-MISC'
p145
aS'O'
aS'O'
assb.