ccopy_reg
_reconstructor
p1
(c__main__
KBproperty
p2
c__builtin__
object
p3
NtRp4
(dp5
S'comment'
p6
S'Serving temperature for the food e.g.: hot cold warm or room temperature.762759'
p7
sS'domain'
p8
S'Food '
p9
sS'instances_count'
p10
I762
sS'phrases'
p11
NsS'syn_hypo'
p12
S''
sS'label'
p13
S'serving temperature'
p14
sS'range'
p15
S'string '
p16
sS'uniq_subjs'
p17
S'140'
p18
sS'uniq_objs'
p19
I0
sS'prop_uri'
p20
S'http://dbpedia.org/ontology/servingTemperature'
p21
sS'annotations'
p22
(dp23
S'bag_of_words'
p24
(lp25
S'Food'
p26
aS'serving'
p27
aS'temperature'
p28
aS'string'
p29
aS'Serving'
p30
aS'temperature'
p31
aS'for'
p32
aS'the'
p33
aS'food'
p34
aS'e.g.'
p35
aS':'
aS'hot'
p36
aS'cold'
p37
aS'warm'
p38
aS'or'
p39
aS'room'
p40
aS'temperature.762759'
p41
asS'chunk_seq'
p42
(lp43
S'S-NP'
p44
aS'S-VP'
p45
aS'B-NP'
p46
aS'E-NP'
p47
aS'S-VP'
p48
aS'S-NP'
p49
aS'S-PP'
p50
aS'B-NP'
p51
aS'E-NP'
p52
aS'S-ADVP'
p53
aS'O'
aS'B-NP'
p54
aS'I-NP'
p55
aS'I-NP'
p56
aS'I-NP'
p57
aS'E-NP'
p58
aS'S-ADJP'
p59
asS'dep_seq'
p60
(lp61
(lp62
S'nsubj'
p63
aS'2'
aS'1'
aa(lp64
S'root'
p65
aS'0'
aS'2'
aa(lp66
S'nn'
p67
aS'4'
aS'3'
aa(lp68
S'dobj'
p69
aS'2'
aS'4'
aa(lp70
S'partmod'
p71
aS'4'
aS'5'
aa(lp72
S'dobj'
p73
aS'5'
aS'6'
aa(lp74
S'det'
p75
aS'9'
aS'8'
aa(lp76
S'prep_for'
p77
aS'6'
aS'9'
aa(lp78
S'advmod'
p79
aS'5'
aS'10'
p80
aa(lp81
S'amod'
p82
aS'14'
p83
aS'12'
p84
aa(lp85
S'amod'
p86
aS'14'
p87
aS'13'
p88
aa(lp89
S'dep'
p90
aS'2'
aS'14'
p91
aa(lp92
S'conj_or'
p93
aS'14'
p94
aS'16'
p95
aa(lp96
S'punct'
p97
aS'16'
p98
aS'17'
p99
aasS'srls'
p100
(lp101
(dp102
S'A1'
p103
S'temperature string Serving temperature'
p104
sS'A0'
p105
g26
sS'AM-PNC'
p106
S'for the food e.g. : hot cold warm or room temperature.762759'
p107
sS'V'
g27
sa(dp108
S'A1'
p109
g31
sS'A0'
p110
S'Food serving temperature string'
p111
sS'A2'
p112
S'for the food e.g. : hot cold warm or room temperature.762759'
p113
sS'V'
g30
sasS'pos_seq'
p114
(lp115
S'NN'
p116
aS'VBG'
p117
aS'NN'
p118
aS'NN'
p119
aS'VBG'
p120
aS'NN'
p121
aS'IN'
p122
aS'DT'
p123
aS'NN'
p124
aS'RB'
p125
aS':'
aS'JJ'
p126
aS'JJ'
p127
aS'JJ'
p128
aS'CC'
p129
aS'NN'
p130
aS'.'
asS'ner_seq'
p131
(lp132
S'O'
aS'O'
aS'O'
aS'O'
aS'O'
aS'O'
aS'O'
aS'O'
aS'O'
aS'O'
aS'O'
aS'O'
aS'O'
aS'O'
aS'O'
aS'O'
aS'O'
assb.