ccopy_reg
_reconstructor
p1
(c__main__
KBproperty
p2
c__builtin__
object
p3
NtRp4
(dp5
S'comment'
p6
S'leading judge00'
p7
sS'domain'
p8
S'Legal Case '
p9
sS'instances_count'
p10
I0
sS'phrases'
p11
NsS'syn_hypo'
p12
Valcaldejudgejusticejuristchief_justicejudgejusticejuristDanieljudgejusticejuristdogejudgejusticejuristjusticiarjudgejusticejuristjusticiaryjudgejusticejuristmagistratejudgejusticejuristordinaryjudgejusticejuristpraetorjudgejusticejuristpretorjudgejusticejuristqadijudgejusticejuristrecorderjudgejusticejuristtrial_judgejudgejusticejuristtrier
p13
sS'label'
p14
S'judge'
p15
sS'range'
p16
S'Judge '
p17
sS'uniq_subjs'
p18
S'0'
sS'uniq_objs'
p19
I0
sS'prop_uri'
p20
S'http://dbpedia.org/ontology/judge'
p21
sS'annotations'
p22
(dp23
S'bag_of_words'
p24
(lp25
S'Legal'
p26
aS'Case'
p27
aS'judge'
p28
aS'Judge'
p29
aS'leading'
p30
aS'judge00'
p31
asS'chunk_seq'
p32
(lp33
S'B-NP'
p34
aS'I-NP'
p35
aS'I-NP'
p36
aS'I-NP'
p37
aS'I-NP'
p38
aS'E-NP'
p39
asS'dep_seq'
p40
(lp41
(lp42
S'amod'
p43
aS'6'
aS'1'
aa(lp44
S'nn'
p45
aS'6'
aS'2'
aa(lp46
S'nn'
p47
aS'6'
aS'3'
aa(lp48
S'nn'
p49
aS'6'
aS'4'
aa(lp50
S'amod'
p51
aS'6'
aS'5'
aa(lp52
S'root'
p53
aS'0'
aS'6'
aasS'srls'
p54
(lp55
(dp56
S'A0'
p57
S'Legal Case judge Judge judge00'
p58
sS'V'
g30
sasS'pos_seq'
p59
(lp60
S'JJ'
p61
aS'NN'
p62
aS'NN'
p63
aS'NNP'
p64
aS'VBG'
p65
aS'NN'
p66
asS'ner_seq'
p67
(lp68
S'O'
aS'O'
aS'O'
aS'O'
aS'O'
aS'O'
assb.