ccopy_reg
_reconstructor
p1
(c__main__
KBproperty
p2
c__builtin__
object
p3
NtRp4
(dp5
S'comment'
p6
S'2121'
p7
sS'domain'
p8
S'Formula One Racer '
p9
sS'instances_count'
p10
I18
sS'phrases'
p11
NsS'syn_hypo'
p12
S''
sS'label'
p13
S'last position'
p14
sS'range'
p15
S'positive Integer '
p16
sS'uniq_subjs'
p17
S'18'
p18
sS'uniq_objs'
p19
I0
sS'prop_uri'
p20
S'http://dbpedia.org/ontology/lastPosition'
p21
sS'annotations'
p22
(dp23
S'bag_of_words'
p24
(lp25
S'Formula'
p26
aS'One'
p27
aS'Racer'
p28
aS'last'
p29
aS'position'
p30
aS'positive'
p31
aS'Integer'
p32
aS'2121'
p33
asS'chunk_seq'
p34
(lp35
S'B-NP'
p36
aS'I-NP'
p37
aS'E-NP'
p38
aS'B-NP'
p39
aS'E-NP'
p40
aS'B-NP'
p41
aS'I-NP'
p42
aS'E-NP'
p43
asS'dep_seq'
p44
(lp45
(lp46
S'dep'
p47
aS'8'
aS'1'
aa(lp48
S'num'
p49
aS'3'
aS'2'
aa(lp50
S'dep'
p51
aS'8'
aS'3'
aa(lp52
S'amod'
p53
aS'5'
aS'4'
aa(lp54
S'dep'
p55
aS'3'
aS'5'
aa(lp56
S'amod'
p57
aS'8'
aS'6'
aa(lp58
S'nn'
p59
aS'8'
aS'7'
aa(lp60
S'root'
p61
aS'0'
aS'8'
aasS'srls'
p62
(lp63
sS'pos_seq'
p64
(lp65
S'NN'
p66
aS'CD'
p67
aS'NNP'
p68
aS'JJ'
p69
aS'NN'
p70
aS'JJ'
p71
aS'NN'
p72
aS'NN'
p73
asS'ner_seq'
p74
(lp75
S'O'
aS'O'
aS'O'
aS'O'
aS'O'
aS'O'
aS'O'
aS'O'
assb.