ccopy_reg
_reconstructor
p1
(c__main__
KBproperty
p2
c__builtin__
object
p3
NtRp4
(dp5
S'comment'
p6
S'773755'
p7
sS'domain'
p8
S'Political Party '
p9
sS'instances_count'
p10
I513
sS'phrases'
p11
NsS'syn_hypo'
p12
S''
sS'label'
p13
S'split from party'
p14
sS'range'
p15
S'Political Party '
p16
sS'uniq_subjs'
p17
S'513'
p18
sS'uniq_objs'
p19
I0
sS'prop_uri'
p20
S'http://dbpedia.org/ontology/splitFromParty'
p21
sS'annotations'
p22
(dp23
S'bag_of_words'
p24
(lp25
S'Political'
p26
aS'Party'
p27
aS'split'
p28
aS'from'
p29
aS'party'
p30
aS'Political'
p31
aS'Party'
p32
aS'773755'
p33
asS'chunk_seq'
p34
(lp35
S'B-NP'
p36
aS'I-NP'
p37
aS'E-NP'
p38
aS'S-PP'
p39
aS'B-NP'
p40
aS'I-NP'
p41
aS'I-NP'
p42
aS'E-NP'
p43
asS'dep_seq'
p44
(lp45
(lp46
S'amod'
p47
aS'2'
aS'1'
aa(lp48
S'nsubj'
p49
aS'3'
aS'2'
aa(lp50
S'root'
p51
aS'0'
aS'3'
aa(lp52
S'nn'
p53
aS'8'
aS'5'
aa(lp54
S'amod'
p55
aS'8'
aS'6'
aa(lp56
S'nn'
p57
aS'8'
aS'7'
aa(lp58
S'prep_from'
p59
aS'3'
aS'8'
aasS'srls'
p60
(lp61
sS'pos_seq'
p62
(lp63
S'JJ'
p64
aS'NNP'
p65
aS'NN'
p66
aS'IN'
p67
aS'NN'
p68
aS'JJ'
p69
aS'NNP'
p70
aS'NN'
p71
asS'ner_seq'
p72
(lp73
S'B-ORG'
p74
aS'E-ORG'
p75
aS'O'
aS'O'
aS'O'
aS'B-ORG'
p76
aS'E-ORG'
p77
aS'O'
assb.