ccopy_reg
_reconstructor
p1
(c__main__
KBproperty
p2
c__builtin__
object
p3
NtRp4
(dp5
S'comment'
p6
S'10971094'
p7
sS'domain'
p8
S'Software '
p9
sS'instances_count'
p10
I40
sS'phrases'
p11
NsS'syn_hypo'
p12
S''
sS'label'
p13
S'frequently updated'
p14
sS'range'
p15
S'string '
p16
sS'uniq_subjs'
p17
S'40'
p18
sS'uniq_objs'
p19
I0
sS'prop_uri'
p20
S'http://dbpedia.org/ontology/frequentlyUpdated'
p21
sS'annotations'
p22
(dp23
S'bag_of_words'
p24
(lp25
S'Software'
p26
aS'frequently'
p27
aS'updated'
p28
aS'string'
p29
aS'10971094'
p30
asS'chunk_seq'
p31
(lp32
S'S-NP'
p33
aS'S-ADVP'
p34
aS'B-NP'
p35
aS'E-NP'
p36
aS'O'
asS'dep_seq'
p37
(lp38
(lp39
S'nsubj'
p40
aS'3'
aS'1'
aa(lp41
S'advmod'
p42
aS'3'
aS'2'
aa(lp43
S'root'
p44
aS'0'
aS'3'
aa(lp45
S'dobj'
p46
aS'3'
aS'4'
aa(lp47
S'punct'
p48
aS'4'
aS'5'
aasS'srls'
p49
(lp50
(dp51
S'A1'
p52
S'string 10971094'
p53
sS'A0'
p54
g26
sS'AM-TMP'
p55
g27
sS'V'
g28
sasS'pos_seq'
p56
(lp57
S'NN'
p58
aS'RB'
p59
aS'VBN'
p60
aS'NN'
p61
aS'.'
asS'ner_seq'
p62
(lp63
S'O'
aS'O'
aS'O'
aS'O'
aS'O'
assb.