ccopy_reg
_reconstructor
p1
(c__main__
KBproperty
p2
c__builtin__
object
p3
NtRp4
(dp5
S'comment'
p6
S'00'
p7
sS'domain'
p8
S'Person '
p9
sS'instances_count'
p10
I0
sS'phrases'
p11
NsS'syn_hypo'
p12
S''
sS'label'
p13
S'pro since'
p14
sS'range'
p15
S'string '
p16
sS'uniq_subjs'
p17
S'0'
sS'uniq_objs'
p18
I0
sS'prop_uri'
p19
S'http://dbpedia.org/ontology/proSince'
p20
sS'annotations'
p21
(dp22
S'bag_of_words'
p23
(lp24
S'Person'
p25
aS'pro'
p26
aS'since'
p27
aS'string'
p28
aS'00'
p29
asS'chunk_seq'
p30
(lp31
S'S-NP'
p32
aS'S-ADVP'
p33
aS'S-PP'
p34
aS'B-NP'
p35
aS'E-NP'
p36
asS'dep_seq'
p37
(lp38
(lp39
S'root'
p40
aS'0'
aS'1'
aa(lp41
S'advmod'
p42
aS'1'
aS'2'
aa(lp43
S'prep_since'
p44
aS'1'
aS'4'
aa(lp45
S'num'
p46
aS'4'
aS'5'
aasS'srls'
p47
(lp48
sS'pos_seq'
p49
(lp50
S'NN'
p51
aS'RB'
p52
aS'IN'
p53
aS'NN'
p54
aS'CD'
p55
asS'ner_seq'
p56
(lp57
S'O'
aS'O'
aS'O'
aS'O'
aS'O'
assb.