ccopy_reg
_reconstructor
p1
(c__main__
KBproperty
p2
c__builtin__
object
p3
NtRp4
(dp5
S'comment'
p6
S'The places and time where the play takes place.11691074'
p7
sS'domain'
p8
S'Play '
p9
sS'instances_count'
p10
I1087
sS'phrases'
p11
NsS'syn_hypo'
p12
S''
sS'label'
p13
S'setting of play'
p14
sS'range'
p15
S'string '
p16
sS'uniq_subjs'
p17
S'1087'
p18
sS'uniq_objs'
p19
I0
sS'prop_uri'
p20
S'http://dbpedia.org/ontology/settingOfPlay'
p21
sS'annotations'
p22
(dp23
S'bag_of_words'
p24
(lp25
S'Play'
p26
aS'setting'
p27
aS'of'
p28
aS'play'
p29
aS'string'
p30
aS'The'
p31
aS'places'
p32
aS'and'
p33
aS'time'
p34
aS'where'
p35
aS'the'
p36
aS'play'
p37
aS'takes'
p38
aS'place.11691074'
p39
asS'chunk_seq'
p40
(lp41
S'B-NP'
p42
aS'E-NP'
p43
aS'S-PP'
p44
aS'B-NP'
p45
aS'E-NP'
p46
aS'B-NP'
p47
aS'I-NP'
p48
aS'I-NP'
p49
aS'E-NP'
p50
aS'S-ADVP'
p51
aS'B-NP'
p52
aS'E-NP'
p53
aS'S-VP'
p54
aS'S-NP'
p55
asS'dep_seq'
p56
(lp57
(lp58
S'nn'
p59
aS'2'
aS'1'
aa(lp60
S'dep'
p61
aS'14'
p62
aS'2'
aa(lp63
S'dep'
p64
aS'14'
p65
aS'3'
aa(lp66
S'nn'
p67
aS'5'
aS'4'
aa(lp68
S'pobj'
p69
aS'3'
aS'5'
aa(lp70
S'det'
p71
aS'7'
aS'6'
aa(lp72
S'dep'
p73
aS'14'
p74
aS'7'
aa(lp75
S'conj_and'
p76
aS'7'
aS'9'
aa(lp77
S'advmod'
p78
aS'14'
p79
aS'10'
p80
aa(lp81
S'det'
p82
aS'12'
p83
aS'11'
p84
aa(lp85
S'dep'
p86
aS'14'
p87
aS'12'
p88
aa(lp89
S'dep'
p90
aS'14'
p91
aS'13'
p92
aa(lp93
S'root'
p94
aS'0'
aS'14'
p95
aasS'srls'
p96
(lp97
(dp98
S'A1'
p99
g39
sS'A0'
p100
S'the play'
p101
sS'V'
g38
sasS'pos_seq'
p102
(lp103
S'NN'
p104
aS'NN'
p105
aS'IN'
p106
aS'NN'
p107
aS'NN'
p108
aS'DT'
p109
aS'NNS'
p110
aS'CC'
p111
aS'NN'
p112
aS'WRB'
p113
aS'DT'
p114
aS'NN'
p115
aS'VBZ'
p116
aS'NN'
p117
asS'ner_seq'
p118
(lp119
S'O'
aS'O'
aS'O'
aS'O'
aS'O'
aS'O'
aS'O'
aS'O'
aS'O'
aS'O'
aS'O'
aS'O'
aS'O'
aS'O'
assb.