ccopy_reg
_reconstructor
p1
(c__main__
KBproperty
p2
c__builtin__
object
p3
NtRp4
(dp5
S'comment'
p6
S'13251035'
p7
sS'domain'
p8
S'Broadcaster '
p9
sS'instances_count'
p10
I1280
sS'phrases'
p11
NsS'syn_hypo'
p12
S''
sS'label'
p13
S'broadcast translator'
p14
sS'range'
p15
S'string '
p16
sS'uniq_subjs'
p17
S'1280'
p18
sS'uniq_objs'
p19
I0
sS'prop_uri'
p20
S'http://dbpedia.org/ontology/broadcastTranslator'
p21
sS'annotations'
p22
(dp23
S'bag_of_words'
p24
(lp25
S'Broadcaster'
p26
aS'broadcast'
p27
aS'translator'
p28
aS'string'
p29
aS'13251035'
p30
asS'chunk_seq'
p31
(lp32
S'B-NP'
p33
aS'I-NP'
p34
aS'I-NP'
p35
aS'E-NP'
p36
aS'O'
asS'dep_seq'
p37
(lp38
(lp39
S'nn'
p40
aS'4'
aS'1'
aa(lp41
S'amod'
p42
aS'4'
aS'2'
aa(lp43
S'nn'
p44
aS'4'
aS'3'
aa(lp45
S'root'
p46
aS'0'
aS'4'
aa(lp47
S'punct'
p48
aS'4'
aS'5'
aasS'srls'
p49
(lp50
(dp51
S'A1'
p52
S'translator string 13251035'
p53
sS'A0'
p54
g26
sS'V'
g27
sasS'pos_seq'
p55
(lp56
S'NN'
p57
aS'VBN'
p58
aS'NN'
p59
aS'NN'
p60
aS'.'
asS'ner_seq'
p61
(lp62
S'O'
aS'O'
aS'O'
aS'O'
aS'O'
assb.