ccopy_reg
_reconstructor
p1
(c__main__
KBproperty
p2
c__builtin__
object
p3
NtRp4
(dp5
S'comment'
p6
S'56765569'
p7
sS'domain'
p8
S''
sS'instances_count'
p9
I3512
sS'phrases'
p10
NsS'syn_hypo'
p11
V
sS'label'
p12
S'highschool'
p13
sS'range'
p14
S'School '
p15
sS'uniq_subjs'
p16
S'3512'
p17
sS'uniq_objs'
p18
I0
sS'prop_uri'
p19
S'http://dbpedia.org/ontology/highschool'
p20
sS'annotations'
p21
(dp22
S'bag_of_words'
p23
(lp24
S'highschool'
p25
aS'School'
p26
aS'56765569'
p27
asS'chunk_seq'
p28
(lp29
S'O'
aS'O'
aS'O'
asS'dep_seq'
p30
(lp31
(lp32
S'dep'
p33
aS'2'
aS'1'
aa(lp34
S'root'
p35
aS'0'
aS'2'
aa(lp36
S'punct'
p37
aS'2'
aS'3'
aasS'srls'
p38
(lp39
sS'pos_seq'
p40
(lp41
S'SYM'
p42
aS'NNP'
p43
aS'.'
asS'ner_seq'
p44
(lp45
S'O'
aS'O'
aS'O'
assb.