ccopy_reg
_reconstructor
p1
(c__main__
KBproperty
p2
c__builtin__
object
p3
NtRp4
(dp5
S'comment'
p6
S'Authority data from the National Library of Sweden44'
p7
sS'domain'
p8
S''
sS'instances_count'
p9
I4
sS'phrases'
p10
NsS'syn_hypo'
p11
S''
sS'label'
p12
S'SELIBR Id'
p13
sS'range'
p14
S'string '
p15
sS'uniq_subjs'
p16
S'4'
sS'uniq_objs'
p17
I0
sS'prop_uri'
p18
S'http://dbpedia.org/ontology/selibrId'
p19
sS'annotations'
p20
(dp21
S'bag_of_words'
p22
(lp23
S'SELIBR'
p24
aS'Id'
p25
aS'string'
p26
aS'Authority'
p27
aS'data'
p28
aS'from'
p29
aS'the'
p30
aS'National'
p31
aS'Library'
p32
aS'of'
p33
aS'Sweden44'
p34
asS'chunk_seq'
p35
(lp36
S'B-NP'
p37
aS'I-NP'
p38
aS'I-NP'
p39
aS'I-NP'
p40
aS'E-NP'
p41
aS'S-PP'
p42
aS'B-NP'
p43
aS'I-NP'
p44
aS'E-NP'
p45
aS'S-PP'
p46
aS'S-NP'
p47
asS'dep_seq'
p48
(lp49
(lp50
S'nn'
p51
aS'5'
aS'1'
aa(lp52
S'nn'
p53
aS'5'
aS'2'
aa(lp54
S'nn'
p55
aS'5'
aS'3'
aa(lp56
S'nn'
p57
aS'5'
aS'4'
aa(lp58
S'root'
p59
aS'0'
aS'5'
aa(lp60
S'det'
p61
aS'9'
aS'7'
aa(lp62
S'nn'
p63
aS'9'
aS'8'
aa(lp64
S'prep_from'
p65
aS'5'
aS'9'
aa(lp66
S'prep_of'
p67
aS'9'
aS'11'
p68
aasS'srls'
p69
(lp70
sS'pos_seq'
p71
(lp72
S'NNP'
p73
aS'NNP'
p74
aS'NN'
p75
aS'NN'
p76
aS'NNS'
p77
aS'IN'
p78
aS'DT'
p79
aS'NNP'
p80
aS'NNP'
p81
aS'IN'
p82
aS'NNP'
p83
asS'ner_seq'
p84
(lp85
S'B-ORG'
p86
aS'I-ORG'
p87
aS'I-ORG'
p88
aS'E-ORG'
p89
aS'O'
aS'O'
aS'O'
aS'B-ORG'
p90
aS'I-ORG'
p91
aS'I-ORG'
p92
aS'E-ORG'
p93
assb.