ccopy_reg
_reconstructor
p1
(c__main__
KBproperty
p2
c__builtin__
object
p3
NtRp4
(dp5
S'comment'
p6
S'11741145'
p7
sS'domain'
p8
S''
sS'instances_count'
p9
I1158
sS'phrases'
p10
NsS'syn_hypo'
p11
Vagnomennamealiasnameassumed_namenamefalse_namenameappellationnamedenominationnamedesignationnameappellativenameassumed_namenamefictitious_namenameDoing_Business_AsnameDBAnamecompany_namenamedomain_namenameeponymnameeponymnamefilenamenamefile_namenamecomputer_filenamenamecomputer_file_namenamefirst_namenamegiven_namenameforenamenamematronymicnamemetronymicnamemiddle_namenamemisnomernamenicknamenamepatronymicnamepatronymnamepet_namenamehypocorismnameplace_namenametoponymnamepseudonymnameanonymnamenom_de_guerrenamesignaturenamestreet_namenamestreet_namenamestreet_namenamesurnamenamefamily_namenamecognomennamelast_namenametitlenametrade_namenamebrand_namenamebrandnamemarquenamewriter's_namenameauthor's_name
p12
sS'label'
p13
S'name'
p14
sS'range'
p15
S'lang String '
p16
sS'uniq_subjs'
p17
S'1158'
p18
sS'uniq_objs'
p19
I0
sS'prop_uri'
p20
S'http://dbpedia.org/ontology/name'
p21
sS'annotations'
p22
(dp23
S'bag_of_words'
p24
(lp25
S'name'
p26
aS'lang'
p27
aS'String'
p28
aS'11741145'
p29
asS'chunk_seq'
p30
(lp31
S'B-NP'
p32
aS'I-NP'
p33
aS'I-NP'
p34
aS'E-NP'
p35
asS'dep_seq'
p36
(lp37
(lp38
S'nn'
p39
aS'4'
aS'1'
aa(lp40
S'amod'
p41
aS'4'
aS'2'
aa(lp42
S'nn'
p43
aS'4'
aS'3'
aa(lp44
S'root'
p45
aS'0'
aS'4'
aasS'srls'
p46
(lp47
(dp48
S'A1'
p49
g28
sS'V'
g27
sasS'pos_seq'
p50
(lp51
S'NN'
p52
aS'VBG'
p53
aS'NN'
p54
aS'NN'
p55
asS'ner_seq'
p56
(lp57
S'O'
aS'B-PER'
p58
aS'E-PER'
p59
aS'O'
assb.