ccopy_reg
_reconstructor
p1
(c__main__
KBproperty
p2
c__builtin__
object
p3
NtRp4
(dp5
S'comment'
p6
S'325145'
p7
sS'domain'
p8
S'Military Unit '
p9
sS'instances_count'
p10
I86
sS'phrases'
p11
NsS'syn_hypo'
p12
S''
sS'label'
p13
S'aircraft helicopter'
p14
sS'range'
p15
S'Mean Of Transportation '
p16
sS'uniq_subjs'
p17
S'86'
p18
sS'uniq_objs'
p19
I0
sS'prop_uri'
p20
S'http://dbpedia.org/ontology/aircraftHelicopter'
p21
sS'annotations'
p22
(dp23
S'bag_of_words'
p24
(lp25
S'Military'
p26
aS'Unit'
p27
aS'aircraft'
p28
aS'helicopter'
p29
aS'Mean'
p30
aS'Of'
p31
aS'Transportation'
p32
aS'325145'
p33
asS'chunk_seq'
p34
(lp35
S'B-NP'
p36
aS'I-NP'
p37
aS'I-NP'
p38
aS'I-NP'
p39
aS'E-NP'
p40
aS'S-PP'
p41
aS'B-NP'
p42
aS'E-NP'
p43
asS'dep_seq'
p44
(lp45
(lp46
S'nn'
p47
aS'5'
aS'1'
aa(lp48
S'nn'
p49
aS'5'
aS'2'
aa(lp50
S'nn'
p51
aS'5'
aS'3'
aa(lp52
S'nn'
p53
aS'5'
aS'4'
aa(lp54
S'root'
p55
aS'0'
aS'5'
aa(lp56
S'prep_of'
p57
aS'5'
aS'7'
aa(lp58
S'dep'
p59
aS'5'
aS'8'
aasS'srls'
p60
(lp61
sS'pos_seq'
p62
(lp63
S'NNP'
p64
aS'NNP'
p65
aS'NN'
p66
aS'NN'
p67
aS'NNP'
p68
aS'IN'
p69
aS'NN'
p70
aS'NN'
p71
asS'ner_seq'
p72
(lp73
S'O'
aS'O'
aS'O'
aS'O'
aS'B-ORG'
p74
aS'I-ORG'
p75
aS'E-ORG'
p76
aS'O'
assb.