ccopy_reg
_reconstructor
p1
(c__main__
KBproperty
p2
c__builtin__
object
p3
NtRp4
(dp5
S'comment'
p6
S'The name of the Greek chorus character in play.6053'
p7
sS'domain'
p8
S'Play '
p9
sS'instances_count'
p10
I56
sS'phrases'
p11
NsS'syn_hypo'
p12
S''
sS'label'
p13
S'chorus character in play'
p14
sS'range'
p15
S'string '
p16
sS'uniq_subjs'
p17
S'56'
p18
sS'uniq_objs'
p19
I0
sS'prop_uri'
p20
S'http://dbpedia.org/ontology/chorusCharacterInPlay'
p21
sS'annotations'
p22
(dp23
S'bag_of_words'
p24
(lp25
S'Play'
p26
aS'chorus'
p27
aS'character'
p28
aS'in'
p29
aS'play'
p30
aS'string'
p31
aS'The'
p32
aS'name'
p33
aS'of'
p34
aS'the'
p35
aS'Greek'
p36
aS'chorus'
p37
aS'character'
p38
aS'in'
p39
aS'play.6053'
p40
asS'chunk_seq'
p41
(lp42
S'B-NP'
p43
aS'I-NP'
p44
aS'E-NP'
p45
aS'S-PP'
p46
aS'B-NP'
p47
aS'E-NP'
p48
aS'B-NP'
p49
aS'E-NP'
p50
aS'S-PP'
p51
aS'B-NP'
p52
aS'I-NP'
p53
aS'I-NP'
p54
aS'E-NP'
p55
aS'S-PP'
p56
aS'S-NP'
p57
asS'dep_seq'
p58
(lp59
(lp60
S'nn'
p61
aS'3'
aS'1'
aa(lp62
S'nn'
p63
aS'3'
aS'2'
aa(lp64
S'dep'
p65
aS'8'
aS'3'
aa(lp66
S'nn'
p67
aS'6'
aS'5'
aa(lp68
S'prep_in'
p69
aS'3'
aS'6'
aa(lp70
S'det'
p71
aS'8'
aS'7'
aa(lp72
S'root'
p73
aS'0'
aS'8'
aa(lp74
S'det'
p75
aS'13'
p76
aS'10'
p77
aa(lp78
S'amod'
p79
aS'13'
p80
aS'11'
p81
aa(lp82
S'nn'
p83
aS'13'
p84
aS'12'
p85
aa(lp86
S'prep_of'
p87
aS'8'
aS'13'
p88
aa(lp89
S'prep_in'
p90
aS'8'
aS'15'
p91
aasS'srls'
p92
(lp93
sS'pos_seq'
p94
(lp95
S'NN'
p96
aS'NN'
p97
aS'NN'
p98
aS'IN'
p99
aS'NN'
p100
aS'NN'
p101
aS'DT'
p102
aS'NN'
p103
aS'IN'
p104
aS'DT'
p105
aS'JJ'
p106
aS'NN'
p107
aS'NN'
p108
aS'IN'
p109
aS'NN'
p110
asS'ner_seq'
p111
(lp112
S'O'
aS'O'
aS'O'
aS'O'
aS'O'
aS'O'
aS'O'
aS'O'
aS'O'
aS'O'
aS'S-MISC'
p113
aS'O'
aS'O'
aS'O'
aS'O'
assb.