ccopy_reg
_reconstructor
p1
(c__main__
KBproperty
p2
c__builtin__
object
p3
NtRp4
(dp5
S'comment'
p6
S'The last inquiry date about linguistics uses.00'
p7
sS'domain'
p8
S'Language '
p9
sS'instances_count'
p10
I0
sS'phrases'
p11
NsS'syn_hypo'
p12
S''
sS'label'
p13
S'galicianSpeakersDate'
p14
sS'range'
p15
S'g Year '
p16
sS'uniq_subjs'
p17
S'0'
sS'uniq_objs'
p18
I0
sS'prop_uri'
p19
S'http://dbpedia.org/ontology/galicianSpeakersDate'
p20
sS'annotations'
p21
(dp22
S'bag_of_words'
p23
(lp24
S'Language'
p25
aS'galicianSpeakersDate'
p26
aS'g'
aS'Year'
p27
aS'The'
p28
aS'last'
p29
aS'inquiry'
p30
aS'date'
p31
aS'about'
p32
aS'linguistics'
p33
aS'uses.00'
p34
asS'chunk_seq'
p35
(lp36
S'B-NP'
p37
aS'I-NP'
p38
aS'I-NP'
p39
aS'E-NP'
p40
aS'B-NP'
p41
aS'I-NP'
p42
aS'I-NP'
p43
aS'E-NP'
p44
aS'S-PP'
p45
aS'S-NP'
p46
aS'S-ADJP'
p47
asS'dep_seq'
p48
(lp49
(lp50
S'nn'
p51
aS'4'
aS'1'
aa(lp52
S'amod'
p53
aS'4'
aS'2'
aa(lp54
S'nn'
p55
aS'4'
aS'3'
aa(lp56
S'dep'
p57
aS'8'
aS'4'
aa(lp58
S'det'
p59
aS'8'
aS'5'
aa(lp60
S'amod'
p61
aS'8'
aS'6'
aa(lp62
S'nn'
p63
aS'8'
aS'7'
aa(lp64
S'root'
p65
aS'0'
aS'8'
aa(lp66
S'amod'
p67
aS'10'
p68
aS'9'
aa(lp69
S'dep'
p70
aS'8'
aS'10'
p71
aa(lp72
S'punct'
p73
aS'10'
p74
aS'11'
p75
aasS'srls'
p76
(lp77
sS'pos_seq'
p78
(lp79
S'NN'
p80
aS'JJ'
p81
aS'NN'
p82
aS'NN'
p83
aS'DT'
p84
aS'JJ'
p85
aS'NN'
p86
aS'NN'
p87
aS'IN'
p88
aS'NNS'
p89
aS'.'
asS'ner_seq'
p90
(lp91
S'O'
aS'O'
aS'O'
aS'O'
aS'O'
aS'O'
aS'O'
aS'O'
aS'O'
aS'O'
aS'O'
assb.