ccopy_reg
_reconstructor
p1
(c__main__
KBproperty
p2
c__builtin__
object
p3
NtRp4
(dp5
S'comment'
p6
S'401480108652'
p7
sS'domain'
p8
S'Work '
p9
sS'instances_count'
p10
I96488
sS'phrases'
p11
NsS'syn_hypo'
p12
S''
sS'label'
p13
S'starring'
p14
sS'range'
p15
S'Actor '
p16
sS'uniq_subjs'
p17
S'96488'
p18
sS'uniq_objs'
p19
I0
sS'prop_uri'
p20
S'http://dbpedia.org/ontology/starring'
p21
sS'annotations'
p22
(dp23
S'bag_of_words'
p24
(lp25
S'Work'
p26
aS'starring'
p27
aS'Actor'
p28
aS'401480108652'
p29
asS'chunk_seq'
p30
(lp31
S'S-NP'
p32
aS'S-VP'
p33
aS'O'
aS'O'
asS'dep_seq'
p34
(lp35
(lp36
S'nsubj'
p37
aS'2'
aS'1'
aa(lp38
S'root'
p39
aS'0'
aS'2'
aa(lp40
S'dobj'
p41
aS'2'
aS'3'
aa(lp42
S'punct'
p43
aS'3'
aS'4'
aasS'srls'
p44
(lp45
(dp46
S'A1'
p47
S'Actor 401480108652'
p48
sS'A2'
p49
g26
sS'V'
g27
sasS'pos_seq'
p50
(lp51
S'NN'
p52
aS'VBG'
p53
aS'NNP'
p54
aS'.'
asS'ner_seq'
p55
(lp56
S'O'
aS'O'
aS'O'
aS'O'
assb.