ccopy_reg
_reconstructor
p1
(c__main__
KBproperty
p2
c__builtin__
object
p3
NtRp4
(dp5
S'comment'
p6
S'voice type of a singer or an actor11394'
p7
sS'domain'
p8
S'Artist '
p9
sS'instances_count'
p10
I11
sS'phrases'
p11
NsS'syn_hypo'
p12
S''
sS'label'
p13
S'voice type'
p14
sS'range'
p15
S''
sS'uniq_subjs'
p16
S'11'
p17
sS'uniq_objs'
p18
I0
sS'prop_uri'
p19
S'http://dbpedia.org/ontology/voiceType'
p20
sS'annotations'
p21
(dp22
S'bag_of_words'
p23
(lp24
S'Artist'
p25
aS'voice'
p26
aS'type'
p27
aS'voice'
p28
aS'type'
p29
aS'of'
p30
aS'a'
aS'singer'
p31
aS'or'
p32
aS'an'
p33
aS'actor11394'
p34
asS'chunk_seq'
p35
(lp36
S'B-NP'
p37
aS'I-NP'
p38
aS'I-NP'
p39
aS'I-NP'
p40
aS'E-NP'
p41
aS'S-PP'
p42
aS'B-NP'
p43
aS'E-NP'
p44
aS'O'
aS'B-NP'
p45
aS'E-NP'
p46
asS'dep_seq'
p47
(lp48
(lp49
S'nn'
p50
aS'5'
aS'1'
aa(lp51
S'nn'
p52
aS'5'
aS'2'
aa(lp53
S'nn'
p54
aS'5'
aS'3'
aa(lp55
S'nn'
p56
aS'5'
aS'4'
aa(lp57
S'root'
p58
aS'0'
aS'5'
aa(lp59
S'det'
p60
aS'8'
aS'7'
aa(lp61
S'prep_of'
p62
aS'5'
aS'8'
aa(lp63
S'det'
p64
aS'11'
p65
aS'10'
p66
aa(lp67
S'conj_or'
p68
aS'8'
aS'11'
p69
aasS'srls'
p70
(lp71
sS'pos_seq'
p72
(lp73
S'NNP'
p74
aS'NN'
p75
aS'NN'
p76
aS'NN'
p77
aS'NN'
p78
aS'IN'
p79
aS'DT'
p80
aS'NN'
p81
aS'CC'
p82
aS'DT'
p83
aS'NN'
p84
asS'ner_seq'
p85
(lp86
S'O'
aS'O'
aS'O'
aS'O'
aS'O'
aS'O'
aS'O'
aS'O'
aS'O'
aS'O'
aS'O'
assb.