ccopy_reg
_reconstructor
p1
(c__main__
KBproperty
p2
c__builtin__
object
p3
NtRp4
(dp5
S'comment'
p6
S'Used as if meaning: owned by has as its owner5664151163'
p7
sS'domain'
p8
S''
sS'instances_count'
p9
I56641
sS'phrases'
p10
NsS'syn_hypo'
p11
Vbooksellerownerproprietorlessorownerproprietorlease_giverownerproprietorletterownerproprietorpatronownerproprietorproprietressownerproprietorpublisherownerproprietornewspaper_publisherownerproprietorrenterownerproprietorrestaurateurownerproprietorrestauranterownerproprietorsaloon_keeperownerproprietortimberman
p12
sS'label'
p13
S'owner'
p14
sS'range'
p15
S'Agent '
p16
sS'uniq_subjs'
p17
S'15902'
p18
sS'uniq_objs'
p19
I0
sS'prop_uri'
p20
S'http://dbpedia.org/ontology/owner'
p21
sS'annotations'
p22
(dp23
S'bag_of_words'
p24
(lp25
S'owner'
p26
aS'Agent'
p27
aS'Used'
p28
aS'as'
p29
aS'if'
p30
aS'meaning'
p31
aS':'
aS'owned'
p32
aS'by'
p33
aS'has'
p34
aS'as'
p35
aS'its'
p36
aS'owner5664151163'
p37
asS'chunk_seq'
p38
(lp39
S'B-NP'
p40
aS'E-NP'
p41
aS'S-VP'
p42
aS'S-PP'
p43
aS'S-SBAR'
p44
aS'S-NP'
p45
aS'O'
aS'S-VP'
p46
aS'S-PP'
p47
aS'S-VP'
p48
aS'S-SBAR'
p49
aS'B-NP'
p50
aS'E-NP'
p51
asS'dep_seq'
p52
(lp53
(lp54
S'nn'
p55
aS'2'
aS'1'
aa(lp56
S'nsubj'
p57
aS'3'
aS'2'
aa(lp58
S'root'
p59
aS'0'
aS'3'
aa(lp60
S'mark'
p61
aS'10'
p62
aS'4'
aa(lp63
S'mark'
p64
aS'10'
p65
aS'5'
aa(lp66
S'dep'
p67
aS'8'
aS'6'
aa(lp68
S'csubj'
p69
aS'10'
p70
aS'8'
aa(lp71
S'prep'
p72
aS'8'
aS'9'
aa(lp73
S'advcl'
p74
aS'3'
aS'10'
p75
aa(lp76
S'poss'
p77
aS'13'
p78
aS'12'
p79
aa(lp80
S'prep_as'
p81
aS'10'
p82
aS'13'
p83
aasS'srls'
p84
(lp85
(dp86
S'V'
g28
sa(dp87
S'A1'
p88
g31
sS'AM-MNR'
p89
S'by has as its owner5664151163'
p90
sS'V'
g32
sasS'pos_seq'
p91
(lp92
S'NN'
p93
aS'NN'
p94
aS'VBN'
p95
aS'IN'
p96
aS'IN'
p97
aS'NN'
p98
aS':'
aS'VBN'
p99
aS'IN'
p100
aS'VBZ'
p101
aS'IN'
p102
aS'PRP$'
p103
aS'NN'
p104
asS'ner_seq'
p105
(lp106
S'O'
aS'O'
aS'O'
aS'O'
aS'O'
aS'O'
aS'O'
aS'O'
aS'O'
aS'O'
aS'O'
aS'O'
aS'O'
assb.