ccopy_reg
_reconstructor
p1
(c__main__
KBproperty
p2
c__builtin__
object
p3
NtRp4
(dp5
S'comment'
p6
S'Official UCI code for cycling teams359331'
p7
sS'domain'
p8
S'Cycling Team '
p9
sS'instances_count'
p10
I352
sS'phrases'
p11
NsS'syn_hypo'
p12
S''
sS'label'
p13
S'UCI code'
p14
sS'range'
p15
S'string '
p16
sS'uniq_subjs'
p17
S'352'
p18
sS'uniq_objs'
p19
I0
sS'prop_uri'
p20
S'http://dbpedia.org/ontology/uciCode'
p21
sS'annotations'
p22
(dp23
S'bag_of_words'
p24
(lp25
S'Cycling'
p26
aS'Team'
p27
aS'UCI'
p28
aS'code'
p29
aS'string'
p30
aS'Official'
p31
aS'UCI'
p32
aS'code'
p33
aS'for'
p34
aS'cycling'
p35
aS'teams359331'
p36
asS'chunk_seq'
p37
(lp38
S'B-NP'
p39
aS'I-NP'
p40
aS'I-NP'
p41
aS'I-NP'
p42
aS'I-NP'
p43
aS'I-NP'
p44
aS'I-NP'
p45
aS'E-NP'
p46
aS'S-PP'
p47
aS'B-NP'
p48
aS'E-NP'
p49
asS'dep_seq'
p50
(lp51
(lp52
S'nn'
p53
aS'8'
aS'1'
aa(lp54
S'nn'
p55
aS'8'
aS'2'
aa(lp56
S'nn'
p57
aS'8'
aS'3'
aa(lp58
S'nn'
p59
aS'8'
aS'4'
aa(lp60
S'nn'
p61
aS'8'
aS'5'
aa(lp62
S'nn'
p63
aS'8'
aS'6'
aa(lp64
S'nn'
p65
aS'8'
aS'7'
aa(lp66
S'root'
p67
aS'0'
aS'8'
aa(lp68
S'nn'
p69
aS'11'
p70
aS'10'
p71
aa(lp72
S'prep_for'
p73
aS'8'
aS'11'
p74
aasS'srls'
p75
(lp76
sS'pos_seq'
p77
(lp78
S'NNP'
p79
aS'NNP'
p80
aS'NNP'
p81
aS'NN'
p82
aS'NN'
p83
aS'NNP'
p84
aS'NNP'
p85
aS'NN'
p86
aS'IN'
p87
aS'NN'
p88
aS'NN'
p89
asS'ner_seq'
p90
(lp91
S'O'
aS'O'
aS'S-ORG'
p92
aS'O'
aS'O'
aS'O'
aS'S-ORG'
p93
aS'O'
aS'O'
aS'O'
aS'O'
assb.