ccopy_reg
_reconstructor
p1
(c__main__
KBproperty
p2
c__builtin__
object
p3
NtRp4
(dp5
S'comment'
p6
S'00'
p7
sS'domain'
p8
S'Space Mission '
p9
sS'instances_count'
p10
I0
sS'phrases'
p11
NsS'syn_hypo'
p12
S''
sS'label'
p13
S'lunar EVA time s'
p14
sS'range'
p15
S'double '
p16
sS'uniq_subjs'
p17
S'0'
sS'uniq_objs'
p18
I0
sS'prop_uri'
p19
S'http://dbpedia.org/ontology/lunarEvaTime'
p20
sS'annotations'
p21
(dp22
S'bag_of_words'
p23
(lp24
S'Space'
p25
aS'Mission'
p26
aS'lunar'
p27
aS'EVA'
p28
aS'time'
p29
aS's'
aS'double'
p30
aS'00'
p31
asS'chunk_seq'
p32
(lp33
S'B-NP'
p34
aS'E-NP'
p35
aS'B-NP'
p36
aS'I-NP'
p37
aS'E-NP'
p38
aS'S-VP'
p39
aS'B-NP'
p40
aS'E-NP'
p41
asS'dep_seq'
p42
(lp43
(lp44
S'nn'
p45
aS'2'
aS'1'
aa(lp46
S'nsubj'
p47
aS'8'
aS'2'
aa(lp48
S'amod'
p49
aS'5'
aS'3'
aa(lp50
S'nn'
p51
aS'5'
aS'4'
aa(lp52
S'dep'
p53
aS'2'
aS'5'
aa(lp54
S'cop'
p55
aS'8'
aS'6'
aa(lp56
S'advmod'
p57
aS'8'
aS'7'
aa(lp58
S'root'
p59
aS'0'
aS'8'
aasS'srls'
p60
(lp61
sS'pos_seq'
p62
(lp63
S'NNP'
p64
aS'NNP'
p65
aS'JJ'
p66
aS'NNP'
p67
aS'NN'
p68
aS'VBZ'
p69
aS'RB'
p70
aS'CD'
p71
asS'ner_seq'
p72
(lp73
S'O'
aS'O'
aS'O'
aS'O'
aS'O'
aS'O'
aS'O'
aS'O'
assb.