ccopy_reg
_reconstructor
p1
(c__main__
KBproperty
p2
c__builtin__
object
p3
NtRp4
(dp5
S'comment'
p6
S'details of the activity for a road.00'
p7
sS'domain'
p8
S'Route Stop '
p9
sS'instances_count'
p10
I0
sS'phrases'
p11
NsS'syn_hypo'
p12
S''
sS'label'
p13
S'route activity'
p14
sS'range'
p15
S''
sS'uniq_subjs'
p16
S'0'
sS'uniq_objs'
p17
I0
sS'prop_uri'
p18
S'http://dbpedia.org/ontology/routeActivity'
p19
sS'annotations'
p20
(dp21
S'bag_of_words'
p22
(lp23
S'Route'
p24
aS'Stop'
p25
aS'route'
p26
aS'activity'
p27
aS'details'
p28
aS'of'
p29
aS'the'
p30
aS'activity'
p31
aS'for'
p32
aS'a'
aS'road.00'
p33
asS'chunk_seq'
p34
(lp35
S'B-NP'
p36
aS'I-NP'
p37
aS'I-NP'
p38
aS'I-NP'
p39
aS'E-NP'
p40
aS'S-PP'
p41
aS'B-NP'
p42
aS'E-NP'
p43
aS'S-PP'
p44
aS'B-NP'
p45
aS'E-NP'
p46
asS'dep_seq'
p47
(lp48
(lp49
S'nn'
p50
aS'5'
aS'1'
aa(lp51
S'nn'
p52
aS'5'
aS'2'
aa(lp53
S'nn'
p54
aS'5'
aS'3'
aa(lp55
S'nn'
p56
aS'5'
aS'4'
aa(lp57
S'root'
p58
aS'0'
aS'5'
aa(lp59
S'det'
p60
aS'8'
aS'7'
aa(lp61
S'prep_of'
p62
aS'5'
aS'8'
aa(lp63
S'det'
p64
aS'11'
p65
aS'10'
p66
aa(lp67
S'prep_for'
p68
aS'8'
aS'11'
p69
aasS'srls'
p70
(lp71
sS'pos_seq'
p72
(lp73
S'NNP'
p74
aS'NNP'
p75
aS'NN'
p76
aS'NN'
p77
aS'NNS'
p78
aS'IN'
p79
aS'DT'
p80
aS'NN'
p81
aS'IN'
p82
aS'DT'
p83
aS'NN'
p84
asS'ner_seq'
p85
(lp86
S'O'
aS'O'
aS'O'
aS'O'
aS'O'
aS'O'
aS'O'
aS'O'
aS'O'
aS'O'
aS'O'
assb.