ccopy_reg
_reconstructor
p1
(c__main__
KBproperty
p2
c__builtin__
object
p3
NtRp4
(dp5
S'comment'
p6
S'surface area m2'
p7
sS'domain'
p8
S'Planet '
p9
sS'instances_count'
p10
I37
sS'phrases'
p11
NsS'syn_hypo'
p12
S''
sS'label'
p13
g7
sS'range'
p14
S'double '
p15
sS'uniq_subjs'
p16
S'37'
p17
sS'uniq_objs'
p18
I0
sS'prop_uri'
p19
S'http://dbpedia.org/ontology/surfaceArea'
p20
sS'annotations'
p21
(dp22
S'bag_of_words'
p23
(lp24
S'Planet'
p25
aS'surface'
p26
aS'Area'
p27
aS'double'
p28
aS'surface'
p29
aS'area'
p30
aS'm2'
p31
asS'chunk_seq'
p32
(lp33
S'B-NP'
p34
aS'I-NP'
p35
aS'I-NP'
p36
aS'I-NP'
p37
aS'I-NP'
p38
aS'E-NP'
p39
aS'S-ADJP'
p40
asS'dep_seq'
p41
(lp42
(lp43
S'root'
p44
aS'0'
aS'1'
aa(lp45
S'dep'
p46
aS'1'
aS'2'
aa(lp47
S'dep'
p48
aS'1'
aS'3'
aa(lp49
S'dep'
p50
aS'1'
aS'4'
aa(lp51
S'dep'
p52
aS'1'
aS'5'
aa(lp53
S'dep'
p54
aS'1'
aS'6'
aa(lp55
S'punct'
p56
aS'1'
aS'7'
aasS'srls'
p57
(lp58
sS'pos_seq'
p59
(lp60
S'NN'
p61
aS'NN'
p62
aS'NN'
p63
aS'JJ'
p64
aS'NN'
p65
aS'NN'
p66
aS'.'
asS'ner_seq'
p67
(lp68
S'O'
aS'O'
aS'O'
aS'O'
aS'O'
aS'O'
aS'O'
assb.