ccopy_reg
_reconstructor
p1
(c__main__
KBproperty
p2
c__builtin__
object
p3
NtRp4
(dp5
S'comment'
p6
S'Plants from which another plant or cultivar has been developed from1921778'
p7
sS'domain'
p8
S'Plant '
p9
sS'instances_count'
p10
I491
sS'phrases'
p11
NsS'syn_hypo'
p12
V
sS'label'
p13
S'hybrid'
p14
sS'range'
p15
S'Plant '
p16
sS'uniq_subjs'
p17
S'491'
p18
sS'uniq_objs'
p19
I0
sS'prop_uri'
p20
S'http://dbpedia.org/ontology/hybrid'
p21
sS'annotations'
p22
(dp23
S'bag_of_words'
p24
(lp25
S'Plant'
p26
aS'hybrid'
p27
aS'Plant'
p28
aS'Plants'
p29
aS'from'
p30
aS'which'
p31
aS'another'
p32
aS'plant'
p33
aS'or'
p34
aS'cultivar'
p35
aS'has'
p36
aS'been'
p37
aS'developed'
p38
aS'from1921778'
p39
asS'chunk_seq'
p40
(lp41
S'B-NP'
p42
aS'I-NP'
p43
aS'I-NP'
p44
aS'E-NP'
p45
aS'S-PP'
p46
aS'S-NP'
p47
aS'B-NP'
p48
aS'I-NP'
p49
aS'I-NP'
p50
aS'E-NP'
p51
aS'B-VP'
p52
aS'I-VP'
p53
aS'E-VP'
p54
aS'O'
asS'dep_seq'
p55
(lp56
(lp57
S'nn'
p58
aS'4'
aS'1'
aa(lp59
S'nn'
p60
aS'4'
aS'2'
aa(lp61
S'nn'
p62
aS'4'
aS'3'
aa(lp63
S'root'
p64
aS'0'
aS'4'
aa(lp65
S'prep_from'
p66
aS'13'
p67
aS'4'
aa(lp68
S'rel'
p69
aS'13'
p70
aS'5'
aa(lp71
S'det'
p72
aS'8'
aS'7'
aa(lp73
S'nsubjpass'
p74
aS'13'
p75
aS'8'
aa(lp76
S'conj_or'
p77
aS'8'
aS'10'
p78
aa(lp79
S'aux'
p80
aS'13'
p81
aS'11'
p82
aa(lp83
S'auxpass'
p84
aS'13'
p85
aS'12'
p86
aa(lp87
S'rcmod'
p88
aS'4'
aS'13'
p89
aa(lp90
S'advmod'
p91
aS'13'
p92
aS'14'
p93
aasS'srls'
p94
(lp95
(dp96
S'A1'
p97
S'Plant hybrid Plant Plants from which another plant or cultivar'
p98
sS'A2'
p99
g39
sS'V'
g38
sasS'pos_seq'
p100
(lp101
S'NN'
p102
aS'NN'
p103
aS'NN'
p104
aS'NNS'
p105
aS'IN'
p106
aS'WDT'
p107
aS'DT'
p108
aS'NN'
p109
aS'CC'
p110
aS'NN'
p111
aS'VBZ'
p112
aS'VBN'
p113
aS'VBN'
p114
aS'.'
asS'ner_seq'
p115
(lp116
S'O'
aS'O'
aS'O'
aS'O'
aS'O'
aS'O'
aS'O'
aS'O'
aS'O'
aS'O'
aS'O'
aS'O'
aS'O'
aS'O'
assb.