ccopy_reg
_reconstructor
p1
(c__main__
KBproperty
p2
c__builtin__
object
p3
NtRp4
(dp5
S'comment'
p6
S'type of grain wheat etc.'
p7
sS'domain'
p8
S'Food '
p9
sS'instances_count'
p10
I0
sS'phrases'
p11
NsS'syn_hypo'
p12
S''
sS'label'
p13
g7
sS'range'
p14
S'string '
p15
sS'uniq_subjs'
p16
S'0'
sS'uniq_objs'
p17
I0
sS'prop_uri'
p18
S'http://dbpedia.org/ontology/typeOfGrain'
p19
sS'annotations'
p20
(dp21
S'bag_of_words'
p22
(lp23
S'Food'
p24
aS'type'
p25
aS'Of'
p26
aS'Grain'
p27
aS'string'
p28
aS'type'
p29
aS'of'
p30
aS'grain'
p31
aS'wheat'
p32
aS'etc.'
p33
asS'chunk_seq'
p34
(lp35
S'B-NP'
p36
aS'E-NP'
p37
aS'S-PP'
p38
aS'B-NP'
p39
aS'I-NP'
p40
aS'E-NP'
p41
aS'S-PP'
p42
aS'B-NP'
p43
aS'E-NP'
p44
aS'O'
asS'dep_seq'
p45
(lp46
(lp47
S'nn'
p48
aS'2'
aS'1'
aa(lp49
S'root'
p50
aS'0'
aS'2'
aa(lp51
S'nn'
p52
aS'6'
aS'4'
aa(lp53
S'nn'
p54
aS'6'
aS'5'
aa(lp55
S'prep_of'
p56
aS'2'
aS'6'
aa(lp57
S'nn'
p58
aS'9'
aS'8'
aa(lp59
S'prep_of'
p60
aS'6'
aS'9'
aa(lp61
S'punct'
p62
aS'9'
aS'10'
p63
aasS'srls'
p64
(lp65
sS'pos_seq'
p66
(lp67
S'NN'
p68
aS'NN'
p69
aS'IN'
p70
aS'NNP'
p71
aS'NN'
p72
aS'NN'
p73
aS'IN'
p74
aS'NN'
p75
aS'NN'
p76
aS'.'
asS'ner_seq'
p77
(lp78
S'O'
aS'O'
aS'O'
aS'O'
aS'O'
aS'O'
aS'O'
aS'O'
aS'O'
aS'O'
assb.