ccopy_reg
_reconstructor
p1
(c__main__
KBproperty
p2
c__builtin__
object
p3
NtRp4
(dp5
S'comment'
p6
S'266109'
p7
sS'domain'
p8
S'Country '
p9
sS'instances_count'
p10
I79
sS'phrases'
p11
NsS'syn_hypo'
p12
S''
sS'label'
p13
S'twin country'
p14
sS'range'
p15
S'Country '
p16
sS'uniq_subjs'
p17
S'79'
p18
sS'uniq_objs'
p19
I0
sS'prop_uri'
p20
S'http://dbpedia.org/ontology/twinCountry'
p21
sS'annotations'
p22
(dp23
S'bag_of_words'
p24
(lp25
S'Country'
p26
aS'twin'
p27
aS'country'
p28
aS'Country'
p29
aS'266109'
p30
asS'chunk_seq'
p31
(lp32
S'B-NP'
p33
aS'I-NP'
p34
aS'I-NP'
p35
aS'E-NP'
p36
aS'S-ADJP'
p37
asS'dep_seq'
p38
(lp39
(lp40
S'nn'
p41
aS'4'
aS'1'
aa(lp42
S'amod'
p43
aS'4'
aS'2'
aa(lp44
S'nn'
p45
aS'4'
aS'3'
aa(lp46
S'root'
p47
aS'0'
aS'4'
aa(lp48
S'punct'
p49
aS'4'
aS'5'
aasS'srls'
p50
(lp51
sS'pos_seq'
p52
(lp53
S'NN'
p54
aS'JJ'
p55
aS'NN'
p56
aS'NN'
p57
aS'.'
asS'ner_seq'
p58
(lp59
S'O'
aS'O'
aS'O'
aS'O'
aS'O'
assb.