ccopy_reg
_reconstructor
p1
(c__main__
KBproperty
p2
c__builtin__
object
p3
NtRp4
(dp5
S'comment'
p6
S'838838'
p7
sS'domain'
p8
S'Ice Hockey Player '
p9
sS'instances_count'
p10
I34
sS'phrases'
p11
NsS'syn_hypo'
p12
S''
sS'label'
p13
S'prospect league'
p14
sS'range'
p15
S'Sports League '
p16
sS'uniq_subjs'
p17
S'34'
p18
sS'uniq_objs'
p19
I0
sS'prop_uri'
p20
S'http://dbpedia.org/ontology/prospectLeague'
p21
sS'annotations'
p22
(dp23
S'bag_of_words'
p24
(lp25
S'Ice'
p26
aS'Hockey'
p27
aS'Player'
p28
aS'prospect'
p29
aS'league'
p30
aS'Sports'
p31
aS'League'
p32
aS'838838'
p33
asS'chunk_seq'
p34
(lp35
S'B-NP'
p36
aS'I-NP'
p37
aS'I-NP'
p38
aS'I-NP'
p39
aS'I-NP'
p40
aS'I-NP'
p41
aS'E-NP'
p42
aS'S-ADJP'
p43
asS'dep_seq'
p44
(lp45
(lp46
S'nn'
p47
aS'7'
aS'1'
aa(lp48
S'nn'
p49
aS'7'
aS'2'
aa(lp50
S'nn'
p51
aS'7'
aS'3'
aa(lp52
S'nn'
p53
aS'7'
aS'4'
aa(lp54
S'nn'
p55
aS'7'
aS'5'
aa(lp56
S'nn'
p57
aS'7'
aS'6'
aa(lp58
S'root'
p59
aS'0'
aS'7'
aa(lp60
S'punct'
p61
aS'7'
aS'8'
aasS'srls'
p62
(lp63
sS'pos_seq'
p64
(lp65
S'NNP'
p66
aS'NNP'
p67
aS'NNP'
p68
aS'NN'
p69
aS'NN'
p70
aS'NNP'
p71
aS'NNP'
p72
aS'.'
asS'ner_seq'
p73
(lp74
S'B-MISC'
p75
aS'I-MISC'
p76
aS'E-MISC'
p77
aS'O'
aS'O'
aS'B-MISC'
p78
aS'E-MISC'
p79
aS'O'
assb.