ccopy_reg
_reconstructor
p1
(c__main__
KBproperty
p2
c__builtin__
object
p3
NtRp4
(dp5
S'comment'
p6
S'520519'
p7
sS'domain'
p8
S'Person '
p9
sS'instances_count'
p10
I520
sS'phrases'
p11
NsS'syn_hypo'
p12
S''
sS'label'
p13
S'resting place position'
p14
sS'range'
p15
S'Spatial Thing '
p16
sS'uniq_subjs'
p17
S'520'
p18
sS'uniq_objs'
p19
I0
sS'prop_uri'
p20
S'http://dbpedia.org/ontology/restingPlacePosition'
p21
sS'annotations'
p22
(dp23
S'bag_of_words'
p24
(lp25
S'Person'
p26
aS'resting'
p27
aS'place'
p28
aS'position'
p29
aS'Spatial'
p30
aS'Thing'
p31
aS'520519'
p32
asS'chunk_seq'
p33
(lp34
S'B-NP'
p35
aS'I-NP'
p36
aS'I-NP'
p37
aS'E-NP'
p38
aS'B-NP'
p39
aS'E-NP'
p40
aS'O'
asS'dep_seq'
p41
(lp42
(lp43
S'nn'
p44
aS'7'
aS'1'
aa(lp45
S'amod'
p46
aS'7'
aS'2'
aa(lp47
S'nn'
p48
aS'7'
aS'3'
aa(lp49
S'nn'
p50
aS'7'
aS'4'
aa(lp51
S'amod'
p52
aS'7'
aS'5'
aa(lp53
S'nn'
p54
aS'7'
aS'6'
aa(lp55
S'root'
p56
aS'0'
aS'7'
aasS'srls'
p57
(lp58
(dp59
S'A1'
p60
S'Person  place position Spatial Thing 520519'
p61
sS'V'
g27
sasS'pos_seq'
p62
(lp63
S'NN'
p64
aS'VBG'
p65
aS'NN'
p66
aS'NN'
p67
aS'JJ'
p68
aS'NN'
p69
aS'NN'
p70
asS'ner_seq'
p71
(lp72
S'O'
aS'O'
aS'O'
aS'O'
aS'O'
aS'O'
aS'O'
assb.