ccopy_reg
_reconstructor
p1
(c__main__
KBproperty
p2
c__builtin__
object
p3
NtRp4
(dp5
S'comment'
p6
S'58095778'
p7
sS'domain'
p8
S'Automobile Engine '
p9
sS'instances_count'
p10
I1200
sS'phrases'
p11
NsS'syn_hypo'
p12
S''
sS'label'
p13
S'power output W'
p14
sS'range'
p15
S'double '
p16
sS'uniq_subjs'
p17
S'1200'
p18
sS'uniq_objs'
p19
I0
sS'prop_uri'
p20
S'http://dbpedia.org/ontology/powerOutput'
p21
sS'annotations'
p22
(dp23
S'bag_of_words'
p24
(lp25
S'Automobile'
p26
aS'Engine'
p27
aS'power'
p28
aS'output'
p29
aS'W'
aS'double'
p30
aS'58095778'
p31
asS'chunk_seq'
p32
(lp33
S'B-NP'
p34
aS'I-NP'
p35
aS'I-NP'
p36
aS'E-NP'
p37
aS'B-NP'
p38
aS'I-NP'
p39
aS'E-NP'
p40
asS'dep_seq'
p41
(lp42
(lp43
S'nn'
p44
aS'7'
aS'1'
aa(lp45
S'nn'
p46
aS'7'
aS'2'
aa(lp47
S'nn'
p48
aS'7'
aS'3'
aa(lp49
S'nn'
p50
aS'7'
aS'4'
aa(lp51
S'nn'
p52
aS'7'
aS'5'
aa(lp53
S'amod'
p54
aS'7'
aS'6'
aa(lp55
S'root'
p56
aS'0'
aS'7'
aasS'srls'
p57
(lp58
sS'pos_seq'
p59
(lp60
S'NNP'
p61
aS'NNP'
p62
aS'NN'
p63
aS'NN'
p64
aS'NNP'
p65
aS'JJ'
p66
aS'NN'
p67
asS'ner_seq'
p68
(lp69
S'B-ORG'
p70
aS'E-ORG'
p71
aS'O'
aS'O'
aS'O'
aS'O'
aS'O'
assb.