ccopy_reg
_reconstructor
p1
(c__main__
KBproperty
p2
c__builtin__
object
p3
NtRp4
(dp5
S'comment'
p6
S'Contains a WikiText representation of this thing'
p7
sS'domain'
p8
S''
sS'instances_count'
p9
I0
sS'phrases'
p10
NsS'syn_hypo'
p11
S''
sS'label'
p12
g7
sS'range'
p13
S'string '
p14
sS'uniq_subjs'
p15
S'0'
sS'uniq_objs'
p16
I0
sS'prop_uri'
p17
S'http://dbpedia.org/ontology/asWikiText'
p18
sS'annotations'
p19
(dp20
S'bag_of_words'
p21
(lp22
S'as'
p23
aS'Wiki'
p24
aS'Text'
p25
aS'string'
p26
aS'Contains'
p27
aS'a'
aS'WikiText'
p28
aS'representation'
p29
aS'of'
p30
aS'this'
p31
aS'thing'
p32
asS'chunk_seq'
p33
(lp34
S'S-SBAR'
p35
aS'B-NP'
p36
aS'I-NP'
p37
aS'E-NP'
p38
aS'S-VP'
p39
aS'B-NP'
p40
aS'I-NP'
p41
aS'E-NP'
p42
aS'S-PP'
p43
aS'B-NP'
p44
aS'E-NP'
p45
asS'dep_seq'
p46
(lp47
(lp48
S'mark'
p49
aS'5'
aS'1'
aa(lp50
S'nn'
p51
aS'4'
aS'2'
aa(lp52
S'nn'
p53
aS'4'
aS'3'
aa(lp54
S'nsubj'
p55
aS'5'
aS'4'
aa(lp56
S'root'
p57
aS'0'
aS'5'
aa(lp58
S'det'
p59
aS'8'
aS'6'
aa(lp60
S'amod'
p61
aS'8'
aS'7'
aa(lp62
S'dobj'
p63
aS'5'
aS'8'
aa(lp64
S'det'
p65
aS'11'
p66
aS'10'
p67
aa(lp68
S'prep_of'
p69
aS'8'
aS'11'
p70
aasS'srls'
p71
(lp72
(dp73
S'A1'
p74
S'a WikiText representation of this thing'
p75
sS'A0'
p76
S'Wiki Text string'
p77
sS'V'
g27
sasS'pos_seq'
p78
(lp79
S'IN'
p80
aS'NNP'
p81
aS'NNP'
p82
aS'NN'
p83
aS'VBZ'
p84
aS'DT'
p85
aS'JJ'
p86
aS'NN'
p87
aS'IN'
p88
aS'DT'
p89
aS'NN'
p90
asS'ner_seq'
p91
(lp92
S'O'
aS'O'
aS'O'
aS'O'
aS'O'
aS'O'
aS'S-MISC'
p93
aS'O'
aS'O'
aS'O'
aS'O'
assb.