ccopy_reg
_reconstructor
p1
(c__main__
KBproperty
p2
c__builtin__
object
p3
NtRp4
(dp5
S'comment'
p6
S'10921284100'
p7
sS'domain'
p8
S''
sS'instances_count'
p9
I35662
sS'phrases'
p10
NsS'syn_hypo'
p11
Vnational_capitalcitymetropolisurban_centerprovincial_capitalcitymetropolisurban_centerstate_capital
p12
sS'label'
p13
S'city'
p14
sS'range'
p15
S'City '
p16
sS'uniq_subjs'
p17
S'35662'
p18
sS'uniq_objs'
p19
I0
sS'prop_uri'
p20
S'http://dbpedia.org/ontology/city'
p21
sS'annotations'
p22
(dp23
S'bag_of_words'
p24
(lp25
S'city'
p26
aS'City'
p27
aS'10921284100'
p28
asS'chunk_seq'
p29
(lp30
S'B-NP'
p31
aS'E-NP'
p32
aS'S-ADVP'
p33
asS'dep_seq'
p34
(lp35
(lp36
S'nn'
p37
aS'2'
aS'1'
aa(lp38
S'root'
p39
aS'0'
aS'2'
aa(lp40
S'num'
p41
aS'2'
aS'3'
aasS'srls'
p42
(lp43
sS'pos_seq'
p44
(lp45
S'NN'
p46
aS'NN'
p47
aS'CD'
p48
asS'ner_seq'
p49
(lp50
S'O'
aS'O'
aS'O'
assb.