ccopy_reg
_reconstructor
p1
(c__main__
KBproperty
p2
c__builtin__
object
p3
NtRp4
(dp5
S'comment'
p6
S'4315'
p7
sS'domain'
p8
S'Wine Region '
p9
sS'instances_count'
p10
I15
sS'phrases'
p11
NsS'syn_hypo'
p12
S''
sS'label'
p13
S'wine produced'
p14
sS'range'
p15
S''
sS'uniq_subjs'
p16
S'15'
p17
sS'uniq_objs'
p18
I0
sS'prop_uri'
p19
S'http://dbpedia.org/ontology/wineProduced'
p20
sS'annotations'
p21
(dp22
S'bag_of_words'
p23
(lp24
S'Wine'
p25
aS'Region'
p26
aS'wine'
p27
aS'produced'
p28
aS'4315'
p29
asS'chunk_seq'
p30
(lp31
S'B-NP'
p32
aS'I-NP'
p33
aS'E-NP'
p34
aS'S-VP'
p35
aS'S-NP'
p36
asS'dep_seq'
p37
(lp38
(lp39
S'nn'
p40
aS'3'
aS'1'
aa(lp41
S'nn'
p42
aS'3'
aS'2'
aa(lp43
S'nsubj'
p44
aS'4'
aS'3'
aa(lp45
S'root'
p46
aS'0'
aS'4'
aa(lp47
S'dobj'
p48
aS'4'
aS'5'
aasS'srls'
p49
(lp50
(dp51
S'A1'
p52
g29
sS'A0'
p53
S'Wine Region wine'
p54
sS'V'
g28
sasS'pos_seq'
p55
(lp56
S'NNP'
p57
aS'NNP'
p58
aS'NN'
p59
aS'VBD'
p60
aS'NN'
p61
asS'ner_seq'
p62
(lp63
S'B-MISC'
p64
aS'E-MISC'
p65
aS'O'
aS'O'
aS'O'
assb.