ccopy_reg
_reconstructor
p1
(c__main__
KBproperty
p2
c__builtin__
object
p3
NtRp4
(dp5
S'comment'
p6
S'The country where the thing is located.761652726559'
p7
sS'domain'
p8
S''
sS'instances_count'
p9
I2805
sS'phrases'
p10
NsS'syn_hypo'
p11
Vallystatenationcountrylandcommonwealthres_publicabody_politiccity_statestatenationcountrylandcommonwealthres_publicabody_politiccity-statestatenationcountrylandcommonwealthres_publicabody_politiccommonwealth_countrystatenationcountrylandcommonwealthres_publicabody_politicdeveloping_countrystatenationcountrylandcommonwealthres_publicabody_politicDominionstatenationcountrylandcommonwealthres_publicabody_politicforeign_countrystatenationcountrylandcommonwealthres_publicabody_politicReichstatenationcountrylandcommonwealthres_publicabody_politicrogue_statestatenationcountrylandcommonwealthres_publicabody_politicrenegade_statestatenationcountrylandcommonwealthres_publicabody_politicrogue_nationstatenationcountrylandcommonwealthres_publicabody_politicsea_powerstatenationcountrylandcommonwealthres_publicabody_politicsuzerainstatenationcountrylandcommonwealthres_publicabody_politicworld_powerstatenationcountrylandcommonwealthres_publicabody_politicmajor_powerstatenationcountrylandcommonwealthres_publicabody_politicgreat_powerstatenationcountrylandcommonwealthres_publicabody_politicpowerstatenationcountrylandcommonwealthres_publicabody_politicsuperpower
p12
sS'label'
p13
S'country'
p14
sS'range'
p15
S'Country '
p16
sS'uniq_subjs'
p17
S'2805'
p18
sS'uniq_objs'
p19
I0
sS'prop_uri'
p20
S'http://dbpedia.org/ontology/country'
p21
sS'annotations'
p22
(dp23
S'bag_of_words'
p24
(lp25
S'country'
p26
aS'Country'
p27
aS'The'
p28
aS'country'
p29
aS'where'
p30
aS'the'
p31
aS'thing'
p32
aS'is'
p33
aS'located.761652726559'
p34
asS'chunk_seq'
p35
(lp36
S'B-NP'
p37
aS'E-NP'
p38
aS'B-NP'
p39
aS'E-NP'
p40
aS'S-ADVP'
p41
aS'B-NP'
p42
aS'E-NP'
p43
aS'S-VP'
p44
aS'S-ADJP'
p45
asS'dep_seq'
p46
(lp47
(lp48
S'nn'
p49
aS'2'
aS'1'
aa(lp50
S'dep'
p51
aS'4'
aS'2'
aa(lp52
S'det'
p53
aS'4'
aS'3'
aa(lp54
S'root'
p55
aS'0'
aS'4'
aa(lp56
S'advmod'
p57
aS'9'
aS'5'
aa(lp58
S'det'
p59
aS'7'
aS'6'
aa(lp60
S'nsubj'
p61
aS'9'
aS'7'
aa(lp62
S'cop'
p63
aS'9'
aS'8'
aa(lp64
S'rcmod'
p65
aS'4'
aS'9'
aasS'srls'
p66
(lp67
sS'pos_seq'
p68
(lp69
S'NN'
p70
aS'NNP'
p71
aS'DT'
p72
aS'NN'
p73
aS'WRB'
p74
aS'DT'
p75
aS'NN'
p76
aS'VBZ'
p77
aS'.'
asS'ner_seq'
p78
(lp79
S'O'
aS'O'
aS'O'
aS'O'
aS'O'
aS'O'
aS'O'
aS'O'
aS'O'
assb.