ccopy_reg
_reconstructor
p1
(c__main__
KBproperty
p2
c__builtin__
object
p3
NtRp4
(dp5
S'comment'
p6
S'1723417193'
p7
sS'domain'
p8
S'Automobile Engine '
p9
sS'instances_count'
p10
I30
sS'phrases'
p11
NsS'syn_hypo'
p12
Vredundancyconfigurationconstellationtopologyconfigurationconstellationnetwork_topologyconfigurationconstellationunitizationconfigurationconstellationunitisationconfigurationconstellationchunking
p13
sS'label'
p14
S'configuration'
p15
sS'range'
p16
S'engine Configuration '
p17
sS'uniq_subjs'
p18
S'30'
p19
sS'uniq_objs'
p20
I0
sS'prop_uri'
p21
S'http://dbpedia.org/ontology/configuration'
p22
sS'annotations'
p23
(dp24
S'bag_of_words'
p25
(lp26
S'Automobile'
p27
aS'Engine'
p28
aS'configuration'
p29
aS'engine'
p30
aS'Configuration'
p31
aS'1723417193'
p32
asS'chunk_seq'
p33
(lp34
S'B-NP'
p35
aS'I-NP'
p36
aS'I-NP'
p37
aS'I-NP'
p38
aS'I-NP'
p39
aS'E-NP'
p40
asS'dep_seq'
p41
(lp42
(lp43
S'nn'
p44
aS'6'
aS'1'
aa(lp45
S'nn'
p46
aS'6'
aS'2'
aa(lp47
S'nn'
p48
aS'6'
aS'3'
aa(lp49
S'nn'
p50
aS'6'
aS'4'
aa(lp51
S'nn'
p52
aS'6'
aS'5'
aa(lp53
S'root'
p54
aS'0'
aS'6'
aasS'srls'
p55
(lp56
sS'pos_seq'
p57
(lp58
S'NNP'
p59
aS'NNP'
p60
aS'NN'
p61
aS'NN'
p62
aS'NN'
p63
aS'NN'
p64
asS'ner_seq'
p65
(lp66
S'O'
aS'O'
aS'O'
aS'O'
aS'O'
aS'O'
assb.