ccopy_reg
_reconstructor
p1
(c__main__
KBproperty
p2
c__builtin__
object
p3
NtRp4
(dp5
S'comment'
p6
S'Type of historic place as defined by the US National Park Service. For instance National Historic Landmark National Monument or National Battlefield.268267'
p7
sS'domain'
p8
S'Historic Place '
p9
sS'instances_count'
p10
I268
sS'phrases'
p11
NsS'syn_hypo'
p12
S''
sS'label'
p13
S'NRHP type'
p14
sS'range'
p15
S''
sS'uniq_subjs'
p16
S'27'
p17
sS'uniq_objs'
p18
I0
sS'prop_uri'
p19
S'http://dbpedia.org/ontology/nrhpType'
p20
sS'annotations'
p21
(dp22
S'bag_of_words'
p23
(lp24
S'Historic'
p25
aS'Place'
p26
aS'NRHP'
p27
aS'type'
p28
aS'Type'
p29
aS'of'
p30
aS'historic'
p31
aS'place'
p32
aS'as'
p33
aS'defined'
p34
aS'by'
p35
aS'the'
p36
aS'US'
p37
aS'National'
p38
aS'Park'
p39
aS'Service.'
p40
aS'For'
p41
aS'instance'
p42
aS'National'
p43
aS'Historic'
p44
aS'Landmark'
p45
aS'National'
p46
aS'Monument'
p47
aS'or'
p48
aS'National'
p49
aS'Battlefield.268267'
p50
asS'chunk_seq'
p51
(lp52
S'B-NP'
p53
aS'I-NP'
p54
aS'I-NP'
p55
aS'I-NP'
p56
aS'E-NP'
p57
aS'S-PP'
p58
aS'B-NP'
p59
aS'E-NP'
p60
aS'S-SBAR'
p61
aS'S-VP'
p62
aS'S-PP'
p63
aS'B-NP'
p64
aS'I-NP'
p65
aS'I-NP'
p66
aS'I-NP'
p67
aS'E-NP'
p68
aS'S-PP'
p69
aS'B-NP'
p70
aS'I-NP'
p71
aS'I-NP'
p72
aS'I-NP'
p73
aS'I-NP'
p74
aS'I-NP'
p75
aS'I-NP'
p76
aS'I-NP'
p77
aS'E-NP'
p78
asS'dep_seq'
p79
(lp80
(lp81
S'amod'
p82
aS'5'
aS'1'
aa(lp83
S'nn'
p84
aS'5'
aS'2'
aa(lp85
S'nn'
p86
aS'5'
aS'3'
aa(lp87
S'nn'
p88
aS'5'
aS'4'
aa(lp89
S'dep'
p90
aS'23'
p91
aS'5'
aa(lp92
S'dep'
p93
aS'23'
p94
aS'6'
aa(lp95
S'amod'
p96
aS'8'
aS'7'
aa(lp97
S'pobj'
p98
aS'6'
aS'8'
aa(lp99
S'dep'
p100
aS'23'
p101
aS'9'
aa(lp102
S'dep'
p103
aS'23'
p104
aS'10'
p105
aa(lp106
S'dep'
p107
aS'23'
p108
aS'11'
p109
aa(lp110
S'det'
p111
aS'16'
p112
aS'12'
p113
aa(lp114
S'nn'
p115
aS'16'
p116
aS'13'
p117
aa(lp118
S'nn'
p119
aS'16'
p120
aS'14'
p121
aa(lp122
S'nn'
p123
aS'16'
p124
aS'15'
p125
aa(lp126
S'pobj'
p127
aS'11'
p128
aS'16'
p129
aa(lp130
S'dep'
p131
aS'23'
p132
aS'17'
p133
aa(lp134
S'pobj'
p135
aS'17'
p136
aS'18'
p137
aa(lp138
S'dep'
p139
aS'23'
p140
aS'19'
p141
aa(lp142
S'dep'
p143
aS'23'
p144
aS'20'
p145
aa(lp146
S'dep'
p147
aS'23'
p148
aS'21'
p149
aa(lp150
S'dep'
p151
aS'23'
p152
aS'22'
p153
aa(lp154
S'root'
p155
aS'0'
aS'23'
p156
aa(lp157
S'nn'
p158
aS'26'
p159
aS'25'
p160
aa(lp161
S'conj_or'
p162
aS'23'
p163
aS'26'
p164
aasS'srls'
p165
(lp166
(dp167
S'A1'
p168
S'Historic Place NRHP type Type'
p169
sS'A0'
p170
S'by the US National Park Service. For instance National Historic Landmark National Monument or National Battlefield.268267'
p171
sS'V'
g34
sasS'pos_seq'
p172
(lp173
S'JJ'
p174
aS'NNP'
p175
aS'NNP'
p176
aS'NN'
p177
aS'NN'
p178
aS'IN'
p179
aS'JJ'
p180
aS'NN'
p181
aS'IN'
p182
aS'VBN'
p183
aS'IN'
p184
aS'DT'
p185
aS'NNP'
p186
aS'NNP'
p187
aS'NNP'
p188
aS'NNP'
p189
aS'IN'
p190
aS'NN'
p191
aS'NNP'
p192
aS'NNP'
p193
aS'NNP'
p194
aS'NNP'
p195
aS'NNP'
p196
aS'CC'
p197
aS'NNP'
p198
aS'NNP'
p199
asS'ner_seq'
p200
(lp201
S'O'
aS'O'
aS'O'
aS'O'
aS'O'
aS'O'
aS'O'
aS'O'
aS'O'
aS'O'
aS'O'
aS'O'
aS'B-ORG'
p202
aS'I-ORG'
p203
aS'I-ORG'
p204
aS'E-ORG'
p205
aS'O'
aS'O'
aS'B-ORG'
p206
aS'I-ORG'
p207
aS'I-ORG'
p208
aS'I-ORG'
p209
aS'I-ORG'
p210
aS'I-ORG'
p211
aS'I-ORG'
p212
aS'E-ORG'
p213
assb.