ccopy_reg
_reconstructor
p1
(c__main__
KBproperty
p2
c__builtin__
object
p3
NtRp4
(dp5
S'comment'
p6
S"Dutch Winkel ID is a code for an underground publication as attributed by Lydia Winkel's work on the underground WW II press in the Netherlands.00"
p7
sS'domain'
p8
S'Underground Journal '
p9
sS'instances_count'
p10
I0
sS'phrases'
p11
NsS'syn_hypo'
p12
S''
sS'label'
p13
S'Dutch PPN code'
p14
sS'range'
p15
S'string '
p16
sS'uniq_subjs'
p17
S'0'
sS'uniq_objs'
p18
I0
sS'prop_uri'
p19
S'http://dbpedia.org/ontology/dutchWinkelID'
p20
sS'annotations'
p21
(dp22
S'bag_of_words'
p23
(lp24
S'Underground'
p25
aS'Journal'
p26
aS'Dutch'
p27
aS'PPN'
p28
aS'code'
p29
aS'string'
p30
aS'Dutch'
p31
aS'Winkel'
p32
aS'ID'
p33
aS'is'
p34
aS'a'
aS'code'
p35
aS'for'
p36
aS'an'
p37
aS'underground'
p38
aS'publication'
p39
aS'as'
p40
aS'attributed'
p41
aS'by'
p42
aS'Lydia'
p43
aS'Winkel'
p44
aS"'s"
p45
aS'work'
p46
aS'on'
p47
aS'the'
p48
aS'underground'
p49
aS'WW'
p50
aS'II'
p51
aS'press'
p52
aS'in'
p53
aS'the'
p54
aS'Netherlands.00'
p55
asS'chunk_seq'
p56
(lp57
S'B-NP'
p58
aS'I-NP'
p59
aS'I-NP'
p60
aS'I-NP'
p61
aS'I-NP'
p62
aS'I-NP'
p63
aS'I-NP'
p64
aS'I-NP'
p65
aS'E-NP'
p66
aS'S-VP'
p67
aS'B-NP'
p68
aS'E-NP'
p69
aS'S-PP'
p70
aS'B-NP'
p71
aS'I-NP'
p72
aS'E-NP'
p73
aS'S-PP'
p74
aS'S-VP'
p75
aS'S-PP'
p76
aS'B-NP'
p77
aS'E-NP'
p78
aS'B-NP'
p79
aS'E-NP'
p80
aS'S-PP'
p81
aS'B-NP'
p82
aS'I-NP'
p83
aS'I-NP'
p84
aS'I-NP'
p85
aS'E-NP'
p86
aS'S-PP'
p87
aS'B-NP'
p88
aS'E-NP'
p89
asS'dep_seq'
p90
(lp91
(lp92
S'nn'
p93
aS'9'
aS'1'
aa(lp94
S'nn'
p95
aS'9'
aS'2'
aa(lp96
S'nn'
p97
aS'9'
aS'3'
aa(lp98
S'nn'
p99
aS'9'
aS'4'
aa(lp100
S'nn'
p101
aS'9'
aS'5'
aa(lp102
S'nn'
p103
aS'9'
aS'6'
aa(lp104
S'nn'
p105
aS'9'
aS'7'
aa(lp106
S'nn'
p107
aS'9'
aS'8'
aa(lp108
S'nsubj'
p109
aS'12'
p110
aS'9'
aa(lp111
S'cop'
p112
aS'12'
p113
aS'10'
p114
aa(lp115
S'det'
p116
aS'12'
p117
aS'11'
p118
aa(lp119
S'root'
p120
aS'0'
aS'12'
p121
aa(lp122
S'det'
p123
aS'16'
p124
aS'14'
p125
aa(lp126
S'amod'
p127
aS'16'
p128
aS'15'
p129
aa(lp130
S'prep_for'
p131
aS'12'
p132
aS'16'
p133
aa(lp134
S'mark'
p135
aS'18'
p136
aS'17'
p137
aa(lp138
S'dep'
p139
aS'16'
p140
aS'18'
p141
aa(lp142
S'nn'
p143
aS'21'
p144
aS'20'
p145
aa(lp146
S'poss'
p147
aS'23'
p148
aS'21'
p149
aa(lp150
S'prep_by'
p151
aS'18'
p152
aS'23'
p153
aa(lp154
S'det'
p155
aS'29'
p156
aS'25'
p157
aa(lp158
S'amod'
p159
aS'29'
p160
aS'26'
p161
aa(lp162
S'nn'
p163
aS'29'
p164
aS'27'
p165
aa(lp166
S'nn'
p167
aS'29'
p168
aS'28'
p169
aa(lp170
S'prep_on'
p171
aS'18'
p172
aS'29'
p173
aa(lp174
S'det'
p175
aS'32'
p176
aS'31'
p177
aa(lp178
S'prep_in'
p179
aS'29'
p180
aS'32'
p181
aasS'srls'
p182
(lp183
(dp184
S'A0'
p185
S"by Lydia Winkel 's work on the underground WW II press in the Netherlands.00"
p186
sS'V'
g41
sasS'pos_seq'
p187
(lp188
S'NNP'
p189
aS'NNP'
p190
aS'NNP'
p191
aS'NNP'
p192
aS'NN'
p193
aS'NN'
p194
aS'NNP'
p195
aS'NNP'
p196
aS'NNP'
p197
aS'VBZ'
p198
aS'DT'
p199
aS'NN'
p200
aS'IN'
p201
aS'DT'
p202
aS'JJ'
p203
aS'NN'
p204
aS'IN'
p205
aS'VBN'
p206
aS'IN'
p207
aS'NNP'
p208
aS'NNP'
p209
aS'POS'
p210
aS'NN'
p211
aS'IN'
p212
aS'DT'
p213
aS'JJ'
p214
aS'NNP'
p215
aS'NNP'
p216
aS'NN'
p217
aS'IN'
p218
aS'DT'
p219
aS'NNP'
p220
asS'ner_seq'
p221
(lp222
S'B-ORG'
p223
aS'E-ORG'
p224
aS'S-MISC'
p225
aS'S-ORG'
p226
aS'O'
aS'O'
aS'S-MISC'
p227
aS'S-ORG'
p228
aS'O'
aS'O'
aS'O'
aS'O'
aS'O'
aS'O'
aS'O'
aS'O'
aS'O'
aS'O'
aS'O'
aS'B-PER'
p229
aS'E-PER'
p230
aS'O'
aS'O'
aS'O'
aS'O'
aS'O'
aS'B-MISC'
p231
aS'E-MISC'
p232
aS'O'
aS'O'
aS'O'
aS'S-MISC'
p233
assb.