ccopy_reg
_reconstructor
p1
(c__main__
KBproperty
p2
c__builtin__
object
p3
NtRp4
(dp5
S'comment'
p6
S"element placed above current element in D.I.Mendeleev's table00"
p7
sS'domain'
p8
S''
sS'instances_count'
p9
I0
sS'phrases'
p10
NsS'syn_hypo'
p11
S''
sS'label'
p12
S'element above'
p13
sS'range'
p14
S'Chemical Substance '
p15
sS'uniq_subjs'
p16
S'0'
sS'uniq_objs'
p17
I0
sS'prop_uri'
p18
S'http://dbpedia.org/ontology/elementAbove'
p19
sS'annotations'
p20
(dp21
S'bag_of_words'
p22
(lp23
S'element'
p24
aS'above'
p25
aS'Chemical'
p26
aS'Substance'
p27
aS'element'
p28
aS'placed'
p29
aS'above'
p30
aS'current'
p31
aS'element'
p32
aS'in'
p33
aS'D.'
p34
aS'I.'
p35
aS'Mendeleev'
p36
aS"'s"
p37
aS'table00'
p38
asS'chunk_seq'
p39
(lp40
S'S-VP'
p41
aS'S-PP'
p42
aS'B-NP'
p43
aS'I-NP'
p44
aS'E-NP'
p45
aS'S-VP'
p46
aS'S-PP'
p47
aS'B-NP'
p48
aS'E-NP'
p49
aS'S-PP'
p50
aS'B-NP'
p51
aS'I-NP'
p52
aS'E-NP'
p53
aS'B-NP'
p54
aS'E-NP'
p55
asS'dep_seq'
p56
(lp57
(lp58
S'root'
p59
aS'0'
aS'1'
aa(lp60
S'nn'
p61
aS'5'
aS'3'
aa(lp62
S'nn'
p63
aS'5'
aS'4'
aa(lp64
S'prep_above'
p65
aS'1'
aS'5'
aa(lp66
S'partmod'
p67
aS'5'
aS'6'
aa(lp68
S'amod'
p69
aS'9'
aS'8'
aa(lp70
S'prep_above'
p71
aS'6'
aS'9'
aa(lp72
S'nn'
p73
aS'13'
p74
aS'11'
p75
aa(lp76
S'nn'
p77
aS'13'
p78
aS'12'
p79
aa(lp80
S'poss'
p81
aS'15'
p82
aS'13'
p83
aa(lp84
S'prep_in'
p85
aS'6'
aS'15'
p86
aasS'srls'
p87
(lp88
(dp89
S'A1'
p90
S'Chemical Substance element'
p91
sS'A2'
p92
S'above current element'
p93
sS'V'
g29
sasS'pos_seq'
p94
(lp95
S'NN'
p96
aS'IN'
p97
aS'NNP'
p98
aS'NNP'
p99
aS'NN'
p100
aS'VBN'
p101
aS'IN'
p102
aS'JJ'
p103
aS'NN'
p104
aS'IN'
p105
aS'NNP'
p106
aS'NNP'
p107
aS'NNP'
p108
aS'POS'
p109
aS'NN'
p110
asS'ner_seq'
p111
(lp112
S'O'
aS'O'
aS'O'
aS'O'
aS'O'
aS'O'
aS'O'
aS'O'
aS'O'
aS'O'
aS'B-PER'
p113
aS'I-PER'
p114
aS'E-PER'
p115
aS'O'
aS'O'
assb.