ccopy_reg
_reconstructor
p1
(c__main__
KBproperty
p2
c__builtin__
object
p3
NtRp4
(dp5
S'comment'
p6
S'Standard iconographic elements used when depicting a Saint: pontifical episcopal insignia martyrdom instruments00'
p7
sS'domain'
p8
S'Saint '
p9
sS'instances_count'
p10
I0
sS'phrases'
p11
NsS'syn_hypo'
p12
S''
sS'label'
p13
S'iconographic attributes'
p14
sS'range'
p15
S'lang String '
p16
sS'uniq_subjs'
p17
S'0'
sS'uniq_objs'
p18
I0
sS'prop_uri'
p19
S'http://dbpedia.org/ontology/iconographicAttributes'
p20
sS'annotations'
p21
(dp22
S'bag_of_words'
p23
(lp24
S'Saint'
p25
aS'iconographic'
p26
aS'attributes'
p27
aS'lang'
p28
aS'String'
p29
aS'Standard'
p30
aS'iconographic'
p31
aS'elements'
p32
aS'used'
p33
aS'when'
p34
aS'depicting'
p35
aS'a'
aS'Saint'
p36
aS':'
aS'pontifical'
p37
aS'episcopal'
p38
aS'insignia'
p39
aS'martyrdom'
p40
aS'instruments00'
p41
asS'chunk_seq'
p42
(lp43
S'B-NP'
p44
aS'I-NP'
p45
aS'I-NP'
p46
aS'I-NP'
p47
aS'I-NP'
p48
aS'I-NP'
p49
aS'I-NP'
p50
aS'E-NP'
p51
aS'S-VP'
p52
aS'S-ADVP'
p53
aS'S-VP'
p54
aS'B-NP'
p55
aS'E-NP'
p56
aS'O'
aS'B-NP'
p57
aS'I-NP'
p58
aS'I-NP'
p59
aS'I-NP'
p60
aS'E-NP'
p61
asS'dep_seq'
p62
(lp63
(lp64
S'nn'
p65
aS'3'
aS'1'
aa(lp66
S'amod'
p67
aS'3'
aS'2'
aa(lp68
S'root'
p69
aS'0'
aS'3'
aa(lp70
S'amod'
p71
aS'3'
aS'4'
aa(lp72
S'nn'
p73
aS'8'
aS'5'
aa(lp74
S'nn'
p75
aS'8'
aS'6'
aa(lp76
S'amod'
p77
aS'8'
aS'7'
aa(lp78
S'dep'
p79
aS'3'
aS'8'
aa(lp80
S'partmod'
p81
aS'8'
aS'9'
aa(lp82
S'advmod'
p83
aS'11'
p84
aS'10'
p85
aa(lp86
S'advcl'
p87
aS'9'
aS'11'
p88
aa(lp89
S'det'
p90
aS'13'
p91
aS'12'
p92
aa(lp93
S'dobj'
p94
aS'11'
p95
aS'13'
p96
aa(lp97
S'amod'
p98
aS'17'
p99
aS'15'
p100
aa(lp101
S'amod'
p102
aS'17'
p103
aS'16'
p104
aa(lp105
S'dep'
p106
aS'8'
aS'17'
p107
aa(lp108
S'nn'
p109
aS'19'
p110
aS'18'
p111
aa(lp112
S'dep'
p113
aS'17'
p114
aS'19'
p115
aasS'srls'
p116
(lp117
(dp118
S'A1'
p119
S'Saint iconographic attributes lang String Standard iconographic elements'
p120
sS'AM-TMP'
p121
S'when depicting a Saint : pontifical episcopal insignia martyrdom instruments00'
p122
sS'V'
g33
sa(dp123
S'A1'
p124
S'a Saint : pontifical episcopal insignia martyrdom instruments00'
p125
sS'A0'
p126
S'Saint iconographic attributes lang String Standard iconographic elements'
p127
sS'V'
g35
sasS'pos_seq'
p128
(lp129
S'NNP'
p130
aS'JJ'
p131
aS'NNS'
p132
aS'VBG'
p133
aS'NNP'
p134
aS'NNP'
p135
aS'JJ'
p136
aS'NNS'
p137
aS'VBN'
p138
aS'WRB'
p139
aS'VBG'
p140
aS'DT'
p141
aS'NNP'
p142
aS':'
aS'JJ'
p143
aS'JJ'
p144
aS'NN'
p145
aS'NN'
p146
aS'NN'
p147
asS'ner_seq'
p148
(lp149
S'O'
aS'O'
aS'O'
aS'O'
aS'B-MISC'
p150
aS'E-MISC'
p151
aS'O'
aS'O'
aS'O'
aS'O'
aS'O'
aS'O'
aS'O'
aS'O'
aS'O'
aS'O'
aS'O'
aS'O'
aS'O'
assb.