ccopy_reg
_reconstructor
p1
(c__main__
KBproperty
p2
c__builtin__
object
p3
NtRp4
(dp5
S'comment'
p6
S'22812274'
p7
sS'domain'
p8
S'Power Station '
p9
sS'instances_count'
p10
I946
sS'phrases'
p11
NsS'syn_hypo'
p12
S''
sS'label'
p13
S'installed capacity W'
p14
sS'range'
p15
S'double '
p16
sS'uniq_subjs'
p17
S'946'
p18
sS'uniq_objs'
p19
I0
sS'prop_uri'
p20
S'http://dbpedia.org/ontology/installedCapacity'
p21
sS'annotations'
p22
(dp23
S'bag_of_words'
p24
(lp25
S'Power'
p26
aS'Station'
p27
aS'installed'
p28
aS'capacity'
p29
aS'W'
aS'double'
p30
aS'22812274'
p31
asS'chunk_seq'
p32
(lp33
S'B-NP'
p34
aS'E-NP'
p35
aS'S-VP'
p36
aS'B-NP'
p37
aS'I-NP'
p38
aS'I-NP'
p39
aS'E-NP'
p40
asS'dep_seq'
p41
(lp42
(lp43
S'nn'
p44
aS'2'
aS'1'
aa(lp45
S'nsubj'
p46
aS'3'
aS'2'
aa(lp47
S'root'
p48
aS'0'
aS'3'
aa(lp49
S'iobj'
p50
aS'3'
aS'4'
aa(lp51
S'nn'
p52
aS'7'
aS'5'
aa(lp53
S'amod'
p54
aS'7'
aS'6'
aa(lp55
S'dobj'
p56
aS'3'
aS'7'
aasS'srls'
p57
(lp58
(dp59
S'A1'
p60
S'capacity W double 22812274'
p61
sS'A0'
p62
S'Power Station'
p63
sS'V'
g28
sasS'pos_seq'
p64
(lp65
S'NNP'
p66
aS'NNP'
p67
aS'VBD'
p68
aS'NN'
p69
aS'NNP'
p70
aS'JJ'
p71
aS'NN'
p72
asS'ner_seq'
p73
(lp74
S'B-ORG'
p75
aS'E-ORG'
p76
aS'O'
aS'O'
aS'O'
aS'O'
aS'O'
assb.