ccopy_reg
_reconstructor
p1
(c__main__
KBproperty
p2
c__builtin__
object
p3
NtRp4
(dp5
S'comment'
p6
S'00'
p7
sS'domain'
p8
S'Place '
p9
sS'instances_count'
p10
I0
sS'phrases'
p11
NsS'syn_hypo'
p12
S''
sS'label'
p13
S'foresterDistrict'
p14
sS'range'
p15
S''
sS'uniq_subjs'
p16
S'0'
sS'uniq_objs'
p17
I0
sS'prop_uri'
p18
S'http://dbpedia.org/ontology/foresterDistrict'
p19
sS'annotations'
p20
(dp21
S'bag_of_words'
p22
(lp23
S'Place'
p24
aS'foresterDistrict'
p25
aS'00'
p26
asS'chunk_seq'
p27
(lp28
S'S-NP'
p29
aS'B-NP'
p30
aS'E-NP'
p31
asS'dep_seq'
p32
(lp33
(lp34
S'root'
p35
aS'0'
aS'1'
aa(lp36
S'amod'
p37
aS'1'
aS'2'
aa(lp38
S'num'
p39
aS'1'
aS'3'
aasS'srls'
p40
(lp41
sS'pos_seq'
p42
(lp43
S'NN'
p44
aS'JJ'
p45
aS'CD'
p46
asS'ner_seq'
p47
(lp48
S'O'
aS'O'
aS'O'
assb.