ccopy_reg
_reconstructor
p1
(c__main__
KBproperty
p2
c__builtin__
object
p3
NtRp4
(dp5
S'comment'
p6
S'00'
p7
sS'domain'
p8
S'Olympics '
p9
sS'instances_count'
p10
I0
sS'phrases'
p11
NsS'syn_hypo'
p12
S''
sS'label'
p13
S'olympic oath sworn by'
p14
sS'range'
p15
S'Person '
p16
sS'uniq_subjs'
p17
S'0'
sS'uniq_objs'
p18
I0
sS'prop_uri'
p19
S'http://dbpedia.org/ontology/olympicOathSwornBy'
p20
sS'annotations'
p21
(dp22
S'bag_of_words'
p23
(lp24
S'Olympics'
p25
aS'olympic'
p26
aS'oath'
p27
aS'sworn'
p28
aS'by'
p29
aS'Person'
p30
aS'00'
p31
asS'chunk_seq'
p32
(lp33
S'B-NP'
p34
aS'I-NP'
p35
aS'E-NP'
p36
aS'S-VP'
p37
aS'S-PP'
p38
aS'S-NP'
p39
aS'O'
asS'dep_seq'
p40
(lp41
(lp42
S'nn'
p43
aS'3'
aS'1'
aa(lp44
S'amod'
p45
aS'3'
aS'2'
aa(lp46
S'root'
p47
aS'0'
aS'3'
aa(lp48
S'partmod'
p49
aS'3'
aS'4'
aa(lp50
S'agent'
p51
aS'4'
aS'6'
aa(lp52
S'num'
p53
aS'6'
aS'7'
aasS'srls'
p54
(lp55
(dp56
S'A1'
p57
S'Olympics olympic oath'
p58
sS'A0'
p59
S'by Person'
p60
sS'AM-TMP'
p61
g31
sS'V'
g28
sasS'pos_seq'
p62
(lp63
S'NNS'
p64
aS'JJ'
p65
aS'NN'
p66
aS'VBN'
p67
aS'IN'
p68
aS'NN'
p69
aS'CD'
p70
asS'ner_seq'
p71
(lp72
S'S-MISC'
p73
aS'O'
aS'O'
aS'O'
aS'O'
aS'O'
aS'O'
assb.