ccopy_reg
_reconstructor
p1
(c__main__
KBproperty
p2
c__builtin__
object
p3
NtRp4
(dp5
S'comment'
p6
S'591591'
p7
sS'domain'
p8
S'Olympic Result '
p9
sS'instances_count'
p10
I51
sS'phrases'
p11
NsS'syn_hypo'
p12
S''
sS'label'
p13
S'rank in final medal count'
p14
sS'range'
p15
S'positive Integer '
p16
sS'uniq_subjs'
p17
S'51'
p18
sS'uniq_objs'
p19
I0
sS'prop_uri'
p20
S'http://dbpedia.org/ontology/rankInFinalMedalCount'
p21
sS'annotations'
p22
(dp23
S'bag_of_words'
p24
(lp25
S'Olympic'
p26
aS'Result'
p27
aS'rank'
p28
aS'in'
p29
aS'final'
p30
aS'medal'
p31
aS'count'
p32
aS'positive'
p33
aS'Integer'
p34
aS'591591'
p35
asS'chunk_seq'
p36
(lp37
S'B-NP'
p38
aS'I-NP'
p39
aS'E-NP'
p40
aS'S-PP'
p41
aS'B-NP'
p42
aS'E-NP'
p43
aS'S-VP'
p44
aS'B-NP'
p45
aS'E-NP'
p46
aS'O'
asS'dep_seq'
p47
(lp48
(lp49
S'nn'
p50
aS'3'
aS'1'
aa(lp51
S'nn'
p52
aS'3'
aS'2'
aa(lp53
S'nsubj'
p54
aS'7'
aS'3'
aa(lp55
S'amod'
p56
aS'6'
aS'5'
aa(lp57
S'prep_in'
p58
aS'3'
aS'6'
aa(lp59
S'root'
p60
aS'0'
aS'7'
aa(lp61
S'amod'
p62
aS'9'
aS'8'
aa(lp63
S'dobj'
p64
aS'7'
aS'9'
aa(lp65
S'punct'
p66
aS'9'
aS'10'
p67
aasS'srls'
p68
(lp69
(dp70
S'A1'
p71
S'positive Integer 591591'
p72
sS'A0'
p73
S'Olympic Result rank in final medal'
p74
sS'V'
g32
sasS'pos_seq'
p75
(lp76
S'NNP'
p77
aS'NNP'
p78
aS'NN'
p79
aS'IN'
p80
aS'JJ'
p81
aS'NN'
p82
aS'VB'
p83
aS'JJ'
p84
aS'NNP'
p85
aS'.'
asS'ner_seq'
p86
(lp87
S'S-MISC'
p88
aS'O'
aS'O'
aS'O'
aS'O'
aS'O'
aS'O'
aS'O'
aS'O'
aS'O'
assb.