ccopy_reg
_reconstructor
p1
(c__main__
KBproperty
p2
c__builtin__
object
p3
NtRp4
(dp5
S'comment'
p6
S'00'
p7
sS'domain'
p8
S'Chemical Substance '
p9
sS'instances_count'
p10
I0
sS'phrases'
p11
NsS'syn_hypo'
p12
S''
sS'label'
p13
S'solvent with mediocre solubility'
p14
sS'range'
p15
S'Chemical Substance '
p16
sS'uniq_subjs'
p17
S'0'
sS'uniq_objs'
p18
I0
sS'prop_uri'
p19
S'http://dbpedia.org/ontology/solventWithMediocreSolubility'
p20
sS'annotations'
p21
(dp22
S'bag_of_words'
p23
(lp24
S'Chemical'
p25
aS'Substance'
p26
aS'solvent'
p27
aS'with'
p28
aS'mediocre'
p29
aS'solubility'
p30
aS'Chemical'
p31
aS'Substance'
p32
aS'00'
p33
asS'chunk_seq'
p34
(lp35
S'B-NP'
p36
aS'E-NP'
p37
aS'S-ADJP'
p38
aS'S-PP'
p39
aS'B-NP'
p40
aS'I-NP'
p41
aS'I-NP'
p42
aS'E-NP'
p43
aS'O'
asS'dep_seq'
p44
(lp45
(lp46
S'nn'
p47
aS'2'
aS'1'
aa(lp48
S'root'
p49
aS'0'
aS'2'
aa(lp50
S'amod'
p51
aS'2'
aS'3'
aa(lp52
S'amod'
p53
aS'8'
aS'5'
aa(lp54
S'nn'
p55
aS'8'
aS'6'
aa(lp56
S'nn'
p57
aS'8'
aS'7'
aa(lp58
S'prep_with'
p59
aS'3'
aS'8'
aa(lp60
S'num'
p61
aS'8'
aS'9'
aasS'srls'
p62
(lp63
sS'pos_seq'
p64
(lp65
S'NNP'
p66
aS'NNP'
p67
aS'JJ'
p68
aS'IN'
p69
aS'JJ'
p70
aS'NN'
p71
aS'NNP'
p72
aS'NNP'
p73
aS'CD'
p74
asS'ner_seq'
p75
(lp76
S'O'
aS'O'
aS'O'
aS'O'
aS'O'
aS'O'
aS'O'
aS'O'
aS'O'
assb.