ccopy_reg
_reconstructor
p1
(c__main__
KBproperty
p2
c__builtin__
object
p3
NtRp4
(dp5
S'comment'
p6
S'distance traveled \\xce\\xbc'
p7
sS'domain'
p8
S'Space Mission '
p9
sS'instances_count'
p10
I0
sS'phrases'
p11
NsS'syn_hypo'
p12
S''
sS'label'
p13
g7
sS'range'
p14
S'double '
p15
sS'uniq_subjs'
p16
S'0'
sS'uniq_objs'
p17
I0
sS'prop_uri'
p18
S'http://dbpedia.org/ontology/distanceTraveled'
p19
sS'annotations'
p20
(dp21
S'bag_of_words'
p22
(lp23
S'Space'
p24
aS'Mission'
p25
aS'distance'
p26
aS'Traveled'
p27
aS'double'
p28
aS'distance'
p29
aS'traveled'
p30
aS'\\'
aS'xce'
p31
aS'\\'
aS'xbc'
p32
asS'chunk_seq'
p33
(lp34
S'B-NP'
p35
aS'I-NP'
p36
aS'E-NP'
p37
aS'S-VP'
p38
aS'B-NP'
p39
aS'E-NP'
p40
aS'S-VP'
p41
aS'O'
aS'O'
aS'O'
aS'O'
asS'dep_seq'
p42
(lp43
(lp44
S'nn'
p45
aS'3'
aS'1'
aa(lp46
S'nn'
p47
aS'3'
aS'2'
aa(lp48
S'nsubj'
p49
aS'4'
aS'3'
aa(lp50
S'root'
p51
aS'0'
aS'4'
aa(lp52
S'amod'
p53
aS'6'
aS'5'
aa(lp54
S'dobj'
p55
aS'4'
aS'6'
aa(lp56
S'dep'
p57
aS'4'
aS'7'
aa(lp58
S'dep'
p59
aS'4'
aS'8'
aa(lp60
S'discourse'
p61
aS'4'
aS'9'
aa(lp62
S'dep'
p63
aS'9'
aS'10'
p64
aa(lp65
S'dep'
p66
aS'9'
aS'11'
p67
aasS'srls'
p68
(lp69
(dp70
S'A1'
p71
S'double distance'
p72
sS'A0'
p73
S'Space Mission distance'
p74
sS'V'
g27
sa(dp75
S'A1'
p76
S'\\ xce \\ xbc'
p77
sS'A0'
p78
S'Space Mission distance Traveled double distance'
p79
sS'V'
g30
sasS'pos_seq'
p80
(lp81
S'NNP'
p82
aS'NNP'
p83
aS'NN'
p84
aS'VBD'
p85
aS'JJ'
p86
aS'NN'
p87
aS'VBN'
p88
aS'FW'
p89
aS'FW'
p90
aS'FW'
p91
aS'FW'
p92
asS'ner_seq'
p93
(lp94
S'B-ORG'
p95
aS'E-ORG'
p96
aS'O'
aS'O'
aS'O'
aS'O'
aS'O'
aS'O'
aS'O'
aS'O'
aS'O'
assb.