ccopy_reg
_reconstructor
p1
(c__main__
KBproperty
p2
c__builtin__
object
p3
NtRp4
(dp5
S'comment'
p6
S'defines codes for the names of countries dependent territories and special areas of geographical interest00'
p7
sS'domain'
p8
S'Place '
p9
sS'instances_count'
p10
I0
sS'phrases'
p11
NsS'syn_hypo'
p12
S''
sS'label'
p13
S'ISO 3166-1 code'
p14
sS'range'
p15
S'string '
p16
sS'uniq_subjs'
p17
S'0'
sS'uniq_objs'
p18
I0
sS'prop_uri'
p19
S'http://dbpedia.org/ontology/iso31661Code'
p20
sS'annotations'
p21
(dp22
S'bag_of_words'
p23
(lp24
S'Place'
p25
aS'ISO'
p26
aS'3166-1'
p27
aS'code'
p28
aS'string'
p29
aS'defines'
p30
aS'codes'
p31
aS'for'
p32
aS'the'
p33
aS'names'
p34
aS'of'
p35
aS'countries'
p36
aS'dependent'
p37
aS'territories'
p38
aS'and'
p39
aS'special'
p40
aS'areas'
p41
aS'of'
p42
aS'geographical'
p43
aS'interest00'
p44
asS'chunk_seq'
p45
(lp46
S'S-NP'
p47
aS'B-NP'
p48
aS'I-NP'
p49
aS'I-NP'
p50
aS'E-NP'
p51
aS'S-VP'
p52
aS'S-NP'
p53
aS'S-PP'
p54
aS'B-NP'
p55
aS'E-NP'
p56
aS'S-PP'
p57
aS'S-NP'
p58
aS'B-NP'
p59
aS'E-NP'
p60
aS'O'
aS'B-NP'
p61
aS'E-NP'
p62
aS'S-PP'
p63
aS'B-NP'
p64
aS'E-NP'
p65
asS'dep_seq'
p66
(lp67
(lp68
S'nn'
p69
aS'5'
aS'1'
aa(lp70
S'nn'
p71
aS'5'
aS'2'
aa(lp72
S'num'
p73
aS'5'
aS'1'
aa(lp74
S'nn'
p75
aS'5'
aS'4'
aa(lp76
S'dep'
p77
aS'14'
p78
aS'5'
aa(lp79
S'dep'
p80
aS'14'
p81
aS'6'
aa(lp82
S'dep'
p83
aS'14'
p84
aS'7'
aa(lp85
S'dep'
p86
aS'14'
p87
aS'8'
aa(lp88
S'det'
p89
aS'10'
p90
aS'9'
aa(lp91
S'dep'
p92
aS'14'
p93
aS'10'
p94
aa(lp95
S'dep'
p96
aS'14'
p97
aS'11'
p98
aa(lp99
S'pobj'
p100
aS'11'
p101
aS'12'
p102
aa(lp103
S'amod'
p104
aS'14'
p105
aS'13'
p106
aa(lp107
S'root'
p108
aS'0'
aS'14'
p109
aa(lp110
S'amod'
p111
aS'17'
p112
aS'16'
p113
aa(lp114
S'conj_and'
p115
aS'14'
p116
aS'17'
p117
aa(lp118
S'amod'
p119
aS'20'
p120
aS'19'
p121
aa(lp122
S'prep_of'
p123
aS'17'
p124
aS'20'
p125
aasS'srls'
p126
(lp127
(dp128
S'A1'
p129
g31
sS'A0'
p130
S'Place ISO 3166-1 code string'
p131
sS'A2'
p132
S'for the names of countries dependent territories and special areas of geographical interest00'
p133
sS'V'
g30
sasS'pos_seq'
p134
(lp135
S'NNP'
p136
aS'NNP'
p137
aS'CD'
p138
aS'NN'
p139
aS'NN'
p140
aS'VBZ'
p141
aS'NNS'
p142
aS'IN'
p143
aS'DT'
p144
aS'NNS'
p145
aS'IN'
p146
aS'NNS'
p147
aS'JJ'
p148
aS'NNS'
p149
aS'CC'
p150
aS'JJ'
p151
aS'NNS'
p152
aS'IN'
p153
aS'JJ'
p154
aS'NN'
p155
asS'ner_seq'
p156
(lp157
S'O'
aS'O'
aS'O'
aS'O'
aS'O'
aS'O'
aS'O'
aS'O'
aS'O'
aS'O'
aS'O'
aS'O'
aS'O'
aS'O'
aS'O'
aS'O'
aS'O'
aS'O'
aS'O'
aS'O'
assb.