ccopy_reg
_reconstructor
p1
(c__main__
KBproperty
p2
c__builtin__
object
p3
NtRp4
(dp5
S'comment'
p6
S'189180'
p7
sS'domain'
p8
S''
sS'instances_count'
p9
I24
sS'phrases'
p10
NsS'syn_hypo'
p11
S''
sS'label'
p12
S'failed launches'
p13
sS'range'
p14
S'non Negative Integer '
p15
sS'uniq_subjs'
p16
S'24'
p17
sS'uniq_objs'
p18
I0
sS'prop_uri'
p19
S'http://dbpedia.org/ontology/failedLaunches'
p20
sS'annotations'
p21
(dp22
S'bag_of_words'
p23
(lp24
S'failed'
p25
aS'launches'
p26
aS'non'
p27
aS'Negative'
p28
aS'Integer'
p29
aS'189180'
p30
asS'chunk_seq'
p31
(lp32
S'B-NP'
p33
aS'E-NP'
p34
aS'B-NP'
p35
aS'I-NP'
p36
aS'E-NP'
p37
aS'O'
asS'dep_seq'
p38
(lp39
(lp40
S'amod'
p41
aS'2'
aS'1'
aa(lp42
S'root'
p43
aS'0'
aS'2'
aa(lp44
S'advmod'
p45
aS'5'
aS'3'
aa(lp46
S'amod'
p47
aS'5'
aS'4'
aa(lp48
S'dep'
p49
aS'2'
aS'5'
aa(lp50
S'num'
p51
aS'5'
aS'6'
aasS'srls'
p52
(lp53
(dp54
S'A2'
p55
S'launches non Negative Integer 189180'
p56
sS'V'
g25
sasS'pos_seq'
p57
(lp58
S'VBD'
p59
aS'NNS'
p60
aS'RB'
p61
aS'JJ'
p62
aS'NN'
p63
aS'CD'
p64
asS'ner_seq'
p65
(lp66
S'O'
aS'O'
aS'O'
aS'O'
aS'O'
aS'O'
assb.