ccopy_reg
_reconstructor
p1
(c__main__
KBproperty
p2
c__builtin__
object
p3
NtRp4
(dp5
S'comment'
p6
S'00'
p7
sS'domain'
p8
S'Place '
p9
sS'instances_count'
p10
I0
sS'phrases'
p11
NsS'syn_hypo'
p12
Vapodiform_birdbirdaquatic_birdbirdarchaeopteryxbirdarcheopteryxbirdArchaeopteryx_lithographicabirdarchaeornisbirdbird_of_passagebirdbird_of_preybirdraptorbirdraptorial_birdbirdcaprimulgiform_birdbirdcarinatebirdcarinate_birdbirdflying_birdbirdcockbirdcoraciiform_birdbirdcuculiform_birdbirddickeybirdbirddickey-birdbirddickybirdbirddicky-birdbirdgallinaceous_birdbirdgallinaceanbirdhenbirdIbero-mesornisbirdnesterbirdnight_birdbirdnonpasserine_birdbirdparrotbirdpasserinebirdpasseriform_birdbirdpiciform_birdbirdprotoavisbirdratitebirdratite_birdbirdflightless_birdbirdSinornisbirdtrogonbirdtwitterer
p13
sS'label'
p14
S'bird'
p15
sS'range'
p16
S'Species '
p17
sS'uniq_subjs'
p18
S'0'
sS'uniq_objs'
p19
I0
sS'prop_uri'
p20
S'http://dbpedia.org/ontology/bird'
p21
sS'annotations'
p22
(dp23
S'bag_of_words'
p24
(lp25
S'Place'
p26
aS'bird'
p27
aS'Species'
p28
aS'00'
p29
asS'chunk_seq'
p30
(lp31
S'B-NP'
p32
aS'I-NP'
p33
aS'E-NP'
p34
aS'O'
asS'dep_seq'
p35
(lp36
(lp37
S'root'
p38
aS'0'
aS'1'
aa(lp39
S'nn'
p40
aS'3'
aS'2'
aa(lp41
S'dep'
p42
aS'1'
aS'3'
aa(lp43
S'advmod'
p44
aS'1'
aS'4'
aasS'srls'
p45
(lp46
sS'pos_seq'
p47
(lp48
S'NN'
p49
aS'NN'
p50
aS'NNS'
p51
aS'CD'
p52
asS'ner_seq'
p53
(lp54
S'O'
aS'O'
aS'O'
aS'O'
assb.