ccopy_reg
_reconstructor
p1
(c__main__
KBproperty
p2
c__builtin__
object
p3
NtRp4
(dp5
S'comment'
p6
S'Name for the people inhabiting a place eg Ankara->Ankariotes Bulgaria->Bulgarians00'
p7
sS'domain'
p8
S'Populated Place '
p9
sS'instances_count'
p10
I0
sS'phrases'
p11
NsS'syn_hypo'
p12
S''
sS'label'
p13
S'peopleName'
p14
sS'range'
p15
S'lang String '
p16
sS'uniq_subjs'
p17
S'0'
sS'uniq_objs'
p18
I0
sS'prop_uri'
p19
S'http://dbpedia.org/ontology/peopleName'
p20
sS'annotations'
p21
(dp22
S'bag_of_words'
p23
(lp24
S'Populated'
p25
aS'Place'
p26
aS'peopleName'
p27
aS'lang'
p28
aS'String'
p29
aS'Name'
p30
aS'for'
p31
aS'the'
p32
aS'people'
p33
aS'inhabiting'
p34
aS'a'
aS'place'
p35
aS'eg'
p36
aS'Ankara'
p37
aS'-'
aS'>'
aS'Ankariotes'
p38
aS'Bulgaria'
p39
aS'-'
aS'>'
aS'Bulgarians00'
p40
asS'chunk_seq'
p41
(lp42
S'B-NP'
p43
aS'I-NP'
p44
aS'I-NP'
p45
aS'I-NP'
p46
aS'I-NP'
p47
aS'E-NP'
p48
aS'S-PP'
p49
aS'B-NP'
p50
aS'E-NP'
p51
aS'S-VP'
p52
aS'B-NP'
p53
aS'E-NP'
p54
aS'S-PP'
p55
aS'S-NP'
p56
aS'O'
aS'O'
aS'O'
aS'S-NP'
p57
aS'O'
aS'O'
aS'O'
asS'dep_seq'
p58
(lp59
(lp60
S'amod'
p61
aS'6'
aS'1'
aa(lp62
S'nn'
p63
aS'6'
aS'2'
aa(lp64
S'nn'
p65
aS'6'
aS'3'
aa(lp66
S'nn'
p67
aS'6'
aS'4'
aa(lp68
S'nn'
p69
aS'6'
aS'5'
aa(lp70
S'root'
p71
aS'0'
aS'6'
aa(lp72
S'det'
p73
aS'9'
aS'8'
aa(lp74
S'prep_for'
p75
aS'6'
aS'9'
aa(lp76
S'partmod'
p77
aS'9'
aS'10'
p78
aa(lp79
S'det'
p80
aS'12'
p81
aS'11'
p82
aa(lp83
S'dobj'
p84
aS'10'
p85
aS'12'
p86
aa(lp87
S'amod'
p88
aS'12'
p89
aS'13'
p90
aa(lp91
S'dep'
p92
aS'12'
p93
aS'14'
p94
aa(lp95
S'dep'
p96
aS'14'
p97
aS'16'
p98
aa(lp99
S'nn'
p100
aS'18'
p101
aS'17'
p102
aa(lp103
S'dep'
p104
aS'14'
p105
aS'18'
p106
aa(lp107
S'punct'
p108
aS'21'
p109
aS'20'
p110
aa(lp111
S'dep'
p112
aS'12'
p113
aS'21'
p114
aasS'srls'
p115
(lp116
(dp117
S'A1'
p118
S'a place eg Ankara - > Ankariotes Bulgaria - > Bulgarians00'
p119
sS'A0'
p120
S'the people'
p121
sS'V'
g34
sasS'pos_seq'
p122
(lp123
S'VBN'
p124
aS'NNP'
p125
aS'NNP'
p126
aS'NNP'
p127
aS'NNP'
p128
aS'NNP'
p129
aS'IN'
p130
aS'DT'
p131
aS'NNS'
p132
aS'VBG'
p133
aS'DT'
p134
aS'NN'
p135
aS'IN'
p136
aS'NNP'
p137
aS':'
aS'FW'
p138
aS'FW'
p139
aS'NNP'
p140
aS':'
aS'-LRB-'
p141
aS'NN'
p142
asS'ner_seq'
p143
(lp144
S'O'
aS'O'
aS'B-MISC'
p145
aS'I-MISC'
p146
aS'I-MISC'
p147
aS'E-MISC'
p148
aS'O'
aS'O'
aS'O'
aS'O'
aS'O'
aS'O'
aS'O'
aS'S-LOC'
p149
aS'O'
aS'O'
aS'O'
aS'S-LOC'
p150
aS'O'
aS'O'
aS'S-PER'
p151
assb.