ccopy_reg
_reconstructor
p1
(c__main__
KBproperty
p2
c__builtin__
object
p3
NtRp4
(dp5
S'comment'
p6
S'00'
p7
sS'domain'
p8
S'Spacecraft '
p9
sS'instances_count'
p10
I0
sS'phrases'
p11
NsS'syn_hypo'
p12
VbentinclinationdispositiontendencysetinclinationdispositiontendencyCallinclinationdispositiontendencydenominationalisminclinationdispositiontendencydevicesinclinationdispositiontendencydirectioninclinationdispositiontendencydisfavorinclinationdispositiontendencydisfavourinclinationdispositiontendencydislikeinclinationdispositiontendencydisapprovalinclinationdispositiontendencydriftinclinationdispositiontendencytrendinclinationdispositiontendencymovementinclinationdispositiontendencyfavorinclinationdispositiontendencyfavourinclinationdispositiontendencyfavoritisminclinationdispositiontendencyfavouritisminclinationdispositiontendencyimpartialityinclinationdispositiontendencynonpartisanshipinclinationdispositiontendencyliteralisminclinationdispositiontendencypartialityinclinationdispositiontendencypartisanshipinclinationdispositiontendencyperseverationinclinationdispositiontendencypredispositioninclinationdispositiontendencyproclivityinclinationdispositiontendencypropensityinclinationdispositiontendencyleaninginclinationdispositiontendencysympathyinclinationdispositiontendencyunderstanding
p13
sS'label'
p14
S'inclination'
p15
sS'range'
p16
S'float '
p17
sS'uniq_subjs'
p18
S'0'
sS'uniq_objs'
p19
I0
sS'prop_uri'
p20
S'http://dbpedia.org/ontology/inclination'
p21
sS'annotations'
p22
(dp23
S'bag_of_words'
p24
(lp25
S'Spacecraft'
p26
aS'inclination'
p27
aS'float'
p28
aS'00'
p29
asS'chunk_seq'
p30
(lp31
S'B-NP'
p32
aS'E-NP'
p33
aS'S-VP'
p34
aS'S-ADVP'
p35
asS'dep_seq'
p36
(lp37
(lp38
S'nn'
p39
aS'2'
aS'1'
aa(lp40
S'nsubj'
p41
aS'3'
aS'2'
aa(lp42
S'root'
p43
aS'0'
aS'3'
aa(lp44
S'dobj'
p45
aS'3'
aS'4'
aasS'srls'
p46
(lp47
(dp48
S'A1'
p49
S'Spacecraft inclination'
p50
sS'A2'
p51
g29
sS'V'
g28
sasS'pos_seq'
p52
(lp53
S'NN'
p54
aS'NN'
p55
aS'VB'
p56
aS'CD'
p57
asS'ner_seq'
p58
(lp59
S'O'
aS'O'
aS'O'
aS'O'
assb.