ccopy_reg
_reconstructor
p1
(c__main__
KBproperty
p2
c__builtin__
object
p3
NtRp4
(dp5
S'comment'
p6
S'00'
p7
sS'domain'
p8
S'Tennis Player '
p9
sS'instances_count'
p10
I0
sS'phrases'
p11
NsS'syn_hypo'
p12
S''
sS'label'
p13
S'final lost single'
p14
sS'range'
p15
S'string '
p16
sS'uniq_subjs'
p17
S'0'
sS'uniq_objs'
p18
I0
sS'prop_uri'
p19
S'http://dbpedia.org/ontology/finalLostSingle'
p20
sS'annotations'
p21
(dp22
S'bag_of_words'
p23
(lp24
S'Tennis'
p25
aS'Player'
p26
aS'final'
p27
aS'lost'
p28
aS'single'
p29
aS'string'
p30
aS'00'
p31
asS'chunk_seq'
p32
(lp33
S'B-NP'
p34
aS'I-NP'
p35
aS'E-NP'
p36
aS'S-VP'
p37
aS'B-NP'
p38
aS'E-NP'
p39
aS'O'
asS'dep_seq'
p40
(lp41
(lp42
S'nn'
p43
aS'2'
aS'1'
aa(lp44
S'nsubj'
p45
aS'4'
aS'2'
aa(lp46
S'amod'
p47
aS'2'
aS'3'
aa(lp48
S'root'
p49
aS'0'
aS'4'
aa(lp50
S'amod'
p51
aS'6'
aS'5'
aa(lp52
S'dobj'
p53
aS'4'
aS'6'
aa(lp54
S'num'
p55
aS'6'
aS'7'
aasS'srls'
p56
(lp57
(dp58
S'A1'
p59
S'single string 00'
p60
sS'A0'
p61
S'Tennis Player final'
p62
sS'V'
g28
sasS'pos_seq'
p63
(lp64
S'NNP'
p65
aS'NNP'
p66
aS'JJ'
p67
aS'VBN'
p68
aS'JJ'
p69
aS'NN'
p70
aS'CD'
p71
asS'ner_seq'
p72
(lp73
S'O'
aS'O'
aS'O'
aS'O'
aS'O'
aS'O'
aS'O'
assb.