ccopy_reg
_reconstructor
p1
(c__main__
KBproperty
p2
c__builtin__
object
p3
NtRp4
(dp5
S'comment'
p6
S"a preference to put one's left or right foot forward in surfing wakeboarding skateboarding wakeskating snowboarding and mountainboarding. The term is sometimes applied to the foot a footballer uses to kick.00"
p7
sS'domain'
p8
S'Sport '
p9
sS'instances_count'
p10
I0
sS'phrases'
p11
NsS'syn_hypo'
p12
V
sS'label'
p13
S'Footedness'
p14
sS'range'
p15
S'Person '
p16
sS'uniq_subjs'
p17
S'0'
sS'uniq_objs'
p18
I0
sS'prop_uri'
p19
S'http://dbpedia.org/ontology/footedness'
p20
sS'annotations'
p21
(dp22
S'bag_of_words'
p23
(lp24
S'Sport'
p25
aS'Footedness'
p26
aS'Person'
p27
aS'a'
aS'preference'
p28
aS'to'
p29
aS'put'
p30
aS'one'
p31
aS"'s"
p32
aS'left'
p33
aS'or'
p34
aS'right'
p35
aS'foot'
p36
aS'forward'
p37
aS'in'
p38
aS'surfing'
p39
aS'wakeboarding'
p40
aS'skateboarding'
p41
aS'wakeskating'
p42
aS'snowboarding'
p43
aS'and'
p44
aS'mountainboarding'
p45
aS'.'
aS'The'
p46
aS'term'
p47
aS'is'
p48
aS'sometimes'
p49
aS'applied'
p50
aS'to'
p51
aS'the'
p52
aS'foot'
p53
aS'a'
aS'footballer'
p54
aS'uses'
p55
aS'to'
p56
aS'kick.00'
p57
asS'chunk_seq'
p58
(lp59
S'B-NP'
p60
aS'I-NP'
p61
aS'E-NP'
p62
aS'B-NP'
p63
aS'E-NP'
p64
aS'B-VP'
p65
aS'E-VP'
p66
aS'S-NP'
p67
aS'S-NP'
p68
aS'B-ADJP'
p69
aS'I-ADJP'
p70
aS'I-ADJP'
p71
aS'E-ADJP'
p72
aS'S-ADVP'
p73
aS'S-PP'
p74
aS'B-NP'
p75
aS'I-NP'
p76
aS'I-NP'
p77
aS'I-NP'
p78
aS'I-NP'
p79
aS'I-NP'
p80
aS'E-NP'
p81
aS'O'
aS'B-NP'
p82
aS'E-NP'
p83
aS'B-VP'
p84
aS'I-VP'
p85
aS'E-VP'
p86
aS'S-PP'
p87
aS'B-NP'
p88
aS'E-NP'
p89
aS'B-NP'
p90
aS'E-NP'
p91
aS'S-VP'
p92
aS'S-PP'
p93
aS'S-NP'
p94
asS'dep_seq'
p95
(lp96
(lp97
S'nn'
p98
aS'3'
aS'1'
aa(lp99
S'nn'
p100
aS'3'
aS'2'
aa(lp101
S'nsubjpass'
p102
aS'28'
p103
aS'3'
aa(lp104
S'det'
p105
aS'5'
aS'4'
aa(lp106
S'dep'
p107
aS'3'
aS'5'
aa(lp108
S'aux'
p109
aS'7'
aS'6'
aa(lp110
S'infmod'
p111
aS'5'
aS'7'
aa(lp112
S'poss'
p113
aS'13'
p114
aS'8'
aa(lp115
S'amod'
p116
aS'13'
p117
aS'10'
p118
aa(lp119
S'conj_or'
p120
aS'10'
p121
aS'12'
p122
aa(lp123
S'dobj'
p124
aS'7'
aS'13'
p125
aa(lp126
S'advmod'
p127
aS'5'
aS'14'
p128
aa(lp129
S'prepc_in'
p130
aS'5'
aS'16'
p131
aa(lp132
S'xcomp'
p133
aS'16'
p134
aS'17'
p135
aa(lp136
S'nn'
p137
aS'20'
p138
aS'18'
p139
aa(lp140
S'nn'
p141
aS'20'
p142
aS'19'
p143
aa(lp144
S'dobj'
p145
aS'17'
p146
aS'20'
p147
aa(lp148
S'conj_and'
p149
aS'20'
p150
aS'22'
p151
aa(lp152
S'det'
p153
aS'25'
p154
aS'24'
p155
aa(lp156
S'nsubjpass'
p157
aS'28'
p158
aS'25'
p159
aa(lp160
S'auxpass'
p161
aS'28'
p162
aS'26'
p163
aa(lp164
S'advmod'
p165
aS'28'
p166
aS'27'
p167
aa(lp168
S'root'
p169
aS'0'
aS'28'
p170
aa(lp171
S'det'
p172
aS'31'
p173
aS'30'
p174
aa(lp175
S'prep_to'
p176
aS'28'
p177
aS'31'
p178
aa(lp179
S'dobj'
p180
aS'34'
p181
aS'31'
p182
aa(lp183
S'det'
p184
aS'33'
p185
aS'32'
p186
aa(lp187
S'nsubj'
p188
aS'34'
p189
aS'33'
p190
aa(lp191
S'rcmod'
p192
aS'31'
p193
aS'34'
p194
aa(lp195
S'prep_to'
p196
aS'34'
p197
aS'36'
p198
aasS'srls'
p199
(lp200
(dp201
S'A1'
p202
S"one 's left or right foot forward"
p203
sS'A0'
p204
S'Sport Footedness Person'
p205
sS'A2'
p206
S'in surfing wakeboarding skateboarding wakeskating snowboarding and mountainboarding'
p207
sS'V'
g30
sa(dp208
S'A1'
p209
S'wakeboarding skateboarding wakeskating snowboarding and mountainboarding'
p210
sS'V'
g39
sa(dp211
S'A1'
p212
S'skateboarding wakeskating snowboarding and mountainboarding'
p213
sS'A0'
p214
S"Sport Footedness Person  one 's left or right foot forward in surfing"
p215
sS'V'
g40
sa(dp216
S'A1'
p217
S"a preference to put one 's left or right foot forward in surfing wakeboarding  The term  a footballer uses to kick.00"
p218
sS'A2'
p219
S'to the foot'
p220
sS'AM-TMP'
p221
g49
sS'V'
g50
sa(dp222
S'A1'
p223
S'the foot'
p224
sS'A0'
p225
S'a footballer'
p226
sS'A2'
p227
S'to kick.00'
p228
sS'V'
g55
sasS'pos_seq'
p229
(lp230
S'NNP'
p231
aS'NNP'
p232
aS'NNP'
p233
aS'DT'
p234
aS'NN'
p235
aS'TO'
p236
aS'VB'
p237
aS'NN'
p238
aS'POS'
p239
aS'VBN'
p240
aS'CC'
p241
aS'JJ'
p242
aS'NN'
p243
aS'RB'
p244
aS'IN'
p245
aS'VBG'
p246
aS'VBG'
p247
aS'NN'
p248
aS'NN'
p249
aS'NN'
p250
aS'CC'
p251
aS'NN'
p252
aS'.'
aS'DT'
p253
aS'NN'
p254
aS'VBZ'
p255
aS'RB'
p256
aS'VBN'
p257
aS'TO'
p258
aS'DT'
p259
aS'NN'
p260
aS'DT'
p261
aS'NN'
p262
aS'VBZ'
p263
aS'TO'
p264
aS'NN'
p265
asS'ner_seq'
p266
(lp267
S'B-MISC'
p268
aS'I-MISC'
p269
aS'E-MISC'
p270
aS'O'
aS'O'
aS'O'
aS'O'
aS'O'
aS'O'
aS'O'
aS'O'
aS'O'
aS'O'
aS'O'
aS'O'
aS'O'
aS'O'
aS'O'
aS'O'
aS'O'
aS'O'
aS'O'
aS'O'
aS'O'
aS'O'
aS'O'
aS'O'
aS'O'
aS'O'
aS'O'
aS'O'
aS'O'
aS'O'
aS'O'
aS'O'
aS'O'
assb.