ccopy_reg
_reconstructor
p1
(c__main__
KBproperty
p2
c__builtin__
object
p3
NtRp4
(dp5
S'comment'
p6
S'00'
p7
sS'domain'
p8
S'Soccer Tournament '
p9
sS'instances_count'
p10
I0
sS'phrases'
p11
NsS'syn_hypo'
p12
S''
sS'label'
p13
S'closing season'
p14
sS'range'
p15
S'Soccer Tournament '
p16
sS'uniq_subjs'
p17
S'0'
sS'uniq_objs'
p18
I0
sS'prop_uri'
p19
S'http://dbpedia.org/ontology/soccerTournamentClosingSeason'
p20
sS'annotations'
p21
(dp22
S'bag_of_words'
p23
(lp24
S'Soccer'
p25
aS'Tournament'
p26
aS'closing'
p27
aS'season'
p28
aS'Soccer'
p29
aS'Tournament'
p30
aS'00'
p31
asS'chunk_seq'
p32
(lp33
S'B-NP'
p34
aS'E-NP'
p35
aS'S-VP'
p36
aS'B-NP'
p37
aS'I-NP'
p38
aS'E-NP'
p39
aS'S-ADVP'
p40
asS'dep_seq'
p41
(lp42
(lp43
S'nn'
p44
aS'2'
aS'1'
aa(lp45
S'nsubj'
p46
aS'3'
aS'2'
aa(lp47
S'root'
p48
aS'0'
aS'3'
aa(lp49
S'nn'
p50
aS'6'
aS'4'
aa(lp51
S'nn'
p52
aS'6'
aS'5'
aa(lp53
S'dobj'
p54
aS'3'
aS'6'
aa(lp55
S'num'
p56
aS'6'
aS'7'
aasS'srls'
p57
(lp58
(dp59
S'A1'
p60
S'season Soccer Tournament 00'
p61
sS'A0'
p62
S'Soccer Tournament'
p63
sS'V'
g27
sasS'pos_seq'
p64
(lp65
S'NNP'
p66
aS'NNP'
p67
aS'VBG'
p68
aS'NN'
p69
aS'NNP'
p70
aS'NNP'
p71
aS'CD'
p72
asS'ner_seq'
p73
(lp74
S'O'
aS'O'
aS'O'
aS'O'
aS'O'
aS'O'
aS'O'
assb.