ccopy_reg
_reconstructor
p1
(c__main__
KBproperty
p2
c__builtin__
object
p3
NtRp4
(dp5
S'comment'
p6
S'43034303'
p7
sS'domain'
p8
S'Company '
p9
sS'instances_count'
p10
I2
sS'phrases'
p11
NsS'syn_hypo'
p12
S''
sS'label'
p13
S'internationally'
p14
sS'range'
p15
S'boolean '
p16
sS'uniq_subjs'
p17
S'2'
sS'uniq_objs'
p18
I0
sS'prop_uri'
p19
S'http://dbpedia.org/ontology/internationally'
p20
sS'annotations'
p21
(dp22
S'bag_of_words'
p23
(lp24
S'Company'
p25
aS'internationally'
p26
aS'boolean'
p27
aS'43034303'
p28
asS'chunk_seq'
p29
(lp30
S'B-NP'
p31
aS'I-NP'
p32
aS'I-NP'
p33
aS'E-NP'
p34
asS'dep_seq'
p35
(lp36
(lp37
S'root'
p38
aS'0'
aS'1'
aa(lp39
S'advmod'
p40
aS'4'
aS'2'
aa(lp41
S'amod'
p42
aS'4'
aS'3'
aa(lp43
S'dep'
p44
aS'1'
aS'4'
aasS'srls'
p45
(lp46
sS'pos_seq'
p47
(lp48
S'NN'
p49
aS'RB'
p50
aS'JJ'
p51
aS'NN'
p52
asS'ner_seq'
p53
(lp54
S'O'
aS'O'
aS'O'
aS'O'
assb.