ccopy_reg
_reconstructor
p1
(c__main__
KBproperty
p2
c__builtin__
object
p3
NtRp4
(dp5
S'comment'
p6
S'Amount of proteins per servingSize of a Food33'
p7
sS'domain'
p8
S'Food '
p9
sS'instances_count'
p10
I3
sS'phrases'
p11
NsS'syn_hypo'
p12
S''
sS'label'
p13
S'protein g'
p14
sS'range'
p15
S'double '
p16
sS'uniq_subjs'
p17
S'3'
sS'uniq_objs'
p18
I0
sS'prop_uri'
p19
S'http://dbpedia.org/ontology/protein'
p20
sS'annotations'
p21
(dp22
S'bag_of_words'
p23
(lp24
S'Food'
p25
aS'protein'
p26
aS'g'
aS'double'
p27
aS'Amount'
p28
aS'of'
p29
aS'proteins'
p30
aS'per'
p31
aS'servingSize'
p32
aS'of'
p33
aS'a'
aS'Food33'
p34
asS'chunk_seq'
p35
(lp36
S'B-NP'
p37
aS'I-NP'
p38
aS'I-NP'
p39
aS'I-NP'
p40
aS'E-NP'
p41
aS'S-PP'
p42
aS'S-NP'
p43
aS'S-PP'
p44
aS'S-NP'
p45
aS'S-PP'
p46
aS'B-NP'
p47
aS'E-NP'
p48
asS'dep_seq'
p49
(lp50
(lp51
S'nn'
p52
aS'2'
aS'1'
aa(lp53
S'root'
p54
aS'0'
aS'2'
aa(lp55
S'npadvmod'
p56
aS'4'
aS'3'
aa(lp57
S'dep'
p58
aS'2'
aS'4'
aa(lp59
S'dep'
p60
aS'6'
aS'5'
aa(lp61
S'dep'
p62
aS'4'
aS'6'
aa(lp63
S'pobj'
p64
aS'6'
aS'7'
aa(lp65
S'prep_per'
p66
aS'7'
aS'9'
aa(lp67
S'det'
p68
aS'12'
p69
aS'11'
p70
aa(lp71
S'prep_of'
p72
aS'7'
aS'12'
p73
aasS'srls'
p74
(lp75
sS'pos_seq'
p76
(lp77
S'NN'
p78
aS'NN'
p79
aS'NN'
p80
aS'JJ'
p81
aS'NN'
p82
aS'IN'
p83
aS'NNS'
p84
aS'IN'
p85
aS'NN'
p86
aS'IN'
p87
aS'DT'
p88
aS'NNP'
p89
asS'ner_seq'
p90
(lp91
S'O'
aS'O'
aS'O'
aS'O'
aS'O'
aS'O'
aS'O'
aS'O'
aS'S-MISC'
p92
aS'O'
aS'O'
aS'S-MISC'
p93
assb.