ccopy_reg
_reconstructor
p1
(c__main__
KBproperty
p2
c__builtin__
object
p3
NtRp4
(dp5
S'comment'
p6
S'The episode number of the TelevisionEpisode.79347826'
p7
sS'domain'
p8
S'Television Episode '
p9
sS'instances_count'
p10
I172
sS'phrases'
p11
NsS'syn_hypo'
p12
S''
sS'label'
p13
S'episode number'
p14
sS'range'
p15
S'non Negative Integer '
p16
sS'uniq_subjs'
p17
S'172'
p18
sS'uniq_objs'
p19
I0
sS'prop_uri'
p20
S'http://dbpedia.org/ontology/episodeNumber'
p21
sS'annotations'
p22
(dp23
S'bag_of_words'
p24
(lp25
S'Television'
p26
aS'Episode'
p27
aS'episode'
p28
aS'number'
p29
aS'non'
p30
aS'Negative'
p31
aS'Integer'
p32
aS'The'
p33
aS'episode'
p34
aS'number'
p35
aS'of'
p36
aS'the'
p37
aS'TelevisionEpisode.79347826'
p38
asS'chunk_seq'
p39
(lp40
S'B-NP'
p41
aS'I-NP'
p42
aS'I-NP'
p43
aS'I-NP'
p44
aS'I-NP'
p45
aS'I-NP'
p46
aS'E-NP'
p47
aS'B-NP'
p48
aS'I-NP'
p49
aS'E-NP'
p50
aS'S-PP'
p51
aS'B-NP'
p52
aS'E-NP'
p53
asS'dep_seq'
p54
(lp55
(lp56
S'nn'
p57
aS'4'
aS'1'
aa(lp58
S'nn'
p59
aS'4'
aS'2'
aa(lp60
S'nn'
p61
aS'4'
aS'3'
aa(lp62
S'dep'
p63
aS'10'
p64
aS'4'
aa(lp65
S'amod'
p66
aS'6'
aS'5'
aa(lp67
S'amod'
p68
aS'7'
aS'6'
aa(lp69
S'dep'
p70
aS'10'
p71
aS'7'
aa(lp72
S'det'
p73
aS'10'
p74
aS'8'
aa(lp75
S'nn'
p76
aS'10'
p77
aS'9'
aa(lp78
S'root'
p79
aS'0'
aS'10'
p80
aa(lp81
S'det'
p82
aS'13'
p83
aS'12'
p84
aa(lp85
S'prep_of'
p86
aS'10'
p87
aS'13'
p88
aasS'srls'
p89
(lp90
sS'pos_seq'
p91
(lp92
S'NNP'
p93
aS'NNP'
p94
aS'NN'
p95
aS'NN'
p96
aS'JJ'
p97
aS'JJ'
p98
aS'NN'
p99
aS'DT'
p100
aS'NN'
p101
aS'NN'
p102
aS'IN'
p103
aS'DT'
p104
aS'NNP'
p105
asS'ner_seq'
p106
(lp107
S'O'
aS'O'
aS'O'
aS'O'
aS'O'
aS'O'
aS'O'
aS'O'
aS'O'
aS'O'
aS'O'
aS'O'
aS'S-MISC'
p108
assb.