ccopy_reg
_reconstructor
p1
(c__main__
KBproperty
p2
c__builtin__
object
p3
NtRp4
(dp5
S'comment'
p6
S'22167'
p7
sS'domain'
p8
S''
sS'instances_count'
p9
I163
sS'phrases'
p10
NsS'syn_hypo'
p11
Vacrodontanimalanimate_beingbeastbrutecreaturefaunaadultanimalanimate_beingbeastbrutecreaturefaunabipedanimalanimate_beingbeastbrutecreaturefaunacaptiveanimalanimate_beingbeastbrutecreaturefaunachordateanimalanimate_beingbeastbrutecreaturefaunacreepy-crawlyanimalanimate_beingbeastbrutecreaturefaunacritteranimalanimate_beingbeastbrutecreaturefaunadarteranimalanimate_beingbeastbrutecreaturefaunadomestic_animalanimalanimate_beingbeastbrutecreaturefaunadomesticated_animalanimalanimate_beingbeastbrutecreaturefaunaembryoanimalanimate_beingbeastbrutecreaturefaunaconceptusanimalanimate_beingbeastbrutecreaturefaunafertilized_egganimalanimate_beingbeastbrutecreaturefaunafeederanimalanimate_beingbeastbrutecreaturefaunafemaleanimalanimate_beingbeastbrutecreaturefaunafictional_animalanimalanimate_beingbeastbrutecreaturefaunagameanimalanimate_beingbeastbrutecreaturefaunagiantanimalanimate_beingbeastbrutecreaturefaunaherbivoreanimalanimate_beingbeastbrutecreaturefaunahexapodanimalanimate_beingbeastbrutecreaturefaunahomeothermanimalanimate_beingbeastbrutecreaturefaunahomoiothermanimalanimate_beingbeastbrutecreaturefaunahomothermanimalanimate_beingbeastbrutecreaturefaunainsectivoreanimalanimate_beingbeastbrutecreaturefaunainvertebrateanimalanimate_beingbeastbrutecreaturefaunalarvaanimalanimate_beingbeastbrutecreaturefaunamaleanimalanimate_beingbeastbrutecreaturefaunamarine_animalanimalanimate_beingbeastbrutecreaturefaunamarine_creatureanimalanimate_beingbeastbrutecreaturefaunasea_animalanimalanimate_beingbeastbrutecreaturefaunasea_creatureanimalanimate_beingbeastbrutecreaturefaunamateanimalanimate_beingbeastbrutecreaturefaunametazoananimalanimate_beingbeastbrutecreaturefaunamigratoranimalanimate_beingbeastbrutecreaturefaunamolteranimalanimate_beingbeastbrutecreaturefaunamoulteranimalanimate_beingbeastbrutecreaturefaunamutantanimalanimate_beingbeastbrutecreaturefaunaomnivoreanimalanimate_beingbeastbrutecreaturefaunapeeperanimalanimate_beingbeastbrutecreaturefaunapestanimalanimate_beingbeastbrutecreaturefaunapetanimalanimate_beingbeastbrutecreaturefaunapleurodontanimalanimate_beingbeastbrutecreaturefaunapoikilothermanimalanimate_beingbeastbrutecreaturefaunaectothermanimalanimate_beingbeastbrutecreaturefaunapredatoranimalanimate_beingbeastbrutecreaturefaunapredatory_animalanimalanimate_beingbeastbrutecreaturefaunapreyanimalanimate_beingbeastbrutecreaturefaunaquarryanimalanimate_beingbeastbrutecreaturefaunaraceranimalanimate_beingbeastbrutecreaturefaunarange_animalanimalanimate_beingbeastbrutecreaturefaunascavengeranimalanimate_beingbeastbrutecreaturefaunastayeranimalanimate_beingbeastbrutecreaturefaunastuntanimalanimate_beingbeastbrutecreaturefaunasurvivoranimalanimate_beingbeastbrutecreaturefaunathoroughbredanimalanimate_beingbeastbrutecreaturefaunapurebredanimalanimate_beingbeastbrutecreaturefaunapurebloodanimalanimate_beingbeastbrutecreaturefaunavarmintanimalanimate_beingbeastbrutecreaturefaunavarmentanimalanimate_beingbeastbrutecreaturefaunawork_animalanimalanimate_beingbeastbrutecreaturefaunayounganimalanimate_beingbeastbrutecreaturefaunaoffspringanimalanimate_beingbeastbrutecreaturefaunazooplankton
p12
sS'label'
p13
S'animal'
p14
sS'range'
p15
S'Animal '
p16
sS'uniq_subjs'
p17
S'163'
p18
sS'uniq_objs'
p19
I0
sS'prop_uri'
p20
S'http://dbpedia.org/ontology/animal'
p21
sS'annotations'
p22
(dp23
S'bag_of_words'
p24
(lp25
S'animal'
p26
aS'Animal'
p27
aS'22167'
p28
asS'chunk_seq'
p29
(lp30
S'B-NP'
p31
aS'I-NP'
p32
aS'E-NP'
p33
asS'dep_seq'
p34
(lp35
(lp36
S'nn'
p37
aS'3'
aS'1'
aa(lp38
S'nn'
p39
aS'3'
aS'2'
aa(lp40
S'root'
p41
aS'0'
aS'3'
aasS'srls'
p42
(lp43
sS'pos_seq'
p44
(lp45
S'NN'
p46
aS'NN'
p47
aS'NN'
p48
asS'ner_seq'
p49
(lp50
S'O'
aS'O'
aS'O'
assb.