ccopy_reg
_reconstructor
p1
(c__main__
KBproperty
p2
c__builtin__
object
p3
NtRp4
(dp5
S'comment'
p6
S'piston stroke \\xce\\xbc'
p7
sS'domain'
p8
S'Automobile Engine '
p9
sS'instances_count'
p10
I170
sS'phrases'
p11
NsS'syn_hypo'
p12
S''
sS'label'
p13
g7
sS'range'
p14
S'double '
p15
sS'uniq_subjs'
p16
S'170'
p17
sS'uniq_objs'
p18
I0
sS'prop_uri'
p19
S'http://dbpedia.org/ontology/pistonStroke'
p20
sS'annotations'
p21
(dp22
S'bag_of_words'
p23
(lp24
S'Automobile'
p25
aS'Engine'
p26
aS'piston'
p27
aS'Stroke'
p28
aS'double'
p29
aS'piston'
p30
aS'stroke'
p31
aS'\\'
aS'xce'
p32
aS'\\'
aS'xbc'
p33
asS'chunk_seq'
p34
(lp35
S'B-NP'
p36
aS'I-NP'
p37
aS'I-NP'
p38
aS'I-NP'
p39
aS'I-NP'
p40
aS'I-NP'
p41
aS'E-NP'
p42
aS'O'
aS'O'
aS'O'
aS'O'
asS'dep_seq'
p43
(lp44
(lp45
S'nn'
p46
aS'7'
aS'1'
aa(lp47
S'nn'
p48
aS'7'
aS'2'
aa(lp49
S'nn'
p50
aS'7'
aS'3'
aa(lp51
S'nn'
p52
aS'7'
aS'4'
aa(lp53
S'amod'
p54
aS'7'
aS'5'
aa(lp55
S'nn'
p56
aS'7'
aS'6'
aa(lp57
S'root'
p58
aS'0'
aS'7'
aa(lp59
S'dep'
p60
aS'7'
aS'8'
aa(lp61
S'discourse'
p62
aS'7'
aS'9'
aa(lp63
S'dep'
p64
aS'9'
aS'10'
p65
aa(lp66
S'dep'
p67
aS'9'
aS'11'
p68
aasS'srls'
p69
(lp70
sS'pos_seq'
p71
(lp72
S'NNP'
p73
aS'NNP'
p74
aS'NN'
p75
aS'NN'
p76
aS'JJ'
p77
aS'NN'
p78
aS'NN'
p79
aS'FW'
p80
aS'FW'
p81
aS'FW'
p82
aS'FW'
p83
asS'ner_seq'
p84
(lp85
S'O'
aS'O'
aS'O'
aS'O'
aS'O'
aS'O'
aS'O'
aS'O'
aS'O'
aS'O'
aS'O'
assb.