ccopy_reg
_reconstructor
p1
(c__main__
KBproperty
p2
c__builtin__
object
p3
NtRp4
(dp5
S'comment'
p6
S'00'
p7
sS'domain'
p8
S'Artist '
p9
sS'instances_count'
p10
I0
sS'phrases'
p11
NsS'syn_hypo'
p12
Vartistic_stylemannermodestylewayfashionidiommannermodestylewayfashiondrapemannermodestylewayfashionfitmannermodestylewayfashionformmannermodestylewayfashionlife_stylemannermodestylewayfashionlife-stylemannermodestylewayfashionlifestylemannermodestylewayfashionmodus_vivendimannermodestylewayfashionresponsemannermodestylewayfashionsetupmannermodestylewayfashiontouchmannermodestylewayfashionsignaturemannermodestylewayfashionwise
p13
sS'label'
p14
S'style'
p15
sS'range'
p16
S''
sS'uniq_subjs'
p17
S'0'
sS'uniq_objs'
p18
I0
sS'prop_uri'
p19
S'http://dbpedia.org/ontology/style'
p20
sS'annotations'
p21
(dp22
S'bag_of_words'
p23
(lp24
S'Artist'
p25
aS'style'
p26
aS'00'
p27
asS'chunk_seq'
p28
(lp29
S'O'
aS'O'
aS'O'
asS'dep_seq'
p30
(lp31
(lp32
S'nn'
p33
aS'2'
aS'1'
aa(lp34
S'root'
p35
aS'0'
aS'2'
aa(lp36
S'dep'
p37
aS'2'
aS'3'
aasS'srls'
p38
(lp39
sS'pos_seq'
p40
(lp41
S'NNP'
p42
aS'NN'
p43
aS'CD'
p44
asS'ner_seq'
p45
(lp46
S'O'
aS'O'
aS'O'
assb.