ccopy_reg
_reconstructor
p1
(c__main__
KBproperty
p2
c__builtin__
object
p3
NtRp4
(dp5
S'comment'
p6
S'http://www.w3.org/2001/XMLSchema#string'
p7
sS'domain'
p8
S'Athlete '
p9
sS'instances_count'
p10
I0
sS'phrases'
p11
NsS'syn_hypo'
p12
S''
sS'label'
p13
g7
sS'range'
p14
S'Career Station '
p15
sS'uniq_subjs'
p16
S'0'
sS'uniq_objs'
p17
I0
sS'prop_uri'
p18
S'http://dbpedia.org/ontology/leadYear'
p19
sS'annotations'
p20
(dp21
S'bag_of_words'
p22
(lp23
S'Athlete'
p24
aS'lead'
p25
aS'Year'
p26
aS'Career'
p27
aS'Station'
p28
aS'http'
p29
aS':'
aS'//'
p30
aS'www'
p31
aS'.'
aS'w3'
p32
aS'.org'
p33
aS'/2001'
p34
aS'/'
aS'XMLSchema'
p35
aS'#'
aS'string'
p36
asS'chunk_seq'
p37
(lp38
S'S-NP'
p39
aS'S-VP'
p40
aS'B-NP'
p41
aS'I-NP'
p42
aS'I-NP'
p43
aS'E-NP'
p44
aS'O'
aS'B-NP'
p45
aS'E-NP'
p46
aS'O'
aS'O'
aS'O'
aS'O'
aS'O'
aS'O'
aS'B-NP'
p47
aS'E-NP'
p48
asS'dep_seq'
p49
(lp50
(lp51
S'nsubj'
p52
aS'2'
aS'1'
aa(lp53
S'root'
p54
aS'0'
aS'2'
aa(lp55
S'nn'
p56
aS'6'
aS'3'
aa(lp57
S'nn'
p58
aS'6'
aS'4'
aa(lp59
S'nn'
p60
aS'6'
aS'5'
aa(lp61
S'dobj'
p62
aS'2'
aS'6'
aa(lp63
S'nn'
p64
aS'9'
aS'8'
aa(lp65
S'dep'
p66
aS'6'
aS'9'
aa(lp67
S'nn'
p68
aS'9'
aS'11'
p69
aa(lp70
S'nn'
p71
aS'9'
aS'12'
p72
aa(lp73
S'dep'
p74
aS'9'
aS'13'
p75
aa(lp76
S'dep'
p77
aS'6'
aS'14'
p78
aa(lp79
S'dep'
p80
aS'17'
p81
aS'15'
p82
aa(lp83
S'nn'
p84
aS'17'
p85
aS'16'
p86
aa(lp87
S'dep'
p88
aS'6'
aS'17'
p89
aasS'srls'
p90
(lp91
(dp92
S'A1'
p93
S'Year Career Station'
p94
sS'A0'
p95
g24
sS'A2'
p96
S'http : // www . w3 .org /2001 / XMLSchema # string'
p97
sS'V'
g25
sasS'pos_seq'
p98
(lp99
S'NNP'
p100
aS'VB'
p101
aS'NNP'
p102
aS'NNP'
p103
aS'NNP'
p104
aS'NN'
p105
aS':'
aS'NN'
p106
aS'NN'
p107
aS'.'
aS'FW'
p108
aS'FW'
p109
aS'FW'
p110
aS'FW'
p111
aS'FW'
p112
aS'FW'
p113
aS'NN'
p114
asS'ner_seq'
p115
(lp116
S'O'
aS'O'
aS'O'
aS'O'
aS'O'
aS'O'
aS'O'
aS'O'
aS'O'
aS'O'
aS'O'
aS'O'
aS'O'
aS'O'
aS'O'
aS'O'
aS'O'
assb.