ccopy_reg
_reconstructor
p1
(c__main__
KBproperty
p2
c__builtin__
object
p3
NtRp4
(dp5
S'comment'
p6
S'coast line \\xce\\xbc'
p7
sS'domain'
p8
S'Settlement '
p9
sS'instances_count'
p10
I0
sS'phrases'
p11
NsS'syn_hypo'
p12
S''
sS'label'
p13
g7
sS'range'
p14
S'double '
p15
sS'uniq_subjs'
p16
S'0'
sS'uniq_objs'
p17
I0
sS'prop_uri'
p18
S'http://dbpedia.org/ontology/coastLine'
p19
sS'annotations'
p20
(dp21
S'bag_of_words'
p22
(lp23
S'Settlement'
p24
aS'coast'
p25
aS'Line'
p26
aS'double'
p27
aS'coast'
p28
aS'line'
p29
aS'\\'
aS'xce'
p30
aS'\\'
aS'xbc'
p31
asS'chunk_seq'
p32
(lp33
S'B-NP'
p34
aS'I-NP'
p35
aS'I-NP'
p36
aS'I-NP'
p37
aS'I-NP'
p38
aS'E-NP'
p39
aS'O'
aS'O'
aS'O'
aS'O'
asS'dep_seq'
p40
(lp41
(lp42
S'nn'
p43
aS'6'
aS'1'
aa(lp44
S'nn'
p45
aS'6'
aS'2'
aa(lp46
S'nn'
p47
aS'6'
aS'3'
aa(lp48
S'amod'
p49
aS'6'
aS'4'
aa(lp50
S'nn'
p51
aS'6'
aS'5'
aa(lp52
S'root'
p53
aS'0'
aS'6'
aa(lp54
S'dep'
p55
aS'6'
aS'7'
aa(lp56
S'discourse'
p57
aS'6'
aS'8'
aa(lp58
S'dep'
p59
aS'8'
aS'9'
aa(lp60
S'dep'
p61
aS'8'
aS'10'
p62
aasS'srls'
p63
(lp64
sS'pos_seq'
p65
(lp66
S'NN'
p67
aS'NN'
p68
aS'NN'
p69
aS'JJ'
p70
aS'NN'
p71
aS'NN'
p72
aS'FW'
p73
aS'FW'
p74
aS'FW'
p75
aS'FW'
p76
asS'ner_seq'
p77
(lp78
S'O'
aS'O'
aS'O'
aS'O'
aS'O'
aS'O'
aS'O'
aS'O'
aS'O'
aS'O'
assb.