ccopy_reg
_reconstructor
p1
(c__main__
KBproperty
p2
c__builtin__
object
p3
NtRp4
(dp5
S'comment'
p6
S'54853519'
p7
sS'domain'
p8
S'Sports Event '
p9
sS'instances_count'
p10
I4735
sS'phrases'
p11
NsS'syn_hypo'
p12
S''
sS'label'
p13
S'siler medalist'
p14
sS'range'
p15
S'Person '
p16
sS'uniq_subjs'
p17
S'4735'
p18
sS'uniq_objs'
p19
I0
sS'prop_uri'
p20
S'http://dbpedia.org/ontology/silverMedalist'
p21
sS'annotations'
p22
(dp23
S'bag_of_words'
p24
(lp25
S'Sports'
p26
aS'Event'
p27
aS'siler'
p28
aS'medalist'
p29
aS'Person'
p30
aS'54853519'
p31
asS'chunk_seq'
p32
(lp33
S'B-NP'
p34
aS'I-NP'
p35
aS'I-NP'
p36
aS'I-NP'
p37
aS'E-NP'
p38
aS'O'
asS'dep_seq'
p39
(lp40
(lp41
S'nn'
p42
aS'3'
aS'1'
aa(lp43
S'nn'
p44
aS'3'
aS'2'
aa(lp45
S'nsubj'
p46
aS'4'
aS'3'
aa(lp47
S'root'
p48
aS'0'
aS'4'
aa(lp49
S'dobj'
p50
aS'4'
aS'5'
aa(lp51
S'punct'
p52
aS'5'
aS'6'
aasS'srls'
p53
(lp54
(dp55
S'A1'
p56
g31
sS'A0'
p57
S'Sports Event siler'
p58
sS'A2'
p59
g30
sS'V'
g29
sasS'pos_seq'
p60
(lp61
S'NNS'
p62
aS'NN'
p63
aS'NN'
p64
aS'VBD'
p65
aS'NN'
p66
aS'.'
asS'ner_seq'
p67
(lp68
S'O'
aS'O'
aS'O'
aS'O'
aS'O'
aS'O'
assb.