ccopy_reg
_reconstructor
p1
(c__main__
KBproperty
p2
c__builtin__
object
p3
NtRp4
(dp5
S'comment'
p6
S'Online Computer Library Center number1894618880'
p7
sS'domain'
p8
S'Written Work '
p9
sS'instances_count'
p10
I18766
sS'phrases'
p11
NsS'syn_hypo'
p12
S''
sS'label'
p13
S'OCLC'
p14
sS'range'
p15
S'string '
p16
sS'uniq_subjs'
p17
S'18766'
p18
sS'uniq_objs'
p19
I0
sS'prop_uri'
p20
S'http://dbpedia.org/ontology/oclc'
p21
sS'annotations'
p22
(dp23
S'bag_of_words'
p24
(lp25
S'Written'
p26
aS'Work'
p27
aS'OCLC'
p28
aS'string'
p29
aS'Online'
p30
aS'Computer'
p31
aS'Library'
p32
aS'Center'
p33
aS'number1894618880'
p34
asS'chunk_seq'
p35
(lp36
S'B-NP'
p37
aS'I-NP'
p38
aS'I-NP'
p39
aS'I-NP'
p40
aS'I-NP'
p41
aS'I-NP'
p42
aS'I-NP'
p43
aS'E-NP'
p44
aS'O'
asS'dep_seq'
p45
(lp46
(lp47
S'nn'
p48
aS'4'
aS'1'
aa(lp49
S'nn'
p50
aS'4'
aS'2'
aa(lp51
S'nn'
p52
aS'4'
aS'3'
aa(lp53
S'dep'
p54
aS'8'
aS'4'
aa(lp55
S'nn'
p56
aS'8'
aS'5'
aa(lp57
S'nn'
p58
aS'8'
aS'6'
aa(lp59
S'nn'
p60
aS'8'
aS'7'
aa(lp61
S'root'
p62
aS'0'
aS'8'
aa(lp63
S'punct'
p64
aS'8'
aS'9'
aasS'srls'
p65
(lp66
sS'pos_seq'
p67
(lp68
S'NNP'
p69
aS'NNP'
p70
aS'NNP'
p71
aS'NN'
p72
aS'NNP'
p73
aS'NNP'
p74
aS'NNP'
p75
aS'NNP'
p76
aS'.'
asS'ner_seq'
p77
(lp78
S'O'
aS'O'
aS'S-ORG'
p79
aS'O'
aS'B-ORG'
p80
aS'I-ORG'
p81
aS'I-ORG'
p82
aS'E-ORG'
p83
aS'O'
assb.