ccopy_reg
_reconstructor
p1
(c__main__
KBproperty
p2
c__builtin__
object
p3
NtRp4
(dp5
S'comment'
p6
S'606180'
p7
sS'domain'
p8
S'Music Genre '
p9
sS'instances_count'
p10
I325
sS'phrases'
p11
NsS'syn_hypo'
p12
S''
sS'label'
p13
S'music fusion genre'
p14
sS'range'
p15
S'Music Genre '
p16
sS'uniq_subjs'
p17
S'325'
p18
sS'uniq_objs'
p19
I0
sS'prop_uri'
p20
S'http://dbpedia.org/ontology/musicFusionGenre'
p21
sS'annotations'
p22
(dp23
S'bag_of_words'
p24
(lp25
S'Music'
p26
aS'Genre'
p27
aS'music'
p28
aS'fusion'
p29
aS'genre'
p30
aS'Music'
p31
aS'Genre'
p32
aS'606180'
p33
asS'chunk_seq'
p34
(lp35
S'B-NP'
p36
aS'I-NP'
p37
aS'I-NP'
p38
aS'I-NP'
p39
aS'I-NP'
p40
aS'I-NP'
p41
aS'E-NP'
p42
aS'O'
asS'dep_seq'
p43
(lp44
(lp45
S'nn'
p46
aS'7'
aS'1'
aa(lp47
S'nn'
p48
aS'7'
aS'2'
aa(lp49
S'nn'
p50
aS'7'
aS'3'
aa(lp51
S'nn'
p52
aS'7'
aS'4'
aa(lp53
S'nn'
p54
aS'7'
aS'5'
aa(lp55
S'nn'
p56
aS'7'
aS'6'
aa(lp57
S'root'
p58
aS'0'
aS'7'
aa(lp59
S'num'
p60
aS'7'
aS'8'
aasS'srls'
p61
(lp62
sS'pos_seq'
p63
(lp64
S'NNP'
p65
aS'NNP'
p66
aS'NN'
p67
aS'NN'
p68
aS'NN'
p69
aS'NNP'
p70
aS'NNP'
p71
aS'CD'
p72
asS'ner_seq'
p73
(lp74
S'B-ORG'
p75
aS'E-ORG'
p76
aS'O'
aS'O'
aS'O'
aS'B-ORG'
p77
aS'E-ORG'
p78
aS'O'
assb.