ccopy_reg
_reconstructor
p1
(c__main__
KBproperty
p2
c__builtin__
object
p3
NtRp4
(dp5
S'comment'
p6
S'population percentage male'
p7
sS'domain'
p8
S'Populated Place '
p9
sS'instances_count'
p10
I0
sS'phrases'
p11
NsS'syn_hypo'
p12
S''
sS'label'
p13
g7
sS'range'
p14
S'non Negative Integer '
p15
sS'uniq_subjs'
p16
S'0'
sS'uniq_objs'
p17
I0
sS'prop_uri'
p18
S'http://dbpedia.org/ontology/populationPctMen'
p19
sS'annotations'
p20
(dp21
S'bag_of_words'
p22
(lp23
S'Populated'
p24
aS'Place'
p25
aS'population'
p26
aS'Pct'
p27
aS'Men'
p28
aS'non'
p29
aS'Negative'
p30
aS'Integer'
p31
aS'population'
p32
aS'percentage'
p33
aS'male'
p34
asS'chunk_seq'
p35
(lp36
S'B-NP'
p37
aS'I-NP'
p38
aS'E-NP'
p39
aS'B-NP'
p40
aS'E-NP'
p41
aS'B-NP'
p42
aS'I-NP'
p43
aS'I-NP'
p44
aS'I-NP'
p45
aS'I-NP'
p46
aS'E-NP'
p47
asS'dep_seq'
p48
(lp49
(lp50
S'amod'
p51
aS'2'
aS'1'
aa(lp52
S'root'
p53
aS'0'
aS'2'
aa(lp54
S'dep'
p55
aS'2'
aS'3'
aa(lp56
S'nn'
p57
aS'5'
aS'4'
aa(lp58
S'iobj'
p59
aS'3'
aS'5'
aa(lp60
S'possessive'
p61
aS'11'
p62
aS'6'
aa(lp63
S'nn'
p64
aS'11'
p65
aS'7'
aa(lp66
S'nn'
p67
aS'11'
p68
aS'8'
aa(lp69
S'nn'
p70
aS'11'
p71
aS'9'
aa(lp72
S'nn'
p73
aS'11'
p74
aS'10'
p75
aa(lp76
S'dobj'
p77
aS'3'
aS'11'
p78
aasS'srls'
p79
(lp80
sS'pos_seq'
p81
(lp82
S'JJ'
p83
aS'NN'
p84
aS'NN'
p85
aS'NNP'
p86
aS'NNP'
p87
aS'POS'
p88
aS'NNP'
p89
aS'NNP'
p90
aS'NN'
p91
aS'NN'
p92
aS'NN'
p93
asS'ner_seq'
p94
(lp95
S'O'
aS'O'
aS'O'
aS'O'
aS'O'
aS'O'
aS'B-MISC'
p96
aS'E-MISC'
p97
aS'O'
aS'O'
aS'O'
assb.