ccopy_reg
_reconstructor
p1
(c__main__
KBproperty
p2
c__builtin__
object
p3
NtRp4
(dp5
S'comment'
p6
S'The original title of the work most of the time in the original language as well00'
p7
sS'domain'
p8
S'Work '
p9
sS'instances_count'
p10
I0
sS'phrases'
p11
NsS'syn_hypo'
p12
S''
sS'label'
p13
S'original title'
p14
sS'range'
p15
S'lang String '
p16
sS'uniq_subjs'
p17
S'0'
sS'uniq_objs'
p18
I0
sS'prop_uri'
p19
S'http://dbpedia.org/ontology/originalTitle'
p20
sS'annotations'
p21
(dp22
S'bag_of_words'
p23
(lp24
S'Work'
p25
aS'original'
p26
aS'title'
p27
aS'lang'
p28
aS'String'
p29
aS'The'
p30
aS'original'
p31
aS'title'
p32
aS'of'
p33
aS'the'
p34
aS'work'
p35
aS'most'
p36
aS'of'
p37
aS'the'
p38
aS'time'
p39
aS'in'
p40
aS'the'
p41
aS'original'
p42
aS'language'
p43
aS'as'
p44
aS'well00'
p45
asS'chunk_seq'
p46
(lp47
S'B-NP'
p48
aS'I-NP'
p49
aS'I-NP'
p50
aS'I-NP'
p51
aS'E-NP'
p52
aS'B-NP'
p53
aS'I-NP'
p54
aS'E-NP'
p55
aS'S-PP'
p56
aS'B-NP'
p57
aS'E-NP'
p58
aS'S-NP'
p59
aS'S-PP'
p60
aS'B-NP'
p61
aS'E-NP'
p62
aS'S-PP'
p63
aS'B-NP'
p64
aS'I-NP'
p65
aS'E-NP'
p66
aS'S-PP'
p67
aS'S-NP'
p68
asS'dep_seq'
p69
(lp70
(lp71
S'root'
p72
aS'0'
aS'1'
aa(lp73
S'amod'
p74
aS'3'
aS'2'
aa(lp75
S'dobj'
p76
aS'1'
aS'3'
aa(lp77
S'partmod'
p78
aS'3'
aS'4'
aa(lp79
S'dep'
p80
aS'4'
aS'5'
aa(lp81
S'det'
p82
aS'8'
aS'6'
aa(lp83
S'amod'
p84
aS'8'
aS'7'
aa(lp85
S'dobj'
p86
aS'4'
aS'8'
aa(lp87
S'det'
p88
aS'11'
p89
aS'10'
p90
aa(lp91
S'prep_of'
p92
aS'8'
aS'11'
p93
aa(lp94
S'dep'
p95
aS'8'
aS'12'
p96
aa(lp97
S'det'
p98
aS'15'
p99
aS'14'
p100
aa(lp101
S'prep_of'
p102
aS'12'
p103
aS'15'
p104
aa(lp105
S'det'
p106
aS'19'
p107
aS'17'
p108
aa(lp109
S'amod'
p110
aS'19'
p111
aS'18'
p112
aa(lp113
S'prep_in'
p114
aS'12'
p115
aS'19'
p116
aa(lp117
S'prep_as'
p118
aS'19'
p119
aS'21'
p120
aasS'srls'
p121
(lp122
(dp123
S'A1'
p124
S'original title lang String The original title of the work most of the time in the original language as well00'
p125
sS'V'
g25
sasS'pos_seq'
p126
(lp127
S'VB'
p128
aS'JJ'
p129
aS'NN'
p130
aS'VBG'
p131
aS'NN'
p132
aS'DT'
p133
aS'JJ'
p134
aS'NN'
p135
aS'IN'
p136
aS'DT'
p137
aS'NN'
p138
aS'JJS'
p139
aS'IN'
p140
aS'DT'
p141
aS'NN'
p142
aS'IN'
p143
aS'DT'
p144
aS'JJ'
p145
aS'NN'
p146
aS'IN'
p147
aS'NN'
p148
asS'ner_seq'
p149
(lp150
S'O'
aS'O'
aS'O'
aS'B-PER'
p151
aS'E-PER'
p152
aS'O'
aS'O'
aS'O'
aS'O'
aS'O'
aS'O'
aS'O'
aS'O'
aS'O'
aS'O'
aS'O'
aS'O'
aS'O'
aS'O'
aS'O'
aS'O'
assb.