ccopy_reg
_reconstructor
p1
(c__main__
KBproperty
p2
c__builtin__
object
p3
NtRp4
(dp5
S'comment'
p6
S'Assets and liabilities are part of a companis balance sheet. In financial accounting assets are economic resources. Anything tangible or intangible that is capable of being owned or controlled to produce value and that is held to have positive economic value is considered an asset.35923427'
p7
sS'domain'
p8
S'Company '
p9
sS'instances_count'
p10
I3592
sS'phrases'
p11
NsS'syn_hypo'
p12
S''
sS'label'
p13
S'assets $'
p14
sS'range'
p15
S'double '
p16
sS'uniq_subjs'
p17
S'3143'
p18
sS'uniq_objs'
p19
I0
sS'prop_uri'
p20
S'http://dbpedia.org/ontology/assets'
p21
sS'annotations'
p22
(dp23
S'bag_of_words'
p24
(lp25
S'Company'
p26
aS'assets'
p27
aS'$'
aS'double'
p28
aS'Assets'
p29
aS'and'
p30
aS'liabilities'
p31
aS'are'
p32
aS'part'
p33
aS'of'
p34
aS'a'
aS'companis'
p35
aS'balance'
p36
aS'sheet'
p37
aS'.'
aS'In'
p38
aS'financial'
p39
aS'accounting'
p40
aS'assets'
p41
aS'are'
p42
aS'economic'
p43
aS'resources'
p44
aS'.'
aS'Anything'
p45
aS'tangible'
p46
aS'or'
p47
aS'intangible'
p48
aS'that'
p49
aS'is'
p50
aS'capable'
p51
aS'of'
p52
aS'being'
p53
aS'owned'
p54
aS'or'
p55
aS'controlled'
p56
aS'to'
p57
aS'produce'
p58
aS'value'
p59
aS'and'
p60
aS'that'
p61
aS'is'
p62
aS'held'
p63
aS'to'
p64
aS'have'
p65
aS'positive'
p66
aS'economic'
p67
aS'value'
p68
aS'is'
p69
aS'considered'
p70
aS'an'
p71
aS'asset.35923427'
p72
asS'chunk_seq'
p73
(lp74
S'B-NP'
p75
aS'E-NP'
p76
aS'B-NP'
p77
aS'I-NP'
p78
aS'I-NP'
p79
aS'I-NP'
p80
aS'E-NP'
p81
aS'S-VP'
p82
aS'S-NP'
p83
aS'S-PP'
p84
aS'B-NP'
p85
aS'I-NP'
p86
aS'I-NP'
p87
aS'E-NP'
p88
aS'O'
aS'S-PP'
p89
aS'B-NP'
p90
aS'I-NP'
p91
aS'E-NP'
p92
aS'S-VP'
p93
aS'B-NP'
p94
aS'E-NP'
p95
aS'O'
aS'S-NP'
p96
aS'B-ADJP'
p97
aS'I-ADJP'
p98
aS'E-ADJP'
p99
aS'S-NP'
p100
aS'S-VP'
p101
aS'S-ADJP'
p102
aS'S-PP'
p103
aS'B-VP'
p104
aS'I-VP'
p105
aS'I-VP'
p106
aS'E-VP'
p107
aS'B-VP'
p108
aS'E-VP'
p109
aS'S-NP'
p110
aS'O'
aS'S-NP'
p111
aS'B-VP'
p112
aS'I-VP'
p113
aS'I-VP'
p114
aS'E-VP'
p115
aS'B-NP'
p116
aS'I-NP'
p117
aS'E-NP'
p118
aS'B-VP'
p119
aS'E-VP'
p120
aS'B-NP'
p121
aS'E-NP'
p122
asS'dep_seq'
p123
(lp124
(lp125
S'nn'
p126
aS'2'
aS'1'
aa(lp127
S'nn'
p128
aS'5'
aS'2'
aa(lp129
S'amod'
p130
aS'5'
aS'3'
aa(lp131
S'dep'
p132
aS'3'
aS'4'
aa(lp133
S'nsubj'
p134
aS'8'
aS'5'
aa(lp135
S'conj_and'
p136
aS'5'
aS'7'
aa(lp137
S'root'
p138
aS'0'
aS'8'
aa(lp139
S'nsubj'
p140
aS'22'
p141
aS'9'
aa(lp142
S'det'
p143
aS'14'
p144
aS'11'
p145
aa(lp146
S'amod'
p147
aS'14'
p148
aS'12'
p149
aa(lp150
S'nn'
p151
aS'14'
p152
aS'13'
p153
aa(lp154
S'prep_of'
p155
aS'9'
aS'14'
p156
aa(lp157
S'amod'
p158
aS'19'
p159
aS'17'
p160
aa(lp161
S'nn'
p162
aS'19'
p163
aS'18'
p164
aa(lp165
S'prep_in'
p166
aS'9'
aS'19'
p167
aa(lp168
S'cop'
p169
aS'22'
p170
aS'20'
p171
aa(lp172
S'amod'
p173
aS'22'
p174
aS'21'
p175
aa(lp176
S'ccomp'
p177
aS'8'
aS'22'
p178
aa(lp179
S'parataxis'
p180
aS'8'
aS'24'
p181
aa(lp182
S'nsubj'
p183
aS'30'
p184
aS'24'
p185
aa(lp186
S'amod'
p187
aS'24'
p188
aS'25'
p189
aa(lp190
S'conj_or'
p191
aS'24'
p192
aS'27'
p193
aa(lp194
S'cop'
p195
aS'30'
p196
aS'29'
p197
aa(lp198
S'rcmod'
p199
aS'24'
p200
aS'30'
p201
aa(lp202
S'auxpass'
p203
aS'33'
p204
aS'32'
p205
aa(lp206
S'prepc_of'
p207
aS'30'
p208
aS'33'
p209
aa(lp210
S'conj_or'
p211
aS'33'
p212
aS'35'
p213
aa(lp214
S'aux'
p215
aS'37'
p216
aS'36'
p217
aa(lp218
S'xcomp'
p219
aS'33'
p220
aS'37'
p221
aa(lp222
S'dobj'
p223
aS'37'
p224
aS'38'
p225
aa(lp226
S'nsubjpass'
p227
aS'42'
p228
aS'40'
p229
aa(lp230
S'xsubj'
p231
aS'44'
p232
aS'40'
p233
aa(lp234
S'auxpass'
p235
aS'42'
p236
aS'41'
p237
aa(lp238
S'conj_and'
p239
aS'24'
p240
aS'42'
p241
aa(lp242
S'aux'
p243
aS'44'
p244
aS'43'
p245
aa(lp246
S'xcomp'
p247
aS'42'
p248
aS'44'
p249
aa(lp250
S'amod'
p251
aS'47'
p252
aS'45'
p253
aa(lp254
S'amod'
p255
aS'47'
p256
aS'46'
p257
aa(lp258
S'dobj'
p259
aS'44'
p260
aS'47'
p261
aa(lp262
S'dep'
p263
aS'8'
aS'48'
p264
aa(lp265
S'dep'
p266
aS'8'
aS'49'
p267
aa(lp268
S'det'
p269
aS'51'
p270
aS'50'
p271
aa(lp272
S'dep'
p273
aS'8'
aS'51'
p274
aasS'srls'
p275
(lp276
(dp277
S'A1'
p278
S'Anything tangible or intangible'
p279
sS'R-A1'
p280
g49
sS'V'
g54
sa(dp281
S'A1'
p282
S'Anything tangible or intangible'
p283
sS'R-A1'
p284
g49
sS'AM-PNC'
p285
S'to produce value'
p286
sS'V'
g56
sa(dp287
S'A1'
p288
g59
sS'A0'
p289
S'Anything tangible or intangible that is capable of being owned or controlled'
p290
sS'V'
g58
sa(dp291
S'A1'
p292
g61
sS'C-A1'
p293
S'to have positive economic value is considered an asset.35923427'
p294
sS'V'
g63
sa(dp295
S'A1'
p296
S'positive economic value'
p297
sS'A0'
p298
g61
sS'V'
g65
sa(dp299
S'A2'
p300
S'Anything tangible or intangible that is capable of being owned or controlled to produce value and that is held to have positive economic value  an asset.35923427'
p301
sS'V'
g70
sasS'pos_seq'
p302
(lp303
S'NN'
p304
aS'NNS'
p305
aS'$'
aS'JJ'
p306
aS'NNS'
p307
aS'CC'
p308
aS'NNS'
p309
aS'VBP'
p310
aS'NN'
p311
aS'IN'
p312
aS'DT'
p313
aS'JJ'
p314
aS'NN'
p315
aS'NN'
p316
aS'.'
aS'IN'
p317
aS'JJ'
p318
aS'NN'
p319
aS'NNS'
p320
aS'VBP'
p321
aS'JJ'
p322
aS'NNS'
p323
aS'.'
aS'NN'
p324
aS'JJ'
p325
aS'CC'
p326
aS'JJ'
p327
aS'WDT'
p328
aS'VBZ'
p329
aS'JJ'
p330
aS'IN'
p331
aS'VBG'
p332
aS'VBN'
p333
aS'CC'
p334
aS'VBN'
p335
aS'TO'
p336
aS'VB'
p337
aS'NN'
p338
aS'CC'
p339
aS'DT'
p340
aS'VBZ'
p341
aS'VBN'
p342
aS'TO'
p343
aS'VB'
p344
aS'JJ'
p345
aS'JJ'
p346
aS'NN'
p347
aS'VBZ'
p348
aS'VBN'
p349
aS'DT'
p350
aS'NN'
p351
asS'ner_seq'
p352
(lp353
S'O'
aS'O'
aS'O'
aS'O'
aS'O'
aS'O'
aS'O'
aS'O'
aS'O'
aS'O'
aS'O'
aS'O'
aS'O'
aS'O'
aS'O'
aS'O'
aS'O'
aS'O'
aS'O'
aS'O'
aS'O'
aS'O'
aS'O'
aS'O'
aS'O'
aS'O'
aS'O'
aS'O'
aS'O'
aS'O'
aS'O'
aS'O'
aS'O'
aS'O'
aS'O'
aS'O'
aS'O'
aS'O'
aS'O'
aS'O'
aS'O'
aS'O'
aS'O'
aS'O'
aS'O'
aS'O'
aS'O'
aS'O'
aS'O'
aS'O'
aS'O'
assb.