ccopy_reg
_reconstructor
p1
(c__main__
KBproperty
p2
c__builtin__
object
p3
NtRp4
(dp5
S'comment'
p6
S'43154001'
p7
sS'domain'
p8
S'Person Function '
p9
sS'instances_count'
p10
I3726
sS'phrases'
p11
NsS'syn_hypo'
p12
VabatorpersonindividualsomeonesomebodymortalsoulabjurerpersonindividualsomeonesomebodymortalsoulabominationpersonindividualsomeonesomebodymortalsoulabstainerpersonindividualsomeonesomebodymortalsoulabstinentpersonindividualsomeonesomebodymortalsoulnondrinkerpersonindividualsomeonesomebodymortalsoulachieverpersonindividualsomeonesomebodymortalsoulwinnerpersonindividualsomeonesomebodymortalsoulsuccesspersonindividualsomeonesomebodymortalsoulsucceederpersonindividualsomeonesomebodymortalsoulacquaintancepersonindividualsomeonesomebodymortalsoulfriendpersonindividualsomeonesomebodymortalsoulacquirerpersonindividualsomeonesomebodymortalsoulactivepersonindividualsomeonesomebodymortalsoulactorpersonindividualsomeonesomebodymortalsouldoerpersonindividualsomeonesomebodymortalsoulworkerpersonindividualsomeonesomebodymortalsouladjudicatorpersonindividualsomeonesomebodymortalsouladmirerpersonindividualsomeonesomebodymortalsouladopteepersonindividualsomeonesomebodymortalsouladultpersonindividualsomeonesomebodymortalsoulgrownuppersonindividualsomeonesomebodymortalsouladventurerpersonindividualsomeonesomebodymortalsoulventurerpersonindividualsomeonesomebodymortalsouladversarypersonindividualsomeonesomebodymortalsoulantagonistpersonindividualsomeonesomebodymortalsoulopponentpersonindividualsomeonesomebodymortalsoulopposerpersonindividualsomeonesomebodymortalsoulresisterpersonindividualsomeonesomebodymortalsouladviseepersonindividualsomeonesomebodymortalsouladvocatepersonindividualsomeonesomebodymortalsouladvocatorpersonindividualsomeonesomebodymortalsoulproponentpersonindividualsomeonesomebodymortalsoulexponentpersonindividualsomeonesomebodymortalsoulaffiantpersonindividualsomeonesomebodymortalsoulAfricanpersonindividualsomeonesomebodymortalsoulagnosticpersonindividualsomeonesomebodymortalsouldoubterpersonindividualsomeonesomebodymortalsoulamateurpersonindividualsomeonesomebodymortalsoulAmerindianpersonindividualsomeonesomebodymortalsoulNative_Americanpersonindividualsomeonesomebodymortalsoulancientpersonindividualsomeonesomebodymortalsoulanomalypersonindividualsomeonesomebodymortalsoulunusual_personpersonindividualsomeonesomebodymortalsoulanti-AmericanpersonindividualsomeonesomebodymortalsoulantipersonindividualsomeonesomebodymortalsoulapplicantpersonindividualsomeonesomebodymortalsoulapplierpersonindividualsomeonesomebodymortalsoulappointeepersonindividualsomeonesomebodymortalsoulappointmentpersonindividualsomeonesomebodymortalsoulappreciatorpersonindividualsomeonesomebodymortalsoulapprehenderpersonindividualsomeonesomebodymortalsoulAquariuspersonindividualsomeonesomebodymortalsoulWater_BearerpersonindividualsomeonesomebodymortalsoularchaistpersonindividualsomeonesomebodymortalsoulAriespersonindividualsomeonesomebodymortalsoulRampersonindividualsomeonesomebodymortalsoularrogatorpersonindividualsomeonesomebodymortalsoulassesseepersonindividualsomeonesomebodymortalsoulasthmaticpersonindividualsomeonesomebodymortalsoulauthoritypersonindividualsomeonesomebodymortalsoulautodidactpersonindividualsomeonesomebodymortalsoulbaby_boomerpersonindividualsomeonesomebodymortalsoulboomerpersonindividualsomeonesomebodymortalsoulbaby_busterpersonindividualsomeonesomebodymortalsoulbusterpersonindividualsomeonesomebodymortalsoulbad_guypersonindividualsomeonesomebodymortalsoulbad_personpersonindividualsomeonesomebodymortalsoulbaldheadpersonindividualsomeonesomebodymortalsoulbaldpatepersonindividualsomeonesomebodymortalsoulbaldypersonindividualsomeonesomebodymortalsoulbalkerpersonindividualsomeonesomebodymortalsoulbaulkerpersonindividualsomeonesomebodymortalsoulnoncompliantpersonindividualsomeonesomebodymortalsoulbatherpersonindividualsomeonesomebodymortalsoulbeardpersonindividualsomeonesomebodymortalsoulbedfellowpersonindividualsomeonesomebodymortalsoulbereavedpersonindividualsomeonesomebodymortalsoulbereaved_personpersonindividualsomeonesomebodymortalsoulbestpersonindividualsomeonesomebodymortalsoultopperpersonindividualsomeonesomebodymortalsoulbirthpersonindividualsomeonesomebodymortalsoulbiterpersonindividualsomeonesomebodymortalsoulBlackpersonindividualsomeonesomebodymortalsoulBlack_personpersonindividualsomeonesomebodymortalsoulblackamoorpersonindividualsomeonesomebodymortalsoulNegropersonindividualsomeonesomebodymortalsoulNegroidpersonindividualsomeonesomebodymortalsoulbloggerpersonindividualsomeonesomebodymortalsoulblondpersonindividualsomeonesomebodymortalsoulblondepersonindividualsomeonesomebodymortalsoulbluecoatpersonindividualsomeonesomebodymortalsoulbodybuilderpersonindividualsomeonesomebodymortalsoulmuscle_builderpersonindividualsomeonesomebodymortalsoulmuscle-builderpersonindividualsomeonesomebodymortalsoulmusclebuilderpersonindividualsomeonesomebodymortalsoulmusclemanpersonindividualsomeonesomebodymortalsoulbomberpersonindividualsomeonesomebodymortalsoulbrunetpersonindividualsomeonesomebodymortalsoulbrunettepersonindividualsomeonesomebodymortalsoulbullfighterpersonindividualsomeonesomebodymortalsoultoreadorpersonindividualsomeonesomebodymortalsoulbusterpersonindividualsomeonesomebodymortalsoulCancerpersonindividualsomeonesomebodymortalsoulCrabpersonindividualsomeonesomebodymortalsoulcandidatepersonindividualsomeonesomebodymortalsoulprospectpersonindividualsomeonesomebodymortalsoulcapitalistpersonindividualsomeonesomebodymortalsoulCapricornpersonindividualsomeonesomebodymortalsoulGoatpersonindividualsomeonesomebodymortalsoulcaptorpersonindividualsomeonesomebodymortalsoulcapturerpersonindividualsomeonesomebodymortalsoulcasepersonindividualsomeonesomebodymortalsoulcashierpersonindividualsomeonesomebodymortalsoulcelebrantpersonindividualsomeonesomebodymortalsoulcelebratorpersonindividualsomeonesomebodymortalsoulcelebraterpersonindividualsomeonesomebodymortalsoulcensorpersonindividualsomeonesomebodymortalsoulchameleonpersonindividualsomeonesomebodymortalsoulchangerpersonindividualsomeonesomebodymortalsoulmodifierpersonindividualsomeonesomebodymortalsoulcharmerpersonindividualsomeonesomebodymortalsoulbeguilerpersonindividualsomeonesomebodymortalsoulchildpersonindividualsomeonesomebodymortalsoulbabypersonindividualsomeonesomebodymortalsoulchutzpanikpersonindividualsomeonesomebodymortalsoulcloserpersonindividualsomeonesomebodymortalsoulclumsy_personpersonindividualsomeonesomebodymortalsoulcollectorpersonindividualsomeonesomebodymortalsoulaggregatorpersonindividualsomeonesomebodymortalsoulcolor-blind_personpersonindividualsomeonesomebodymortalsoulcombatantpersonindividualsomeonesomebodymortalsoulbattlerpersonindividualsomeonesomebodymortalsoulbelligerentpersonindividualsomeonesomebodymortalsoulfighterpersonindividualsomeonesomebodymortalsoulscrapperpersonindividualsomeonesomebodymortalsoulcommonerpersonindividualsomeonesomebodymortalsoulcommon_manpersonindividualsomeonesomebodymortalsoulcommon_personpersonindividualsomeonesomebodymortalsoulcommunicatorpersonindividualsomeonesomebodymortalsoulcomplexifierpersonindividualsomeonesomebodymortalsoulcompulsivepersonindividualsomeonesomebodymortalsoulcomputer_userpersonindividualsomeonesomebodymortalsoulcontemplativepersonindividualsomeonesomebodymortalsoulcontestantpersonindividualsomeonesomebodymortalsoulconvertpersonindividualsomeonesomebodymortalsoulcopycatpersonindividualsomeonesomebodymortalsoulimitatorpersonindividualsomeonesomebodymortalsoulemulatorpersonindividualsomeonesomebodymortalsoulapepersonindividualsomeonesomebodymortalsoulaperpersonindividualsomeonesomebodymortalsoulcounterpersonindividualsomeonesomebodymortalsoulcounterterroristpersonindividualsomeonesomebodymortalsoulcowardpersonindividualsomeonesomebodymortalsoulcrawlerpersonindividualsomeonesomebodymortalsoulcreeperpersonindividualsomeonesomebodymortalsoulcreatorpersonindividualsomeonesomebodymortalsoulcreaturepersonindividualsomeonesomebodymortalsoulwightpersonindividualsomeonesomebodymortalsoulcreditorpersonindividualsomeonesomebodymortalsoulcripplepersonindividualsomeonesomebodymortalsouldancerpersonindividualsomeonesomebodymortalsoulsocial_dancerpersonindividualsomeonesomebodymortalsouldead_personpersonindividualsomeonesomebodymortalsouldead_soulpersonindividualsomeonesomebodymortalsouldeceased_personpersonindividualsomeonesomebodymortalsouldeceasedpersonindividualsomeonesomebodymortalsouldecedentpersonindividualsomeonesomebodymortalsouldepartedpersonindividualsomeonesomebodymortalsouldeaf_personpersonindividualsomeonesomebodymortalsouldebaserpersonindividualsomeonesomebodymortalsouldegraderpersonindividualsomeonesomebodymortalsouldebtorpersonindividualsomeonesomebodymortalsouldebitorpersonindividualsomeonesomebodymortalsouldefecatorpersonindividualsomeonesomebodymortalsoulvoiderpersonindividualsomeonesomebodymortalsoulshitterpersonindividualsomeonesomebodymortalsouldelayerpersonindividualsomeonesomebodymortalsouldelivererpersonindividualsomeonesomebodymortalsouldemanderpersonindividualsomeonesomebodymortalsouldieterpersonindividualsomeonesomebodymortalsouldifferentiatorpersonindividualsomeonesomebodymortalsouldiscriminatorpersonindividualsomeonesomebodymortalsouldisentanglerpersonindividualsomeonesomebodymortalsoulunravelerpersonindividualsomeonesomebodymortalsoulunravellerpersonindividualsomeonesomebodymortalsouldisputantpersonindividualsomeonesomebodymortalsoulcontroversialistpersonindividualsomeonesomebodymortalsouleristicpersonindividualsomeonesomebodymortalsouldissenterpersonindividualsomeonesomebodymortalsouldissidentpersonindividualsomeonesomebodymortalsoulprotesterpersonindividualsomeonesomebodymortalsoulobjectorpersonindividualsomeonesomebodymortalsoulcontestantpersonindividualsomeonesomebodymortalsouldividerpersonindividualsomeonesomebodymortalsouldomestic_partnerpersonindividualsomeonesomebodymortalsoulsignificant_otherpersonindividualsomeonesomebodymortalsoulspousal_equivalentpersonindividualsomeonesomebodymortalsoulspouse_equivalentpersonindividualsomeonesomebodymortalsouldoublepersonindividualsomeonesomebodymortalsoulimagepersonindividualsomeonesomebodymortalsoullook-alikepersonindividualsomeonesomebodymortalsouldresserpersonindividualsomeonesomebodymortalsouldribblerpersonindividualsomeonesomebodymortalsouldrivellerpersonindividualsomeonesomebodymortalsoulslobbererpersonindividualsomeonesomebodymortalsouldroolerpersonindividualsomeonesomebodymortalsouldrug_userpersonindividualsomeonesomebodymortalsoulsubstance_abuserpersonindividualsomeonesomebodymortalsouluserpersonindividualsomeonesomebodymortalsouldyslecticpersonindividualsomeonesomebodymortalsoulectomorphpersonindividualsomeonesomebodymortalsouleffecterpersonindividualsomeonesomebodymortalsouleffectorpersonindividualsomeonesomebodymortalsoulElizabethanpersonindividualsomeonesomebodymortalsoulemotional_personpersonindividualsomeonesomebodymortalsoulendomorphpersonindividualsomeonesomebodymortalsoulengineerpersonindividualsomeonesomebodymortalsoulapplied_scientistpersonindividualsomeonesomebodymortalsoultechnologistpersonindividualsomeonesomebodymortalsoulenjoyerpersonindividualsomeonesomebodymortalsoulenrolleepersonindividualsomeonesomebodymortalsoulentertainerpersonindividualsomeonesomebodymortalsoulethnicpersonindividualsomeonesomebodymortalsoulexperimenterpersonindividualsomeonesomebodymortalsoulexpertpersonindividualsomeonesomebodymortalsoulexplorerpersonindividualsomeonesomebodymortalsouladventurerpersonindividualsomeonesomebodymortalsoulextrovertpersonindividualsomeonesomebodymortalsoulextravertpersonindividualsomeonesomebodymortalsoulfacepersonindividualsomeonesomebodymortalsoulfaddistpersonindividualsomeonesomebodymortalsoulfallerpersonindividualsomeonesomebodymortalsoulfastenerpersonindividualsomeonesomebodymortalsoulfemalepersonindividualsomeonesomebodymortalsoulfemale_personpersonindividualsomeonesomebodymortalsoulfiduciarypersonindividualsomeonesomebodymortalsoulfirst-raterpersonindividualsomeonesomebodymortalsoulfollowerpersonindividualsomeonesomebodymortalsoulfree_agentpersonindividualsomeonesomebodymortalsoulfree_spiritpersonindividualsomeonesomebodymortalsoulfreewheelerpersonindividualsomeonesomebodymortalsoulfriendpersonindividualsomeonesomebodymortalsoulfugitivepersonindividualsomeonesomebodymortalsoulrunawaypersonindividualsomeonesomebodymortalsoulfleerpersonindividualsomeonesomebodymortalsoulgainerpersonindividualsomeonesomebodymortalsoulweight_gainerpersonindividualsomeonesomebodymortalsoulgainerpersonindividualsomeonesomebodymortalsoulgamblerpersonindividualsomeonesomebodymortalsoulgatekeeperpersonindividualsomeonesomebodymortalsoulgathererpersonindividualsomeonesomebodymortalsoulGeminipersonindividualsomeonesomebodymortalsoulTwinpersonindividualsomeonesomebodymortalsoulgentilepersonindividualsomeonesomebodymortalsoulgood_guypersonindividualsomeonesomebodymortalsoulgood_personpersonindividualsomeonesomebodymortalsoulgranterpersonindividualsomeonesomebodymortalsoulgreeterpersonindividualsomeonesomebodymortalsoulsaluterpersonindividualsomeonesomebodymortalsoulwelcomerpersonindividualsomeonesomebodymortalsoulgrinnerpersonindividualsomeonesomebodymortalsoulgroanerpersonindividualsomeonesomebodymortalsoulgrunterpersonindividualsomeonesomebodymortalsoulguesserpersonindividualsomeonesomebodymortalsoulhandicapped_personpersonindividualsomeonesomebodymortalsoulhaterpersonindividualsomeonesomebodymortalsoulheterosexualpersonindividualsomeonesomebodymortalsoulheterosexual_personpersonindividualsomeonesomebodymortalsoulstraight_personpersonindividualsomeonesomebodymortalsoulstraightpersonindividualsomeonesomebodymortalsoulhomosexualpersonindividualsomeonesomebodymortalsoulhomophilepersonindividualsomeonesomebodymortalsoulhomopersonindividualsomeonesomebodymortalsoulgaypersonindividualsomeonesomebodymortalsoulhomunculuspersonindividualsomeonesomebodymortalsoulhopepersonindividualsomeonesomebodymortalsoulhoperpersonindividualsomeonesomebodymortalsoulhuddlerpersonindividualsomeonesomebodymortalsoulhuggerpersonindividualsomeonesomebodymortalsoulimmunepersonindividualsomeonesomebodymortalsoulindividualistpersonindividualsomeonesomebodymortalsoulinhabitantpersonindividualsomeonesomebodymortalsoulhabitantpersonindividualsomeonesomebodymortalsouldwellerpersonindividualsomeonesomebodymortalsouldenizenpersonindividualsomeonesomebodymortalsoulindwellerpersonindividualsomeonesomebodymortalsoulinnocentpersonindividualsomeonesomebodymortalsoulinexperienced_personpersonindividualsomeonesomebodymortalsoulinsuredpersonindividualsomeonesomebodymortalsoulinsured_personpersonindividualsomeonesomebodymortalsoulintellectualpersonindividualsomeonesomebodymortalsoulintellectpersonindividualsomeonesomebodymortalsoulinterpreterpersonindividualsomeonesomebodymortalsoulintrovertpersonindividualsomeonesomebodymortalsoulJatpersonindividualsomeonesomebodymortalsoulJewpersonindividualsomeonesomebodymortalsoulHebrewpersonindividualsomeonesomebodymortalsoulIsraelitepersonindividualsomeonesomebodymortalsouljewelpersonindividualsomeonesomebodymortalsoulgempersonindividualsomeonesomebodymortalsouljumperpersonindividualsomeonesomebodymortalsouljuniorpersonindividualsomeonesomebodymortalsouljuvenilepersonindividualsomeonesomebodymortalsouljuvenile_personpersonindividualsomeonesomebodymortalsoulkillerpersonindividualsomeonesomebodymortalsoulslayerpersonindividualsomeonesomebodymortalsoulkinkpersonindividualsomeonesomebodymortalsoulkneelerpersonindividualsomeonesomebodymortalsoulknockerpersonindividualsomeonesomebodymortalsoulknowerpersonindividualsomeonesomebodymortalsoulapprehenderpersonindividualsomeonesomebodymortalsoullarge_personpersonindividualsomeonesomebodymortalsoulLatinpersonindividualsomeonesomebodymortalsoullaugherpersonindividualsomeonesomebodymortalsoulleaderpersonindividualsomeonesomebodymortalsoullearnerpersonindividualsomeonesomebodymortalsoulscholarpersonindividualsomeonesomebodymortalsoulassimilatorpersonindividualsomeonesomebodymortalsoulleft-handerpersonindividualsomeonesomebodymortalsoulleftypersonindividualsomeonesomebodymortalsoulsouthpawpersonindividualsomeonesomebodymortalsoulLeopersonindividualsomeonesomebodymortalsoulLionpersonindividualsomeonesomebodymortalsoulLibrapersonindividualsomeonesomebodymortalsoulBalancepersonindividualsomeonesomebodymortalsoullifepersonindividualsomeonesomebodymortalsoullightning_rodpersonindividualsomeonesomebodymortalsoullinguistpersonindividualsomeonesomebodymortalsoulpolyglotpersonindividualsomeonesomebodymortalsoulliteratepersonindividualsomeonesomebodymortalsoulliterate_personpersonindividualsomeonesomebodymortalsoulliverpersonindividualsomeonesomebodymortalsoullongerpersonindividualsomeonesomebodymortalsoulthirsterpersonindividualsomeonesomebodymortalsoulyearnerpersonindividualsomeonesomebodymortalsoulloose_cannonpersonindividualsomeonesomebodymortalsoulloved_onepersonindividualsomeonesomebodymortalsoulloverpersonindividualsomeonesomebodymortalsoulmachinepersonindividualsomeonesomebodymortalsoulmailerpersonindividualsomeonesomebodymortalsoulmalcontentpersonindividualsomeonesomebodymortalsoulmalepersonindividualsomeonesomebodymortalsoulmale_personpersonindividualsomeonesomebodymortalsoulmanpersonindividualsomeonesomebodymortalsoulman_jackpersonindividualsomeonesomebodymortalsoulmanipulatorpersonindividualsomeonesomebodymortalsoulmarriedpersonindividualsomeonesomebodymortalsoulmasturbatorpersonindividualsomeonesomebodymortalsoulonanistpersonindividualsomeonesomebodymortalsoulmeasurerpersonindividualsomeonesomebodymortalsoulmesomorphpersonindividualsomeonesomebodymortalsoulmestizopersonindividualsomeonesomebodymortalsoulladinopersonindividualsomeonesomebodymortalsoulmiddlebrowpersonindividualsomeonesomebodymortalsoulmiracle_manpersonindividualsomeonesomebodymortalsoulmiracle_workerpersonindividualsomeonesomebodymortalsoulmisogamistpersonindividualsomeonesomebodymortalsoulmixed-bloodpersonindividualsomeonesomebodymortalsoulmodernpersonindividualsomeonesomebodymortalsoulmoney_handlerpersonindividualsomeonesomebodymortalsoulmoney_dealerpersonindividualsomeonesomebodymortalsoulmonolingualpersonindividualsomeonesomebodymortalsoulmother_henpersonindividualsomeonesomebodymortalsoulmousepersonindividualsomeonesomebodymortalsoulmutilatorpersonindividualsomeonesomebodymortalsoulmaimerpersonindividualsomeonesomebodymortalsoulmanglerpersonindividualsomeonesomebodymortalsoulnamerpersonindividualsomeonesomebodymortalsoulnamesakepersonindividualsomeonesomebodymortalsoulnationalpersonindividualsomeonesomebodymortalsoulsubjectpersonindividualsomeonesomebodymortalsoulnativepersonindividualsomeonesomebodymortalsoulindigenpersonindividualsomeonesomebodymortalsoulindigenepersonindividualsomeonesomebodymortalsoulaboriginepersonindividualsomeonesomebodymortalsoulaboriginalpersonindividualsomeonesomebodymortalsoulnativepersonindividualsomeonesomebodymortalsoulneglecterpersonindividualsomeonesomebodymortalsoulneighborpersonindividualsomeonesomebodymortalsoulneighbourpersonindividualsomeonesomebodymortalsoulneutralpersonindividualsomeonesomebodymortalsoulnondescriptpersonindividualsomeonesomebodymortalsoulnonmemberpersonindividualsomeonesomebodymortalsoulnonparticipantpersonindividualsomeonesomebodymortalsoulnonpartisanpersonindividualsomeonesomebodymortalsoulnonpartizanpersonindividualsomeonesomebodymortalsoulnonpersonpersonindividualsomeonesomebodymortalsoulunpersonpersonindividualsomeonesomebodymortalsoulnonreligious_personpersonindividualsomeonesomebodymortalsoulnonresidentpersonindividualsomeonesomebodymortalsoulnonsmokerpersonindividualsomeonesomebodymortalsoulnonworkerpersonindividualsomeonesomebodymortalsoulnudepersonindividualsomeonesomebodymortalsoulnude_personpersonindividualsomeonesomebodymortalsoulnurserpersonindividualsomeonesomebodymortalsouloccultistpersonindividualsomeonesomebodymortalsouloptimistpersonindividualsomeonesomebodymortalsoulorphanpersonindividualsomeonesomebodymortalsoulostrichpersonindividualsomeonesomebodymortalsoulousterpersonindividualsomeonesomebodymortalsoulejectorpersonindividualsomeonesomebodymortalsouloutcastepersonindividualsomeonesomebodymortalsouloutdoorsmanpersonindividualsomeonesomebodymortalsoulownerpersonindividualsomeonesomebodymortalsoulpossessorpersonindividualsomeonesomebodymortalsoulpampererpersonindividualsomeonesomebodymortalsoulspoilerpersonindividualsomeonesomebodymortalsoulcoddlerpersonindividualsomeonesomebodymortalsoulmollycoddlerpersonindividualsomeonesomebodymortalsoulpansexualpersonindividualsomeonesomebodymortalsoulpardonerpersonindividualsomeonesomebodymortalsoulforgiverpersonindividualsomeonesomebodymortalsoulexcuserpersonindividualsomeonesomebodymortalsoulpartnerpersonindividualsomeonesomebodymortalsoulpartypersonindividualsomeonesomebodymortalsoulpasserpersonindividualsomeonesomebodymortalsoulpeerpersonindividualsomeonesomebodymortalsoulequalpersonindividualsomeonesomebodymortalsoulmatchpersonindividualsomeonesomebodymortalsoulcompeerpersonindividualsomeonesomebodymortalsoulperceiverpersonindividualsomeonesomebodymortalsoulpercipientpersonindividualsomeonesomebodymortalsoulobserverpersonindividualsomeonesomebodymortalsoulbeholderpersonindividualsomeonesomebodymortalsoulpercherpersonindividualsomeonesomebodymortalsoulperson_of_colorpersonindividualsomeonesomebodymortalsoulperson_of_colourpersonindividualsomeonesomebodymortalsoulpersonagepersonindividualsomeonesomebodymortalsoulpersonificationpersonindividualsomeonesomebodymortalsoulperspirerpersonindividualsomeonesomebodymortalsoulsweaterpersonindividualsomeonesomebodymortalsoulphilosopherpersonindividualsomeonesomebodymortalsoulpickerpersonindividualsomeonesomebodymortalsoulchooserpersonindividualsomeonesomebodymortalsoulselectorpersonindividualsomeonesomebodymortalsoulPiscespersonindividualsomeonesomebodymortalsoulFishpersonindividualsomeonesomebodymortalsoulpisserpersonindividualsomeonesomebodymortalsoulurinatorpersonindividualsomeonesomebodymortalsoulplannerpersonindividualsomeonesomebodymortalsoulcontriverpersonindividualsomeonesomebodymortalsouldeviserpersonindividualsomeonesomebodymortalsoulplayerpersonindividualsomeonesomebodymortalsoulposturerpersonindividualsomeonesomebodymortalsoulpowdererpersonindividualsomeonesomebodymortalsoulprecursorpersonindividualsomeonesomebodymortalsoulforerunnerpersonindividualsomeonesomebodymortalsoulpreserverpersonindividualsomeonesomebodymortalsoulprimitivepersonindividualsomeonesomebodymortalsoulprimitive_personpersonindividualsomeonesomebodymortalsoulproposituspersonindividualsomeonesomebodymortalsoulpublic_relations_personpersonindividualsomeonesomebodymortalsoulpursuerpersonindividualsomeonesomebodymortalsoulpussycatpersonindividualsomeonesomebodymortalsoulquarterpersonindividualsomeonesomebodymortalsoulquitterpersonindividualsomeonesomebodymortalsoulradicalpersonindividualsomeonesomebodymortalsoulrealistpersonindividualsomeonesomebodymortalsoulrectifierpersonindividualsomeonesomebodymortalsoulredheadpersonindividualsomeonesomebodymortalsoulredheaderpersonindividualsomeonesomebodymortalsoulred-headerpersonindividualsomeonesomebodymortalsoulcarrottoppersonindividualsomeonesomebodymortalsoulregistrantpersonindividualsomeonesomebodymortalsoulrelativepersonindividualsomeonesomebodymortalsoulrelationpersonindividualsomeonesomebodymortalsoulrelieverpersonindividualsomeonesomebodymortalsoulallayerpersonindividualsomeonesomebodymortalsoulcomforterpersonindividualsomeonesomebodymortalsoulreligious_personpersonindividualsomeonesomebodymortalsoulrepeaterpersonindividualsomeonesomebodymortalsoulrescuerpersonindividualsomeonesomebodymortalsoulrecovererpersonindividualsomeonesomebodymortalsoulsaverpersonindividualsomeonesomebodymortalsoulresterpersonindividualsomeonesomebodymortalsoulrestrainerpersonindividualsomeonesomebodymortalsoulcontrollerpersonindividualsomeonesomebodymortalsoulrevenantpersonindividualsomeonesomebodymortalsoulrich_personpersonindividualsomeonesomebodymortalsoulwealthy_personpersonindividualsomeonesomebodymortalsoulhavepersonindividualsomeonesomebodymortalsoulright-handerpersonindividualsomeonesomebodymortalsoulright_handerpersonindividualsomeonesomebodymortalsoulrighthanderpersonindividualsomeonesomebodymortalsoulriserpersonindividualsomeonesomebodymortalsoulromperpersonindividualsomeonesomebodymortalsoulroundheadpersonindividualsomeonesomebodymortalsoulrulerpersonindividualsomeonesomebodymortalsoulswayerpersonindividualsomeonesomebodymortalsoulrusherpersonindividualsomeonesomebodymortalsoulSagittariuspersonindividualsomeonesomebodymortalsoulArcherpersonindividualsomeonesomebodymortalsoulscientistpersonindividualsomeonesomebodymortalsoulScorpiopersonindividualsomeonesomebodymortalsoulScorpionpersonindividualsomeonesomebodymortalsoulscratcherpersonindividualsomeonesomebodymortalsoulsecond-raterpersonindividualsomeonesomebodymortalsoulmediocritypersonindividualsomeonesomebodymortalsoulseederpersonindividualsomeonesomebodymortalsoulcloud_seederpersonindividualsomeonesomebodymortalsoulseekerpersonindividualsomeonesomebodymortalsoulsearcherpersonindividualsomeonesomebodymortalsoulquesterpersonindividualsomeonesomebodymortalsoulsegregatepersonindividualsomeonesomebodymortalsoulselfpersonindividualsomeonesomebodymortalsoulsensualistpersonindividualsomeonesomebodymortalsoulsentimentalistpersonindividualsomeonesomebodymortalsoulromanticistpersonindividualsomeonesomebodymortalsoulsex_objectpersonindividualsomeonesomebodymortalsoulsex_symbolpersonindividualsomeonesomebodymortalsoulshakerpersonindividualsomeonesomebodymortalsoulmover_and_shakerpersonindividualsomeonesomebodymortalsoulshowmanpersonindividualsomeonesomebodymortalsoulsignerpersonindividualsomeonesomebodymortalsoulsignatorypersonindividualsomeonesomebodymortalsoulsimpletonpersonindividualsomeonesomebodymortalsoulsimplepersonindividualsomeonesomebodymortalsoulsix-footerpersonindividualsomeonesomebodymortalsoulskidderpersonindividualsomeonesomebodymortalsoulsliderpersonindividualsomeonesomebodymortalsoulslipperpersonindividualsomeonesomebodymortalsoulSlavpersonindividualsomeonesomebodymortalsoulslavepersonindividualsomeonesomebodymortalsoulslavepersonindividualsomeonesomebodymortalsoulsleepyheadpersonindividualsomeonesomebodymortalsoulsloucherpersonindividualsomeonesomebodymortalsoulsmall_personpersonindividualsomeonesomebodymortalsoulsmasherpersonindividualsomeonesomebodymortalsoulsmilerpersonindividualsomeonesomebodymortalsoulsneezerpersonindividualsomeonesomebodymortalsoulsnifferpersonindividualsomeonesomebodymortalsoulsnifflerpersonindividualsomeonesomebodymortalsoulsnivelerpersonindividualsomeonesomebodymortalsoulsnufferpersonindividualsomeonesomebodymortalsoulsnufflerpersonindividualsomeonesomebodymortalsoulsocializerpersonindividualsomeonesomebodymortalsoulsocialiserpersonindividualsomeonesomebodymortalsoulsortpersonindividualsomeonesomebodymortalsoulsounding_boardpersonindividualsomeonesomebodymortalsoulsphinxpersonindividualsomeonesomebodymortalsoulspitterpersonindividualsomeonesomebodymortalsoulexpectoratorpersonindividualsomeonesomebodymortalsoulsportpersonindividualsomeonesomebodymortalsoulsprawlerpersonindividualsomeonesomebodymortalsoulspurnerpersonindividualsomeonesomebodymortalsoulsquinterpersonindividualsomeonesomebodymortalsoulsquint-eyepersonindividualsomeonesomebodymortalsoulstiflerpersonindividualsomeonesomebodymortalsoulsmothererpersonindividualsomeonesomebodymortalsoulstigmaticpersonindividualsomeonesomebodymortalsoulstigmatistpersonindividualsomeonesomebodymortalsoulstooperpersonindividualsomeonesomebodymortalsoulstrangerpersonindividualsomeonesomebodymortalsoulstrugglerpersonindividualsomeonesomebodymortalsoulsubjectpersonindividualsomeonesomebodymortalsoulcasepersonindividualsomeonesomebodymortalsoulguinea_pigpersonindividualsomeonesomebodymortalsoulsupernumerarypersonindividualsomeonesomebodymortalsoulsurrendererpersonindividualsomeonesomebodymortalsoulyielderpersonindividualsomeonesomebodymortalsoulsurvivalistpersonindividualsomeonesomebodymortalsoulsurvivorpersonindividualsomeonesomebodymortalsoulsuspectpersonindividualsomeonesomebodymortalsoultaggerpersonindividualsomeonesomebodymortalsoultaggerpersonindividualsomeonesomebodymortalsoultapperpersonindividualsomeonesomebodymortalsoulTauruspersonindividualsomeonesomebodymortalsoulBullpersonindividualsomeonesomebodymortalsoultempterpersonindividualsomeonesomebodymortalsoultermerpersonindividualsomeonesomebodymortalsoulterrorpersonindividualsomeonesomebodymortalsoulscourgepersonindividualsomeonesomebodymortalsoulthreatpersonindividualsomeonesomebodymortalsoultestatorpersonindividualsomeonesomebodymortalsoultestatepersonindividualsomeonesomebodymortalsoulthin_personpersonindividualsomeonesomebodymortalsoulskin_and_bonespersonindividualsomeonesomebodymortalsoulscragpersonindividualsomeonesomebodymortalsoulthird-raterpersonindividualsomeonesomebodymortalsoulthrowerpersonindividualsomeonesomebodymortalsoultigerpersonindividualsomeonesomebodymortalsoultotemistpersonindividualsomeonesomebodymortalsoultoucherpersonindividualsomeonesomebodymortalsoultransferpersonindividualsomeonesomebodymortalsoultransfereepersonindividualsomeonesomebodymortalsoultranssexualpersonindividualsomeonesomebodymortalsoultransexualpersonindividualsomeonesomebodymortalsoultransvestitepersonindividualsomeonesomebodymortalsoulcross-dresserpersonindividualsomeonesomebodymortalsoultravelerpersonindividualsomeonesomebodymortalsoultravellerpersonindividualsomeonesomebodymortalsoultrierpersonindividualsomeonesomebodymortalsoulattempterpersonindividualsomeonesomebodymortalsoulessayerpersonindividualsomeonesomebodymortalsoulturnerpersonindividualsomeonesomebodymortalsoultyrantpersonindividualsomeonesomebodymortalsoulundoerpersonindividualsomeonesomebodymortalsoulopenerpersonindividualsomeonesomebodymortalsoulunfastenerpersonindividualsomeonesomebodymortalsouluntierpersonindividualsomeonesomebodymortalsoulunfortunatepersonindividualsomeonesomebodymortalsoulunfortunate_personpersonindividualsomeonesomebodymortalsoulunskilled_personpersonindividualsomeonesomebodymortalsoulunwelcome_personpersonindividualsomeonesomebodymortalsoulpersona_non_gratapersonindividualsomeonesomebodymortalsouluserpersonindividualsomeonesomebodymortalsoulvanisherpersonindividualsomeonesomebodymortalsoulvictimpersonindividualsomeonesomebodymortalsouldupepersonindividualsomeonesomebodymortalsoulVictorianpersonindividualsomeonesomebodymortalsoulVirgopersonindividualsomeonesomebodymortalsoulVirginpersonindividualsomeonesomebodymortalsoulvisionarypersonindividualsomeonesomebodymortalsoulvisually_impaired_personpersonindividualsomeonesomebodymortalsoulwaiterpersonindividualsomeonesomebodymortalsoulwakerpersonindividualsomeonesomebodymortalsoulwalk-inpersonindividualsomeonesomebodymortalsoulwanterpersonindividualsomeonesomebodymortalsoulneederpersonindividualsomeonesomebodymortalsoulwardpersonindividualsomeonesomebodymortalsoulwarriorpersonindividualsomeonesomebodymortalsoulwatcherpersonindividualsomeonesomebodymortalsoulweaklingpersonindividualsomeonesomebodymortalsouldoormatpersonindividualsomeonesomebodymortalsoulwusspersonindividualsomeonesomebodymortalsoulweaselpersonindividualsomeonesomebodymortalsoulWhitepersonindividualsomeonesomebodymortalsoulWhite_personpersonindividualsomeonesomebodymortalsoulCaucasianpersonindividualsomeonesomebodymortalsoulwigglerpersonindividualsomeonesomebodymortalsoulwrigglerpersonindividualsomeonesomebodymortalsoulsquirmerpersonindividualsomeonesomebodymortalsoulwinkerpersonindividualsomeonesomebodymortalsoulwithholderpersonindividualsomeonesomebodymortalsoulwitnesspersonindividualsomeonesomebodymortalsoulworkerpersonindividualsomeonesomebodymortalsoulworldlingpersonindividualsomeonesomebodymortalsoulyawner
p13
sS'label'
p14
S'person'
p15
sS'range'
p16
S'Person '
p17
sS'uniq_subjs'
p18
S'3726'
p19
sS'uniq_objs'
p20
I0
sS'prop_uri'
p21
S'http://dbpedia.org/ontology/person'
p22
sS'annotations'
p23
(dp24
S'bag_of_words'
p25
(lp26
S'Person'
p27
aS'Function'
p28
aS'person'
p29
aS'Person'
p30
aS'43154001'
p31
asS'chunk_seq'
p32
(lp33
S'B-NP'
p34
aS'I-NP'
p35
aS'I-NP'
p36
aS'E-NP'
p37
aS'S-ADJP'
p38
asS'dep_seq'
p39
(lp40
(lp41
S'nn'
p42
aS'4'
aS'1'
aa(lp43
S'nn'
p44
aS'4'
aS'2'
aa(lp45
S'nn'
p46
aS'4'
aS'3'
aa(lp47
S'root'
p48
aS'0'
aS'4'
aa(lp49
S'punct'
p50
aS'4'
aS'5'
aasS'srls'
p51
(lp52
sS'pos_seq'
p53
(lp54
S'NN'
p55
aS'NN'
p56
aS'NN'
p57
aS'NN'
p58
aS'.'
asS'ner_seq'
p59
(lp60
S'O'
aS'O'
aS'O'
aS'O'
aS'O'
assb.