ccopy_reg
_reconstructor
p1
(c__main__
KBproperty
p2
c__builtin__
object
p3
NtRp4
(dp5
S'comment'
p6
S'Print / On-line then binding types etc. if relevant2065617445'
p7
sS'domain'
p8
S'Written Work '
p9
sS'instances_count'
p10
I144
sS'phrases'
p11
NsS'syn_hypo'
p12
S''
sS'label'
p13
S'media type'
p14
sS'range'
p15
S''
sS'uniq_subjs'
p16
S'144'
p17
sS'uniq_objs'
p18
I0
sS'prop_uri'
p19
S'http://dbpedia.org/ontology/mediaType'
p20
sS'annotations'
p21
(dp22
S'bag_of_words'
p23
(lp24
S'Written'
p25
aS'Work'
p26
aS'media'
p27
aS'type'
p28
aS'Print'
p29
aS'/'
aS'On-line'
p30
aS'then'
p31
aS'binding'
p32
aS'types'
p33
aS'etc.'
p34
aS'if'
p35
aS'relevant2065617445'
p36
asS'chunk_seq'
p37
(lp38
S'B-NP'
p39
aS'I-NP'
p40
aS'I-NP'
p41
aS'I-NP'
p42
aS'I-NP'
p43
aS'I-NP'
p44
aS'I-NP'
p45
aS'I-NP'
p46
aS'I-NP'
p47
aS'E-NP'
p48
aS'S-ADVP'
p49
aS'S-SBAR'
p50
aS'S-NP'
p51
asS'dep_seq'
p52
(lp53
(lp54
S'nn'
p55
aS'10'
p56
aS'1'
aa(lp57
S'nn'
p58
aS'10'
p59
aS'2'
aa(lp60
S'nn'
p61
aS'10'
p62
aS'3'
aa(lp63
S'nn'
p64
aS'10'
p65
aS'4'
aa(lp66
S'nn'
p67
aS'10'
p68
aS'5'
aa(lp69
S'punct'
p70
aS'10'
p71
aS'6'
aa(lp72
S'amod'
p73
aS'10'
p74
aS'line'
p75
aa(lp76
S'advmod'
p77
aS'10'
p78
aS'8'
aa(lp79
S'amod'
p80
aS'10'
p81
aS'9'
aa(lp82
S'dep'
p83
aS'13'
p84
aS'10'
p85
aa(lp86
S'advmod'
p87
aS'13'
p88
aS'11'
p89
aa(lp90
S'dep'
p91
aS'13'
p92
aS'12'
p93
aa(lp94
S'root'
p95
aS'0'
aS'13'
p96
aasS'srls'
p97
(lp98
(dp99
S'A0'
p100
S'Written Work media type Print / On-line types'
p101
sS'AM-TMP'
p102
g31
sS'V'
g32
sasS'pos_seq'
p103
(lp104
S'NNP'
p105
aS'NNP'
p106
aS'NNS'
p107
aS'NN'
p108
aS'NN'
p109
aS':'
aS'JJ'
p110
aS'RB'
p111
aS'VBG'
p112
aS'NNS'
p113
aS'RB'
p114
aS'IN'
p115
aS'NN'
p116
asS'ner_seq'
p117
(lp118
S'O'
aS'O'
aS'O'
aS'O'
aS'O'
aS'O'
aS'O'
aS'O'
aS'O'
aS'O'
aS'O'
aS'O'
aS'O'
assb.