ccopy_reg
_reconstructor
p1
(c__main__
KBproperty
p2
c__builtin__
object
p3
NtRp4
(dp5
S'comment'
p6
S'6262'
p7
sS'domain'
p8
S'Architectural Structure '
p9
sS'instances_count'
p10
I52
sS'phrases'
p11
NsS'syn_hypo'
p12
S''
sS'label'
p13
S'building end year'
p14
sS'range'
p15
S'g Year '
p16
sS'uniq_subjs'
p17
S'52'
p18
sS'uniq_objs'
p19
I0
sS'prop_uri'
p20
S'http://dbpedia.org/ontology/buildingEndYear'
p21
sS'annotations'
p22
(dp23
S'bag_of_words'
p24
(lp25
S'Architectural'
p26
aS'Structure'
p27
aS'building'
p28
aS'end'
p29
aS'year'
p30
aS'g'
aS'Year'
p31
aS'6262'
p32
asS'chunk_seq'
p33
(lp34
S'B-NP'
p35
aS'I-NP'
p36
aS'I-NP'
p37
aS'I-NP'
p38
aS'I-NP'
p39
aS'I-NP'
p40
aS'I-NP'
p41
aS'E-NP'
p42
asS'dep_seq'
p43
(lp44
(lp45
S'nn'
p46
aS'2'
aS'1'
aa(lp47
S'root'
p48
aS'0'
aS'2'
aa(lp49
S'partmod'
p50
aS'2'
aS'3'
aa(lp51
S'nn'
p52
aS'5'
aS'4'
aa(lp53
S'dobj'
p54
aS'3'
aS'5'
aa(lp55
S'tmod'
p56
aS'3'
aS'5'
aa(lp57
S'nn'
p58
aS'7'
aS'6'
aa(lp59
S'tmod'
p60
aS'3'
aS'7'
aa(lp61
S'dep'
p62
aS'2'
aS'8'
aasS'srls'
p63
(lp64
sS'pos_seq'
p65
(lp66
S'NNP'
p67
aS'NNP'
p68
aS'VBG'
p69
aS'NN'
p70
aS'NN'
p71
aS'NN'
p72
aS'NN'
p73
aS'NN'
p74
asS'ner_seq'
p75
(lp76
S'O'
aS'O'
aS'O'
aS'O'
aS'O'
aS'O'
aS'O'
aS'O'
assb.