ccopy_reg
_reconstructor
p1
(c__main__
KBproperty
p2
c__builtin__
object
p3
NtRp4
(dp5
S'comment'
p6
S'A reporting mark is a two- three- or four-letter alphabetic code used to identify owners or lessees of rolling stock and other equipment used on the North American railroad network.194194'
p7
sS'domain'
p8
S'Public Transit System '
p9
sS'instances_count'
p10
I194
sS'phrases'
p11
NsS'syn_hypo'
p12
S''
sS'label'
p13
S'reporting mark'
p14
sS'range'
p15
S'string '
p16
sS'uniq_subjs'
p17
S'192'
p18
sS'uniq_objs'
p19
I0
sS'prop_uri'
p20
S'http://dbpedia.org/ontology/reportingMark'
p21
sS'annotations'
p22
(dp23
S'bag_of_words'
p24
(lp25
S'Public'
p26
aS'Transit'
p27
aS'System'
p28
aS'reporting'
p29
aS'mark'
p30
aS'string'
p31
aS'A'
aS'reporting'
p32
aS'mark'
p33
aS'is'
p34
aS'a'
aS'two-'
p35
aS'three-'
p36
aS'or'
p37
aS'four-'
p38
aS'letter'
p39
aS'alphabetic'
p40
aS'code'
p41
aS'used'
p42
aS'to'
p43
aS'identify'
p44
aS'owners'
p45
aS'or'
p46
aS'lessees'
p47
aS'of'
p48
aS'rolling'
p49
aS'stock'
p50
aS'and'
p51
aS'other'
p52
aS'equipment'
p53
aS'used'
p54
aS'on'
p55
aS'the'
p56
aS'North'
p57
aS'American'
p58
aS'railroad'
p59
aS'network.194194'
p60
asS'chunk_seq'
p61
(lp62
S'B-NP'
p63
aS'I-NP'
p64
aS'E-NP'
p65
aS'S-VP'
p66
aS'B-NP'
p67
aS'E-NP'
p68
aS'B-NP'
p69
aS'I-NP'
p70
aS'E-NP'
p71
aS'S-VP'
p72
aS'B-NP'
p73
aS'I-NP'
p74
aS'I-NP'
p75
aS'I-NP'
p76
aS'I-NP'
p77
aS'I-NP'
p78
aS'I-NP'
p79
aS'E-NP'
p80
aS'S-VP'
p81
aS'B-VP'
p82
aS'E-VP'
p83
aS'S-NP'
p84
aS'O'
aS'S-NP'
p85
aS'S-PP'
p86
aS'B-NP'
p87
aS'E-NP'
p88
aS'O'
aS'B-NP'
p89
aS'E-NP'
p90
aS'S-VP'
p91
aS'S-PP'
p92
aS'B-NP'
p93
aS'I-NP'
p94
aS'I-NP'
p95
aS'I-NP'
p96
aS'E-NP'
p97
asS'dep_seq'
p98
(lp99
(lp100
S'nn'
p101
aS'3'
aS'1'
aa(lp102
S'nn'
p103
aS'3'
aS'2'
aa(lp104
S'nsubj'
p105
aS''
aS'3'
aa(lp106
S'partmod'
p107
aS'3'
aS'4'
aa(lp108
S'nn'
p109
aS'6'
aS'5'
aa(lp110
S'iobj'
p111
aS'4'
aS'6'
aa(lp112
S'det'
p113
aS'9'
aS'7'
aa(lp114
S'nn'
p115
aS'9'
aS'8'
aa(lp116
S'dobj'
p117
aS'4'
aS'9'
aa(lp118
S'cop'
p119
aS''
aS'10'
p120
aa(lp121
S'det'
p122
aS''
aS'11'
p123
aa(lp124
S'amod'
p125
aS''
aS''
aa(lp126
S'root'
p127
aS'0'
aS''
aa(lp128
S'amod'
p129
aS'18'
p130
aS''
aa(lp131
S'nn'
p132
aS'18'
p133
aS'16'
p134
aa(lp135
S'amod'
p136
aS'18'
p137
aS'17'
p138
aa(lp139
S'conj_or'
p140
aS''
aS'18'
p141
aa(lp142
S'partmod'
p143
aS''
aS'19'
p144
aa(lp145
S'aux'
p146
aS'21'
p147
aS'20'
p148
aa(lp149
S'xcomp'
p150
aS'19'
p151
aS'21'
p152
aa(lp153
S'dobj'
p154
aS'21'
p155
aS'22'
p156
aa(lp157
S'conj_or'
p158
aS'22'
p159
aS'24'
p160
aa(lp161
S'amod'
p162
aS'27'
p163
aS'26'
p164
aa(lp165
S'prep_of'
p166
aS'24'
p167
aS'27'
p168
aa(lp169
S'amod'
p170
aS'30'
p171
aS'29'
p172
aa(lp173
S'conj_and'
p174
aS'27'
p175
aS'30'
p176
aa(lp177
S'partmod'
p178
aS'27'
p179
aS'31'
p180
aa(lp181
S'det'
p182
aS'37'
p183
aS'33'
p184
aa(lp185
S'amod'
p186
aS'35'
p187
aS'34'
p188
aa(lp189
S'amod'
p190
aS'37'
p191
aS'35'
p192
aa(lp193
S'nn'
p194
aS'37'
p195
aS'36'
p196
aa(lp197
S'prep_on'
p198
aS'31'
p199
aS'37'
p200
aasS'srls'
p201
(lp202
(dp203
S'A1'
p204
S'mark string A reporting mark is a two- three- or four- letter alphabetic code used to identify owners or lessees of rolling stock and other equipment used on the North American railroad network.194194'
p205
sS'A0'
p206
S'Public Transit System'
p207
sS'V'
g29
sa(dp208
S'A2'
p209
S'to identify owners or lessees of rolling stock'
p210
sS'V'
g42
sa(dp211
S'A1'
p212
S'owners or lessees of rolling stock and other equipment used on the North American railroad network.194194'
p213
sS'A0'
p214
S'alphabetic code'
p215
sS'V'
g44
sS'AM-MOD'
p216
g42
sa(dp217
S'A1'
p218
g50
sS'V'
g49
sa(dp219
S'A1'
p220
S'other equipment'
p221
sS'AM-LOC'
p222
S'on the North American railroad network.194194'
p223
sS'V'
g54
sasS'pos_seq'
p224
(lp225
S'NNP'
p226
aS'NNP'
p227
aS'NNP'
p228
aS'VBG'
p229
aS'NN'
p230
aS'NN'
p231
aS'DT'
p232
aS'NN'
p233
aS'NN'
p234
aS'VBZ'
p235
aS'DT'
p236
aS'JJ'
p237
aS'NN'
p238
aS'CC'
p239
aS'JJ'
p240
aS'NN'
p241
aS'JJ'
p242
aS'NN'
p243
aS'VBN'
p244
aS'TO'
p245
aS'VB'
p246
aS'NNS'
p247
aS'CC'
p248
aS'NNS'
p249
aS'IN'
p250
aS'VBG'
p251
aS'NN'
p252
aS'CC'
p253
aS'JJ'
p254
aS'NN'
p255
aS'VBN'
p256
aS'IN'
p257
aS'DT'
p258
aS'JJ'
p259
aS'JJ'
p260
aS'NN'
p261
aS'NN'
p262
asS'ner_seq'
p263
(lp264
S'B-ORG'
p265
aS'I-ORG'
p266
aS'E-ORG'
p267
aS'O'
aS'O'
aS'O'
aS'O'
aS'O'
aS'O'
aS'O'
aS'O'
aS'O'
aS'O'
aS'O'
aS'O'
aS'O'
aS'O'
aS'O'
aS'O'
aS'O'
aS'O'
aS'O'
aS'O'
aS'O'
aS'O'
aS'O'
aS'O'
aS'O'
aS'O'
aS'O'
aS'O'
aS'O'
aS'O'
aS'B-MISC'
p268
aS'E-MISC'
p269
aS'O'
aS'O'
assb.