ccopy_reg
_reconstructor
p1
(c__main__
KBproperty
p2
c__builtin__
object
p3
NtRp4
(dp5
S'comment'
p6
S'1410'
p7
sS'domain'
p8
S'National Collegiate Athletic Association Athlete '
p9
sS'instances_count'
p10
I14
sS'phrases'
p11
NsS'syn_hypo'
p12
S''
sS'label'
p13
S'former highschool'
p14
sS'range'
p15
S'Educational Institution '
p16
sS'uniq_subjs'
p17
S'14'
p18
sS'uniq_objs'
p19
I0
sS'prop_uri'
p20
S'http://dbpedia.org/ontology/formerHighschool'
p21
sS'annotations'
p22
(dp23
S'bag_of_words'
p24
(lp25
S'National'
p26
aS'Collegiate'
p27
aS'Athletic'
p28
aS'Association'
p29
aS'Athlete'
p30
aS'former'
p31
aS'highschool'
p32
aS'Educational'
p33
aS'Institution'
p34
aS'1410'
p35
asS'chunk_seq'
p36
(lp37
S'B-NP'
p38
aS'I-NP'
p39
aS'I-NP'
p40
aS'I-NP'
p41
aS'I-NP'
p42
aS'I-NP'
p43
aS'I-NP'
p44
aS'I-NP'
p45
aS'E-NP'
p46
aS'S-ADVP'
p47
asS'dep_seq'
p48
(lp49
(lp50
S'nn'
p51
aS'5'
aS'1'
aa(lp52
S'nn'
p53
aS'5'
aS'2'
aa(lp54
S'nn'
p55
aS'5'
aS'3'
aa(lp56
S'nn'
p57
aS'5'
aS'4'
aa(lp58
S'dep'
p59
aS'9'
aS'5'
aa(lp60
S'amod'
p61
aS'9'
aS'6'
aa(lp62
S'nn'
p63
aS'9'
aS'7'
aa(lp64
S'nn'
p65
aS'9'
aS'8'
aa(lp66
S'root'
p67
aS'0'
aS'9'
aa(lp68
S'num'
p69
aS'9'
aS'10'
p70
aasS'srls'
p71
(lp72
sS'pos_seq'
p73
(lp74
S'NNP'
p75
aS'NNP'
p76
aS'NNP'
p77
aS'NNP'
p78
aS'NNP'
p79
aS'JJ'
p80
aS'NN'
p81
aS'NNP'
p82
aS'NNP'
p83
aS'CD'
p84
asS'ner_seq'
p85
(lp86
S'B-ORG'
p87
aS'I-ORG'
p88
aS'I-ORG'
p89
aS'I-ORG'
p90
aS'E-ORG'
p91
aS'O'
aS'O'
aS'B-ORG'
p92
aS'E-ORG'
p93
aS'O'
assb.