ccopy_reg
_reconstructor
p1
(c__main__
KBproperty
p2
c__builtin__
object
p3
NtRp4
(dp5
S'comment'
p6
S'adjacent settlement of a switzerland settlement'
p7
sS'domain'
p8
S'Settlement '
p9
sS'instances_count'
p10
I0
sS'phrases'
p11
NsS'syn_hypo'
p12
S''
sS'label'
p13
g7
sS'range'
p14
S'Settlement '
p15
sS'uniq_subjs'
p16
S'0'
sS'uniq_objs'
p17
I0
sS'prop_uri'
p18
S'http://dbpedia.org/ontology/adjacentSettlement'
p19
sS'annotations'
p20
(dp21
S'bag_of_words'
p22
(lp23
S'Settlement'
p24
aS'adjacent'
p25
aS'Settlement'
p26
aS'Settlement'
p27
aS'adjacent'
p28
aS'settlement'
p29
aS'of'
p30
aS'a'
aS'switzerland'
p31
aS'settlement'
p32
asS'chunk_seq'
p33
(lp34
S'B-NP'
p35
aS'I-NP'
p36
aS'I-NP'
p37
aS'I-NP'
p38
aS'I-NP'
p39
aS'E-NP'
p40
aS'S-PP'
p41
aS'B-NP'
p42
aS'I-NP'
p43
aS'E-NP'
p44
asS'dep_seq'
p45
(lp46
(lp47
S'nn'
p48
aS'6'
aS'1'
aa(lp49
S'amod'
p50
aS'6'
aS'2'
aa(lp51
S'nn'
p52
aS'6'
aS'3'
aa(lp53
S'nn'
p54
aS'6'
aS'4'
aa(lp55
S'amod'
p56
aS'6'
aS'5'
aa(lp57
S'root'
p58
aS'0'
aS'6'
aa(lp59
S'det'
p60
aS'10'
p61
aS'8'
aa(lp62
S'nn'
p63
aS'10'
p64
aS'9'
aa(lp65
S'prep_of'
p66
aS'6'
aS'10'
p67
aasS'srls'
p68
(lp69
sS'pos_seq'
p70
(lp71
S'NN'
p72
aS'JJ'
p73
aS'NN'
p74
aS'NN'
p75
aS'JJ'
p76
aS'NN'
p77
aS'IN'
p78
aS'DT'
p79
aS'NN'
p80
aS'NN'
p81
asS'ner_seq'
p82
(lp83
S'O'
aS'O'
aS'O'
aS'O'
aS'O'
aS'O'
aS'O'
aS'O'
aS'O'
aS'O'
assb.