ccopy_reg
_reconstructor
p1
(c__main__
KBproperty
p2
c__builtin__
object
p3
NtRp4
(dp5
S'comment'
p6
S'00'
p7
sS'domain'
p8
S'Populated Place '
p9
sS'instances_count'
p10
I0
sS'phrases'
p11
NsS'syn_hypo'
p12
S''
sS'label'
p13
S'human development index as of'
p14
sS'range'
p15
S'date '
p16
sS'uniq_subjs'
p17
S'0'
sS'uniq_objs'
p18
I0
sS'prop_uri'
p19
S'http://dbpedia.org/ontology/humanDevelopmentIndexAsOf'
p20
sS'annotations'
p21
(dp22
S'bag_of_words'
p23
(lp24
S'Populated'
p25
aS'Place'
p26
aS'human'
p27
aS'development'
p28
aS'index'
p29
aS'as'
p30
aS'of'
p31
aS'date'
p32
aS'00'
p33
asS'chunk_seq'
p34
(lp35
S'B-NP'
p36
aS'I-NP'
p37
aS'I-NP'
p38
aS'I-NP'
p39
aS'E-NP'
p40
aS'S-PP'
p41
aS'S-PP'
p42
aS'S-NP'
p43
aS'O'
asS'dep_seq'
p44
(lp45
(lp46
S'amod'
p47
aS'5'
aS'1'
aa(lp48
S'nn'
p49
aS'5'
aS'2'
aa(lp50
S'amod'
p51
aS'5'
aS'3'
aa(lp52
S'nn'
p53
aS'5'
aS'4'
aa(lp54
S'root'
p55
aS'0'
aS'5'
aa(lp56
S'prepc_as_of'
p57
aS'5'
aS'7'
aa(lp58
S'pobj'
p59
aS'5'
aS'8'
aa(lp60
S'pobj'
p61
aS'5'
aS'9'
aasS'srls'
p62
(lp63
sS'pos_seq'
p64
(lp65
S'VBN'
p66
aS'NNP'
p67
aS'JJ'
p68
aS'NN'
p69
aS'NN'
p70
aS'IN'
p71
aS'IN'
p72
aS'NN'
p73
aS'CD'
p74
asS'ner_seq'
p75
(lp76
S'O'
aS'O'
aS'O'
aS'O'
aS'O'
aS'O'
aS'O'
aS'O'
aS'O'
assb.