ccopy_reg
_reconstructor
p1
(c__main__
KBproperty
p2
c__builtin__
object
p3
NtRp4
(dp5
S'comment'
p6
S'is part of literal'
p7
sS'domain'
p8
S''
sS'instances_count'
p9
I897
sS'phrases'
p10
NsS'syn_hypo'
p11
S''
sS'label'
p12
g7
sS'range'
p13
S'string '
p14
sS'uniq_subjs'
p15
S'897'
p16
sS'uniq_objs'
p17
I0
sS'prop_uri'
p18
S'http://dbpedia.org/ontology/isPartOfName'
p19
sS'annotations'
p20
(dp21
S'bag_of_words'
p22
(lp23
S'is'
p24
aS'Part'
p25
aS'Of'
p26
aS'Name'
p27
aS'string'
p28
aS'is'
p29
aS'part'
p30
aS'of'
p31
aS'literal'
p32
asS'chunk_seq'
p33
(lp34
S'S-VP'
p35
aS'S-NP'
p36
aS'S-PP'
p37
aS'B-NP'
p38
aS'E-NP'
p39
aS'S-VP'
p40
aS'S-NP'
p41
aS'S-PP'
p42
aS'S-ADJP'
p43
asS'dep_seq'
p44
(lp45
(lp46
S'root'
p47
aS'0'
aS'1'
aa(lp48
S'nsubj'
p49
aS'7'
aS'2'
aa(lp50
S'nn'
p51
aS'5'
aS'4'
aa(lp52
S'prep_of'
p53
aS'2'
aS'5'
aa(lp54
S'cop'
p55
aS'7'
aS'6'
aa(lp56
S'ccomp'
p57
aS'1'
aS'7'
aa(lp58
S'prep_of'
p59
aS'7'
aS'9'
aasS'srls'
p60
(lp61
sS'pos_seq'
p62
(lp63
S'VBZ'
p64
aS'NNP'
p65
aS'IN'
p66
aS'NN'
p67
aS'NN'
p68
aS'VBZ'
p69
aS'NN'
p70
aS'IN'
p71
aS'JJ'
p72
asS'ner_seq'
p73
(lp74
S'O'
aS'O'
aS'B-MISC'
p75
aS'E-MISC'
p76
aS'O'
aS'O'
aS'O'
aS'O'
aS'O'
assb.