ccopy_reg
_reconstructor
p1
(c__main__
KBproperty
p2
c__builtin__
object
p3
NtRp4
(dp5
S'comment'
p6
S'00'
p7
sS'domain'
p8
S'Person '
p9
sS'instances_count'
p10
I0
sS'phrases'
p11
NsS'syn_hypo'
p12
VAmerican_saddle_horsesaddle_horseriding_horsemountAppaloosasaddle_horseriding_horsemountArabiansaddle_horseriding_horsemountArabsaddle_horseriding_horsemountbuckskinsaddle_horseriding_horsemountcow_ponysaddle_horseriding_horsemountcrowbaitsaddle_horseriding_horsemountcrow-baitsaddle_horseriding_horsemountdunsaddle_horseriding_horsemountgreysaddle_horseriding_horsemountgraysaddle_horseriding_horsemounthacksaddle_horseriding_horsemountLippizansaddle_horseriding_horsemountLipizzansaddle_horseriding_horsemountLippizanersaddle_horseriding_horsemountMorgansaddle_horseriding_horsemountpalfreysaddle_horseriding_horsemountprancersaddle_horseriding_horsemountquarter_horsesaddle_horseriding_horsemountremountsaddle_horseriding_horsemountTennessee_walkersaddle_horseriding_horsemountTennessee_walking_horsesaddle_horseriding_horsemountWalking_horsesaddle_horseriding_horsemountPlantation_walking_horsesaddle_horseriding_horsemountwarhorse
p13
sS'label'
p14
S'mount'
p15
sS'range'
p16
S'string '
p17
sS'uniq_subjs'
p18
S'0'
sS'uniq_objs'
p19
I0
sS'prop_uri'
p20
S'http://dbpedia.org/ontology/mount'
p21
sS'annotations'
p22
(dp23
S'bag_of_words'
p24
(lp25
S'Person'
p26
aS'mount'
p27
aS'string'
p28
aS'00'
p29
asS'chunk_seq'
p30
(lp31
S'B-NP'
p32
aS'I-NP'
p33
aS'E-NP'
p34
aS'O'
asS'dep_seq'
p35
(lp36
(lp37
S'nn'
p38
aS'3'
aS'1'
aa(lp39
S'amod'
p40
aS'3'
aS'2'
aa(lp41
S'root'
p42
aS'0'
aS'3'
aa(lp43
S'num'
p44
aS'3'
aS'4'
aasS'srls'
p45
(lp46
sS'pos_seq'
p47
(lp48
S'NN'
p49
aS'JJ'
p50
aS'NN'
p51
aS'CD'
p52
asS'ner_seq'
p53
(lp54
S'O'
aS'O'
aS'O'
aS'O'
assb.