ccopy_reg
_reconstructor
p1
(c__main__
KBproperty
p2
c__builtin__
object
p3
NtRp4
(dp5
S'comment'
p6
S'Described at http://en.wikipedia.org/wiki/International_Designator15831563'
p7
sS'domain'
p8
S''
sS'instances_count'
p9
I1576
sS'phrases'
p10
NsS'syn_hypo'
p11
S''
sS'label'
p12
S'COSPAR id'
p13
sS'range'
p14
S'string '
p15
sS'uniq_subjs'
p16
S'1576'
p17
sS'uniq_objs'
p18
I0
sS'prop_uri'
p19
S'http://dbpedia.org/ontology/cosparId'
p20
sS'annotations'
p21
(dp22
S'bag_of_words'
p23
(lp24
S'COSPAR'
p25
aS'id'
p26
aS'string'
p27
aS'Described'
p28
aS'at'
p29
aS'http'
p30
aS':'
aS'//'
p31
aS'en'
p32
aS'.'
aS'wikipedia'
p33
aS'.org'
p34
aS'/'
aS'wiki'
p35
aS'/I'
p36
aS'nternational'
p37
aS'_'
aS'Designator15831563'
p38
asS'chunk_seq'
p39
(lp40
S'B-NP'
p41
aS'I-NP'
p42
aS'E-NP'
p43
aS'S-VP'
p44
aS'S-PP'
p45
aS'S-NP'
p46
aS'O'
aS'O'
aS'O'
aS'O'
aS'O'
aS'O'
aS'O'
aS'O'
aS'O'
aS'O'
aS'O'
aS'O'
asS'dep_seq'
p47
(lp48
(lp49
S'nn'
p50
aS'3'
aS'1'
aa(lp51
S'nn'
p52
aS'3'
aS'2'
aa(lp53
S'root'
p54
aS'0'
aS'3'
aa(lp55
S'partmod'
p56
aS'3'
aS'4'
aa(lp57
S'prep_at'
p58
aS'4'
aS'6'
aa(lp59
S'nn'
p60
aS'18'
p61
aS'8'
aa(lp62
S'nn'
p63
aS'18'
p64
aS'9'
aa(lp65
S'nn'
p66
aS'18'
p67
aS'11'
p68
aa(lp69
S'nn'
p70
aS'18'
p71
aS'12'
p72
aa(lp73
S'nn'
p74
aS'18'
p75
aS'13'
p76
aa(lp77
S'nn'
p78
aS'18'
p79
aS'14'
p80
aa(lp81
S'nn'
p82
aS'18'
p83
aS'15'
p84
aa(lp85
S'nn'
p86
aS'18'
p87
aS'16'
p88
aa(lp89
S'nn'
p90
aS'18'
p91
aS'17'
p92
aa(lp93
S'dep'
p94
aS'4'
aS'18'
p95
aasS'srls'
p96
(lp97
(dp98
S'A1'
p99
S'COSPAR id string'
p100
sS'AM-LOC'
p101
S'at http : // en . wikipedia .org / wiki /I nternational _ Designator15831563'
p102
sS'V'
g28
sasS'pos_seq'
p103
(lp104
S'NNP'
p105
aS'NN'
p106
aS'NN'
p107
aS'VBN'
p108
aS'IN'
p109
aS'NN'
p110
aS':'
aS'FW'
p111
aS'FW'
p112
aS'FW'
p113
aS'FW'
p114
aS'FW'
p115
aS'FW'
p116
aS'FW'
p117
aS'FW'
p118
aS'FW'
p119
aS'FW'
p120
aS'FW'
p121
asS'ner_seq'
p122
(lp123
S'S-MISC'
p124
aS'O'
aS'O'
aS'O'
aS'O'
aS'O'
aS'O'
aS'O'
aS'O'
aS'O'
aS'O'
aS'O'
aS'O'
aS'O'
aS'O'
aS'O'
aS'O'
aS'S-PER'
p125
assb.