ccopy_reg
_reconstructor
p1
(c__main__
KBproperty
p2
c__builtin__
object
p3
NtRp4
(dp5
S'comment'
p6
S'line of a stop on a route.00'
p7
sS'domain'
p8
S'Route Stop '
p9
sS'instances_count'
p10
I0
sS'phrases'
p11
NsS'syn_hypo'
p12
Vchoruslinechorus_linelinediagonallinelinemenlinelineuplineranklinerivet_linelinerow
p13
sS'label'
p14
S'line'
p15
sS'range'
p16
S''
sS'uniq_subjs'
p17
S'0'
sS'uniq_objs'
p18
I0
sS'prop_uri'
p19
S'http://dbpedia.org/ontology/routeLine'
p20
sS'annotations'
p21
(dp22
S'bag_of_words'
p23
(lp24
S'Route'
p25
aS'Stop'
p26
aS'line'
p27
aS'line'
p28
aS'of'
p29
aS'a'
aS'stop'
p30
aS'on'
p31
aS'a'
aS'route.00'
p32
asS'chunk_seq'
p33
(lp34
S'B-NP'
p35
aS'I-NP'
p36
aS'I-NP'
p37
aS'E-NP'
p38
aS'S-PP'
p39
aS'B-NP'
p40
aS'E-NP'
p41
aS'S-PP'
p42
aS'B-NP'
p43
aS'E-NP'
p44
asS'dep_seq'
p45
(lp46
(lp47
S'nn'
p48
aS'4'
aS'1'
aa(lp49
S'nn'
p50
aS'4'
aS'2'
aa(lp51
S'nn'
p52
aS'4'
aS'3'
aa(lp53
S'root'
p54
aS'0'
aS'4'
aa(lp55
S'det'
p56
aS'7'
aS'6'
aa(lp57
S'prep_of'
p58
aS'4'
aS'7'
aa(lp59
S'det'
p60
aS'10'
p61
aS'9'
aa(lp62
S'prep_on'
p63
aS'4'
aS'10'
p64
aasS'srls'
p65
(lp66
sS'pos_seq'
p67
(lp68
S'NNP'
p69
aS'NNP'
p70
aS'NN'
p71
aS'NN'
p72
aS'IN'
p73
aS'DT'
p74
aS'NN'
p75
aS'IN'
p76
aS'DT'
p77
aS'NN'
p78
asS'ner_seq'
p79
(lp80
S'O'
aS'O'
aS'O'
aS'O'
aS'O'
aS'O'
aS'O'
aS'O'
aS'O'
aS'O'
assb.