ccopy_reg
_reconstructor
p1
(c__main__
KBproperty
p2
c__builtin__
object
p3
NtRp4
(dp5
S'comment'
p6
S'bluecoordinate in the RGB space'
p7
sS'domain'
p8
S'Colour '
p9
sS'instances_count'
p10
I228
sS'phrases'
p11
NsS'syn_hypo'
p12
S''
sS'label'
p13
g7
sS'range'
p14
S'non Negative Integer '
p15
sS'uniq_subjs'
p16
S'228'
p17
sS'uniq_objs'
p18
I0
sS'prop_uri'
p19
S'http://dbpedia.org/ontology/rgbCoordinateBlue'
p20
sS'annotations'
p21
(dp22
S'bag_of_words'
p23
(lp24
S'Colour'
p25
aS'rgb'
p26
aS'Coordinate'
p27
aS'Blue'
p28
aS'non'
p29
aS'Negative'
p30
aS'Integer'
p31
aS'bluecoordinate'
p32
aS'in'
p33
aS'the'
p34
aS'RGB'
p35
aS'space'
p36
asS'chunk_seq'
p37
(lp38
S'B-NP'
p39
aS'I-NP'
p40
aS'I-NP'
p41
aS'I-NP'
p42
aS'I-NP'
p43
aS'I-NP'
p44
aS'I-NP'
p45
aS'E-NP'
p46
aS'S-PP'
p47
aS'B-NP'
p48
aS'I-NP'
p49
aS'E-NP'
p50
asS'dep_seq'
p51
(lp52
(lp53
S'nn'
p54
aS'2'
aS'1'
aa(lp55
S'nsubj'
p56
aS'8'
aS'2'
aa(lp57
S'dep'
p58
aS'8'
aS'3'
aa(lp59
S'nn'
p60
aS'8'
aS'4'
aa(lp61
S'amod'
p62
aS'6'
aS'5'
aa(lp63
S'amod'
p64
aS'8'
aS'6'
aa(lp65
S'nn'
p66
aS'8'
aS'7'
aa(lp67
S'root'
p68
aS'0'
aS'8'
aa(lp69
S'det'
p70
aS'12'
p71
aS'10'
p72
aa(lp73
S'nn'
p74
aS'12'
p75
aS'11'
p76
aa(lp77
S'prep_in'
p78
aS'8'
aS'12'
p79
aasS'srls'
p80
(lp81
sS'pos_seq'
p82
(lp83
S'NN'
p84
aS'NN'
p85
aS'NNP'
p86
aS'NNP'
p87
aS'JJ'
p88
aS'JJ'
p89
aS'NN'
p90
aS'NN'
p91
aS'IN'
p92
aS'DT'
p93
aS'NNP'
p94
aS'NN'
p95
asS'ner_seq'
p96
(lp97
S'O'
aS'O'
aS'B-MISC'
p98
aS'I-MISC'
p99
aS'I-MISC'
p100
aS'I-MISC'
p101
aS'E-MISC'
p102
aS'O'
aS'O'
aS'O'
aS'O'
aS'O'
assb.