ccopy_reg
_reconstructor
p1
(c__main__
KBproperty
p2
c__builtin__
object
p3
NtRp4
(dp5
S'comment'
p6
S'Result of one racer in a sport competition00'
p7
sS'domain'
p8
S'Race '
p9
sS'instances_count'
p10
I0
sS'phrases'
p11
NsS'syn_hypo'
p12
S''
sS'label'
p13
S'race result'
p14
sS'range'
p15
S'Sport Competition Result '
p16
sS'uniq_subjs'
p17
S'0'
sS'uniq_objs'
p18
I0
sS'prop_uri'
p19
S'http://dbpedia.org/ontology/raceResult'
p20
sS'annotations'
p21
(dp22
S'bag_of_words'
p23
(lp24
S'Race'
p25
aS'race'
p26
aS'result'
p27
aS'Sport'
p28
aS'Competition'
p29
aS'Result'
p30
aS'Result'
p31
aS'of'
p32
aS'one'
p33
aS'racer'
p34
aS'in'
p35
aS'a'
aS'sport'
p36
aS'competition00'
p37
asS'chunk_seq'
p38
(lp39
S'B-NP'
p40
aS'I-NP'
p41
aS'I-NP'
p42
aS'I-NP'
p43
aS'I-NP'
p44
aS'I-NP'
p45
aS'E-NP'
p46
aS'S-PP'
p47
aS'B-NP'
p48
aS'E-NP'
p49
aS'S-PP'
p50
aS'B-NP'
p51
aS'I-NP'
p52
aS'E-NP'
p53
asS'dep_seq'
p54
(lp55
(lp56
S'nn'
p57
aS'2'
aS'1'
aa(lp58
S'nsubj'
p59
aS'3'
aS'2'
aa(lp60
S'root'
p61
aS'0'
aS'3'
aa(lp62
S'nn'
p63
aS'5'
aS'4'
aa(lp64
S'nsubj'
p65
aS'6'
aS'5'
aa(lp66
S'ccomp'
p67
aS'3'
aS'6'
aa(lp68
S'dep'
p69
aS'11'
p70
aS'7'
aa(lp71
S'num'
p72
aS'10'
p73
aS'9'
aa(lp74
S'prep_of'
p75
aS'11'
p76
aS'10'
p77
aa(lp78
S'dep'
p79
aS'6'
aS'11'
p80
aa(lp81
S'det'
p82
aS'14'
p83
aS'12'
p84
aa(lp85
S'nn'
p86
aS'14'
p87
aS'13'
p88
aa(lp89
S'pobj'
p90
aS'11'
p91
aS'14'
p92
aasS'srls'
p93
(lp94
(dp95
S'A1'
p96
S'Sport Competition Result Result of one racer in a sport competition00'
p97
sS'A0'
p98
S'Race race'
p99
sS'V'
g27
sasS'pos_seq'
p100
(lp101
S'NN'
p102
aS'NN'
p103
aS'NN'
p104
aS'NNP'
p105
aS'NNP'
p106
aS'NNP'
p107
aS'NNP'
p108
aS'IN'
p109
aS'CD'
p110
aS'NN'
p111
aS'IN'
p112
aS'DT'
p113
aS'NN'
p114
aS'NN'
p115
asS'ner_seq'
p116
(lp117
S'O'
aS'O'
aS'O'
aS'B-MISC'
p118
aS'E-MISC'
p119
aS'O'
aS'O'
aS'O'
aS'O'
aS'O'
aS'O'
aS'O'
aS'O'
aS'O'
assb.