ccopy_reg
_reconstructor
p1
(c__main__
KBproperty
p2
c__builtin__
object
p3
NtRp4
(dp5
S'comment'
p6
S'population percentage female'
p7
sS'domain'
p8
S'Populated Place '
p9
sS'instances_count'
p10
I0
sS'phrases'
p11
NsS'syn_hypo'
p12
S''
sS'label'
p13
g7
sS'range'
p14
S'non Negative Integer '
p15
sS'uniq_subjs'
p16
S'0'
sS'uniq_objs'
p17
I0
sS'prop_uri'
p18
S'http://dbpedia.org/ontology/populationPctWomen'
p19
sS'annotations'
p20
(dp21
S'bag_of_words'
p22
(lp23
S'Populated'
p24
aS'Place'
p25
aS'population'
p26
aS'Pct'
p27
aS'Women'
p28
aS'non'
p29
aS'Negative'
p30
aS'Integer'
p31
aS'population'
p32
aS'percentage'
p33
aS'female'
p34
asS'chunk_seq'
p35
(lp36
S'B-NP'
p37
aS'I-NP'
p38
aS'I-NP'
p39
aS'I-NP'
p40
aS'E-NP'
p41
aS'B-NP'
p42
aS'I-NP'
p43
aS'I-NP'
p44
aS'I-NP'
p45
aS'I-NP'
p46
aS'E-NP'
p47
asS'dep_seq'
p48
(lp49
(lp50
S'amod'
p51
aS'5'
aS'1'
aa(lp52
S'nn'
p53
aS'5'
aS'2'
aa(lp54
S'nn'
p55
aS'5'
aS'3'
aa(lp56
S'nn'
p57
aS'5'
aS'4'
aa(lp58
S'nsubj'
p59
aS'6'
aS'5'
aa(lp60
S'root'
p61
aS'0'
aS'6'
aa(lp62
S'amod'
p63
aS'11'
p64
aS'7'
aa(lp65
S'nn'
p66
aS'11'
p67
aS'8'
aa(lp68
S'nn'
p69
aS'11'
p70
aS'9'
aa(lp71
S'nn'
p72
aS'11'
p73
aS'10'
p74
aa(lp75
S'dobj'
p76
aS'6'
aS'11'
p77
aasS'srls'
p78
(lp79
sS'pos_seq'
p80
(lp81
S'JJ'
p82
aS'NN'
p83
aS'NN'
p84
aS'NNP'
p85
aS'NNP'
p86
aS'VBP'
p87
aS'JJ'
p88
aS'NN'
p89
aS'NN'
p90
aS'NN'
p91
aS'NN'
p92
asS'ner_seq'
p93
(lp94
S'O'
aS'O'
aS'O'
aS'O'
aS'O'
aS'O'
aS'B-MISC'
p95
aS'E-MISC'
p96
aS'O'
aS'O'
aS'O'
assb.