ccopy_reg
_reconstructor
p1
(c__main__
KBproperty
p2
c__builtin__
object
p3
NtRp4
(dp5
S'comment'
p6
S'17381212'
p7
sS'domain'
p8
S''
sS'instances_count'
p9
I594
sS'phrases'
p10
(lp11
S' currency'
p12
aS' pay using\n'
p13
asS'syn_hypo'
p14
Vcashcurrencyhard_cashcurrencyhard_currencycurrencycoinagecurrencymintagecurrencyspeciecurrencymetal_moneycurrencyEurocurrencycurrencyhard_currencycurrencymoneycurrencypaper_moneycurrencyfolding_moneycurrencypaper_currency
p15
sS'label'
p16
S'currency'
p17
sS'range'
p18
S'Currency '
p19
sS'uniq_subjs'
p20
S'594'
p21
sS'uniq_objs'
p22
I0
sS'prop_uri'
p23
S'http://dbpedia.org/ontology/currency'
p24
sS'annotations'
p25
(dp26
S'bag_of_words'
p27
(lp28
S'currency'
p29
aS'Currency'
p30
aS'17381212'
p31
asS'chunk_seq'
p32
(lp33
S'B-NP'
p34
aS'I-NP'
p35
aS'E-NP'
p36
asS'dep_seq'
p37
(lp38
(lp39
S'nn'
p40
aS'3'
aS'1'
aa(lp41
S'nn'
p42
aS'3'
aS'2'
aa(lp43
S'root'
p44
aS'0'
aS'3'
aasS'srls'
p45
(lp46
sS'pos_seq'
p47
(lp48
S'NN'
p49
aS'NN'
p50
aS'NN'
p51
asS'ner_seq'
p52
(lp53
S'O'
aS'O'
aS'O'
assb.