ccopy_reg
_reconstructor
p1
(c__main__
KBproperty
p2
c__builtin__
object
p3
NtRp4
(dp5
S'comment'
p6
S'144924144570'
p7
sS'domain'
p8
S''
sS'instances_count'
p9
I1950
sS'phrases'
p10
NsS'syn_hypo'
p11
S''
sS'label'
p12
S'active years end year'
p13
sS'range'
p14
S'g Year '
p15
sS'uniq_subjs'
p16
S'1950'
p17
sS'uniq_objs'
p18
I0
sS'prop_uri'
p19
S'http://dbpedia.org/ontology/activeYearsEndYear'
p20
sS'annotations'
p21
(dp22
S'bag_of_words'
p23
(lp24
S'active'
p25
aS'years'
p26
aS'end'
p27
aS'year'
p28
aS'g'
aS'Year'
p29
aS'144924144570'
p30
asS'chunk_seq'
p31
(lp32
S'B-NP'
p33
aS'E-NP'
p34
aS'S-VP'
p35
aS'B-NP'
p36
aS'I-NP'
p37
aS'E-NP'
p38
aS'O'
asS'dep_seq'
p39
(lp40
(lp41
S'amod'
p42
aS'2'
aS'1'
aa(lp43
S'nsubj'
p44
aS'3'
aS'2'
aa(lp45
S'root'
p46
aS'0'
aS'3'
aa(lp47
S'dobj'
p48
aS'3'
aS'4'
aa(lp49
S'num'
p50
aS'6'
aS'5'
aa(lp51
S'dep'
p52
aS'4'
aS'6'
aa(lp53
S'num'
p54
aS'6'
aS'7'
aasS'srls'
p55
(lp56
(dp57
S'A1'
p58
S'active years'
p59
sS'A2'
p60
S'year g Year 144924144570'
p61
sS'V'
g27
sasS'pos_seq'
p62
(lp63
S'JJ'
p64
aS'NNS'
p65
aS'VBP'
p66
aS'NN'
p67
aS'CD'
p68
aS'NN'
p69
aS'CD'
p70
asS'ner_seq'
p71
(lp72
S'O'
aS'O'
aS'O'
aS'O'
aS'O'
aS'O'
aS'O'
assb.