ccopy_reg
_reconstructor
p1
(c__main__
KBproperty
p2
c__builtin__
object
p3
NtRp4
(dp5
S'comment'
p6
S'hue coordinate in the HSV colour space'
p7
sS'domain'
p8
S'Colour '
p9
sS'instances_count'
p10
I262
sS'phrases'
p11
NsS'syn_hypo'
p12
S''
sS'label'
p13
g7
sS'range'
p14
S'integer '
p15
sS'uniq_subjs'
p16
S'262'
p17
sS'uniq_objs'
p18
I0
sS'prop_uri'
p19
S'http://dbpedia.org/ontology/hsvCoordinateHue'
p20
sS'annotations'
p21
(dp22
S'bag_of_words'
p23
(lp24
S'Colour'
p25
aS'hsv'
p26
aS'Coordinate'
p27
aS'Hue'
p28
aS'integer'
p29
aS'hue'
p30
aS'coordinate'
p31
aS'in'
p32
aS'the'
p33
aS'HSV'
p34
aS'colour'
p35
aS'space'
p36
asS'chunk_seq'
p37
(lp38
S'B-NP'
p39
aS'I-NP'
p40
aS'I-NP'
p41
aS'I-NP'
p42
aS'I-NP'
p43
aS'E-NP'
p44
aS'S-VP'
p45
aS'S-PP'
p46
aS'B-NP'
p47
aS'I-NP'
p48
aS'I-NP'
p49
aS'E-NP'
p50
asS'dep_seq'
p51
(lp52
(lp53
S'nn'
p54
aS'6'
aS'1'
aa(lp55
S'nn'
p56
aS'6'
aS'2'
aa(lp57
S'nn'
p58
aS'6'
aS'3'
aa(lp59
S'nn'
p60
aS'6'
aS'4'
aa(lp61
S'nn'
p62
aS'6'
aS'5'
aa(lp63
S'nsubj'
p64
aS'7'
aS'6'
aa(lp65
S'root'
p66
aS'0'
aS'7'
aa(lp67
S'det'
p68
aS'12'
p69
aS'9'
aa(lp70
S'nn'
p71
aS'12'
p72
aS'10'
p73
aa(lp74
S'nn'
p75
aS'12'
p76
aS'11'
p77
aa(lp78
S'prep_in'
p79
aS'7'
aS'12'
p80
aasS'srls'
p81
(lp82
(dp83
S'A0'
p84
S'Colour hsv Coordinate Hue integer hue'
p85
sS'AM-LOC'
p86
S'in the HSV colour space'
p87
sS'V'
g31
sasS'pos_seq'
p88
(lp89
S'NNP'
p90
aS'NNP'
p91
aS'NNP'
p92
aS'NNP'
p93
aS'NN'
p94
aS'NN'
p95
aS'VB'
p96
aS'IN'
p97
aS'DT'
p98
aS'NNP'
p99
aS'NN'
p100
aS'NN'
p101
asS'ner_seq'
p102
(lp103
S'O'
aS'O'
aS'B-MISC'
p104
aS'E-MISC'
p105
aS'O'
aS'O'
aS'O'
aS'O'
aS'O'
aS'S-ORG'
p106
aS'O'
aS'O'
assb.