ccopy_reg
_reconstructor
p1
(c__main__
KBproperty
p2
c__builtin__
object
p3
NtRp4
(dp5
S'comment'
p6
S'Reserved for DBpedia.16116741611674'
p7
sS'domain'
p8
S''
sS'instances_count'
p9
I1376974
sS'phrases'
p10
NsS'syn_hypo'
p11
V
sS'label'
p12
S'thumbnail'
p13
sS'range'
p14
S'Image '
p15
sS'uniq_subjs'
p16
S'1376974'
p17
sS'uniq_objs'
p18
I0
sS'prop_uri'
p19
S'http://dbpedia.org/ontology/thumbnail'
p20
sS'annotations'
p21
(dp22
S'bag_of_words'
p23
(lp24
S'thumbnail'
p25
aS'Image'
p26
aS'Reserved'
p27
aS'for'
p28
aS'DBpedia.16116741611674'
p29
asS'chunk_seq'
p30
(lp31
S'B-NP'
p32
aS'E-NP'
p33
aS'S-VP'
p34
aS'S-PP'
p35
aS'S-NP'
p36
asS'dep_seq'
p37
(lp38
(lp39
S'nn'
p40
aS'2'
aS'1'
aa(lp41
S'nsubj'
p42
aS'3'
aS'2'
aa(lp43
S'root'
p44
aS'0'
aS'3'
aa(lp45
S'prep_for'
p46
aS'3'
aS'5'
aasS'srls'
p47
(lp48
(dp49
S'A2'
p50
S'for DBpedia.16116741611674'
p51
sS'V'
g27
sasS'pos_seq'
p52
(lp53
S'NN'
p54
aS'NN'
p55
aS'VBN'
p56
aS'IN'
p57
aS'NNP'
p58
asS'ner_seq'
p59
(lp60
S'O'
aS'O'
aS'O'
aS'O'
aS'S-PER'
p61
assb.