ccopy_reg
_reconstructor
p1
(c__main__
KBproperty
p2
c__builtin__
object
p3
NtRp4
(dp5
S'comment'
p6
S'locality of a switzerland settlement'
p7
sS'domain'
p8
S'Settlement '
p9
sS'instances_count'
p10
I0
sS'phrases'
p11
NsS'syn_hypo'
p12
S''
sS'label'
p13
g7
sS'range'
p14
S'string '
p15
sS'uniq_subjs'
p16
S'0'
sS'uniq_objs'
p17
I0
sS'prop_uri'
p18
S'http://dbpedia.org/ontology/locality'
p19
sS'annotations'
p20
(dp21
S'bag_of_words'
p22
(lp23
S'Settlement'
p24
aS'locality'
p25
aS'string'
p26
aS'locality'
p27
aS'of'
p28
aS'a'
aS'switzerland'
p29
aS'settlement'
p30
asS'chunk_seq'
p31
(lp32
S'B-NP'
p33
aS'I-NP'
p34
aS'I-NP'
p35
aS'E-NP'
p36
aS'S-PP'
p37
aS'B-NP'
p38
aS'I-NP'
p39
aS'E-NP'
p40
asS'dep_seq'
p41
(lp42
(lp43
S'nn'
p44
aS'4'
aS'1'
aa(lp45
S'nn'
p46
aS'4'
aS'2'
aa(lp47
S'nn'
p48
aS'4'
aS'3'
aa(lp49
S'root'
p50
aS'0'
aS'4'
aa(lp51
S'det'
p52
aS'8'
aS'6'
aa(lp53
S'nn'
p54
aS'8'
aS'7'
aa(lp55
S'prep_of'
p56
aS'4'
aS'8'
aasS'srls'
p57
(lp58
sS'pos_seq'
p59
(lp60
S'NN'
p61
aS'NN'
p62
aS'NN'
p63
aS'NN'
p64
aS'IN'
p65
aS'DT'
p66
aS'NN'
p67
aS'NN'
p68
asS'ner_seq'
p69
(lp70
S'O'
aS'O'
aS'O'
aS'O'
aS'O'
aS'O'
aS'O'
aS'O'
assb.