ccopy_reg
_reconstructor
p1
(c__main__
KBproperty
p2
c__builtin__
object
p3
NtRp4
(dp5
S'comment'
p6
S'29622961'
p7
sS'domain'
p8
S'Company '
p9
sS'instances_count'
p10
I2781
sS'phrases'
p11
NsS'syn_hypo'
p12
S''
sS'label'
p13
S'operating income $'
p14
sS'range'
p15
S'double '
p16
sS'uniq_subjs'
p17
S'2781'
p18
sS'uniq_objs'
p19
I0
sS'prop_uri'
p20
S'http://dbpedia.org/ontology/operatingIncome'
p21
sS'annotations'
p22
(dp23
S'bag_of_words'
p24
(lp25
S'Company'
p26
aS'operating'
p27
aS'income'
p28
aS'$'
aS'double'
p29
aS'29622961'
p30
asS'chunk_seq'
p31
(lp32
S'B-NP'
p33
aS'I-NP'
p34
aS'E-NP'
p35
aS'B-NP'
p36
aS'I-NP'
p37
aS'E-NP'
p38
asS'dep_seq'
p39
(lp40
(lp41
S'nn'
p42
aS'3'
aS'1'
aa(lp43
S'amod'
p44
aS'3'
aS'2'
aa(lp45
S'root'
p46
aS'0'
aS'3'
aa(lp47
S'dep'
p48
aS'6'
aS'4'
aa(lp49
S'amod'
p50
aS'6'
aS'5'
aa(lp51
S'dep'
p52
aS'3'
aS'6'
aasS'srls'
p53
(lp54
(dp55
S'A1'
p56
g28
sS'A0'
p57
g26
sS'V'
g27
sasS'pos_seq'
p58
(lp59
S'NN'
p60
aS'VBG'
p61
aS'NN'
p62
aS'$'
aS'JJ'
p63
aS'NN'
p64
asS'ner_seq'
p65
(lp66
S'O'
aS'O'
aS'O'
aS'O'
aS'O'
aS'O'
assb.