ccopy_reg
_reconstructor
p1
(c__main__
KBproperty
p2
c__builtin__
object
p3
NtRp4
(dp5
S'comment'
p6
S"Don't use this use areaCode00"
p7
sS'domain'
p8
S'Populated Place '
p9
sS'instances_count'
p10
I0
sS'phrases'
p11
NsS'syn_hypo'
p12
S''
sS'label'
p13
S'phone prefix'
p14
sS'range'
p15
S'non Negative Integer '
p16
sS'uniq_subjs'
p17
S'0'
sS'uniq_objs'
p18
I0
sS'prop_uri'
p19
S'http://dbpedia.org/ontology/phonePrefix'
p20
sS'annotations'
p21
(dp22
S'bag_of_words'
p23
(lp24
S'Populated'
p25
aS'Place'
p26
aS'phone'
p27
aS'prefix'
p28
aS'non'
p29
aS'Negative'
p30
aS'Integer'
p31
aS'Don'
p32
aS"'t"
p33
aS'use'
p34
aS'this'
p35
aS'use'
p36
aS'areaCode00'
p37
asS'chunk_seq'
p38
(lp39
S'B-NP'
p40
aS'I-NP'
p41
aS'I-NP'
p42
aS'I-NP'
p43
aS'I-NP'
p44
aS'I-NP'
p45
aS'I-NP'
p46
aS'I-NP'
p47
aS'E-NP'
p48
aS'S-VP'
p49
aS'B-NP'
p50
aS'I-NP'
p51
aS'E-NP'
p52
asS'dep_seq'
p53
(lp54
(lp55
S'amod'
p56
aS'4'
aS'1'
aa(lp57
S'nn'
p58
aS'4'
aS'2'
aa(lp59
S'nn'
p60
aS'4'
aS'3'
aa(lp61
S'nsubj'
p62
aS'10'
p63
aS'4'
aa(lp64
S'amod'
p65
aS'9'
aS'5'
aa(lp66
S'amod'
p67
aS'9'
aS'6'
aa(lp68
S'nn'
p69
aS'9'
aS'7'
aa(lp70
S'nn'
p71
aS'9'
aS'8'
aa(lp72
S'nsubj'
p73
aS'10'
p74
aS'9'
aa(lp75
S'root'
p76
aS'0'
aS'10'
p77
aa(lp78
S'det'
p79
aS'13'
p80
aS'11'
p81
aa(lp82
S'nn'
p83
aS'13'
p84
aS'12'
p85
aa(lp86
S'dobj'
p87
aS'10'
p88
aS'13'
p89
aasS'srls'
p90
(lp91
(dp92
S'A1'
p93
S'this use'
p94
sS'A0'
p95
S"Populated Place phone prefix non Negative Integer Don 't"
p96
sS'A2'
p97
g37
sS'V'
g34
sasS'pos_seq'
p98
(lp99
S'JJ'
p100
aS'NN'
p101
aS'NN'
p102
aS'NN'
p103
aS'JJ'
p104
aS'JJ'
p105
aS'NN'
p106
aS'NNP'
p107
aS'NN'
p108
aS'VB'
p109
aS'DT'
p110
aS'NN'
p111
aS'NN'
p112
asS'ner_seq'
p113
(lp114
S'O'
aS'O'
aS'O'
aS'O'
aS'O'
aS'O'
aS'O'
aS'S-PER'
p115
aS'O'
aS'O'
aS'O'
aS'O'
aS'S-PER'
p116
assb.