ccopy_reg
_reconstructor
p1
(c__main__
KBproperty
p2
c__builtin__
object
p3
NtRp4
(dp5
S'comment'
p6
S'Maximum distance to the earth surface to be expressed in kilometers00'
p7
sS'domain'
p8
S'Aircraft '
p9
sS'instances_count'
p10
I0
sS'phrases'
p11
NsS'syn_hypo'
p12
Voverhead
p13
sS'label'
p14
S'ceiling'
p15
sS'range'
p16
S'positive Integer '
p17
sS'uniq_subjs'
p18
S'0'
sS'uniq_objs'
p19
I0
sS'prop_uri'
p20
S'http://dbpedia.org/ontology/ceiling'
p21
sS'annotations'
p22
(dp23
S'bag_of_words'
p24
(lp25
S'Aircraft'
p26
aS'ceiling'
p27
aS'positive'
p28
aS'Integer'
p29
aS'Maximum'
p30
aS'distance'
p31
aS'to'
p32
aS'the'
p33
aS'earth'
p34
aS'surface'
p35
aS'to'
p36
aS'be'
p37
aS'expressed'
p38
aS'in'
p39
aS'kilometers00'
p40
asS'chunk_seq'
p41
(lp42
S'B-NP'
p43
aS'I-NP'
p44
aS'I-NP'
p45
aS'I-NP'
p46
aS'I-NP'
p47
aS'E-NP'
p48
aS'S-PP'
p49
aS'B-NP'
p50
aS'I-NP'
p51
aS'E-NP'
p52
aS'B-VP'
p53
aS'I-VP'
p54
aS'E-VP'
p55
aS'S-PP'
p56
aS'S-NP'
p57
asS'dep_seq'
p58
(lp59
(lp60
S'nn'
p61
aS'6'
aS'1'
aa(lp62
S'nn'
p63
aS'6'
aS'2'
aa(lp64
S'amod'
p65
aS'6'
aS'3'
aa(lp66
S'nn'
p67
aS'6'
aS'4'
aa(lp68
S'nn'
p69
aS'6'
aS'5'
aa(lp70
S'root'
p71
aS'0'
aS'6'
aa(lp72
S'det'
p73
aS'10'
p74
aS'8'
aa(lp75
S'nn'
p76
aS'10'
p77
aS'9'
aa(lp78
S'prep_to'
p79
aS'6'
aS'10'
p80
aa(lp81
S'aux'
p82
aS'13'
p83
aS'11'
p84
aa(lp85
S'auxpass'
p86
aS'13'
p87
aS'12'
p88
aa(lp89
S'infmod'
p90
aS'6'
aS'13'
p91
aa(lp92
S'prep_in'
p93
aS'13'
p94
aS'15'
p95
aasS'srls'
p96
(lp97
(dp98
S'A1'
p99
S'Aircraft ceiling positive Integer Maximum distance to the earth surface'
p100
sS'AM-LOC'
p101
S'in kilometers00'
p102
sS'V'
g38
sasS'pos_seq'
p103
(lp104
S'NN'
p105
aS'NN'
p106
aS'JJ'
p107
aS'NN'
p108
aS'NN'
p109
aS'NN'
p110
aS'TO'
p111
aS'DT'
p112
aS'NN'
p113
aS'NN'
p114
aS'TO'
p115
aS'VB'
p116
aS'VBN'
p117
aS'IN'
p118
aS'NN'
p119
asS'ner_seq'
p120
(lp121
S'O'
aS'O'
aS'O'
aS'O'
aS'O'
aS'O'
aS'O'
aS'O'
aS'O'
aS'O'
aS'O'
aS'O'
aS'O'
aS'O'
aS'O'
assb.