ccopy_reg
_reconstructor
p1
(c__main__
KBproperty
p2
c__builtin__
object
p3
NtRp4
(dp5
S'comment'
p6
S'3320'
p7
sS'domain'
p8
S'Year In Spaceflight '
p9
sS'instances_count'
p10
I33
sS'phrases'
p11
NsS'syn_hypo'
p12
S''
sS'label'
p13
S'country with first astronaut'
p14
sS'range'
p15
S'Country '
p16
sS'uniq_subjs'
p17
S'33'
p18
sS'uniq_objs'
p19
I0
sS'prop_uri'
p20
S'http://dbpedia.org/ontology/countryWithFirstAstronaut'
p21
sS'annotations'
p22
(dp23
S'bag_of_words'
p24
(lp25
S'Year'
p26
aS'In'
p27
aS'Spaceflight'
p28
aS'country'
p29
aS'with'
p30
aS'first'
p31
aS'astronaut'
p32
aS'Country'
p33
aS'3320'
p34
asS'chunk_seq'
p35
(lp36
S'S-NP'
p37
aS'S-PP'
p38
aS'B-NP'
p39
aS'E-NP'
p40
aS'S-PP'
p41
aS'B-NP'
p42
aS'I-NP'
p43
aS'E-NP'
p44
aS'S-ADVP'
p45
asS'dep_seq'
p46
(lp47
(lp48
S'root'
p49
aS'0'
aS'1'
aa(lp50
S'nn'
p51
aS'4'
aS'3'
aa(lp52
S'prep_in'
p53
aS'1'
aS'4'
aa(lp54
S'amod'
p55
aS'8'
aS'6'
aa(lp56
S'nn'
p57
aS'8'
aS'7'
aa(lp58
S'prep_with'
p59
aS'1'
aS'8'
aa(lp60
S'num'
p61
aS'8'
aS'9'
aasS'srls'
p62
(lp63
sS'pos_seq'
p64
(lp65
S'NN'
p66
aS'IN'
p67
aS'NNP'
p68
aS'NN'
p69
aS'IN'
p70
aS'JJ'
p71
aS'NN'
p72
aS'NN'
p73
aS'CD'
p74
asS'ner_seq'
p75
(lp76
S'O'
aS'O'
aS'O'
aS'O'
aS'O'
aS'O'
aS'O'
aS'O'
aS'O'
assb.