ccopy_reg
_reconstructor
p1
(c__main__
KBproperty
p2
c__builtin__
object
p3
NtRp4
(dp5
S'comment'
p6
S'Text of an inscription on the object00'
p7
sS'domain'
p8
S''
sS'instances_count'
p9
I0
sS'phrases'
p10
NsS'syn_hypo'
p11
Vepigraphinscriptionletteringepitaphinscriptionletteringsuperscription
p12
sS'label'
p13
S'inscription'
p14
sS'range'
p15
S'string '
p16
sS'uniq_subjs'
p17
S'0'
sS'uniq_objs'
p18
I0
sS'prop_uri'
p19
S'http://dbpedia.org/ontology/inscription'
p20
sS'annotations'
p21
(dp22
S'bag_of_words'
p23
(lp24
S'inscription'
p25
aS'string'
p26
aS'Text'
p27
aS'of'
p28
aS'an'
p29
aS'inscription'
p30
aS'on'
p31
aS'the'
p32
aS'object00'
p33
asS'chunk_seq'
p34
(lp35
S'B-NP'
p36
aS'I-NP'
p37
aS'E-NP'
p38
aS'S-PP'
p39
aS'B-NP'
p40
aS'E-NP'
p41
aS'S-PP'
p42
aS'B-NP'
p43
aS'E-NP'
p44
asS'dep_seq'
p45
(lp46
(lp47
S'nn'
p48
aS'3'
aS'1'
aa(lp49
S'nn'
p50
aS'3'
aS'2'
aa(lp51
S'root'
p52
aS'0'
aS'3'
aa(lp53
S'det'
p54
aS'6'
aS'5'
aa(lp55
S'prep_of'
p56
aS'3'
aS'6'
aa(lp57
S'det'
p58
aS'9'
aS'8'
aa(lp59
S'prep_on'
p60
aS'6'
aS'9'
aasS'srls'
p61
(lp62
sS'pos_seq'
p63
(lp64
S'NN'
p65
aS'NN'
p66
aS'NNP'
p67
aS'IN'
p68
aS'DT'
p69
aS'NN'
p70
aS'IN'
p71
aS'DT'
p72
aS'NN'
p73
asS'ner_seq'
p74
(lp75
S'O'
aS'O'
aS'O'
aS'O'
aS'O'
aS'O'
aS'O'
aS'O'
aS'O'
assb.