ccopy_reg
_reconstructor
p1
(c__main__
KBproperty
p2
c__builtin__
object
p3
NtRp4
(dp5
S'comment'
p6
S'Scale parameters that can be understood by Geohack eg "type: "scale: "region:" "altitude:". Use "_" for several eg "type:landmark_scale:50000". See https://fr.wikipedia.org/wiki/Mod\\xc3\\xa8le:Infobox_Subdivision_administrative for examples and https://fr.wikipedia.org/wiki/Mod\\xc3\\xa8le:GeoTemplate/Utilisation#La_mention_Type:... for a complete list00'
p7
sS'domain'
p8
S'Place '
p9
sS'instances_count'
p10
I0
sS'phrases'
p11
NsS'syn_hypo'
p12
S''
sS'label'
p13
S'type coordinate'
p14
sS'range'
p15
S'string '
p16
sS'uniq_subjs'
p17
S'0'
sS'uniq_objs'
p18
I0
sS'prop_uri'
p19
S'http://dbpedia.org/ontology/typeCoordinate'
p20
sS'annotations'
p21
(dp22
S'bag_of_words'
p23
(lp24
S'Place'
p25
aS'type'
p26
aS'coordinate'
p27
aS'string'
p28
aS'Scale'
p29
aS'parameters'
p30
aS'that'
p31
aS'can'
p32
aS'be'
p33
aS'understood'
p34
aS'by'
p35
aS'Geohack'
p36
aS'eg'
p37
aS'"'
aS'type'
p38
aS':'
aS'"'
aS'scale'
p39
aS':'
aS'"'
aS'region'
p40
aS':'
aS'"'
aS'"'
aS'altitude'
p41
aS':'
aS'"'
aS'.'
aS'Use'
p42
aS'"'
aS'_'
aS'"'
aS'for'
p43
aS'several'
p44
aS'eg'
p45
aS'"'
aS'type'
p46
aS':'
aS'landmark'
p47
aS'_'
aS'scale'
p48
aS':'
aS'50000'
p49
aS'"'
aS'.'
aS'See'
p50
aS'https'
p51
aS':'
aS'//'
p52
aS'fr.'
p53
aS'wikipedia'
p54
aS'.org'
p55
aS'/'
aS'wiki'
p56
aS'/'
aS'Mod'
p57
aS'\\'
aS'xc3'
p58
aS'\\'
aS'xa8le'
p59
aS':'
aS'Infobox'
p60
aS'_'
aS'Subdivision'
p61
aS'_'
aS'administrative'
p62
aS'for'
p63
aS'examples'
p64
aS'and'
p65
aS'https'
p66
aS':'
aS'//'
p67
aS'fr.'
p68
aS'wikipedia'
p69
aS'.org'
p70
aS'/'
aS'wiki'
p71
aS'/'
aS'Mod'
p72
aS'\\'
aS'xc3'
p73
aS'\\'
aS'xa8le'
p74
aS':'
aS'GeoTemplate'
p75
aS'/'
aS'Utilisation'
p76
aS'#'
aS'La'
p77
aS'_'
aS'mention'
p78
aS'_'
aS'Type'
p79
aS':'
aS'...'
p80
aS'for'
p81
aS'a'
aS'complete'
p82
aS'list00'
p83
asS'chunk_seq'
p84
(lp85
S'B-NP'
p86
aS'I-NP'
p87
aS'I-NP'
p88
aS'I-NP'
p89
aS'I-NP'
p90
aS'E-NP'
p91
aS'S-NP'
p92
aS'B-VP'
p93
aS'I-VP'
p94
aS'E-VP'
p95
aS'S-PP'
p96
aS'B-NP'
p97
aS'I-NP'
p98
aS'I-NP'
p99
aS'E-NP'
p100
aS'O'
aS'B-NP'
p101
aS'E-NP'
p102
aS'O'
aS'B-NP'
p103
aS'E-NP'
p104
aS'O'
aS'B-NP'
p105
aS'I-NP'
p106
aS'E-NP'
p107
aS'O'
aS'O'
aS'O'
aS'O'
aS'O'
aS'O'
aS'O'
aS'S-PP'
p108
aS'B-NP'
p109
aS'I-NP'
p110
aS'I-NP'
p111
aS'E-NP'
p112
aS'O'
aS'B-NP'
p113
aS'I-NP'
p114
aS'E-NP'
p115
aS'O'
aS'B-NP'
p116
aS'E-NP'
p117
aS'O'
aS'S-VP'
p118
aS'S-NP'
p119
aS'O'
aS'O'
aS'O'
aS'O'
aS'O'
aS'O'
aS'O'
aS'O'
aS'O'
aS'O'
aS'O'
aS'O'
aS'O'
aS'O'
aS'O'
aS'O'
aS'O'
aS'O'
aS'O'
aS'S-PP'
p120
aS'S-NP'
p121
aS'O'
aS'S-NP'
p122
aS'O'
aS'O'
aS'O'
aS'O'
aS'O'
aS'O'
aS'O'
aS'O'
aS'O'
aS'O'
aS'O'
aS'O'
aS'O'
aS'O'
aS'S-NP'
p123
aS'O'
aS'O'
aS'O'
aS'O'
aS'O'
aS'O'
aS'O'
aS'O'
aS'O'
aS'O'
aS'S-PP'
p124
aS'B-NP'
p125
aS'I-NP'
p126
aS'E-NP'
p127
asS'dep_seq'
p128
(lp129
(lp130
S'nn'
p131
aS'6'
aS'1'
aa(lp132
S'nn'
p133
aS'6'
aS'2'
aa(lp134
S'dep'
p135
aS'6'
aS'3'
aa(lp136
S'nn'
p137
aS'6'
aS'4'
aa(lp138
S'nn'
p139
aS'6'
aS'5'
aa(lp140
S'root'
p141
aS'0'
aS'6'
aa(lp142
S'nsubjpass'
p143
aS'10'
p144
aS'6'
aa(lp145
S'aux'
p146
aS'10'
p147
aS'8'
aa(lp148
S'auxpass'
p149
aS'10'
p150
aS'9'
aa(lp151
S'rcmod'
p152
aS'6'
aS'10'
p153
aa(lp154
S'nn'
p155
aS'15'
p156
aS'12'
p157
aa(lp158
S'nn'
p159
aS'15'
p160
aS'13'
p161
aa(lp162
S'nn'
p163
aS'15'
p164
aS'14'
p165
aa(lp166
S'agent'
p167
aS'10'
p168
aS'15'
p169
aa(lp170
S'amod'
p171
aS'18'
p172
aS'17'
p173
aa(lp174
S'dep'
p175
aS'15'
p176
aS'18'
p177
aa(lp178
S'amod'
p179
aS'21'
p180
aS'20'
p181
aa(lp182
S'dep'
p183
aS'15'
p184
aS'21'
p185
aa(lp186
S'amod'
p187
aS'25'
p188
aS'23'
p189
aa(lp190
S'amod'
p191
aS'25'
p192
aS'24'
p193
aa(lp194
S'dep'
p195
aS'15'
p196
aS'25'
p197
aa(lp198
S'amod'
p199
aS'25'
p200
aS'27'
p201
aa(lp202
S'dep'
p203
aS'27'
p204
aS'29'
p205
aa(lp206
S'dep'
p207
aS'27'
p208
aS'30'
p209
aa(lp210
S'nn'
p211
aS'25'
p212
aS'31'
p213
aa(lp214
S'dep'
p215
aS'25'
p216
aS'32'
p217
aa(lp218
S'amod'
p219
aS'37'
p220
aS'34'
p221
aa(lp222
S'amod'
p223
aS'37'
p224
aS'35'
p225
aa(lp226
S'amod'
p227
aS'37'
p228
aS'36'
p229
aa(lp230
S'prep_for'
p231
aS'15'
p232
aS'37'
p233
aa(lp234
S'nn'
p235
aS'41'
p236
aS'39'
p237
aa(lp238
S'num'
p239
aS'41'
p240
aS'40'
p241
aa(lp242
S'dep'
p243
aS'37'
p244
aS'41'
p245
aa(lp246
S'num'
p247
aS'44'
p248
aS'43'
p249
aa(lp250
S'dep'
p251
aS'6'
aS'44'
p252
aa(lp253
S'dep'
p254
aS'6'
aS'46'
p255
aa(lp256
S'dep'
p257
aS'6'
aS'47'
p258
aa(lp259
S'nn'
p260
aS'60'
p261
aS'49'
p262
aa(lp263
S'nn'
p264
aS'60'
p265
aS'50'
p266
aa(lp267
S'nn'
p268
aS'60'
p269
aS'51'
p270
aa(lp271
S'nn'
p272
aS'60'
p273
aS'52'
p274
aa(lp275
S'nn'
p276
aS'60'
p277
aS'53'
p278
aa(lp279
S'nn'
p280
aS'60'
p281
aS'54'
p282
aa(lp283
S'nn'
p284
aS'60'
p285
aS'55'
p286
aa(lp287
S'nn'
p288
aS'60'
p289
aS'56'
p290
aa(lp291
S'nn'
p292
aS'60'
p293
aS'57'
p294
aa(lp295
S'nn'
p296
aS'60'
p297
aS'58'
p298
aa(lp299
S'nn'
p300
aS'60'
p301
aS'59'
p302
aa(lp303
S'dep'
p304
aS'47'
p305
aS'60'
p306
aa(lp307
S'dep'
p308
aS'66'
p309
aS'62'
p310
aa(lp311
S'nn'
p312
aS'62'
p313
aS'63'
p314
aa(lp315
S'nn'
p316
aS'62'
p317
aS'64'
p318
aa(lp319
S'dep'
p320
aS'62'
p321
aS'65'
p322
aa(lp323
S'amod'
p324
aS'47'
p325
aS'66'
p326
aa(lp327
S'prep_for'
p328
aS'66'
p329
aS'68'
p330
aa(lp331
S'conj_and'
p332
aS'68'
p333
aS'70'
p334
aa(lp335
S'nn'
p336
aS'83'
p337
aS'72'
p338
aa(lp339
S'nn'
p340
aS'83'
p341
aS'73'
p342
aa(lp343
S'nn'
p344
aS'83'
p345
aS'74'
p346
aa(lp347
S'nn'
p348
aS'83'
p349
aS'75'
p350
aa(lp351
S'nn'
p352
aS'83'
p353
aS'76'
p354
aa(lp355
S'nn'
p356
aS'83'
p357
aS'77'
p358
aa(lp359
S'nn'
p360
aS'83'
p361
aS'78'
p362
aa(lp363
S'nn'
p364
aS'83'
p365
aS'79'
p366
aa(lp367
S'nn'
p368
aS'83'
p369
aS'80'
p370
aa(lp371
S'nn'
p372
aS'83'
p373
aS'81'
p374
aa(lp375
S'nn'
p376
aS'83'
p377
aS'82'
p378
aa(lp379
S'dep'
p380
aS'66'
p381
aS'83'
p382
aa(lp383
S'nn'
p384
aS'93'
p385
aS'85'
p386
aa(lp387
S'punct'
p388
aS'93'
p389
aS'86'
p390
aa(lp391
S'nn'
p392
aS'93'
p393
aS'87'
p394
aa(lp395
S'dep'
p396
aS'92'
p397
aS'88'
p398
aa(lp399
S'dep'
p400
aS'92'
p401
aS'89'
p402
aa(lp403
S'dep'
p404
aS'92'
p405
aS'90'
p406
aa(lp407
S'dep'
p408
aS'92'
p409
aS'91'
p410
aa(lp411
S'num'
p412
aS'93'
p413
aS'92'
p414
aa(lp415
S'dep'
p416
aS'6'
aS'93'
p417
aa(lp418
S'dep'
p419
aS'93'
p420
aS'96'
p421
aa(lp422
S'det'
p423
aS'99'
p424
aS'97'
p425
aa(lp426
S'amod'
p427
aS'99'
p428
aS'98'
p429
aa(lp430
S'pobj'
p431
aS'96'
p432
aS'99'
p433
aasS'srls'
p434
(lp435
(dp436
S'A1'
p437
S'string Scale parameters'
p438
sS'V'
g27
sa(dp439
S'A1'
p440
S'string Scale parameters'
p441
sS'A0'
p442
S'by Geohack eg " type'
p443
sS'V'
g34
sS'R-A1'
p444
g31
sS'AM-MOD'
p445
g32
sa(dp446
S'A1'
p447
S'https : // fr. wikipedia .org / wiki / Mod \\ xc3 \\ xa8le : Infobox _ Subdivision _ administrative for examples and https : // fr. wikipedia .org / wiki / Mod \\ xc3 \\ xa8le : GeoTemplate / Utilisation # La _ mention _ Type : ... for a complete list00'
p448
sS'V'
g50
sasS'pos_seq'
p449
(lp450
S'NN'
p451
aS'NN'
p452
aS'VB'
p453
aS'NN'
p454
aS'NN'
p455
aS'NNS'
p456
aS'WDT'
p457
aS'MD'
p458
aS'VB'
p459
aS'VBN'
p460
aS'IN'
p461
aS'NNP'
p462
aS'FW'
p463
aS'FW'
p464
aS'NN'
p465
aS':'
aS'JJ'
p466
aS'NN'
p467
aS':'
aS'JJ'
p468
aS'NN'
p469
aS':'
aS'JJ'
p470
aS'JJ'
p471
aS'NN'
p472
aS':'
aS'LS'
p473
aS'.'
aS'NNP'
p474
aS'FW'
p475
aS'FW'
p476
aS'FW'
p477
aS'IN'
p478
aS'JJ'
p479
aS'JJ'
p480
aS'JJ'
p481
aS'NN'
p482
aS':'
aS'NN'
p483
aS'CD'
p484
aS'NN'
p485
aS':'
aS'CD'
p486
aS'NN'
p487
aS'.'
aS'VB'
p488
aS'NNS'
p489
aS':'
aS'FW'
p490
aS'FW'
p491
aS'FW'
p492
aS'FW'
p493
aS'FW'
p494
aS'FW'
p495
aS'FW'
p496
aS'FW'
p497
aS'FW'
p498
aS'FW'
p499
aS'FW'
p500
aS'FW'
p501
aS'FW'
p502
aS'FW'
p503
aS'FW'
p504
aS'FW'
p505
aS'FW'
p506
aS'JJ'
p507
aS'IN'
p508
aS'NNS'
p509
aS'CC'
p510
aS'NNS'
p511
aS':'
aS'FW'
p512
aS'FW'
p513
aS'FW'
p514
aS'FW'
p515
aS'FW'
p516
aS'FW'
p517
aS'FW'
p518
aS'FW'
p519
aS'FW'
p520
aS'FW'
p521
aS'FW'
p522
aS'FW'
p523
aS':'
aS'NNP'
p524
aS':'
aS'NN'
p525
aS'FW'
p526
aS'FW'
p527
aS'FW'
p528
aS'FW'
p529
aS'FW'
p530
aS'NNP'
p531
aS':'
aS':'
aS'IN'
p532
aS'DT'
p533
aS'JJ'
p534
aS'NN'
p535
asS'ner_seq'
p536
(lp537
S'O'
aS'O'
aS'O'
aS'O'
aS'O'
aS'O'
aS'O'
aS'O'
aS'O'
aS'O'
aS'O'
aS'S-MISC'
p538
aS'O'
aS'O'
aS'O'
aS'O'
aS'O'
aS'O'
aS'O'
aS'O'
aS'O'
aS'O'
aS'O'
aS'O'
aS'O'
aS'O'
aS'O'
aS'O'
aS'O'
aS'O'
aS'O'
aS'O'
aS'O'
aS'O'
aS'O'
aS'O'
aS'O'
aS'O'
aS'O'
aS'O'
aS'O'
aS'O'
aS'O'
aS'O'
aS'O'
aS'O'
aS'O'
aS'O'
aS'O'
aS'O'
aS'O'
aS'O'
aS'O'
aS'O'
aS'O'
aS'S-MISC'
p539
aS'O'
aS'O'
aS'O'
aS'O'
aS'O'
aS'S-LOC'
p540
aS'O'
aS'O'
aS'O'
aS'O'
aS'O'
aS'O'
aS'O'
aS'O'
aS'O'
aS'O'
aS'O'
aS'O'
aS'O'
aS'O'
aS'O'
aS'O'
aS'S-MISC'
p541
aS'O'
aS'O'
aS'O'
aS'O'
aS'O'
aS'S-LOC'
p542
aS'O'
aS'O'
aS'O'
aS'S-ORG'
p543
aS'O'
aS'O'
aS'O'
aS'O'
aS'O'
aS'O'
aS'O'
aS'O'
aS'O'
aS'O'
assb.