ccopy_reg
_reconstructor
p1
(c__main__
KBproperty
p2
c__builtin__
object
p3
NtRp4
(dp5
S'comment'
p6
S'129129'
p7
sS'domain'
p8
S'Film Festival '
p9
sS'instances_count'
p10
I127
sS'phrases'
p11
NsS'syn_hypo'
p12
S''
sS'label'
p13
S'closing film'
p14
sS'range'
p15
S'Film '
p16
sS'uniq_subjs'
p17
S'127'
p18
sS'uniq_objs'
p19
I0
sS'prop_uri'
p20
S'http://dbpedia.org/ontology/closingFilm'
p21
sS'annotations'
p22
(dp23
S'bag_of_words'
p24
(lp25
S'Film'
p26
aS'Festival'
p27
aS'closing'
p28
aS'film'
p29
aS'Film'
p30
aS'129129'
p31
asS'chunk_seq'
p32
(lp33
S'B-NP'
p34
aS'E-NP'
p35
aS'S-VP'
p36
aS'B-NP'
p37
aS'E-NP'
p38
aS'O'
asS'dep_seq'
p39
(lp40
(lp41
S'nn'
p42
aS'5'
aS'1'
aa(lp43
S'nn'
p44
aS'5'
aS'2'
aa(lp45
S'amod'
p46
aS'5'
aS'3'
aa(lp47
S'nn'
p48
aS'5'
aS'4'
aa(lp49
S'root'
p50
aS'0'
aS'5'
aa(lp51
S'punct'
p52
aS'5'
aS'6'
aasS'srls'
p53
(lp54
(dp55
S'A1'
p56
S'film Film 129129'
p57
sS'A0'
p58
S'Film Festival'
p59
sS'V'
g28
sasS'pos_seq'
p60
(lp61
S'NNP'
p62
aS'NNP'
p63
aS'VBG'
p64
aS'NN'
p65
aS'NNP'
p66
aS'.'
asS'ner_seq'
p67
(lp68
S'B-ORG'
p69
aS'E-ORG'
p70
aS'O'
aS'O'
aS'O'
aS'O'
assb.