ccopy_reg
_reconstructor
p1
(c__main__
KBproperty
p2
c__builtin__
object
p3
NtRp4
(dp5
S'comment'
p6
S'00'
p7
sS'domain'
p8
S'Person '
p9
sS'instances_count'
p10
I0
sS'phrases'
p11
NsS'syn_hypo'
p12
Vgood_humortempermoodhumorhumourgood_humourtempermoodhumorhumourgood_tempertempermoodhumorhumouramiabilitytempermoodhumorhumourill_humortempermoodhumorhumourill_humourtempermoodhumorhumourdistempertempermoodhumorhumourpeevetempermoodhumorhumoursulktempermoodhumorhumoursulkiness
p13
sS'label'
p14
S'mood'
p15
sS'range'
p16
S'string '
p17
sS'uniq_subjs'
p18
S'0'
sS'uniq_objs'
p19
I0
sS'prop_uri'
p20
S'http://dbpedia.org/ontology/mood'
p21
sS'annotations'
p22
(dp23
S'bag_of_words'
p24
(lp25
S'Person'
p26
aS'mood'
p27
aS'string'
p28
aS'00'
p29
asS'chunk_seq'
p30
(lp31
S'B-NP'
p32
aS'I-NP'
p33
aS'E-NP'
p34
aS'S-ADVP'
p35
asS'dep_seq'
p36
(lp37
(lp38
S'nn'
p39
aS'3'
aS'1'
aa(lp40
S'nn'
p41
aS'3'
aS'2'
aa(lp42
S'root'
p43
aS'0'
aS'3'
aa(lp44
S'num'
p45
aS'3'
aS'4'
aasS'srls'
p46
(lp47
sS'pos_seq'
p48
(lp49
S'NN'
p50
aS'NN'
p51
aS'NN'
p52
aS'CD'
p53
asS'ner_seq'
p54
(lp55
S'O'
aS'O'
aS'O'
aS'O'
assb.