ccopy_reg
_reconstructor
p1
(c__main__
KBproperty
p2
c__builtin__
object
p3
NtRp4
(dp5
S'comment'
p6
S'322671321029'
p7
sS'domain'
p8
S''
sS'instances_count'
p9
I50129
sS'phrases'
p10
(lp11
S' population'
p12
aS'how many ; people;stay; in '
p13
aS' people;live;in'
p14
aS' live in'
p15
aS' inhabitants\n'
p16
asS'syn_hypo'
p17
S''
sS'label'
p18
S'population total'
p19
sS'range'
p20
S'non Negative Integer '
p21
sS'uniq_subjs'
p22
S'50129'
p23
sS'uniq_objs'
p24
I0
sS'prop_uri'
p25
S'http://dbpedia.org/ontology/populationTotal'
p26
sS'annotations'
p27
(dp28
S'bag_of_words'
p29
(lp30
S'population'
p31
aS'total'
p32
aS'non'
p33
aS'Negative'
p34
aS'Integer'
p35
aS'322671321029'
p36
asS'chunk_seq'
p37
(lp38
S'B-NP'
p39
aS'I-NP'
p40
aS'I-NP'
p41
aS'I-NP'
p42
aS'I-NP'
p43
aS'E-NP'
p44
asS'dep_seq'
p45
(lp46
(lp47
S'nn'
p48
aS'6'
aS'1'
aa(lp49
S'amod'
p50
aS'6'
aS'2'
aa(lp51
S'amod'
p52
aS'6'
aS'3'
aa(lp53
S'amod'
p54
aS'6'
aS'4'
aa(lp55
S'nn'
p56
aS'6'
aS'5'
aa(lp57
S'root'
p58
aS'0'
aS'6'
aasS'srls'
p59
(lp60
sS'pos_seq'
p61
(lp62
S'NN'
p63
aS'JJ'
p64
aS'JJ'
p65
aS'JJ'
p66
aS'NN'
p67
aS'NN'
p68
asS'ner_seq'
p69
(lp70
S'O'
aS'O'
aS'O'
aS'O'
aS'O'
aS'O'
assb.