ccopy_reg
_reconstructor
p1
(c__main__
KBproperty
p2
c__builtin__
object
p3
NtRp4
(dp5
S'comment'
p6
S'discovery date'
p7
sS'domain'
p8
S'Celestial Body '
p9
sS'instances_count'
p10
I2456
sS'phrases'
p11
NsS'syn_hypo'
p12
S''
sS'label'
p13
g7
sS'range'
p14
S'date '
p15
sS'uniq_subjs'
p16
S'2456'
p17
sS'uniq_objs'
p18
I0
sS'prop_uri'
p19
S'http://dbpedia.org/ontology/discovered'
p20
sS'annotations'
p21
(dp22
S'bag_of_words'
p23
(lp24
S'Celestial'
p25
aS'Body'
p26
aS'discovered'
p27
aS'date'
p28
aS'discovery'
p29
aS'date'
p30
asS'chunk_seq'
p31
(lp32
S'B-NP'
p33
aS'E-NP'
p34
aS'S-VP'
p35
aS'B-NP'
p36
aS'I-NP'
p37
aS'E-NP'
p38
asS'dep_seq'
p39
(lp40
(lp41
S'amod'
p42
aS'2'
aS'1'
aa(lp43
S'root'
p44
aS'0'
aS'2'
aa(lp45
S'partmod'
p46
aS'2'
aS'3'
aa(lp47
S'iobj'
p48
aS'3'
aS'4'
aa(lp49
S'nn'
p50
aS'6'
aS'5'
aa(lp51
S'dobj'
p52
aS'3'
aS'6'
aasS'srls'
p53
(lp54
(dp55
S'A1'
p56
S'date discovery date'
p57
sS'A0'
p58
S'Celestial Body'
p59
sS'V'
g27
sasS'pos_seq'
p60
(lp61
S'JJ'
p62
aS'NN'
p63
aS'VBN'
p64
aS'NN'
p65
aS'NN'
p66
aS'NN'
p67
asS'ner_seq'
p68
(lp69
S'B-ORG'
p70
aS'E-ORG'
p71
aS'O'
aS'O'
aS'O'
aS'O'
assb.