ccopy_reg
_reconstructor
p1
(c__main__
KBproperty
p2
c__builtin__
object
p3
NtRp4
(dp5
S'comment'
p6
S'Type is too general. We should be able to distinguish types of music from types of architecture00'
p7
sS'domain'
p8
S'Building '
p9
sS'instances_count'
p10
I0
sS'phrases'
p11
NsS'syn_hypo'
p12
S''
sS'label'
p13
S'buildingType'
p14
sS'range'
p15
S''
sS'uniq_subjs'
p16
S'0'
sS'uniq_objs'
p17
I0
sS'prop_uri'
p18
S'http://dbpedia.org/ontology/buildingType'
p19
sS'annotations'
p20
(dp21
S'bag_of_words'
p22
(lp23
S'Building'
p24
aS'buildingType'
p25
aS'Type'
p26
aS'is'
p27
aS'too'
p28
aS'general'
p29
aS'.'
aS'We'
p30
aS'should'
p31
aS'be'
p32
aS'able'
p33
aS'to'
p34
aS'distinguish'
p35
aS'types'
p36
aS'of'
p37
aS'music'
p38
aS'from'
p39
aS'types'
p40
aS'of'
p41
aS'architecture00'
p42
asS'chunk_seq'
p43
(lp44
S'B-NP'
p45
aS'I-NP'
p46
aS'E-NP'
p47
aS'S-VP'
p48
aS'B-ADJP'
p49
aS'E-ADJP'
p50
aS'O'
aS'S-NP'
p51
aS'B-VP'
p52
aS'E-VP'
p53
aS'S-ADJP'
p54
aS'B-VP'
p55
aS'E-VP'
p56
aS'S-NP'
p57
aS'S-PP'
p58
aS'S-NP'
p59
aS'S-PP'
p60
aS'S-NP'
p61
aS'S-PP'
p62
aS'S-NP'
p63
asS'dep_seq'
p64
(lp65
(lp66
S'nn'
p67
aS'3'
aS'1'
aa(lp68
S'nn'
p69
aS'3'
aS'2'
aa(lp70
S'nsubj'
p71
aS'6'
aS'3'
aa(lp72
S'cop'
p73
aS'6'
aS'4'
aa(lp74
S'advmod'
p75
aS'6'
aS'5'
aa(lp76
S'root'
p77
aS'0'
aS'6'
aa(lp78
S'nsubj'
p79
aS'11'
p80
aS'8'
aa(lp81
S'xsubj'
p82
aS'13'
p83
aS'8'
aa(lp84
S'aux'
p85
aS'11'
p86
aS'9'
aa(lp87
S'cop'
p88
aS'11'
p89
aS'10'
p90
aa(lp91
S'parataxis'
p92
aS'6'
aS'11'
p93
aa(lp94
S'aux'
p95
aS'13'
p96
aS'12'
p97
aa(lp98
S'xcomp'
p99
aS'11'
p100
aS'13'
p101
aa(lp102
S'dobj'
p103
aS'13'
p104
aS'14'
p105
aa(lp106
S'prep_of'
p107
aS'14'
p108
aS'16'
p109
aa(lp110
S'prep_from'
p111
aS'14'
p112
aS'18'
p113
aa(lp114
S'prep_of'
p115
aS'18'
p116
aS'20'
p117
aasS'srls'
p118
(lp119
(dp120
S'A1'
p121
S'types of music'
p122
sS'A0'
p123
g30
sS'A2'
p124
S'from types of architecture00'
p125
sS'V'
g35
sasS'pos_seq'
p126
(lp127
S'NNP'
p128
aS'NNP'
p129
aS'NNP'
p130
aS'VBZ'
p131
aS'RB'
p132
aS'JJ'
p133
aS'.'
aS'PRP'
p134
aS'MD'
p135
aS'VB'
p136
aS'JJ'
p137
aS'TO'
p138
aS'VB'
p139
aS'NNS'
p140
aS'IN'
p141
aS'NN'
p142
aS'IN'
p143
aS'NNS'
p144
aS'IN'
p145
aS'NN'
p146
asS'ner_seq'
p147
(lp148
S'O'
aS'O'
aS'O'
aS'O'
aS'O'
aS'O'
aS'O'
aS'O'
aS'O'
aS'O'
aS'O'
aS'O'
aS'O'
aS'O'
aS'O'
aS'O'
aS'O'
aS'O'
aS'O'
aS'O'
assb.