ccopy_reg
_reconstructor
p1
(c__main__
KBproperty
p2
c__builtin__
object
p3
NtRp4
(dp5
S'comment'
p6
S'wheelbase \\xce\\xbc'
p7
sS'domain'
p8
S'Automobile '
p9
sS'instances_count'
p10
I1098
sS'phrases'
p11
NsS'syn_hypo'
p12
S''
sS'label'
p13
g7
sS'range'
p14
S'double '
p15
sS'uniq_subjs'
p16
S'1098'
p17
sS'uniq_objs'
p18
I0
sS'prop_uri'
p19
S'http://dbpedia.org/ontology/wheelbase'
p20
sS'annotations'
p21
(dp22
S'bag_of_words'
p23
(lp24
S'Automobile'
p25
aS'wheelbase'
p26
aS'double'
p27
aS'wheelbase'
p28
aS'\\'
aS'xce'
p29
aS'\\'
aS'xbc'
p30
asS'chunk_seq'
p31
(lp32
S'B-NP'
p33
aS'I-NP'
p34
aS'I-NP'
p35
aS'E-NP'
p36
aS'O'
aS'O'
aS'O'
aS'O'
asS'dep_seq'
p37
(lp38
(lp39
S'nn'
p40
aS'2'
aS'1'
aa(lp41
S'root'
p42
aS'0'
aS'2'
aa(lp43
S'dobj'
p44
aS'5'
aS'2'
aa(lp45
S'amod'
p46
aS'4'
aS'3'
aa(lp47
S'nsubj'
p48
aS'5'
aS'4'
aa(lp49
S'rcmod'
p50
aS'2'
aS'5'
aa(lp51
S'discourse'
p52
aS'5'
aS'6'
aa(lp53
S'dep'
p54
aS'6'
aS'7'
aa(lp55
S'dep'
p56
aS'6'
aS'8'
aasS'srls'
p57
(lp58
sS'pos_seq'
p59
(lp60
S'NN'
p61
aS'NN'
p62
aS'JJ'
p63
aS'NN'
p64
aS'FW'
p65
aS'FW'
p66
aS'FW'
p67
aS'FW'
p68
asS'ner_seq'
p69
(lp70
S'O'
aS'O'
aS'O'
aS'O'
aS'O'
aS'O'
aS'O'
aS'O'
assb.