ccopy_reg
_reconstructor
p1
(c__main__
KBproperty
p2
c__builtin__
object
p3
NtRp4
(dp5
S'comment'
p6
S'number of office holder4343'
p7
sS'domain'
p8
S''
sS'instances_count'
p9
I35
sS'phrases'
p10
NsS'syn_hypo'
p11
Valliteratorspeakertalkeruttererverbalizerverbalisercallerspeakertalkeruttererverbalizerverbalisercaller-upspeakertalkeruttererverbalizerverbaliserphonerspeakertalkeruttererverbalizerverbalisertelephonerspeakertalkeruttererverbalizerverbaliserchattererspeakertalkeruttererverbalizerverbaliserbabblerspeakertalkeruttererverbalizerverbaliserpraterspeakertalkeruttererverbalizerverbaliserchatterboxspeakertalkeruttererverbalizerverbalisermagpiespeakertalkeruttererverbalizerverbaliserspouterspeakertalkeruttererverbalizerverbaliserconversationalistspeakertalkeruttererverbalizerverbaliserconversationistspeakertalkeruttererverbalizerverbaliserschmoozerspeakertalkeruttererverbalizerverbaliserdictatorspeakertalkeruttererverbalizerverbaliserdrawlerspeakertalkeruttererverbalizerverbaliserdrivellerspeakertalkeruttererverbalizerverbaliserjabbererspeakertalkeruttererverbalizerverbaliserejaculatorspeakertalkeruttererverbalizerverbalisergrowlerspeakertalkeruttererverbalizerverbaliserinquirerspeakertalkeruttererverbalizerverbaliserenquirerspeakertalkeruttererverbalizerverbaliserquestionerspeakertalkeruttererverbalizerverbaliserquerierspeakertalkeruttererverbalizerverbaliseraskerspeakertalkeruttererverbalizerverbaliserlecturerspeakertalkeruttererverbalizerverbaliserlisperspeakertalkeruttererverbalizerverbalisermentionerspeakertalkeruttererverbalizerverbalisermotormouthspeakertalkeruttererverbalizerverbalisermuttererspeakertalkeruttererverbalizerverbalisermumblerspeakertalkeruttererverbalizerverbalisermurmurerspeakertalkeruttererverbalizerverbalisernarratorspeakertalkeruttererverbalizerverbaliserstorytellerspeakertalkeruttererverbalizerverbalisertellerspeakertalkeruttererverbalizerverbalisernative_speakerspeakertalkeruttererverbalizerverbaliseroratorspeakertalkeruttererverbalizerverbaliserspeechmakerspeakertalkeruttererverbalizerverbaliserrhetoricianspeakertalkeruttererverbalizerverbaliserpublic_speakerspeakertalkeruttererverbalizerverbaliserspeechifierspeakertalkeruttererverbalizerverbaliserprattlerspeakertalkeruttererverbalizerverbaliserranterspeakertalkeruttererverbalizerverbaliserraverspeakertalkeruttererverbalizerverbaliserreciterspeakertalkeruttererverbalizerverbaliserstammererspeakertalkeruttererverbalizerverbaliserstuttererspeakertalkeruttererverbalizerverbaliserstentorspeakertalkeruttererverbalizerverbalisertalking_headspeakertalkeruttererverbalizerverbaliserventerspeakertalkeruttererverbalizerverbaliservociferatorspeakertalkeruttererverbalizerverbaliservoicerspeakertalkeruttererverbalizerverbaliserwailerspeakertalkeruttererverbalizerverbaliserwhispererspeakertalkeruttererverbalizerverbaliserwitnessspeakertalkeruttererverbalizerverbaliserwitnesserspeakertalkeruttererverbalizerverbaliserinformant
p12
sS'label'
p13
S'speaker'
p14
sS'range'
p15
S'integer '
p16
sS'uniq_subjs'
p17
S'35'
p18
sS'uniq_objs'
p19
I0
sS'prop_uri'
p20
S'http://dbpedia.org/ontology/speaker'
p21
sS'annotations'
p22
(dp23
S'bag_of_words'
p24
(lp25
S'speaker'
p26
aS'integer'
p27
aS'number'
p28
aS'of'
p29
aS'office'
p30
aS'holder4343'
p31
asS'chunk_seq'
p32
(lp33
S'B-NP'
p34
aS'I-NP'
p35
aS'E-NP'
p36
aS'S-PP'
p37
aS'B-NP'
p38
aS'E-NP'
p39
asS'dep_seq'
p40
(lp41
(lp42
S'nn'
p43
aS'3'
aS'1'
aa(lp44
S'nn'
p45
aS'3'
aS'2'
aa(lp46
S'root'
p47
aS'0'
aS'3'
aa(lp48
S'nn'
p49
aS'6'
aS'5'
aa(lp50
S'prep_of'
p51
aS'3'
aS'6'
aasS'srls'
p52
(lp53
sS'pos_seq'
p54
(lp55
S'NN'
p56
aS'NN'
p57
aS'NN'
p58
aS'IN'
p59
aS'NN'
p60
aS'NN'
p61
asS'ner_seq'
p62
(lp63
S'O'
aS'O'
aS'O'
aS'O'
aS'O'
aS'O'
assb.