ccopy_reg
_reconstructor
p1
(c__main__
KBproperty
p2
c__builtin__
object
p3
NtRp4
(dp5
S'comment'
p6
S'International Nonproprietary Name given to a pharmaceutical substance00'
p7
sS'domain'
p8
S'Chemical Compound '
p9
sS'instances_count'
p10
I0
sS'phrases'
p11
NsS'syn_hypo'
p12
Vcaravansaryhostelhostelryinnlodgeaubergecaravanseraihostelhostelryinnlodgeaubergekhanhostelhostelryinnlodgeaubergecaravan_innhostelhostelryinnlodgeaubergeimarethostelhostelryinnlodgeaubergeposthousehostelhostelryinnlodgeaubergepost_househostelhostelryinnlodgeaubergeroadhouse
p13
sS'label'
p14
S'INN'
p15
sS'range'
p16
S'string '
p17
sS'uniq_subjs'
p18
S'0'
sS'uniq_objs'
p19
I0
sS'prop_uri'
p20
S'http://dbpedia.org/ontology/inn'
p21
sS'annotations'
p22
(dp23
S'bag_of_words'
p24
(lp25
S'Chemical'
p26
aS'Compound'
p27
aS'INN'
p28
aS'string'
p29
aS'International'
p30
aS'Nonproprietary'
p31
aS'Name'
p32
aS'given'
p33
aS'to'
p34
aS'a'
aS'pharmaceutical'
p35
aS'substance00'
p36
asS'chunk_seq'
p37
(lp38
S'B-NP'
p39
aS'I-NP'
p40
aS'I-NP'
p41
aS'I-NP'
p42
aS'I-NP'
p43
aS'I-NP'
p44
aS'E-NP'
p45
aS'S-PP'
p46
aS'S-PP'
p47
aS'B-NP'
p48
aS'I-NP'
p49
aS'E-NP'
p50
asS'dep_seq'
p51
(lp52
(lp53
S'nn'
p54
aS'7'
aS'1'
aa(lp55
S'nn'
p56
aS'7'
aS'2'
aa(lp57
S'nn'
p58
aS'7'
aS'3'
aa(lp59
S'nn'
p60
aS'7'
aS'4'
aa(lp61
S'nn'
p62
aS'7'
aS'5'
aa(lp63
S'nn'
p64
aS'7'
aS'6'
aa(lp65
S'nsubj'
p66
aS'8'
aS'7'
aa(lp67
S'root'
p68
aS'0'
aS'8'
aa(lp69
S'det'
p70
aS'12'
p71
aS'10'
p72
aa(lp73
S'amod'
p74
aS'12'
p75
aS'11'
p76
aa(lp77
S'prep_to'
p78
aS'8'
aS'12'
p79
aasS'srls'
p80
(lp81
(dp82
S'A0'
p83
S'Chemical Compound INN string International Nonproprietary Name'
p84
sS'A2'
p85
S'to a pharmaceutical substance00'
p86
sS'V'
g33
sasS'pos_seq'
p87
(lp88
S'NNP'
p89
aS'NNP'
p90
aS'NNP'
p91
aS'NN'
p92
aS'NNP'
p93
aS'NNP'
p94
aS'NNP'
p95
aS'VBN'
p96
aS'TO'
p97
aS'DT'
p98
aS'JJ'
p99
aS'NN'
p100
asS'ner_seq'
p101
(lp102
S'B-MISC'
p103
aS'I-MISC'
p104
aS'I-MISC'
p105
aS'I-MISC'
p106
aS'I-MISC'
p107
aS'I-MISC'
p108
aS'E-MISC'
p109
aS'O'
aS'O'
aS'O'
aS'O'
aS'O'
assb.