ccopy_reg
_reconstructor
p1
(c__main__
KBproperty
p2
c__builtin__
object
p3
NtRp4
(dp5
S'comment'
p6
S'code on List of Honour'
p7
sS'domain'
p8
S'Member Resistance Movement '
p9
sS'instances_count'
p10
I0
sS'phrases'
p11
NsS'syn_hypo'
p12
S''
sS'label'
p13
g7
sS'range'
p14
S'string '
p15
sS'uniq_subjs'
p16
S'0'
sS'uniq_objs'
p17
I0
sS'prop_uri'
p18
S'http://dbpedia.org/ontology/codeListOfHonour'
p19
sS'annotations'
p20
(dp21
S'bag_of_words'
p22
(lp23
S'Member'
p24
aS'Resistance'
p25
aS'Movement'
p26
aS'code'
p27
aS'List'
p28
aS'Of'
p29
aS'Honour'
p30
aS'string'
p31
aS'code'
p32
aS'on'
p33
aS'List'
p34
aS'of'
p35
aS'Honour'
p36
asS'chunk_seq'
p37
(lp38
S'B-NP'
p39
aS'I-NP'
p40
aS'I-NP'
p41
aS'I-NP'
p42
aS'E-NP'
p43
aS'S-PP'
p44
aS'B-NP'
p45
aS'I-NP'
p46
aS'E-NP'
p47
aS'S-PP'
p48
aS'S-NP'
p49
aS'S-PP'
p50
aS'S-NP'
p51
asS'dep_seq'
p52
(lp53
(lp54
S'nn'
p55
aS'5'
aS'1'
aa(lp56
S'nn'
p57
aS'5'
aS'2'
aa(lp58
S'nn'
p59
aS'5'
aS'3'
aa(lp60
S'nn'
p61
aS'5'
aS'4'
aa(lp62
S'root'
p63
aS'0'
aS'5'
aa(lp64
S'nn'
p65
aS'9'
aS'7'
aa(lp66
S'nn'
p67
aS'9'
aS'8'
aa(lp68
S'prep_of'
p69
aS'5'
aS'9'
aa(lp70
S'prep_on'
p71
aS'5'
aS'11'
p72
aa(lp73
S'prep_of'
p74
aS'11'
p75
aS'13'
p76
aasS'srls'
p77
(lp78
sS'pos_seq'
p79
(lp80
S'NNP'
p81
aS'NNP'
p82
aS'NNP'
p83
aS'NN'
p84
aS'NN'
p85
aS'IN'
p86
aS'NNP'
p87
aS'NN'
p88
aS'NN'
p89
aS'IN'
p90
aS'NNP'
p91
aS'IN'
p92
aS'NNP'
p93
asS'ner_seq'
p94
(lp95
S'O'
aS'O'
aS'O'
aS'O'
aS'B-ORG'
p96
aS'I-ORG'
p97
aS'E-ORG'
p98
aS'O'
aS'O'
aS'O'
aS'O'
aS'O'
aS'O'
assb.