ccopy_reg
_reconstructor
p1
(c__main__
KBproperty
p2
c__builtin__
object
p3
NtRp4
(dp5
S'comment'
p6
S'66'
p7
sS'domain'
p8
S''
sS'instances_count'
p9
I6
sS'phrases'
p10
NsS'syn_hypo'
p11
S''
sS'label'
p12
S'orbits'
p13
sS'range'
p14
S'integer '
p15
sS'uniq_subjs'
p16
S'6'
sS'uniq_objs'
p17
I0
sS'prop_uri'
p18
S'http://dbpedia.org/ontology/orbits'
p19
sS'annotations'
p20
(dp21
S'bag_of_words'
p22
(lp23
S'orbits'
p24
aS'integer'
p25
aS'66'
p26
asS'chunk_seq'
p27
(lp28
S'S-VP'
p29
aS'S-NP'
p30
aS'O'
asS'dep_seq'
p31
(lp32
(lp33
S'nn'
p34
aS'2'
aS'1'
aa(lp35
S'root'
p36
aS'0'
aS'2'
aa(lp37
S'punct'
p38
aS'2'
aS'3'
aasS'srls'
p39
(lp40
sS'pos_seq'
p41
(lp42
S'NNS'
p43
aS'NN'
p44
aS'.'
asS'ner_seq'
p45
(lp46
S'O'
aS'O'
aS'O'
assb.