ccopy_reg
_reconstructor
p1
(c__main__
KBproperty
p2
c__builtin__
object
p3
NtRp4
(dp5
S'comment'
p6
S'escape velocity kmh'
p7
sS'domain'
p8
S'Planet '
p9
sS'instances_count'
p10
I238
sS'phrases'
p11
NsS'syn_hypo'
p12
S''
sS'label'
p13
g7
sS'range'
p14
S'double '
p15
sS'uniq_subjs'
p16
S'238'
p17
sS'uniq_objs'
p18
I0
sS'prop_uri'
p19
S'http://dbpedia.org/ontology/escapeVelocity'
p20
sS'annotations'
p21
(dp22
S'bag_of_words'
p23
(lp24
S'Planet'
p25
aS'escape'
p26
aS'Velocity'
p27
aS'double'
p28
aS'escape'
p29
aS'velocity'
p30
aS'kmh'
p31
asS'chunk_seq'
p32
(lp33
S'B-NP'
p34
aS'I-NP'
p35
aS'I-NP'
p36
aS'I-NP'
p37
aS'I-NP'
p38
aS'E-NP'
p39
aS'O'
asS'dep_seq'
p40
(lp41
(lp42
S'nn'
p43
aS'3'
aS'1'
aa(lp44
S'nn'
p45
aS'3'
aS'2'
aa(lp46
S'dep'
p47
aS'6'
aS'3'
aa(lp48
S'amod'
p49
aS'6'
aS'4'
aa(lp50
S'nn'
p51
aS'6'
aS'5'
aa(lp52
S'root'
p53
aS'0'
aS'6'
aa(lp54
S'punct'
p55
aS'6'
aS'7'
aasS'srls'
p56
(lp57
(dp58
S'A1'
p59
S'Velocity double escape velocity kmh'
p60
sS'A0'
p61
g25
sS'V'
g26
sasS'pos_seq'
p62
(lp63
S'NN'
p64
aS'NN'
p65
aS'NN'
p66
aS'JJ'
p67
aS'NN'
p68
aS'NN'
p69
aS'.'
asS'ner_seq'
p70
(lp71
S'O'
aS'O'
aS'O'
aS'O'
aS'O'
aS'O'
aS'O'
assb.