ccopy_reg
_reconstructor
p1
(c__main__
KBproperty
p2
c__builtin__
object
p3
NtRp4
(dp5
S'comment'
p6
S'184182'
p7
sS'domain'
p8
S'Company '
p9
sS'instances_count'
p10
I169
sS'phrases'
p11
NsS'syn_hypo'
p12
S''
sS'label'
p13
S'asset under management $'
p14
sS'range'
p15
S'double '
p16
sS'uniq_subjs'
p17
S'169'
p18
sS'uniq_objs'
p19
I0
sS'prop_uri'
p20
S'http://dbpedia.org/ontology/assetUnderManagement'
p21
sS'annotations'
p22
(dp23
S'bag_of_words'
p24
(lp25
S'Company'
p26
aS'asset'
p27
aS'under'
p28
aS'management'
p29
aS'$'
aS'double'
p30
aS'184182'
p31
asS'chunk_seq'
p32
(lp33
S'B-NP'
p34
aS'E-NP'
p35
aS'S-PP'
p36
aS'S-NP'
p37
aS'B-NP'
p38
aS'I-NP'
p39
aS'E-NP'
p40
asS'dep_seq'
p41
(lp42
(lp43
S'nn'
p44
aS'2'
aS'1'
aa(lp45
S'dep'
p46
aS'7'
aS'2'
aa(lp47
S'prep_under'
p48
aS'2'
aS'4'
aa(lp49
S'dep'
p50
aS'7'
aS'5'
aa(lp51
S'amod'
p52
aS'7'
aS'6'
aa(lp53
S'root'
p54
aS'0'
aS'7'
aasS'srls'
p55
(lp56
sS'pos_seq'
p57
(lp58
S'NN'
p59
aS'NN'
p60
aS'IN'
p61
aS'NN'
p62
aS'$'
aS'JJ'
p63
aS'NN'
p64
asS'ner_seq'
p65
(lp66
S'O'
aS'O'
aS'O'
aS'O'
aS'O'
aS'O'
aS'O'
assb.