ccopy_reg
_reconstructor
p1
(c__main__
KBproperty
p2
c__builtin__
object
p3
NtRp4
(dp5
S'comment'
p6
S'11871187'
p7
sS'domain'
p8
S'Mean Of Transportation '
p9
sS'instances_count'
p10
I99
sS'phrases'
p11
NsS'syn_hypo'
p12
S''
sS'label'
p13
S'model end year'
p14
sS'range'
p15
S'g Year '
p16
sS'uniq_subjs'
p17
S'99'
p18
sS'uniq_objs'
p19
I0
sS'prop_uri'
p20
S'http://dbpedia.org/ontology/modelEndYear'
p21
sS'annotations'
p22
(dp23
S'bag_of_words'
p24
(lp25
S'Mean'
p26
aS'Of'
p27
aS'Transportation'
p28
aS'model'
p29
aS'end'
p30
aS'year'
p31
aS'g'
aS'Year'
p32
aS'11871187'
p33
asS'chunk_seq'
p34
(lp35
S'S-NP'
p36
aS'S-PP'
p37
aS'B-NP'
p38
aS'I-NP'
p39
aS'I-NP'
p40
aS'I-NP'
p41
aS'I-NP'
p42
aS'I-NP'
p43
aS'E-NP'
p44
asS'dep_seq'
p45
(lp46
(lp47
S'dep'
p48
aS'9'
aS'1'
aa(lp49
S'nn'
p50
aS'6'
aS'3'
aa(lp51
S'nn'
p52
aS'6'
aS'4'
aa(lp53
S'nn'
p54
aS'6'
aS'5'
aa(lp55
S'prep_of'
p56
aS'1'
aS'6'
aa(lp57
S'nn'
p58
aS'9'
aS'7'
aa(lp59
S'nn'
p60
aS'9'
aS'8'
aa(lp61
S'root'
p62
aS'0'
aS'9'
aasS'srls'
p63
(lp64
sS'pos_seq'
p65
(lp66
S'NNP'
p67
aS'IN'
p68
aS'NNP'
p69
aS'NN'
p70
aS'NN'
p71
aS'NN'
p72
aS'NN'
p73
aS'NN'
p74
aS'NN'
p75
asS'ner_seq'
p76
(lp77
S'O'
aS'B-ORG'
p78
aS'E-ORG'
p79
aS'O'
aS'O'
aS'O'
aS'O'
aS'O'
aS'O'
assb.