ccopy_reg
_reconstructor
p1
(c__main__
KBproperty
p2
c__builtin__
object
p3
NtRp4
(dp5
S'comment'
p6
S'population percentage under 12 years'
p7
sS'domain'
p8
S'Populated Place '
p9
sS'instances_count'
p10
I0
sS'phrases'
p11
NsS'syn_hypo'
p12
S''
sS'label'
p13
g7
sS'range'
p14
S'non Negative Integer '
p15
sS'uniq_subjs'
p16
S'0'
sS'uniq_objs'
p17
I0
sS'prop_uri'
p18
S'http://dbpedia.org/ontology/populationPctChildren'
p19
sS'annotations'
p20
(dp21
S'bag_of_words'
p22
(lp23
S'Populated'
p24
aS'Place'
p25
aS'population'
p26
aS'Pct'
p27
aS'Children'
p28
aS'non'
p29
aS'Negative'
p30
aS'Integer'
p31
aS'population'
p32
aS'percentage'
p33
aS'under'
p34
aS'12'
p35
aS'years'
p36
asS'chunk_seq'
p37
(lp38
S'B-NP'
p39
aS'I-NP'
p40
aS'E-NP'
p41
aS'B-NP'
p42
aS'E-NP'
p43
aS'B-NP'
p44
aS'I-NP'
p45
aS'I-NP'
p46
aS'I-NP'
p47
aS'E-NP'
p48
aS'S-PP'
p49
aS'B-NP'
p50
aS'E-NP'
p51
asS'dep_seq'
p52
(lp53
(lp54
S'amod'
p55
aS'4'
aS'1'
aa(lp56
S'nn'
p57
aS'4'
aS'2'
aa(lp58
S'nn'
p59
aS'4'
aS'3'
aa(lp60
S'dep'
p61
aS'10'
p62
aS'4'
aa(lp63
S'nn'
p64
aS'10'
p65
aS'5'
aa(lp66
S'amod'
p67
aS'7'
aS'6'
aa(lp68
S'amod'
p69
aS'10'
p70
aS'7'
aa(lp71
S'nn'
p72
aS'10'
p73
aS'8'
aa(lp74
S'nn'
p75
aS'10'
p76
aS'9'
aa(lp77
S'root'
p78
aS'0'
aS'10'
p79
aa(lp80
S'num'
p81
aS'13'
p82
aS'12'
p83
aa(lp84
S'prep_under'
p85
aS'10'
p86
aS'13'
p87
aasS'srls'
p88
(lp89
sS'pos_seq'
p90
(lp91
S'JJ'
p92
aS'NN'
p93
aS'NN'
p94
aS'NNP'
p95
aS'NNP'
p96
aS'JJ'
p97
aS'JJ'
p98
aS'NN'
p99
aS'NN'
p100
aS'NN'
p101
aS'IN'
p102
aS'CD'
p103
aS'NNS'
p104
asS'ner_seq'
p105
(lp106
S'O'
aS'O'
aS'O'
aS'O'
aS'O'
aS'O'
aS'B-MISC'
p107
aS'E-MISC'
p108
aS'O'
aS'O'
aS'O'
aS'O'
aS'O'
assb.