ccopy_reg
_reconstructor
p1
(c__main__
KBproperty
p2
c__builtin__
object
p3
NtRp4
(dp5
S'comment'
p6
S'http://dbpedia.org/ontology/Deanery'
p7
sS'domain'
p8
S'Diocese '
p9
sS'instances_count'
p10
I0
sS'phrases'
p11
NsS'syn_hypo'
p12
S''
sS'label'
p13
g7
sS'range'
p14
S'Parish '
p15
sS'uniq_subjs'
p16
S'0'
sS'uniq_objs'
p17
I0
sS'prop_uri'
p18
S'http://dbpedia.org/ontology/deanery'
p19
sS'annotations'
p20
(dp21
S'bag_of_words'
p22
(lp23
S'Diocese'
p24
aS'deanery'
p25
aS'Parish'
p26
aS'http'
p27
aS':'
aS'//'
p28
aS'dbpedia'
p29
aS'.org'
p30
aS'/'
aS'ontology'
p31
aS'/'
aS'Deanery'
p32
asS'chunk_seq'
p33
(lp34
S'B-NP'
p35
aS'I-NP'
p36
aS'I-NP'
p37
aS'E-NP'
p38
aS'O'
aS'O'
aS'O'
aS'O'
aS'O'
aS'O'
aS'O'
aS'O'
asS'dep_seq'
p39
(lp40
(lp41
S'nn'
p42
aS'3'
aS'1'
aa(lp43
S'nn'
p44
aS'3'
aS'2'
aa(lp45
S'root'
p46
aS'0'
aS'3'
aa(lp47
S'dep'
p48
aS'3'
aS'4'
aa(lp49
S'dep'
p50
aS'7'
aS'6'
aa(lp51
S'dep'
p52
aS'4'
aS'7'
aa(lp53
S'dep'
p54
aS'7'
aS'8'
aa(lp55
S'prep'
p56
aS'7'
aS'9'
aa(lp57
S'pobj'
p58
aS'9'
aS'10'
p59
aa(lp60
S'prep'
p61
aS'10'
p62
aS'11'
p63
aa(lp64
S'pobj'
p65
aS'11'
p66
aS'12'
p67
aasS'srls'
p68
(lp69
sS'pos_seq'
p70
(lp71
S'NNP'
p72
aS'NN'
p73
aS'NNP'
p74
aS'NN'
p75
aS':'
aS'FW'
p76
aS'FW'
p77
aS'FW'
p78
aS'FW'
p79
aS'FW'
p80
aS'FW'
p81
aS'NNP'
p82
asS'ner_seq'
p83
(lp84
S'O'
aS'O'
aS'O'
aS'O'
aS'O'
aS'O'
aS'O'
aS'O'
aS'O'
aS'O'
aS'O'
aS'S-ORG'
p85
assb.