ccopy_reg
_reconstructor
p1
(c__main__
KBproperty
p2
c__builtin__
object
p3
NtRp4
(dp5
S'comment'
p6
S'79497910'
p7
sS'domain'
p8
S''
sS'instances_count'
p9
I210
sS'phrases'
p10
NsS'syn_hypo'
p11
S''
sS'label'
p12
S'production end year'
p13
sS'range'
p14
S'g Year '
p15
sS'uniq_subjs'
p16
S'210'
p17
sS'uniq_objs'
p18
I0
sS'prop_uri'
p19
S'http://dbpedia.org/ontology/productionEndYear'
p20
sS'annotations'
p21
(dp22
S'bag_of_words'
p23
(lp24
S'production'
p25
aS'end'
p26
aS'year'
p27
aS'g'
aS'Year'
p28
aS'79497910'
p29
asS'chunk_seq'
p30
(lp31
S'B-NP'
p32
aS'I-NP'
p33
aS'E-NP'
p34
aS'B-NP'
p35
aS'E-NP'
p36
aS'O'
asS'dep_seq'
p37
(lp38
(lp39
S'nn'
p40
aS'3'
aS'1'
aa(lp41
S'nn'
p42
aS'3'
aS'2'
aa(lp43
S'root'
p44
aS'0'
aS'3'
aa(lp45
S'num'
p46
aS'5'
aS'4'
aa(lp47
S'dep'
p48
aS'3'
aS'5'
aa(lp49
S'num'
p50
aS'5'
aS'6'
aasS'srls'
p51
(lp52
sS'pos_seq'
p53
(lp54
S'NN'
p55
aS'NN'
p56
aS'NN'
p57
aS'CD'
p58
aS'NN'
p59
aS'CD'
p60
asS'ner_seq'
p61
(lp62
S'O'
aS'O'
aS'O'
aS'O'
aS'O'
aS'O'
assb.