ccopy_reg
_reconstructor
p1
(c__main__
KBproperty
p2
c__builtin__
object
p3
NtRp4
(dp5
S'comment'
p6
S'In the periodic table of the elements elements are arranged in a series of rows or periods so that those with similar properties appear in a column.00'
p7
sS'domain'
p8
S'Chemical Element '
p9
sS'instances_count'
p10
I0
sS'phrases'
p11
NsS'syn_hypo'
p12
S''
sS'label'
p13
S'element period'
p14
sS'range'
p15
S'non Negative Integer '
p16
sS'uniq_subjs'
p17
S'0'
sS'uniq_objs'
p18
I0
sS'prop_uri'
p19
S'http://dbpedia.org/ontology/elementPeriod'
p20
sS'annotations'
p21
(dp22
S'bag_of_words'
p23
(lp24
S'Chemical'
p25
aS'Element'
p26
aS'element'
p27
aS'period'
p28
aS'non'
p29
aS'Negative'
p30
aS'Integer'
p31
aS'In'
p32
aS'the'
p33
aS'periodic'
p34
aS'table'
p35
aS'of'
p36
aS'the'
p37
aS'elements'
p38
aS'elements'
p39
aS'are'
p40
aS'arranged'
p41
aS'in'
p42
aS'a'
aS'series'
p43
aS'of'
p44
aS'rows'
p45
aS'or'
p46
aS'periods'
p47
aS'so'
p48
aS'that'
p49
aS'those'
p50
aS'with'
p51
aS'similar'
p52
aS'properties'
p53
aS'appear'
p54
aS'in'
p55
aS'a'
aS'column.00'
p56
asS'chunk_seq'
p57
(lp58
S'B-NP'
p59
aS'I-NP'
p60
aS'I-NP'
p61
aS'E-NP'
p62
aS'B-NP'
p63
aS'I-NP'
p64
aS'E-NP'
p65
aS'S-PP'
p66
aS'B-NP'
p67
aS'I-NP'
p68
aS'E-NP'
p69
aS'S-PP'
p70
aS'B-NP'
p71
aS'I-NP'
p72
aS'E-NP'
p73
aS'B-VP'
p74
aS'E-VP'
p75
aS'S-PP'
p76
aS'B-NP'
p77
aS'E-NP'
p78
aS'S-PP'
p79
aS'B-NP'
p80
aS'I-NP'
p81
aS'E-NP'
p82
aS'B-SBAR'
p83
aS'E-SBAR'
p84
aS'S-NP'
p85
aS'S-PP'
p86
aS'B-NP'
p87
aS'E-NP'
p88
aS'S-VP'
p89
aS'S-PP'
p90
aS'B-NP'
p91
aS'E-NP'
p92
asS'dep_seq'
p93
(lp94
(lp95
S'nn'
p96
aS'4'
aS'1'
aa(lp97
S'nn'
p98
aS'4'
aS'2'
aa(lp99
S'nn'
p100
aS'4'
aS'3'
aa(lp101
S'nsubjpass'
p102
aS'17'
p103
aS'4'
aa(lp104
S'amod'
p105
aS'7'
aS'5'
aa(lp106
S'amod'
p107
aS'7'
aS'6'
aa(lp108
S'nsubjpass'
p109
aS'17'
p110
aS'7'
aa(lp111
S'det'
p112
aS'11'
p113
aS'9'
aa(lp114
S'amod'
p115
aS'11'
p116
aS'10'
p117
aa(lp118
S'prep_in'
p119
aS'7'
aS'11'
p120
aa(lp121
S'det'
p122
aS'15'
p123
aS'13'
p124
aa(lp125
S'nn'
p126
aS'15'
p127
aS'14'
p128
aa(lp129
S'prep_of'
p130
aS'11'
p131
aS'15'
p132
aa(lp133
S'auxpass'
p134
aS'17'
p135
aS'16'
p136
aa(lp137
S'root'
p138
aS'0'
aS'17'
p139
aa(lp140
S'det'
p141
aS'20'
p142
aS'19'
p143
aa(lp144
S'prep_in'
p145
aS'17'
p146
aS'20'
p147
aa(lp148
S'prep_of'
p149
aS'20'
p150
aS'22'
p151
aa(lp152
S'conj_or'
p153
aS'22'
p154
aS'24'
p155
aa(lp156
S'advmod'
p157
aS'31'
p158
aS'25'
p159
aa(lp160
S'mark'
p161
aS'31'
p162
aS'26'
p163
aa(lp164
S'nsubj'
p165
aS'31'
p166
aS'27'
p167
aa(lp168
S'amod'
p169
aS'30'
p170
aS'29'
p171
aa(lp172
S'prep_with'
p173
aS'27'
p174
aS'30'
p175
aa(lp176
S'advcl'
p177
aS'17'
p178
aS'31'
p179
aa(lp180
S'ccomp'
p181
aS'17'
p182
aS'31'
p183
aa(lp184
S'det'
p185
aS'34'
p186
aS'33'
p187
aa(lp188
S'prep_in'
p189
aS'31'
p190
aS'34'
p191
aasS'srls'
p192
(lp193
(dp194
S'A1'
p195
S'the periodic table of the elements elements'
p196
sS'AM-LOC'
p197
S'in a series of rows or periods'
p198
sS'V'
g41
sa(dp199
S'A1'
p200
S'those with similar properties'
p201
sS'AM-LOC'
p202
S'in a column.00'
p203
sS'V'
g54
sasS'pos_seq'
p204
(lp205
S'NNP'
p206
aS'NN'
p207
aS'NN'
p208
aS'NN'
p209
aS'JJ'
p210
aS'JJ'
p211
aS'NN'
p212
aS'IN'
p213
aS'DT'
p214
aS'JJ'
p215
aS'NN'
p216
aS'IN'
p217
aS'DT'
p218
aS'NNS'
p219
aS'NNS'
p220
aS'VBP'
p221
aS'VBN'
p222
aS'IN'
p223
aS'DT'
p224
aS'NN'
p225
aS'IN'
p226
aS'NNS'
p227
aS'CC'
p228
aS'NNS'
p229
aS'RB'
p230
aS'IN'
p231
aS'DT'
p232
aS'IN'
p233
aS'JJ'
p234
aS'NNS'
p235
aS'VBP'
p236
aS'IN'
p237
aS'DT'
p238
aS'NN'
p239
asS'ner_seq'
p240
(lp241
S'O'
aS'O'
aS'O'
aS'O'
aS'O'
aS'O'
aS'O'
aS'O'
aS'O'
aS'O'
aS'O'
aS'O'
aS'O'
aS'O'
aS'O'
aS'O'
aS'O'
aS'O'
aS'O'
aS'O'
aS'O'
aS'O'
aS'O'
aS'O'
aS'O'
aS'O'
aS'O'
aS'O'
aS'O'
aS'O'
aS'O'
aS'O'
aS'O'
aS'O'
assb.