ccopy_reg
_reconstructor
p1
(c__main__
KBproperty
p2
c__builtin__
object
p3
NtRp4
(dp5
S'comment'
p6
S'00'
p7
sS'domain'
p8
S'Soccer Player '
p9
sS'instances_count'
p10
I0
sS'phrases'
p11
NsS'syn_hypo'
p12
S''
sS'label'
p13
S'goals in league'
p14
sS'range'
p15
S'non Negative Integer '
p16
sS'uniq_subjs'
p17
S'0'
sS'uniq_objs'
p18
I0
sS'prop_uri'
p19
S'http://dbpedia.org/ontology/goalsInLeague'
p20
sS'annotations'
p21
(dp22
S'bag_of_words'
p23
(lp24
S'Soccer'
p25
aS'Player'
p26
aS'goals'
p27
aS'in'
p28
aS'league'
p29
aS'non'
p30
aS'Negative'
p31
aS'Integer'
p32
aS'00'
p33
asS'chunk_seq'
p34
(lp35
S'B-NP'
p36
aS'I-NP'
p37
aS'E-NP'
p38
aS'S-PP'
p39
aS'B-NP'
p40
aS'I-NP'
p41
aS'I-NP'
p42
aS'E-NP'
p43
aS'O'
asS'dep_seq'
p44
(lp45
(lp46
S'nn'
p47
aS'3'
aS'1'
aa(lp48
S'nn'
p49
aS'3'
aS'2'
aa(lp50
S'root'
p51
aS'0'
aS'3'
aa(lp52
S'nn'
p53
aS'8'
aS'5'
aa(lp54
S'amod'
p55
aS'8'
aS'6'
aa(lp56
S'nn'
p57
aS'8'
aS'7'
aa(lp58
S'prep_in'
p59
aS'3'
aS'8'
aa(lp60
S'num'
p61
aS'8'
aS'9'
aasS'srls'
p62
(lp63
sS'pos_seq'
p64
(lp65
S'NNP'
p66
aS'NNP'
p67
aS'NNS'
p68
aS'IN'
p69
aS'NN'
p70
aS'JJ'
p71
aS'NNP'
p72
aS'NNP'
p73
aS'CD'
p74
asS'ner_seq'
p75
(lp76
S'O'
aS'O'
aS'O'
aS'O'
aS'O'
aS'O'
aS'O'
aS'O'
aS'O'
assb.