ccopy_reg
_reconstructor
p1
(c__main__
KBproperty
p2
c__builtin__
object
p3
NtRp4
(dp5
S'comment'
p6
S'11'
p7
sS'domain'
p8
S'School '
p9
sS'instances_count'
p10
I1
sS'phrases'
p11
NsS'syn_hypo'
p12
Vcaretakercustodiankeeperstewardcuratorcustodiankeeperstewardconservatorcustodiankeeperstewardgamekeepercustodiankeeperstewardgame_wardencustodiankeeperstewardgreenskeepercustodiankeeperstewardhouse_sittercustodiankeeperstewardjanitorcustodiankeeperstewardlighthouse_keepercustodiankeeperstewardpet_sittercustodiankeeperstewardcritter_sittercustodiankeeperstewardzoo_keeper
p13
sS'label'
p14
S'custodian'
p15
sS'range'
p16
S'Person '
p17
sS'uniq_subjs'
p18
S'1'
sS'uniq_objs'
p19
I0
sS'prop_uri'
p20
S'http://dbpedia.org/ontology/custodian'
p21
sS'annotations'
p22
(dp23
S'bag_of_words'
p24
(lp25
S'School'
p26
aS'custodian'
p27
aS'Person'
p28
aS'11'
p29
asS'chunk_seq'
p30
(lp31
S'B-NP'
p32
aS'I-NP'
p33
aS'E-NP'
p34
aS'S-ADJP'
p35
asS'dep_seq'
p36
(lp37
(lp38
S'nn'
p39
aS'3'
aS'1'
aa(lp40
S'nn'
p41
aS'3'
aS'2'
aa(lp42
S'root'
p43
aS'0'
aS'3'
aa(lp44
S'punct'
p45
aS'3'
aS'4'
aasS'srls'
p46
(lp47
sS'pos_seq'
p48
(lp49
S'NN'
p50
aS'NN'
p51
aS'NN'
p52
aS'.'
asS'ner_seq'
p53
(lp54
S'O'
aS'O'
aS'O'
aS'O'
assb.