ccopy_reg
_reconstructor
p1
(c__main__
KBproperty
p2
c__builtin__
object
p3
NtRp4
(dp5
S'comment'
p6
S'Number of lines in the transit system.899783'
p7
sS'domain'
p8
S'Public Transit System '
p9
sS'instances_count'
p10
I76
sS'phrases'
p11
NsS'syn_hypo'
p12
S''
sS'label'
p13
S'number of lines'
p14
sS'range'
p15
S'non Negative Integer '
p16
sS'uniq_subjs'
p17
S'76'
p18
sS'uniq_objs'
p19
I0
sS'prop_uri'
p20
S'http://dbpedia.org/ontology/numberOfLines'
p21
sS'annotations'
p22
(dp23
S'bag_of_words'
p24
(lp25
S'Public'
p26
aS'Transit'
p27
aS'System'
p28
aS'number'
p29
aS'of'
p30
aS'lines'
p31
aS'non'
p32
aS'Negative'
p33
aS'Integer'
p34
aS'Number'
p35
aS'of'
p36
aS'lines'
p37
aS'in'
p38
aS'the'
p39
aS'transit'
p40
aS'system.899783'
p41
asS'chunk_seq'
p42
(lp43
S'B-NP'
p44
aS'I-NP'
p45
aS'I-NP'
p46
aS'E-NP'
p47
aS'S-PP'
p48
aS'S-NP'
p49
aS'B-NP'
p50
aS'I-NP'
p51
aS'I-NP'
p52
aS'E-NP'
p53
aS'S-PP'
p54
aS'S-NP'
p55
aS'S-PP'
p56
aS'B-NP'
p57
aS'I-NP'
p58
aS'E-NP'
p59
asS'dep_seq'
p60
(lp61
(lp62
S'nn'
p63
aS'4'
aS'1'
aa(lp64
S'nn'
p65
aS'4'
aS'2'
aa(lp66
S'nn'
p67
aS'4'
aS'3'
aa(lp68
S'root'
p69
aS'0'
aS'4'
aa(lp70
S'prep_of'
p71
aS'4'
aS'6'
aa(lp72
S'dep'
p73
aS'10'
p74
aS'7'
aa(lp75
S'amod'
p76
aS'10'
p77
aS'8'
aa(lp78
S'nn'
p79
aS'10'
p80
aS'9'
aa(lp81
S'dep'
p82
aS'4'
aS'10'
p83
aa(lp84
S'prep_of'
p85
aS'10'
p86
aS'12'
p87
aa(lp88
S'det'
p89
aS'16'
p90
aS'14'
p91
aa(lp92
S'nn'
p93
aS'16'
p94
aS'15'
p95
aa(lp96
S'prep_in'
p97
aS'12'
p98
aS'16'
p99
aasS'srls'
p100
(lp101
sS'pos_seq'
p102
(lp103
S'NNP'
p104
aS'NNP'
p105
aS'NNP'
p106
aS'NN'
p107
aS'IN'
p108
aS'NNS'
p109
aS'VBP'
p110
aS'JJ'
p111
aS'NNP'
p112
aS'NNP'
p113
aS'IN'
p114
aS'NNS'
p115
aS'IN'
p116
aS'DT'
p117
aS'NN'
p118
aS'NN'
p119
asS'ner_seq'
p120
(lp121
S'B-ORG'
p122
aS'I-ORG'
p123
aS'E-ORG'
p124
aS'O'
aS'O'
aS'O'
aS'O'
aS'O'
aS'O'
aS'O'
aS'O'
aS'O'
aS'O'
aS'O'
aS'O'
aS'O'
assb.