ccopy_reg
_reconstructor
p1
(c__main__
KBproperty
p2
c__builtin__
object
p3
NtRp4
(dp5
S'comment'
p6
S'is used to denote splitting of a Wikidata IRI to one or more IRIs00'
p7
sS'domain'
p8
S''
sS'instances_count'
p9
I0
sS'phrases'
p10
NsS'syn_hypo'
p11
S''
sS'label'
p12
S'Wikidata IRI slit'
p13
sS'range'
p14
S''
sS'uniq_subjs'
p15
S'0'
sS'uniq_objs'
p16
I0
sS'prop_uri'
p17
S'http://dbpedia.org/ontology/wikidataSplitIri'
p18
sS'annotations'
p19
(dp20
S'bag_of_words'
p21
(lp22
S'Wikidata'
p23
aS'IRI'
p24
aS'slit'
p25
aS'is'
p26
aS'used'
p27
aS'to'
p28
aS'denote'
p29
aS'splitting'
p30
aS'of'
p31
aS'a'
aS'Wikidata'
p32
aS'IRI'
p33
aS'to'
p34
aS'one'
p35
aS'or'
p36
aS'more'
p37
aS'IRIs00'
p38
asS'chunk_seq'
p39
(lp40
S'B-NP'
p41
aS'E-NP'
p42
aS'S-VP'
p43
aS'B-VP'
p44
aS'E-VP'
p45
aS'B-VP'
p46
aS'E-VP'
p47
aS'S-NP'
p48
aS'S-PP'
p49
aS'B-NP'
p50
aS'I-NP'
p51
aS'E-NP'
p52
aS'S-PP'
p53
aS'S-NP'
p54
aS'O'
aS'B-NP'
p55
aS'E-NP'
p56
asS'dep_seq'
p57
(lp58
(lp59
S'nn'
p60
aS'3'
aS'1'
aa(lp61
S'nn'
p62
aS'3'
aS'2'
aa(lp63
S'nsubjpass'
p64
aS'5'
aS'3'
aa(lp65
S'xsubj'
p66
aS'7'
aS'3'
aa(lp67
S'auxpass'
p68
aS'5'
aS'4'
aa(lp69
S'root'
p70
aS'0'
aS'5'
aa(lp71
S'aux'
p72
aS'7'
aS'6'
aa(lp73
S'xcomp'
p74
aS'5'
aS'7'
aa(lp75
S'dobj'
p76
aS'7'
aS'8'
aa(lp77
S'det'
p78
aS'12'
p79
aS'10'
p80
aa(lp81
S'nn'
p82
aS'12'
p83
aS'11'
p84
aa(lp85
S'prep_of'
p86
aS'8'
aS'12'
p87
aa(lp88
S'num'
p89
aS'17'
p90
aS'14'
p91
aa(lp92
S'conj_or'
p93
aS'14'
p94
aS'16'
p95
aa(lp96
S'prep_to'
p97
aS'7'
aS'17'
p98
aasS'srls'
p99
(lp100
(dp101
S'A1'
p102
S'Wikidata IRI slit'
p103
sS'A2'
p104
S'to denote splitting of a Wikidata IRI to one or more IRIs00'
p105
sS'V'
g27
sa(dp106
S'A1'
p107
S'splitting of a Wikidata IRI'
p108
sS'A0'
p109
S'Wikidata IRI slit'
p110
sS'A2'
p111
S'to one or more IRIs00'
p112
sS'V'
g29
sasS'pos_seq'
p113
(lp114
S'NNP'
p115
aS'NNP'
p116
aS'NN'
p117
aS'VBZ'
p118
aS'VBN'
p119
aS'TO'
p120
aS'VB'
p121
aS'NN'
p122
aS'IN'
p123
aS'DT'
p124
aS'NNP'
p125
aS'NNP'
p126
aS'TO'
p127
aS'CD'
p128
aS'CC'
p129
aS'JJR'
p130
aS'NN'
p131
asS'ner_seq'
p132
(lp133
S'B-ORG'
p134
aS'E-ORG'
p135
aS'O'
aS'O'
aS'O'
aS'O'
aS'O'
aS'O'
aS'O'
aS'O'
aS'B-ORG'
p136
aS'E-ORG'
p137
aS'O'
aS'O'
aS'O'
aS'O'
aS'S-PER'
p138
assb.