ccopy_reg
_reconstructor
p1
(c__main__
KBproperty
p2
c__builtin__
object
p3
NtRp4
(dp5
S'comment'
p6
S'611600'
p7
sS'domain'
p8
S'Saint '
p9
sS'instances_count'
p10
I116
sS'phrases'
p11
NsS'syn_hypo'
p12
S''
sS'label'
p13
S'canonized by'
p14
sS'range'
p15
S'Person '
p16
sS'uniq_subjs'
p17
S'116'
p18
sS'uniq_objs'
p19
I0
sS'prop_uri'
p20
S'http://dbpedia.org/ontology/canonizedBy'
p21
sS'annotations'
p22
(dp23
S'bag_of_words'
p24
(lp25
S'Saint'
p26
aS'canonized'
p27
aS'by'
p28
aS'Person'
p29
aS'611600'
p30
asS'chunk_seq'
p31
(lp32
S'S-NP'
p33
aS'S-VP'
p34
aS'S-PP'
p35
aS'S-NP'
p36
aS'O'
asS'dep_seq'
p37
(lp38
(lp39
S'nsubj'
p40
aS'2'
aS'1'
aa(lp41
S'root'
p42
aS'0'
aS'2'
aa(lp43
S'prep_by'
p44
aS'2'
aS'4'
aa(lp45
S'num'
p46
aS'4'
aS'5'
aasS'srls'
p47
(lp48
(dp49
S'A1'
p50
g26
sS'A0'
p51
S'by Person'
p52
sS'AM-TMP'
p53
g30
sS'V'
g27
sasS'pos_seq'
p54
(lp55
S'NN'
p56
aS'VBN'
p57
aS'IN'
p58
aS'NN'
p59
aS'CD'
p60
asS'ner_seq'
p61
(lp62
S'O'
aS'O'
aS'O'
aS'O'
aS'O'
assb.