ccopy_reg
_reconstructor
p1
(c__main__
KBproperty
p2
c__builtin__
object
p3
NtRp4
(dp5
S'comment'
p6
S'The rate and extent to which the active ingredient or active moiety is absorbed from a drug product and becomes available at the site of action. For drug products that are not intended to be absorbed into the bloodstream bioavailability may be assessed by measurements intended to reflect the rate and extent to which the active ingredient or active moiety becomes available at the site of action 21CFR320.1."642622'
p7
sS'domain'
p8
S'Drug '
p9
sS'instances_count'
p10
I642
sS'phrases'
p11
NsS'syn_hypo'
p12
S''
sS'label'
p13
S'Bioavailability'
p14
sS'range'
p15
S'float '
p16
sS'uniq_subjs'
p17
S'126'
p18
sS'uniq_objs'
p19
I0
sS'prop_uri'
p20
S'http://dbpedia.org/ontology/bioavailability'
p21
sS'annotations'
p22
(dp23
S'bag_of_words'
p24
(lp25
S'Drug'
p26
aS'Bioavailability'
p27
aS'float'
p28
aS'The'
p29
aS'rate'
p30
aS'and'
p31
aS'extent'
p32
aS'to'
p33
aS'which'
p34
aS'the'
p35
aS'active'
p36
aS'ingredient'
p37
aS'or'
p38
aS'active'
p39
aS'moiety'
p40
aS'is'
p41
aS'absorbed'
p42
aS'from'
p43
aS'a'
aS'drug'
p44
aS'product'
p45
aS'and'
p46
aS'becomes'
p47
aS'available'
p48
aS'at'
p49
aS'the'
p50
aS'site'
p51
aS'of'
p52
aS'action'
p53
aS'.'
aS'For'
p54
aS'drug'
p55
aS'products'
p56
aS'that'
p57
aS'are'
p58
aS'not'
p59
aS'intended'
p60
aS'to'
p61
aS'be'
p62
aS'absorbed'
p63
aS'into'
p64
aS'the'
p65
aS'bloodstream'
p66
aS'bioavailability'
p67
aS'may'
p68
aS'be'
p69
aS'assessed'
p70
aS'by'
p71
aS'measurements'
p72
aS'intended'
p73
aS'to'
p74
aS'reflect'
p75
aS'the'
p76
aS'rate'
p77
aS'and'
p78
aS'extent'
p79
aS'to'
p80
aS'which'
p81
aS'the'
p82
aS'active'
p83
aS'ingredient'
p84
aS'or'
p85
aS'active'
p86
aS'moiety'
p87
aS'becomes'
p88
aS'available'
p89
aS'at'
p90
aS'the'
p91
aS'site'
p92
aS'of'
p93
aS'action'
p94
aS'21CFR320.1'
p95
aS'.'
aS'"'
aS'642622'
p96
asS'chunk_seq'
p97
(lp98
S'B-NP'
p99
aS'E-NP'
p100
aS'S-VP'
p101
aS'B-NP'
p102
aS'I-NP'
p103
aS'I-NP'
p104
aS'E-NP'
p105
aS'S-PP'
p106
aS'S-NP'
p107
aS'B-NP'
p108
aS'I-NP'
p109
aS'E-NP'
p110
aS'O'
aS'B-NP'
p111
aS'E-NP'
p112
aS'B-VP'
p113
aS'E-VP'
p114
aS'S-PP'
p115
aS'B-NP'
p116
aS'I-NP'
p117
aS'E-NP'
p118
aS'O'
aS'S-VP'
p119
aS'S-ADJP'
p120
aS'S-PP'
p121
aS'B-NP'
p122
aS'E-NP'
p123
aS'S-PP'
p124
aS'S-NP'
p125
aS'O'
aS'S-PP'
p126
aS'B-NP'
p127
aS'E-NP'
p128
aS'S-NP'
p129
aS'B-VP'
p130
aS'I-VP'
p131
aS'I-VP'
p132
aS'I-VP'
p133
aS'I-VP'
p134
aS'E-VP'
p135
aS'S-PP'
p136
aS'B-NP'
p137
aS'I-NP'
p138
aS'E-NP'
p139
aS'B-VP'
p140
aS'I-VP'
p141
aS'E-VP'
p142
aS'S-PP'
p143
aS'S-NP'
p144
aS'B-VP'
p145
aS'I-VP'
p146
aS'E-VP'
p147
aS'B-NP'
p148
aS'I-NP'
p149
aS'I-NP'
p150
aS'E-NP'
p151
aS'S-PP'
p152
aS'S-NP'
p153
aS'B-NP'
p154
aS'I-NP'
p155
aS'E-NP'
p156
aS'O'
aS'B-NP'
p157
aS'E-NP'
p158
aS'S-VP'
p159
aS'S-ADJP'
p160
aS'S-PP'
p161
aS'B-NP'
p162
aS'E-NP'
p163
aS'S-PP'
p164
aS'S-NP'
p165
aS'S-NP'
p166
aS'O'
aS'O'
aS'O'
asS'dep_seq'
p167
(lp168
(lp169
S'nn'
p170
aS'2'
aS'1'
aa(lp171
S'dep'
p172
aS'51'
p173
aS'2'
aa(lp174
S'dep'
p175
aS'51'
p176
aS'3'
aa(lp177
S'det'
p178
aS'5'
aS'4'
aa(lp179
S'prep_to'
p180
aS'17'
p181
aS'5'
aa(lp182
S'dep'
p183
aS'51'
p184
aS'5'
aa(lp185
S'conj_and'
p186
aS'5'
aS'7'
aa(lp187
S'rel'
p188
aS'17'
p189
aS'8'
aa(lp190
S'det'
p191
aS'12'
p192
aS'10'
p193
aa(lp194
S'amod'
p195
aS'12'
p196
aS'11'
p197
aa(lp198
S'nsubjpass'
p199
aS'17'
p200
aS'12'
p201
aa(lp202
S'amod'
p203
aS'15'
p204
aS'14'
p205
aa(lp206
S'conj_or'
p207
aS'12'
p208
aS'15'
p209
aa(lp210
S'auxpass'
p211
aS'17'
p212
aS'16'
p213
aa(lp214
S'rcmod'
p215
aS'5'
aS'17'
p216
aa(lp217
S'det'
p218
aS'21'
p219
aS'19'
p220
aa(lp221
S'nn'
p222
aS'21'
p223
aS'20'
p224
aa(lp225
S'prep_from'
p226
aS'17'
p227
aS'21'
p228
aa(lp229
S'cop'
p230
aS'24'
p231
aS'23'
p232
aa(lp233
S'conj_and'
p234
aS'17'
p235
aS'24'
p236
aa(lp237
S'det'
p238
aS'27'
p239
aS'26'
p240
aa(lp241
S'prep_at'
p242
aS'24'
p243
aS'27'
p244
aa(lp245
S'prep_of'
p246
aS'27'
p247
aS'29'
p248
aa(lp249
S'nn'
p250
aS'33'
p251
aS'32'
p252
aa(lp253
S'prep_for'
p254
aS'5'
aS'33'
p255
aa(lp256
S'nsubjpass'
p257
aS'37'
p258
aS'33'
p259
aa(lp260
S'xsubj'
p261
aS'40'
p262
aS'33'
p263
aa(lp264
S'auxpass'
p265
aS'37'
p266
aS'35'
p267
aa(lp268
S'neg'
p269
aS'37'
p270
aS'36'
p271
aa(lp272
S'rcmod'
p273
aS'33'
p274
aS'37'
p275
aa(lp276
S'aux'
p277
aS'40'
p278
aS'38'
p279
aa(lp280
S'auxpass'
p281
aS'40'
p282
aS'39'
p283
aa(lp284
S'xcomp'
p285
aS'37'
p286
aS'40'
p287
aa(lp288
S'det'
p289
aS'44'
p290
aS'42'
p291
aa(lp292
S'nn'
p293
aS'44'
p294
aS'43'
p295
aa(lp296
S'prep_into'
p297
aS'40'
p298
aS'44'
p299
aa(lp300
S'dep'
p301
aS'51'
p302
aS'45'
p303
aa(lp304
S'dep'
p305
aS'51'
p306
aS'46'
p307
aa(lp308
S'dep'
p309
aS'51'
p310
aS'47'
p311
aa(lp312
S'dep'
p313
aS'51'
p314
aS'48'
p315
aa(lp316
S'dep'
p317
aS'51'
p318
aS'49'
p319
aa(lp320
S'dep'
p321
aS'51'
p322
aS'50'
p323
aa(lp324
S'root'
p325
aS'0'
aS'51'
p326
aa(lp327
S'dep'
p328
aS'51'
p329
aS'52'
p330
aa(lp331
S'det'
p332
aS'54'
p333
aS'53'
p334
aa(lp335
S'dep'
p336
aS'51'
p337
aS'54'
p338
aa(lp339
S'prep_to'
p340
aS'66'
p341
aS'54'
p342
aa(lp343
S'conj_and'
p344
aS'54'
p345
aS'56'
p346
aa(lp347
S'rel'
p348
aS'66'
p349
aS'57'
p350
aa(lp351
S'det'
p352
aS'61'
p353
aS'59'
p354
aa(lp355
S'amod'
p356
aS'61'
p357
aS'60'
p358
aa(lp359
S'nsubj'
p360
aS'66'
p361
aS'61'
p362
aa(lp363
S'amod'
p364
aS'64'
p365
aS'63'
p366
aa(lp367
S'conj_or'
p368
aS'61'
p369
aS'64'
p370
aa(lp371
S'cop'
p372
aS'66'
p373
aS'65'
p374
aa(lp375
S'rcmod'
p376
aS'54'
p377
aS'66'
p378
aa(lp379
S'det'
p380
aS'69'
p381
aS'68'
p382
aa(lp383
S'prep_at'
p384
aS'66'
p385
aS'69'
p386
aa(lp387
S'prep_of'
p388
aS'69'
p389
aS'71'
p390
aa(lp391
S'dep'
p392
aS'69'
p393
aS'72'
p394
aa(lp395
S'dep'
p396
aS'51'
p397
aS'74'
p398
aa(lp399
S'dep'
p400
aS'51'
p401
aS'75'
p402
aasS'srls'
p403
(lp404
(dp405
S'A1'
p406
S'The rate and extent to which the active ingredient or active moiety is absorbed from a drug product  For drug products that are not intended to be absorbed into the bloodstream bioavailability may be assessed by measurements intended to reflect the rate and extent to which the active ingredient or active moiety becomes available at the site of action 21CFR320.1'
p407
sS'A0'
p408
S'Drug Bioavailability'
p409
sS'V'
g28
sa(dp410
S'A1'
p411
S'the active ingredient or active moiety'
p412
sS'A2'
p413
S'from a drug product'
p414
sS'V'
g42
sa(dp415
S'A1'
p416
S'Drug Bioavailability  the active ingredient or active moiety'
p417
sS'A2'
p418
S'available at the site of action  For drug products that are not intended to be absorbed into the bloodstream bioavailability may be assessed by measurements intended to reflect the rate and extent to which the active ingredient or active moiety becomes available at the site of action 21CFR320.1 . " 642622'
p419
sS'V'
g47
sa(dp420
S'A1'
p421
S'to be absorbed into the bloodstream bioavailability'
p422
sS'A2'
p423
S'the active ingredient or active moiety  For drug products'
p424
sS'AM-NEG'
p425
g59
sS'R-A2'
p426
g57
sS'V'
g60
sa(dp427
S'A1'
p428
S'drug products'
p429
sS'A2'
p430
S'into the bloodstream bioavailability'
p431
sS'R-A1'
p432
g57
sS'V'
g63
sa(dp433
S'A1'
p434
S'For drug products that are not intended to be absorbed into the bloodstream bioavailability'
p435
sS'A0'
p436
S'by measurements intended to reflect the rate and extent to which the active ingredient or active moiety becomes available at the site of action 21CFR320.1 . " 642622'
p437
sS'V'
g70
sS'AM-MOD'
p438
g68
sa(dp439
S'A1'
p440
S'to reflect the rate and extent to which the active ingredient or active moiety becomes available at the site of action 21CFR320.1 . " 642622'
p441
sS'V'
g73
sa(dp442
S'A1'
p443
S'the rate and extent to which the active ingredient or active moiety becomes available at the site of action 21CFR320.1 . " 642622'
p444
sS'A2'
p445
S'the active ingredient or active moiety  the bloodstream bioavailability'
p446
sS'V'
g75
sa(dp447
S'A1'
p448
S'the active ingredient or active moiety'
p449
sS'A2'
p450
S'available at the site of action 21CFR320.1  " 642622'
p451
sS'V'
g88
sasS'pos_seq'
p452
(lp453
S'NN'
p454
aS'NN'
p455
aS'VBP'
p456
aS'DT'
p457
aS'NN'
p458
aS'CC'
p459
aS'NN'
p460
aS'TO'
p461
aS'WDT'
p462
aS'DT'
p463
aS'JJ'
p464
aS'NN'
p465
aS'CC'
p466
aS'JJ'
p467
aS'NN'
p468
aS'VBZ'
p469
aS'VBN'
p470
aS'IN'
p471
aS'DT'
p472
aS'NN'
p473
aS'NN'
p474
aS'CC'
p475
aS'VBZ'
p476
aS'JJ'
p477
aS'IN'
p478
aS'DT'
p479
aS'NN'
p480
aS'IN'
p481
aS'NN'
p482
aS'.'
aS'IN'
p483
aS'NN'
p484
aS'NNS'
p485
aS'WDT'
p486
aS'VBP'
p487
aS'RB'
p488
aS'VBN'
p489
aS'TO'
p490
aS'VB'
p491
aS'VBN'
p492
aS'IN'
p493
aS'DT'
p494
aS'NN'
p495
aS'NN'
p496
aS'MD'
p497
aS'VB'
p498
aS'VBN'
p499
aS'IN'
p500
aS'NNS'
p501
aS'VBN'
p502
aS'TO'
p503
aS'VB'
p504
aS'DT'
p505
aS'NN'
p506
aS'CC'
p507
aS'NN'
p508
aS'TO'
p509
aS'WDT'
p510
aS'DT'
p511
aS'JJ'
p512
aS'NN'
p513
aS'CC'
p514
aS'JJ'
p515
aS'NN'
p516
aS'VBZ'
p517
aS'JJ'
p518
aS'IN'
p519
aS'DT'
p520
aS'NN'
p521
aS'IN'
p522
aS'NN'
p523
aS'NNP'
p524
aS'.'
aS'FW'
p525
aS'FW'
p526
asS'ner_seq'
p527
(lp528
S'O'
aS'O'
aS'O'
aS'O'
aS'O'
aS'O'
aS'O'
aS'O'
aS'O'
aS'O'
aS'O'
aS'O'
aS'O'
aS'O'
aS'O'
aS'O'
aS'O'
aS'O'
aS'O'
aS'O'
aS'O'
aS'O'
aS'O'
aS'O'
aS'O'
aS'O'
aS'O'
aS'O'
aS'O'
aS'O'
aS'O'
aS'O'
aS'O'
aS'O'
aS'O'
aS'O'
aS'O'
aS'O'
aS'O'
aS'O'
aS'O'
aS'O'
aS'O'
aS'O'
aS'O'
aS'O'
aS'O'
aS'O'
aS'O'
aS'O'
aS'O'
aS'O'
aS'O'
aS'O'
aS'O'
aS'O'
aS'O'
aS'O'
aS'O'
aS'O'
aS'O'
aS'O'
aS'O'
aS'O'
aS'O'
aS'O'
aS'O'
aS'O'
aS'O'
aS'O'
aS'O'
aS'S-ORG'
p529
aS'O'
aS'O'
aS'O'
assb.