ccopy_reg
_reconstructor
p1
(c__main__
KBproperty
p2
c__builtin__
object
p3
NtRp4
(dp5
S'comment'
p6
S'00'
p7
sS'domain'
p8
S'Galaxy '
p9
sS'instances_count'
p10
I0
sS'phrases'
p11
NsS'syn_hypo'
p12
Vknotbunchclumpclusterclusteringswadbunchclumpclusterclusteringtuftbunchclumpclusterclusteringtussock
p13
sS'label'
p14
S'cluster'
p15
sS'range'
p16
S''
sS'uniq_subjs'
p17
S'0'
sS'uniq_objs'
p18
I0
sS'prop_uri'
p19
S'http://dbpedia.org/ontology/cluster'
p20
sS'annotations'
p21
(dp22
S'bag_of_words'
p23
(lp24
S'Galaxy'
p25
aS'cluster'
p26
aS'00'
p27
asS'chunk_seq'
p28
(lp29
S'S-NP'
p30
aS'S-VP'
p31
aS'O'
asS'dep_seq'
p32
(lp33
(lp34
S'nsubj'
p35
aS'2'
aS'1'
aa(lp36
S'root'
p37
aS'0'
aS'2'
aa(lp38
S'dobj'
p39
aS'2'
aS'3'
aasS'srls'
p40
(lp41
(dp42
S'A1'
p43
g27
sS'A0'
p44
g25
sS'V'
g26
sasS'pos_seq'
p45
(lp46
S'NNP'
p47
aS'VBP'
p48
aS'CD'
p49
asS'ner_seq'
p50
(lp51
S'S-LOC'
p52
aS'O'
aS'O'
assb.