ccopy_reg
_reconstructor
p1
(c__main__
KBproperty
p2
c__builtin__
object
p3
NtRp4
(dp5
S'comment'
p6
S'circuit length \\xce\\xbc'
p7
sS'domain'
p8
S'Formula One Racing '
p9
sS'instances_count'
p10
I0
sS'phrases'
p11
NsS'syn_hypo'
p12
S''
sS'label'
p13
g7
sS'range'
p14
S'double '
p15
sS'uniq_subjs'
p16
S'0'
sS'uniq_objs'
p17
I0
sS'prop_uri'
p18
S'http://dbpedia.org/ontology/circuitLength'
p19
sS'annotations'
p20
(dp21
S'bag_of_words'
p22
(lp23
S'Formula'
p24
aS'One'
p25
aS'Racing'
p26
aS'circuit'
p27
aS'Length'
p28
aS'double'
p29
aS'circuit'
p30
aS'length'
p31
aS'\\'
aS'xce'
p32
aS'\\'
aS'xbc'
p33
asS'chunk_seq'
p34
(lp35
S'B-NP'
p36
aS'I-NP'
p37
aS'I-NP'
p38
aS'I-NP'
p39
aS'I-NP'
p40
aS'I-NP'
p41
aS'I-NP'
p42
aS'E-NP'
p43
aS'O'
aS'O'
aS'O'
aS'O'
asS'dep_seq'
p44
(lp45
(lp46
S'root'
p47
aS'0'
aS'1'
aa(lp48
S'num'
p49
aS'5'
aS'2'
aa(lp50
S'nn'
p51
aS'5'
aS'3'
aa(lp52
S'nn'
p53
aS'5'
aS'4'
aa(lp54
S'dobj'
p55
aS'1'
aS'5'
aa(lp56
S'dobj'
p57
aS'9'
aS'5'
aa(lp58
S'amod'
p59
aS'8'
aS'6'
aa(lp60
S'nn'
p61
aS'8'
aS'7'
aa(lp62
S'nsubj'
p63
aS'9'
aS'8'
aa(lp64
S'rcmod'
p65
aS'5'
aS'9'
aa(lp66
S'discourse'
p67
aS'9'
aS'10'
p68
aa(lp69
S'dep'
p70
aS'10'
p71
aS'11'
p72
aa(lp73
S'dep'
p74
aS'10'
p75
aS'12'
p76
aasS'srls'
p77
(lp78
sS'pos_seq'
p79
(lp80
S'NN'
p81
aS'CD'
p82
aS'NNP'
p83
aS'NN'
p84
aS'NN'
p85
aS'JJ'
p86
aS'NN'
p87
aS'NN'
p88
aS'FW'
p89
aS'FW'
p90
aS'FW'
p91
aS'FW'
p92
asS'ner_seq'
p93
(lp94
S'O'
aS'O'
aS'O'
aS'O'
aS'O'
aS'O'
aS'O'
aS'O'
aS'O'
aS'O'
aS'O'
aS'O'
assb.