ccopy_reg
_reconstructor
p1
(c__main__
KBproperty
p2
c__builtin__
object
p3
NtRp4
(dp5
S'comment'
p6
S'A game artist is an artist who creates art for one or more types of games. Game artists are responsible for all of the aspects of game development that call for visual art.759655'
p7
sS'domain'
p8
S'Video Game '
p9
sS'instances_count'
p10
I311
sS'phrases'
p11
NsS'syn_hypo'
p12
S''
sS'label'
p13
S'game artist'
p14
sS'range'
p15
S'Person '
p16
sS'uniq_subjs'
p17
S'311'
p18
sS'uniq_objs'
p19
I0
sS'prop_uri'
p20
S'http://dbpedia.org/ontology/gameArtist'
p21
sS'annotations'
p22
(dp23
S'bag_of_words'
p24
(lp25
S'Video'
p26
aS'Game'
p27
aS'game'
p28
aS'artist'
p29
aS'Person'
p30
aS'A'
aS'game'
p31
aS'artist'
p32
aS'is'
p33
aS'an'
p34
aS'artist'
p35
aS'who'
p36
aS'creates'
p37
aS'art'
p38
aS'for'
p39
aS'one'
p40
aS'or'
p41
aS'more'
p42
aS'types'
p43
aS'of'
p44
aS'games'
p45
aS'.'
aS'Game'
p46
aS'artists'
p47
aS'are'
p48
aS'responsible'
p49
aS'for'
p50
aS'all'
p51
aS'of'
p52
aS'the'
p53
aS'aspects'
p54
aS'of'
p55
aS'game'
p56
aS'development'
p57
aS'that'
p58
aS'call'
p59
aS'for'
p60
aS'visual'
p61
aS'art.759655'
p62
asS'chunk_seq'
p63
(lp64
S'B-NP'
p65
aS'I-NP'
p66
aS'I-NP'
p67
aS'I-NP'
p68
aS'E-NP'
p69
aS'B-NP'
p70
aS'I-NP'
p71
aS'E-NP'
p72
aS'S-VP'
p73
aS'B-NP'
p74
aS'E-NP'
p75
aS'S-NP'
p76
aS'S-VP'
p77
aS'S-NP'
p78
aS'S-PP'
p79
aS'B-NP'
p80
aS'I-NP'
p81
aS'I-NP'
p82
aS'E-NP'
p83
aS'S-PP'
p84
aS'S-NP'
p85
aS'O'
aS'B-NP'
p86
aS'E-NP'
p87
aS'S-VP'
p88
aS'S-ADJP'
p89
aS'S-PP'
p90
aS'S-NP'
p91
aS'S-PP'
p92
aS'B-NP'
p93
aS'E-NP'
p94
aS'S-PP'
p95
aS'B-NP'
p96
aS'E-NP'
p97
aS'S-NP'
p98
aS'S-VP'
p99
aS'S-PP'
p100
aS'B-NP'
p101
aS'E-NP'
p102
asS'dep_seq'
p103
(lp104
(lp105
S'nn'
p106
aS'5'
aS'1'
aa(lp107
S'nn'
p108
aS'5'
aS'2'
aa(lp109
S'nn'
p110
aS'5'
aS'3'
aa(lp111
S'nn'
p112
aS'5'
aS'4'
aa(lp113
S'root'
p114
aS'0'
aS'5'
aa(lp115
S'det'
p116
aS'8'
aS'6'
aa(lp117
S'nn'
p118
aS'8'
aS'7'
aa(lp119
S'nsubj'
p120
aS'9'
aS'8'
aa(lp121
S'rcmod'
p122
aS'5'
aS'9'
aa(lp123
S'det'
p124
aS'11'
p125
aS'10'
p126
aa(lp127
S'nsubj'
p128
aS'13'
p129
aS'11'
p130
aa(lp131
S'nsubj'
p132
aS'26'
p133
aS'11'
p134
aa(lp135
S'rcmod'
p136
aS'11'
p137
aS'13'
p138
aa(lp139
S'dobj'
p140
aS'13'
p141
aS'14'
p142
aa(lp143
S'num'
p144
aS'19'
p145
aS'16'
p146
aa(lp147
S'conj_or'
p148
aS'16'
p149
aS'18'
p150
aa(lp151
S'prep_for'
p152
aS'14'
p153
aS'19'
p154
aa(lp155
S'nn'
p156
aS'24'
p157
aS'21'
p158
aa(lp159
S'nn'
p160
aS'24'
p161
aS'23'
p162
aa(lp163
S'prep_of'
p164
aS'19'
p165
aS'24'
p166
aa(lp167
S'cop'
p168
aS'26'
p169
aS'25'
p170
aa(lp171
S'ccomp'
p172
aS'9'
aS'26'
p173
aa(lp174
S'prep_for'
p175
aS'26'
p176
aS'28'
p177
aa(lp178
S'det'
p179
aS'31'
p180
aS'30'
p181
aa(lp182
S'prep_of'
p183
aS'28'
p184
aS'31'
p185
aa(lp186
S'nsubj'
p187
aS'36'
p188
aS'31'
p189
aa(lp190
S'nn'
p191
aS'34'
p192
aS'33'
p193
aa(lp194
S'prep_of'
p195
aS'31'
p196
aS'34'
p197
aa(lp198
S'rcmod'
p199
aS'31'
p200
aS'36'
p201
aa(lp202
S'amod'
p203
aS'39'
p204
aS'38'
p205
aa(lp206
S'prep_for'
p207
aS'36'
p208
aS'39'
p209
aasS'srls'
p210
(lp211
(dp212
S'A1'
p213
g38
sS'A0'
p214
S'an artist'
p215
sS'R-A0'
p216
g36
sS'AM-PNC'
p217
S'for one or more types of games'
p218
sS'V'
g37
sa(dp219
S'A2'
p220
S'for visual art.759655'
p221
sS'R-A0'
p222
g58
sS'V'
g59
sasS'pos_seq'
p223
(lp224
S'NNP'
p225
aS'NNP'
p226
aS'NN'
p227
aS'NN'
p228
aS'NN'
p229
aS'DT'
p230
aS'NN'
p231
aS'NN'
p232
aS'VBZ'
p233
aS'DT'
p234
aS'NN'
p235
aS'WP'
p236
aS'VBZ'
p237
aS'NN'
p238
aS'IN'
p239
aS'CD'
p240
aS'CC'
p241
aS'JJR'
p242
aS'NNS'
p243
aS'IN'
p244
aS'NNS'
p245
aS'.'
aS'NNP'
p246
aS'NNS'
p247
aS'VBP'
p248
aS'JJ'
p249
aS'IN'
p250
aS'DT'
p251
aS'IN'
p252
aS'DT'
p253
aS'NNS'
p254
aS'IN'
p255
aS'NN'
p256
aS'NN'
p257
aS'WDT'
p258
aS'VBP'
p259
aS'IN'
p260
aS'JJ'
p261
aS'NN'
p262
asS'ner_seq'
p263
(lp264
S'O'
aS'O'
aS'O'
aS'O'
aS'O'
aS'O'
aS'O'
aS'O'
aS'O'
aS'O'
aS'O'
aS'O'
aS'O'
aS'O'
aS'O'
aS'O'
aS'O'
aS'O'
aS'O'
aS'O'
aS'O'
aS'O'
aS'O'
aS'O'
aS'O'
aS'O'
aS'O'
aS'O'
aS'O'
aS'O'
aS'O'
aS'O'
aS'O'
aS'O'
aS'O'
aS'O'
aS'O'
aS'O'
aS'O'
assb.