ccopy_reg
_reconstructor
p1
(c__main__
KBproperty
p2
c__builtin__
object
p3
NtRp4
(dp5
S'comment'
p6
S'00'
p7
sS'domain'
p8
S'Statistic '
p9
sS'instances_count'
p10
I0
sS'phrases'
p11
NsS'syn_hypo'
p12
Vaveragestatisticnormstatisticdemographicstatisticdeviationstatisticmomentstatisticnonparametric_statisticstatisticdistribution_free_statisticstatisticparametric_statisticstatistictime_seriesstatisticvital_statistics
p13
sS'label'
p14
S'statistic'
p15
sS'range'
p16
S''
sS'uniq_subjs'
p17
S'0'
sS'uniq_objs'
p18
I0
sS'prop_uri'
p19
S'http://dbpedia.org/ontology/statistic'
p20
sS'annotations'
p21
(dp22
S'bag_of_words'
p23
(lp24
S'Statistic'
p25
aS'statistic'
p26
aS'00'
p27
asS'chunk_seq'
p28
(lp29
S'B-NP'
p30
aS'E-NP'
p31
aS'O'
asS'dep_seq'
p32
(lp33
(lp34
S'nn'
p35
aS'2'
aS'1'
aa(lp36
S'root'
p37
aS'0'
aS'2'
aa(lp38
S'advmod'
p39
aS'2'
aS'3'
aasS'srls'
p40
(lp41
sS'pos_seq'
p42
(lp43
S'NN'
p44
aS'NN'
p45
aS'CD'
p46
asS'ner_seq'
p47
(lp48
S'O'
aS'O'
aS'O'
assb.