ccopy_reg
_reconstructor
p1
(c__main__
KBproperty
p2
c__builtin__
object
p3
NtRp4
(dp5
S'comment'
p6
S'In biology kingdom Latin: regnum pl. regna is a taxonomic rank which is either the highest rank or in the more recent three-domain system the rank below domain.291751291066'
p7
sS'domain'
p8
S'Species '
p9
sS'instances_count'
p10
I291751
sS'phrases'
p11
NsS'syn_hypo'
p12
Vlotuslandkingdomlandrealmlotus_land
p13
sS'label'
p14
S'kingdom'
p15
sS'range'
p16
S''
sS'uniq_subjs'
p17
S'43'
p18
sS'uniq_objs'
p19
I0
sS'prop_uri'
p20
S'http://dbpedia.org/ontology/kingdom'
p21
sS'annotations'
p22
(dp23
S'bag_of_words'
p24
(lp25
S'Species'
p26
aS'kingdom'
p27
aS'In'
p28
aS'biology'
p29
aS'kingdom'
p30
aS'Latin'
p31
aS':'
aS'regnum'
p32
aS'pl.'
p33
aS'regna'
p34
aS'is'
p35
aS'a'
aS'taxonomic'
p36
aS'rank'
p37
aS'which'
p38
aS'is'
p39
aS'either'
p40
aS'the'
p41
aS'highest'
p42
aS'rank'
p43
aS'or'
p44
aS'in'
p45
aS'the'
p46
aS'more'
p47
aS'recent'
p48
aS'three-'
p49
aS'domain'
p50
aS'system'
p51
aS'the'
p52
aS'rank'
p53
aS'below'
p54
aS'domain.291751291066'
p55
asS'chunk_seq'
p56
(lp57
S'B-NP'
p58
aS'E-NP'
p59
aS'S-PP'
p60
aS'B-NP'
p61
aS'E-NP'
p62
aS'S-ADVP'
p63
aS'O'
aS'B-NP'
p64
aS'I-NP'
p65
aS'E-NP'
p66
aS'S-VP'
p67
aS'B-NP'
p68
aS'I-NP'
p69
aS'E-NP'
p70
aS'S-NP'
p71
aS'S-VP'
p72
aS'O'
aS'B-NP'
p73
aS'I-NP'
p74
aS'E-NP'
p75
aS'O'
aS'S-PP'
p76
aS'B-NP'
p77
aS'I-NP'
p78
aS'I-NP'
p79
aS'I-NP'
p80
aS'I-NP'
p81
aS'E-NP'
p82
aS'B-NP'
p83
aS'E-NP'
p84
aS'S-PP'
p85
aS'S-NP'
p86
asS'dep_seq'
p87
(lp88
(lp89
S'nn'
p90
aS'2'
aS'1'
aa(lp91
S'root'
p92
aS'0'
aS'2'
aa(lp93
S'prep_in'
p94
aS'2'
aS'4'
aa(lp95
S'dep'
p96
aS'4'
aS'5'
aa(lp97
S'amod'
p98
aS'4'
aS'6'
aa(lp99
S'dep'
p100
aS'10'
p101
aS'8'
aa(lp102
S'dep'
p103
aS'10'
p104
aS'9'
aa(lp105
S'nsubj'
p106
aS'14'
p107
aS'10'
p108
aa(lp109
S'cop'
p110
aS'14'
p111
aS'11'
p112
aa(lp113
S'det'
p114
aS'14'
p115
aS'12'
p116
aa(lp117
S'amod'
p118
aS'14'
p119
aS'13'
p120
aa(lp121
S'dep'
p122
aS'2'
aS'14'
p123
aa(lp124
S'nsubj'
p125
aS'20'
p126
aS'14'
p127
aa(lp128
S'cop'
p129
aS'20'
p130
aS'16'
p131
aa(lp132
S'preconj'
p133
aS'20'
p134
aS'17'
p135
aa(lp136
S'det'
p137
aS'20'
p138
aS'18'
p139
aa(lp140
S'amod'
p141
aS'20'
p142
aS'19'
p143
aa(lp144
S'rcmod'
p145
aS'14'
p146
aS'20'
p147
aa(lp148
S'conj_or'
p149
aS'20'
p150
aS'22'
p151
aa(lp152
S'det'
p153
aS'28'
p154
aS'23'
p155
aa(lp156
S'advmod'
p157
aS'28'
p158
aS'24'
p159
aa(lp160
S'amod'
p161
aS'28'
p162
aS'25'
p163
aa(lp164
S'amod'
p165
aS'28'
p166
aS''
aa(lp167
S'nn'
p168
aS'28'
p169
aS'27'
p170
aa(lp171
S'pobj'
p172
aS'22'
p173
aS'28'
p174
aa(lp175
S'det'
p176
aS'30'
p177
aS'29'
p178
aa(lp179
S'dep'
p180
aS'20'
p181
aS'30'
p182
aa(lp183
S'prep_below'
p184
aS'30'
p185
aS'32'
p186
aasS'srls'
p187
(lp188
sS'pos_seq'
p189
(lp190
S'NNS'
p191
aS'NN'
p192
aS'IN'
p193
aS'NN'
p194
aS'FW'
p195
aS'FW'
p196
aS'FW'
p197
aS'FW'
p198
aS'FW'
p199
aS'FW'
p200
aS'VBZ'
p201
aS'DT'
p202
aS'JJ'
p203
aS'NN'
p204
aS'WDT'
p205
aS'VBZ'
p206
aS'CC'
p207
aS'DT'
p208
aS'JJS'
p209
aS'NN'
p210
aS'CC'
p211
aS'IN'
p212
aS'DT'
p213
aS'RBR'
p214
aS'JJ'
p215
aS'JJ'
p216
aS'NN'
p217
aS'NN'
p218
aS'DT'
p219
aS'NN'
p220
aS'IN'
p221
aS'NN'
p222
asS'ner_seq'
p223
(lp224
S'O'
aS'O'
aS'O'
aS'O'
aS'O'
aS'S-MISC'
p225
aS'O'
aS'O'
aS'O'
aS'O'
aS'O'
aS'O'
aS'O'
aS'O'
aS'O'
aS'O'
aS'O'
aS'O'
aS'O'
aS'O'
aS'O'
aS'O'
aS'O'
aS'O'
aS'O'
aS'O'
aS'O'
aS'O'
aS'O'
aS'O'
aS'O'
aS'O'
assb.