ccopy_reg
_reconstructor
p1
(c__main__
KBproperty
p2
c__builtin__
object
p3
NtRp4
(dp5
S'comment'
p6
S'schools that they attended11959076915'
p7
sS'domain'
p8
S'Person '
p9
sS'instances_count'
p10
I10040
sS'phrases'
p11
(lp12
S' studied'
p13
aS' graduated from'
p14
aS' school'
p15
aS' attended'
p16
aS' attend'
p17
aS' classmate'
p18
aS' attended;college'
p19
aS' graduate;university'
p20
aS'attend;unversity\n'
p21
asS'syn_hypo'
p22
S''
sS'label'
p23
S'alma mater'
p24
sS'range'
p25
S'Educational Institution '
p26
sS'uniq_subjs'
p27
S'10040'
p28
sS'uniq_objs'
p29
I0
sS'prop_uri'
p30
S'http://dbpedia.org/ontology/almaMater'
p31
sS'annotations'
p32
(dp33
S'bag_of_words'
p34
(lp35
S'Person'
p36
aS'alma'
p37
aS'mater'
p38
aS'Educational'
p39
aS'Institution'
p40
aS'schools'
p41
aS'that'
p42
aS'they'
p43
aS'attended11959076915'
p44
asS'chunk_seq'
p45
(lp46
S'B-NP'
p47
aS'I-NP'
p48
aS'I-NP'
p49
aS'I-NP'
p50
aS'I-NP'
p51
aS'E-NP'
p52
aS'S-SBAR'
p53
aS'S-NP'
p54
aS'S-ADJP'
p55
asS'dep_seq'
p56
(lp57
(lp58
S'nn'
p59
aS'6'
aS'1'
aa(lp60
S'nn'
p61
aS'6'
aS'2'
aa(lp62
S'nn'
p63
aS'6'
aS'3'
aa(lp64
S'nn'
p65
aS'6'
aS'4'
aa(lp66
S'nn'
p67
aS'6'
aS'5'
aa(lp68
S'root'
p69
aS'0'
aS'6'
aa(lp70
S'dobj'
p71
aS'9'
aS'6'
aa(lp72
S'mark'
p73
aS'9'
aS'7'
aa(lp74
S'nsubj'
p75
aS'9'
aS'8'
aa(lp76
S'dep'
p77
aS'6'
aS'9'
aasS'srls'
p78
(lp79
sS'pos_seq'
p80
(lp81
S'NN'
p82
aS'FW'
p83
aS'FW'
p84
aS'NNP'
p85
aS'NNP'
p86
aS'NNS'
p87
aS'IN'
p88
aS'PRP'
p89
aS'.'
asS'ner_seq'
p90
(lp91
S'O'
aS'O'
aS'O'
aS'O'
aS'O'
aS'O'
aS'O'
aS'O'
aS'O'
assb.