ccopy_reg
_reconstructor
p1
(c__main__
KBproperty
p2
c__builtin__
object
p3
NtRp4
(dp5
S'comment'
p6
S'the company that produced the work e.g. Film MusicalWork Software00'
p7
sS'domain'
p8
S'Work '
p9
sS'instances_count'
p10
I0
sS'phrases'
p11
NsS'syn_hypo'
p12
S''
sS'label'
p13
S'production company'
p14
sS'range'
p15
S'Company '
p16
sS'uniq_subjs'
p17
S'0'
sS'uniq_objs'
p18
I0
sS'prop_uri'
p19
S'http://dbpedia.org/ontology/productionCompany'
p20
sS'annotations'
p21
(dp22
S'bag_of_words'
p23
(lp24
S'Work'
p25
aS'production'
p26
aS'company'
p27
aS'Company'
p28
aS'the'
p29
aS'company'
p30
aS'that'
p31
aS'produced'
p32
aS'the'
p33
aS'work'
p34
aS'e.g.'
p35
aS'Film'
p36
aS'MusicalWork'
p37
aS'Software00'
p38
asS'chunk_seq'
p39
(lp40
S'B-NP'
p41
aS'I-NP'
p42
aS'I-NP'
p43
aS'E-NP'
p44
aS'B-NP'
p45
aS'E-NP'
p46
aS'S-NP'
p47
aS'S-VP'
p48
aS'B-NP'
p49
aS'E-NP'
p50
aS'S-PP'
p51
aS'B-NP'
p52
aS'I-NP'
p53
aS'E-NP'
p54
asS'dep_seq'
p55
(lp56
(lp57
S'nn'
p58
aS'4'
aS'1'
aa(lp59
S'nn'
p60
aS'4'
aS'2'
aa(lp61
S'nn'
p62
aS'4'
aS'3'
aa(lp63
S'dep'
p64
aS'6'
aS'4'
aa(lp65
S'det'
p66
aS'6'
aS'5'
aa(lp67
S'root'
p68
aS'0'
aS'6'
aa(lp69
S'nsubj'
p70
aS'8'
aS'6'
aa(lp71
S'rcmod'
p72
aS'6'
aS'8'
aa(lp73
S'det'
p74
aS'10'
p75
aS'9'
aa(lp76
S'dobj'
p77
aS'8'
aS'10'
p78
aa(lp79
S'nn'
p80
aS'14'
p81
aS'12'
p82
aa(lp83
S'nn'
p84
aS'14'
p85
aS'13'
p86
aa(lp87
S'prep_e.g.'
p88
aS'10'
p89
aS'14'
p90
aasS'srls'
p91
(lp92
(dp93
S'A1'
p94
S'the work e.g. Film MusicalWork Software00'
p95
sS'A0'
p96
S'Work production company Company the company'
p97
sS'R-A0'
p98
g31
sS'V'
g32
sasS'pos_seq'
p99
(lp100
S'NN'
p101
aS'NN'
p102
aS'NN'
p103
aS'NNP'
p104
aS'DT'
p105
aS'NN'
p106
aS'WDT'
p107
aS'VBD'
p108
aS'DT'
p109
aS'NN'
p110
aS'IN'
p111
aS'NNP'
p112
aS'NNP'
p113
aS'NNP'
p114
asS'ner_seq'
p115
(lp116
S'O'
aS'O'
aS'O'
aS'O'
aS'O'
aS'O'
aS'O'
aS'O'
aS'O'
aS'O'
aS'O'
aS'B-MISC'
p117
aS'I-MISC'
p118
aS'E-MISC'
p119
assb.