ccopy_reg
_reconstructor
p1
(c__main__
KBproperty
p2
c__builtin__
object
p3
NtRp4
(dp5
S'comment'
p6
S'ski piste kilometre \\xce\\xbc'
p7
sS'domain'
p8
S'Place '
p9
sS'instances_count'
p10
I0
sS'phrases'
p11
NsS'syn_hypo'
p12
S''
sS'label'
p13
g7
sS'range'
p14
S'double '
p15
sS'uniq_subjs'
p16
S'0'
sS'uniq_objs'
p17
I0
sS'prop_uri'
p18
S'http://dbpedia.org/ontology/skiPisteKilometre'
p19
sS'annotations'
p20
(dp21
S'bag_of_words'
p22
(lp23
S'Place'
p24
aS'ski'
p25
aS'Piste'
p26
aS'Kilometre'
p27
aS'double'
p28
aS'ski'
p29
aS'piste'
p30
aS'kilometre'
p31
aS'\\'
aS'xce'
p32
aS'\\'
aS'xbc'
p33
asS'chunk_seq'
p34
(lp35
S'B-NP'
p36
aS'I-NP'
p37
aS'I-NP'
p38
aS'I-NP'
p39
aS'I-NP'
p40
aS'I-NP'
p41
aS'E-NP'
p42
aS'S-VP'
p43
aS'O'
aS'O'
aS'O'
aS'O'
asS'dep_seq'
p44
(lp45
(lp46
S'root'
p47
aS'0'
aS'1'
aa(lp48
S'dep'
p49
aS'1'
aS'2'
aa(lp50
S'dep'
p51
aS'1'
aS'3'
aa(lp52
S'dep'
p53
aS'1'
aS'4'
aa(lp54
S'dep'
p55
aS'1'
aS'5'
aa(lp56
S'dep'
p57
aS'1'
aS'6'
aa(lp58
S'dep'
p59
aS'1'
aS'7'
aa(lp60
S'dep'
p61
aS'1'
aS'8'
aa(lp62
S'dep'
p63
aS'1'
aS'9'
aa(lp64
S'dep'
p65
aS'1'
aS'10'
p66
aa(lp67
S'dep'
p68
aS'1'
aS'11'
p69
aa(lp70
S'dep'
p71
aS'1'
aS'12'
p72
aasS'srls'
p73
(lp74
sS'pos_seq'
p75
(lp76
S'NN'
p77
aS'NN'
p78
aS'NN'
p79
aS'NN'
p80
aS'JJ'
p81
aS'NN'
p82
aS'NN'
p83
aS'NN'
p84
aS'FW'
p85
aS'FW'
p86
aS'FW'
p87
aS'FW'
p88
asS'ner_seq'
p89
(lp90
S'O'
aS'O'
aS'B-MISC'
p91
aS'E-MISC'
p92
aS'O'
aS'O'
aS'O'
aS'O'
aS'O'
aS'O'
aS'O'
aS'O'
assb.