ccopy_reg
_reconstructor
p1
(c__main__
KBproperty
p2
c__builtin__
object
p3
NtRp4
(dp5
S'comment'
p6
S'redline kmh'
p7
sS'domain'
p8
S'Automobile Engine '
p9
sS'instances_count'
p10
I0
sS'phrases'
p11
NsS'syn_hypo'
p12
S''
sS'label'
p13
g7
sS'range'
p14
S'double '
p15
sS'uniq_subjs'
p16
S'0'
sS'uniq_objs'
p17
I0
sS'prop_uri'
p18
S'http://dbpedia.org/ontology/redline'
p19
sS'annotations'
p20
(dp21
S'bag_of_words'
p22
(lp23
S'Automobile'
p24
aS'Engine'
p25
aS'redline'
p26
aS'double'
p27
aS'redline'
p28
aS'kmh'
p29
asS'chunk_seq'
p30
(lp31
S'B-NP'
p32
aS'I-NP'
p33
aS'I-NP'
p34
aS'I-NP'
p35
aS'I-NP'
p36
aS'E-NP'
p37
asS'dep_seq'
p38
(lp39
(lp40
S'nn'
p41
aS'3'
aS'1'
aa(lp42
S'nn'
p43
aS'3'
aS'2'
aa(lp44
S'root'
p45
aS'0'
aS'3'
aa(lp46
S'amod'
p47
aS'5'
aS'4'
aa(lp48
S'dep'
p49
aS'3'
aS'5'
aa(lp50
S'punct'
p51
aS'5'
aS'6'
aasS'srls'
p52
(lp53
(dp54
S'A1'
p55
g28
sS'A0'
p56
S'Automobile Engine redline'
p57
sS'V'
g27
sasS'pos_seq'
p58
(lp59
S'NNP'
p60
aS'NNP'
p61
aS'NN'
p62
aS'JJ'
p63
aS'NN'
p64
aS'.'
asS'ner_seq'
p65
(lp66
S'B-ORG'
p67
aS'E-ORG'
p68
aS'O'
aS'O'
aS'O'
aS'O'
assb.