ccopy_reg
_reconstructor
p1
(c__main__
KBproperty
p2
c__builtin__
object
p3
NtRp4
(dp5
S'comment'
p6
S'3473226405'
p7
sS'domain'
p8
S'Broadcaster '
p9
sS'instances_count'
p10
I2183
sS'phrases'
p11
NsS'syn_hypo'
p12
Vespionage_networknetworkwebold_boy_networknetworkwebreticulumnetworkwebsupport_system
p13
sS'label'
p14
S'network'
p15
sS'range'
p16
S'Broadcaster '
p17
sS'uniq_subjs'
p18
S'2183'
p19
sS'uniq_objs'
p20
I0
sS'prop_uri'
p21
S'http://dbpedia.org/ontology/network'
p22
sS'annotations'
p23
(dp24
S'bag_of_words'
p25
(lp26
S'Broadcaster'
p27
aS'network'
p28
aS'Broadcaster'
p29
aS'3473226405'
p30
asS'chunk_seq'
p31
(lp32
S'B-NP'
p33
aS'I-NP'
p34
aS'E-NP'
p35
aS'O'
asS'dep_seq'
p36
(lp37
(lp38
S'nn'
p39
aS'3'
aS'1'
aa(lp40
S'nn'
p41
aS'3'
aS'2'
aa(lp42
S'root'
p43
aS'0'
aS'3'
aa(lp44
S'punct'
p45
aS'3'
aS'4'
aasS'srls'
p46
(lp47
sS'pos_seq'
p48
(lp49
S'NNP'
p50
aS'NN'
p51
aS'NNP'
p52
aS'.'
asS'ner_seq'
p53
(lp54
S'O'
aS'O'
aS'O'
aS'O'
assb.