ccopy_reg
_reconstructor
p1
(c__main__
KBproperty
p2
c__builtin__
object
p3
NtRp4
(dp5
S'comment'
p6
S'2345114618'
p7
sS'domain'
p8
S'Person '
p9
sS'instances_count'
p10
I6424
sS'phrases'
p11
NsS'syn_hypo'
p12
Vcoeducationeducationinstructionteachingpedagogydidacticseducational_activitycontinuing_educationeducationinstructionteachingpedagogydidacticseducational_activitycourseeducationinstructionteachingpedagogydidacticseducational_activitycourse_of_studyeducationinstructionteachingpedagogydidacticseducational_activitycourse_of_instructioneducationinstructionteachingpedagogydidacticseducational_activityclasseducationinstructionteachingpedagogydidacticseducational_activityelementary_educationeducationinstructionteachingpedagogydidacticseducational_activityextensioneducationinstructionteachingpedagogydidacticseducational_activityextension_serviceeducationinstructionteachingpedagogydidacticseducational_activityuniversity_extensioneducationinstructionteachingpedagogydidacticseducational_activityextracurricular_activityeducationinstructionteachingpedagogydidacticseducational_activityhigher_educationeducationinstructionteachingpedagogydidacticseducational_activitysecondary_educationeducationinstructionteachingpedagogydidacticseducational_activityteam_teachingeducationinstructionteachingpedagogydidacticseducational_activitywork-study_program
p13
sS'label'
p14
S'education'
p15
sS'range'
p16
S''
sS'uniq_subjs'
p17
S'6424'
p18
sS'uniq_objs'
p19
I0
sS'prop_uri'
p20
S'http://dbpedia.org/ontology/education'
p21
sS'annotations'
p22
(dp23
S'bag_of_words'
p24
(lp25
S'Person'
p26
aS'education'
p27
aS'2345114618'
p28
asS'chunk_seq'
p29
(lp30
S'B-NP'
p31
aS'E-NP'
p32
aS'O'
asS'dep_seq'
p33
(lp34
(lp35
S'nn'
p36
aS'2'
aS'1'
aa(lp37
S'root'
p38
aS'0'
aS'2'
aa(lp39
S'punct'
p40
aS'2'
aS'3'
aasS'srls'
p41
(lp42
sS'pos_seq'
p43
(lp44
S'NN'
p45
aS'NN'
p46
aS'.'
asS'ner_seq'
p47
(lp48
S'O'
aS'O'
aS'O'
assb.