ccopy_reg
_reconstructor
p1
(c__main__
KBproperty
p2
c__builtin__
object
p3
NtRp4
(dp5
S'comment'
p6
S'number of parking lots for cars'
p7
sS'domain'
p8
S'Rest Area '
p9
sS'instances_count'
p10
I0
sS'phrases'
p11
NsS'syn_hypo'
p12
S''
sS'label'
p13
g7
sS'range'
p14
S'non Negative Integer '
p15
sS'uniq_subjs'
p16
S'0'
sS'uniq_objs'
p17
I0
sS'prop_uri'
p18
S'http://dbpedia.org/ontology/parkingLotsCars'
p19
sS'annotations'
p20
(dp21
S'bag_of_words'
p22
(lp23
S'Rest'
p24
aS'Area'
p25
aS'parking'
p26
aS'Lots'
p27
aS'Cars'
p28
aS'non'
p29
aS'Negative'
p30
aS'Integer'
p31
aS'number'
p32
aS'of'
p33
aS'parking'
p34
aS'lots'
p35
aS'for'
p36
aS'cars'
p37
asS'chunk_seq'
p38
(lp39
S'B-NP'
p40
aS'E-NP'
p41
aS'S-VP'
p42
aS'B-NP'
p43
aS'E-NP'
p44
aS'B-NP'
p45
aS'I-NP'
p46
aS'I-NP'
p47
aS'E-NP'
p48
aS'S-PP'
p49
aS'B-NP'
p50
aS'E-NP'
p51
aS'S-PP'
p52
aS'S-NP'
p53
asS'dep_seq'
p54
(lp55
(lp56
S'nn'
p57
aS'5'
aS'1'
aa(lp58
S'nn'
p59
aS'5'
aS'2'
aa(lp60
S'nn'
p61
aS'5'
aS'3'
aa(lp62
S'nn'
p63
aS'5'
aS'4'
aa(lp64
S'dep'
p65
aS'9'
aS'5'
aa(lp66
S'dep'
p67
aS'9'
aS'6'
aa(lp68
S'amod'
p69
aS'9'
aS'7'
aa(lp70
S'nn'
p71
aS'9'
aS'8'
aa(lp72
S'root'
p73
aS'0'
aS'9'
aa(lp74
S'nn'
p75
aS'12'
p76
aS'11'
p77
aa(lp78
S'prep_of'
p79
aS'9'
aS'12'
p80
aa(lp81
S'prep_for'
p82
aS'12'
p83
aS'14'
p84
aasS'srls'
p85
(lp86
sS'pos_seq'
p87
(lp88
S'NNP'
p89
aS'NNP'
p90
aS'NN'
p91
aS'NNS'
p92
aS'NNS'
p93
aS'VBP'
p94
aS'JJ'
p95
aS'NN'
p96
aS'NN'
p97
aS'IN'
p98
aS'NN'
p99
aS'NNS'
p100
aS'IN'
p101
aS'NNS'
p102
asS'ner_seq'
p103
(lp104
S'O'
aS'O'
aS'O'
aS'O'
aS'O'
aS'O'
aS'O'
aS'O'
aS'O'
aS'O'
aS'O'
aS'O'
aS'O'
aS'O'
assb.