ccopy_reg
_reconstructor
p1
(c__main__
KBproperty
p2
c__builtin__
object
p3
NtRp4
(dp5
S'comment'
p6
S'The Library of Congress Control Number or LCCN is a serially based system of numbering cataloging records in the Library of Congress in the United States. It has nothing to do with the contents of any book and should not be confused with Library of Congress Classification.30002997'
p7
sS'domain'
p8
S'Written Work '
p9
sS'instances_count'
p10
I3000
sS'phrases'
p11
NsS'syn_hypo'
p12
S''
sS'label'
p13
S'LCCN'
p14
sS'range'
p15
S'string '
p16
sS'uniq_subjs'
p17
S'2996'
p18
sS'uniq_objs'
p19
I0
sS'prop_uri'
p20
S'http://dbpedia.org/ontology/lccn'
p21
sS'annotations'
p22
(dp23
S'bag_of_words'
p24
(lp25
S'Written'
p26
aS'Work'
p27
aS'LCCN'
p28
aS'string'
p29
aS'The'
p30
aS'Library'
p31
aS'of'
p32
aS'Congress'
p33
aS'Control'
p34
aS'Number'
p35
aS'or'
p36
aS'LCCN'
p37
aS'is'
p38
aS'a'
aS'serially'
p39
aS'based'
p40
aS'system'
p41
aS'of'
p42
aS'numbering'
p43
aS'cataloging'
p44
aS'records'
p45
aS'in'
p46
aS'the'
p47
aS'Library'
p48
aS'of'
p49
aS'Congress'
p50
aS'in'
p51
aS'the'
p52
aS'United'
p53
aS'States.'
p54
aS'It'
p55
aS'has'
p56
aS'nothing'
p57
aS'to'
p58
aS'do'
p59
aS'with'
p60
aS'the'
p61
aS'contents'
p62
aS'of'
p63
aS'any'
p64
aS'book'
p65
aS'and'
p66
aS'should'
p67
aS'not'
p68
aS'be'
p69
aS'confused'
p70
aS'with'
p71
aS'Library'
p72
aS'of'
p73
aS'Congress'
p74
aS'Classification.30002997'
p75
asS'chunk_seq'
p76
(lp77
S'B-NP'
p78
aS'I-NP'
p79
aS'I-NP'
p80
aS'E-NP'
p81
aS'B-NP'
p82
aS'E-NP'
p83
aS'S-PP'
p84
aS'B-NP'
p85
aS'I-NP'
p86
aS'I-NP'
p87
aS'I-NP'
p88
aS'E-NP'
p89
aS'S-VP'
p90
aS'B-NP'
p91
aS'I-NP'
p92
aS'I-NP'
p93
aS'E-NP'
p94
aS'S-PP'
p95
aS'S-VP'
p96
aS'B-NP'
p97
aS'E-NP'
p98
aS'S-PP'
p99
aS'B-NP'
p100
aS'E-NP'
p101
aS'S-PP'
p102
aS'S-NP'
p103
aS'S-PP'
p104
aS'B-NP'
p105
aS'I-NP'
p106
aS'E-NP'
p107
aS'S-NP'
p108
aS'S-VP'
p109
aS'S-NP'
p110
aS'B-VP'
p111
aS'E-VP'
p112
aS'S-PP'
p113
aS'B-NP'
p114
aS'E-NP'
p115
aS'S-PP'
p116
aS'B-NP'
p117
aS'E-NP'
p118
aS'O'
aS'B-VP'
p119
aS'I-VP'
p120
aS'I-VP'
p121
aS'E-VP'
p122
aS'S-PP'
p123
aS'S-NP'
p124
aS'S-PP'
p125
aS'S-NP'
p126
aS'S-NP'
p127
asS'dep_seq'
p128
(lp129
(lp130
S'nn'
p131
aS'4'
aS'1'
aa(lp132
S'nn'
p133
aS'4'
aS'2'
aa(lp134
S'nn'
p135
aS'4'
aS'3'
aa(lp136
S'nsubj'
p137
aS'13'
p138
aS'4'
aa(lp139
S'det'
p140
aS'6'
aS'5'
aa(lp141
S'dep'
p142
aS'4'
aS'6'
aa(lp143
S'nn'
p144
aS'10'
p145
aS'8'
aa(lp146
S'nn'
p147
aS'10'
p148
aS'9'
aa(lp149
S'prep_of'
p150
aS'6'
aS'10'
p151
aa(lp152
S'conj_or'
p153
aS'4'
aS'12'
p154
aa(lp155
S'root'
p156
aS'0'
aS'13'
p157
aa(lp158
S'det'
p159
aS'17'
p160
aS'14'
p161
aa(lp162
S'advmod'
p163
aS'16'
p164
aS'15'
p165
aa(lp166
S'amod'
p167
aS'17'
p168
aS'16'
p169
aa(lp170
S'nsubj'
p171
aS'32'
p172
aS'17'
p173
aa(lp174
S'prepc_of'
p175
aS'17'
p176
aS'19'
p177
aa(lp178
S'nn'
p179
aS'21'
p180
aS'20'
p181
aa(lp182
S'dobj'
p183
aS'19'
p184
aS'21'
p185
aa(lp186
S'det'
p187
aS'24'
p188
aS'23'
p189
aa(lp190
S'prep_in'
p191
aS'21'
p192
aS'24'
p193
aa(lp194
S'prep_of'
p195
aS'24'
p196
aS'26'
p197
aa(lp198
S'det'
p199
aS'30'
p200
aS'28'
p201
aa(lp202
S'nn'
p203
aS'30'
p204
aS'29'
p205
aa(lp206
S'prep_in'
p207
aS'24'
p208
aS'30'
p209
aa(lp210
S'dep'
p211
aS'17'
p212
aS'31'
p213
aa(lp214
S'ccomp'
p215
aS'13'
p216
aS'32'
p217
aa(lp218
S'dobj'
p219
aS'32'
p220
aS'33'
p221
aa(lp222
S'aux'
p223
aS'35'
p224
aS'34'
p225
aa(lp226
S'infmod'
p227
aS'33'
p228
aS'35'
p229
aa(lp230
S'det'
p231
aS'38'
p232
aS'37'
p233
aa(lp234
S'prep_with'
p235
aS'35'
p236
aS'38'
p237
aa(lp238
S'det'
p239
aS'41'
p240
aS'40'
p241
aa(lp242
S'prep_of'
p243
aS'38'
p244
aS'41'
p245
aa(lp246
S'aux'
p247
aS'46'
p248
aS'43'
p249
aa(lp250
S'neg'
p251
aS'46'
p252
aS'44'
p253
aa(lp254
S'auxpass'
p255
aS'46'
p256
aS'45'
p257
aa(lp258
S'conj_and'
p259
aS'32'
p260
aS'46'
p261
aa(lp262
S'prep_with'
p263
aS'46'
p264
aS'48'
p265
aa(lp266
S'prep_of'
p267
aS'48'
p268
aS'50'
p269
aa(lp270
S'dep'
p271
aS'50'
p272
aS'51'
p273
aasS'srls'
p274
(lp275
(dp276
S'A1'
p277
g41
sS'AM-MNR'
p278
g39
sS'V'
g40
sa(dp279
S'A1'
p280
S'cataloging records'
p281
sS'AM-LOC'
p282
S'in the Library of Congress'
p283
sS'V'
g43
sa(dp284
S'A1'
p285
S'nothing to do with the contents of any book'
p286
sS'V'
g56
sa(dp287
S'A1'
p288
g57
sS'A2'
p289
S'with the contents of any book'
p290
sS'V'
g59
sa(dp291
S'V'
g70
sS'A2'
p292
S'with Library of Congress Classification.30002997'
p293
sS'AM-NEG'
p294
g68
sS'AM-MOD'
p295
g67
sasS'pos_seq'
p296
(lp297
S'NNP'
p298
aS'NNP'
p299
aS'NNP'
p300
aS'NN'
p301
aS'DT'
p302
aS'NNP'
p303
aS'IN'
p304
aS'NNP'
p305
aS'NNP'
p306
aS'NNP'
p307
aS'CC'
p308
aS'NNP'
p309
aS'VBZ'
p310
aS'DT'
p311
aS'RB'
p312
aS'VBN'
p313
aS'NN'
p314
aS'IN'
p315
aS'VBG'
p316
aS'NN'
p317
aS'NNS'
p318
aS'IN'
p319
aS'DT'
p320
aS'NNP'
p321
aS'IN'
p322
aS'NNP'
p323
aS'IN'
p324
aS'DT'
p325
aS'NNP'
p326
aS'NNP'
p327
aS'PRP'
p328
aS'VBZ'
p329
aS'NN'
p330
aS'TO'
p331
aS'VB'
p332
aS'IN'
p333
aS'DT'
p334
aS'NNS'
p335
aS'IN'
p336
aS'DT'
p337
aS'NN'
p338
aS'CC'
p339
aS'MD'
p340
aS'RB'
p341
aS'VB'
p342
aS'VBN'
p343
aS'IN'
p344
aS'NNP'
p345
aS'IN'
p346
aS'NNP'
p347
aS'NNP'
p348
asS'ner_seq'
p349
(lp350
S'O'
aS'O'
aS'S-ORG'
p351
aS'O'
aS'O'
aS'B-ORG'
p352
aS'I-ORG'
p353
aS'E-ORG'
p354
aS'O'
aS'O'
aS'O'
aS'S-ORG'
p355
aS'O'
aS'O'
aS'O'
aS'O'
aS'O'
aS'O'
aS'O'
aS'O'
aS'O'
aS'O'
aS'O'
aS'B-ORG'
p356
aS'I-ORG'
p357
aS'E-ORG'
p358
aS'O'
aS'O'
aS'B-ORG'
p359
aS'E-ORG'
p360
aS'O'
aS'O'
aS'O'
aS'O'
aS'O'
aS'O'
aS'O'
aS'O'
aS'O'
aS'O'
aS'O'
aS'O'
aS'O'
aS'O'
aS'O'
aS'O'
aS'O'
aS'B-ORG'
p361
aS'I-ORG'
p362
aS'I-ORG'
p363
aS'E-ORG'
p364
assb.