ccopy_reg
_reconstructor
p1
(c__main__
KBproperty
p2
c__builtin__
object
p3
NtRp4
(dp5
S'comment'
p6
S'Payload mass in a typical Low Earth orbit5550'
p7
sS'domain'
p8
S'Rocket '
p9
sS'instances_count'
p10
I46
sS'phrases'
p11
NsS'syn_hypo'
p12
S''
sS'label'
p13
S'lower earth orbit payload g'
p14
sS'range'
p15
S'double '
p16
sS'uniq_subjs'
p17
S'46'
p18
sS'uniq_objs'
p19
I0
sS'prop_uri'
p20
S'http://dbpedia.org/ontology/lowerEarthOrbitPayload'
p21
sS'annotations'
p22
(dp23
S'bag_of_words'
p24
(lp25
S'Rocket'
p26
aS'lower'
p27
aS'earth'
p28
aS'orbit'
p29
aS'payload'
p30
aS'g'
aS'double'
p31
aS'Payload'
p32
aS'mass'
p33
aS'in'
p34
aS'a'
aS'typical'
p35
aS'Low'
p36
aS'Earth'
p37
aS'orbit5550'
p38
asS'chunk_seq'
p39
(lp40
S'B-NP'
p41
aS'I-NP'
p42
aS'I-NP'
p43
aS'I-NP'
p44
aS'I-NP'
p45
aS'I-NP'
p46
aS'I-NP'
p47
aS'I-NP'
p48
aS'E-NP'
p49
aS'S-PP'
p50
aS'B-NP'
p51
aS'I-NP'
p52
aS'I-NP'
p53
aS'E-NP'
p54
aS'O'
asS'dep_seq'
p55
(lp56
(lp57
S'nn'
p58
aS'9'
aS'1'
aa(lp59
S'amod'
p60
aS'9'
aS'2'
aa(lp61
S'nn'
p62
aS'9'
aS'3'
aa(lp63
S'nn'
p64
aS'9'
aS'4'
aa(lp65
S'nn'
p66
aS'9'
aS'5'
aa(lp67
S'nn'
p68
aS'9'
aS'6'
aa(lp69
S'amod'
p70
aS'9'
aS'7'
aa(lp71
S'nn'
p72
aS'9'
aS'8'
aa(lp73
S'dep'
p74
aS'10'
p75
aS'9'
aa(lp76
S'root'
p77
aS'0'
aS'10'
p78
aa(lp79
S'det'
p80
aS'14'
p81
aS'11'
p82
aa(lp83
S'amod'
p84
aS'14'
p85
aS'12'
p86
aa(lp87
S'nn'
p88
aS'14'
p89
aS'13'
p90
aa(lp91
S'pobj'
p92
aS'10'
p93
aS'14'
p94
aa(lp95
S'punct'
p96
aS'14'
p97
aS'15'
p98
aasS'srls'
p99
(lp100
sS'pos_seq'
p101
(lp102
S'NNP'
p103
aS'JJR'
p104
aS'NN'
p105
aS'NN'
p106
aS'NN'
p107
aS'NN'
p108
aS'JJ'
p109
aS'NN'
p110
aS'NN'
p111
aS'IN'
p112
aS'DT'
p113
aS'JJ'
p114
aS'NNP'
p115
aS'NNP'
p116
aS'.'
asS'ner_seq'
p117
(lp118
S'O'
aS'O'
aS'O'
aS'O'
aS'O'
aS'O'
aS'O'
aS'O'
aS'O'
aS'O'
aS'O'
aS'O'
aS'O'
aS'S-LOC'
p119
aS'O'
assb.