ccopy_reg
_reconstructor
p1
(c__main__
KBproperty
p2
c__builtin__
object
p3
NtRp4
(dp5
S'comment'
p6
S'The end date of the project.22'
p7
sS'domain'
p8
S'Project '
p9
sS'instances_count'
p10
I2
sS'phrases'
p11
NsS'syn_hypo'
p12
S''
sS'label'
p13
S'project end date'
p14
sS'range'
p15
S'date '
p16
sS'uniq_subjs'
p17
S'2'
sS'uniq_objs'
p18
I0
sS'prop_uri'
p19
S'http://dbpedia.org/ontology/projectEndDate'
p20
sS'annotations'
p21
(dp22
S'bag_of_words'
p23
(lp24
S'Project'
p25
aS'project'
p26
aS'end'
p27
aS'date'
p28
aS'date'
p29
aS'The'
p30
aS'end'
p31
aS'date'
p32
aS'of'
p33
aS'the'
p34
aS'project.22'
p35
asS'chunk_seq'
p36
(lp37
S'B-NP'
p38
aS'I-NP'
p39
aS'I-NP'
p40
aS'I-NP'
p41
aS'E-NP'
p42
aS'B-NP'
p43
aS'I-NP'
p44
aS'E-NP'
p45
aS'S-PP'
p46
aS'B-NP'
p47
aS'E-NP'
p48
asS'dep_seq'
p49
(lp50
(lp51
S'nn'
p52
aS'5'
aS'1'
aa(lp53
S'nn'
p54
aS'5'
aS'2'
aa(lp55
S'nn'
p56
aS'5'
aS'3'
aa(lp57
S'nn'
p58
aS'5'
aS'4'
aa(lp59
S'dep'
p60
aS'8'
aS'5'
aa(lp61
S'det'
p62
aS'8'
aS'6'
aa(lp63
S'nn'
p64
aS'8'
aS'7'
aa(lp65
S'root'
p66
aS'0'
aS'8'
aa(lp67
S'det'
p68
aS'11'
p69
aS'10'
p70
aa(lp71
S'prep_of'
p72
aS'8'
aS'11'
p73
aasS'srls'
p74
(lp75
sS'pos_seq'
p76
(lp77
S'NN'
p78
aS'NN'
p79
aS'NN'
p80
aS'NN'
p81
aS'NN'
p82
aS'DT'
p83
aS'NN'
p84
aS'NN'
p85
aS'IN'
p86
aS'DT'
p87
aS'NN'
p88
asS'ner_seq'
p89
(lp90
S'O'
aS'O'
aS'O'
aS'O'
aS'O'
aS'O'
aS'O'
aS'O'
aS'O'
aS'O'
aS'O'
assb.