ccopy_reg
_reconstructor
p1
(c__main__
KBproperty
p2
c__builtin__
object
p3
NtRp4
(dp5
S'comment'
p6
S'The total budget of the research project.1010'
p7
sS'domain'
p8
S'Research Project '
p9
sS'instances_count'
p10
I10
sS'phrases'
p11
NsS'syn_hypo'
p12
S''
sS'label'
p13
S'project budget total $'
p14
sS'range'
p15
S'double '
p16
sS'uniq_subjs'
p17
S'10'
p18
sS'uniq_objs'
p19
I0
sS'prop_uri'
p20
S'http://dbpedia.org/ontology/projectBudgetTotal'
p21
sS'annotations'
p22
(dp23
S'bag_of_words'
p24
(lp25
S'Research'
p26
aS'Project'
p27
aS'project'
p28
aS'budget'
p29
aS'total'
p30
aS'$'
aS'double'
p31
aS'The'
p32
aS'total'
p33
aS'budget'
p34
aS'of'
p35
aS'the'
p36
aS'research'
p37
aS'project.1010'
p38
asS'chunk_seq'
p39
(lp40
S'B-NP'
p41
aS'I-NP'
p42
aS'I-NP'
p43
aS'I-NP'
p44
aS'I-NP'
p45
aS'I-NP'
p46
aS'I-NP'
p47
aS'I-NP'
p48
aS'I-NP'
p49
aS'E-NP'
p50
aS'S-PP'
p51
aS'B-NP'
p52
aS'I-NP'
p53
aS'E-NP'
p54
asS'dep_seq'
p55
(lp56
(lp57
S'nn'
p58
aS'4'
aS'1'
aa(lp59
S'nn'
p60
aS'4'
aS'2'
aa(lp61
S'nn'
p62
aS'4'
aS'3'
aa(lp63
S'root'
p64
aS'0'
aS'4'
aa(lp65
S'dep'
p66
aS'4'
aS'5'
aa(lp67
S'dep'
p68
aS'5'
aS'6'
aa(lp69
S'dep'
p70
aS'6'
aS'7'
aa(lp71
S'det'
p72
aS'10'
p73
aS'8'
aa(lp74
S'amod'
p75
aS'10'
p76
aS'9'
aa(lp77
S'dep'
p78
aS'5'
aS'10'
p79
aa(lp80
S'det'
p81
aS'14'
p82
aS'12'
p83
aa(lp84
S'nn'
p85
aS'14'
p86
aS'13'
p87
aa(lp88
S'prep_of'
p89
aS'10'
p90
aS'14'
p91
aasS'srls'
p92
(lp93
sS'pos_seq'
p94
(lp95
S'NNP'
p96
aS'NNP'
p97
aS'NN'
p98
aS'NN'
p99
aS'JJ'
p100
aS'$'
aS'JJ'
p101
aS'DT'
p102
aS'JJ'
p103
aS'NN'
p104
aS'IN'
p105
aS'DT'
p106
aS'NN'
p107
aS'NN'
p108
asS'ner_seq'
p109
(lp110
S'O'
aS'O'
aS'O'
aS'O'
aS'O'
aS'O'
aS'O'
aS'O'
aS'O'
aS'O'
aS'O'
aS'O'
aS'O'
aS'O'
assb.