ccopy_reg
_reconstructor
p1
(c__main__
KBproperty
p2
c__builtin__
object
p3
NtRp4
(dp5
S'comment'
p6
S'16091457'
p7
sS'domain'
p8
S'Architectural Structure '
p9
sS'instances_count'
p10
I441
sS'phrases'
p11
NsS'syn_hypo'
p12
S''
sS'label'
p13
S'maintained by'
p14
sS'range'
p15
S''
sS'uniq_subjs'
p16
S'441'
p17
sS'uniq_objs'
p18
I0
sS'prop_uri'
p19
S'http://dbpedia.org/ontology/maintainedBy'
p20
sS'annotations'
p21
(dp22
S'bag_of_words'
p23
(lp24
S'Architectural'
p25
aS'Structure'
p26
aS'maintained'
p27
aS'by'
p28
aS'16091457'
p29
asS'chunk_seq'
p30
(lp31
S'B-NP'
p32
aS'E-NP'
p33
aS'S-VP'
p34
aS'S-PP'
p35
aS'S-NP'
p36
asS'dep_seq'
p37
(lp38
(lp39
S'nn'
p40
aS'2'
aS'1'
aa(lp41
S'nsubj'
p42
aS'3'
aS'2'
aa(lp43
S'root'
p44
aS'0'
aS'3'
aa(lp45
S'prep_by'
p46
aS'3'
aS'5'
aasS'srls'
p47
(lp48
(dp49
S'A1'
p50
S'Architectural Structure'
p51
sS'A0'
p52
S'by 16091457'
p53
sS'V'
g27
sasS'pos_seq'
p54
(lp55
S'NNP'
p56
aS'NNP'
p57
aS'VBN'
p58
aS'IN'
p59
aS'NN'
p60
asS'ner_seq'
p61
(lp62
S'O'
aS'O'
aS'O'
aS'O'
aS'O'
assb.