ccopy_reg
_reconstructor
p1
(c__main__
KBproperty
p2
c__builtin__
object
p3
NtRp4
(dp5
S'comment'
p6
S'course \\xce\\xbc'
p7
sS'domain'
p8
S'Grand Prix '
p9
sS'instances_count'
p10
I776
sS'phrases'
p11
NsS'syn_hypo'
p12
S''
sS'label'
p13
g7
sS'range'
p14
S'double '
p15
sS'uniq_subjs'
p16
S'776'
p17
sS'uniq_objs'
p18
I0
sS'prop_uri'
p19
S'http://dbpedia.org/ontology/course'
p20
sS'annotations'
p21
(dp22
S'bag_of_words'
p23
(lp24
S'Grand'
p25
aS'Prix'
p26
aS'course'
p27
aS'double'
p28
aS'course'
p29
aS'\\'
aS'xce'
p30
aS'\\'
aS'xbc'
p31
asS'chunk_seq'
p32
(lp33
S'B-NP'
p34
aS'I-NP'
p35
aS'E-NP'
p36
aS'B-NP'
p37
aS'E-NP'
p38
aS'O'
aS'O'
aS'O'
aS'O'
asS'dep_seq'
p39
(lp40
(lp41
S'nn'
p42
aS'3'
aS'1'
aa(lp43
S'nn'
p44
aS'3'
aS'2'
aa(lp45
S'dep'
p46
aS'5'
aS'3'
aa(lp47
S'amod'
p48
aS'5'
aS'4'
aa(lp49
S'root'
p50
aS'0'
aS'5'
aa(lp51
S'dep'
p52
aS'5'
aS'6'
aa(lp53
S'discourse'
p54
aS'5'
aS'7'
aa(lp55
S'dep'
p56
aS'7'
aS'8'
aa(lp57
S'dep'
p58
aS'7'
aS'9'
aasS'srls'
p59
(lp60
sS'pos_seq'
p61
(lp62
S'NNP'
p63
aS'NNP'
p64
aS'NN'
p65
aS'JJ'
p66
aS'NN'
p67
aS'FW'
p68
aS'FW'
p69
aS'FW'
p70
aS'FW'
p71
asS'ner_seq'
p72
(lp73
S'B-MISC'
p74
aS'E-MISC'
p75
aS'O'
aS'O'
aS'O'
aS'O'
aS'O'
aS'O'
aS'O'
assb.