ccopy_reg
_reconstructor
p1
(c__main__
KBproperty
p2
c__builtin__
object
p3
NtRp4
(dp5
S'comment'
p6
S'1002610026'
p7
sS'domain'
p8
S'Gridiron Football Player '
p9
sS'instances_count'
p10
I50
sS'phrases'
p11
NsS'syn_hypo'
p12
S''
sS'label'
p13
S'draft round'
p14
sS'range'
p15
S'string '
p16
sS'uniq_subjs'
p17
S'50'
p18
sS'uniq_objs'
p19
I0
sS'prop_uri'
p20
S'http://dbpedia.org/ontology/draftRound'
p21
sS'annotations'
p22
(dp23
S'bag_of_words'
p24
(lp25
S'Gridiron'
p26
aS'Football'
p27
aS'Player'
p28
aS'draft'
p29
aS'round'
p30
aS'string'
p31
aS'1002610026'
p32
asS'chunk_seq'
p33
(lp34
S'B-NP'
p35
aS'I-NP'
p36
aS'I-NP'
p37
aS'I-NP'
p38
aS'I-NP'
p39
aS'I-NP'
p40
aS'E-NP'
p41
asS'dep_seq'
p42
(lp43
(lp44
S'nn'
p45
aS'4'
aS'1'
aa(lp46
S'nn'
p47
aS'4'
aS'2'
aa(lp48
S'nn'
p49
aS'4'
aS'3'
aa(lp50
S'dep'
p51
aS'7'
aS'4'
aa(lp52
S'nn'
p53
aS'7'
aS'5'
aa(lp54
S'nn'
p55
aS'7'
aS'6'
aa(lp56
S'root'
p57
aS'0'
aS'7'
aasS'srls'
p58
(lp59
sS'pos_seq'
p60
(lp61
S'NNP'
p62
aS'NNP'
p63
aS'NNP'
p64
aS'NN'
p65
aS'NN'
p66
aS'NN'
p67
aS'NN'
p68
asS'ner_seq'
p69
(lp70
S'B-ORG'
p71
aS'I-ORG'
p72
aS'E-ORG'
p73
aS'O'
aS'O'
aS'O'
aS'O'
assb.