ccopy_reg
_reconstructor
p1
(c__main__
KBproperty
p2
c__builtin__
object
p3
NtRp4
(dp5
S'comment'
p6
S'7405973443'
p7
sS'domain'
p8
S''
sS'instances_count'
p9
I4430
sS'phrases'
p10
NsS'syn_hypo'
p11
S''
sS'label'
p12
S'weight g'
p13
sS'range'
p14
S'double '
p15
sS'uniq_subjs'
p16
S'4430'
p17
sS'uniq_objs'
p18
I0
sS'prop_uri'
p19
S'http://dbpedia.org/ontology/weight'
p20
sS'annotations'
p21
(dp22
S'bag_of_words'
p23
(lp24
S'weight'
p25
aS'g'
aS'double'
p26
aS'7405973443'
p27
asS'chunk_seq'
p28
(lp29
S'B-NP'
p30
aS'E-NP'
p31
aS'B-NP'
p32
aS'E-NP'
p33
asS'dep_seq'
p34
(lp35
(lp36
S'nn'
p37
aS'2'
aS'1'
aa(lp38
S'root'
p39
aS'0'
aS'2'
aa(lp40
S'advmod'
p41
aS'2'
aS'3'
aa(lp42
S'advmod'
p43
aS'2'
aS'4'
aasS'srls'
p44
(lp45
sS'pos_seq'
p46
(lp47
S'NN'
p48
aS'NN'
p49
aS'RB'
p50
aS'.'
asS'ner_seq'
p51
(lp52
S'O'
aS'O'
aS'O'
aS'O'
assb.