ccopy_reg
_reconstructor
p1
(c__main__
KBproperty
p2
c__builtin__
object
p3
NtRp4
(dp5
S'comment'
p6
S'Identifier for serial titles. More precise than issn00'
p7
sS'domain'
p8
S'Periodical Literature '
p9
sS'instances_count'
p10
I0
sS'phrases'
p11
NsS'syn_hypo'
p12
S''
sS'label'
p13
S'zdb'
p14
sS'range'
p15
S'string '
p16
sS'uniq_subjs'
p17
S'0'
sS'uniq_objs'
p18
I0
sS'prop_uri'
p19
S'http://dbpedia.org/ontology/zdb'
p20
sS'annotations'
p21
(dp22
S'bag_of_words'
p23
(lp24
S'Periodical'
p25
aS'Literature'
p26
aS'zdb'
p27
aS'string'
p28
aS'Identifier'
p29
aS'for'
p30
aS'serial'
p31
aS'titles'
p32
aS'.'
aS'More'
p33
aS'precise'
p34
aS'than'
p35
aS'issn00'
p36
asS'chunk_seq'
p37
(lp38
S'B-NP'
p39
aS'I-NP'
p40
aS'I-NP'
p41
aS'I-NP'
p42
aS'E-NP'
p43
aS'S-PP'
p44
aS'B-NP'
p45
aS'E-NP'
p46
aS'O'
aS'B-ADJP'
p47
aS'E-ADJP'
p48
aS'S-PP'
p49
aS'O'
asS'dep_seq'
p50
(lp51
(lp52
S'nn'
p53
aS'5'
aS'1'
aa(lp54
S'nn'
p55
aS'5'
aS'2'
aa(lp56
S'possessive'
p57
aS'5'
aS'3'
aa(lp58
S'nn'
p59
aS'5'
aS'4'
aa(lp60
S'root'
p61
aS'0'
aS'5'
aa(lp62
S'amod'
p63
aS'8'
aS'7'
aa(lp64
S'prep_for'
p65
aS'5'
aS'8'
aa(lp66
S'advmod'
p67
aS'11'
p68
aS'10'
p69
aa(lp70
S'amod'
p71
aS'5'
aS'11'
p72
aa(lp73
S'prep_than'
p74
aS'11'
p75
aS'13'
p76
aasS'srls'
p77
(lp78
sS'pos_seq'
p79
(lp80
S'NNP'
p81
aS'NNP'
p82
aS'POS'
p83
aS'NN'
p84
aS'NN'
p85
aS'IN'
p86
aS'JJ'
p87
aS'NNS'
p88
aS'.'
aS'RBR'
p89
aS'JJ'
p90
aS'IN'
p91
aS'JJ'
p92
asS'ner_seq'
p93
(lp94
S'B-MISC'
p95
aS'E-MISC'
p96
aS'O'
aS'O'
aS'O'
aS'O'
aS'O'
aS'O'
aS'O'
aS'O'
aS'O'
aS'O'
aS'O'
assb.