ccopy_reg
_reconstructor
p1
(c__main__
KBproperty
p2
c__builtin__
object
p3
NtRp4
(dp5
S'comment'
p6
S'opponent in a military conflict an organisation country or group of countries. "00'
p7
sS'domain'
p8
S'Military Conflict '
p9
sS'instances_count'
p10
I0
sS'phrases'
p11
NsS'syn_hypo'
p12
S''
sS'label'
p13
S'opponents'
p14
sS'range'
p15
S''
sS'uniq_subjs'
p16
S'0'
sS'uniq_objs'
p17
I0
sS'prop_uri'
p18
S'http://dbpedia.org/ontology/opponents'
p19
sS'annotations'
p20
(dp21
S'bag_of_words'
p22
(lp23
S'Military'
p24
aS'Conflict'
p25
aS'opponents'
p26
aS'opponent'
p27
aS'in'
p28
aS'a'
aS'military'
p29
aS'conflict'
p30
aS'an'
p31
aS'organisation'
p32
aS'country'
p33
aS'or'
p34
aS'group'
p35
aS'of'
p36
aS'countries.'
p37
aS'"'
aS'00'
p38
asS'chunk_seq'
p39
(lp40
S'B-NP'
p41
aS'I-NP'
p42
aS'I-NP'
p43
aS'E-NP'
p44
aS'S-PP'
p45
aS'B-NP'
p46
aS'I-NP'
p47
aS'E-NP'
p48
aS'B-NP'
p49
aS'I-NP'
p50
aS'I-NP'
p51
aS'I-NP'
p52
aS'E-NP'
p53
aS'S-PP'
p54
aS'S-NP'
p55
aS'O'
aS'O'
asS'dep_seq'
p56
(lp57
(lp58
S'amod'
p59
aS'4'
aS'1'
aa(lp60
S'nn'
p61
aS'4'
aS'2'
aa(lp62
S'nn'
p63
aS'4'
aS'3'
aa(lp64
S'dep'
p65
aS'17'
p66
aS'4'
aa(lp67
S'det'
p68
aS'8'
aS'6'
aa(lp69
S'amod'
p70
aS'8'
aS'7'
aa(lp71
S'prep_in'
p72
aS'4'
aS'8'
aa(lp73
S'det'
p74
aS'11'
p75
aS'9'
aa(lp76
S'nn'
p77
aS'11'
p78
aS'10'
p79
aa(lp80
S'dep'
p81
aS'4'
aS'11'
p82
aa(lp83
S'conj_or'
p84
aS'11'
p85
aS'13'
p86
aa(lp87
S'prep_of'
p88
aS'4'
aS'15'
p89
aa(lp90
S'punct'
p91
aS'17'
p92
aS'16'
p93
aa(lp94
S'root'
p95
aS'0'
aS'17'
p96
aasS'srls'
p97
(lp98
sS'pos_seq'
p99
(lp100
S'JJ'
p101
aS'NN'
p102
aS'NNS'
p103
aS'NN'
p104
aS'IN'
p105
aS'DT'
p106
aS'JJ'
p107
aS'NN'
p108
aS'DT'
p109
aS'NN'
p110
aS'NN'
p111
aS'CC'
p112
aS'NN'
p113
aS'IN'
p114
aS'NNS'
p115
aS'.'
aS'CD'
p116
asS'ner_seq'
p117
(lp118
S'O'
aS'O'
aS'O'
aS'O'
aS'O'
aS'O'
aS'O'
aS'O'
aS'O'
aS'O'
aS'O'
aS'O'
aS'O'
aS'O'
aS'O'
aS'O'
aS'O'
assb.