ccopy_reg
_reconstructor
p1
(c__main__
KBproperty
p2
c__builtin__
object
p3
NtRp4
(dp5
S'comment'
p6
S'the Alps main part to which the mountain belongs according to the SOIUSA classification00'
p7
sS'domain'
p8
S'Mountain '
p9
sS'instances_count'
p10
I0
sS'phrases'
p11
NsS'syn_hypo'
p12
S''
sS'label'
p13
S'Alps main part'
p14
sS'range'
p15
S'Mountain Range '
p16
sS'uniq_subjs'
p17
S'0'
sS'uniq_objs'
p18
I0
sS'prop_uri'
p19
S'http://dbpedia.org/ontology/alpsMainPart'
p20
sS'annotations'
p21
(dp22
S'bag_of_words'
p23
(lp24
S'Mountain'
p25
aS'Alps'
p26
aS'main'
p27
aS'part'
p28
aS'Mountain'
p29
aS'Range'
p30
aS'the'
p31
aS'Alps'
p32
aS'main'
p33
aS'part'
p34
aS'to'
p35
aS'which'
p36
aS'the'
p37
aS'mountain'
p38
aS'belongs'
p39
aS'according'
p40
aS'to'
p41
aS'the'
p42
aS'SOIUSA'
p43
aS'classification00'
p44
asS'chunk_seq'
p45
(lp46
S'B-NP'
p47
aS'I-NP'
p48
aS'I-NP'
p49
aS'I-NP'
p50
aS'I-NP'
p51
aS'E-NP'
p52
aS'B-NP'
p53
aS'I-NP'
p54
aS'I-NP'
p55
aS'E-NP'
p56
aS'S-PP'
p57
aS'S-NP'
p58
aS'B-NP'
p59
aS'E-NP'
p60
aS'S-VP'
p61
aS'S-PP'
p62
aS'S-PP'
p63
aS'B-NP'
p64
aS'I-NP'
p65
aS'E-NP'
p66
asS'dep_seq'
p67
(lp68
(lp69
S'nn'
p70
aS'6'
aS'1'
aa(lp71
S'nn'
p72
aS'6'
aS'2'
aa(lp73
S'amod'
p74
aS'6'
aS'3'
aa(lp75
S'nn'
p76
aS'6'
aS'4'
aa(lp77
S'nn'
p78
aS'6'
aS'5'
aa(lp79
S'dep'
p80
aS'10'
p81
aS'6'
aa(lp82
S'det'
p83
aS'10'
p84
aS'7'
aa(lp85
S'nn'
p86
aS'10'
p87
aS'8'
aa(lp88
S'amod'
p89
aS'10'
p90
aS'9'
aa(lp91
S'root'
p92
aS'0'
aS'10'
p93
aa(lp94
S'prep_to'
p95
aS'15'
p96
aS'10'
p97
aa(lp98
S'rel'
p99
aS'15'
p100
aS'11'
p101
aa(lp102
S'det'
p103
aS'14'
p104
aS'13'
p105
aa(lp106
S'nsubj'
p107
aS'15'
p108
aS'14'
p109
aa(lp110
S'rcmod'
p111
aS'10'
p112
aS'15'
p113
aa(lp114
S'prepc_according_to'
p115
aS'15'
p116
aS'17'
p117
aa(lp118
S'det'
p119
aS'20'
p120
aS'18'
p121
aa(lp122
S'nn'
p123
aS'20'
p124
aS'19'
p125
aa(lp126
S'pobj'
p127
aS'15'
p128
aS'20'
p129
aasS'srls'
p130
(lp131
(dp132
S'A0'
p133
S'the mountain'
p134
sS'AM-MNR'
p135
S'according to the SOIUSA classification00'
p136
sS'V'
g39
sasS'pos_seq'
p137
(lp138
S'NNP'
p139
aS'NNP'
p140
aS'JJ'
p141
aS'NN'
p142
aS'NNP'
p143
aS'NNP'
p144
aS'DT'
p145
aS'NNPS'
p146
aS'JJ'
p147
aS'NN'
p148
aS'TO'
p149
aS'WDT'
p150
aS'DT'
p151
aS'NN'
p152
aS'VBZ'
p153
aS'VBG'
p154
aS'TO'
p155
aS'DT'
p156
aS'NN'
p157
aS'NN'
p158
asS'ner_seq'
p159
(lp160
S'B-LOC'
p161
aS'E-LOC'
p162
aS'O'
aS'O'
aS'B-LOC'
p163
aS'E-LOC'
p164
aS'O'
aS'S-LOC'
p165
aS'O'
aS'O'
aS'O'
aS'O'
aS'O'
aS'O'
aS'O'
aS'O'
aS'O'
aS'O'
aS'S-ORG'
p166
aS'O'
assb.