ccopy_reg
_reconstructor
p1
(c__main__
KBproperty
p2
c__builtin__
object
p3
NtRp4
(dp5
S'comment'
p6
S'World Register of Marine Species00'
p7
sS'domain'
p8
S'Species '
p9
sS'instances_count'
p10
I0
sS'phrases'
p11
NsS'syn_hypo'
p12
S''
sS'label'
p13
S'WoRMS'
p14
sS'range'
p15
S''
sS'uniq_subjs'
p16
S'0'
sS'uniq_objs'
p17
I0
sS'prop_uri'
p18
S'http://dbpedia.org/ontology/woRMS'
p19
sS'annotations'
p20
(dp21
S'bag_of_words'
p22
(lp23
S'Species'
p24
aS'WoRMS'
p25
aS'World'
p26
aS'Register'
p27
aS'of'
p28
aS'Marine'
p29
aS'Species00'
p30
asS'chunk_seq'
p31
(lp32
S'B-NP'
p33
aS'I-NP'
p34
aS'I-NP'
p35
aS'E-NP'
p36
aS'S-PP'
p37
aS'B-NP'
p38
aS'E-NP'
p39
asS'dep_seq'
p40
(lp41
(lp42
S'nn'
p43
aS'3'
aS'1'
aa(lp44
S'nn'
p45
aS'3'
aS'2'
aa(lp46
S'nsubj'
p47
aS'4'
aS'3'
aa(lp48
S'root'
p49
aS'0'
aS'4'
aa(lp50
S'nn'
p51
aS'7'
aS'6'
aa(lp52
S'prep_of'
p53
aS'4'
aS'7'
aasS'srls'
p54
(lp55
sS'pos_seq'
p56
(lp57
S'NNPS'
p58
aS'NNPS'
p59
aS'NNP'
p60
aS'NNP'
p61
aS'IN'
p62
aS'NNP'
p63
aS'NNP'
p64
asS'ner_seq'
p65
(lp66
S'O'
aS'B-ORG'
p67
aS'I-ORG'
p68
aS'I-ORG'
p69
aS'I-ORG'
p70
aS'I-ORG'
p71
aS'E-ORG'
p72
assb.