ccopy_reg
_reconstructor
p1
(c__main__
KBproperty
p2
c__builtin__
object
p3
NtRp4
(dp5
S'comment'
p6
S'A rank in the classification of organisms below genus ; a taxon at that rank00'
p7
sS'domain'
p8
S'Species '
p9
sS'instances_count'
p10
I0
sS'phrases'
p11
NsS'syn_hypo'
p12
V
sS'label'
p13
S'subgenus'
p14
sS'range'
p15
S''
sS'uniq_subjs'
p16
S'0'
sS'uniq_objs'
p17
I0
sS'prop_uri'
p18
S'http://dbpedia.org/ontology/subGenus'
p19
sS'annotations'
p20
(dp21
S'bag_of_words'
p22
(lp23
S'Species'
p24
aS'subgenus'
p25
aS'A'
aS'rank'
p26
aS'in'
p27
aS'the'
p28
aS'classification'
p29
aS'of'
p30
aS'organisms'
p31
aS'below'
p32
aS'genus'
p33
aS';'
aS'a'
aS'taxon'
p34
aS'at'
p35
aS'that'
p36
aS'rank00'
p37
asS'chunk_seq'
p38
(lp39
S'S-NP'
p40
aS'S-VP'
p41
aS'B-NP'
p42
aS'E-NP'
p43
aS'S-PP'
p44
aS'B-NP'
p45
aS'E-NP'
p46
aS'S-PP'
p47
aS'S-NP'
p48
aS'S-PP'
p49
aS'S-NP'
p50
aS'O'
aS'B-NP'
p51
aS'E-NP'
p52
aS'S-PP'
p53
aS'B-NP'
p54
aS'E-NP'
p55
asS'dep_seq'
p56
(lp57
(lp58
S'nsubj'
p59
aS'2'
aS'1'
aa(lp60
S'root'
p61
aS'0'
aS'2'
aa(lp62
S'det'
p63
aS'4'
aS'3'
aa(lp64
S'dobj'
p65
aS'2'
aS'4'
aa(lp66
S'det'
p67
aS'7'
aS'6'
aa(lp68
S'prep_in'
p69
aS'4'
aS'7'
aa(lp70
S'prep_of'
p71
aS'7'
aS'9'
aa(lp72
S'prep_below'
p73
aS'4'
aS'11'
p74
aa(lp75
S'det'
p76
aS'14'
p77
aS'13'
p78
aa(lp79
S'dep'
p80
aS'11'
p81
aS'14'
p82
aa(lp83
S'det'
p84
aS'17'
p85
aS'16'
p86
aa(lp87
S'prep_at'
p88
aS'14'
p89
aS'17'
p90
aasS'srls'
p91
(lp92
(dp93
S'A1'
p94
S'A rank'
p95
sS'A0'
p96
g24
sS'A2'
p97
S'in the classification of organisms below genus'
p98
sS'V'
g25
sasS'pos_seq'
p99
(lp100
S'NNS'
p101
aS'VBP'
p102
aS'DT'
p103
aS'NN'
p104
aS'IN'
p105
aS'DT'
p106
aS'NN'
p107
aS'IN'
p108
aS'NNS'
p109
aS'IN'
p110
aS'NN'
p111
aS':'
aS'DT'
p112
aS'NN'
p113
aS'IN'
p114
aS'DT'
p115
aS'NN'
p116
asS'ner_seq'
p117
(lp118
S'O'
aS'O'
aS'O'
aS'O'
aS'O'
aS'O'
aS'O'
aS'O'
aS'O'
aS'O'
aS'O'
aS'O'
aS'O'
aS'O'
aS'O'
aS'O'
aS'O'
assb.