ccopy_reg
_reconstructor
p1
(c__main__
KBproperty
p2
c__builtin__
object
p3
NtRp4
(dp5
S'comment'
p6
S'41711319'
p7
sS'domain'
p8
S'Cartoon '
p9
sS'instances_count'
p10
I412
sS'phrases'
p11
NsS'syn_hypo'
p12
V
sS'label'
p13
S'animator'
p14
sS'range'
p15
S'Agent '
p16
sS'uniq_subjs'
p17
S'412'
p18
sS'uniq_objs'
p19
I0
sS'prop_uri'
p20
S'http://dbpedia.org/ontology/animator'
p21
sS'annotations'
p22
(dp23
S'bag_of_words'
p24
(lp25
S'Cartoon'
p26
aS'animator'
p27
aS'Agent'
p28
aS'41711319'
p29
asS'chunk_seq'
p30
(lp31
S'B-NP'
p32
aS'I-NP'
p33
aS'E-NP'
p34
aS'O'
asS'dep_seq'
p35
(lp36
(lp37
S'nn'
p38
aS'3'
aS'1'
aa(lp39
S'nn'
p40
aS'3'
aS'2'
aa(lp41
S'root'
p42
aS'0'
aS'3'
aa(lp43
S'punct'
p44
aS'3'
aS'4'
aasS'srls'
p45
(lp46
sS'pos_seq'
p47
(lp48
S'NN'
p49
aS'NN'
p50
aS'NN'
p51
aS'.'
asS'ner_seq'
p52
(lp53
S'O'
aS'O'
aS'O'
aS'O'
assb.