ccopy_reg
_reconstructor
p1
(c__main__
KBproperty
p2
c__builtin__
object
p3
NtRp4
(dp5
S'comment'
p6
S'The name designating a formal collection of steps to be taken to complete the case00'
p7
sS'domain'
p8
S'Case '
p9
sS'instances_count'
p10
I0
sS'phrases'
p11
NsS'syn_hypo'
p12
VBertillon_systemprocedureprocesscalculationprocedureprocesscomputationprocedureprocesscomputingprocedureprocessconditionprocedureprocessexperimental_conditionprocedureprocessdiagnostic_procedureprocedureprocessdiagnostic_techniqueprocedureprocessemergency_procedureprocedureprocessexperimental_procedureprocedureprocessfingerprintingprocedureprocessgenetic_profilingprocedureprocessgenetic_fingerprintingprocedureprocessindirectionprocedureprocessmappingprocedureprocesschromosome_mappingprocedureprocessmedical_procedureprocedureprocessoperating_procedureprocedureprocessrigmaroleprocedureprocessrigamaroleprocedureprocessroutineprocedureprocessmodus_operandiprocedureprocessruleprocedureprocessformulaprocedureprocessstiffening
p13
sS'label'
p14
S'procedure'
p15
sS'range'
p16
S'string '
p17
sS'uniq_subjs'
p18
S'0'
sS'uniq_objs'
p19
I0
sS'prop_uri'
p20
S'http://dbpedia.org/ontology/procedure'
p21
sS'annotations'
p22
(dp23
S'bag_of_words'
p24
(lp25
S'Case'
p26
aS'procedure'
p27
aS'string'
p28
aS'The'
p29
aS'name'
p30
aS'designating'
p31
aS'a'
aS'formal'
p32
aS'collection'
p33
aS'of'
p34
aS'steps'
p35
aS'to'
p36
aS'be'
p37
aS'taken'
p38
aS'to'
p39
aS'complete'
p40
aS'the'
p41
aS'case00'
p42
asS'chunk_seq'
p43
(lp44
S'B-NP'
p45
aS'I-NP'
p46
aS'E-NP'
p47
aS'B-NP'
p48
aS'E-NP'
p49
aS'S-VP'
p50
aS'B-NP'
p51
aS'I-NP'
p52
aS'E-NP'
p53
aS'S-PP'
p54
aS'S-NP'
p55
aS'B-VP'
p56
aS'I-VP'
p57
aS'E-VP'
p58
aS'B-VP'
p59
aS'E-VP'
p60
aS'B-NP'
p61
aS'E-NP'
p62
asS'dep_seq'
p63
(lp64
(lp65
S'dep'
p66
aS'5'
aS'1'
aa(lp67
S'nn'
p68
aS'3'
aS'2'
aa(lp69
S'dep'
p70
aS'5'
aS'3'
aa(lp71
S'det'
p72
aS'5'
aS'4'
aa(lp73
S'root'
p74
aS'0'
aS'5'
aa(lp75
S'partmod'
p76
aS'5'
aS'6'
aa(lp77
S'det'
p78
aS'9'
aS'7'
aa(lp79
S'amod'
p80
aS'9'
aS'8'
aa(lp81
S'dobj'
p82
aS'6'
aS'9'
aa(lp83
S'prep_of'
p84
aS'9'
aS'11'
p85
aa(lp86
S'aux'
p87
aS'14'
p88
aS'12'
p89
aa(lp90
S'auxpass'
p91
aS'14'
p92
aS'13'
p93
aa(lp94
S'infmod'
p95
aS'11'
p96
aS'14'
p97
aa(lp98
S'aux'
p99
aS'16'
p100
aS'15'
p101
aa(lp102
S'xcomp'
p103
aS'14'
p104
aS'16'
p105
aa(lp106
S'det'
p107
aS'18'
p108
aS'17'
p109
aa(lp110
S'dobj'
p111
aS'16'
p112
aS'18'
p113
aasS'srls'
p114
(lp115
(dp116
S'A1'
p117
S'a formal collection of steps'
p118
sS'A0'
p119
S'Case procedure string The name'
p120
sS'AM-PNC'
p121
S'to be taken to complete the case00'
p122
sS'V'
g31
sa(dp123
S'A1'
p124
S'Case procedure string The name designating a formal collection of steps'
p125
sS'AM-PNC'
p126
S'to complete the case00'
p127
sS'V'
g38
sa(dp128
S'A1'
p129
S'the case00'
p130
sS'A0'
p131
S'a formal collection of steps'
p132
sS'V'
g40
sasS'pos_seq'
p133
(lp134
S'NN'
p135
aS'NN'
p136
aS'NN'
p137
aS'DT'
p138
aS'NN'
p139
aS'VBG'
p140
aS'DT'
p141
aS'JJ'
p142
aS'NN'
p143
aS'IN'
p144
aS'NNS'
p145
aS'TO'
p146
aS'VB'
p147
aS'VBN'
p148
aS'TO'
p149
aS'VB'
p150
aS'DT'
p151
aS'NN'
p152
asS'ner_seq'
p153
(lp154
S'O'
aS'O'
aS'O'
aS'O'
aS'O'
aS'O'
aS'O'
aS'O'
aS'O'
aS'O'
aS'O'
aS'O'
aS'O'
aS'O'
aS'O'
aS'O'
aS'O'
aS'O'
assb.