ccopy_reg
_reconstructor
p1
(c__main__
KBproperty
p2
c__builtin__
object
p3
NtRp4
(dp5
S'comment'
p6
S'approved rating of the Entertainment Software Self-Regulation Body in Germany'
p7
sS'domain'
p8
S''
sS'instances_count'
p9
I0
sS'phrases'
p10
NsS'syn_hypo'
p11
S''
sS'label'
p12
g7
sS'range'
p13
S'integer '
p14
sS'uniq_subjs'
p15
S'0'
sS'uniq_objs'
p16
I0
sS'prop_uri'
p17
S'http://dbpedia.org/ontology/usk'
p18
sS'annotations'
p19
(dp20
S'bag_of_words'
p21
(lp22
S'usk'
p23
aS'integer'
p24
aS'approved'
p25
aS'rating'
p26
aS'of'
p27
aS'the'
p28
aS'Entertainment'
p29
aS'Software'
p30
aS'Self-Regulation'
p31
aS'Body'
p32
aS'in'
p33
aS'Germany'
p34
asS'chunk_seq'
p35
(lp36
S'B-NP'
p37
aS'I-NP'
p38
aS'I-NP'
p39
aS'E-NP'
p40
aS'S-PP'
p41
aS'B-NP'
p42
aS'I-NP'
p43
aS'I-NP'
p44
aS'I-NP'
p45
aS'E-NP'
p46
aS'S-PP'
p47
aS'S-NP'
p48
asS'dep_seq'
p49
(lp50
(lp51
S'dep'
p52
aS'4'
aS'1'
aa(lp53
S'nn'
p54
aS'4'
aS'2'
aa(lp55
S'amod'
p56
aS'4'
aS'3'
aa(lp57
S'root'
p58
aS'0'
aS'4'
aa(lp59
S'det'
p60
aS'10'
p61
aS'6'
aa(lp62
S'nn'
p63
aS'10'
p64
aS'7'
aa(lp65
S'nn'
p66
aS'10'
p67
aS'8'
aa(lp68
S'nn'
p69
aS'10'
p70
aS'Regulation'
p71
aa(lp72
S'prep_of'
p73
aS'4'
aS'10'
p74
aa(lp75
S'prep_in'
p76
aS'4'
aS'12'
p77
aasS'srls'
p78
(lp79
sS'pos_seq'
p80
(lp81
S'SYM'
p82
aS'NN'
p83
aS'VBN'
p84
aS'NN'
p85
aS'IN'
p86
aS'DT'
p87
aS'NNP'
p88
aS'NNP'
p89
aS'NNP'
p90
aS'NNP'
p91
aS'IN'
p92
aS'NNP'
p93
asS'ner_seq'
p94
(lp95
S'O'
aS'O'
aS'O'
aS'O'
aS'O'
aS'O'
aS'B-ORG'
p96
aS'I-ORG'
p97
aS'I-ORG'
p98
aS'E-ORG'
p99
aS'O'
aS'S-LOC'
p100
assb.