ccopy_reg
_reconstructor
p1
(c__main__
KBproperty
p2
c__builtin__
object
p3
NtRp4
(dp5
S'comment'
p6
S'indicates another place situated north.00'
p7
sS'domain'
p8
S'Place '
p9
sS'instances_count'
p10
I0
sS'phrases'
p11
NsS'syn_hypo'
p12
S''
sS'label'
p13
S'north place'
p14
sS'range'
p15
S'Place '
p16
sS'uniq_subjs'
p17
S'0'
sS'uniq_objs'
p18
I0
sS'prop_uri'
p19
S'http://dbpedia.org/ontology/northPlace'
p20
sS'annotations'
p21
(dp22
S'bag_of_words'
p23
(lp24
S'Place'
p25
aS'north'
p26
aS'place'
p27
aS'Place'
p28
aS'indicates'
p29
aS'another'
p30
aS'place'
p31
aS'situated'
p32
aS'north.00'
p33
asS'chunk_seq'
p34
(lp35
S'B-NP'
p36
aS'I-NP'
p37
aS'I-NP'
p38
aS'E-NP'
p39
aS'S-VP'
p40
aS'B-NP'
p41
aS'E-NP'
p42
aS'S-VP'
p43
aS'S-ADJP'
p44
asS'dep_seq'
p45
(lp46
(lp47
S'nsubj'
p48
aS'5'
aS'1'
aa(lp49
S'amod'
p50
aS'4'
aS'2'
aa(lp51
S'nn'
p52
aS'4'
aS'3'
aa(lp53
S'dep'
p54
aS'1'
aS'4'
aa(lp55
S'root'
p56
aS'0'
aS'5'
aa(lp57
S'det'
p58
aS'7'
aS'6'
aa(lp59
S'dobj'
p60
aS'5'
aS'7'
aa(lp61
S'iobj'
p62
aS'5'
aS'7'
aa(lp63
S'dobj'
p64
aS'5'
aS'8'
aa(lp65
S'dep'
p66
aS'7'
aS'8'
aa(lp67
S'punct'
p68
aS'8'
aS'9'
aasS'srls'
p69
(lp70
(dp71
S'A1'
p72
S'another place situated north.00'
p73
sS'A0'
p74
S'Place north place Place'
p75
sS'V'
g29
sa(dp76
S'A1'
p77
S'another place'
p78
sS'A2'
p79
g33
sS'V'
g32
sasS'pos_seq'
p80
(lp81
S'NN'
p82
aS'JJ'
p83
aS'NN'
p84
aS'NN'
p85
aS'VBZ'
p86
aS'DT'
p87
aS'NN'
p88
aS'VBN'
p89
aS'.'
asS'ner_seq'
p90
(lp91
S'O'
aS'O'
aS'O'
aS'O'
aS'O'
aS'O'
aS'O'
aS'O'
aS'O'
assb.