ccopy_reg
_reconstructor
p1
(c__main__
KBproperty
p2
c__builtin__
object
p3
NtRp4
(dp5
S'comment'
p6
S'End of the route. For U.S. roads this should be either "South" or "West" per the standards set by the U.S. Roads project.1560215565'
p7
sS'domain'
p8
S'Route Of Transportation '
p9
sS'instances_count'
p10
I15602
sS'phrases'
p11
NsS'syn_hypo'
p12
S''
sS'label'
p13
S'road start direction'
p14
sS'range'
p15
S'string '
p16
sS'uniq_subjs'
p17
S'75'
p18
sS'uniq_objs'
p19
I0
sS'prop_uri'
p20
S'http://dbpedia.org/ontology/routeStartDirection'
p21
sS'annotations'
p22
(dp23
S'bag_of_words'
p24
(lp25
S'Route'
p26
aS'Of'
p27
aS'Transportation'
p28
aS'road'
p29
aS'start'
p30
aS'direction'
p31
aS'string'
p32
aS'End'
p33
aS'of'
p34
aS'the'
p35
aS'route'
p36
aS'.'
aS'For'
p37
aS'U.S.'
p38
aS'roads'
p39
aS'this'
p40
aS'should'
p41
aS'be'
p42
aS'either'
p43
aS'"'
aS'South'
p44
aS'"'
aS'or'
p45
aS'"'
aS'West'
p46
aS'"'
aS'per'
p47
aS'the'
p48
aS'standards'
p49
aS'set'
p50
aS'by'
p51
aS'the'
p52
aS'U.S.'
p53
aS'Roads'
p54
aS'project.1560215565'
p55
asS'chunk_seq'
p56
(lp57
S'S-NP'
p58
aS'S-PP'
p59
aS'B-NP'
p60
aS'E-NP'
p61
aS'S-VP'
p62
aS'B-NP'
p63
aS'I-NP'
p64
aS'E-NP'
p65
aS'S-PP'
p66
aS'B-NP'
p67
aS'E-NP'
p68
aS'O'
aS'S-PP'
p69
aS'B-NP'
p70
aS'E-NP'
p71
aS'S-NP'
p72
aS'B-VP'
p73
aS'E-VP'
p74
aS'O'
aS'O'
aS'O'
aS'O'
aS'O'
aS'O'
aS'O'
aS'O'
aS'S-PP'
p75
aS'B-NP'
p76
aS'E-NP'
p77
aS'S-VP'
p78
aS'S-PP'
p79
aS'B-NP'
p80
aS'I-NP'
p81
aS'E-NP'
p82
aS'S-ADJP'
p83
asS'dep_seq'
p84
(lp85
(lp86
S'nn'
p87
aS'4'
aS'1'
aa(lp88
S'prep_of'
p89
aS'4'
aS'3'
aa(lp90
S'nsubj'
p91
aS'30'
p92
aS'4'
aa(lp93
S'dep'
p94
aS'30'
p95
aS'5'
aa(lp96
S'nn'
p97
aS'7'
aS'6'
aa(lp98
S'nsubj'
p99
aS'30'
p100
aS'7'
aa(lp101
S'dep'
p102
aS'7'
aS'8'
aa(lp103
S'det'
p104
aS'11'
p105
aS'10'
p106
aa(lp107
S'prep_of'
p108
aS'8'
aS'11'
p109
aa(lp110
S'nn'
p111
aS'15'
p112
aS'14'
p113
aa(lp114
S'prep_for'
p115
aS'30'
p116
aS'15'
p117
aa(lp118
S'nsubj'
p119
aS'30'
p120
aS'16'
p121
aa(lp122
S'dep'
p123
aS'30'
p124
aS'17'
p125
aa(lp126
S'dep'
p127
aS'30'
p128
aS'18'
p129
aa(lp130
S'dep'
p131
aS'30'
p132
aS'19'
p133
aa(lp134
S'dep'
p135
aS'30'
p136
aS'20'
p137
aa(lp138
S'nn'
p139
aS'25'
p140
aS'21'
p141
aa(lp142
S'nn'
p143
aS'25'
p144
aS'22'
p145
aa(lp146
S'nn'
p147
aS'25'
p148
aS'23'
p149
aa(lp150
S'nn'
p151
aS'25'
p152
aS'24'
p153
aa(lp154
S'advmod'
p155
aS'30'
p156
aS'25'
p157
aa(lp158
S'dep'
p159
aS'30'
p160
aS'26'
p161
aa(lp162
S'det'
p163
aS'29'
p164
aS'28'
p165
aa(lp166
S'prep_per'
p167
aS'30'
p168
aS'29'
p169
aa(lp170
S'root'
p171
aS'0'
aS'30'
p172
aa(lp173
S'det'
p174
aS'34'
p175
aS'32'
p176
aa(lp177
S'nn'
p178
aS'34'
p179
aS'33'
p180
aa(lp181
S'prep_by'
p182
aS'30'
p183
aS'34'
p184
aa(lp185
S'punct'
p186
aS'30'
p187
aS'35'
p188
aasS'srls'
p189
(lp190
(dp191
S'A1'
p192
S'direction string End of the route'
p193
sS'A0'
p194
S'Route Of Transportation road'
p195
sS'AM-LOC'
p196
S'For U.S. roads this should be either " South " or " West " per the standards set by the U.S. Roads project.1560215565'
p197
sS'V'
g30
sa(dp198
S'A1'
p199
S'the standards'
p200
sS'A0'
p201
S'by the U.S. Roads project.1560215565'
p202
sS'V'
g50
sasS'pos_seq'
p203
(lp204
S'NNP'
p205
aS'IN'
p206
aS'NNP'
p207
aS'NN'
p208
aS'VBP'
p209
aS'NN'
p210
aS'NN'
p211
aS'NN'
p212
aS'IN'
p213
aS'DT'
p214
aS'NN'
p215
aS'.'
aS'IN'
p216
aS'NNP'
p217
aS'NNS'
p218
aS'DT'
p219
aS'MD'
p220
aS'VB'
p221
aS'DT'
p222
aS'FW'
p223
aS'FW'
p224
aS'FW'
p225
aS'FW'
p226
aS'FW'
p227
aS'FW'
p228
aS'FW'
p229
aS'IN'
p230
aS'DT'
p231
aS'NNS'
p232
aS'VBN'
p233
aS'IN'
p234
aS'DT'
p235
aS'NNP'
p236
aS'NNPS'
p237
aS'.'
asS'ner_seq'
p238
(lp239
S'B-ORG'
p240
aS'I-ORG'
p241
aS'E-ORG'
p242
aS'O'
aS'O'
aS'O'
aS'O'
aS'O'
aS'O'
aS'O'
aS'O'
aS'O'
aS'O'
aS'S-LOC'
p243
aS'O'
aS'O'
aS'O'
aS'O'
aS'O'
aS'O'
aS'S-MISC'
p244
aS'O'
aS'O'
aS'O'
aS'O'
aS'O'
aS'O'
aS'O'
aS'O'
aS'O'
aS'O'
aS'O'
aS'S-LOC'
p245
aS'O'
aS'O'
assb.