ccopy_reg
_reconstructor
p1
(c__main__
KBproperty
p2
c__builtin__
object
p3
NtRp4
(dp5
S'comment'
p6
S'00'
p7
sS'domain'
p8
S'Settlement '
p9
sS'instances_count'
p10
I0
sS'phrases'
p11
NsS'syn_hypo'
p12
S''
sS'label'
p13
S'merged settlement'
p14
sS'range'
p15
S'Settlement '
p16
sS'uniq_subjs'
p17
S'0'
sS'uniq_objs'
p18
I0
sS'prop_uri'
p19
S'http://dbpedia.org/ontology/mergedSettlement'
p20
sS'annotations'
p21
(dp22
S'bag_of_words'
p23
(lp24
S'Settlement'
p25
aS'merged'
p26
aS'settlement'
p27
aS'Settlement'
p28
aS'00'
p29
asS'chunk_seq'
p30
(lp31
S'S-NP'
p32
aS'S-VP'
p33
aS'B-NP'
p34
aS'E-NP'
p35
aS'S-ADVP'
p36
asS'dep_seq'
p37
(lp38
(lp39
S'nsubj'
p40
aS'2'
aS'1'
aa(lp41
S'root'
p42
aS'0'
aS'2'
aa(lp43
S'nn'
p44
aS'4'
aS'3'
aa(lp45
S'dobj'
p46
aS'2'
aS'4'
aa(lp47
S'num'
p48
aS'4'
aS'5'
aasS'srls'
p49
(lp50
(dp51
S'A1'
p52
S'Settlement  settlement Settlement 00'
p53
sS'V'
g26
sasS'pos_seq'
p54
(lp55
S'NN'
p56
aS'VBD'
p57
aS'NN'
p58
aS'NN'
p59
aS'CD'
p60
asS'ner_seq'
p61
(lp62
S'O'
aS'O'
aS'O'
aS'O'
aS'O'
assb.