ccopy_reg
_reconstructor
p1
(c__main__
KBproperty
p2
c__builtin__
object
p3
NtRp4
(dp5
S'comment'
p6
S'00'
p7
sS'domain'
p8
S'Building '
p9
sS'instances_count'
p10
I0
sS'phrases'
p11
NsS'syn_hypo'
p12
S''
sS'label'
p13
S'elevator count'
p14
sS'range'
p15
S'non Negative Integer '
p16
sS'uniq_subjs'
p17
S'0'
sS'uniq_objs'
p18
I0
sS'prop_uri'
p19
S'http://dbpedia.org/ontology/elevatorCount'
p20
sS'annotations'
p21
(dp22
S'bag_of_words'
p23
(lp24
S'Building'
p25
aS'elevator'
p26
aS'count'
p27
aS'non'
p28
aS'Negative'
p29
aS'Integer'
p30
aS'00'
p31
asS'chunk_seq'
p32
(lp33
S'B-NP'
p34
aS'E-NP'
p35
aS'S-VP'
p36
aS'B-NP'
p37
aS'I-NP'
p38
aS'E-NP'
p39
aS'O'
asS'dep_seq'
p40
(lp41
(lp42
S'amod'
p43
aS'2'
aS'1'
aa(lp44
S'nsubj'
p45
aS'3'
aS'2'
aa(lp46
S'root'
p47
aS'0'
aS'3'
aa(lp48
S'amod'
p49
aS'6'
aS'4'
aa(lp50
S'nn'
p51
aS'6'
aS'5'
aa(lp52
S'dobj'
p53
aS'3'
aS'6'
aa(lp54
S'num'
p55
aS'6'
aS'7'
aasS'srls'
p56
(lp57
(dp58
S'A1'
p59
S'elevator count non Negative Integer 00'
p60
sS'V'
g25
sa(dp61
S'A1'
p62
S'non Negative Integer 00'
p63
sS'A0'
p64
S'Building elevator'
p65
sS'V'
g27
sasS'pos_seq'
p66
(lp67
S'VBG'
p68
aS'NN'
p69
aS'VBP'
p70
aS'JJ'
p71
aS'NNP'
p72
aS'NNP'
p73
aS'CD'
p74
asS'ner_seq'
p75
(lp76
S'O'
aS'O'
aS'O'
aS'O'
aS'O'
aS'O'
aS'O'
assb.