ccopy_reg
_reconstructor
p1
(c__main__
KBproperty
p2
c__builtin__
object
p3
NtRp4
(dp5
S'comment'
p6
S'113113'
p7
sS'domain'
p8
S''
sS'instances_count'
p9
I26
sS'phrases'
p10
NsS'syn_hypo'
p11
S''
sS'label'
p12
S'ethnic groups in year'
p13
sS'range'
p14
S'g Year '
p15
sS'uniq_subjs'
p16
S'26'
p17
sS'uniq_objs'
p18
I0
sS'prop_uri'
p19
S'http://dbpedia.org/ontology/ethnicGroupsInYear'
p20
sS'annotations'
p21
(dp22
S'bag_of_words'
p23
(lp24
S'ethnic'
p25
aS'groups'
p26
aS'in'
p27
aS'year'
p28
aS'g'
aS'Year'
p29
aS'113113'
p30
asS'chunk_seq'
p31
(lp32
S'B-NP'
p33
aS'E-NP'
p34
aS'S-PP'
p35
aS'B-NP'
p36
aS'I-NP'
p37
aS'I-NP'
p38
aS'E-NP'
p39
asS'dep_seq'
p40
(lp41
(lp42
S'amod'
p43
aS'2'
aS'1'
aa(lp44
S'root'
p45
aS'0'
aS'2'
aa(lp46
S'nn'
p47
aS'7'
aS'4'
aa(lp48
S'nn'
p49
aS'7'
aS'5'
aa(lp50
S'nn'
p51
aS'7'
aS'6'
aa(lp52
S'prep_in'
p53
aS'2'
aS'7'
aasS'srls'
p54
(lp55
sS'pos_seq'
p56
(lp57
S'JJ'
p58
aS'NNS'
p59
aS'IN'
p60
aS'NN'
p61
aS'NN'
p62
aS'NN'
p63
aS'NN'
p64
asS'ner_seq'
p65
(lp66
S'O'
aS'O'
aS'O'
aS'O'
aS'O'
aS'O'
aS'O'
assb.