ccopy_reg
_reconstructor
p1
(c__main__
KBproperty
p2
c__builtin__
object
p3
NtRp4
(dp5
S'comment'
p6
S'is close to'
p7
sS'domain'
p8
S'Place '
p9
sS'instances_count'
p10
I0
sS'phrases'
p11
NsS'syn_hypo'
p12
S''
sS'label'
p13
g7
sS'range'
p14
S'Place '
p15
sS'uniq_subjs'
p16
S'0'
sS'uniq_objs'
p17
I0
sS'prop_uri'
p18
S'http://dbpedia.org/ontology/closeTo'
p19
sS'annotations'
p20
(dp21
S'bag_of_words'
p22
(lp23
S'Place'
p24
aS'close'
p25
aS'To'
p26
aS'Place'
p27
aS'is'
p28
aS'close'
p29
aS'to'
p30
asS'chunk_seq'
p31
(lp32
S'S-NP'
p33
aS'S-ADJP'
p34
aS'S-PP'
p35
aS'S-NP'
p36
aS'S-VP'
p37
aS'S-ADJP'
p38
aS'S-PP'
p39
asS'dep_seq'
p40
(lp41
(lp42
S'nsubj'
p43
aS'5'
aS'1'
aa(lp44
S'amod'
p45
aS'1'
aS'2'
aa(lp46
S'prep_to'
p47
aS'2'
aS'4'
aa(lp48
S'root'
p49
aS'0'
aS'5'
aa(lp50
S'advmod'
p51
aS'5'
aS'6'
aa(lp52
S'prep'
p53
aS'6'
aS'7'
aasS'srls'
p54
(lp55
sS'pos_seq'
p56
(lp57
S'NN'
p58
aS'RB'
p59
aS'TO'
p60
aS'NNP'
p61
aS'VBZ'
p62
aS'RB'
p63
aS'TO'
p64
asS'ner_seq'
p65
(lp66
S'O'
aS'O'
aS'O'
aS'O'
aS'O'
aS'O'
aS'O'
assb.