ccopy_reg
_reconstructor
p1
(c__main__
KBproperty
p2
c__builtin__
object
p3
NtRp4
(dp5
S'comment'
p6
S'A quotation is the repetition of one expression as part of another one particularly when the quoted expression is well-known or explicitly attributed by citation to its original source.00'
p7
sS'domain'
p8
S''
sS'instances_count'
p9
I0
sS'phrases'
p10
NsS'syn_hypo'
p11
Vcross-referencecitationciteacknowledgmentcreditreferencementionquotationcross-indexcitationciteacknowledgmentcreditreferencementionquotationphoto_credit
p12
sS'label'
p13
S'quotation'
p14
sS'range'
p15
S'string '
p16
sS'uniq_subjs'
p17
S'0'
sS'uniq_objs'
p18
I0
sS'prop_uri'
p19
S'http://dbpedia.org/ontology/quotation'
p20
sS'annotations'
p21
(dp22
S'bag_of_words'
p23
(lp24
S'quotation'
p25
aS'string'
p26
aS'A'
aS'quotation'
p27
aS'is'
p28
aS'the'
p29
aS'repetition'
p30
aS'of'
p31
aS'one'
p32
aS'expression'
p33
aS'as'
p34
aS'part'
p35
aS'of'
p36
aS'another'
p37
aS'one'
p38
aS'particularly'
p39
aS'when'
p40
aS'the'
p41
aS'quoted'
p42
aS'expression'
p43
aS'is'
p44
aS'well-known'
p45
aS'or'
p46
aS'explicitly'
p47
aS'attributed'
p48
aS'by'
p49
aS'citation'
p50
aS'to'
p51
aS'its'
p52
aS'original'
p53
aS'source.00'
p54
asS'chunk_seq'
p55
(lp56
S'B-NP'
p57
aS'E-NP'
p58
aS'B-NP'
p59
aS'E-NP'
p60
aS'S-VP'
p61
aS'B-NP'
p62
aS'E-NP'
p63
aS'S-PP'
p64
aS'B-NP'
p65
aS'E-NP'
p66
aS'S-PP'
p67
aS'S-NP'
p68
aS'S-PP'
p69
aS'B-NP'
p70
aS'E-NP'
p71
aS'S-ADVP'
p72
aS'S-ADVP'
p73
aS'B-NP'
p74
aS'I-NP'
p75
aS'E-NP'
p76
aS'S-VP'
p77
aS'S-ADJP'
p78
aS'O'
aS'B-VP'
p79
aS'E-VP'
p80
aS'S-PP'
p81
aS'S-NP'
p82
aS'S-PP'
p83
aS'B-NP'
p84
aS'I-NP'
p85
aS'E-NP'
p86
asS'dep_seq'
p87
(lp88
(lp89
S'nn'
p90
aS'2'
aS'1'
aa(lp91
S'root'
p92
aS'0'
aS'2'
aa(lp93
S'det'
p94
aS'4'
aS'3'
aa(lp95
S'nsubjpass'
p96
aS'7'
aS'4'
aa(lp97
S'auxpass'
p98
aS'7'
aS'5'
aa(lp99
S'cop'
p100
aS'7'
aS'5'
aa(lp101
S'det'
p102
aS'7'
aS'6'
aa(lp103
S'rcmod'
p104
aS'2'
aS'7'
aa(lp105
S'num'
p106
aS'10'
p107
aS'9'
aa(lp108
S'prep_of'
p109
aS'7'
aS'10'
p110
aa(lp111
S'prep_as'
p112
aS'7'
aS'12'
p113
aa(lp114
S'det'
p115
aS'15'
p116
aS'14'
p117
aa(lp118
S'prep_of'
p119
aS'12'
p120
aS'15'
p121
aa(lp122
S'advmod'
p123
aS'15'
p124
aS'16'
p125
aa(lp126
S'advmod'
p127
aS'known'
p128
aS'17'
p129
aa(lp130
S'det'
p131
aS'20'
p132
aS'18'
p133
aa(lp134
S'amod'
p135
aS'20'
p136
aS'19'
p137
aa(lp138
S'nsubj'
p139
aS'known'
p140
aS'20'
p141
aa(lp142
S'cop'
p143
aS'known'
p144
aS'21'
p145
aa(lp146
S'rcmod'
p147
aS'15'
p148
aS'known'
p149
aa(lp150
S'advmod'
p151
aS'25'
p152
aS'24'
p153
aa(lp154
S'conj_or'
p155
aS'7'
aS'25'
p156
aa(lp157
S'prep_by'
p158
aS'25'
p159
aS'27'
p160
aa(lp161
S'poss'
p162
aS'31'
p163
aS'29'
p164
aa(lp165
S'amod'
p166
aS'31'
p167
aS'30'
p168
aa(lp169
S'prep_to'
p170
aS'27'
p171
aS'31'
p172
aasS'srls'
p173
(lp174
(dp175
S'A1'
p176
g43
sS'V'
g42
sa(dp177
S'A1'
p178
S'the quoted expression'
p179
sS'A0'
p180
S'by citation'
p181
sS'A2'
p182
S'to its original source.00'
p183
sS'AM-MNR'
p184
g47
sS'V'
g48
sasS'pos_seq'
p185
(lp186
S'NN'
p187
aS'NN'
p188
aS'DT'
p189
aS'NN'
p190
aS'VBZ'
p191
aS'DT'
p192
aS'NN'
p193
aS'IN'
p194
aS'CD'
p195
aS'NN'
p196
aS'IN'
p197
aS'NN'
p198
aS'IN'
p199
aS'DT'
p200
aS'NN'
p201
aS'RB'
p202
aS'WRB'
p203
aS'DT'
p204
aS'VBN'
p205
aS'NN'
p206
aS'VBZ'
p207
aS'JJ'
p208
aS'CC'
p209
aS'RB'
p210
aS'VBN'
p211
aS'IN'
p212
aS'NN'
p213
aS'TO'
p214
aS'PRP$'
p215
aS'JJ'
p216
aS'NN'
p217
asS'ner_seq'
p218
(lp219
S'O'
aS'O'
aS'O'
aS'O'
aS'O'
aS'O'
aS'O'
aS'O'
aS'O'
aS'O'
aS'O'
aS'O'
aS'O'
aS'O'
aS'O'
aS'O'
aS'O'
aS'O'
aS'O'
aS'O'
aS'O'
aS'O'
aS'O'
aS'O'
aS'O'
aS'O'
aS'O'
aS'O'
aS'O'
aS'O'
aS'O'
assb.