ccopy_reg
_reconstructor
p1
(c__main__
KBproperty
p2
c__builtin__
object
p3
NtRp4
(dp5
S'comment'
p6
S'Used as if meaning: has property rights over00'
p7
sS'domain'
p8
S'Agent '
p9
sS'instances_count'
p10
I0
sS'phrases'
p11
NsS'syn_hypo'
p12
S''
sS'label'
p13
S'owns'
p14
sS'range'
p15
S'Thing '
p16
sS'uniq_subjs'
p17
S'0'
sS'uniq_objs'
p18
I0
sS'prop_uri'
p19
S'http://dbpedia.org/ontology/owns'
p20
sS'annotations'
p21
(dp22
S'bag_of_words'
p23
(lp24
S'Agent'
p25
aS'owns'
p26
aS'Thing'
p27
aS'Used'
p28
aS'as'
p29
aS'if'
p30
aS'meaning'
p31
aS':'
aS'has'
p32
aS'property'
p33
aS'rights'
p34
aS'over00'
p35
asS'chunk_seq'
p36
(lp37
S'S-NP'
p38
aS'S-VP'
p39
aS'S-NP'
p40
aS'S-VP'
p41
aS'S-PP'
p42
aS'S-SBAR'
p43
aS'S-NP'
p44
aS'O'
aS'S-VP'
p45
aS'B-NP'
p46
aS'E-NP'
p47
aS'S-ADJP'
p48
asS'dep_seq'
p49
(lp50
(lp51
S'nn'
p52
aS'3'
aS'1'
aa(lp53
S'dep'
p54
aS'3'
aS'2'
aa(lp55
S'root'
p56
aS'0'
aS'3'
aa(lp57
S'partmod'
p58
aS'3'
aS'4'
aa(lp59
S'mark'
p60
aS'7'
aS'6'
aa(lp61
S'prepc_as'
p62
aS'4'
aS'7'
aa(lp63
S'dep'
p64
aS'3'
aS'9'
aa(lp65
S'nn'
p66
aS'11'
p67
aS'10'
p68
aa(lp69
S'nsubj'
p70
aS'9'
aS'11'
p71
aa(lp72
S'punct'
p73
aS'11'
p74
aS'12'
p75
aasS'srls'
p76
(lp77
(dp78
S'A1'
p79
S'Thing Used as if meaning'
p80
sS'A0'
p81
g25
sS'V'
g26
sa(dp82
S'A1'
p83
g27
sS'V'
g28
sa(dp84
S'A1'
p85
S'property rights over00'
p86
sS'V'
g32
sasS'pos_seq'
p87
(lp88
S'NN'
p89
aS'VBZ'
p90
aS'NN'
p91
aS'VBN'
p92
aS'IN'
p93
aS'IN'
p94
aS'NN'
p95
aS':'
aS'VBZ'
p96
aS'NN'
p97
aS'NNS'
p98
aS'.'
asS'ner_seq'
p99
(lp100
S'O'
aS'O'
aS'O'
aS'O'
aS'O'
aS'O'
aS'O'
aS'O'
aS'O'
aS'O'
aS'O'
aS'O'
assb.