ccopy_reg
_reconstructor
p1
(c__main__
KBproperty
p2
c__builtin__
object
p3
NtRp4
(dp5
S'comment'
p6
S'most down point of a norwegian settlement'
p7
sS'domain'
p8
S'Norway Settlement '
p9
sS'instances_count'
p10
I0
sS'phrases'
p11
NsS'syn_hypo'
p12
S''
sS'label'
p13
g7
sS'range'
p14
S'Place '
p15
sS'uniq_subjs'
p16
S'0'
sS'uniq_objs'
p17
I0
sS'prop_uri'
p18
S'http://dbpedia.org/ontology/mostDownPoint'
p19
sS'annotations'
p20
(dp21
S'bag_of_words'
p22
(lp23
S'Norway'
p24
aS'Settlement'
p25
aS'most'
p26
aS'Down'
p27
aS'Point'
p28
aS'Place'
p29
aS'most'
p30
aS'down'
p31
aS'point'
p32
aS'of'
p33
aS'a'
aS'norwegian'
p34
aS'settlement'
p35
asS'chunk_seq'
p36
(lp37
S'B-NP'
p38
aS'E-NP'
p39
aS'B-ADVP'
p40
aS'E-ADVP'
p41
aS'B-NP'
p42
aS'E-NP'
p43
aS'S-ADVP'
p44
aS'S-PP'
p45
aS'S-NP'
p46
aS'S-PP'
p47
aS'B-NP'
p48
aS'I-NP'
p49
aS'E-NP'
p50
asS'dep_seq'
p51
(lp52
(lp53
S'nn'
p54
aS'2'
aS'1'
aa(lp55
S'root'
p56
aS'0'
aS'2'
aa(lp57
S'advmod'
p58
aS'6'
aS'3'
aa(lp59
S'amod'
p60
aS'6'
aS'4'
aa(lp61
S'nn'
p62
aS'6'
aS'5'
aa(lp63
S'dep'
p64
aS'2'
aS'6'
aa(lp65
S'advmod'
p66
aS'8'
aS'7'
aa(lp67
S'advmod'
p68
aS'6'
aS'8'
aa(lp69
S'dep'
p70
aS'8'
aS'9'
aa(lp71
S'det'
p72
aS'13'
p73
aS'11'
p74
aa(lp75
S'amod'
p76
aS'13'
p77
aS'12'
p78
aa(lp79
S'prep_of'
p80
aS'6'
aS'13'
p81
aasS'srls'
p82
(lp83
sS'pos_seq'
p84
(lp85
S'NNP'
p86
aS'NNP'
p87
aS'RBS'
p88
aS'JJ'
p89
aS'NN'
p90
aS'NN'
p91
aS'RBS'
p92
aS'IN'
p93
aS'NN'
p94
aS'IN'
p95
aS'DT'
p96
aS'JJ'
p97
aS'NN'
p98
asS'ner_seq'
p99
(lp100
S'S-LOC'
p101
aS'O'
aS'O'
aS'O'
aS'O'
aS'O'
aS'O'
aS'O'
aS'O'
aS'O'
aS'O'
aS'O'
aS'O'
assb.