ccopy_reg
_reconstructor
p1
(c__main__
KBproperty
p2
c__builtin__
object
p3
NtRp4
(dp5
S'comment'
p6
S'Type is too general. We should be able to distinguish types of music from types of architecture00'
p7
sS'domain'
p8
S'Musical Work '
p9
sS'instances_count'
p10
I0
sS'phrases'
p11
NsS'syn_hypo'
p12
S''
sS'label'
p13
S'musicType'
p14
sS'range'
p15
S''
sS'uniq_subjs'
p16
S'0'
sS'uniq_objs'
p17
I0
sS'prop_uri'
p18
S'http://dbpedia.org/ontology/musicType'
p19
sS'annotations'
p20
(dp21
S'bag_of_words'
p22
(lp23
S'Musical'
p24
aS'Work'
p25
aS'musicType'
p26
aS'Type'
p27
aS'is'
p28
aS'too'
p29
aS'general'
p30
aS'.'
aS'We'
p31
aS'should'
p32
aS'be'
p33
aS'able'
p34
aS'to'
p35
aS'distinguish'
p36
aS'types'
p37
aS'of'
p38
aS'music'
p39
aS'from'
p40
aS'types'
p41
aS'of'
p42
aS'architecture00'
p43
asS'chunk_seq'
p44
(lp45
S'B-NP'
p46
aS'I-NP'
p47
aS'I-NP'
p48
aS'E-NP'
p49
aS'S-VP'
p50
aS'B-ADJP'
p51
aS'E-ADJP'
p52
aS'O'
aS'S-NP'
p53
aS'B-VP'
p54
aS'E-VP'
p55
aS'S-ADJP'
p56
aS'B-VP'
p57
aS'E-VP'
p58
aS'S-NP'
p59
aS'S-PP'
p60
aS'S-NP'
p61
aS'S-PP'
p62
aS'S-NP'
p63
aS'S-PP'
p64
aS'S-NP'
p65
asS'dep_seq'
p66
(lp67
(lp68
S'nn'
p69
aS'4'
aS'1'
aa(lp70
S'nn'
p71
aS'4'
aS'2'
aa(lp72
S'nn'
p73
aS'4'
aS'3'
aa(lp74
S'nsubj'
p75
aS'7'
aS'4'
aa(lp76
S'cop'
p77
aS'7'
aS'5'
aa(lp78
S'advmod'
p79
aS'7'
aS'6'
aa(lp80
S'root'
p81
aS'0'
aS'7'
aa(lp82
S'nsubj'
p83
aS'12'
p84
aS'9'
aa(lp85
S'xsubj'
p86
aS'14'
p87
aS'9'
aa(lp88
S'aux'
p89
aS'12'
p90
aS'10'
p91
aa(lp92
S'cop'
p93
aS'12'
p94
aS'11'
p95
aa(lp96
S'parataxis'
p97
aS'7'
aS'12'
p98
aa(lp99
S'aux'
p100
aS'14'
p101
aS'13'
p102
aa(lp103
S'xcomp'
p104
aS'12'
p105
aS'14'
p106
aa(lp107
S'dobj'
p108
aS'14'
p109
aS'15'
p110
aa(lp111
S'prep_of'
p112
aS'15'
p113
aS'17'
p114
aa(lp115
S'prep_from'
p116
aS'15'
p117
aS'19'
p118
aa(lp119
S'prep_of'
p120
aS'19'
p121
aS'21'
p122
aasS'srls'
p123
(lp124
(dp125
S'A1'
p126
S'types of music'
p127
sS'A0'
p128
g31
sS'A2'
p129
S'from types of architecture00'
p130
sS'V'
g36
sasS'pos_seq'
p131
(lp132
S'NNP'
p133
aS'NNP'
p134
aS'NNP'
p135
aS'NNP'
p136
aS'VBZ'
p137
aS'RB'
p138
aS'JJ'
p139
aS'.'
aS'PRP'
p140
aS'MD'
p141
aS'VB'
p142
aS'JJ'
p143
aS'TO'
p144
aS'VB'
p145
aS'NNS'
p146
aS'IN'
p147
aS'NN'
p148
aS'IN'
p149
aS'NNS'
p150
aS'IN'
p151
aS'NN'
p152
asS'ner_seq'
p153
(lp154
S'O'
aS'O'
aS'O'
aS'O'
aS'O'
aS'O'
aS'O'
aS'O'
aS'O'
aS'O'
aS'O'
aS'O'
aS'O'
aS'O'
aS'O'
aS'O'
aS'O'
aS'O'
aS'O'
aS'O'
aS'O'
assb.