ccopy_reg
_reconstructor
p1
(c__main__
KBproperty
p2
c__builtin__
object
p3
NtRp4
(dp5
S'comment'
p6
S'60304035'
p7
sS'domain'
p8
S'Artist '
p9
sS'instances_count'
p10
I1933
sS'phrases'
p11
NsS'syn_hypo'
p12
Vathletic_trainingtrainingpreparationgroomingdisciplinetrainingpreparationgroomingdrilltrainingpreparationgroomingexercisetrainingpreparationgroomingpracticetrainingpreparationgroomingdrilltrainingpreparationgroomingpractice_sessiontrainingpreparationgroomingrecitationtrainingpreparationgroomingmilitary_trainingtrainingpreparationgroomingretrainingtrainingpreparationgroomingschoolingtrainingpreparationgroomingskull_sessiontrainingpreparationgroomingskull_practicetrainingpreparationgroomingtoilet_training
p13
sS'label'
p14
S'training'
p15
sS'range'
p16
S'Educational Institution '
p17
sS'uniq_subjs'
p18
S'1933'
p19
sS'uniq_objs'
p20
I0
sS'prop_uri'
p21
S'http://dbpedia.org/ontology/training'
p22
sS'annotations'
p23
(dp24
S'bag_of_words'
p25
(lp26
S'Artist'
p27
aS'training'
p28
aS'Educational'
p29
aS'Institution'
p30
aS'60304035'
p31
asS'chunk_seq'
p32
(lp33
S'B-NP'
p34
aS'I-NP'
p35
aS'I-NP'
p36
aS'E-NP'
p37
aS'S-ADJP'
p38
asS'dep_seq'
p39
(lp40
(lp41
S'nn'
p42
aS'4'
aS'1'
aa(lp43
S'nn'
p44
aS'4'
aS'2'
aa(lp45
S'nn'
p46
aS'4'
aS'3'
aa(lp47
S'root'
p48
aS'0'
aS'4'
aa(lp49
S'punct'
p50
aS'4'
aS'5'
aasS'srls'
p51
(lp52
(dp53
S'A1'
p54
S'Educational Institution 60304035'
p55
sS'A0'
p56
g27
sS'V'
g28
sasS'pos_seq'
p57
(lp58
S'NN'
p59
aS'NN'
p60
aS'NNP'
p61
aS'NNP'
p62
aS'.'
asS'ner_seq'
p63
(lp64
S'O'
aS'O'
aS'B-ORG'
p65
aS'E-ORG'
p66
aS'O'
assb.