ccopy_reg
_reconstructor
p1
(c__main__
KBproperty
p2
c__builtin__
object
p3
NtRp4
(dp5
S'comment'
p6
S'the sport discipline the athlete practices e.g. Diving or that a board member of a sporting club is focussing at00'
p7
sS'domain'
p8
S'Person '
p9
sS'instances_count'
p10
I0
sS'phrases'
p11
NsS'syn_hypo'
p12
S''
sS'label'
p13
S'sport discipline'
p14
sS'range'
p15
S'Sport '
p16
sS'uniq_subjs'
p17
S'0'
sS'uniq_objs'
p18
I0
sS'prop_uri'
p19
S'http://dbpedia.org/ontology/sportDiscipline'
p20
sS'annotations'
p21
(dp22
S'bag_of_words'
p23
(lp24
S'Person'
p25
aS'sport'
p26
aS'discipline'
p27
aS'Sport'
p28
aS'the'
p29
aS'sport'
p30
aS'discipline'
p31
aS'the'
p32
aS'athlete'
p33
aS'practices'
p34
aS'e.g.'
p35
aS'Diving'
p36
aS'or'
p37
aS'that'
p38
aS'a'
aS'board'
p39
aS'member'
p40
aS'of'
p41
aS'a'
aS'sporting'
p42
aS'club'
p43
aS'is'
p44
aS'focussing'
p45
aS'at00'
p46
asS'chunk_seq'
p47
(lp48
S'B-NP'
p49
aS'I-NP'
p50
aS'I-NP'
p51
aS'E-NP'
p52
aS'B-NP'
p53
aS'I-NP'
p54
aS'E-NP'
p55
aS'B-NP'
p56
aS'I-NP'
p57
aS'E-NP'
p58
aS'S-PP'
p59
aS'S-VP'
p60
aS'O'
aS'S-SBAR'
p61
aS'B-NP'
p62
aS'I-NP'
p63
aS'E-NP'
p64
aS'S-PP'
p65
aS'B-NP'
p66
aS'I-NP'
p67
aS'E-NP'
p68
aS'B-VP'
p69
aS'E-VP'
p70
aS'S-ADJP'
p71
asS'dep_seq'
p72
(lp73
(lp74
S'nn'
p75
aS'2'
aS'1'
aa(lp76
S'root'
p77
aS'0'
aS'2'
aa(lp78
S'dep'
p79
aS'10'
p80
aS'3'
aa(lp81
S'dep'
p82
aS'10'
p83
aS'4'
aa(lp84
S'det'
p85
aS'7'
aS'5'
aa(lp86
S'nn'
p87
aS'7'
aS'6'
aa(lp88
S'dep'
p89
aS'10'
p90
aS'7'
aa(lp91
S'det'
p92
aS'10'
p93
aS'8'
aa(lp94
S'nn'
p95
aS'10'
p96
aS'9'
aa(lp97
S'dep'
p98
aS'2'
aS'10'
p99
aa(lp100
S'prep_e.g.'
p101
aS'10'
p102
aS'12'
p103
aa(lp104
S'mark'
p105
aS'23'
p106
aS'14'
p107
aa(lp108
S'det'
p109
aS'17'
p110
aS'15'
p111
aa(lp112
S'nn'
p113
aS'17'
p114
aS'16'
p115
aa(lp116
S'nsubj'
p117
aS'23'
p118
aS'17'
p119
aa(lp120
S'det'
p121
aS'21'
p122
aS'19'
p123
aa(lp124
S'nn'
p125
aS'21'
p126
aS'20'
p127
aa(lp128
S'prep_of'
p129
aS'17'
p130
aS'21'
p131
aa(lp132
S'aux'
p133
aS'23'
p134
aS'22'
p135
aa(lp136
S'conj_or'
p137
aS'10'
p138
aS'23'
p139
aa(lp140
S'advmod'
p141
aS'23'
p142
aS'24'
p143
aasS'srls'
p144
(lp145
(dp146
S'V'
g36
sa(dp147
S'A1'
p148
g46
sS'A0'
p149
S'a board member of a sporting club'
p150
sS'V'
g45
sasS'pos_seq'
p151
(lp152
S'NN'
p153
aS'NN'
p154
aS'NN'
p155
aS'NNP'
p156
aS'DT'
p157
aS'NN'
p158
aS'NN'
p159
aS'DT'
p160
aS'NN'
p161
aS'NNS'
p162
aS'IN'
p163
aS'VBG'
p164
aS'CC'
p165
aS'IN'
p166
aS'DT'
p167
aS'NN'
p168
aS'NN'
p169
aS'IN'
p170
aS'DT'
p171
aS'NN'
p172
aS'NN'
p173
aS'VBZ'
p174
aS'VBG'
p175
aS'.'
asS'ner_seq'
p176
(lp177
S'O'
aS'O'
aS'O'
aS'S-ORG'
p178
aS'O'
aS'O'
aS'O'
aS'O'
aS'O'
aS'O'
aS'O'
aS'O'
aS'O'
aS'O'
aS'O'
aS'O'
aS'O'
aS'O'
aS'O'
aS'O'
aS'O'
aS'O'
aS'O'
aS'O'
assb.