ccopy_reg
_reconstructor
p1
(c__main__
KBproperty
p2
c__builtin__
object
p3
NtRp4
(dp5
S'comment'
p6
S'size of a file or software816657'
p7
sS'domain'
p8
S''
sS'instances_count'
p9
I521
sS'phrases'
p10
NsS'syn_hypo'
p11
S''
sS'label'
p12
S'size B'
p13
sS'range'
p14
S'double '
p15
sS'uniq_subjs'
p16
S'521'
p17
sS'uniq_objs'
p18
I0
sS'prop_uri'
p19
S'http://dbpedia.org/ontology/fileSize'
p20
sS'annotations'
p21
(dp22
S'bag_of_words'
p23
(lp24
S'size'
p25
aS'B'
aS'double'
p26
aS'size'
p27
aS'of'
p28
aS'a'
aS'file'
p29
aS'or'
p30
aS'software816657'
p31
asS'chunk_seq'
p32
(lp33
S'B-NP'
p34
aS'I-NP'
p35
aS'I-NP'
p36
aS'E-NP'
p37
aS'S-PP'
p38
aS'B-NP'
p39
aS'I-NP'
p40
aS'I-NP'
p41
aS'E-NP'
p42
asS'dep_seq'
p43
(lp44
(lp45
S'nn'
p46
aS'4'
aS'1'
aa(lp47
S'nn'
p48
aS'4'
aS'2'
aa(lp49
S'amod'
p50
aS'4'
aS'3'
aa(lp51
S'root'
p52
aS'0'
aS'4'
aa(lp53
S'det'
p54
aS'7'
aS'6'
aa(lp55
S'prep_of'
p56
aS'4'
aS'7'
aa(lp57
S'conj_or'
p58
aS'7'
aS'9'
aasS'srls'
p59
(lp60
sS'pos_seq'
p61
(lp62
S'NN'
p63
aS'NNP'
p64
aS'JJ'
p65
aS'NN'
p66
aS'IN'
p67
aS'DT'
p68
aS'NN'
p69
aS'CC'
p70
aS'NN'
p71
asS'ner_seq'
p72
(lp73
S'O'
aS'O'
aS'O'
aS'O'
aS'O'
aS'O'
aS'O'
aS'O'
aS'O'
assb.