ccopy_reg
_reconstructor
p1
(c__main__
KBproperty
p2
c__builtin__
object
p3
NtRp4
(dp5
S'comment'
p6
S'54'
p7
sS'domain'
p8
S'Supreme Court Of The United States Case '
p9
sS'instances_count'
p10
I5
sS'phrases'
p11
NsS'syn_hypo'
p12
S''
sS'label'
p13
S'decide date'
p14
sS'range'
p15
S'date '
p16
sS'uniq_subjs'
p17
S'5'
sS'uniq_objs'
p18
I0
sS'prop_uri'
p19
S'http://dbpedia.org/ontology/decideDate'
p20
sS'annotations'
p21
(dp22
S'bag_of_words'
p23
(lp24
S'Supreme'
p25
aS'Court'
p26
aS'Of'
p27
aS'The'
p28
aS'United'
p29
aS'States'
p30
aS'Case'
p31
aS'decide'
p32
aS'date'
p33
aS'date'
p34
aS'54'
p35
asS'chunk_seq'
p36
(lp37
S'B-NP'
p38
aS'E-NP'
p39
aS'S-PP'
p40
aS'B-NP'
p41
aS'I-NP'
p42
aS'I-NP'
p43
aS'E-NP'
p44
aS'S-VP'
p45
aS'B-NP'
p46
aS'E-NP'
p47
aS'S-NP'
p48
asS'dep_seq'
p49
(lp50
(lp51
S'nn'
p52
aS'2'
aS'1'
aa(lp53
S'nsubj'
p54
aS'8'
aS'2'
aa(lp55
S'det'
p56
aS'7'
aS'4'
aa(lp57
S'nn'
p58
aS'7'
aS'5'
aa(lp59
S'nn'
p60
aS'7'
aS'6'
aa(lp61
S'prep_of'
p62
aS'2'
aS'7'
aa(lp63
S'root'
p64
aS'0'
aS'8'
aa(lp65
S'nn'
p66
aS'10'
p67
aS'9'
aa(lp68
S'dobj'
p69
aS'8'
aS'10'
p70
aa(lp71
S'iobj'
p72
aS'8'
aS'10'
p73
aa(lp74
S'dobj'
p75
aS'8'
aS'11'
p76
aa(lp77
S'dep'
p78
aS'10'
p79
aS'11'
p80
aasS'srls'
p81
(lp82
(dp83
S'A1'
p84
S'date date 54'
p85
sS'A0'
p86
S'Supreme Court Of The United States Case'
p87
sS'V'
g32
sasS'pos_seq'
p88
(lp89
S'NNP'
p90
aS'NNP'
p91
aS'IN'
p92
aS'DT'
p93
aS'NNP'
p94
aS'NNP'
p95
aS'NNP'
p96
aS'VBP'
p97
aS'NN'
p98
aS'NN'
p99
aS'NN'
p100
asS'ner_seq'
p101
(lp102
S'O'
aS'B-ORG'
p103
aS'I-ORG'
p104
aS'I-ORG'
p105
aS'I-ORG'
p106
aS'I-ORG'
p107
aS'E-ORG'
p108
aS'O'
aS'O'
aS'O'
aS'O'
assb.