ccopy_reg
_reconstructor
p1
(c__main__
KBproperty
p2
c__builtin__
object
p3
NtRp4
(dp5
S'comment'
p6
S'vehicle that uses a specific automobile platform15741'
p7
sS'domain'
p8
S''
sS'instances_count'
p9
I143
sS'phrases'
p10
NsS'syn_hypo'
p11
Vbumper_carvehicleDodgemvehiclecraftvehiclemilitary_vehiclevehiclerocketvehicleprojectilevehicleskibobvehiclesledvehiclesledgevehiclesleighvehiclesteamrollervehicleroad_rollervehiclewheeled_vehicle
p12
sS'label'
p13
S'vehicle'
p14
sS'range'
p15
S'Automobile '
p16
sS'uniq_subjs'
p17
S'143'
p18
sS'uniq_objs'
p19
I0
sS'prop_uri'
p20
S'http://dbpedia.org/ontology/vehicle'
p21
sS'annotations'
p22
(dp23
S'bag_of_words'
p24
(lp25
S'vehicle'
p26
aS'Automobile'
p27
aS'vehicle'
p28
aS'that'
p29
aS'uses'
p30
aS'a'
aS'specific'
p31
aS'automobile'
p32
aS'platform15741'
p33
asS'chunk_seq'
p34
(lp35
S'B-NP'
p36
aS'I-NP'
p37
aS'E-NP'
p38
aS'S-NP'
p39
aS'S-VP'
p40
aS'B-NP'
p41
aS'I-NP'
p42
aS'I-NP'
p43
aS'E-NP'
p44
asS'dep_seq'
p45
(lp46
(lp47
S'nn'
p48
aS'3'
aS'1'
aa(lp49
S'nn'
p50
aS'3'
aS'2'
aa(lp51
S'root'
p52
aS'0'
aS'3'
aa(lp53
S'nsubj'
p54
aS'5'
aS'3'
aa(lp55
S'rcmod'
p56
aS'3'
aS'5'
aa(lp57
S'det'
p58
aS'9'
aS'6'
aa(lp59
S'amod'
p60
aS'9'
aS'7'
aa(lp61
S'nn'
p62
aS'9'
aS'8'
aa(lp63
S'dobj'
p64
aS'5'
aS'9'
aasS'srls'
p65
(lp66
(dp67
S'A1'
p68
S'a specific automobile platform15741'
p69
sS'A0'
p70
S'vehicle Automobile vehicle'
p71
sS'R-A0'
p72
g29
sS'V'
g30
sasS'pos_seq'
p73
(lp74
S'NN'
p75
aS'NN'
p76
aS'NN'
p77
aS'WDT'
p78
aS'VBZ'
p79
aS'DT'
p80
aS'JJ'
p81
aS'NN'
p82
aS'NN'
p83
asS'ner_seq'
p84
(lp85
S'O'
aS'O'
aS'O'
aS'O'
aS'O'
aS'O'
aS'O'
aS'O'
aS'O'
assb.