ccopy_reg
_reconstructor
p1
(c__main__
KBproperty
p2
c__builtin__
object
p3
NtRp4
(dp5
S'comment'
p6
S'numerical indexing code used by the French National Institute for Statistics and Economic Studies INSEE to identify various entities3697936979'
p7
sS'domain'
p8
S'Settlement '
p9
sS'instances_count'
p10
I36714
sS'phrases'
p11
NsS'syn_hypo'
p12
S''
sS'label'
p13
S'INSEE code'
p14
sS'range'
p15
S'string '
p16
sS'uniq_subjs'
p17
S'36714'
p18
sS'uniq_objs'
p19
I0
sS'prop_uri'
p20
S'http://dbpedia.org/ontology/inseeCode'
p21
sS'annotations'
p22
(dp23
S'bag_of_words'
p24
(lp25
S'Settlement'
p26
aS'INSEE'
p27
aS'code'
p28
aS'string'
p29
aS'numerical'
p30
aS'indexing'
p31
aS'code'
p32
aS'used'
p33
aS'by'
p34
aS'the'
p35
aS'French'
p36
aS'National'
p37
aS'Institute'
p38
aS'for'
p39
aS'Statistics'
p40
aS'and'
p41
aS'Economic'
p42
aS'Studies'
p43
aS'INSEE'
p44
aS'to'
p45
aS'identify'
p46
aS'various'
p47
aS'entities3697936979'
p48
asS'chunk_seq'
p49
(lp50
S'B-NP'
p51
aS'I-NP'
p52
aS'I-NP'
p53
aS'I-NP'
p54
aS'I-NP'
p55
aS'I-NP'
p56
aS'E-NP'
p57
aS'S-VP'
p58
aS'S-PP'
p59
aS'B-NP'
p60
aS'I-NP'
p61
aS'I-NP'
p62
aS'E-NP'
p63
aS'S-PP'
p64
aS'S-NP'
p65
aS'O'
aS'B-NP'
p66
aS'I-NP'
p67
aS'E-NP'
p68
aS'B-VP'
p69
aS'E-VP'
p70
aS'B-NP'
p71
aS'E-NP'
p72
asS'dep_seq'
p73
(lp74
(lp75
S'nn'
p76
aS'7'
aS'1'
aa(lp77
S'nn'
p78
aS'7'
aS'2'
aa(lp79
S'nn'
p80
aS'7'
aS'3'
aa(lp81
S'nn'
p82
aS'7'
aS'4'
aa(lp83
S'amod'
p84
aS'7'
aS'5'
aa(lp85
S'nn'
p86
aS'7'
aS'6'
aa(lp87
S'root'
p88
aS'0'
aS'7'
aa(lp89
S'partmod'
p90
aS'7'
aS'8'
aa(lp91
S'det'
p92
aS'13'
p93
aS'10'
p94
aa(lp95
S'nn'
p96
aS'13'
p97
aS'11'
p98
aa(lp99
S'nn'
p100
aS'13'
p101
aS'12'
p102
aa(lp103
S'agent'
p104
aS'8'
aS'13'
p105
aa(lp106
S'prep_for'
p107
aS'8'
aS'15'
p108
aa(lp109
S'nn'
p110
aS'19'
p111
aS'17'
p112
aa(lp113
S'nn'
p114
aS'19'
p115
aS'18'
p116
aa(lp117
S'conj_and'
p118
aS'15'
p119
aS'19'
p120
aa(lp121
S'aux'
p122
aS'21'
p123
aS'20'
p124
aa(lp125
S'xcomp'
p126
aS'8'
aS'21'
p127
aa(lp128
S'amod'
p129
aS'23'
p130
aS'22'
p131
aa(lp132
S'dobj'
p133
aS'21'
p134
aS'23'
p135
aasS'srls'
p136
(lp137
(dp138
S'A1'
p139
S'Settlement INSEE code string numerical indexing code'
p140
sS'A0'
p141
S'by the French National Institute'
p142
sS'V'
g33
sa(dp143
S'A1'
p144
S'various entities3697936979'
p145
sS'A0'
p146
S'Settlement INSEE code string numerical indexing code used by the French National Institute for Statistics and Economic Studies INSEE'
p147
sS'V'
g46
sasS'pos_seq'
p148
(lp149
S'NNP'
p150
aS'NNP'
p151
aS'NN'
p152
aS'NN'
p153
aS'JJ'
p154
aS'NN'
p155
aS'NN'
p156
aS'VBN'
p157
aS'IN'
p158
aS'DT'
p159
aS'NNP'
p160
aS'NNP'
p161
aS'NNP'
p162
aS'IN'
p163
aS'NNPS'
p164
aS'CC'
p165
aS'NNP'
p166
aS'NNPS'
p167
aS'NNP'
p168
aS'TO'
p169
aS'VB'
p170
aS'JJ'
p171
aS'NN'
p172
asS'ner_seq'
p173
(lp174
S'O'
aS'S-ORG'
p175
aS'O'
aS'O'
aS'O'
aS'O'
aS'O'
aS'O'
aS'O'
aS'O'
aS'B-ORG'
p176
aS'I-ORG'
p177
aS'I-ORG'
p178
aS'I-ORG'
p179
aS'I-ORG'
p180
aS'I-ORG'
p181
aS'I-ORG'
p182
aS'I-ORG'
p183
aS'E-ORG'
p184
aS'O'
aS'O'
aS'O'
aS'O'
assb.