ccopy_reg
_reconstructor
p1
(c__main__
KBproperty
p2
c__builtin__
object
p3
NtRp4
(dp5
S'comment'
p6
S'1212'
p7
sS'domain'
p8
S''
sS'instances_count'
p9
I11
sS'phrases'
p10
NsS'syn_hypo'
p11
S''
sS'label'
p12
S'restore date'
p13
sS'range'
p14
S'date '
p15
sS'uniq_subjs'
p16
S'11'
p17
sS'uniq_objs'
p18
I0
sS'prop_uri'
p19
S'http://dbpedia.org/ontology/restoreDate'
p20
sS'annotations'
p21
(dp22
S'bag_of_words'
p23
(lp24
S'restore'
p25
aS'date'
p26
aS'date'
p27
aS'1212'
p28
asS'chunk_seq'
p29
(lp30
S'S-VP'
p31
aS'B-NP'
p32
aS'E-NP'
p33
aS'S-NP'
p34
asS'dep_seq'
p35
(lp36
(lp37
S'root'
p38
aS'0'
aS'1'
aa(lp39
S'dobj'
p40
aS'1'
aS'2'
aa(lp41
S'iobj'
p42
aS'1'
aS'2'
aa(lp43
S'dep'
p44
aS'2'
aS'3'
aa(lp45
S'dobj'
p46
aS'1'
aS'4'
aa(lp47
S'dep'
p48
aS'2'
aS'4'
aasS'srls'
p49
(lp50
(dp51
S'A1'
p52
S'date date 1212'
p53
sS'V'
g25
sasS'pos_seq'
p54
(lp55
S'VB'
p56
aS'NN'
p57
aS'NN'
p58
aS'NN'
p59
asS'ner_seq'
p60
(lp61
S'O'
aS'O'
aS'O'
aS'O'
assb.