ccopy_reg
_reconstructor
p1
(c__main__
KBproperty
p2
c__builtin__
object
p3
NtRp4
(dp5
S'comment'
p6
S'00'
p7
sS'domain'
p8
S'Place '
p9
sS'instances_count'
p10
I0
sS'phrases'
p11
NsS'syn_hypo'
p12
Vachimenesflowerhot_water_plantflowerAfrican_daisyfloweryellow_ageratumflowerLonas_inodoraflowerLonas_annuaflowerAfrican_daisyflowerAfrican_daisyflowerAfrican_violetflowerSaintpaulia_ionanthaflowerageratumflowerammobiumfloweranemoneflowerwindflowerflowerasterflowerbaby's_breathflowerbabies'-breathflowerGypsophila_paniculataflowerbartoniaflowerMentzelia_lindleyiflowerbegoniaflowerbellwortflowermerry_bellsflowerwild_oatsflowerbilly_buttonsflowerblazing_starflowerMentzelia_livicaulisflowerMentzelia_laevicaulisflowerbloomerflowerblue-eyed_African_daisyflowerArctotis_stoechadifoliaflowerArctotis_venustaflowerblue_daisyflowerblue_margueriteflowerFelicia_amelloidesflowerbrass_buttonsflowerCotula_coronopifoliaflowerbush_violetflowerbrowalliaflowerbutterfly_flowerflowerpoor_man's_orchidflowerschizanthusflowercalceolariaflowerslipperwortflowercalendulaflowercalla_lilyflowercallaflowerarum_lilyflowerZantedeschia_aethiopicaflowercandytuftflowercape_marigoldflowersun_marigoldflowerstar_of_the_veldtflowerCarolina_spring_beautyflowerClaytonia_carolinianaflowercatanancheflowercentauryflowerChina_asterflowerCallistephus_chinensisflowerChristmas_bellsflowerchrysanthemumflowercinerariaflowerPericallis_cruentaflowerSenecio_cruentusflowercolumbinefloweraquilegiafloweraquilegeflowercommelinaflowercompositeflowercomposite_plantflowerconeflowerflowerconeflowerflowercoral_dropsflowerBessera_elegansflowercornflowerflowerbachelor's_buttonflowerbluebottleflowerCentaurea_cyanusflowercorydalisflowercosmosflowercosmeaflowercotton_roseflowercudweedflowerfilagoflowercowherbflowercow_cockleflowerVaccaria_hispanicaflowerVaccaria_pyramidataflowerSaponaria_vaccariaflowercyclamenflowerCyclamen_purpurascensflowerdahliaflowerDahlia_pinnataflowerdaisyflowerdamask_violetflowerDame's_violetflowersweet_rocketflowerHesperis_matronalisflowerdelphiniumflowerEaster_daisyflowerstemless_daisyflowerTownsendia_Exscapaflowerfig_marigoldflowerpebble_plantflowerflorest's_cinerariaflowerPericallis_hybridaflowerfour_o'clockflowergazaniaflowergentianflowergerardiaflowerglobe_amaranthflowerbachelor's_buttonflowerGomphrena_globosaflowerheliophilaflowerhorn_poppyflowerhorned_poppyfloweryellow_horned_poppyflowersea_poppyflowerGlaucium_flavumflowerkingfisher_daisyflowerFelicia_bergerianaflowerlace-flower_vineflowerAlsobia_dianthifloraflowerEpiscia_dianthifloraflowerlesser_celandineflowerpilewortflowerRanunculus_ficariaflowerlychnisflowercatchflyflowerMalcolm_stockflowerstockflowermarigoldflowerMexican_sunflowerflowertithoniaflowermistflowerflowermist-flowerflowerageratumflowerConoclinium_coelestinumflowerEupatorium_coelestinumflowernigellaflowerorchidflowerorchidaceous_plantfloweroxeye_daisyflowerox-eyed_daisyflowermargueriteflowermoon_daisyflowerwhite_daisyflowerLeucanthemum_vulgareflowerChrysanthemum_leucanthemumflowerpainted_daisyflowerpyrethrumflowerTanacetum_coccineumflowerChrysanthemum_coccineumflowerpeonyflowerpaeonyflowerpetuniaflowerpheasant's-eyeflowerAdonis_annuaflowerpinkflowergarden_pinkflowerpoppyflowerportulacaflowerprairie_rocketflowerprairie_rocketflowerred_valerianflowerFrench_honeysuckleflowerCentranthus_ruberflowerrocket_larkspurflowerConsolida_ambiguaflowerDelphinium_ajacisflowerrue_anemoneflowerAnemonella_thalictroidesflowersandwortflowerMoehringia_mucosaflowersandwortflowerMoehringia_laterifloraflowersandwortflowerscabiousflowerscabiosaflowerscarlet_musk_flowerflowerNyctaginia_capitataflowerschizopetalonflowerSchizopetalon_walkeriflowerscorpionweedflowerscorpion_weedflowerphaceliaflowershortiaflowersileneflowercampionflowercatchflyflowersnapdragonflowersoapwortflowerhedge_pinkflowerbouncing_Betflowerbouncing_BessflowerSaponaria_officinalisflowersowbreadflowerCyclamen_hederifoliumflowerCyclamen_neopolitanumflowerspathiphyllumflowerpeace_lilyflowerspathe_flowerflowerspring_beautyflowerClatonia_lanceolataflowerstockflowergillyflowerflowerstokes'_asterflowercornflower_asterflowerStokesia_laevisflowerstreptocarpusflowersunflowerflowerhelianthusflowerSwan_River_daisyflowerBrachycome_Iberidifoliaflowersweet_alyssumflowersweet_alisonflowerLobularia_maritimaflowersweet_sultanflowerCentaurea_imperialisflowersweet_sultanflowerAmberboa_moschataflowerCentaurea_moschataflowerTexas_starflowerLindheimera_texanaflowertidytipsflowertidy_tipsflowerLayia_platyglossaflowertoadflaxflowerbutter-and-eggsflowerwild_snapdragonflowerdevil's_flaxflowerLinaria_vulgarisflowertuberoseflowerPolianthes_tuberosaflowerumbrellawortflowerursiniaflowervalerianflowerverbenaflowervervainflowerveronicaflowerspeedwellflowerVirginia_spring_beautyflowerClaytonia_virginicaflowerVirginian_stockflowerVirginia_stockflowerMalcolmia_maritimaflowerwallflowerflowerwallflowerflowerCheiranthus_cheiriflowerErysimum_cheiriflowerwandflowerflowerSparaxis_tricolorflowerwestern_wall_flowerflowerErysimum_asperumflowerCheiranthus_asperusflowerErysimum_arkansanumflowerwhite-topped_asterflowerwoodland_starflowerLithophragma_affineflowerLithophragma_affinisflowerTellima_affinisflowerxeranthemumflowerzinniaflowerold_maidflowerold_maid_flower
p13
sS'label'
p14
S'flower'
p15
sS'range'
p16
S'Species '
p17
sS'uniq_subjs'
p18
S'0'
sS'uniq_objs'
p19
I0
sS'prop_uri'
p20
S'http://dbpedia.org/ontology/flower'
p21
sS'annotations'
p22
(dp23
S'bag_of_words'
p24
(lp25
S'Place'
p26
aS'flower'
p27
aS'Species'
p28
aS'00'
p29
asS'chunk_seq'
p30
(lp31
S'B-NP'
p32
aS'I-NP'
p33
aS'E-NP'
p34
aS'O'
asS'dep_seq'
p35
(lp36
(lp37
S'nn'
p38
aS'3'
aS'1'
aa(lp39
S'nn'
p40
aS'3'
aS'2'
aa(lp41
S'root'
p42
aS'0'
aS'3'
aa(lp43
S'advmod'
p44
aS'3'
aS'4'
aasS'srls'
p45
(lp46
sS'pos_seq'
p47
(lp48
S'NN'
p49
aS'NN'
p50
aS'NNS'
p51
aS'CD'
p52
asS'ner_seq'
p53
(lp54
S'O'
aS'O'
aS'O'
aS'O'
assb.