ccopy_reg
_reconstructor
p1
(c__main__
KBproperty
p2
c__builtin__
object
p3
NtRp4
(dp5
S'comment'
p6
S'Notes about an exhibition the object has been to00'
p7
sS'domain'
p8
S''
sS'instances_count'
p9
I0
sS'phrases'
p10
NsS'syn_hypo'
p11
Vproductionexhibitionrodeo
p12
sS'label'
p13
S'exhibition'
p14
sS'range'
p15
S'string '
p16
sS'uniq_subjs'
p17
S'0'
sS'uniq_objs'
p18
I0
sS'prop_uri'
p19
S'http://dbpedia.org/ontology/exhibition'
p20
sS'annotations'
p21
(dp22
S'bag_of_words'
p23
(lp24
S'exhibition'
p25
aS'string'
p26
aS'Notes'
p27
aS'about'
p28
aS'an'
p29
aS'exhibition'
p30
aS'the'
p31
aS'object'
p32
aS'has'
p33
aS'been'
p34
aS'to00'
p35
asS'chunk_seq'
p36
(lp37
S'B-NP'
p38
aS'E-NP'
p39
aS'S-VP'
p40
aS'S-PP'
p41
aS'B-NP'
p42
aS'E-NP'
p43
aS'B-NP'
p44
aS'E-NP'
p45
aS'B-VP'
p46
aS'E-VP'
p47
aS'S-ADJP'
p48
asS'dep_seq'
p49
(lp50
(lp51
S'nn'
p52
aS'2'
aS'1'
aa(lp53
S'nsubj'
p54
aS'3'
aS'2'
aa(lp55
S'root'
p56
aS'0'
aS'3'
aa(lp57
S'det'
p58
aS'6'
aS'5'
aa(lp59
S'prep_about'
p60
aS'11'
p61
aS'6'
aa(lp62
S'det'
p63
aS'8'
aS'7'
aa(lp64
S'nsubj'
p65
aS'11'
p66
aS'8'
aa(lp67
S'aux'
p68
aS'11'
p69
aS'9'
aa(lp70
S'cop'
p71
aS'11'
p72
aS'10'
p73
aa(lp74
S'ccomp'
p75
aS'3'
aS'11'
p76
aasS'srls'
p77
(lp78
(dp79
S'A1'
p80
S'about an exhibition the object has been to00'
p81
sS'A0'
p82
S'exhibition string'
p83
sS'V'
g27
sasS'pos_seq'
p84
(lp85
S'NN'
p86
aS'NN'
p87
aS'VBZ'
p88
aS'IN'
p89
aS'DT'
p90
aS'NN'
p91
aS'DT'
p92
aS'NN'
p93
aS'VBZ'
p94
aS'VBN'
p95
aS'.'
asS'ner_seq'
p96
(lp97
S'O'
aS'O'
aS'O'
aS'O'
aS'O'
aS'O'
aS'O'
aS'O'
aS'O'
aS'O'
aS'O'
assb.