ccopy_reg
_reconstructor
p1
(c__main__
KBproperty
p2
c__builtin__
object
p3
NtRp4
(dp5
S'comment'
p6
S'secondary/other fuel type'
p7
sS'domain'
p8
S'Power Station '
p9
sS'instances_count'
p10
I0
sS'phrases'
p11
NsS'syn_hypo'
p12
S''
sS'label'
p13
g7
sS'range'
p14
S''
sS'uniq_subjs'
p15
S'0'
sS'uniq_objs'
p16
I0
sS'prop_uri'
p17
S'http://dbpedia.org/ontology/otherFuelType'
p18
sS'annotations'
p19
(dp20
S'bag_of_words'
p21
(lp22
S'Power'
p23
aS'Station'
p24
aS'other'
p25
aS'Fuel'
p26
aS'Type'
p27
aS'secondary'
p28
aS'/'
aS'other'
p29
aS'fuel'
p30
aS'type'
p31
asS'chunk_seq'
p32
(lp33
S'B-NP'
p34
aS'E-NP'
p35
aS'B-NP'
p36
aS'I-NP'
p37
aS'I-NP'
p38
aS'I-NP'
p39
aS'I-NP'
p40
aS'I-NP'
p41
aS'I-NP'
p42
aS'E-NP'
p43
asS'dep_seq'
p44
(lp45
(lp46
S'nn'
p47
aS'2'
aS'1'
aa(lp48
S'root'
p49
aS'0'
aS'2'
aa(lp50
S'amod'
p51
aS'5'
aS'3'
aa(lp52
S'nn'
p53
aS'5'
aS'4'
aa(lp54
S'dep'
p55
aS'2'
aS'5'
aa(lp56
S'amod'
p57
aS'5'
aS'6'
aa(lp58
S'punct'
p59
aS'5'
aS'7'
aa(lp60
S'amod'
p61
aS'10'
p62
aS'8'
aa(lp63
S'nn'
p64
aS'10'
p65
aS'9'
aa(lp66
S'dep'
p67
aS'5'
aS'10'
p68
aasS'srls'
p69
(lp70
sS'pos_seq'
p71
(lp72
S'NNP'
p73
aS'NNP'
p74
aS'JJ'
p75
aS'NNP'
p76
aS'NNP'
p77
aS'JJ'
p78
aS':'
aS'JJ'
p79
aS'NN'
p80
aS'NN'
p81
asS'ner_seq'
p82
(lp83
S'B-ORG'
p84
aS'E-ORG'
p85
aS'O'
aS'O'
aS'O'
aS'O'
aS'O'
aS'O'
aS'O'
aS'O'
assb.