ccopy_reg
_reconstructor
p1
(c__main__
KBproperty
p2
c__builtin__
object
p3
NtRp4
(dp5
S'comment'
p6
S'a place were members of an ethnic group are living135244229'
p7
sS'domain'
p8
S'Ethnic Group '
p9
sS'instances_count'
p10
I2948
sS'phrases'
p11
NsS'syn_hypo'
p12
S''
sS'label'
p13
S'population place'
p14
sS'range'
p15
S'Populated Place '
p16
sS'uniq_subjs'
p17
S'2948'
p18
sS'uniq_objs'
p19
I0
sS'prop_uri'
p20
S'http://dbpedia.org/ontology/populationPlace'
p21
sS'annotations'
p22
(dp23
S'bag_of_words'
p24
(lp25
S'Ethnic'
p26
aS'Group'
p27
aS'population'
p28
aS'place'
p29
aS'Populated'
p30
aS'Place'
p31
aS'a'
aS'place'
p32
aS'were'
p33
aS'members'
p34
aS'of'
p35
aS'an'
p36
aS'ethnic'
p37
aS'group'
p38
aS'are'
p39
aS'living135244229'
p40
asS'chunk_seq'
p41
(lp42
S'B-NP'
p43
aS'I-NP'
p44
aS'I-NP'
p45
aS'E-NP'
p46
aS'B-NP'
p47
aS'E-NP'
p48
aS'B-NP'
p49
aS'E-NP'
p50
aS'S-VP'
p51
aS'S-NP'
p52
aS'S-PP'
p53
aS'B-NP'
p54
aS'I-NP'
p55
aS'E-NP'
p56
aS'S-VP'
p57
aS'O'
asS'dep_seq'
p58
(lp59
(lp60
S'amod'
p61
aS'4'
aS'1'
aa(lp62
S'nn'
p63
aS'4'
aS'2'
aa(lp64
S'nn'
p65
aS'4'
aS'3'
aa(lp66
S'root'
p67
aS'0'
aS'4'
aa(lp68
S'amod'
p69
aS'6'
aS'5'
aa(lp70
S'nsubj'
p71
aS'9'
aS'6'
aa(lp72
S'det'
p73
aS'8'
aS'7'
aa(lp74
S'nsubj'
p75
aS'9'
aS'8'
aa(lp76
S'rcmod'
p77
aS'4'
aS'9'
aa(lp78
S'nsubj'
p79
aS'15'
p80
aS'10'
p81
aa(lp82
S'det'
p83
aS'14'
p84
aS'12'
p85
aa(lp86
S'amod'
p87
aS'14'
p88
aS'13'
p89
aa(lp90
S'prep_of'
p91
aS'10'
p92
aS'14'
p93
aa(lp94
S'ccomp'
p95
aS'9'
aS'15'
p96
aa(lp97
S'advmod'
p98
aS'15'
p99
aS'16'
p100
aasS'srls'
p101
(lp102
sS'pos_seq'
p103
(lp104
S'JJ'
p105
aS'NNP'
p106
aS'NN'
p107
aS'NN'
p108
aS'JJ'
p109
aS'NN'
p110
aS'DT'
p111
aS'NN'
p112
aS'VBD'
p113
aS'NNS'
p114
aS'IN'
p115
aS'DT'
p116
aS'JJ'
p117
aS'NN'
p118
aS'VBP'
p119
aS'.'
asS'ner_seq'
p120
(lp121
S'B-ORG'
p122
aS'E-ORG'
p123
aS'O'
aS'O'
aS'O'
aS'O'
aS'O'
aS'O'
aS'O'
aS'O'
aS'O'
aS'O'
aS'O'
aS'O'
aS'O'
aS'O'
assb.