ccopy_reg
_reconstructor
p1
(c__main__
KBproperty
p2
c__builtin__
object
p3
NtRp4
(dp5
S'comment'
p6
S'00'
p7
sS'domain'
p8
S''
sS'instances_count'
p9
I0
sS'phrases'
p10
NsS'syn_hypo'
p11
S''
sS'label'
p12
S'playing time s'
p13
sS'range'
p14
S'double '
p15
sS'uniq_subjs'
p16
S'0'
sS'uniq_objs'
p17
I0
sS'prop_uri'
p18
S'http://dbpedia.org/ontology/playingTime'
p19
sS'annotations'
p20
(dp21
S'bag_of_words'
p22
(lp23
S'playing'
p24
aS'time'
p25
aS's'
aS'double'
p26
aS'00'
p27
asS'chunk_seq'
p28
(lp29
S'S-VP'
p30
aS'S-NP'
p31
aS'B-NP'
p32
aS'E-NP'
p33
aS'O'
asS'dep_seq'
p34
(lp35
(lp36
S'root'
p37
aS'0'
aS'1'
aa(lp38
S'iobj'
p39
aS'1'
aS'2'
aa(lp40
S'advmod'
p41
aS'5'
aS'3'
aa(lp42
S'advmod'
p43
aS'5'
aS'4'
aa(lp44
S'dobj'
p45
aS'1'
aS'5'
aasS'srls'
p46
(lp47
(dp48
S'A1'
p49
g25
sS'A0'
p50
S's double 00'
p51
sS'V'
g24
sasS'pos_seq'
p52
(lp53
S'VBG'
p54
aS'NN'
p55
aS'RB'
p56
aS'RB'
p57
aS'CD'
p58
asS'ner_seq'
p59
(lp60
S'O'
aS'O'
aS'O'
aS'O'
aS'O'
assb.