ccopy_reg
_reconstructor
p1
(c__main__
KBproperty
p2
c__builtin__
object
p3
NtRp4
(dp5
S'comment'
p6
S'Identify the members of an organisation.00'
p7
sS'domain'
p8
S'Organisation '
p9
sS'instances_count'
p10
I0
sS'phrases'
p11
NsS'syn_hypo'
p12
S''
sS'label'
p13
S'organisation member'
p14
sS'range'
p15
S'Organisation Member '
p16
sS'uniq_subjs'
p17
S'0'
sS'uniq_objs'
p18
I0
sS'prop_uri'
p19
S'http://dbpedia.org/ontology/organisationMember'
p20
sS'annotations'
p21
(dp22
S'bag_of_words'
p23
(lp24
S'Organisation'
p25
aS'organisation'
p26
aS'member'
p27
aS'Organisation'
p28
aS'Member'
p29
aS'Identify'
p30
aS'the'
p31
aS'members'
p32
aS'of'
p33
aS'an'
p34
aS'organisation.00'
p35
asS'chunk_seq'
p36
(lp37
S'B-NP'
p38
aS'I-NP'
p39
aS'I-NP'
p40
aS'I-NP'
p41
aS'I-NP'
p42
aS'E-NP'
p43
aS'B-NP'
p44
aS'E-NP'
p45
aS'S-PP'
p46
aS'B-NP'
p47
aS'E-NP'
p48
asS'dep_seq'
p49
(lp50
(lp51
S'nn'
p52
aS'6'
aS'1'
aa(lp53
S'nn'
p54
aS'6'
aS'2'
aa(lp55
S'nn'
p56
aS'6'
aS'3'
aa(lp57
S'nn'
p58
aS'6'
aS'4'
aa(lp59
S'nn'
p60
aS'6'
aS'5'
aa(lp61
S'dep'
p62
aS'8'
aS'6'
aa(lp63
S'det'
p64
aS'8'
aS'7'
aa(lp65
S'root'
p66
aS'0'
aS'8'
aa(lp67
S'det'
p68
aS'11'
p69
aS'10'
p70
aa(lp71
S'prep_of'
p72
aS'8'
aS'11'
p73
aasS'srls'
p74
(lp75
(dp76
S'A1'
p77
S'the members of an organisation.00'
p78
sS'A0'
p79
S'Organisation organisation member Organisation Member'
p80
sS'V'
g30
sasS'pos_seq'
p81
(lp82
S'NN'
p83
aS'NN'
p84
aS'NN'
p85
aS'NNP'
p86
aS'NNP'
p87
aS'NNP'
p88
aS'DT'
p89
aS'NNS'
p90
aS'IN'
p91
aS'DT'
p92
aS'NN'
p93
asS'ner_seq'
p94
(lp95
S'O'
aS'O'
aS'O'
aS'S-ORG'
p96
aS'O'
aS'O'
aS'O'
aS'O'
aS'O'
aS'O'
aS'O'
assb.