ccopy_reg
_reconstructor
p1
(c__main__
KBproperty
p2
c__builtin__
object
p3
NtRp4
(dp5
S'comment'
p6
S'00'
p7
sS'domain'
p8
S'Celestial Body '
p9
sS'instances_count'
p10
I0
sS'phrases'
p11
NsS'syn_hypo'
p12
Vredundancyconfigurationconstellationtopologyconfigurationconstellationnetwork_topologyconfigurationconstellationunitizationconfigurationconstellationunitisationconfigurationconstellationchunking
p13
sS'label'
p14
S'constellation'
p15
sS'range'
p16
S''
sS'uniq_subjs'
p17
S'0'
sS'uniq_objs'
p18
I0
sS'prop_uri'
p19
S'http://dbpedia.org/ontology/constellation'
p20
sS'annotations'
p21
(dp22
S'bag_of_words'
p23
(lp24
S'Celestial'
p25
aS'Body'
p26
aS'constellation'
p27
aS'00'
p28
asS'chunk_seq'
p29
(lp30
S'B-NP'
p31
aS'I-NP'
p32
aS'E-NP'
p33
aS'O'
asS'dep_seq'
p34
(lp35
(lp36
S'amod'
p37
aS'3'
aS'1'
aa(lp38
S'nn'
p39
aS'3'
aS'2'
aa(lp40
S'root'
p41
aS'0'
aS'3'
aa(lp42
S'num'
p43
aS'3'
aS'4'
aasS'srls'
p44
(lp45
sS'pos_seq'
p46
(lp47
S'JJ'
p48
aS'NN'
p49
aS'NN'
p50
aS'CD'
p51
asS'ner_seq'
p52
(lp53
S'B-ORG'
p54
aS'E-ORG'
p55
aS'O'
aS'O'
assb.