ccopy_reg
_reconstructor
p1
(c__main__
KBproperty
p2
c__builtin__
object
p3
NtRp4
(dp5
S'comment'
p6
S'12846'
p7
sS'domain'
p8
S'Year In Spaceflight '
p9
sS'instances_count'
p10
I103
sS'phrases'
p11
NsS'syn_hypo'
p12
S''
sS'label'
p13
S'retired rocket'
p14
sS'range'
p15
S'Rocket '
p16
sS'uniq_subjs'
p17
S'103'
p18
sS'uniq_objs'
p19
I0
sS'prop_uri'
p20
S'http://dbpedia.org/ontology/retiredRocket'
p21
sS'annotations'
p22
(dp23
S'bag_of_words'
p24
(lp25
S'Year'
p26
aS'In'
p27
aS'Spaceflight'
p28
aS'retired'
p29
aS'rocket'
p30
aS'Rocket'
p31
aS'12846'
p32
asS'chunk_seq'
p33
(lp34
S'S-NP'
p35
aS'S-PP'
p36
aS'B-NP'
p37
aS'I-NP'
p38
aS'I-NP'
p39
aS'I-NP'
p40
aS'E-NP'
p41
asS'dep_seq'
p42
(lp43
(lp44
S'root'
p45
aS'0'
aS'1'
aa(lp46
S'nn'
p47
aS'7'
aS'3'
aa(lp48
S'amod'
p49
aS'7'
aS'4'
aa(lp50
S'nn'
p51
aS'7'
aS'5'
aa(lp52
S'nn'
p53
aS'7'
aS'6'
aa(lp54
S'prep_in'
p55
aS'1'
aS'7'
aasS'srls'
p56
(lp57
(dp58
S'A0'
p59
S'rocket Rocket 12846'
p60
sS'V'
g29
sasS'pos_seq'
p61
(lp62
S'NN'
p63
aS'IN'
p64
aS'NNP'
p65
aS'JJ'
p66
aS'NN'
p67
aS'NNP'
p68
aS'NN'
p69
asS'ner_seq'
p70
(lp71
S'O'
aS'O'
aS'O'
aS'O'
aS'O'
aS'O'
aS'O'
assb.