ccopy_reg
_reconstructor
p1
(c__main__
KBproperty
p2
c__builtin__
object
p3
NtRp4
(dp5
S'comment'
p6
S'Location of the thing as string. Use "location" if the location is a resource00'
p7
sS'domain'
p8
S''
sS'instances_count'
p9
I0
sS'phrases'
p10
NsS'syn_hypo'
p11
S''
sS'label'
p12
S'locationName'
p13
sS'range'
p14
S'string '
p15
sS'uniq_subjs'
p16
S'0'
sS'uniq_objs'
p17
I0
sS'prop_uri'
p18
S'http://dbpedia.org/ontology/locationName'
p19
sS'annotations'
p20
(dp21
S'bag_of_words'
p22
(lp23
S'locationName'
p24
aS'string'
p25
aS'Location'
p26
aS'of'
p27
aS'the'
p28
aS'thing'
p29
aS'as'
p30
aS'string'
p31
aS'.'
aS'Use'
p32
aS'"'
aS'location'
p33
aS'"'
aS'if'
p34
aS'the'
p35
aS'location'
p36
aS'is'
p37
aS'a'
aS'resource00'
p38
asS'chunk_seq'
p39
(lp40
S'B-NP'
p41
aS'I-NP'
p42
aS'E-NP'
p43
aS'S-PP'
p44
aS'B-NP'
p45
aS'E-NP'
p46
aS'S-PP'
p47
aS'S-NP'
p48
aS'O'
aS'S-VP'
p49
aS'B-NP'
p50
aS'E-NP'
p51
aS'B-SBAR'
p52
aS'E-SBAR'
p53
aS'B-NP'
p54
aS'E-NP'
p55
aS'S-VP'
p56
aS'B-NP'
p57
aS'E-NP'
p58
asS'dep_seq'
p59
(lp60
(lp61
S'amod'
p62
aS'3'
aS'1'
aa(lp63
S'nn'
p64
aS'3'
aS'2'
aa(lp65
S'root'
p66
aS'0'
aS'3'
aa(lp67
S'det'
p68
aS'6'
aS'5'
aa(lp69
S'prep_of'
p70
aS'3'
aS'6'
aa(lp71
S'nn'
p72
aS'12'
p73
aS'8'
aa(lp74
S'dep'
p75
aS'12'
p76
aS'10'
p77
aa(lp78
S'amod'
p79
aS'12'
p80
aS'11'
p81
aa(lp82
S'prep_as'
p83
aS'6'
aS'12'
p84
aa(lp85
S'mark'
p86
aS'19'
p87
aS'14'
p88
aa(lp89
S'det'
p90
aS'16'
p91
aS'15'
p92
aa(lp93
S'nsubj'
p94
aS'19'
p95
aS'16'
p96
aa(lp97
S'cop'
p98
aS'19'
p99
aS'17'
p100
aa(lp101
S'det'
p102
aS'19'
p103
aS'18'
p104
aa(lp105
S'prepc_"'
p106
aS'3'
aS'19'
p107
aasS'srls'
p108
(lp109
(dp110
S'A1'
p111
S'" location'
p112
sS'A2'
p113
S'" if the location is a resource00'
p114
sS'V'
g32
sasS'pos_seq'
p115
(lp116
S'JJ'
p117
aS'NN'
p118
aS'NN'
p119
aS'IN'
p120
aS'DT'
p121
aS'NN'
p122
aS'IN'
p123
aS'NN'
p124
aS'.'
aS'VB'
p125
aS'JJ'
p126
aS'NN'
p127
aS'IN'
p128
aS'IN'
p129
aS'DT'
p130
aS'NN'
p131
aS'VBZ'
p132
aS'DT'
p133
aS'NN'
p134
asS'ner_seq'
p135
(lp136
S'O'
aS'O'
aS'O'
aS'O'
aS'O'
aS'O'
aS'O'
aS'O'
aS'O'
aS'O'
aS'O'
aS'O'
aS'O'
aS'O'
aS'O'
aS'O'
aS'O'
aS'O'
aS'O'
assb.