ccopy_reg
_reconstructor
p1
(c__main__
KBproperty
p2
c__builtin__
object
p3
NtRp4
(dp5
S'comment'
p6
S'indicates another place situated south-west.00'
p7
sS'domain'
p8
S'Place '
p9
sS'instances_count'
p10
I0
sS'phrases'
p11
NsS'syn_hypo'
p12
S''
sS'label'
p13
S'south-west place'
p14
sS'range'
p15
S'Place '
p16
sS'uniq_subjs'
p17
S'0'
sS'uniq_objs'
p18
I0
sS'prop_uri'
p19
S'http://dbpedia.org/ontology/southWestPlace'
p20
sS'annotations'
p21
(dp22
S'bag_of_words'
p23
(lp24
S'Place'
p25
aS'south-west'
p26
aS'place'
p27
aS'Place'
p28
aS'indicates'
p29
aS'another'
p30
aS'place'
p31
aS'situated'
p32
aS'south-west'
p33
aS'.00'
p34
asS'chunk_seq'
p35
(lp36
S'B-NP'
p37
aS'I-NP'
p38
aS'I-NP'
p39
aS'E-NP'
p40
aS'S-VP'
p41
aS'B-NP'
p42
aS'E-NP'
p43
aS'S-VP'
p44
aS'B-ADVP'
p45
aS'E-ADVP'
p46
asS'dep_seq'
p47
(lp48
(lp49
S'nn'
p50
aS'4'
aS'1'
aa(lp51
S'amod'
p52
aS'4'
aS'west'
p53
aa(lp54
S'nn'
p55
aS'4'
aS'3'
aa(lp56
S'nsubj'
p57
aS'5'
aS'4'
aa(lp58
S'root'
p59
aS'0'
aS'5'
aa(lp60
S'det'
p61
aS'7'
aS'6'
aa(lp62
S'dobj'
p63
aS'5'
aS'7'
aa(lp64
S'partmod'
p65
aS'7'
aS'8'
aa(lp66
S'advmod'
p67
aS'8'
aS'west'
p68
aa(lp69
S'advmod'
p70
aS'8'
aS'10'
p71
aasS'srls'
p72
(lp73
(dp74
S'A1'
p75
S'another place situated south-west .00'
p76
sS'A0'
p77
S'Place south-west place Place'
p78
sS'V'
g29
sa(dp79
S'A1'
p80
S'another place'
p81
sS'A2'
p82
S'south-west .00'
p83
sS'V'
g32
sasS'pos_seq'
p84
(lp85
S'NN'
p86
aS'JJ'
p87
aS'NN'
p88
aS'NNP'
p89
aS'VBZ'
p90
aS'DT'
p91
aS'NN'
p92
aS'VBN'
p93
aS'RB'
p94
aS'CD'
p95
asS'ner_seq'
p96
(lp97
S'O'
aS'O'
aS'O'
aS'O'
aS'O'
aS'O'
aS'O'
aS'O'
aS'O'
aS'O'
assb.