ccopy_reg
_reconstructor
p1
(c__main__
KBproperty
p2
c__builtin__
object
p3
NtRp4
(dp5
S'comment'
p6
S'4688245300'
p7
sS'domain'
p8
S'Place '
p9
sS'instances_count'
p10
I3294
sS'phrases'
p11
NsS'syn_hypo'
p12
Vadministrative_districtdistrictterritoryterritorial_dominiondominionadministrative_divisiondistrictterritoryterritorial_dominiondominionterritorial_divisiondistrictterritoryterritorial_dominiondominionborderlanddistrictterritoryterritorial_dominiondominionborder_districtdistrictterritoryterritorial_dominiondominionmarchdistrictterritoryterritorial_dominiondominionmarchlanddistrictterritoryterritorial_dominiondominionBritish_East_Africadistrictterritoryterritorial_dominiondominionBritish_West_Africadistrictterritoryterritorial_dominiondominioncity_districtdistrictterritoryterritorial_dominiondominioncongressional_districtdistrictterritoryterritorial_dominiondominiondevelopmentdistrictterritoryterritorial_dominiondominionenclavedistrictterritoryterritorial_dominiondominiongoldfielddistrictterritoryterritorial_dominiondominionjurisdictiondistrictterritoryterritorial_dominiondominionmandatedistrictterritoryterritorial_dominiondominionmandatorydistrictterritoryterritorial_dominiondominionpalatinatedistrictterritoryterritorial_dominiondominionpossessiondistrictterritoryterritorial_dominiondominionprotectoratedistrictterritoryterritorial_dominiondominionassociated_statedistrictterritoryterritorial_dominiondominionresidential_districtdistrictterritoryterritorial_dominiondominionresidential_areadistrictterritoryterritorial_dominiondominioncommunitydistrictterritoryterritorial_dominiondominiontrust_territorydistrictterritoryterritorial_dominiondominiontrusteeship
p13
sS'label'
p14
S'district'
p15
sS'range'
p16
S'Populated Place '
p17
sS'uniq_subjs'
p18
S'3294'
p19
sS'uniq_objs'
p20
I0
sS'prop_uri'
p21
S'http://dbpedia.org/ontology/district'
p22
sS'annotations'
p23
(dp24
S'bag_of_words'
p25
(lp26
S'Place'
p27
aS'district'
p28
aS'Populated'
p29
aS'Place'
p30
aS'4688245300'
p31
asS'chunk_seq'
p32
(lp33
S'B-NP'
p34
aS'I-NP'
p35
aS'I-NP'
p36
aS'E-NP'
p37
aS'O'
asS'dep_seq'
p38
(lp39
(lp40
S'root'
p41
aS'0'
aS'1'
aa(lp42
S'nn'
p43
aS'4'
aS'2'
aa(lp44
S'amod'
p45
aS'4'
aS'3'
aa(lp46
S'dep'
p47
aS'1'
aS'4'
aa(lp48
S'num'
p49
aS'4'
aS'5'
aasS'srls'
p50
(lp51
sS'pos_seq'
p52
(lp53
S'NN'
p54
aS'NN'
p55
aS'JJ'
p56
aS'NN'
p57
aS'CD'
p58
asS'ner_seq'
p59
(lp60
S'O'
aS'O'
aS'O'
aS'O'
aS'O'
assb.