ccopy_reg
_reconstructor
p1
(c__main__
KBproperty
p2
c__builtin__
object
p3
NtRp4
(dp5
S'comment'
p6
S'Building end date of an ArchitecturalStructure man-made Lake etc. For older structures this can be just a year or century for newer structures an exact date is preferred1586715283'
p7
sS'domain'
p8
S''
sS'instances_count'
p9
I15867
sS'phrases'
p10
NsS'syn_hypo'
p11
S''
sS'label'
p12
S'building end date'
p13
sS'range'
p14
S'string '
p15
sS'uniq_subjs'
p16
S'4419'
p17
sS'uniq_objs'
p18
I0
sS'prop_uri'
p19
S'http://dbpedia.org/ontology/buildingEndDate'
p20
sS'annotations'
p21
(dp22
S'bag_of_words'
p23
(lp24
S'building'
p25
aS'end'
p26
aS'date'
p27
aS'string'
p28
aS'Building'
p29
aS'end'
p30
aS'date'
p31
aS'of'
p32
aS'an'
p33
aS'ArchitecturalStructure'
p34
aS'man-made'
p35
aS'Lake'
p36
aS'etc.'
p37
aS'For'
p38
aS'older'
p39
aS'structures'
p40
aS'this'
p41
aS'can'
p42
aS'be'
p43
aS'just'
p44
aS'a'
aS'year'
p45
aS'or'
p46
aS'century'
p47
aS'for'
p48
aS'newer'
p49
aS'structures'
p50
aS'an'
p51
aS'exact'
p52
aS'date'
p53
aS'is'
p54
aS'preferred1586715283'
p55
asS'chunk_seq'
p56
(lp57
S'S-VP'
p58
aS'B-NP'
p59
aS'I-NP'
p60
aS'I-NP'
p61
aS'I-NP'
p62
aS'I-NP'
p63
aS'E-NP'
p64
aS'S-PP'
p65
aS'B-NP'
p66
aS'I-NP'
p67
aS'I-NP'
p68
aS'I-NP'
p69
aS'E-NP'
p70
aS'S-PP'
p71
aS'B-NP'
p72
aS'E-NP'
p73
aS'S-NP'
p74
aS'B-VP'
p75
aS'E-VP'
p76
aS'B-NP'
p77
aS'I-NP'
p78
aS'I-NP'
p79
aS'I-NP'
p80
aS'E-NP'
p81
aS'S-PP'
p82
aS'B-NP'
p83
aS'E-NP'
p84
aS'B-NP'
p85
aS'I-NP'
p86
aS'E-NP'
p87
aS'S-VP'
p88
aS'S-ADJP'
p89
asS'dep_seq'
p90
(lp91
(lp92
S'root'
p93
aS'0'
aS'1'
aa(lp94
S'nn'
p95
aS'7'
aS'2'
aa(lp96
S'nn'
p97
aS'7'
aS'3'
aa(lp98
S'nn'
p99
aS'7'
aS'4'
aa(lp100
S'nn'
p101
aS'7'
aS'5'
aa(lp102
S'nn'
p103
aS'7'
aS'6'
aa(lp104
S'dobj'
p105
aS'1'
aS'7'
aa(lp106
S'det'
p107
aS'12'
p108
aS'9'
aa(lp109
S'amod'
p110
aS'made'
p111
aS'10'
p112
aa(lp113
S'amod'
p114
aS'12'
p115
aS'made'
p116
aa(lp117
S'nn'
p118
aS'13'
p119
aS'12'
p120
aa(lp121
S'prep_of'
p122
aS'7'
aS'13'
p123
aa(lp124
S'amod'
p125
aS'16'
p126
aS'15'
p127
aa(lp128
S'prep_for'
p129
aS'13'
p130
aS'16'
p131
aa(lp132
S'nsubj'
p133
aS'22'
p134
aS'17'
p135
aa(lp136
S'aux'
p137
aS'22'
p138
aS'18'
p139
aa(lp140
S'cop'
p141
aS'22'
p142
aS'19'
p143
aa(lp144
S'advmod'
p145
aS'22'
p146
aS'20'
p147
aa(lp148
S'det'
p149
aS'22'
p150
aS'21'
p151
aa(lp152
S'rcmod'
p153
aS'12'
p154
aS'22'
p155
aa(lp156
S'ccomp'
p157
aS'13'
p158
aS'22'
p159
aa(lp160
S'conj_or'
p161
aS'22'
p162
aS'24'
p163
aa(lp164
S'amod'
p165
aS'27'
p166
aS'26'
p167
aa(lp168
S'prep_for'
p169
aS'22'
p170
aS'27'
p171
aa(lp172
S'det'
p173
aS'30'
p174
aS'28'
p175
aa(lp176
S'amod'
p177
aS'30'
p178
aS'29'
p179
aa(lp180
S'dep'
p181
aS'22'
p182
aS'30'
p183
aa(lp184
S'cop'
p185
aS'32'
p186
aS'31'
p187
aa(lp188
S'dep'
p189
aS'1'
aS'32'
p190
aasS'srls'
p191
(lp192
sS'pos_seq'
p193
(lp194
S'VBG'
p195
aS'NN'
p196
aS'NN'
p197
aS'NN'
p198
aS'NN'
p199
aS'NN'
p200
aS'NN'
p201
aS'IN'
p202
aS'DT'
p203
aS'NNP'
p204
aS'JJ'
p205
aS'NNP'
p206
aS'NN'
p207
aS'IN'
p208
aS'JJR'
p209
aS'NNS'
p210
aS'DT'
p211
aS'MD'
p212
aS'VB'
p213
aS'RB'
p214
aS'DT'
p215
aS'NN'
p216
aS'CC'
p217
aS'NN'
p218
aS'IN'
p219
aS'JJR'
p220
aS'NNS'
p221
aS'DT'
p222
aS'JJ'
p223
aS'NN'
p224
aS'VBZ'
p225
aS'JJ'
p226
asS'ner_seq'
p227
(lp228
S'O'
aS'O'
aS'O'
aS'O'
aS'O'
aS'O'
aS'O'
aS'O'
aS'O'
aS'B-LOC'
p229
aS'I-LOC'
p230
aS'E-LOC'
p231
aS'O'
aS'O'
aS'O'
aS'O'
aS'O'
aS'O'
aS'O'
aS'O'
aS'O'
aS'O'
aS'O'
aS'O'
aS'O'
aS'O'
aS'O'
aS'O'
aS'O'
aS'O'
aS'O'
aS'O'
assb.