ccopy_reg
_reconstructor
p1
(c__main__
KBproperty
p2
c__builtin__
object
p3
NtRp4
(dp5
S'comment'
p6
S'The URL to the webcast of the Thing.87278073'
p7
sS'domain'
p8
S''
sS'instances_count'
p9
I7953
sS'phrases'
p10
NsS'syn_hypo'
p11
S''
sS'label'
p12
S'webcast'
p13
sS'range'
p14
S''
sS'uniq_subjs'
p15
S'7953'
p16
sS'uniq_objs'
p17
I0
sS'prop_uri'
p18
S'http://dbpedia.org/ontology/webcast'
p19
sS'annotations'
p20
(dp21
S'bag_of_words'
p22
(lp23
S'webcast'
p24
aS'The'
p25
aS'URL'
p26
aS'to'
p27
aS'the'
p28
aS'webcast'
p29
aS'of'
p30
aS'the'
p31
aS'Thing.87278073'
p32
asS'chunk_seq'
p33
(lp34
S'S-VP'
p35
aS'B-NP'
p36
aS'E-NP'
p37
aS'S-PP'
p38
aS'B-NP'
p39
aS'E-NP'
p40
aS'S-PP'
p41
aS'B-NP'
p42
aS'E-NP'
p43
asS'dep_seq'
p44
(lp45
(lp46
S'root'
p47
aS'0'
aS'1'
aa(lp48
S'det'
p49
aS'3'
aS'2'
aa(lp50
S'dobj'
p51
aS'1'
aS'3'
aa(lp52
S'det'
p53
aS'6'
aS'5'
aa(lp54
S'prep_to'
p55
aS'1'
aS'6'
aa(lp56
S'det'
p57
aS'9'
aS'8'
aa(lp58
S'prep_of'
p59
aS'6'
aS'9'
aasS'srls'
p60
(lp61
(dp62
S'A1'
p63
S'The URL'
p64
sS'A2'
p65
S'to the webcast of the Thing.87278073'
p66
sS'V'
g24
sasS'pos_seq'
p67
(lp68
S'VB'
p69
aS'DT'
p70
aS'NN'
p71
aS'TO'
p72
aS'DT'
p73
aS'NN'
p74
aS'IN'
p75
aS'DT'
p76
aS'NNP'
p77
asS'ner_seq'
p78
(lp79
S'O'
aS'O'
aS'O'
aS'O'
aS'O'
aS'O'
aS'O'
aS'O'
aS'S-MISC'
p80
assb.