ccopy_reg
_reconstructor
p1
(c__main__
KBproperty
p2
c__builtin__
object
p3
NtRp4
(dp5
S'comment'
p6
S'original maximum boat beam \\xce\\xbc'
p7
sS'domain'
p8
S'Canal '
p9
sS'instances_count'
p10
I6
sS'phrases'
p11
NsS'syn_hypo'
p12
S''
sS'label'
p13
g7
sS'range'
p14
S'double '
p15
sS'uniq_subjs'
p16
S'6'
sS'uniq_objs'
p17
I0
sS'prop_uri'
p18
S'http://dbpedia.org/ontology/originalMaximumBoatBeam'
p19
sS'annotations'
p20
(dp21
S'bag_of_words'
p22
(lp23
S'Canal'
p24
aS'original'
p25
aS'Maximum'
p26
aS'Boat'
p27
aS'Beam'
p28
aS'double'
p29
aS'original'
p30
aS'maximum'
p31
aS'boat'
p32
aS'beam'
p33
aS'\\'
aS'xce'
p34
aS'\\'
aS'xbc'
p35
asS'chunk_seq'
p36
(lp37
S'B-NP'
p38
aS'I-NP'
p39
aS'I-NP'
p40
aS'I-NP'
p41
aS'I-NP'
p42
aS'I-NP'
p43
aS'I-NP'
p44
aS'I-NP'
p45
aS'I-NP'
p46
aS'E-NP'
p47
aS'O'
aS'O'
aS'O'
aS'O'
asS'dep_seq'
p48
(lp49
(lp50
S'nn'
p51
aS'5'
aS'1'
aa(lp52
S'amod'
p53
aS'5'
aS'2'
aa(lp54
S'nn'
p55
aS'5'
aS'3'
aa(lp56
S'nn'
p57
aS'5'
aS'4'
aa(lp58
S'dep'
p59
aS'10'
p60
aS'5'
aa(lp61
S'amod'
p62
aS'10'
p63
aS'6'
aa(lp64
S'amod'
p65
aS'10'
p66
aS'7'
aa(lp67
S'amod'
p68
aS'10'
p69
aS'8'
aa(lp70
S'nn'
p71
aS'10'
p72
aS'9'
aa(lp73
S'root'
p74
aS'0'
aS'10'
p75
aa(lp76
S'dep'
p77
aS'10'
p78
aS'11'
p79
aa(lp80
S'discourse'
p81
aS'10'
p82
aS'12'
p83
aa(lp84
S'dep'
p85
aS'12'
p86
aS'13'
p87
aa(lp88
S'dep'
p89
aS'12'
p90
aS'14'
p91
aasS'srls'
p92
(lp93
sS'pos_seq'
p94
(lp95
S'NNP'
p96
aS'JJ'
p97
aS'NNP'
p98
aS'NNP'
p99
aS'NNP'
p100
aS'JJ'
p101
aS'JJ'
p102
aS'JJ'
p103
aS'NN'
p104
aS'NN'
p105
aS'FW'
p106
aS'FW'
p107
aS'FW'
p108
aS'FW'
p109
asS'ner_seq'
p110
(lp111
S'O'
aS'O'
aS'O'
aS'O'
aS'O'
aS'O'
aS'O'
aS'O'
aS'O'
aS'O'
aS'O'
aS'O'
aS'O'
aS'O'
assb.