ccopy_reg
_reconstructor
p1
(c__main__
KBproperty
p2
c__builtin__
object
p3
NtRp4
(dp5
S'comment'
p6
S'average annual gross power generation J'
p7
sS'domain'
p8
S'Power Station '
p9
sS'instances_count'
p10
I535
sS'phrases'
p11
NsS'syn_hypo'
p12
S''
sS'label'
p13
g7
sS'range'
p14
S'double '
p15
sS'uniq_subjs'
p16
S'535'
p17
sS'uniq_objs'
p18
I0
sS'prop_uri'
p19
S'http://dbpedia.org/ontology/averageAnnualGeneration'
p20
sS'annotations'
p21
(dp22
S'bag_of_words'
p23
(lp24
S'Power'
p25
aS'Station'
p26
aS'average'
p27
aS'Annual'
p28
aS'Generation'
p29
aS'double'
p30
aS'average'
p31
aS'annual'
p32
aS'gross'
p33
aS'power'
p34
aS'generation'
p35
aS'J'
asS'chunk_seq'
p36
(lp37
S'B-NP'
p38
aS'E-NP'
p39
aS'B-NP'
p40
aS'I-NP'
p41
aS'I-NP'
p42
aS'I-NP'
p43
aS'I-NP'
p44
aS'I-NP'
p45
aS'I-NP'
p46
aS'I-NP'
p47
aS'I-NP'
p48
aS'E-NP'
p49
asS'dep_seq'
p50
(lp51
(lp52
S'nn'
p53
aS'12'
p54
aS'1'
aa(lp55
S'nn'
p56
aS'12'
p57
aS'2'
aa(lp58
S'amod'
p59
aS'12'
p60
aS'3'
aa(lp61
S'nn'
p62
aS'12'
p63
aS'4'
aa(lp64
S'nn'
p65
aS'12'
p66
aS'5'
aa(lp67
S'amod'
p68
aS'12'
p69
aS'6'
aa(lp70
S'amod'
p71
aS'12'
p72
aS'7'
aa(lp73
S'amod'
p74
aS'12'
p75
aS'8'
aa(lp76
S'amod'
p77
aS'12'
p78
aS'9'
aa(lp79
S'nn'
p80
aS'12'
p81
aS'10'
p82
aa(lp83
S'nn'
p84
aS'12'
p85
aS'11'
p86
aa(lp87
S'root'
p88
aS'0'
aS'12'
p89
aasS'srls'
p90
(lp91
sS'pos_seq'
p92
(lp93
S'NNP'
p94
aS'NNP'
p95
aS'JJ'
p96
aS'NNP'
p97
aS'NNP'
p98
aS'JJ'
p99
aS'JJ'
p100
aS'JJ'
p101
aS'JJ'
p102
aS'NN'
p103
aS'NN'
p104
aS'NNP'
p105
asS'ner_seq'
p106
(lp107
S'B-ORG'
p108
aS'E-ORG'
p109
aS'O'
aS'O'
aS'O'
aS'O'
aS'O'
aS'O'
aS'O'
aS'O'
aS'O'
aS'O'
assb.