ccopy_reg
_reconstructor
p1
(c__main__
KBproperty
p2
c__builtin__
object
p3
NtRp4
(dp5
S'comment'
p6
S'a subdivision within a Species classis00'
p7
sS'domain'
p8
S'Species '
p9
sS'instances_count'
p10
I0
sS'phrases'
p11
NsS'syn_hypo'
p12
S''
sS'label'
p13
S'sub-classis'
p14
sS'range'
p15
S''
sS'uniq_subjs'
p16
S'0'
sS'uniq_objs'
p17
I0
sS'prop_uri'
p18
S'http://dbpedia.org/ontology/subClassis'
p19
sS'annotations'
p20
(dp21
S'bag_of_words'
p22
(lp23
S'Species'
p24
aS'sub'
p25
aS'-'
aS'classis'
p26
aS'a'
aS'subdivision'
p27
aS'within'
p28
aS'a'
aS'Species'
p29
aS'classis00'
p30
asS'chunk_seq'
p31
(lp32
S'B-NP'
p33
aS'I-NP'
p34
aS'I-NP'
p35
aS'E-NP'
p36
aS'B-NP'
p37
aS'E-NP'
p38
aS'S-PP'
p39
aS'B-NP'
p40
aS'E-NP'
p41
aS'S-ADJP'
p42
asS'dep_seq'
p43
(lp44
(lp45
S'nn'
p46
aS'2'
aS'1'
aa(lp47
S'root'
p48
aS'0'
aS'2'
aa(lp49
S'nn'
p50
aS'6'
aS'4'
aa(lp51
S'det'
p52
aS'6'
aS'5'
aa(lp53
S'dep'
p54
aS'2'
aS'6'
aa(lp55
S'det'
p56
aS'10'
p57
aS'8'
aa(lp58
S'nn'
p59
aS'10'
p60
aS'9'
aa(lp61
S'prep_within'
p62
aS'6'
aS'10'
p63
aasS'srls'
p64
(lp65
sS'pos_seq'
p66
(lp67
S'FW'
p68
aS'FW'
p69
aS'FW'
p70
aS'FW'
p71
aS'DT'
p72
aS'NN'
p73
aS'IN'
p74
aS'DT'
p75
aS'NN'
p76
aS'NN'
p77
asS'ner_seq'
p78
(lp79
S'O'
aS'O'
aS'O'
aS'O'
aS'O'
aS'O'
aS'O'
aS'O'
aS'O'
aS'O'
assb.