ccopy_reg
_reconstructor
p1
(c__main__
KBproperty
p2
c__builtin__
object
p3
NtRp4
(dp5
S'comment'
p6
S'the start of the gene coordinates8484'
p7
sS'domain'
p8
S'Gene Location '
p9
sS'instances_count'
p10
I84
sS'phrases'
p11
NsS'syn_hypo'
p12
S''
sS'label'
p13
S'gene location start'
p14
sS'range'
p15
S'integer '
p16
sS'uniq_subjs'
p17
S'84'
p18
sS'uniq_objs'
p19
I0
sS'prop_uri'
p20
S'http://dbpedia.org/ontology/geneLocationStart'
p21
sS'annotations'
p22
(dp23
S'bag_of_words'
p24
(lp25
S'Gene'
p26
aS'Location'
p27
aS'gene'
p28
aS'location'
p29
aS'start'
p30
aS'integer'
p31
aS'the'
p32
aS'start'
p33
aS'of'
p34
aS'the'
p35
aS'gene'
p36
aS'coordinates8484'
p37
asS'chunk_seq'
p38
(lp39
S'B-NP'
p40
aS'I-NP'
p41
aS'I-NP'
p42
aS'E-NP'
p43
aS'S-VP'
p44
aS'S-NP'
p45
aS'B-NP'
p46
aS'E-NP'
p47
aS'S-PP'
p48
aS'B-NP'
p49
aS'I-NP'
p50
aS'E-NP'
p51
asS'dep_seq'
p52
(lp53
(lp54
S'nn'
p55
aS'4'
aS'1'
aa(lp56
S'nn'
p57
aS'4'
aS'2'
aa(lp58
S'nn'
p59
aS'4'
aS'3'
aa(lp60
S'nsubj'
p61
aS'5'
aS'4'
aa(lp62
S'root'
p63
aS'0'
aS'5'
aa(lp64
S'nsubj'
p65
aS'8'
aS'6'
aa(lp66
S'det'
p67
aS'8'
aS'7'
aa(lp68
S'xcomp'
p69
aS'5'
aS'8'
aa(lp70
S'det'
p71
aS'12'
p72
aS'10'
p73
aa(lp74
S'nn'
p75
aS'12'
p76
aS'11'
p77
aa(lp78
S'prep_of'
p79
aS'8'
aS'12'
p80
aasS'srls'
p81
(lp82
(dp83
S'A1'
p84
S'integer the start of the gene coordinates8484'
p85
sS'A0'
p86
S'Gene Location gene location'
p87
sS'V'
g30
sasS'pos_seq'
p88
(lp89
S'NNP'
p90
aS'NNP'
p91
aS'NN'
p92
aS'NN'
p93
aS'VBP'
p94
aS'NN'
p95
aS'DT'
p96
aS'NN'
p97
aS'IN'
p98
aS'DT'
p99
aS'NN'
p100
aS'NN'
p101
asS'ner_seq'
p102
(lp103
S'O'
aS'O'
aS'O'
aS'O'
aS'O'
aS'O'
aS'O'
aS'O'
aS'O'
aS'O'
aS'O'
aS'O'
assb.