ccopy_reg
_reconstructor
p1
(c__main__
KBproperty
p2
c__builtin__
object
p3
NtRp4
(dp5
S'comment'
p6
S'the total number of albums released by the musical artist00'
p7
sS'domain'
p8
S'Musical Artist '
p9
sS'instances_count'
p10
I0
sS'phrases'
p11
NsS'syn_hypo'
p12
S''
sS'label'
p13
S'number of albums'
p14
sS'range'
p15
S'non Negative Integer '
p16
sS'uniq_subjs'
p17
S'0'
sS'uniq_objs'
p18
I0
sS'prop_uri'
p19
S'http://dbpedia.org/ontology/numberOfAlbums'
p20
sS'annotations'
p21
(dp22
S'bag_of_words'
p23
(lp24
S'Musical'
p25
aS'Artist'
p26
aS'number'
p27
aS'of'
p28
aS'albums'
p29
aS'non'
p30
aS'Negative'
p31
aS'Integer'
p32
aS'the'
p33
aS'total'
p34
aS'number'
p35
aS'of'
p36
aS'albums'
p37
aS'released'
p38
aS'by'
p39
aS'the'
p40
aS'musical'
p41
aS'artist00'
p42
asS'chunk_seq'
p43
(lp44
S'B-NP'
p45
aS'I-NP'
p46
aS'E-NP'
p47
aS'S-PP'
p48
aS'B-NP'
p49
aS'I-NP'
p50
aS'I-NP'
p51
aS'E-NP'
p52
aS'B-NP'
p53
aS'I-NP'
p54
aS'E-NP'
p55
aS'S-PP'
p56
aS'S-NP'
p57
aS'S-VP'
p58
aS'S-PP'
p59
aS'B-NP'
p60
aS'I-NP'
p61
aS'E-NP'
p62
asS'dep_seq'
p63
(lp64
(lp65
S'amod'
p66
aS'3'
aS'1'
aa(lp67
S'nn'
p68
aS'3'
aS'2'
aa(lp69
S'root'
p70
aS'0'
aS'3'
aa(lp71
S'nn'
p72
aS'8'
aS'5'
aa(lp73
S'amod'
p74
aS'8'
aS'6'
aa(lp75
S'amod'
p76
aS'6'
aS'7'
aa(lp77
S'prep_of'
p78
aS'3'
aS'8'
aa(lp79
S'det'
p80
aS'11'
p81
aS'9'
aa(lp82
S'amod'
p83
aS'11'
p84
aS'10'
p85
aa(lp86
S'dep'
p87
aS'3'
aS'11'
p88
aa(lp89
S'prep_of'
p90
aS'11'
p91
aS'13'
p92
aa(lp93
S'partmod'
p94
aS'11'
p95
aS'14'
p96
aa(lp97
S'det'
p98
aS'18'
p99
aS'16'
p100
aa(lp101
S'amod'
p102
aS'18'
p103
aS'17'
p104
aa(lp105
S'agent'
p106
aS'14'
p107
aS'18'
p108
aasS'srls'
p109
(lp110
(dp111
S'A1'
p112
g37
sS'A0'
p113
S'by the musical artist00'
p114
sS'V'
g38
sasS'pos_seq'
p115
(lp116
S'JJ'
p117
aS'NNP'
p118
aS'NN'
p119
aS'IN'
p120
aS'NNS'
p121
aS'JJ'
p122
aS'NNP'
p123
aS'NNP'
p124
aS'DT'
p125
aS'JJ'
p126
aS'NN'
p127
aS'IN'
p128
aS'NNS'
p129
aS'VBN'
p130
aS'IN'
p131
aS'DT'
p132
aS'JJ'
p133
aS'NN'
p134
asS'ner_seq'
p135
(lp136
S'O'
aS'O'
aS'O'
aS'O'
aS'O'
aS'O'
aS'O'
aS'O'
aS'O'
aS'O'
aS'O'
aS'O'
aS'O'
aS'O'
aS'O'
aS'O'
aS'O'
aS'O'
assb.