ccopy_reg
_reconstructor
p1
(c__main__
KBproperty
p2
c__builtin__
object
p3
NtRp4
(dp5
S'comment'
p6
S'872003864481'
p7
sS'domain'
p8
S'Soccer Player '
p9
sS'instances_count'
p10
I377
sS'phrases'
p11
NsS'syn_hypo'
p12
Vdotageold_ageyearsageeldgeezerhoodsecond_childhoodold_ageyearsageeldgeezerhoodsenility
p13
sS'label'
p14
S'years'
p15
sS'range'
p16
S'g Year '
p17
sS'uniq_subjs'
p18
S'377'
p19
sS'uniq_objs'
p20
I0
sS'prop_uri'
p21
S'http://dbpedia.org/ontology/years'
p22
sS'annotations'
p23
(dp24
S'bag_of_words'
p25
(lp26
S'Soccer'
p27
aS'Player'
p28
aS'years'
p29
aS'g'
aS'Year'
p30
aS'872003864481'
p31
asS'chunk_seq'
p32
(lp33
S'B-NP'
p34
aS'I-NP'
p35
aS'E-NP'
p36
aS'B-NP'
p37
aS'E-NP'
p38
aS'O'
asS'dep_seq'
p39
(lp40
(lp41
S'nn'
p42
aS'3'
aS'1'
aa(lp43
S'nn'
p44
aS'3'
aS'2'
aa(lp45
S'dep'
p46
aS'6'
aS'3'
aa(lp47
S'possessive'
p48
aS'6'
aS'4'
aa(lp49
S'nn'
p50
aS'6'
aS'5'
aa(lp51
S'root'
p52
aS'0'
aS'6'
aasS'srls'
p53
(lp54
sS'pos_seq'
p55
(lp56
S'NNP'
p57
aS'NNP'
p58
aS'NNS'
p59
aS'POS'
p60
aS'NN'
p61
aS'NN'
p62
asS'ner_seq'
p63
(lp64
S'O'
aS'O'
aS'O'
aS'O'
aS'O'
aS'O'
assb.