ccopy_reg
_reconstructor
p1
(c__main__
KBproperty
p2
c__builtin__
object
p3
NtRp4
(dp5
S'comment'
p6
S'http://dbpedia.org/ontology/Diocese'
p7
sS'domain'
p8
S'Parish '
p9
sS'instances_count'
p10
I0
sS'phrases'
p11
NsS'syn_hypo'
p12
S''
sS'label'
p13
g7
sS'range'
p14
S'Deanery '
p15
sS'uniq_subjs'
p16
S'0'
sS'uniq_objs'
p17
I0
sS'prop_uri'
p18
S'http://dbpedia.org/ontology/diocese'
p19
sS'annotations'
p20
(dp21
S'bag_of_words'
p22
(lp23
S'Parish'
p24
aS'diocese'
p25
aS'Deanery'
p26
aS'http'
p27
aS':'
aS'//'
p28
aS'dbpedia'
p29
aS'.org'
p30
aS'/'
aS'ontology'
p31
aS'/'
aS'Diocese'
p32
asS'chunk_seq'
p33
(lp34
S'B-NP'
p35
aS'I-NP'
p36
aS'I-NP'
p37
aS'E-NP'
p38
aS'O'
aS'O'
aS'O'
aS'O'
aS'O'
aS'O'
aS'O'
aS'O'
asS'dep_seq'
p39
(lp40
(lp41
S'nn'
p42
aS'4'
aS'1'
aa(lp43
S'nn'
p44
aS'4'
aS'2'
aa(lp45
S'nn'
p46
aS'4'
aS'3'
aa(lp47
S'root'
p48
aS'0'
aS'4'
aa(lp49
S'nn'
p50
aS'10'
p51
aS'6'
aa(lp52
S'nn'
p53
aS'10'
p54
aS'7'
aa(lp55
S'nn'
p56
aS'10'
p57
aS'8'
aa(lp58
S'dep'
p59
aS'10'
p60
aS'9'
aa(lp61
S'dep'
p62
aS'4'
aS'10'
p63
aa(lp64
S'prep'
p65
aS'10'
p66
aS'11'
p67
aa(lp68
S'pobj'
p69
aS'11'
p70
aS'12'
p71
aasS'srls'
p72
(lp73
sS'pos_seq'
p74
(lp75
S'NN'
p76
aS'NN'
p77
aS'NNP'
p78
aS'NN'
p79
aS':'
aS'FW'
p80
aS'FW'
p81
aS'FW'
p82
aS'FW'
p83
aS'FW'
p84
aS'FW'
p85
aS'NNP'
p86
asS'ner_seq'
p87
(lp88
S'B-LOC'
p89
aS'I-LOC'
p90
aS'E-LOC'
p91
aS'O'
aS'O'
aS'O'
aS'O'
aS'O'
aS'O'
aS'O'
aS'O'
aS'O'
assb.