ccopy_reg
_reconstructor
p1
(c__main__
KBproperty
p2
c__builtin__
object
p3
NtRp4
(dp5
S'comment'
p6
S'flag image'
p7
sS'domain'
p8
S''
sS'instances_count'
p9
I372
sS'phrases'
p10
NsS'syn_hypo'
p11
S''
sS'label'
p12
g7
sS'range'
p13
S'string '
p14
sS'uniq_subjs'
p15
S'372'
p16
sS'uniq_objs'
p17
I0
sS'prop_uri'
p18
S'http://dbpedia.org/ontology/flag'
p19
sS'annotations'
p20
(dp21
S'bag_of_words'
p22
(lp23
S'flag'
p24
aS'string'
p25
aS'flag'
p26
aS'image'
p27
asS'chunk_seq'
p28
(lp29
S'B-NP'
p30
aS'I-NP'
p31
aS'I-NP'
p32
aS'E-NP'
p33
asS'dep_seq'
p34
(lp35
(lp36
S'nn'
p37
aS'4'
aS'1'
aa(lp38
S'nn'
p39
aS'4'
aS'2'
aa(lp40
S'nn'
p41
aS'4'
aS'3'
aa(lp42
S'root'
p43
aS'0'
aS'4'
aasS'srls'
p44
(lp45
sS'pos_seq'
p46
(lp47
S'NN'
p48
aS'NN'
p49
aS'NN'
p50
aS'NN'
p51
asS'ner_seq'
p52
(lp53
S'O'
aS'O'
aS'O'
aS'O'
assb.