ccopy_reg
_reconstructor
p1
(c__main__
KBproperty
p2
c__builtin__
object
p3
NtRp4
(dp5
S'comment'
p6
S'System the passengers are using from which the passenger statistics are.284284'
p7
sS'domain'
p8
S'Station '
p9
sS'instances_count'
p10
I29
sS'phrases'
p11
NsS'syn_hypo'
p12
S''
sS'label'
p13
S'passengers used system'
p14
sS'range'
p15
S'string '
p16
sS'uniq_subjs'
p17
S'29'
p18
sS'uniq_objs'
p19
I0
sS'prop_uri'
p20
S'http://dbpedia.org/ontology/passengersUsedSystem'
p21
sS'annotations'
p22
(dp23
S'bag_of_words'
p24
(lp25
S'Station'
p26
aS'passengers'
p27
aS'used'
p28
aS'system'
p29
aS'string'
p30
aS'System'
p31
aS'the'
p32
aS'passengers'
p33
aS'are'
p34
aS'using'
p35
aS'from'
p36
aS'which'
p37
aS'the'
p38
aS'passenger'
p39
aS'statistics'
p40
aS'are.284284'
p41
asS'chunk_seq'
p42
(lp43
S'B-NP'
p44
aS'I-NP'
p45
aS'I-NP'
p46
aS'I-NP'
p47
aS'I-NP'
p48
aS'E-NP'
p49
aS'B-NP'
p50
aS'E-NP'
p51
aS'B-VP'
p52
aS'E-VP'
p53
aS'S-PP'
p54
aS'S-NP'
p55
aS'B-NP'
p56
aS'I-NP'
p57
aS'E-NP'
p58
aS'O'
asS'dep_seq'
p59
(lp60
(lp61
S'nn'
p62
aS'6'
aS'1'
aa(lp63
S'nn'
p64
aS'6'
aS'2'
aa(lp65
S'amod'
p66
aS'6'
aS'3'
aa(lp67
S'nn'
p68
aS'6'
aS'4'
aa(lp69
S'nn'
p70
aS'6'
aS'5'
aa(lp71
S'dep'
p72
aS'15'
p73
aS'6'
aa(lp74
S'det'
p75
aS'8'
aS'7'
aa(lp76
S'dep'
p77
aS'15'
p78
aS'8'
aa(lp79
S'dep'
p80
aS'15'
p81
aS'9'
aa(lp82
S'dep'
p83
aS'15'
p84
aS'10'
p85
aa(lp86
S'dep'
p87
aS'15'
p88
aS'11'
p89
aa(lp90
S'pobj'
p91
aS'11'
p92
aS'12'
p93
aa(lp94
S'det'
p95
aS'15'
p96
aS'13'
p97
aa(lp98
S'nn'
p99
aS'15'
p100
aS'14'
p101
aa(lp102
S'root'
p103
aS'0'
aS'15'
p104
aa(lp105
S'punct'
p106
aS'15'
p107
aS'16'
p108
aasS'srls'
p109
(lp110
(dp111
S'A1'
p112
S'system string System'
p113
sS'A0'
p114
S'Station passengers'
p115
sS'A2'
p116
S'the passengers'
p117
sS'V'
g28
sa(dp118
S'A1'
p119
S'the passengers'
p120
sS'A2'
p121
S'Station passengers used system string System  from which the passenger statistics are.284284'
p122
sS'V'
g35
sasS'pos_seq'
p123
(lp124
S'NN'
p125
aS'NNS'
p126
aS'VBN'
p127
aS'NN'
p128
aS'NN'
p129
aS'NNP'
p130
aS'DT'
p131
aS'NNS'
p132
aS'VBP'
p133
aS'VBG'
p134
aS'IN'
p135
aS'WDT'
p136
aS'DT'
p137
aS'NN'
p138
aS'NNS'
p139
aS'.'
asS'ner_seq'
p140
(lp141
S'O'
aS'O'
aS'O'
aS'O'
aS'O'
aS'O'
aS'O'
aS'O'
aS'O'
aS'O'
aS'O'
aS'O'
aS'O'
aS'O'
aS'O'
aS'O'
assb.