ccopy_reg
_reconstructor
p1
(c__main__
KBproperty
p2
c__builtin__
object
p3
NtRp4
(dp5
S'comment'
p6
S'00'
p7
sS'domain'
p8
S'Place '
p9
sS'instances_count'
p10
I0
sS'phrases'
p11
NsS'syn_hypo'
p12
S''
sS'label'
p13
S'named by language'
p14
sS'range'
p15
S'Place '
p16
sS'uniq_subjs'
p17
S'0'
sS'uniq_objs'
p18
I0
sS'prop_uri'
p19
S'http://dbpedia.org/ontology/namedByLanguage'
p20
sS'annotations'
p21
(dp22
S'bag_of_words'
p23
(lp24
S'Place'
p25
aS'named'
p26
aS'by'
p27
aS'language'
p28
aS'Place'
p29
aS'00'
p30
asS'chunk_seq'
p31
(lp32
S'S-NP'
p33
aS'S-VP'
p34
aS'S-PP'
p35
aS'B-NP'
p36
aS'E-NP'
p37
aS'O'
asS'dep_seq'
p38
(lp39
(lp40
S'nsubj'
p41
aS'2'
aS'1'
aa(lp42
S'root'
p43
aS'0'
aS'2'
aa(lp44
S'nn'
p45
aS'5'
aS'4'
aa(lp46
S'prep_by'
p47
aS'2'
aS'5'
aa(lp48
S'num'
p49
aS'5'
aS'6'
aasS'srls'
p50
(lp51
(dp52
S'A1'
p53
g25
sS'A0'
p54
S'by language Place 00'
p55
sS'V'
g26
sasS'pos_seq'
p56
(lp57
S'NN'
p58
aS'VBN'
p59
aS'IN'
p60
aS'NN'
p61
aS'NN'
p62
aS'CD'
p63
asS'ner_seq'
p64
(lp65
S'O'
aS'O'
aS'O'
aS'O'
aS'O'
aS'O'
assb.