ccopy_reg
_reconstructor
p1
(c__main__
KBproperty
p2
c__builtin__
object
p3
NtRp4
(dp5
S'comment'
p6
S'Department for Education UK number of a school in England or Wales11'
p7
sS'domain'
p8
S'School '
p9
sS'instances_count'
p10
I1
sS'phrases'
p11
NsS'syn_hypo'
p12
S''
sS'label'
p13
S'DfE'
p14
sS'range'
p15
S''
sS'uniq_subjs'
p16
S'1'
sS'uniq_objs'
p17
I0
sS'prop_uri'
p18
S'http://dbpedia.org/ontology/dfE'
p19
sS'annotations'
p20
(dp21
S'bag_of_words'
p22
(lp23
S'School'
p24
aS'DfE'
p25
aS'Department'
p26
aS'for'
p27
aS'Education'
p28
aS'UK'
p29
aS'number'
p30
aS'of'
p31
aS'a'
aS'school'
p32
aS'in'
p33
aS'England'
p34
aS'or'
p35
aS'Wales11'
p36
asS'chunk_seq'
p37
(lp38
S'B-NP'
p39
aS'I-NP'
p40
aS'E-NP'
p41
aS'S-PP'
p42
aS'B-NP'
p43
aS'I-NP'
p44
aS'E-NP'
p45
aS'S-PP'
p46
aS'B-NP'
p47
aS'E-NP'
p48
aS'S-PP'
p49
aS'B-NP'
p50
aS'I-NP'
p51
aS'E-NP'
p52
asS'dep_seq'
p53
(lp54
(lp55
S'nn'
p56
aS'3'
aS'1'
aa(lp57
S'nn'
p58
aS'3'
aS'2'
aa(lp59
S'root'
p60
aS'0'
aS'3'
aa(lp61
S'nn'
p62
aS'7'
aS'5'
aa(lp63
S'nn'
p64
aS'7'
aS'6'
aa(lp65
S'prep_for'
p66
aS'3'
aS'7'
aa(lp67
S'det'
p68
aS'10'
p69
aS'9'
aa(lp70
S'prep_of'
p71
aS'7'
aS'10'
p72
aa(lp73
S'prep_in'
p74
aS'10'
p75
aS'12'
p76
aa(lp77
S'conj_or'
p78
aS'12'
p79
aS'14'
p80
aasS'srls'
p81
(lp82
sS'pos_seq'
p83
(lp84
S'NNP'
p85
aS'NNP'
p86
aS'NNP'
p87
aS'IN'
p88
aS'NNP'
p89
aS'NNP'
p90
aS'NN'
p91
aS'IN'
p92
aS'DT'
p93
aS'NN'
p94
aS'IN'
p95
aS'NNP'
p96
aS'CC'
p97
aS'NNP'
p98
asS'ner_seq'
p99
(lp100
S'O'
aS'B-ORG'
p101
aS'I-ORG'
p102
aS'I-ORG'
p103
aS'I-ORG'
p104
aS'E-ORG'
p105
aS'O'
aS'O'
aS'O'
aS'O'
aS'O'
aS'S-LOC'
p106
aS'O'
aS'S-LOC'
p107
assb.