ccopy_reg
_reconstructor
p1
(c__main__
KBproperty
p2
c__builtin__
object
p3
NtRp4
(dp5
S'comment'
p6
S'840840'
p7
sS'domain'
p8
S'Power Station '
p9
sS'instances_count'
p10
I636
sS'phrases'
p11
NsS'syn_hypo'
p12
S''
sS'label'
p13
S'generation units'
p14
sS'range'
p15
S'lang String '
p16
sS'uniq_subjs'
p17
S'636'
p18
sS'uniq_objs'
p19
I0
sS'prop_uri'
p20
S'http://dbpedia.org/ontology/generationUnits'
p21
sS'annotations'
p22
(dp23
S'bag_of_words'
p24
(lp25
S'Power'
p26
aS'Station'
p27
aS'generation'
p28
aS'units'
p29
aS'lang'
p30
aS'String'
p31
aS'840840'
p32
asS'chunk_seq'
p33
(lp34
S'B-NP'
p35
aS'I-NP'
p36
aS'I-NP'
p37
aS'I-NP'
p38
aS'I-NP'
p39
aS'E-NP'
p40
aS'O'
asS'dep_seq'
p41
(lp42
(lp43
S'nn'
p44
aS'4'
aS'1'
aa(lp45
S'nn'
p46
aS'4'
aS'2'
aa(lp47
S'nn'
p48
aS'4'
aS'3'
aa(lp49
S'root'
p50
aS'0'
aS'4'
aa(lp51
S'amod'
p52
aS'6'
aS'5'
aa(lp53
S'dep'
p54
aS'4'
aS'6'
aa(lp55
S'num'
p56
aS'6'
aS'7'
aasS'srls'
p57
(lp58
sS'pos_seq'
p59
(lp60
S'NNP'
p61
aS'NNP'
p62
aS'NN'
p63
aS'NNS'
p64
aS'VBG'
p65
aS'NN'
p66
aS'CD'
p67
asS'ner_seq'
p68
(lp69
S'B-ORG'
p70
aS'E-ORG'
p71
aS'O'
aS'O'
aS'B-PER'
p72
aS'E-PER'
p73
aS'O'
assb.