ccopy_reg
_reconstructor
p1
(c__main__
KBproperty
p2
c__builtin__
object
p3
NtRp4
(dp5
S'comment'
p6
S'number of items in collection'
p7
sS'domain'
p8
S'Library '
p9
sS'instances_count'
p10
I0
sS'phrases'
p11
NsS'syn_hypo'
p12
S''
sS'label'
p13
g7
sS'range'
p14
S'integer '
p15
sS'uniq_subjs'
p16
S'0'
sS'uniq_objs'
p17
I0
sS'prop_uri'
p18
S'http://dbpedia.org/ontology/numberOfCollectionItems'
p19
sS'annotations'
p20
(dp21
S'bag_of_words'
p22
(lp23
S'Library'
p24
aS'number'
p25
aS'Of'
p26
aS'Collection'
p27
aS'Items'
p28
aS'integer'
p29
aS'number'
p30
aS'of'
p31
aS'items'
p32
aS'in'
p33
aS'collection'
p34
asS'chunk_seq'
p35
(lp36
S'B-NP'
p37
aS'E-NP'
p38
aS'S-PP'
p39
aS'B-NP'
p40
aS'E-NP'
p41
aS'S-VP'
p42
aS'S-NP'
p43
aS'S-PP'
p44
aS'S-NP'
p45
aS'S-PP'
p46
aS'S-NP'
p47
asS'dep_seq'
p48
(lp49
(lp50
S'nn'
p51
aS'2'
aS'1'
aa(lp52
S'nsubj'
p53
aS'6'
aS'2'
aa(lp54
S'nn'
p55
aS'5'
aS'4'
aa(lp56
S'prep_of'
p57
aS'2'
aS'5'
aa(lp58
S'root'
p59
aS'0'
aS'6'
aa(lp60
S'dobj'
p61
aS'6'
aS'7'
aa(lp62
S'prep_of'
p63
aS'7'
aS'9'
aa(lp64
S'prep_in'
p65
aS'9'
aS'11'
p66
aasS'srls'
p67
(lp68
(dp69
S'A1'
p70
S'number of items'
p71
sS'A0'
p72
S'Library number Of Collection Items'
p73
sS'AM-LOC'
p74
S'in collection'
p75
sS'V'
g29
sasS'pos_seq'
p76
(lp77
S'NN'
p78
aS'NN'
p79
aS'IN'
p80
aS'NN'
p81
aS'NNS'
p82
aS'VBP'
p83
aS'NN'
p84
aS'IN'
p85
aS'NNS'
p86
aS'IN'
p87
aS'NN'
p88
asS'ner_seq'
p89
(lp90
S'O'
aS'O'
aS'B-MISC'
p91
aS'E-MISC'
p92
aS'O'
aS'O'
aS'O'
aS'O'
aS'O'
aS'O'
aS'O'
assb.