ccopy_reg
_reconstructor
p1
(c__main__
KBproperty
p2
c__builtin__
object
p3
NtRp4
(dp5
S'comment'
p6
S'7267772232'
p7
sS'domain'
p8
S'Person '
p9
sS'instances_count'
p10
I72304
sS'phrases'
p11
NsS'syn_hypo'
p12
S''
sS'label'
p13
S'birth name'
p14
sS'range'
p15
S'lang String '
p16
sS'uniq_subjs'
p17
S'72304'
p18
sS'uniq_objs'
p19
I0
sS'prop_uri'
p20
S'http://dbpedia.org/ontology/birthName'
p21
sS'annotations'
p22
(dp23
S'bag_of_words'
p24
(lp25
S'Person'
p26
aS'birth'
p27
aS'name'
p28
aS'lang'
p29
aS'String'
p30
aS'7267772232'
p31
asS'chunk_seq'
p32
(lp33
S'B-NP'
p34
aS'I-NP'
p35
aS'I-NP'
p36
aS'I-NP'
p37
aS'I-NP'
p38
aS'E-NP'
p39
asS'dep_seq'
p40
(lp41
(lp42
S'nn'
p43
aS'6'
aS'1'
aa(lp44
S'nn'
p45
aS'6'
aS'2'
aa(lp46
S'nn'
p47
aS'6'
aS'3'
aa(lp48
S'amod'
p49
aS'6'
aS'4'
aa(lp50
S'nn'
p51
aS'6'
aS'5'
aa(lp52
S'root'
p53
aS'0'
aS'6'
aasS'srls'
p54
(lp55
(dp56
S'A1'
p57
S'Person birth name  String 7267772232'
p58
sS'V'
g29
sasS'pos_seq'
p59
(lp60
S'NN'
p61
aS'NN'
p62
aS'NN'
p63
aS'VBG'
p64
aS'NN'
p65
aS'NN'
p66
asS'ner_seq'
p67
(lp68
S'O'
aS'O'
aS'O'
aS'B-PER'
p69
aS'E-PER'
p70
aS'O'
assb.