ccopy_reg
_reconstructor
p1
(c__main__
KBproperty
p2
c__builtin__
object
p3
NtRp4
(dp5
S'comment'
p6
S'Also called "floruit". Use this if the active years are in one field that can\\\'t be split. Else use activeYearsStartYear and activeYearsEndYear239233'
p7
sS'domain'
p8
S'Person '
p9
sS'instances_count'
p10
I125
sS'phrases'
p11
NsS'syn_hypo'
p12
S''
sS'label'
p13
S'active years'
p14
sS'range'
p15
S'string '
p16
sS'uniq_subjs'
p17
S'125'
p18
sS'uniq_objs'
p19
I0
sS'prop_uri'
p20
S'http://dbpedia.org/ontology/activeYears'
p21
sS'annotations'
p22
(dp23
S'bag_of_words'
p24
(lp25
S'Person'
p26
aS'active'
p27
aS'years'
p28
aS'string'
p29
aS'Also'
p30
aS'called'
p31
aS'"'
aS'floruit'
p32
aS'"'
aS'.'
aS'Use'
p33
aS'this'
p34
aS'if'
p35
aS'the'
p36
aS'active'
p37
aS'years'
p38
aS'are'
p39
aS'in'
p40
aS'one'
p41
aS'field'
p42
aS'that'
p43
aS'can'
p44
aS'\\'
aS"'t"
p45
aS'be'
p46
aS'split'
p47
aS'.'
aS'Else'
p48
aS'use'
p49
aS'activeYearsStartYear'
p50
aS'and'
p51
aS'activeYearsEndYear239233'
p52
asS'chunk_seq'
p53
(lp54
S'B-NP'
p55
aS'I-NP'
p56
aS'I-NP'
p57
aS'E-NP'
p58
aS'S-ADVP'
p59
aS'S-VP'
p60
aS'B-NP'
p61
aS'I-NP'
p62
aS'E-NP'
p63
aS'O'
aS'S-VP'
p64
aS'S-NP'
p65
aS'S-SBAR'
p66
aS'B-NP'
p67
aS'I-NP'
p68
aS'E-NP'
p69
aS'S-VP'
p70
aS'S-PP'
p71
aS'B-NP'
p72
aS'E-NP'
p73
aS'S-NP'
p74
aS'B-VP'
p75
aS'I-VP'
p76
aS'I-VP'
p77
aS'I-VP'
p78
aS'E-VP'
p79
aS'O'
aS'O'
aS'S-VP'
p80
aS'B-NP'
p81
aS'I-NP'
p82
aS'E-NP'
p83
asS'dep_seq'
p84
(lp85
(lp86
S'nn'
p87
aS'4'
aS'1'
aa(lp88
S'amod'
p89
aS'4'
aS'2'
aa(lp90
S'nn'
p91
aS'4'
aS'3'
aa(lp92
S'nsubj'
p93
aS'11'
p94
aS'4'
aa(lp95
S'advmod'
p96
aS'4'
aS'5'
aa(lp97
S'partmod'
p98
aS'4'
aS'6'
aa(lp99
S'amod'
p100
aS'9'
aS'7'
aa(lp101
S'amod'
p102
aS'9'
aS'8'
aa(lp103
S'dep'
p104
aS'6'
aS'9'
aa(lp105
S'root'
p106
aS'0'
aS'11'
p107
aa(lp108
S'dobj'
p109
aS'11'
p110
aS'12'
p111
aa(lp112
S'mark'
p113
aS'17'
p114
aS'13'
p115
aa(lp116
S'det'
p117
aS'16'
p118
aS'14'
p119
aa(lp120
S'amod'
p121
aS'16'
p122
aS'15'
p123
aa(lp124
S'nsubj'
p125
aS'17'
p126
aS'16'
p127
aa(lp128
S'advcl'
p129
aS'11'
p130
aS'17'
p131
aa(lp132
S'num'
p133
aS'20'
p134
aS'19'
p135
aa(lp136
S'prep_in'
p137
aS'17'
p138
aS'20'
p139
aa(lp140
S'nsubj'
p141
aS'23'
p142
aS'21'
p143
aa(lp144
S'aux'
p145
aS'23'
p146
aS'22'
p147
aa(lp148
S'ccomp'
p149
aS'17'
p150
aS'23'
p151
aa(lp152
S'nsubjpass'
p153
aS'26'
p154
aS'24'
p155
aa(lp156
S'auxpass'
p157
aS'26'
p158
aS'25'
p159
aa(lp160
S'ccomp'
p161
aS'23'
p162
aS'26'
p163
aa(lp164
S'dep'
p165
aS'29'
p166
aS'28'
p167
aa(lp168
S'parataxis'
p169
aS'11'
p170
aS'29'
p171
aa(lp172
S'dobj'
p173
aS'29'
p174
aS'30'
p175
aa(lp176
S'conj_and'
p177
aS'30'
p178
aS'32'
p179
aasS'srls'
p180
(lp181
(dp182
S'A1'
p183
S"Use this if the active years are in one field that can \\ 't be split . Else use activeYearsStartYear and activeYearsEndYear239233"
p184
sS'A0'
p185
S'Person active years string'
p186
sS'AM-DIS'
p187
g30
sS'A2'
p188
S'" floruit "'
p189
sS'V'
g31
sa(dp190
S'A1'
p191
g34
sS'A0'
p192
S'Person active years string'
p193
sS'A2'
p194
S"if the active years are in one field that can \\ 't be split . Else use activeYearsStartYear and activeYearsEndYear239233"
p195
sS'V'
g33
sa(dp196
S'A1'
p197
S"one field 't"
p198
sS'V'
g47
sS'R-A1'
p199
g43
sS'AM-MOD'
p200
g44
sa(dp201
S'A1'
p202
S'activeYearsStartYear and activeYearsEndYear239233'
p203
sS'A0'
p204
g48
sS'V'
g49
sasS'pos_seq'
p205
(lp206
S'NN'
p207
aS'JJ'
p208
aS'NNS'
p209
aS'NN'
p210
aS'RB'
p211
aS'VBD'
p212
aS'JJ'
p213
aS'JJ'
p214
aS'NN'
p215
aS'.'
aS'VB'
p216
aS'DT'
p217
aS'IN'
p218
aS'DT'
p219
aS'JJ'
p220
aS'NNS'
p221
aS'VBP'
p222
aS'IN'
p223
aS'CD'
p224
aS'NN'
p225
aS'WDT'
p226
aS'MD'
p227
aS'VB'
p228
aS'NN'
p229
aS'VB'
p230
aS'VBN'
p231
aS'.'
aS'JJ'
p232
aS'VBP'
p233
aS'JJ'
p234
aS'CC'
p235
aS'NN'
p236
asS'ner_seq'
p237
(lp238
S'O'
aS'O'
aS'O'
aS'O'
aS'O'
aS'O'
aS'O'
aS'O'
aS'O'
aS'O'
aS'O'
aS'O'
aS'O'
aS'O'
aS'O'
aS'O'
aS'O'
aS'O'
aS'O'
aS'O'
aS'O'
aS'O'
aS'O'
aS'O'
aS'O'
aS'O'
aS'O'
aS'O'
aS'O'
aS'O'
aS'O'
aS'S-LOC'
p239
assb.