ccopy_reg
_reconstructor
p1
(c__main__
KBproperty
p2
c__builtin__
object
p3
NtRp4
(dp5
S'comment'
p6
S'Reserved for DBpedia.00'
p7
sS'domain'
p8
S''
sS'instances_count'
p9
I0
sS'phrases'
p10
NsS'syn_hypo'
p11
S''
sS'label'
p12
S'Wiki page in degree'
p13
sS'range'
p14
S'non Negative Integer '
p15
sS'uniq_subjs'
p16
S'0'
sS'uniq_objs'
p17
I0
sS'prop_uri'
p18
S'http://dbpedia.org/ontology/wikiPageInDegree'
p19
sS'annotations'
p20
(dp21
S'bag_of_words'
p22
(lp23
S'Wiki'
p24
aS'page'
p25
aS'in'
p26
aS'degree'
p27
aS'non'
p28
aS'Negative'
p29
aS'Integer'
p30
aS'Reserved'
p31
aS'for'
p32
aS'DBpedia.00'
p33
asS'chunk_seq'
p34
(lp35
S'B-NP'
p36
aS'E-NP'
p37
aS'S-PP'
p38
aS'B-NP'
p39
aS'I-NP'
p40
aS'I-NP'
p41
aS'E-NP'
p42
aS'S-VP'
p43
aS'S-PP'
p44
aS'S-NP'
p45
asS'dep_seq'
p46
(lp47
(lp48
S'nn'
p49
aS'2'
aS'1'
aa(lp50
S'nsubj'
p51
aS'8'
aS'2'
aa(lp52
S'nn'
p53
aS'7'
aS'4'
aa(lp54
S'amod'
p55
aS'7'
aS'5'
aa(lp56
S'amod'
p57
aS'7'
aS'6'
aa(lp58
S'prep_in'
p59
aS'2'
aS'7'
aa(lp60
S'root'
p61
aS'0'
aS'8'
aa(lp62
S'prep_for'
p63
aS'8'
aS'10'
p64
aasS'srls'
p65
(lp66
(dp67
S'A1'
p68
S'Wiki page in degree non Negative Integer'
p69
sS'A2'
p70
S'for DBpedia.00'
p71
sS'V'
g31
sasS'pos_seq'
p72
(lp73
S'NN'
p74
aS'NN'
p75
aS'IN'
p76
aS'NN'
p77
aS'JJ'
p78
aS'JJ'
p79
aS'NN'
p80
aS'VBN'
p81
aS'IN'
p82
aS'NNP'
p83
asS'ner_seq'
p84
(lp85
S'O'
aS'O'
aS'O'
aS'O'
aS'O'
aS'O'
aS'O'
aS'O'
aS'O'
aS'S-PER'
p86
assb.