ccopy_reg
_reconstructor
p1
(c__main__
KBproperty
p2
c__builtin__
object
p3
NtRp4
(dp5
S'comment'
p6
S'Original use of the architectural structure if it is currently being used as anything other than its original purpose.00'
p7
sS'domain'
p8
S'Architectural Structure '
p9
sS'instances_count'
p10
I0
sS'phrases'
p11
NsS'syn_hypo'
p12
S''
sS'label'
p13
S'originally used for'
p14
sS'range'
p15
S'string '
p16
sS'uniq_subjs'
p17
S'0'
sS'uniq_objs'
p18
I0
sS'prop_uri'
p19
S'http://dbpedia.org/ontology/originallyUsedFor'
p20
sS'annotations'
p21
(dp22
S'bag_of_words'
p23
(lp24
S'Architectural'
p25
aS'Structure'
p26
aS'originally'
p27
aS'used'
p28
aS'for'
p29
aS'string'
p30
aS'Original'
p31
aS'use'
p32
aS'of'
p33
aS'the'
p34
aS'architectural'
p35
aS'structure'
p36
aS'if'
p37
aS'it'
p38
aS'is'
p39
aS'currently'
p40
aS'being'
p41
aS'used'
p42
aS'as'
p43
aS'anything'
p44
aS'other'
p45
aS'than'
p46
aS'its'
p47
aS'original'
p48
aS'purpose.00'
p49
asS'chunk_seq'
p50
(lp51
S'B-NP'
p52
aS'E-NP'
p53
aS'B-VP'
p54
aS'E-VP'
p55
aS'S-PP'
p56
aS'B-NP'
p57
aS'I-NP'
p58
aS'E-NP'
p59
aS'S-PP'
p60
aS'B-NP'
p61
aS'I-NP'
p62
aS'E-NP'
p63
aS'S-SBAR'
p64
aS'S-NP'
p65
aS'B-VP'
p66
aS'I-VP'
p67
aS'I-VP'
p68
aS'E-VP'
p69
aS'S-PP'
p70
aS'S-NP'
p71
aS'S-ADJP'
p72
aS'S-PP'
p73
aS'B-NP'
p74
aS'I-NP'
p75
aS'E-NP'
p76
asS'dep_seq'
p77
(lp78
(lp79
S'nn'
p80
aS'2'
aS'1'
aa(lp81
S'root'
p82
aS'0'
aS'2'
aa(lp83
S'advmod'
p84
aS'4'
aS'3'
aa(lp85
S'partmod'
p86
aS'2'
aS'4'
aa(lp87
S'nn'
p88
aS'8'
aS'6'
aa(lp89
S'amod'
p90
aS'8'
aS'7'
aa(lp91
S'prep_for'
p92
aS'4'
aS'8'
aa(lp93
S'det'
p94
aS'12'
p95
aS'10'
p96
aa(lp97
S'amod'
p98
aS'12'
p99
aS'11'
p100
aa(lp101
S'prep_of'
p102
aS'8'
aS'12'
p103
aa(lp104
S'mark'
p105
aS'18'
p106
aS'13'
p107
aa(lp108
S'nsubjpass'
p109
aS'18'
p110
aS'14'
p111
aa(lp112
S'aux'
p113
aS'18'
p114
aS'15'
p115
aa(lp116
S'advmod'
p117
aS'18'
p118
aS'16'
p119
aa(lp120
S'auxpass'
p121
aS'18'
p122
aS'17'
p123
aa(lp124
S'dep'
p125
aS'2'
aS'18'
p126
aa(lp127
S'acomp'
p128
aS'18'
p129
aS'19'
p130
aa(lp131
S'pobj'
p132
aS'19'
p133
aS'20'
p134
aa(lp135
S'amod'
p136
aS'20'
p137
aS'21'
p138
aa(lp139
S'poss'
p140
aS'25'
p141
aS'23'
p142
aa(lp143
S'amod'
p144
aS'25'
p145
aS'24'
p146
aa(lp147
S'prep_than'
p148
aS'19'
p149
aS'25'
p150
aasS'srls'
p151
(lp152
(dp153
S'A1'
p154
S'for string Original use of the architectural structure if it is currently being used as anything other than its original purpose.00'
p155
sS'A0'
p156
S'Architectural Structure'
p157
sS'AM-TMP'
p158
g27
sS'V'
g28
sa(dp159
S'A1'
p160
g38
sS'A2'
p161
S'as anything other than its original purpose.00'
p162
sS'AM-TMP'
p163
g40
sS'V'
g42
sasS'pos_seq'
p164
(lp165
S'NNP'
p166
aS'NNP'
p167
aS'RB'
p168
aS'VBN'
p169
aS'IN'
p170
aS'NN'
p171
aS'JJ'
p172
aS'NN'
p173
aS'IN'
p174
aS'DT'
p175
aS'JJ'
p176
aS'NN'
p177
aS'IN'
p178
aS'PRP'
p179
aS'VBZ'
p180
aS'RB'
p181
aS'VBG'
p182
aS'VBN'
p183
aS'IN'
p184
aS'NN'
p185
aS'JJ'
p186
aS'IN'
p187
aS'PRP$'
p188
aS'JJ'
p189
aS'NN'
p190
asS'ner_seq'
p191
(lp192
S'O'
aS'O'
aS'O'
aS'O'
aS'O'
aS'O'
aS'O'
aS'O'
aS'O'
aS'O'
aS'O'
aS'O'
aS'O'
aS'O'
aS'O'
aS'O'
aS'O'
aS'O'
aS'O'
aS'O'
aS'O'
aS'O'
aS'O'
aS'O'
aS'O'
assb.