ccopy_reg
_reconstructor
p1
(c__main__
KBproperty
p2
c__builtin__
object
p3
NtRp4
(dp5
S'comment'
p6
S'head of government of Ireland52'
p7
sS'domain'
p8
S''
sS'instances_count'
p9
I4
sS'phrases'
p10
NsS'syn_hypo'
p11
V
sS'label'
p12
S'taoiseach'
p13
sS'range'
p14
S'Person '
p15
sS'uniq_subjs'
p16
S'4'
sS'uniq_objs'
p17
I0
sS'prop_uri'
p18
S'http://dbpedia.org/ontology/taoiseach'
p19
sS'annotations'
p20
(dp21
S'bag_of_words'
p22
(lp23
S'taoiseach'
p24
aS'Person'
p25
aS'head'
p26
aS'of'
p27
aS'government'
p28
aS'of'
p29
aS'Ireland52'
p30
asS'chunk_seq'
p31
(lp32
S'B-NP'
p33
aS'I-NP'
p34
aS'E-NP'
p35
aS'S-PP'
p36
aS'S-NP'
p37
aS'S-PP'
p38
aS'S-NP'
p39
asS'dep_seq'
p40
(lp41
(lp42
S'nn'
p43
aS'3'
aS'1'
aa(lp44
S'nn'
p45
aS'3'
aS'2'
aa(lp46
S'root'
p47
aS'0'
aS'3'
aa(lp48
S'prep_of'
p49
aS'3'
aS'5'
aa(lp50
S'prep_of'
p51
aS'5'
aS'7'
aasS'srls'
p52
(lp53
sS'pos_seq'
p54
(lp55
S'NN'
p56
aS'NN'
p57
aS'NN'
p58
aS'IN'
p59
aS'NN'
p60
aS'IN'
p61
aS'NNP'
p62
asS'ner_seq'
p63
(lp64
S'O'
aS'O'
aS'O'
aS'O'
aS'O'
aS'O'
aS'S-LOC'
p65
assb.