ccopy_reg
_reconstructor
p1
(c__main__
KBproperty
p2
c__builtin__
object
p3
NtRp4
(dp5
S'comment'
p6
S'Union List of Artist Names id Getty Research Institute. ULAN has 293000 names and other information about artists. Names in ULAN may include given names pseudonyms variant spellings names in multiple languages and names that have changed over time e.g. married names.\\nhttp://vocab.getty.edu/ulan/$199'
p7
sS'domain'
p8
S''
sS'instances_count'
p9
I9
sS'phrases'
p10
NsS'syn_hypo'
p11
S''
sS'label'
p12
S'ULAN id'
p13
sS'range'
p14
S'string '
p15
sS'uniq_subjs'
p16
S'9'
sS'uniq_objs'
p17
I0
sS'prop_uri'
p18
S'http://dbpedia.org/ontology/ulanId'
p19
sS'annotations'
p20
(dp21
S'bag_of_words'
p22
(lp23
S'ULAN'
p24
aS'id'
p25
aS'string'
p26
aS'Union'
p27
aS'List'
p28
aS'of'
p29
aS'Artist'
p30
aS'Names'
p31
aS'id'
p32
aS'Getty'
p33
aS'Research'
p34
aS'Institute'
p35
aS'.'
aS'ULAN'
p36
aS'has'
p37
aS'293000'
p38
aS'names'
p39
aS'and'
p40
aS'other'
p41
aS'information'
p42
aS'about'
p43
aS'artists'
p44
aS'.'
aS'Names'
p45
aS'in'
p46
aS'ULAN'
p47
aS'may'
p48
aS'include'
p49
aS'given'
p50
aS'names'
p51
aS'pseudonyms'
p52
aS'variant'
p53
aS'spellings'
p54
aS'names'
p55
aS'in'
p56
aS'multiple'
p57
aS'languages'
p58
aS'and'
p59
aS'names'
p60
aS'that'
p61
aS'have'
p62
aS'changed'
p63
aS'over'
p64
aS'time'
p65
aS'e.g.'
p66
aS'married'
p67
aS'names'
p68
aS'.'
aS'\\'
aS'nhttp'
p69
aS':'
aS'//'
p70
aS'vocab'
p71
aS'.'
aS'getty'
p72
aS'.'
aS'edu'
p73
aS'/'
aS'ulan'
p74
aS'/'
aS'$'
aS'199'
p75
asS'chunk_seq'
p76
(lp77
S'B-NP'
p78
aS'I-NP'
p79
aS'I-NP'
p80
aS'I-NP'
p81
aS'E-NP'
p82
aS'S-PP'
p83
aS'B-NP'
p84
aS'I-NP'
p85
aS'I-NP'
p86
aS'I-NP'
p87
aS'I-NP'
p88
aS'E-NP'
p89
aS'O'
aS'S-NP'
p90
aS'S-VP'
p91
aS'B-NP'
p92
aS'E-NP'
p93
aS'O'
aS'B-NP'
p94
aS'E-NP'
p95
aS'S-PP'
p96
aS'S-NP'
p97
aS'O'
aS'S-NP'
p98
aS'S-PP'
p99
aS'S-NP'
p100
aS'B-VP'
p101
aS'I-VP'
p102
aS'E-VP'
p103
aS'B-NP'
p104
aS'I-NP'
p105
aS'I-NP'
p106
aS'E-NP'
p107
aS'S-VP'
p108
aS'S-PP'
p109
aS'B-NP'
p110
aS'I-NP'
p111
aS'I-NP'
p112
aS'E-NP'
p113
aS'S-NP'
p114
aS'B-VP'
p115
aS'E-VP'
p116
aS'S-PP'
p117
aS'S-NP'
p118
aS'S-ADVP'
p119
aS'B-NP'
p120
aS'E-NP'
p121
aS'O'
aS'O'
aS'O'
aS'O'
aS'B-NP'
p122
aS'I-NP'
p123
aS'I-NP'
p124
aS'E-NP'
p125
aS'O'
aS'S-NP'
p126
aS'O'
aS'O'
aS'O'
aS'O'
aS'O'
asS'dep_seq'
p127
(lp128
(lp129
S'nn'
p130
aS'5'
aS'1'
aa(lp131
S'nn'
p132
aS'5'
aS'2'
aa(lp133
S'nn'
p134
aS'5'
aS'3'
aa(lp135
S'nn'
p136
aS'5'
aS'4'
aa(lp137
S'nsubj'
p138
aS'28'
p139
aS'5'
aa(lp140
S'nn'
p141
aS'14'
p142
aS'7'
aa(lp143
S'nn'
p144
aS'14'
p145
aS'8'
aa(lp146
S'nn'
p147
aS'14'
p148
aS'9'
aa(lp149
S'nn'
p150
aS'14'
p151
aS'10'
p152
aa(lp153
S'nn'
p154
aS'14'
p155
aS'11'
p156
aa(lp157
S'nn'
p158
aS'14'
p159
aS'12'
p160
aa(lp161
S'prep_of'
p162
aS'5'
aS'14'
p163
aa(lp164
S'dep'
p165
aS'28'
p166
aS'15'
p167
aa(lp168
S'num'
p169
aS'17'
p170
aS'16'
p171
aa(lp172
S'nsubj'
p173
aS'28'
p174
aS'17'
p175
aa(lp176
S'amod'
p177
aS'20'
p178
aS'19'
p179
aa(lp180
S'conj_and'
p181
aS'28'
p182
aS'20'
p183
aa(lp184
S'nsubj'
p185
aS'28'
p186
aS'20'
p187
aa(lp188
S'dep'
p189
aS'28'
p190
aS'21'
p191
aa(lp192
S'nsubj'
p193
aS'28'
p194
aS'22'
p195
aa(lp196
S'nsubj'
p197
aS'28'
p198
aS'24'
p199
aa(lp200
S'prep_in'
p201
aS'24'
p202
aS'26'
p203
aa(lp204
S'aux'
p205
aS'28'
p206
aS'27'
p207
aa(lp208
S'root'
p209
aS'0'
aS'28'
p210
aa(lp211
S'prep'
p212
aS'28'
p213
aS'29'
p214
aa(lp215
S'nn'
p216
aS'34'
p217
aS'30'
p218
aa(lp219
S'nn'
p220
aS'34'
p221
aS'31'
p222
aa(lp223
S'nn'
p224
aS'34'
p225
aS'32'
p226
aa(lp227
S'nn'
p228
aS'34'
p229
aS'33'
p230
aa(lp231
S'dep'
p232
aS'29'
p233
aS'34'
p234
aa(lp235
S'amod'
p236
aS'37'
p237
aS'36'
p238
aa(lp239
S'prep_in'
p240
aS'34'
p241
aS'37'
p242
aa(lp243
S'conj_and'
p244
aS'37'
p245
aS'39'
p246
aa(lp247
S'nn'
p248
aS'37'
p249
aS'39'
p250
aa(lp251
S'nsubj'
p252
aS'42'
p253
aS'39'
p254
aa(lp255
S'aux'
p256
aS'42'
p257
aS'41'
p258
aa(lp259
S'rcmod'
p260
aS'39'
p261
aS'42'
p262
aa(lp263
S'nn'
p264
aS'47'
p265
aS'44'
p266
aa(lp267
S'advmod'
p268
aS'46'
p269
aS'45'
p270
aa(lp271
S'amod'
p272
aS'47'
p273
aS'46'
p274
aa(lp275
S'prep_over'
p276
aS'42'
p277
aS'47'
p278
aa(lp279
S'nn'
p280
aS'37'
p281
aS'49'
p282
aa(lp283
S'nn'
p284
aS'37'
p285
aS'50'
p286
aa(lp287
S'nn'
p288
aS'55'
p289
aS'52'
p290
aa(lp291
S'nn'
p292
aS'55'
p293
aS'53'
p294
aa(lp295
S'dep'
p296
aS'37'
p297
aS'55'
p298
aa(lp299
S'dep'
p300
aS'55'
p301
aS'57'
p302
aa(lp303
S'nn'
p304
aS'55'
p305
aS'58'
p306
aa(lp307
S'nn'
p308
aS'55'
p309
aS'59'
p310
aa(lp311
S'dep'
p312
aS'55'
p313
aS'60'
p314
aa(lp315
S'nn'
p316
aS'62'
p317
aS'61'
p318
aa(lp319
S'dep'
p320
aS'55'
p321
aS'62'
p322
aasS'srls'
p323
(lp324
(dp325
S'A1'
p326
S'293000 names and other information about artists . Names in ULAN may include given names pseudonyms variant spellings names in multiple languages and names that have changed over time e.g. married names . \\ nhttp : // vocab . getty . edu / ulan / $ 199'
p327
sS'A0'
p328
g36
sS'V'
g37
sa(dp329
S'A1'
p330
S'given names pseudonyms variant spellings names in multiple languages and names that have changed over time e.g. married names . \\ nhttp : // vocab . getty . edu / ulan / $ 199'
p331
sS'V'
g49
sS'A2'
p332
S'Names in ULAN'
p333
sS'AM-MOD'
p334
g48
sa(dp335
S'A1'
p336
S'names pseudonyms variant spellings names in multiple languages and names that have changed over time e.g. married names . \\ nhttp : // vocab . getty . edu / ulan / $ 199'
p337
sS'V'
g50
sa(dp338
S'A1'
p339
S'multiple languages and names  time e.g. married names . \\ nhttp : // vocab . getty . edu / ulan / $ 199'
p340
sS'R-A1'
p341
g61
sS'V'
S'changed over'
p342
sasS'pos_seq'
p343
(lp344
S'NNP'
p345
aS'NN'
p346
aS'NN'
p347
aS'NNP'
p348
aS'NNP'
p349
aS'IN'
p350
aS'NNP'
p351
aS'NNP'
p352
aS'NN'
p353
aS'NNP'
p354
aS'NNP'
p355
aS'NNP'
p356
aS'.'
aS'NNP'
p357
aS'VBZ'
p358
aS'CD'
p359
aS'NNS'
p360
aS'CC'
p361
aS'JJ'
p362
aS'NN'
p363
aS'IN'
p364
aS'NNS'
p365
aS'.'
aS'NNPS'
p366
aS'IN'
p367
aS'NNP'
p368
aS'MD'
p369
aS'VB'
p370
aS'VBN'
p371
aS'NNS'
p372
aS'NNS'
p373
aS'NN'
p374
aS'NNS'
p375
aS'NNS'
p376
aS'IN'
p377
aS'JJ'
p378
aS'NNS'
p379
aS'CC'
p380
aS'NNS'
p381
aS'WDT'
p382
aS'VBP'
p383
aS'VBN'
p384
aS'IN'
p385
aS'NN'
p386
aS'RB'
p387
aS'JJ'
p388
aS'NNS'
p389
aS'.'
aS'FW'
p390
aS'FW'
p391
aS'FW'
p392
aS'FW'
p393
aS'FW'
p394
aS'.'
aS'NN'
p395
aS'.'
aS'FW'
p396
aS'FW'
p397
aS'FW'
p398
aS'FW'
p399
aS'FW'
p400
aS'FW'
p401
asS'ner_seq'
p402
(lp403
S'S-ORG'
p404
aS'O'
aS'O'
aS'B-ORG'
p405
aS'I-ORG'
p406
aS'I-ORG'
p407
aS'I-ORG'
p408
aS'E-ORG'
p409
aS'O'
aS'B-ORG'
p410
aS'I-ORG'
p411
aS'E-ORG'
p412
aS'O'
aS'S-ORG'
p413
aS'O'
aS'O'
aS'O'
aS'O'
aS'O'
aS'O'
aS'O'
aS'O'
aS'O'
aS'S-MISC'
p414
aS'O'
aS'S-ORG'
p415
aS'O'
aS'O'
aS'O'
aS'O'
aS'O'
aS'O'
aS'O'
aS'O'
aS'O'
aS'O'
aS'O'
aS'O'
aS'O'
aS'O'
aS'O'
aS'O'
aS'O'
aS'O'
aS'O'
aS'O'
aS'O'
aS'O'
aS'O'
aS'O'
aS'O'
aS'O'
aS'O'
aS'O'
aS'O'
aS'O'
aS'O'
aS'O'
aS'O'
aS'O'
aS'O'
aS'O'
assb.