ccopy_reg
_reconstructor
p1
(c__main__
KBproperty
p2
c__builtin__
object
p3
NtRp4
(dp5
S'comment'
p6
S'The programming format describes the overall content broadcast on a radio or television station.2114616921'
p7
sS'domain'
p8
S'Broadcaster '
p9
sS'instances_count'
p10
I718
sS'phrases'
p11
NsS'syn_hypo'
p12
S''
sS'label'
p13
S'programme format'
p14
sS'range'
p15
S''
sS'uniq_subjs'
p16
S'718'
p17
sS'uniq_objs'
p18
I0
sS'prop_uri'
p19
S'http://dbpedia.org/ontology/programmeFormat'
p20
sS'annotations'
p21
(dp22
S'bag_of_words'
p23
(lp24
S'Broadcaster'
p25
aS'programme'
p26
aS'format'
p27
aS'The'
p28
aS'programming'
p29
aS'format'
p30
aS'describes'
p31
aS'the'
p32
aS'overall'
p33
aS'content'
p34
aS'broadcast'
p35
aS'on'
p36
aS'a'
aS'radio'
p37
aS'or'
p38
aS'television'
p39
aS'station.2114616921'
p40
asS'chunk_seq'
p41
(lp42
S'B-NP'
p43
aS'I-NP'
p44
aS'E-NP'
p45
aS'B-NP'
p46
aS'I-NP'
p47
aS'E-NP'
p48
aS'S-VP'
p49
aS'B-NP'
p50
aS'I-NP'
p51
aS'I-NP'
p52
aS'E-NP'
p53
aS'S-PP'
p54
aS'B-NP'
p55
aS'I-NP'
p56
aS'I-NP'
p57
aS'E-NP'
p58
aS'S-ADJP'
p59
asS'dep_seq'
p60
(lp61
(lp62
S'nn'
p63
aS'3'
aS'1'
aa(lp64
S'nn'
p65
aS'3'
aS'2'
aa(lp66
S'root'
p67
aS'0'
aS'3'
aa(lp68
S'det'
p69
aS'6'
aS'4'
aa(lp70
S'nn'
p71
aS'6'
aS'5'
aa(lp72
S'nsubj'
p73
aS'7'
aS'6'
aa(lp74
S'rcmod'
p75
aS'3'
aS'7'
aa(lp76
S'det'
p77
aS'11'
p78
aS'8'
aa(lp79
S'amod'
p80
aS'11'
p81
aS'9'
aa(lp82
S'amod'
p83
aS'11'
p84
aS'10'
p85
aa(lp86
S'dobj'
p87
aS'7'
aS'11'
p88
aa(lp89
S'det'
p90
aS'14'
p91
aS'13'
p92
aa(lp93
S'prep_on'
p94
aS'11'
p95
aS'14'
p96
aa(lp97
S'conj_or'
p98
aS'14'
p99
aS'16'
p100
aa(lp101
S'punct'
p102
aS'14'
p103
aS'17'
p104
aasS'srls'
p105
(lp106
(dp107
S'A0'
p108
S'Broadcaster programme format The programming format'
p109
sS'A2'
p110
S'the overall content broadcast on a radio or television station.2114616921'
p111
sS'V'
g31
sasS'pos_seq'
p112
(lp113
S'NN'
p114
aS'NN'
p115
aS'NN'
p116
aS'DT'
p117
aS'NN'
p118
aS'NN'
p119
aS'VBZ'
p120
aS'DT'
p121
aS'JJ'
p122
aS'JJ'
p123
aS'NN'
p124
aS'IN'
p125
aS'DT'
p126
aS'NN'
p127
aS'CC'
p128
aS'NN'
p129
aS'.'
asS'ner_seq'
p130
(lp131
S'O'
aS'O'
aS'O'
aS'O'
aS'O'
aS'O'
aS'O'
aS'O'
aS'O'
aS'O'
aS'O'
aS'O'
aS'O'
aS'O'
aS'O'
aS'O'
aS'O'
assb.