ccopy_reg
_reconstructor
p1
(c__main__
KBproperty
p2
c__builtin__
object
p3
NtRp4
(dp5
S'comment'
p6
S'The police detachment serving a UK place eg Wakefield -> "West Yorkshire Police"00'
p7
sS'domain'
p8
S'Populated Place '
p9
sS'instances_count'
p10
I0
sS'phrases'
p11
NsS'syn_hypo'
p12
S''
sS'label'
p13
S'police name'
p14
sS'range'
p15
S'string '
p16
sS'uniq_subjs'
p17
S'0'
sS'uniq_objs'
p18
I0
sS'prop_uri'
p19
S'http://dbpedia.org/ontology/policeName'
p20
sS'annotations'
p21
(dp22
S'bag_of_words'
p23
(lp24
S'Populated'
p25
aS'Place'
p26
aS'police'
p27
aS'name'
p28
aS'string'
p29
aS'The'
p30
aS'police'
p31
aS'detachment'
p32
aS'serving'
p33
aS'a'
aS'UK'
p34
aS'place'
p35
aS'eg'
p36
aS'Wakefield'
p37
aS'-'
aS'>'
aS'"'
aS'West'
p38
aS'Yorkshire'
p39
aS'Police'
p40
aS'"'
aS'00'
p41
asS'chunk_seq'
p42
(lp43
S'B-NP'
p44
aS'I-NP'
p45
aS'E-NP'
p46
aS'S-VP'
p47
aS'S-NP'
p48
aS'B-NP'
p49
aS'I-NP'
p50
aS'E-NP'
p51
aS'S-VP'
p52
aS'B-NP'
p53
aS'I-NP'
p54
aS'E-NP'
p55
aS'S-PP'
p56
aS'S-NP'
p57
aS'O'
aS'O'
aS'O'
aS'B-NP'
p58
aS'I-NP'
p59
aS'I-NP'
p60
aS'I-NP'
p61
aS'E-NP'
p62
asS'dep_seq'
p63
(lp64
(lp65
S'amod'
p66
aS'5'
aS'1'
aa(lp67
S'nn'
p68
aS'5'
aS'2'
aa(lp69
S'nn'
p70
aS'5'
aS'3'
aa(lp71
S'dep'
p72
aS'5'
aS'4'
aa(lp73
S'dep'
p74
aS'22'
p75
aS'5'
aa(lp76
S'det'
p77
aS'8'
aS'6'
aa(lp78
S'nn'
p79
aS'8'
aS'7'
aa(lp80
S'dep'
p81
aS'22'
p82
aS'8'
aa(lp83
S'partmod'
p84
aS'8'
aS'9'
aa(lp85
S'det'
p86
aS'12'
p87
aS'10'
p88
aa(lp89
S'nn'
p90
aS'12'
p91
aS'11'
p92
aa(lp93
S'dobj'
p94
aS'9'
aS'12'
p95
aa(lp96
S'dep'
p97
aS'22'
p98
aS'13'
p99
aa(lp100
S'dep'
p101
aS'22'
p102
aS'14'
p103
aa(lp104
S'dep'
p105
aS'22'
p106
aS'16'
p107
aa(lp108
S'dep'
p109
aS'22'
p110
aS'17'
p111
aa(lp112
S'nn'
p113
aS'20'
p114
aS'18'
p115
aa(lp116
S'nn'
p117
aS'20'
p118
aS'19'
p119
aa(lp120
S'dep'
p121
aS'22'
p122
aS'20'
p123
aa(lp124
S'punct'
p125
aS'22'
p126
aS'21'
p127
aa(lp128
S'root'
p129
aS'0'
aS'22'
p130
aasS'srls'
p131
(lp132
(dp133
S'A1'
p134
S'The police detachment'
p135
sS'A0'
p136
S'Populated Place police'
p137
sS'A2'
p138
S'string  serving a UK place'
p139
sS'V'
g28
sa(dp140
S'A0'
p141
S'Populated Place police name string The police detachment'
p142
sS'A2'
p143
S'a UK place'
p144
sS'AM-MNR'
p145
S'eg Wakefield - > " West Yorkshire Police " 00'
p146
sS'V'
g33
sasS'pos_seq'
p147
(lp148
S'JJ'
p149
aS'NN'
p150
aS'NNS'
p151
aS'VBP'
p152
aS'NN'
p153
aS'DT'
p154
aS'NN'
p155
aS'NN'
p156
aS'VBG'
p157
aS'DT'
p158
aS'NNP'
p159
aS'NN'
p160
aS'IN'
p161
aS'NNP'
p162
aS'FW'
p163
aS'FW'
p164
aS'FW'
p165
aS'NNP'
p166
aS'NNP'
p167
aS'NNP'
p168
aS'.'
aS'CD'
p169
asS'ner_seq'
p170
(lp171
S'O'
aS'O'
aS'O'
aS'O'
aS'O'
aS'O'
aS'O'
aS'O'
aS'O'
aS'O'
aS'S-LOC'
p172
aS'O'
aS'O'
aS'S-LOC'
p173
aS'O'
aS'O'
aS'O'
aS'B-MISC'
p174
aS'I-MISC'
p175
aS'E-MISC'
p176
aS'O'
aS'O'
assb.