ccopy_reg
_reconstructor
p1
(c__main__
KBproperty
p2
c__builtin__
object
p3
NtRp4
(dp5
S'comment'
p6
S'8206974522'
p7
sS'domain'
p8
S''
sS'instances_count'
p9
I4696
sS'phrases'
p10
NsS'syn_hypo'
p11
VAmerican_Labor_Partypartypolitical_partyAmerican_Partypartypolitical_partyKnow-Nothing_Partypartypolitical_partyAnti-Masonic_Partypartypolitical_partyBlack_Pantherspartypolitical_partyCommunist_Partypartypolitical_partyConservative_Partypartypolitical_partyConstitutional_Union_Partypartypolitical_partyDemocratic-Republican_Partypartypolitical_partyDemocratic_Partypartypolitical_partyFarmer-Labor_Partypartypolitical_partyFederalist_Partypartypolitical_partyAmerican_Federalist_Partypartypolitical_partyFederal_Partypartypolitical_partyFree_Soil_Partypartypolitical_partyGirondepartypolitical_partyGreen_Partypartypolitical_partyGreenback_Partypartypolitical_partyKuomintangpartypolitical_partyGuomindangpartypolitical_partylabor_partypartypolitical_partylabour_partypartypolitical_partyLiberal_Democrat_Partypartypolitical_partyLiberal_Partypartypolitical_partyLiberty_Partypartypolitical_partyMilitant_Tendencypartypolitical_partyNational_Socialist_German_Workers'_Partypartypolitical_partyNazi_Partypartypolitical_partyOppositionpartypolitical_partyPeople's_Partypartypolitical_partyPopulist_Partypartypolitical_partyProgressive_Partypartypolitical_partyBull_Moose_Partypartypolitical_partyProhibition_Partypartypolitical_partyRepublican_Partypartypolitical_partyGOPpartypolitical_partySocial_Democratic_Partypartypolitical_partySocialist_Labor_Partypartypolitical_partySocialist_Partypartypolitical_partyStates'_Rights_Democratic_Partypartypolitical_partyDixiecratspartypolitical_partythird_partypartypolitical_partywar_partypartypolitical_partyWhig_Party
p12
sS'label'
p13
S'party'
p14
sS'range'
p15
S'Political Party '
p16
sS'uniq_subjs'
p17
S'4696'
p18
sS'uniq_objs'
p19
I0
sS'prop_uri'
p20
S'http://dbpedia.org/ontology/party'
p21
sS'annotations'
p22
(dp23
S'bag_of_words'
p24
(lp25
S'party'
p26
aS'Political'
p27
aS'Party'
p28
aS'8206974522'
p29
asS'chunk_seq'
p30
(lp31
S'B-NP'
p32
aS'I-NP'
p33
aS'I-NP'
p34
aS'E-NP'
p35
asS'dep_seq'
p36
(lp37
(lp38
S'nn'
p39
aS'4'
aS'1'
aa(lp40
S'nn'
p41
aS'4'
aS'2'
aa(lp42
S'nn'
p43
aS'4'
aS'3'
aa(lp44
S'root'
p45
aS'0'
aS'4'
aasS'srls'
p46
(lp47
sS'pos_seq'
p48
(lp49
S'NN'
p50
aS'NNP'
p51
aS'NNP'
p52
aS'NN'
p53
asS'ner_seq'
p54
(lp55
S'O'
aS'B-ORG'
p56
aS'E-ORG'
p57
aS'O'
assb.