ccopy_reg
_reconstructor
p1
(c__main__
KBproperty
p2
c__builtin__
object
p3
NtRp4
(dp5
S'comment'
p6
S'A meaning of a word or phrase that is suggested or implied as opposed to a denotation or literal meaning.6038'
p7
sS'domain'
p8
S''
sS'instances_count'
p9
I60
sS'phrases'
p10
NsS'syn_hypo'
p11
V
sS'label'
p12
S'connotation'
p13
sS'range'
p14
S''
sS'uniq_subjs'
p15
S'37'
p16
sS'uniq_objs'
p17
I0
sS'prop_uri'
p18
S'http://dbpedia.org/ontology/connotation'
p19
sS'annotations'
p20
(dp21
S'bag_of_words'
p22
(lp23
S'connotation'
p24
aS'A'
aS'meaning'
p25
aS'of'
p26
aS'a'
aS'word'
p27
aS'or'
p28
aS'phrase'
p29
aS'that'
p30
aS'is'
p31
aS'suggested'
p32
aS'or'
p33
aS'implied'
p34
aS'as'
p35
aS'opposed'
p36
aS'to'
p37
aS'a'
aS'denotation'
p38
aS'or'
p39
aS'literal'
p40
aS'meaning.6038'
p41
asS'chunk_seq'
p42
(lp43
S'S-NP'
p44
aS'B-NP'
p45
aS'E-NP'
p46
aS'S-PP'
p47
aS'B-NP'
p48
aS'I-NP'
p49
aS'I-NP'
p50
aS'E-NP'
p51
aS'S-NP'
p52
aS'B-VP'
p53
aS'I-VP'
p54
aS'I-VP'
p55
aS'E-VP'
p56
aS'S-SBAR'
p57
aS'S-VP'
p58
aS'S-PP'
p59
aS'B-NP'
p60
aS'E-NP'
p61
aS'O'
aS'B-NP'
p62
aS'E-NP'
p63
asS'dep_seq'
p64
(lp65
(lp66
S'dep'
p67
aS'3'
aS'1'
aa(lp68
S'det'
p69
aS'3'
aS'2'
aa(lp70
S'root'
p71
aS'0'
aS'3'
aa(lp72
S'det'
p73
aS'6'
aS'5'
aa(lp74
S'prep_of'
p75
aS'3'
aS'6'
aa(lp76
S'nsubjpass'
p77
aS'11'
p78
aS'6'
aa(lp79
S'conj_or'
p80
aS'6'
aS'8'
aa(lp81
S'auxpass'
p82
aS'11'
p83
aS'10'
p84
aa(lp85
S'rcmod'
p86
aS'6'
aS'11'
p87
aa(lp88
S'conj_or'
p89
aS'11'
p90
aS'13'
p91
aa(lp92
S'mark'
p93
aS'15'
p94
aS'14'
p95
aa(lp96
S'advcl'
p97
aS'11'
p98
aS'15'
p99
aa(lp100
S'det'
p101
aS'18'
p102
aS'17'
p103
aa(lp104
S'prep_to'
p105
aS'15'
p106
aS'18'
p107
aa(lp108
S'amod'
p109
aS'21'
p110
aS'20'
p111
aa(lp112
S'conj_or'
p113
aS'18'
p114
aS'21'
p115
aasS'srls'
p116
(lp117
(dp118
S'A1'
p119
S'a word or phrase'
p120
sS'R-A1'
p121
g30
sS'AM-MNR'
p122
S'as opposed to a denotation or literal meaning.6038'
p123
sS'V'
g32
sa(dp124
S'A1'
p125
S'connotation A meaning of a word or phrase  as opposed to a denotation or literal meaning.6038'
p126
sS'R-A1'
p127
g30
sS'V'
g34
sa(dp128
S'A1'
p129
S'to a denotation or literal meaning.6038'
p130
sS'V'
g36
sasS'pos_seq'
p131
(lp132
S'NN'
p133
aS'DT'
p134
aS'NN'
p135
aS'IN'
p136
aS'DT'
p137
aS'NN'
p138
aS'CC'
p139
aS'NN'
p140
aS'WDT'
p141
aS'VBZ'
p142
aS'VBN'
p143
aS'CC'
p144
aS'VBN'
p145
aS'IN'
p146
aS'VBN'
p147
aS'TO'
p148
aS'DT'
p149
aS'NN'
p150
aS'CC'
p151
aS'JJ'
p152
aS'NN'
p153
asS'ner_seq'
p154
(lp155
S'O'
aS'O'
aS'O'
aS'O'
aS'O'
aS'O'
aS'O'
aS'O'
aS'O'
aS'O'
aS'O'
aS'O'
aS'O'
aS'O'
aS'O'
aS'O'
aS'O'
aS'O'
aS'O'
aS'O'
aS'O'
assb.