ccopy_reg
_reconstructor
p1
(c__main__
KBproperty
p2
c__builtin__
object
p3
NtRp4
(dp5
S'comment'
p6
S'00'
p7
sS'domain'
p8
S'Space Mission '
p9
sS'instances_count'
p10
I0
sS'phrases'
p11
NsS'syn_hypo'
p12
S''
sS'label'
p13
S'CMP EVA duration s'
p14
sS'range'
p15
S'double '
p16
sS'uniq_subjs'
p17
S'0'
sS'uniq_objs'
p18
I0
sS'prop_uri'
p19
S'http://dbpedia.org/ontology/cmpEvaDuration'
p20
sS'annotations'
p21
(dp22
S'bag_of_words'
p23
(lp24
S'Space'
p25
aS'Mission'
p26
aS'CMP'
p27
aS'EVA'
p28
aS'duration'
p29
aS's'
aS'double'
p30
aS'00'
p31
asS'chunk_seq'
p32
(lp33
S'B-NP'
p34
aS'E-NP'
p35
aS'B-NP'
p36
aS'E-NP'
p37
aS'S-VP'
p38
aS'S-NP'
p39
aS'B-NP'
p40
aS'E-NP'
p41
asS'dep_seq'
p42
(lp43
(lp44
S'nn'
p45
aS'4'
aS'1'
aa(lp46
S'nn'
p47
aS'4'
aS'2'
aa(lp48
S'nn'
p49
aS'4'
aS'3'
aa(lp50
S'nsubj'
p51
aS'5'
aS'4'
aa(lp52
S'root'
p53
aS'0'
aS'5'
aa(lp54
S'dobj'
p55
aS'5'
aS'6'
aa(lp56
S'advmod'
p57
aS'6'
aS'7'
aa(lp58
S'num'
p59
aS'6'
aS'8'
aasS'srls'
p60
(lp61
(dp62
S'A1'
p63
S'Space Mission CMP EVA  s double 00'
p64
sS'V'
g29
sasS'pos_seq'
p65
(lp66
S'NNP'
p67
aS'NNP'
p68
aS'NNP'
p69
aS'NNP'
p70
aS'VBP'
p71
aS'PRP'
p72
aS'RB'
p73
aS'CD'
p74
asS'ner_seq'
p75
(lp76
S'B-ORG'
p77
aS'I-ORG'
p78
aS'I-ORG'
p79
aS'E-ORG'
p80
aS'O'
aS'O'
aS'O'
aS'O'
assb.