ccopy_reg
_reconstructor
p1
(c__main__
KBproperty
p2
c__builtin__
object
p3
NtRp4
(dp5
S'comment'
p6
S'The original name of the entity e.g. film settlement etc.00'
p7
sS'domain'
p8
S''
sS'instances_count'
p9
I0
sS'phrases'
p10
NsS'syn_hypo'
p11
S''
sS'label'
p12
S'original name'
p13
sS'range'
p14
S'lang String '
p15
sS'uniq_subjs'
p16
S'0'
sS'uniq_objs'
p17
I0
sS'prop_uri'
p18
S'http://dbpedia.org/ontology/originalName'
p19
sS'annotations'
p20
(dp21
S'bag_of_words'
p22
(lp23
S'original'
p24
aS'name'
p25
aS'lang'
p26
aS'String'
p27
aS'The'
p28
aS'original'
p29
aS'name'
p30
aS'of'
p31
aS'the'
p32
aS'entity'
p33
aS'e.g.'
p34
aS'film'
p35
aS'settlement'
p36
aS'etc.00'
p37
asS'chunk_seq'
p38
(lp39
S'B-NP'
p40
aS'I-NP'
p41
aS'I-NP'
p42
aS'E-NP'
p43
aS'B-NP'
p44
aS'I-NP'
p45
aS'E-NP'
p46
aS'S-PP'
p47
aS'B-NP'
p48
aS'E-NP'
p49
aS'S-PP'
p50
aS'B-NP'
p51
aS'E-NP'
p52
aS'S-ADJP'
p53
asS'dep_seq'
p54
(lp55
(lp56
S'amod'
p57
aS'4'
aS'1'
aa(lp58
S'nn'
p59
aS'4'
aS'2'
aa(lp60
S'amod'
p61
aS'4'
aS'3'
aa(lp62
S'dep'
p63
aS'7'
aS'4'
aa(lp64
S'det'
p65
aS'7'
aS'5'
aa(lp66
S'amod'
p67
aS'7'
aS'6'
aa(lp68
S'root'
p69
aS'0'
aS'7'
aa(lp70
S'det'
p71
aS'10'
p72
aS'9'
aa(lp73
S'prep_of'
p74
aS'7'
aS'10'
p75
aa(lp76
S'nn'
p77
aS'13'
p78
aS'12'
p79
aa(lp80
S'prep_e.g.'
p81
aS'7'
aS'13'
p82
aa(lp83
S'punct'
p84
aS'13'
p85
aS'14'
p86
aasS'srls'
p87
(lp88
sS'pos_seq'
p89
(lp90
S'JJ'
p91
aS'NN'
p92
aS'VBG'
p93
aS'NN'
p94
aS'DT'
p95
aS'JJ'
p96
aS'NN'
p97
aS'IN'
p98
aS'DT'
p99
aS'NN'
p100
aS'IN'
p101
aS'NN'
p102
aS'NN'
p103
aS'.'
asS'ner_seq'
p104
(lp105
S'O'
aS'O'
aS'B-PER'
p106
aS'E-PER'
p107
aS'O'
aS'O'
aS'O'
aS'O'
aS'O'
aS'O'
aS'O'
aS'O'
aS'O'
aS'O'
assb.