ccopy_reg
_reconstructor
p1
(c__main__
KBproperty
p2
c__builtin__
object
p3
NtRp4
(dp5
S'comment'
p6
S'00'
p7
sS'domain'
p8
S'Spacecraft '
p9
sS'instances_count'
p10
I0
sS'phrases'
p11
NsS'syn_hypo'
p12
S''
sS'label'
p13
S'docked time s'
p14
sS'range'
p15
S'double '
p16
sS'uniq_subjs'
p17
S'0'
sS'uniq_objs'
p18
I0
sS'prop_uri'
p19
S'http://dbpedia.org/ontology/dockedTime'
p20
sS'annotations'
p21
(dp22
S'bag_of_words'
p23
(lp24
S'Spacecraft'
p25
aS'docked'
p26
aS'time'
p27
aS's'
aS'double'
p28
aS'00'
p29
asS'chunk_seq'
p30
(lp31
S'S-NP'
p32
aS'S-VP'
p33
aS'S-NP'
p34
aS'B-NP'
p35
aS'E-NP'
p36
aS'O'
asS'dep_seq'
p37
(lp38
(lp39
S'nsubj'
p40
aS'2'
aS'1'
aa(lp41
S'root'
p42
aS'0'
aS'2'
aa(lp43
S'iobj'
p44
aS'2'
aS'3'
aa(lp45
S'advmod'
p46
aS'6'
aS'4'
aa(lp47
S'advmod'
p48
aS'6'
aS'5'
aa(lp49
S'dobj'
p50
aS'2'
aS'6'
aasS'srls'
p51
(lp52
(dp53
S'A0'
p54
g25
sS'AM-TMP'
p55
S'time s double 00'
p56
sS'V'
g26
sasS'pos_seq'
p57
(lp58
S'NN'
p59
aS'VBD'
p60
aS'NN'
p61
aS'RB'
p62
aS'RB'
p63
aS'CD'
p64
asS'ner_seq'
p65
(lp66
S'O'
aS'O'
aS'O'
aS'O'
aS'O'
aS'O'
assb.