ccopy_reg
_reconstructor
p1
(c__main__
KBproperty
p2
c__builtin__
object
p3
NtRp4
(dp5
S'comment'
p6
S'The subject of a non-fiction book e.g.: History Biography Cookbook Climate change ....73854719'
p7
sS'domain'
p8
S'Written Work '
p9
sS'instances_count'
p10
I7385
sS'phrases'
p11
NsS'syn_hypo'
p12
S''
sS'label'
p13
S'non-fiction subject'
p14
sS'range'
p15
S''
sS'uniq_subjs'
p16
S'2768'
p17
sS'uniq_objs'
p18
I0
sS'prop_uri'
p19
S'http://dbpedia.org/ontology/nonFictionSubject'
p20
sS'annotations'
p21
(dp22
S'bag_of_words'
p23
(lp24
S'Written'
p25
aS'Work'
p26
aS'non-fiction'
p27
aS'subject'
p28
aS'The'
p29
aS'subject'
p30
aS'of'
p31
aS'a'
aS'non-fiction'
p32
aS'book'
p33
aS'e.g.'
p34
aS':'
aS'History'
p35
aS'Biography'
p36
aS'Cookbook'
p37
aS'Climate'
p38
aS'change'
p39
aS'....7385471'
p40
aS'9'
asS'chunk_seq'
p41
(lp42
S'B-NP'
p43
aS'I-NP'
p44
aS'I-NP'
p45
aS'E-NP'
p46
aS'B-NP'
p47
aS'E-NP'
p48
aS'S-PP'
p49
aS'B-NP'
p50
aS'I-NP'
p51
aS'E-NP'
p52
aS'S-ADVP'
p53
aS'O'
aS'B-NP'
p54
aS'I-NP'
p55
aS'I-NP'
p56
aS'I-NP'
p57
aS'E-NP'
p58
aS'S-VP'
p59
aS'O'
asS'dep_seq'
p60
(lp61
(lp62
S'nn'
p63
aS'4'
aS'1'
aa(lp64
S'nn'
p65
aS'4'
aS'2'
aa(lp66
S'amod'
p67
aS'4'
aS'fiction'
p68
aa(lp69
S'dep'
p70
aS'6'
aS'4'
aa(lp71
S'det'
p72
aS'6'
aS'5'
aa(lp73
S'root'
p74
aS'0'
aS'6'
aa(lp75
S'det'
p76
aS'10'
p77
aS'8'
aa(lp78
S'amod'
p79
aS'10'
p80
aS'fiction'
p81
aa(lp82
S'prep_of'
p83
aS'6'
aS'10'
p84
aa(lp85
S'advmod'
p86
aS'10'
p87
aS'11'
p88
aa(lp89
S'nn'
p90
aS'17'
p91
aS'13'
p92
aa(lp93
S'nn'
p94
aS'17'
p95
aS'14'
p96
aa(lp97
S'nn'
p98
aS'17'
p99
aS'15'
p100
aa(lp101
S'nn'
p102
aS'17'
p103
aS'16'
p104
aa(lp105
S'dep'
p106
aS'6'
aS'17'
p107
aa(lp108
S'partmod'
p109
aS'17'
p110
aS'18'
p111
aa(lp112
S'advmod'
p113
aS'18'
p114
aS'19'
p115
aasS'srls'
p116
(lp117
(dp118
S'A0'
p119
g28
sS'V'
g27
sa(dp120
S'A1'
p121
S'9'
sS'A0'
p122
S'Written Work non-fiction subject The subject of a non-fiction book e.g. : History Biography Cookbook Climate change'
p123
sS'V'
g40
sasS'pos_seq'
p124
(lp125
S'NNP'
p126
aS'NNP'
p127
aS'JJ'
p128
aS'NN'
p129
aS'DT'
p130
aS'NN'
p131
aS'IN'
p132
aS'DT'
p133
aS'JJ'
p134
aS'NN'
p135
aS'RB'
p136
aS':'
aS'NNP'
p137
aS'NNP'
p138
aS'NNP'
p139
aS'NNP'
p140
aS'NN'
p141
aS'VBD'
p142
aS'.'
asS'ner_seq'
p143
(lp144
S'O'
aS'O'
aS'O'
aS'O'
aS'O'
aS'O'
aS'O'
aS'O'
aS'O'
aS'O'
aS'O'
aS'O'
aS'B-MISC'
p145
aS'I-MISC'
p146
aS'I-MISC'
p147
aS'E-MISC'
p148
aS'O'
aS'O'
aS'O'
assb.