ccopy_reg
_reconstructor
p1
(c__main__
KBproperty
p2
c__builtin__
object
p3
NtRp4
(dp5
S'comment'
p6
S'cylinder bore \\xce\\xbc'
p7
sS'domain'
p8
S'Automobile Engine '
p9
sS'instances_count'
p10
I165
sS'phrases'
p11
NsS'syn_hypo'
p12
S''
sS'label'
p13
g7
sS'range'
p14
S'double '
p15
sS'uniq_subjs'
p16
S'165'
p17
sS'uniq_objs'
p18
I0
sS'prop_uri'
p19
S'http://dbpedia.org/ontology/cylinderBore'
p20
sS'annotations'
p21
(dp22
S'bag_of_words'
p23
(lp24
S'Automobile'
p25
aS'Engine'
p26
aS'cylinder'
p27
aS'Bore'
p28
aS'double'
p29
aS'cylinder'
p30
aS'bore'
p31
aS'\\'
aS'xce'
p32
aS'\\'
aS'xbc'
p33
asS'chunk_seq'
p34
(lp35
S'B-NP'
p36
aS'I-NP'
p37
aS'I-NP'
p38
aS'I-NP'
p39
aS'I-NP'
p40
aS'E-NP'
p41
aS'O'
aS'O'
aS'O'
aS'O'
aS'O'
asS'dep_seq'
p42
(lp43
(lp44
S'nn'
p45
aS'4'
aS'1'
aa(lp46
S'nn'
p47
aS'4'
aS'2'
aa(lp48
S'nn'
p49
aS'4'
aS'3'
aa(lp50
S'root'
p51
aS'0'
aS'4'
aa(lp52
S'amod'
p53
aS'6'
aS'5'
aa(lp54
S'dep'
p55
aS'4'
aS'6'
aa(lp56
S'dep'
p57
aS'6'
aS'7'
aa(lp58
S'nn'
p59
aS'11'
p60
aS'8'
aa(lp61
S'nn'
p62
aS'11'
p63
aS'9'
aa(lp64
S'nn'
p65
aS'11'
p66
aS'10'
p67
aa(lp68
S'dep'
p69
aS'6'
aS'11'
p70
aasS'srls'
p71
(lp72
sS'pos_seq'
p73
(lp74
S'NNP'
p75
aS'NNP'
p76
aS'NN'
p77
aS'NNP'
p78
aS'JJ'
p79
aS'NN'
p80
aS'FW'
p81
aS'FW'
p82
aS'FW'
p83
aS'FW'
p84
aS'FW'
p85
asS'ner_seq'
p86
(lp87
S'O'
aS'O'
aS'O'
aS'O'
aS'O'
aS'O'
aS'O'
aS'O'
aS'O'
aS'O'
aS'O'
assb.