ccopy_reg
_reconstructor
p1
(c__main__
KBproperty
p2
c__builtin__
object
p3
NtRp4
(dp5
S'comment'
p6
S'Link from a Wikipage to an external page'
p7
sS'domain'
p8
S''
sS'instances_count'
p9
I6462388
sS'phrases'
p10
NsS'syn_hypo'
p11
S''
sS'label'
p12
g7
sS'range'
p13
S''
sS'uniq_subjs'
p14
S'6462388'
p15
sS'uniq_objs'
p16
I0
sS'prop_uri'
p17
S'http://dbpedia.org/ontology/wikiPageExternalLink'
p18
sS'annotations'
p19
(dp20
S'bag_of_words'
p21
(lp22
S'wiki'
p23
aS'Page'
p24
aS'External'
p25
aS'Link'
p26
aS'Link'
p27
aS'from'
p28
aS'a'
aS'Wikipage'
p29
aS'to'
p30
aS'an'
p31
aS'external'
p32
aS'page'
p33
asS'chunk_seq'
p34
(lp35
S'B-NP'
p36
aS'I-NP'
p37
aS'I-NP'
p38
aS'I-NP'
p39
aS'E-NP'
p40
aS'S-PP'
p41
aS'B-NP'
p42
aS'E-NP'
p43
aS'S-PP'
p44
aS'B-NP'
p45
aS'I-NP'
p46
aS'E-NP'
p47
asS'dep_seq'
p48
(lp49
(lp50
S'nn'
p51
aS'5'
aS'1'
aa(lp52
S'nn'
p53
aS'5'
aS'2'
aa(lp54
S'nn'
p55
aS'5'
aS'3'
aa(lp56
S'nn'
p57
aS'5'
aS'4'
aa(lp58
S'root'
p59
aS'0'
aS'5'
aa(lp60
S'det'
p61
aS'8'
aS'7'
aa(lp62
S'prep_from'
p63
aS'5'
aS'8'
aa(lp64
S'det'
p65
aS'12'
p66
aS'10'
p67
aa(lp68
S'amod'
p69
aS'12'
p70
aS'11'
p71
aa(lp72
S'prep_to'
p73
aS'5'
aS'12'
p74
aasS'srls'
p75
(lp76
sS'pos_seq'
p77
(lp78
S'NN'
p79
aS'NNP'
p80
aS'NNP'
p81
aS'NNP'
p82
aS'NNP'
p83
aS'IN'
p84
aS'DT'
p85
aS'NNP'
p86
aS'TO'
p87
aS'DT'
p88
aS'JJ'
p89
aS'NN'
p90
asS'ner_seq'
p91
(lp92
S'O'
aS'O'
aS'S-MISC'
p93
aS'O'
aS'O'
aS'O'
aS'O'
aS'S-MISC'
p94
aS'O'
aS'O'
aS'O'
aS'O'
assb.