ccopy_reg
_reconstructor
p1
(c__main__
KBproperty
p2
c__builtin__
object
p3
NtRp4
(dp5
S'comment'
p6
S'4848'
p7
sS'domain'
p8
S'Educational Institution '
p9
sS'instances_count'
p10
I39
sS'phrases'
p11
NsS'syn_hypo'
p12
S''
sS'label'
p13
S'closed'
p14
sS'range'
p15
S'date '
p16
sS'uniq_subjs'
p17
S'39'
p18
sS'uniq_objs'
p19
I0
sS'prop_uri'
p20
S'http://dbpedia.org/ontology/closed'
p21
sS'annotations'
p22
(dp23
S'bag_of_words'
p24
(lp25
S'Educational'
p26
aS'Institution'
p27
aS'closed'
p28
aS'date'
p29
aS'4848'
p30
asS'chunk_seq'
p31
(lp32
S'B-NP'
p33
aS'E-NP'
p34
aS'S-VP'
p35
aS'S-NP'
p36
aS'S-ADJP'
p37
asS'dep_seq'
p38
(lp39
(lp40
S'nn'
p41
aS'2'
aS'1'
aa(lp42
S'nsubj'
p43
aS'3'
aS'2'
aa(lp44
S'root'
p45
aS'0'
aS'3'
aa(lp46
S'iobj'
p47
aS'3'
aS'4'
aa(lp48
S'dobj'
p49
aS'3'
aS'5'
aasS'srls'
p50
(lp51
(dp52
S'A1'
p53
S'Educational Institution  date 4848'
p54
sS'V'
g28
sasS'pos_seq'
p55
(lp56
S'NNP'
p57
aS'NNP'
p58
aS'VBD'
p59
aS'NN'
p60
aS'.'
asS'ner_seq'
p61
(lp62
S'B-ORG'
p63
aS'E-ORG'
p64
aS'O'
aS'O'
aS'O'
assb.