ccopy_reg
_reconstructor
p1
(c__main__
KBproperty
p2
c__builtin__
object
p3
NtRp4
(dp5
S'comment'
p6
S'year of elevation into the nobility'
p7
sS'domain'
p8
S'Noble Family '
p9
sS'instances_count'
p10
I0
sS'phrases'
p11
NsS'syn_hypo'
p12
S''
sS'label'
p13
g7
sS'range'
p14
S'string '
p15
sS'uniq_subjs'
p16
S'0'
sS'uniq_objs'
p17
I0
sS'prop_uri'
p18
S'http://dbpedia.org/ontology/yearElevationIntoNobility'
p19
sS'annotations'
p20
(dp21
S'bag_of_words'
p22
(lp23
S'Noble'
p24
aS'Family'
p25
aS'year'
p26
aS'Elevation'
p27
aS'Into'
p28
aS'Nobility'
p29
aS'string'
p30
aS'year'
p31
aS'of'
p32
aS'elevation'
p33
aS'into'
p34
aS'the'
p35
aS'nobility'
p36
asS'chunk_seq'
p37
(lp38
S'B-NP'
p39
aS'I-NP'
p40
aS'I-NP'
p41
aS'E-NP'
p42
aS'S-PP'
p43
aS'B-NP'
p44
aS'I-NP'
p45
aS'E-NP'
p46
aS'S-PP'
p47
aS'S-NP'
p48
aS'S-PP'
p49
aS'B-NP'
p50
aS'E-NP'
p51
asS'dep_seq'
p52
(lp53
(lp54
S'nn'
p55
aS'2'
aS'1'
aa(lp56
S'nsubj'
p57
aS'3'
aS'2'
aa(lp58
S'root'
p59
aS'0'
aS'3'
aa(lp60
S'dep'
p61
aS'3'
aS'4'
aa(lp62
S'nn'
p63
aS'8'
aS'6'
aa(lp64
S'nn'
p65
aS'8'
aS'7'
aa(lp66
S'prep_into'
p67
aS'3'
aS'8'
aa(lp68
S'prep_of'
p69
aS'8'
aS'10'
p70
aa(lp71
S'det'
p72
aS'13'
p73
aS'12'
p74
aa(lp75
S'prep_into'
p76
aS'8'
aS'13'
p77
aasS'srls'
p78
(lp79
sS'pos_seq'
p80
(lp81
S'NNP'
p82
aS'NNP'
p83
aS'NN'
p84
aS'NN'
p85
aS'IN'
p86
aS'NNP'
p87
aS'NN'
p88
aS'NN'
p89
aS'IN'
p90
aS'NN'
p91
aS'IN'
p92
aS'DT'
p93
aS'NN'
p94
asS'ner_seq'
p95
(lp96
S'O'
aS'O'
aS'O'
aS'O'
aS'O'
aS'S-MISC'
p97
aS'O'
aS'O'
aS'O'
aS'O'
aS'O'
aS'O'
aS'O'
assb.