ccopy_reg
_reconstructor
p1
(c__main__
KBproperty
p2
c__builtin__
object
p3
NtRp4
(dp5
S'comment'
p6
S'8373'
p7
sS'domain'
p8
S'Anatomical Structure '
p9
sS'instances_count'
p10
I62
sS'phrases'
p11
NsS'syn_hypo'
p12
S''
sS'label'
p13
S'drains from'
p14
sS'range'
p15
S'Anatomical Structure '
p16
sS'uniq_subjs'
p17
S'62'
p18
sS'uniq_objs'
p19
I0
sS'prop_uri'
p20
S'http://dbpedia.org/ontology/drainsFrom'
p21
sS'annotations'
p22
(dp23
S'bag_of_words'
p24
(lp25
S'Anatomical'
p26
aS'Structure'
p27
aS'drains'
p28
aS'from'
p29
aS'Anatomical'
p30
aS'Structure'
p31
aS'8373'
p32
asS'chunk_seq'
p33
(lp34
S'B-NP'
p35
aS'E-NP'
p36
aS'S-VP'
p37
aS'S-PP'
p38
aS'B-NP'
p39
aS'E-NP'
p40
aS'O'
asS'dep_seq'
p41
(lp42
(lp43
S'amod'
p44
aS'2'
aS'1'
aa(lp45
S'nsubj'
p46
aS'3'
aS'2'
aa(lp47
S'root'
p48
aS'0'
aS'3'
aa(lp49
S'amod'
p50
aS'6'
aS'5'
aa(lp51
S'prep_from'
p52
aS'3'
aS'6'
aa(lp53
S'punct'
p54
aS'6'
aS'7'
aasS'srls'
p55
(lp56
(dp57
S'A1'
p58
S'from Anatomical Structure 8373'
p59
sS'A0'
p60
S'Anatomical Structure'
p61
sS'V'
g28
sasS'pos_seq'
p62
(lp63
S'JJ'
p64
aS'NN'
p65
aS'VBZ'
p66
aS'IN'
p67
aS'JJ'
p68
aS'NN'
p69
aS'.'
asS'ner_seq'
p70
(lp71
S'O'
aS'O'
aS'O'
aS'O'
aS'S-MISC'
p72
aS'O'
aS'O'
assb.