ccopy_reg
_reconstructor
p1
(c__main__
KBproperty
p2
c__builtin__
object
p3
NtRp4
(dp5
S'comment'
p6
S'The alternative title attributed to a work00'
p7
sS'domain'
p8
S'Work '
p9
sS'instances_count'
p10
I0
sS'phrases'
p11
NsS'syn_hypo'
p12
S''
sS'label'
p13
S'alternative title'
p14
sS'range'
p15
S'lang String '
p16
sS'uniq_subjs'
p17
S'0'
sS'uniq_objs'
p18
I0
sS'prop_uri'
p19
S'http://dbpedia.org/ontology/alternativeTitle'
p20
sS'annotations'
p21
(dp22
S'bag_of_words'
p23
(lp24
S'Work'
p25
aS'alternative'
p26
aS'title'
p27
aS'lang'
p28
aS'String'
p29
aS'The'
p30
aS'alternative'
p31
aS'title'
p32
aS'attributed'
p33
aS'to'
p34
aS'a'
aS'work00'
p35
asS'chunk_seq'
p36
(lp37
S'B-NP'
p38
aS'I-NP'
p39
aS'I-NP'
p40
aS'I-NP'
p41
aS'E-NP'
p42
aS'B-NP'
p43
aS'I-NP'
p44
aS'E-NP'
p45
aS'S-VP'
p46
aS'S-PP'
p47
aS'B-NP'
p48
aS'E-NP'
p49
asS'dep_seq'
p50
(lp51
(lp52
S'nn'
p53
aS'3'
aS'1'
aa(lp54
S'amod'
p55
aS'3'
aS'2'
aa(lp56
S'root'
p57
aS'0'
aS'3'
aa(lp58
S'partmod'
p59
aS'3'
aS'4'
aa(lp60
S'dep'
p61
aS'4'
aS'5'
aa(lp62
S'det'
p63
aS'8'
aS'6'
aa(lp64
S'amod'
p65
aS'8'
aS'7'
aa(lp66
S'dobj'
p67
aS'4'
aS'8'
aa(lp68
S'partmod'
p69
aS'8'
aS'9'
aa(lp70
S'det'
p71
aS'12'
p72
aS'11'
p73
aa(lp74
S'prep_to'
p75
aS'9'
aS'12'
p76
aasS'srls'
p77
(lp78
(dp79
S'A1'
p80
S'Work alternative title lang String The alternative title'
p81
sS'A2'
p82
S'to a work00'
p83
sS'V'
g33
sasS'pos_seq'
p84
(lp85
S'NN'
p86
aS'JJ'
p87
aS'NN'
p88
aS'VBG'
p89
aS'NN'
p90
aS'DT'
p91
aS'JJ'
p92
aS'NN'
p93
aS'VBN'
p94
aS'TO'
p95
aS'DT'
p96
aS'NN'
p97
asS'ner_seq'
p98
(lp99
S'O'
aS'O'
aS'O'
aS'B-PER'
p100
aS'E-PER'
p101
aS'O'
aS'O'
aS'O'
aS'O'
aS'O'
aS'O'
aS'O'
assb.