ccopy_reg
_reconstructor
p1
(c__main__
KBproperty
p2
c__builtin__
object
p3
NtRp4
(dp5
S'comment'
p6
S'47923448'
p7
sS'domain'
p8
S'Disease '
p9
sS'instances_count'
p10
I2941
sS'phrases'
p11
NsS'syn_hypo'
p12
S''
sS'label'
p13
S'ICD9'
p14
sS'range'
p15
S'string '
p16
sS'uniq_subjs'
p17
S'2941'
p18
sS'uniq_objs'
p19
I0
sS'prop_uri'
p20
S'http://dbpedia.org/ontology/icd9'
p21
sS'annotations'
p22
(dp23
S'bag_of_words'
p24
(lp25
S'Disease'
p26
aS'ICD9'
p27
aS'string'
p28
aS'47923448'
p29
asS'chunk_seq'
p30
(lp31
S'B-NP'
p32
aS'I-NP'
p33
aS'E-NP'
p34
aS'O'
asS'dep_seq'
p35
(lp36
(lp37
S'nn'
p38
aS'3'
aS'1'
aa(lp39
S'nn'
p40
aS'3'
aS'2'
aa(lp41
S'root'
p42
aS'0'
aS'3'
aa(lp43
S'punct'
p44
aS'3'
aS'4'
aasS'srls'
p45
(lp46
sS'pos_seq'
p47
(lp48
S'NNP'
p49
aS'NNP'
p50
aS'NN'
p51
aS'.'
asS'ner_seq'
p52
(lp53
S'O'
aS'O'
aS'O'
aS'O'
assb.