ccopy_reg
_reconstructor
p1
(c__main__
KBproperty
p2
c__builtin__
object
p3
NtRp4
(dp5
S'comment'
p6
S'4729'
p7
sS'domain'
p8
S'Race '
p9
sS'instances_count'
p10
I47
sS'phrases'
p11
NsS'syn_hypo'
p12
S''
sS'label'
p13
S'most wins'
p14
sS'range'
p15
S''
sS'uniq_subjs'
p16
S'47'
p17
sS'uniq_objs'
p18
I0
sS'prop_uri'
p19
S'http://dbpedia.org/ontology/mostWins'
p20
sS'annotations'
p21
(dp22
S'bag_of_words'
p23
(lp24
S'Race'
p25
aS'most'
p26
aS'wins'
p27
aS'4729'
p28
asS'chunk_seq'
p29
(lp30
S'B-NP'
p31
aS'I-NP'
p32
aS'E-NP'
p33
aS'S-ADJP'
p34
asS'dep_seq'
p35
(lp36
(lp37
S'root'
p38
aS'0'
aS'1'
aa(lp39
S'amod'
p40
aS'3'
aS'2'
aa(lp41
S'dep'
p42
aS'1'
aS'3'
aa(lp43
S'punct'
p44
aS'3'
aS'4'
aasS'srls'
p45
(lp46
sS'pos_seq'
p47
(lp48
S'NN'
p49
aS'JJS'
p50
aS'NNS'
p51
aS'.'
asS'ner_seq'
p52
(lp53
S'O'
aS'O'
aS'O'
aS'O'
assb.