ccopy_reg
_reconstructor
p1
(c__main__
KBproperty
p2
c__builtin__
object
p3
NtRp4
(dp5
S'comment'
p6
S'218129'
p7
sS'domain'
p8
S'Person '
p9
sS'instances_count'
p10
I183
sS'phrases'
p11
NsS'syn_hypo'
p12
S''
sS'label'
p13
S'body discovered'
p14
sS'range'
p15
S'Place '
p16
sS'uniq_subjs'
p17
S'183'
p18
sS'uniq_objs'
p19
I0
sS'prop_uri'
p20
S'http://dbpedia.org/ontology/bodyDiscovered'
p21
sS'annotations'
p22
(dp23
S'bag_of_words'
p24
(lp25
S'Person'
p26
aS'body'
p27
aS'discovered'
p28
aS'Place'
p29
aS'218129'
p30
asS'chunk_seq'
p31
(lp32
S'B-NP'
p33
aS'E-NP'
p34
aS'S-VP'
p35
aS'S-NP'
p36
aS'O'
asS'dep_seq'
p37
(lp38
(lp39
S'nn'
p40
aS'2'
aS'1'
aa(lp41
S'nsubj'
p42
aS'3'
aS'2'
aa(lp43
S'root'
p44
aS'0'
aS'3'
aa(lp45
S'dobj'
p46
aS'3'
aS'4'
aa(lp47
S'punct'
p48
aS'4'
aS'5'
aasS'srls'
p49
(lp50
(dp51
S'A1'
p52
S'Person body  Place 218129'
p53
sS'V'
g28
sasS'pos_seq'
p54
(lp55
S'NN'
p56
aS'NN'
p57
aS'VBD'
p58
aS'NNP'
p59
aS'.'
asS'ner_seq'
p60
(lp61
S'O'
aS'O'
aS'O'
aS'O'
aS'O'
assb.