ccopy_reg
_reconstructor
p1
(c__main__
KBproperty
p2
c__builtin__
object
p3
NtRp4
(dp5
S'comment'
p6
S'49274707'
p7
sS'domain'
p8
S'Event '
p9
sS'instances_count'
p10
I4602
sS'phrases'
p11
NsS'syn_hypo'
p12
S''
sS'label'
p13
S'following event'
p14
sS'range'
p15
S'Event '
p16
sS'uniq_subjs'
p17
S'4602'
p18
sS'uniq_objs'
p19
I0
sS'prop_uri'
p20
S'http://dbpedia.org/ontology/followingEvent'
p21
sS'annotations'
p22
(dp23
S'bag_of_words'
p24
(lp25
S'Event'
p26
aS'following'
p27
aS'event'
p28
aS'Event'
p29
aS'49274707'
p30
asS'chunk_seq'
p31
(lp32
S'S-NP'
p33
aS'S-PP'
p34
aS'B-NP'
p35
aS'I-NP'
p36
aS'E-NP'
p37
asS'dep_seq'
p38
(lp39
(lp40
S'nn'
p41
aS'5'
aS'1'
aa(lp42
S'amod'
p43
aS'5'
aS'2'
aa(lp44
S'nn'
p45
aS'5'
aS'3'
aa(lp46
S'nn'
p47
aS'5'
aS'4'
aa(lp48
S'root'
p49
aS'0'
aS'5'
aasS'srls'
p50
(lp51
(dp52
S'A1'
p53
g26
sS'A2'
p54
S'event Event 49274707'
p55
sS'V'
g27
sasS'pos_seq'
p56
(lp57
S'NN'
p58
aS'VBG'
p59
aS'NN'
p60
aS'NN'
p61
aS'NN'
p62
asS'ner_seq'
p63
(lp64
S'O'
aS'O'
aS'O'
aS'O'
aS'O'
assb.