ccopy_reg
_reconstructor
p1
(c__main__
KBproperty
p2
c__builtin__
object
p3
NtRp4
(dp5
S'comment'
p6
S'24551833'
p7
sS'domain'
p8
S''
sS'instances_count'
p9
I2042
sS'phrases'
p10
NsS'syn_hypo'
p11
Vamphitheaterstadiumbowlarenasports_stadiumamphitheatrestadiumbowlarenasports_stadiumcoliseumstadiumbowlarenasports_stadiumballparkstadiumbowlarenasports_stadiumparkstadiumbowlarenasports_stadiumbullringstadiumbowlarenasports_stadiumcircusstadiumbowlarenasports_stadiumdomestadiumbowlarenasports_stadiumdomed_stadiumstadiumbowlarenasports_stadiumcovered_stadiumstadiumbowlarenasports_stadiumfootball_stadiumstadiumbowlarenasports_stadiumhippodromestadiumbowlarenasports_stadiumskybox
p12
sS'label'
p13
S'Stadium'
p14
sS'range'
p15
S'Stadium '
p16
sS'uniq_subjs'
p17
S'2042'
p18
sS'uniq_objs'
p19
I0
sS'prop_uri'
p20
S'http://dbpedia.org/ontology/stadium'
p21
sS'annotations'
p22
(dp23
S'bag_of_words'
p24
(lp25
S'Stadium'
p26
aS'Stadium'
p27
aS'24551833'
p28
asS'chunk_seq'
p29
(lp30
S'B-NP'
p31
aS'E-NP'
p32
aS'O'
asS'dep_seq'
p33
(lp34
(lp35
S'nn'
p36
aS'2'
aS'1'
aa(lp37
S'root'
p38
aS'0'
aS'2'
aa(lp39
S'punct'
p40
aS'2'
aS'3'
aasS'srls'
p41
(lp42
sS'pos_seq'
p43
(lp44
S'NNP'
p45
aS'NNP'
p46
aS'.'
asS'ner_seq'
p47
(lp48
S'O'
aS'O'
aS'O'
assb.