ccopy_reg
_reconstructor
p1
(c__main__
KBproperty
p2
c__builtin__
object
p3
NtRp4
(dp5
S'comment'
p6
S'A wise and trusted counselor or teacher00'
p7
sS'domain'
p8
S'Artist '
p9
sS'instances_count'
p10
I0
sS'phrases'
p11
NsS'syn_hypo'
p12
Vsage
p13
sS'label'
p14
S'mentor'
p15
sS'range'
p16
S'Artist '
p17
sS'uniq_subjs'
p18
S'0'
sS'uniq_objs'
p19
I0
sS'prop_uri'
p20
S'http://dbpedia.org/ontology/mentor'
p21
sS'annotations'
p22
(dp23
S'bag_of_words'
p24
(lp25
S'Artist'
p26
aS'mentor'
p27
aS'Artist'
p28
aS'A'
aS'wise'
p29
aS'and'
p30
aS'trusted'
p31
aS'counselor'
p32
aS'or'
p33
aS'teacher00'
p34
asS'chunk_seq'
p35
(lp36
S'B-NP'
p37
aS'I-NP'
p38
aS'E-NP'
p39
aS'B-NP'
p40
aS'I-NP'
p41
aS'I-NP'
p42
aS'I-NP'
p43
aS'I-NP'
p44
aS'I-NP'
p45
aS'E-NP'
p46
asS'dep_seq'
p47
(lp48
(lp49
S'nn'
p50
aS'3'
aS'1'
aa(lp51
S'nn'
p52
aS'3'
aS'2'
aa(lp53
S'root'
p54
aS'0'
aS'3'
aa(lp55
S'amod'
p56
aS'5'
aS'4'
aa(lp57
S'dep'
p58
aS'3'
aS'5'
aa(lp59
S'amod'
p60
aS'8'
aS'7'
aa(lp61
S'conj_and'
p62
aS'5'
aS'8'
aa(lp63
S'conj_or'
p64
aS'5'
aS'10'
p65
aasS'srls'
p66
(lp67
sS'pos_seq'
p68
(lp69
S'NN'
p70
aS'NN'
p71
aS'NNP'
p72
aS'NNP'
p73
aS'JJ'
p74
aS'CC'
p75
aS'VBN'
p76
aS'NN'
p77
aS'CC'
p78
aS'NN'
p79
asS'ner_seq'
p80
(lp81
S'O'
aS'O'
aS'O'
aS'O'
aS'O'
aS'O'
aS'O'
aS'O'
aS'O'
aS'O'
assb.