ccopy_reg
_reconstructor
p1
(c__main__
KBproperty
p2
c__builtin__
object
p3
NtRp4
(dp5
S'comment'
p6
S"the sport specialty the athlete practices e.g. 'Ring' for a men's artistic gymnastics athlete00"
p7
sS'domain'
p8
S'Athlete '
p9
sS'instances_count'
p10
I0
sS'phrases'
p11
NsS'syn_hypo'
p12
S''
sS'label'
p13
S'sport specialty'
p14
sS'range'
p15
S'Sport '
p16
sS'uniq_subjs'
p17
S'0'
sS'uniq_objs'
p18
I0
sS'prop_uri'
p19
S'http://dbpedia.org/ontology/sportSpecialty'
p20
sS'annotations'
p21
(dp22
S'bag_of_words'
p23
(lp24
S'Athlete'
p25
aS'sport'
p26
aS'specialty'
p27
aS'Sport'
p28
aS'the'
p29
aS'sport'
p30
aS'specialty'
p31
aS'the'
p32
aS'athlete'
p33
aS'practices'
p34
aS'e.g.'
p35
aS"'R"
p36
aS'ing'
p37
aS"'"
aS'for'
p38
aS'a'
aS'men'
p39
aS"'s"
p40
aS'artistic'
p41
aS'gymnastics'
p42
aS'athlete00'
p43
asS'chunk_seq'
p44
(lp45
S'B-NP'
p46
aS'I-NP'
p47
aS'I-NP'
p48
aS'E-NP'
p49
aS'B-NP'
p50
aS'I-NP'
p51
aS'E-NP'
p52
aS'B-NP'
p53
aS'I-NP'
p54
aS'E-NP'
p55
aS'S-PP'
p56
aS'S-NP'
p57
aS'S-VP'
p58
aS'O'
aS'S-PP'
p59
aS'B-NP'
p60
aS'E-NP'
p61
aS'B-NP'
p62
aS'I-NP'
p63
aS'E-NP'
p64
aS'O'
asS'dep_seq'
p65
(lp66
(lp67
S'nn'
p68
aS'4'
aS'1'
aa(lp69
S'nn'
p70
aS'4'
aS'2'
aa(lp71
S'nn'
p72
aS'4'
aS'3'
aa(lp73
S'root'
p74
aS'0'
aS'4'
aa(lp75
S'det'
p76
aS'7'
aS'5'
aa(lp77
S'nn'
p78
aS'7'
aS'6'
aa(lp79
S'dep'
p80
aS'4'
aS'7'
aa(lp81
S'det'
p82
aS'10'
p83
aS'8'
aa(lp84
S'nn'
p85
aS'10'
p86
aS'9'
aa(lp87
S'dep'
p88
aS'7'
aS'10'
p89
aa(lp90
S'prep_e.g.'
p91
aS'7'
aS'12'
p92
aa(lp93
S'amod'
p94
aS'12'
p95
aS'13'
p96
aa(lp97
S'det'
p98
aS'17'
p99
aS'16'
p100
aa(lp101
S'poss'
p102
aS'20'
p103
aS'17'
p104
aa(lp105
S'amod'
p106
aS'20'
p107
aS'19'
p108
aa(lp109
S'prep_for'
p110
aS'7'
aS'20'
p111
aa(lp112
S'punct'
p113
aS'7'
aS'21'
p114
aasS'srls'
p115
(lp116
sS'pos_seq'
p117
(lp118
S'NN'
p119
aS'NN'
p120
aS'NN'
p121
aS'NNP'
p122
aS'DT'
p123
aS'NN'
p124
aS'NN'
p125
aS'DT'
p126
aS'NN'
p127
aS'NNS'
p128
aS'IN'
p129
aS'NNP'
p130
aS'VBG'
p131
aS"''"
p132
aS'IN'
p133
aS'DT'
p134
aS'NNS'
p135
aS'POS'
p136
aS'JJ'
p137
aS'NNS'
p138
aS'.'
asS'ner_seq'
p139
(lp140
S'O'
aS'O'
aS'O'
aS'S-ORG'
p141
aS'O'
aS'O'
aS'O'
aS'O'
aS'O'
aS'O'
aS'O'
aS'O'
aS'O'
aS'O'
aS'O'
aS'O'
aS'O'
aS'O'
aS'O'
aS'O'
aS'O'
assb.