ccopy_reg
_reconstructor
p1
(c__main__
KBproperty
p2
c__builtin__
object
p3
NtRp4
(dp5
S'comment'
p6
S'242200'
p7
sS'domain'
p8
S''
sS'instances_count'
p9
I212
sS'phrases'
p10
NsS'syn_hypo'
p11
S''
sS'label'
p12
S'highest place'
p13
sS'range'
p14
S'Populated Place '
p15
sS'uniq_subjs'
p16
S'212'
p17
sS'uniq_objs'
p18
I0
sS'prop_uri'
p19
S'http://dbpedia.org/ontology/highestPlace'
p20
sS'annotations'
p21
(dp22
S'bag_of_words'
p23
(lp24
S'highest'
p25
aS'place'
p26
aS'Populated'
p27
aS'Place'
p28
aS'242200'
p29
asS'chunk_seq'
p30
(lp31
S'B-NP'
p32
aS'I-NP'
p33
aS'I-NP'
p34
aS'E-NP'
p35
aS'O'
asS'dep_seq'
p36
(lp37
(lp38
S'amod'
p39
aS'2'
aS'1'
aa(lp40
S'root'
p41
aS'0'
aS'2'
aa(lp42
S'amod'
p43
aS'4'
aS'3'
aa(lp44
S'dep'
p45
aS'2'
aS'4'
aa(lp46
S'num'
p47
aS'4'
aS'5'
aasS'srls'
p48
(lp49
sS'pos_seq'
p50
(lp51
S'JJS'
p52
aS'NN'
p53
aS'JJ'
p54
aS'NN'
p55
aS'CD'
p56
asS'ner_seq'
p57
(lp58
S'O'
aS'O'
aS'O'
aS'O'
aS'O'
assb.