ccopy_reg
_reconstructor
p1
(c__main__
KBproperty
p2
c__builtin__
object
p3
NtRp4
(dp5
S'comment'
p6
S'432429'
p7
sS'domain'
p8
S'Body Of Water '
p9
sS'instances_count'
p10
I121
sS'phrases'
p11
NsS'syn_hypo'
p12
S''
sS'label'
p13
S'frozen'
p14
sS'range'
p15
S'string '
p16
sS'uniq_subjs'
p17
S'121'
p18
sS'uniq_objs'
p19
I0
sS'prop_uri'
p20
S'http://dbpedia.org/ontology/frozen'
p21
sS'annotations'
p22
(dp23
S'bag_of_words'
p24
(lp25
S'Body'
p26
aS'Of'
p27
aS'Water'
p28
aS'frozen'
p29
aS'string'
p30
aS'432429'
p31
asS'chunk_seq'
p32
(lp33
S'S-NP'
p34
aS'S-PP'
p35
aS'B-NP'
p36
aS'I-NP'
p37
aS'I-NP'
p38
aS'E-NP'
p39
asS'dep_seq'
p40
(lp41
(lp42
S'dep'
p43
aS'6'
aS'1'
aa(lp44
S'prep_of'
p45
aS'1'
aS'3'
aa(lp46
S'amod'
p47
aS'6'
aS'4'
aa(lp48
S'nn'
p49
aS'6'
aS'5'
aa(lp50
S'root'
p51
aS'0'
aS'6'
aasS'srls'
p52
(lp53
sS'pos_seq'
p54
(lp55
S'NN'
p56
aS'IN'
p57
aS'NNP'
p58
aS'JJ'
p59
aS'NN'
p60
aS'NN'
p61
asS'ner_seq'
p62
(lp63
S'B-ORG'
p64
aS'I-ORG'
p65
aS'E-ORG'
p66
aS'O'
aS'O'
aS'O'
assb.