ccopy_reg
_reconstructor
p1
(c__main__
KBproperty
p2
c__builtin__
object
p3
NtRp4
(dp5
S'comment'
p6
S'The recommended dress code for an establishment or event.194194'
p7
sS'domain'
p8
S'Restaurant '
p9
sS'instances_count'
p10
I33
sS'phrases'
p11
NsS'syn_hypo'
p12
S''
sS'label'
p13
S'dress code'
p14
sS'range'
p15
S'string '
p16
sS'uniq_subjs'
p17
S'33'
p18
sS'uniq_objs'
p19
I0
sS'prop_uri'
p20
S'http://dbpedia.org/ontology/dressCode'
p21
sS'annotations'
p22
(dp23
S'bag_of_words'
p24
(lp25
S'Restaurant'
p26
aS'dress'
p27
aS'code'
p28
aS'string'
p29
aS'The'
p30
aS'recommended'
p31
aS'dress'
p32
aS'code'
p33
aS'for'
p34
aS'an'
p35
aS'establishment'
p36
aS'or'
p37
aS'event.194194'
p38
asS'chunk_seq'
p39
(lp40
S'B-NP'
p41
aS'I-NP'
p42
aS'I-NP'
p43
aS'E-NP'
p44
aS'B-NP'
p45
aS'I-NP'
p46
aS'I-NP'
p47
aS'E-NP'
p48
aS'S-PP'
p49
aS'B-NP'
p50
aS'I-NP'
p51
aS'I-NP'
p52
aS'E-NP'
p53
asS'dep_seq'
p54
(lp55
(lp56
S'nn'
p57
aS'4'
aS'1'
aa(lp58
S'nn'
p59
aS'4'
aS'2'
aa(lp60
S'nn'
p61
aS'4'
aS'3'
aa(lp62
S'dep'
p63
aS'8'
aS'4'
aa(lp64
S'det'
p65
aS'8'
aS'5'
aa(lp66
S'amod'
p67
aS'8'
aS'6'
aa(lp68
S'nn'
p69
aS'8'
aS'7'
aa(lp70
S'root'
p71
aS'0'
aS'8'
aa(lp72
S'det'
p73
aS'11'
p74
aS'10'
p75
aa(lp76
S'prep_for'
p77
aS'8'
aS'11'
p78
aa(lp79
S'conj_or'
p80
aS'11'
p81
aS'13'
p82
aasS'srls'
p83
(lp84
(dp85
S'A1'
p86
S'dress code'
p87
sS'V'
g31
sasS'pos_seq'
p88
(lp89
S'NN'
p90
aS'NN'
p91
aS'NN'
p92
aS'NN'
p93
aS'DT'
p94
aS'JJ'
p95
aS'NN'
p96
aS'NN'
p97
aS'IN'
p98
aS'DT'
p99
aS'NN'
p100
aS'CC'
p101
aS'NN'
p102
asS'ner_seq'
p103
(lp104
S'O'
aS'O'
aS'O'
aS'O'
aS'O'
aS'O'
aS'O'
aS'O'
aS'O'
aS'O'
aS'O'
aS'O'
aS'O'
assb.