ccopy_reg
_reconstructor
p1
(c__main__
KBproperty
p2
c__builtin__
object
p3
NtRp4
(dp5
S'comment'
p6
S'98678828'
p7
sS'domain'
p8
S'Work '
p9
sS'instances_count'
p10
I374
sS'phrases'
p11
NsS'syn_hypo'
p12
Vbuilding_permitlicenselicencepermitdriver's_licenselicenselicencepermitdriver's_licencelicenselicencepermitdriving_licenselicenselicencepermitdriving_licencelicenselicencepermitfishing_licenselicenselicencepermitfishing_licencelicenselicencepermitfishing_permitlicenselicencepermithunting_licenselicenselicencepermithunting_licencelicenselicencepermithunting_permitlicenselicencepermitgame_licenselicenselicencepermitlearner's_permitlicenselicencepermitletter_of_marquelicenselicencepermitletters_of_marquelicenselicencepermitletter_of_mark_and_reprisallicenselicencepermitliquor_licenselicenselicencepermitliquor_licencelicenselicencepermitmarriage_licenselicenselicencepermitmarriage_licencelicenselicencepermitwedding_licenselicenselicencepermitwedding_licencelicenselicencepermitoccupation_licenselicenselicencepermitoccupation_licencelicenselicencepermitpasslicenselicencepermitliberty_chit
p13
sS'label'
p14
S'license'
p15
sS'range'
p16
S''
sS'uniq_subjs'
p17
S'374'
p18
sS'uniq_objs'
p19
I0
sS'prop_uri'
p20
S'http://dbpedia.org/ontology/license'
p21
sS'annotations'
p22
(dp23
S'bag_of_words'
p24
(lp25
S'Work'
p26
aS'license'
p27
aS'98678828'
p28
asS'chunk_seq'
p29
(lp30
S'B-NP'
p31
aS'I-NP'
p32
aS'E-NP'
p33
asS'dep_seq'
p34
(lp35
(lp36
S'nn'
p37
aS'3'
aS'1'
aa(lp38
S'nn'
p39
aS'3'
aS'2'
aa(lp40
S'root'
p41
aS'0'
aS'3'
aasS'srls'
p42
(lp43
sS'pos_seq'
p44
(lp45
S'NN'
p46
aS'NN'
p47
aS'NN'
p48
asS'ner_seq'
p49
(lp50
S'O'
aS'O'
aS'O'
assb.