ccopy_reg
_reconstructor
p1
(c__main__
KBproperty
p2
c__builtin__
object
p3
NtRp4
(dp5
S'comment'
p6
S'Virtual International Authority File ID operated by Online Computer Library Center OCLC. Property range set to Agent because of corporate authors18011760'
p7
sS'domain'
p8
S''
sS'instances_count'
p9
I1801
sS'phrases'
p10
NsS'syn_hypo'
p11
S''
sS'label'
p12
S'VIAF Id'
p13
sS'range'
p14
S'string '
p15
sS'uniq_subjs'
p16
S'1791'
p17
sS'uniq_objs'
p18
I0
sS'prop_uri'
p19
S'http://dbpedia.org/ontology/viafId'
p20
sS'annotations'
p21
(dp22
S'bag_of_words'
p23
(lp24
S'VIAF'
p25
aS'Id'
p26
aS'string'
p27
aS'Virtual'
p28
aS'International'
p29
aS'Authority'
p30
aS'File'
p31
aS'ID'
p32
aS'operated'
p33
aS'by'
p34
aS'Online'
p35
aS'Computer'
p36
aS'Library'
p37
aS'Center'
p38
aS'OCLC'
p39
aS'.'
aS'Property'
p40
aS'range'
p41
aS'set'
p42
aS'to'
p43
aS'Agent'
p44
aS'because'
p45
aS'of'
p46
aS'corporate'
p47
aS'authors18011760'
p48
asS'chunk_seq'
p49
(lp50
S'B-NP'
p51
aS'I-NP'
p52
aS'I-NP'
p53
aS'I-NP'
p54
aS'I-NP'
p55
aS'I-NP'
p56
aS'I-NP'
p57
aS'E-NP'
p58
aS'S-VP'
p59
aS'S-PP'
p60
aS'B-NP'
p61
aS'I-NP'
p62
aS'I-NP'
p63
aS'I-NP'
p64
aS'I-NP'
p65
aS'I-NP'
p66
aS'E-NP'
p67
aS'B-VP'
p68
aS'E-VP'
p69
aS'S-PP'
p70
aS'S-NP'
p71
aS'B-PP'
p72
aS'E-PP'
p73
aS'B-NP'
p74
aS'E-NP'
p75
asS'dep_seq'
p76
(lp77
(lp78
S'nn'
p79
aS'8'
aS'1'
aa(lp80
S'nn'
p81
aS'8'
aS'2'
aa(lp82
S'nn'
p83
aS'8'
aS'3'
aa(lp84
S'nn'
p85
aS'8'
aS'4'
aa(lp86
S'nn'
p87
aS'8'
aS'5'
aa(lp88
S'nn'
p89
aS'8'
aS'6'
aa(lp90
S'nn'
p91
aS'8'
aS'7'
aa(lp92
S'nsubj'
p93
aS'9'
aS'8'
aa(lp94
S'root'
p95
aS'0'
aS'9'
aa(lp96
S'nn'
p97
aS'17'
p98
aS'11'
p99
aa(lp100
S'nn'
p101
aS'17'
p102
aS'12'
p103
aa(lp104
S'nn'
p105
aS'17'
p106
aS'13'
p107
aa(lp108
S'nn'
p109
aS'17'
p110
aS'14'
p111
aa(lp112
S'nn'
p113
aS'17'
p114
aS'15'
p115
aa(lp116
S'prep_by'
p117
aS'9'
aS'17'
p118
aa(lp119
S'dep'
p120
aS'9'
aS'18'
p121
aa(lp122
S'dep'
p123
aS'18'
p124
aS'19'
p125
aa(lp126
S'prep_to'
p127
aS'19'
p128
aS'21'
p129
aa(lp130
S'amod'
p131
aS'25'
p132
aS'24'
p133
aa(lp134
S'prep_because_of'
p135
aS'19'
p136
aS'25'
p137
aasS'srls'
p138
(lp139
(dp140
S'A1'
p141
S'VIAF Id string Virtual International Authority File ID'
p142
sS'A0'
p143
S'by Online Computer Library Center OCLC . Property range set to Agent because of corporate authors18011760'
p144
sS'V'
g33
sa(dp145
S'A1'
p146
S'VIAF Id string Virtual International Authority File ID operated by Online Computer Library Center OCLC . Property'
p147
sS'A3'
p148
S'set to Agent'
p149
sS'AM-CAU'
p150
S'because of corporate authors18011760'
p151
sS'V'
g41
sa(dp152
S'A1'
p153
S'VIAF Id string Virtual International Authority File ID operated by Online Computer Library Center OCLC . Property'
p154
sS'AM-CAU'
p155
S'because of corporate authors18011760'
p156
sS'A2'
p157
S'to Agent'
p158
sS'V'
g42
sasS'pos_seq'
p159
(lp160
S'NNP'
p161
aS'NNP'
p162
aS'NN'
p163
aS'NNP'
p164
aS'NNP'
p165
aS'NNP'
p166
aS'NNP'
p167
aS'NNP'
p168
aS'VBN'
p169
aS'IN'
p170
aS'NNP'
p171
aS'NNP'
p172
aS'NNP'
p173
aS'NNP'
p174
aS'NNP'
p175
aS'.'
aS'NNP'
p176
aS'VBP'
p177
aS'VBN'
p178
aS'TO'
p179
aS'NN'
p180
aS'IN'
p181
aS'IN'
p182
aS'JJ'
p183
aS'NN'
p184
asS'ner_seq'
p185
(lp186
S'O'
aS'O'
aS'O'
aS'B-ORG'
p187
aS'I-ORG'
p188
aS'I-ORG'
p189
aS'I-ORG'
p190
aS'E-ORG'
p191
aS'O'
aS'O'
aS'B-ORG'
p192
aS'I-ORG'
p193
aS'I-ORG'
p194
aS'I-ORG'
p195
aS'E-ORG'
p196
aS'O'
aS'O'
aS'O'
aS'O'
aS'O'
aS'O'
aS'O'
aS'O'
aS'O'
aS'O'
assb.