ccopy_reg
_reconstructor
p1
(c__main__
KBproperty
p2
c__builtin__
object
p3
NtRp4
(dp5
S'comment'
p6
S'The person that creates invents the food eg. Caesar Cardini is the creator of the Caesar salad.313278'
p7
sS'domain'
p8
S'Food '
p9
sS'instances_count'
p10
I197
sS'phrases'
p11
NsS'syn_hypo'
p12
S''
sS'label'
p13
S'creator of dish'
p14
sS'range'
p15
S'Person '
p16
sS'uniq_subjs'
p17
S'197'
p18
sS'uniq_objs'
p19
I0
sS'prop_uri'
p20
S'http://dbpedia.org/ontology/creatorOfDish'
p21
sS'annotations'
p22
(dp23
S'bag_of_words'
p24
(lp25
S'Food'
p26
aS'creator'
p27
aS'of'
p28
aS'dish'
p29
aS'Person'
p30
aS'The'
p31
aS'person'
p32
aS'that'
p33
aS'creates'
p34
aS'invents'
p35
aS'the'
p36
aS'food'
p37
aS'eg.'
p38
aS'Caesar'
p39
aS'Cardini'
p40
aS'is'
p41
aS'the'
p42
aS'creator'
p43
aS'of'
p44
aS'the'
p45
aS'Caesar'
p46
aS'salad.313278'
p47
asS'chunk_seq'
p48
(lp49
S'B-NP'
p50
aS'E-NP'
p51
aS'S-PP'
p52
aS'B-NP'
p53
aS'E-NP'
p54
aS'B-NP'
p55
aS'E-NP'
p56
aS'S-NP'
p57
aS'S-VP'
p58
aS'S-VP'
p59
aS'B-NP'
p60
aS'E-NP'
p61
aS'S-PP'
p62
aS'B-NP'
p63
aS'E-NP'
p64
aS'S-VP'
p65
aS'B-NP'
p66
aS'E-NP'
p67
aS'S-PP'
p68
aS'B-NP'
p69
aS'E-NP'
p70
aS'S-ADJP'
p71
asS'dep_seq'
p72
(lp73
(lp74
S'nn'
p75
aS'2'
aS'1'
aa(lp76
S'nsubj'
p77
aS'9'
aS'2'
aa(lp78
S'nsubj'
p79
aS'18'
p80
aS'2'
aa(lp81
S'nn'
p82
aS'5'
aS'4'
aa(lp83
S'prep_of'
p84
aS'2'
aS'5'
aa(lp85
S'det'
p86
aS'7'
aS'6'
aa(lp87
S'dep'
p88
aS'2'
aS'7'
aa(lp89
S'rcmod'
p90
aS'2'
aS'9'
aa(lp91
S'ccomp'
p92
aS'9'
aS'10'
p93
aa(lp94
S'det'
p95
aS'12'
p96
aS'11'
p97
aa(lp98
S'dobj'
p99
aS'10'
p100
aS'12'
p101
aa(lp102
S'nn'
p103
aS'15'
p104
aS'14'
p105
aa(lp106
S'prep_eg.'
p107
aS'10'
p108
aS'15'
p109
aa(lp110
S'cop'
p111
aS'18'
p112
aS'16'
p113
aa(lp114
S'det'
p115
aS'18'
p116
aS'17'
p117
aa(lp118
S'root'
p119
aS'0'
aS'18'
p120
aa(lp121
S'det'
p122
aS'21'
p123
aS'20'
p124
aa(lp125
S'prep_of'
p126
aS'18'
p127
aS'21'
p128
aa(lp129
S'punct'
p130
aS'21'
p131
aS'22'
p132
aasS'srls'
p133
(lp134
(dp135
S'A0'
p136
S'The person'
p137
sS'R-A0'
p138
g33
sS'V'
g34
sa(dp139
S'A1'
p140
S'the food'
p141
sS'A0'
p142
S'The person'
p143
sS'R-A0'
p144
g33
sS'V'
g35
sasS'pos_seq'
p145
(lp146
S'NN'
p147
aS'NN'
p148
aS'IN'
p149
aS'NN'
p150
aS'NN'
p151
aS'DT'
p152
aS'NN'
p153
aS'WDT'
p154
aS'VBZ'
p155
aS'VBZ'
p156
aS'DT'
p157
aS'NN'
p158
aS'IN'
p159
aS'NNP'
p160
aS'NNP'
p161
aS'VBZ'
p162
aS'DT'
p163
aS'NN'
p164
aS'IN'
p165
aS'DT'
p166
aS'NNP'
p167
aS'.'
asS'ner_seq'
p168
(lp169
S'O'
aS'O'
aS'O'
aS'O'
aS'O'
aS'O'
aS'O'
aS'O'
aS'O'
aS'O'
aS'O'
aS'O'
aS'O'
aS'B-PER'
p170
aS'E-PER'
p171
aS'O'
aS'O'
aS'O'
aS'O'
aS'O'
aS'S-PER'
p172
aS'O'
assb.