ccopy_reg
_reconstructor
p1
(c__main__
KBproperty
p2
c__builtin__
object
p3
NtRp4
(dp5
S'comment'
p6
S'00'
p7
sS'domain'
p8
S'Ice Hockey Player '
p9
sS'instances_count'
p10
I0
sS'phrases'
p11
NsS'syn_hypo'
p12
S''
sS'label'
p13
S'lchf draft year'
p14
sS'range'
p15
S'string '
p16
sS'uniq_subjs'
p17
S'0'
sS'uniq_objs'
p18
I0
sS'prop_uri'
p19
S'http://dbpedia.org/ontology/lchfDraftYear'
p20
sS'annotations'
p21
(dp22
S'bag_of_words'
p23
(lp24
S'Ice'
p25
aS'Hockey'
p26
aS'Player'
p27
aS'lchf'
p28
aS'draft'
p29
aS'year'
p30
aS'string'
p31
aS'00'
p32
asS'chunk_seq'
p33
(lp34
S'B-NP'
p35
aS'I-NP'
p36
aS'I-NP'
p37
aS'I-NP'
p38
aS'I-NP'
p39
aS'I-NP'
p40
aS'E-NP'
p41
aS'S-NP'
p42
asS'dep_seq'
p43
(lp44
(lp45
S'nn'
p46
aS'3'
aS'1'
aa(lp47
S'nn'
p48
aS'3'
aS'2'
aa(lp49
S'nsubj'
p50
aS'4'
aS'3'
aa(lp51
S'root'
p52
aS'0'
aS'4'
aa(lp53
S'dep'
p54
aS'4'
aS'5'
aa(lp55
S'nn'
p56
aS'7'
aS'6'
aa(lp57
S'dobj'
p58
aS'4'
aS'7'
aa(lp59
S'num'
p60
aS'7'
aS'8'
aasS'srls'
p61
(lp62
sS'pos_seq'
p63
(lp64
S'NNP'
p65
aS'NNP'
p66
aS'NNP'
p67
aS'NN'
p68
aS'NN'
p69
aS'NN'
p70
aS'NN'
p71
aS'CD'
p72
asS'ner_seq'
p73
(lp74
S'B-MISC'
p75
aS'I-MISC'
p76
aS'E-MISC'
p77
aS'O'
aS'O'
aS'O'
aS'O'
aS'O'
assb.