ccopy_reg
_reconstructor
p1
(c__main__
KBproperty
p2
c__builtin__
object
p3
NtRp4
(dp5
S'comment'
p6
S'00'
p7
sS'domain'
p8
S'Place '
p9
sS'instances_count'
p10
I0
sS'phrases'
p11
NsS'syn_hypo'
p12
S''
sS'label'
p13
S'authority mandate'
p14
sS'range'
p15
S'string '
p16
sS'uniq_subjs'
p17
S'0'
sS'uniq_objs'
p18
I0
sS'prop_uri'
p19
S'http://dbpedia.org/ontology/authorityMandate'
p20
sS'annotations'
p21
(dp22
S'bag_of_words'
p23
(lp24
S'Place'
p25
aS'authority'
p26
aS'mandate'
p27
aS'string'
p28
aS'00'
p29
asS'chunk_seq'
p30
(lp31
S'B-NP'
p32
aS'I-NP'
p33
aS'I-NP'
p34
aS'E-NP'
p35
aS'O'
asS'dep_seq'
p36
(lp37
(lp38
S'nn'
p39
aS'4'
aS'1'
aa(lp40
S'nn'
p41
aS'4'
aS'2'
aa(lp42
S'nn'
p43
aS'4'
aS'3'
aa(lp44
S'root'
p45
aS'0'
aS'4'
aa(lp46
S'advmod'
p47
aS'4'
aS'5'
aasS'srls'
p48
(lp49
(dp50
S'A1'
p51
S'string 00'
p52
sS'A0'
p53
S'Place authority'
p54
sS'V'
g27
sasS'pos_seq'
p55
(lp56
S'NN'
p57
aS'NN'
p58
aS'NN'
p59
aS'NN'
p60
aS'CD'
p61
asS'ner_seq'
p62
(lp63
S'O'
aS'O'
aS'O'
aS'O'
aS'O'
assb.