ccopy_reg
_reconstructor
p1
(c__main__
KBproperty
p2
c__builtin__
object
p3
NtRp4
(dp5
S'comment'
p6
S'Ruling referred to in this legal case00'
p7
sS'domain'
p8
S'Legal Case '
p9
sS'instances_count'
p10
I0
sS'phrases'
p11
NsS'syn_hypo'
p12
Vfatwa
p13
sS'label'
p14
S'ruling'
p15
sS'range'
p16
S'string '
p17
sS'uniq_subjs'
p18
S'0'
sS'uniq_objs'
p19
I0
sS'prop_uri'
p20
S'http://dbpedia.org/ontology/ruling'
p21
sS'annotations'
p22
(dp23
S'bag_of_words'
p24
(lp25
S'Legal'
p26
aS'Case'
p27
aS'ruling'
p28
aS'string'
p29
aS'Ruling'
p30
aS'referred'
p31
aS'to'
p32
aS'in'
p33
aS'this'
p34
aS'legal'
p35
aS'case00'
p36
asS'chunk_seq'
p37
(lp38
S'B-NP'
p39
aS'I-NP'
p40
aS'I-NP'
p41
aS'I-NP'
p42
aS'E-NP'
p43
aS'S-VP'
p44
aS'S-PP'
p45
aS'S-PP'
p46
aS'B-NP'
p47
aS'I-NP'
p48
aS'E-NP'
p49
asS'dep_seq'
p50
(lp51
(lp52
S'amod'
p53
aS'5'
aS'1'
aa(lp54
S'nn'
p55
aS'5'
aS'2'
aa(lp56
S'nn'
p57
aS'5'
aS'3'
aa(lp58
S'nn'
p59
aS'5'
aS'4'
aa(lp60
S'nsubj'
p61
aS'6'
aS'5'
aa(lp62
S'root'
p63
aS'0'
aS'6'
aa(lp64
S'prep'
p65
aS'6'
aS'7'
aa(lp66
S'pcomp'
p67
aS'7'
aS'8'
aa(lp68
S'det'
p69
aS'11'
p70
aS'9'
aa(lp71
S'amod'
p72
aS'11'
p73
aS'10'
p74
aa(lp75
S'pobj'
p76
aS'8'
aS'11'
p77
aasS'srls'
p78
(lp79
(dp80
S'A1'
p81
S'to in this legal case00'
p82
sS'A0'
p83
S'Legal Case ruling string Ruling'
p84
sS'V'
g31
sasS'pos_seq'
p85
(lp86
S'JJ'
p87
aS'NN'
p88
aS'NN'
p89
aS'NN'
p90
aS'NN'
p91
aS'VBD'
p92
aS'TO'
p93
aS'IN'
p94
aS'DT'
p95
aS'JJ'
p96
aS'NN'
p97
asS'ner_seq'
p98
(lp99
S'O'
aS'O'
aS'O'
aS'O'
aS'O'
aS'O'
aS'O'
aS'O'
aS'O'
aS'O'
aS'O'
assb.