ccopy_reg
_reconstructor
p1
(c__main__
KBproperty
p2
c__builtin__
object
p3
NtRp4
(dp5
S'comment'
p6
S'4464142303'
p7
sS'domain'
p8
S''
sS'instances_count'
p9
I4576
sS'phrases'
p10
NsS'syn_hypo'
p11
Vbaseball_leagueleagueconferencebasketball_leagueleagueconferencebowling_leagueleagueconferenceclassleagueconferencedivisionleagueconferencefootball_leagueleagueconferencehockey_leagueleagueconferenceIvy_Leagueleagueconferencemajor_leagueleagueconferencebig_leagueleagueconferencemajorsleagueconferenceminor_leagueleagueconferenceminorsleagueconferencebush_league
p12
sS'label'
p13
S'league'
p14
sS'range'
p15
S'Sports League '
p16
sS'uniq_subjs'
p17
S'4576'
p18
sS'uniq_objs'
p19
I0
sS'prop_uri'
p20
S'http://dbpedia.org/ontology/league'
p21
sS'annotations'
p22
(dp23
S'bag_of_words'
p24
(lp25
S'league'
p26
aS'Sports'
p27
aS'League'
p28
aS'4464142303'
p29
asS'chunk_seq'
p30
(lp31
S'B-NP'
p32
aS'I-NP'
p33
aS'E-NP'
p34
aS'S-ADJP'
p35
asS'dep_seq'
p36
(lp37
(lp38
S'nn'
p39
aS'3'
aS'1'
aa(lp40
S'nn'
p41
aS'3'
aS'2'
aa(lp42
S'root'
p43
aS'0'
aS'3'
aa(lp44
S'punct'
p45
aS'3'
aS'4'
aasS'srls'
p46
(lp47
sS'pos_seq'
p48
(lp49
S'NN'
p50
aS'NNP'
p51
aS'NNP'
p52
aS'.'
asS'ner_seq'
p53
(lp54
S'O'
aS'B-MISC'
p55
aS'E-MISC'
p56
aS'O'
assb.