ccopy_reg
_reconstructor
p1
(c__main__
KBproperty
p2
c__builtin__
object
p3
NtRp4
(dp5
S'comment'
p6
S'The date on which regular broadcasts began.1374312814'
p7
sS'domain'
p8
S'Broadcaster '
p9
sS'instances_count'
p10
I8329
sS'phrases'
p11
NsS'syn_hypo'
p12
S''
sS'label'
p13
S'first air date'
p14
sS'range'
p15
S'date '
p16
sS'uniq_subjs'
p17
S'8329'
p18
sS'uniq_objs'
p19
I0
sS'prop_uri'
p20
S'http://dbpedia.org/ontology/firstAirDate'
p21
sS'annotations'
p22
(dp23
S'bag_of_words'
p24
(lp25
S'Broadcaster'
p26
aS'first'
p27
aS'air'
p28
aS'date'
p29
aS'date'
p30
aS'The'
p31
aS'date'
p32
aS'on'
p33
aS'which'
p34
aS'regular'
p35
aS'broadcasts'
p36
aS'began.1374312814'
p37
asS'chunk_seq'
p38
(lp39
S'B-NP'
p40
aS'I-NP'
p41
aS'I-NP'
p42
aS'E-NP'
p43
aS'S-NP'
p44
aS'B-NP'
p45
aS'E-NP'
p46
aS'S-PP'
p47
aS'S-NP'
p48
aS'B-NP'
p49
aS'E-NP'
p50
aS'S-ADJP'
p51
asS'dep_seq'
p52
(lp53
(lp54
S'nn'
p55
aS'5'
aS'1'
aa(lp56
S'amod'
p57
aS'5'
aS'2'
aa(lp58
S'nn'
p59
aS'5'
aS'3'
aa(lp60
S'nn'
p61
aS'5'
aS'4'
aa(lp62
S'dep'
p63
aS'7'
aS'5'
aa(lp64
S'det'
p65
aS'7'
aS'6'
aa(lp66
S'root'
p67
aS'0'
aS'7'
aa(lp68
S'prepc_on'
p69
aS'7'
aS'9'
aa(lp70
S'amod'
p71
aS'11'
p72
aS'10'
p73
aa(lp74
S'dep'
p75
aS'9'
aS'11'
p76
aa(lp77
S'punct'
p78
aS'11'
p79
aS'12'
p80
aasS'srls'
p81
(lp82
sS'pos_seq'
p83
(lp84
S'NN'
p85
aS'JJ'
p86
aS'NN'
p87
aS'NN'
p88
aS'NN'
p89
aS'DT'
p90
aS'NN'
p91
aS'IN'
p92
aS'WDT'
p93
aS'JJ'
p94
aS'NNS'
p95
aS'.'
asS'ner_seq'
p96
(lp97
S'O'
aS'O'
aS'O'
aS'O'
aS'O'
aS'O'
aS'O'
aS'O'
aS'O'
aS'O'
aS'O'
aS'O'
assb.