ccopy_reg
_reconstructor
p1
(c__main__
KBproperty
p2
c__builtin__
object
p3
NtRp4
(dp5
S'comment'
p6
S'BIBSYS is a supplier of library and information systems for all Norwegian university Libraries the National Library of Norway college libraries and a number of research libraries and institutions.22'
p7
sS'domain'
p8
S''
sS'instances_count'
p9
I2
sS'phrases'
p10
NsS'syn_hypo'
p11
S''
sS'label'
p12
S'BIBSYS Id'
p13
sS'range'
p14
S'string '
p15
sS'uniq_subjs'
p16
S'2'
sS'uniq_objs'
p17
I0
sS'prop_uri'
p18
S'http://dbpedia.org/ontology/bibsysId'
p19
sS'annotations'
p20
(dp21
S'bag_of_words'
p22
(lp23
S'BIBSYS'
p24
aS'Id'
p25
aS'string'
p26
aS'BIBSYS'
p27
aS'is'
p28
aS'a'
aS'supplier'
p29
aS'of'
p30
aS'library'
p31
aS'and'
p32
aS'information'
p33
aS'systems'
p34
aS'for'
p35
aS'all'
p36
aS'Norwegian'
p37
aS'university'
p38
aS'Libraries'
p39
aS'the'
p40
aS'National'
p41
aS'Library'
p42
aS'of'
p43
aS'Norway'
p44
aS'college'
p45
aS'libraries'
p46
aS'and'
p47
aS'a'
aS'number'
p48
aS'of'
p49
aS'research'
p50
aS'libraries'
p51
aS'and'
p52
aS'institutions.22'
p53
asS'chunk_seq'
p54
(lp55
S'B-NP'
p56
aS'I-NP'
p57
aS'I-NP'
p58
aS'E-NP'
p59
aS'S-VP'
p60
aS'B-NP'
p61
aS'E-NP'
p62
aS'S-PP'
p63
aS'B-NP'
p64
aS'I-NP'
p65
aS'I-NP'
p66
aS'E-NP'
p67
aS'S-PP'
p68
aS'B-NP'
p69
aS'I-NP'
p70
aS'I-NP'
p71
aS'E-NP'
p72
aS'B-NP'
p73
aS'I-NP'
p74
aS'E-NP'
p75
aS'S-PP'
p76
aS'S-NP'
p77
aS'B-NP'
p78
aS'E-NP'
p79
aS'O'
aS'B-NP'
p80
aS'E-NP'
p81
aS'S-PP'
p82
aS'B-NP'
p83
aS'I-NP'
p84
aS'I-NP'
p85
aS'E-NP'
p86
asS'dep_seq'
p87
(lp88
(lp89
S'nn'
p90
aS'4'
aS'1'
aa(lp91
S'nn'
p92
aS'4'
aS'2'
aa(lp93
S'nn'
p94
aS'4'
aS'3'
aa(lp95
S'nsubj'
p96
aS'7'
aS'4'
aa(lp97
S'cop'
p98
aS'7'
aS'5'
aa(lp99
S'det'
p100
aS'7'
aS'6'
aa(lp101
S'root'
p102
aS'0'
aS'7'
aa(lp103
S'nn'
p104
aS'12'
p105
aS'9'
aa(lp106
S'conj_and'
p107
aS'9'
aS'11'
p108
aa(lp109
S'prep_of'
p110
aS'7'
aS'12'
p111
aa(lp112
S'det'
p113
aS'17'
p114
aS'14'
p115
aa(lp116
S'amod'
p117
aS'17'
p118
aS'15'
p119
aa(lp120
S'nn'
p121
aS'17'
p122
aS'16'
p123
aa(lp124
S'prep_for'
p125
aS'7'
aS'17'
p126
aa(lp127
S'det'
p128
aS'20'
p129
aS'18'
p130
aa(lp131
S'nn'
p132
aS'20'
p133
aS'19'
p134
aa(lp135
S'attr'
p136
aS'7'
aS'20'
p137
aa(lp138
S'prep_of'
p139
aS'20'
p140
aS'22'
p141
aa(lp142
S'nn'
p143
aS'24'
p144
aS'23'
p145
aa(lp146
S'dep'
p147
aS'20'
p148
aS'24'
p149
aa(lp150
S'det'
p151
aS'27'
p152
aS'26'
p153
aa(lp154
S'conj_and'
p155
aS'20'
p156
aS'27'
p157
aa(lp158
S'nn'
p159
aS'30'
p160
aS'29'
p161
aa(lp162
S'prep_of'
p163
aS'27'
p164
aS'30'
p165
aa(lp166
S'conj_and'
p167
aS'30'
p168
aS'32'
p169
aasS'srls'
p170
(lp171
sS'pos_seq'
p172
(lp173
S'NNP'
p174
aS'NNP'
p175
aS'NN'
p176
aS'NNP'
p177
aS'VBZ'
p178
aS'DT'
p179
aS'NN'
p180
aS'IN'
p181
aS'NN'
p182
aS'CC'
p183
aS'NN'
p184
aS'NNS'
p185
aS'IN'
p186
aS'DT'
p187
aS'JJ'
p188
aS'NN'
p189
aS'NNS'
p190
aS'DT'
p191
aS'NNP'
p192
aS'NNP'
p193
aS'IN'
p194
aS'NNP'
p195
aS'NN'
p196
aS'NNS'
p197
aS'CC'
p198
aS'DT'
p199
aS'NN'
p200
aS'IN'
p201
aS'NN'
p202
aS'NNS'
p203
aS'CC'
p204
aS'NN'
p205
asS'ner_seq'
p206
(lp207
S'O'
aS'O'
aS'O'
aS'S-ORG'
p208
aS'O'
aS'O'
aS'O'
aS'O'
aS'O'
aS'O'
aS'O'
aS'O'
aS'O'
aS'O'
aS'S-MISC'
p209
aS'O'
aS'O'
aS'O'
aS'B-ORG'
p210
aS'E-ORG'
p211
aS'O'
aS'S-LOC'
p212
aS'O'
aS'O'
aS'O'
aS'O'
aS'O'
aS'O'
aS'O'
aS'O'
aS'O'
aS'O'
assb.