ccopy_reg
_reconstructor
p1
(c__main__
KBproperty
p2
c__builtin__
object
p3
NtRp4
(dp5
S'comment'
p6
S'FilmPolski.pl id'
p7
sS'domain'
p8
S''
sS'instances_count'
p9
I0
sS'phrases'
p10
NsS'syn_hypo'
p11
S''
sS'label'
p12
g7
sS'range'
p13
S'string '
p14
sS'uniq_subjs'
p15
S'0'
sS'uniq_objs'
p16
I0
sS'prop_uri'
p17
S'http://dbpedia.org/ontology/filmPolskiId'
p18
sS'annotations'
p19
(dp20
S'bag_of_words'
p21
(lp22
S'film'
p23
aS'Polski'
p24
aS'Id'
p25
aS'string'
p26
aS'FilmPolski'
p27
aS'.'
aS'pl'
p28
aS'id'
p29
asS'chunk_seq'
p30
(lp31
S'B-NP'
p32
aS'I-NP'
p33
aS'I-NP'
p34
aS'I-NP'
p35
aS'E-NP'
p36
aS'O'
aS'O'
aS'O'
asS'dep_seq'
p37
(lp38
(lp39
S'nn'
p40
aS'8'
aS'1'
aa(lp41
S'nn'
p42
aS'8'
aS'2'
aa(lp43
S'nn'
p44
aS'8'
aS'3'
aa(lp45
S'nn'
p46
aS'8'
aS'4'
aa(lp47
S'nn'
p48
aS'8'
aS'5'
aa(lp49
S'punct'
p50
aS'8'
aS'7'
aa(lp51
S'root'
p52
aS'0'
aS'8'
aasS'srls'
p53
(lp54
sS'pos_seq'
p55
(lp56
S'NN'
p57
aS'NNP'
p58
aS'NNP'
p59
aS'NN'
p60
aS'NNP'
p61
aS'.'
aS'-RRB-'
p62
aS'NN'
p63
asS'ner_seq'
p64
(lp65
S'O'
aS'B-MISC'
p66
aS'I-MISC'
p67
aS'I-MISC'
p68
aS'E-MISC'
p69
aS'O'
aS'O'
aS'O'
assb.