ccopy_reg
_reconstructor
p1
(c__main__
KBproperty
p2
c__builtin__
object
p3
NtRp4
(dp5
S'comment'
p6
S'384547284317'
p7
sS'domain'
p8
S'Species '
p9
sS'instances_count'
p10
I10896
sS'phrases'
p11
NsS'syn_hypo'
p12
Vbroken_homefamilyhouseholdhousehomemenageextended_familyfamilyhouseholdhousehomemenagefoster_familyfamilyhouseholdhousehomemenagefoster_homefamilyhouseholdhousehomemenagemenage_a_troisfamilyhouseholdhousehomemenagenuclear_familyfamilyhouseholdhousehomemenageconjugal_family
p13
sS'label'
p14
S'family'
p15
sS'range'
p16
S'Species '
p17
sS'uniq_subjs'
p18
S'10896'
p19
sS'uniq_objs'
p20
I0
sS'prop_uri'
p21
S'http://dbpedia.org/ontology/family'
p22
sS'annotations'
p23
(dp24
S'bag_of_words'
p25
(lp26
S'Species'
p27
aS'family'
p28
aS'Species'
p29
aS'384547284317'
p30
asS'chunk_seq'
p31
(lp32
S'B-NP'
p33
aS'I-NP'
p34
aS'E-NP'
p35
aS'S-ADJP'
p36
asS'dep_seq'
p37
(lp38
(lp39
S'nn'
p40
aS'3'
aS'1'
aa(lp41
S'nn'
p42
aS'3'
aS'2'
aa(lp43
S'root'
p44
aS'0'
aS'3'
aa(lp45
S'dep'
p46
aS'3'
aS'4'
aasS'srls'
p47
(lp48
sS'pos_seq'
p49
(lp50
S'NNP'
p51
aS'NN'
p52
aS'NNS'
p53
aS'.'
asS'ner_seq'
p54
(lp55
S'O'
aS'O'
aS'O'
aS'O'
assb.