ccopy_reg
_reconstructor
p1
(c__main__
KBproperty
p2
c__builtin__
object
p3
NtRp4
(dp5
S'comment'
p6
S'format object'
p7
sS'domain'
p8
S''
sS'instances_count'
p9
I76963
sS'phrases'
p10
NsS'syn_hypo'
p11
S''
sS'label'
p12
g7
sS'range'
p13
S''
sS'uniq_subjs'
p14
S'575'
p15
sS'uniq_objs'
p16
I0
sS'prop_uri'
p17
S'http://dbpedia.org/ontology/format'
p18
sS'annotations'
p19
(dp20
S'bag_of_words'
p21
(lp22
S'format'
p23
aS'format'
p24
aS'object'
p25
asS'chunk_seq'
p26
(lp27
S'B-NP'
p28
aS'I-NP'
p29
aS'E-NP'
p30
asS'dep_seq'
p31
(lp32
(lp33
S'nn'
p34
aS'3'
aS'1'
aa(lp35
S'nn'
p36
aS'3'
aS'2'
aa(lp37
S'root'
p38
aS'0'
aS'3'
aasS'srls'
p39
(lp40
sS'pos_seq'
p41
(lp42
S'NN'
p43
aS'NN'
p44
aS'NN'
p45
asS'ner_seq'
p46
(lp47
S'O'
aS'O'
aS'O'
assb.