ccopy_reg
_reconstructor
p1
(c__main__
KBproperty
p2
c__builtin__
object
p3
NtRp4
(dp5
S'comment'
p6
S'number of breaks with 100 points and more356356'
p7
sS'domain'
p8
S'Snooker Player '
p9
sS'instances_count'
p10
I124
sS'phrases'
p11
NsS'syn_hypo'
p12
S''
sS'label'
p13
S'century breaks'
p14
sS'range'
p15
S'integer '
p16
sS'uniq_subjs'
p17
S'124'
p18
sS'uniq_objs'
p19
I0
sS'prop_uri'
p20
S'http://dbpedia.org/ontology/centuryBreaks'
p21
sS'annotations'
p22
(dp23
S'bag_of_words'
p24
(lp25
S'Snooker'
p26
aS'Player'
p27
aS'century'
p28
aS'breaks'
p29
aS'integer'
p30
aS'number'
p31
aS'of'
p32
aS'breaks'
p33
aS'with'
p34
aS'100'
p35
aS'points'
p36
aS'and'
p37
aS'more356356'
p38
asS'chunk_seq'
p39
(lp40
S'B-NP'
p41
aS'I-NP'
p42
aS'E-NP'
p43
aS'S-VP'
p44
aS'B-NP'
p45
aS'E-NP'
p46
aS'S-PP'
p47
aS'S-NP'
p48
aS'S-PP'
p49
aS'B-NP'
p50
aS'I-NP'
p51
aS'I-NP'
p52
aS'E-NP'
p53
asS'dep_seq'
p54
(lp55
(lp56
S'nn'
p57
aS'3'
aS'1'
aa(lp58
S'nn'
p59
aS'3'
aS'2'
aa(lp60
S'nsubj'
p61
aS'4'
aS'3'
aa(lp62
S'root'
p63
aS'0'
aS'4'
aa(lp64
S'amod'
p65
aS'6'
aS'5'
aa(lp66
S'dobj'
p67
aS'4'
aS'6'
aa(lp68
S'prep_of'
p69
aS'6'
aS'8'
aa(lp70
S'num'
p71
aS'11'
p72
aS'10'
p73
aa(lp74
S'prep_with'
p75
aS'8'
aS'11'
p76
aa(lp77
S'conj_and'
p78
aS'11'
p79
aS'13'
p80
aasS'srls'
p81
(lp82
(dp83
S'A1'
p84
S'integer number of breaks'
p85
sS'A0'
p86
S'Snooker Player century more356356'
p87
sS'A2'
p88
S'with 100 points'
p89
sS'V'
g29
sasS'pos_seq'
p90
(lp91
S'NNP'
p92
aS'NNP'
p93
aS'NN'
p94
aS'VBZ'
p95
aS'JJR'
p96
aS'NN'
p97
aS'IN'
p98
aS'NNS'
p99
aS'IN'
p100
aS'CD'
p101
aS'NNS'
p102
aS'CC'
p103
aS'NN'
p104
asS'ner_seq'
p105
(lp106
S'O'
aS'O'
aS'O'
aS'O'
aS'O'
aS'O'
aS'O'
aS'O'
aS'O'
aS'O'
aS'O'
aS'O'
aS'O'
assb.