ccopy_reg
_reconstructor
p1
(c__main__
KBproperty
p2
c__builtin__
object
p3
NtRp4
(dp5
S'comment'
p6
S'2317614993'
p7
sS'domain'
p8
S'Broadcaster '
p9
sS'instances_count'
p10
I5262
sS'phrases'
p11
NsS'syn_hypo'
p12
S''
sS'label'
p13
S'broadcast area'
p14
sS'range'
p15
S'Populated Place '
p16
sS'uniq_subjs'
p17
S'5262'
p18
sS'uniq_objs'
p19
I0
sS'prop_uri'
p20
S'http://dbpedia.org/ontology/broadcastArea'
p21
sS'annotations'
p22
(dp23
S'bag_of_words'
p24
(lp25
S'Broadcaster'
p26
aS'broadcast'
p27
aS'area'
p28
aS'Populated'
p29
aS'Place'
p30
aS'2317614993'
p31
asS'chunk_seq'
p32
(lp33
S'B-NP'
p34
aS'I-NP'
p35
aS'I-NP'
p36
aS'I-NP'
p37
aS'I-NP'
p38
aS'E-NP'
p39
asS'dep_seq'
p40
(lp41
(lp42
S'nn'
p43
aS'3'
aS'1'
aa(lp44
S'nn'
p45
aS'3'
aS'2'
aa(lp46
S'root'
p47
aS'0'
aS'3'
aa(lp48
S'amod'
p49
aS'6'
aS'4'
aa(lp50
S'nn'
p51
aS'6'
aS'5'
aa(lp52
S'dep'
p53
aS'3'
aS'6'
aasS'srls'
p54
(lp55
(dp56
S'A1'
p57
S'area Populated Place 2317614993'
p58
sS'A0'
p59
g26
sS'V'
g27
sasS'pos_seq'
p60
(lp61
S'NN'
p62
aS'NN'
p63
aS'NN'
p64
aS'JJ'
p65
aS'NN'
p66
aS'NN'
p67
asS'ner_seq'
p68
(lp69
S'O'
aS'O'
aS'O'
aS'O'
aS'O'
aS'O'
assb.