ccopy_reg
_reconstructor
p1
(c__main__
KBproperty
p2
c__builtin__
object
p3
NtRp4
(dp5
S'comment'
p6
S'00'
p7
sS'domain'
p8
S''
sS'instances_count'
p9
I0
sS'phrases'
p10
NsS'syn_hypo'
p11
S''
sS'label'
p12
S'sublimation point K'
p13
sS'range'
p14
S'double '
p15
sS'uniq_subjs'
p16
S'0'
sS'uniq_objs'
p17
I0
sS'prop_uri'
p18
S'http://dbpedia.org/ontology/sublimationPoint'
p19
sS'annotations'
p20
(dp21
S'bag_of_words'
p22
(lp23
S'sublimation'
p24
aS'point'
p25
aS'K'
aS'double'
p26
aS'00'
p27
asS'chunk_seq'
p28
(lp29
S'B-NP'
p30
aS'I-NP'
p31
aS'E-NP'
p32
aS'B-NP'
p33
aS'E-NP'
p34
asS'dep_seq'
p35
(lp36
(lp37
S'nn'
p38
aS'2'
aS'1'
aa(lp39
S'root'
p40
aS'0'
aS'2'
aa(lp41
S'dep'
p42
aS'2'
aS'3'
aa(lp43
S'advmod'
p44
aS'3'
aS'4'
aa(lp45
S'num'
p46
aS'3'
aS'5'
aasS'srls'
p47
(lp48
sS'pos_seq'
p49
(lp50
S'NN'
p51
aS'NN'
p52
aS'NNP'
p53
aS'RB'
p54
aS'CD'
p55
asS'ner_seq'
p56
(lp57
S'O'
aS'O'
aS'O'
aS'O'
aS'O'
assb.