ccopy_reg
_reconstructor
p1
(c__main__
KBproperty
p2
c__builtin__
object
p3
NtRp4
(dp5
S'comment'
p6
S'population density /sqkm'
p7
sS'domain'
p8
S'Populated Place '
p9
sS'instances_count'
p10
I26710
sS'phrases'
p11
NsS'syn_hypo'
p12
S''
sS'label'
p13
g7
sS'range'
p14
S'double '
p15
sS'uniq_subjs'
p16
S'26710'
p17
sS'uniq_objs'
p18
I0
sS'prop_uri'
p19
S'http://dbpedia.org/ontology/populationDensity'
p20
sS'annotations'
p21
(dp22
S'bag_of_words'
p23
(lp24
S'Populated'
p25
aS'Place'
p26
aS'population'
p27
aS'Density'
p28
aS'double'
p29
aS'population'
p30
aS'density'
p31
aS'/s'
p32
aS'qkm'
p33
asS'chunk_seq'
p34
(lp35
S'B-NP'
p36
aS'I-NP'
p37
aS'I-NP'
p38
aS'I-NP'
p39
aS'I-NP'
p40
aS'I-NP'
p41
aS'E-NP'
p42
aS'O'
aS'O'
asS'dep_seq'
p43
(lp44
(lp45
S'amod'
p46
aS'4'
aS'1'
aa(lp47
S'nn'
p48
aS'4'
aS'2'
aa(lp49
S'nn'
p50
aS'4'
aS'3'
aa(lp51
S'dep'
p52
aS'7'
aS'4'
aa(lp53
S'amod'
p54
aS'7'
aS'5'
aa(lp55
S'nn'
p56
aS'7'
aS'6'
aa(lp57
S'root'
p58
aS'0'
aS'7'
aa(lp59
S'dep'
p60
aS'7'
aS'8'
aa(lp61
S'advmod'
p62
aS'8'
aS'9'
aasS'srls'
p63
(lp64
sS'pos_seq'
p65
(lp66
S'JJ'
p67
aS'NN'
p68
aS'NN'
p69
aS'NNP'
p70
aS'JJ'
p71
aS'NN'
p72
aS'NN'
p73
aS'FW'
p74
aS'FW'
p75
asS'ner_seq'
p76
(lp77
S'O'
aS'O'
aS'O'
aS'O'
aS'O'
aS'O'
aS'O'
aS'O'
aS'O'
assb.