ccopy_reg
_reconstructor
p1
(c__main__
KBproperty
p2
c__builtin__
object
p3
NtRp4
(dp5
S'comment'
p6
S'848535'
p7
sS'domain'
p8
S''
sS'instances_count'
p9
I662
sS'phrases'
p10
NsS'syn_hypo'
p11
Vblue_ribbon_commissioncommitteecommissionblue_ribbon_committeecommitteecommissionboardcommitteecommissionconservancycommitteecommissionEconomic_and_Social_Council_commissioncommitteecommissionECOSOC_commissioncommitteecommissionelection_commissioncommitteecommissionethics_committeecommitteecommissionethics_panelcommitteecommissionfairness_commissioncommitteecommissionfinance_committeecommitteecommissionjurycommitteecommissionpanelcommitteecommissionplanning_commissioncommitteecommissionpolitburocommitteecommissionpolitical_action_committeecommitteecommissionPACcommitteecommissionpresidiumcommitteecommissionpraesidiumcommitteecommissionselect_committeecommitteecommissionstanding_committeecommitteecommissionsteering_committeecommitteecommissionsubcommitteecommitteecommissionvestrycommitteecommissionzoning_commission
p12
sS'label'
p13
S'committee'
p14
sS'range'
p15
S'string '
p16
sS'uniq_subjs'
p17
S'662'
p18
sS'uniq_objs'
p19
I0
sS'prop_uri'
p20
S'http://dbpedia.org/ontology/committee'
p21
sS'annotations'
p22
(dp23
S'bag_of_words'
p24
(lp25
S'committee'
p26
aS'string'
p27
aS'848535'
p28
asS'chunk_seq'
p29
(lp30
S'B-NP'
p31
aS'I-NP'
p32
aS'E-NP'
p33
asS'dep_seq'
p34
(lp35
(lp36
S'nn'
p37
aS'3'
aS'1'
aa(lp38
S'nn'
p39
aS'3'
aS'2'
aa(lp40
S'root'
p41
aS'0'
aS'3'
aasS'srls'
p42
(lp43
sS'pos_seq'
p44
(lp45
S'NN'
p46
aS'NN'
p47
aS'NN'
p48
asS'ner_seq'
p49
(lp50
S'O'
aS'O'
aS'O'
assb.