ccopy_reg
_reconstructor
p1
(c__main__
KBproperty
p2
c__builtin__
object
p3
NtRp4
(dp5
S'comment'
p6
S'22'
p7
sS'domain'
p8
S'Given Name '
p9
sS'instances_count'
p10
I2
sS'phrases'
p11
NsS'syn_hypo'
p12
S''
sS'label'
p13
S'name day'
p14
sS'range'
p15
S'date '
p16
sS'uniq_subjs'
p17
S'2'
sS'uniq_objs'
p18
I0
sS'prop_uri'
p19
S'http://dbpedia.org/ontology/nameDay'
p20
sS'annotations'
p21
(dp22
S'bag_of_words'
p23
(lp24
S'Given'
p25
aS'Name'
p26
aS'name'
p27
aS'day'
p28
aS'date'
p29
aS'22'
p30
asS'chunk_seq'
p31
(lp32
S'S-PP'
p33
aS'B-NP'
p34
aS'I-NP'
p35
aS'I-NP'
p36
aS'E-NP'
p37
aS'S-NP'
p38
asS'dep_seq'
p39
(lp40
(lp41
S'dep'
p42
aS'6'
aS'1'
aa(lp43
S'nn'
p44
aS'5'
aS'2'
aa(lp45
S'nn'
p46
aS'5'
aS'3'
aa(lp47
S'nn'
p48
aS'5'
aS'4'
aa(lp49
S'dep'
p50
aS'1'
aS'5'
aa(lp51
S'root'
p52
aS'0'
aS'6'
aasS'srls'
p53
(lp54
(dp55
S'A1'
p56
S'Name name day date 22'
p57
sS'V'
g25
sasS'pos_seq'
p58
(lp59
S'VBN'
p60
aS'NN'
p61
aS'NN'
p62
aS'NN'
p63
aS'NN'
p64
aS'NN'
p65
asS'ner_seq'
p66
(lp67
S'O'
aS'O'
aS'O'
aS'O'
aS'O'
aS'O'
assb.