ccopy_reg
_reconstructor
p1
(c__main__
KBproperty
p2
c__builtin__
object
p3
NtRp4
(dp5
S'comment'
p6
S'mean radius \\xce\\xbc'
p7
sS'domain'
p8
S'Planet '
p9
sS'instances_count'
p10
I38
sS'phrases'
p11
NsS'syn_hypo'
p12
S''
sS'label'
p13
g7
sS'range'
p14
S'double '
p15
sS'uniq_subjs'
p16
S'38'
p17
sS'uniq_objs'
p18
I0
sS'prop_uri'
p19
S'http://dbpedia.org/ontology/meanRadius'
p20
sS'annotations'
p21
(dp22
S'bag_of_words'
p23
(lp24
S'Planet'
p25
aS'mean'
p26
aS'Radius'
p27
aS'double'
p28
aS'mean'
p29
aS'radius'
p30
aS'\\'
aS'xce'
p31
aS'\\'
aS'xbc'
p32
asS'chunk_seq'
p33
(lp34
S'S-NP'
p35
aS'S-VP'
p36
aS'B-NP'
p37
aS'I-NP'
p38
aS'I-NP'
p39
aS'E-NP'
p40
aS'O'
aS'O'
aS'O'
aS'O'
asS'dep_seq'
p41
(lp42
(lp43
S'nn'
p44
aS'6'
aS'1'
aa(lp45
S'dep'
p46
aS'6'
aS'2'
aa(lp47
S'nn'
p48
aS'6'
aS'3'
aa(lp49
S'amod'
p50
aS'6'
aS'4'
aa(lp51
S'amod'
p52
aS'6'
aS'5'
aa(lp53
S'root'
p54
aS'0'
aS'6'
aa(lp55
S'nn'
p56
aS'6'
aS'7'
aa(lp57
S'nn'
p58
aS'6'
aS'8'
aa(lp59
S'nn'
p60
aS'6'
aS'9'
aa(lp61
S'dep'
p62
aS'6'
aS'10'
p63
aasS'srls'
p64
(lp65
(dp66
S'A1'
p67
S'Radius double mean radius \\ xce \\ xbc'
p68
sS'A0'
p69
g25
sS'V'
g26
sasS'pos_seq'
p70
(lp71
S'NN'
p72
aS'VBP'
p73
aS'NN'
p74
aS'JJ'
p75
aS'JJ'
p76
aS'NN'
p77
aS'FW'
p78
aS'FW'
p79
aS'FW'
p80
aS'FW'
p81
asS'ner_seq'
p82
(lp83
S'O'
aS'O'
aS'O'
aS'O'
aS'O'
aS'O'
aS'O'
aS'O'
aS'O'
aS'O'
assb.