ccopy_reg
_reconstructor
p1
(c__main__
KBproperty
p2
c__builtin__
object
p3
NtRp4
(dp5
S'comment'
p6
S'Code assigned to Dutch monuments at the provincial level mostly for monuments in the countryside or for waterworks00'
p7
sS'domain'
p8
S'Place '
p9
sS'instances_count'
p10
I0
sS'phrases'
p11
NsS'syn_hypo'
p12
S''
sS'label'
p13
S'monument code provinciall'
p14
sS'range'
p15
S'string '
p16
sS'uniq_subjs'
p17
S'0'
sS'uniq_objs'
p18
I0
sS'prop_uri'
p19
S'http://dbpedia.org/ontology/codeProvincialMonument'
p20
sS'annotations'
p21
(dp22
S'bag_of_words'
p23
(lp24
S'Place'
p25
aS'monument'
p26
aS'code'
p27
aS'provinciall'
p28
aS'string'
p29
aS'Code'
p30
aS'assigned'
p31
aS'to'
p32
aS'Dutch'
p33
aS'monuments'
p34
aS'at'
p35
aS'the'
p36
aS'provincial'
p37
aS'level'
p38
aS'mostly'
p39
aS'for'
p40
aS'monuments'
p41
aS'in'
p42
aS'the'
p43
aS'countryside'
p44
aS'or'
p45
aS'for'
p46
aS'waterworks00'
p47
asS'chunk_seq'
p48
(lp49
S'B-NP'
p50
aS'I-NP'
p51
aS'I-NP'
p52
aS'I-NP'
p53
aS'I-NP'
p54
aS'E-NP'
p55
aS'S-VP'
p56
aS'S-PP'
p57
aS'B-NP'
p58
aS'E-NP'
p59
aS'S-PP'
p60
aS'B-NP'
p61
aS'I-NP'
p62
aS'E-NP'
p63
aS'S-ADVP'
p64
aS'S-PP'
p65
aS'S-NP'
p66
aS'S-PP'
p67
aS'B-NP'
p68
aS'E-NP'
p69
aS'S-PP'
p70
aS'S-PP'
p71
aS'S-NP'
p72
asS'dep_seq'
p73
(lp74
(lp75
S'nn'
p76
aS'6'
aS'1'
aa(lp77
S'nn'
p78
aS'6'
aS'2'
aa(lp79
S'nn'
p80
aS'6'
aS'3'
aa(lp81
S'amod'
p82
aS'6'
aS'4'
aa(lp83
S'nn'
p84
aS'6'
aS'5'
aa(lp85
S'root'
p86
aS'0'
aS'6'
aa(lp87
S'partmod'
p88
aS'6'
aS'7'
aa(lp89
S'amod'
p90
aS'10'
p91
aS'9'
aa(lp92
S'prep_to'
p93
aS'7'
aS'10'
p94
aa(lp95
S'det'
p96
aS'14'
p97
aS'12'
p98
aa(lp99
S'amod'
p100
aS'14'
p101
aS'13'
p102
aa(lp103
S'prep_at'
p104
aS'7'
aS'14'
p105
aa(lp106
S'advmod'
p107
aS'7'
aS'15'
p108
aa(lp109
S'prep_for'
p110
aS'7'
aS'17'
p111
aa(lp112
S'conj_or'
p113
aS'17'
p114
aS"17'"
p115
aa(lp116
S'det'
p117
aS'20'
p118
aS'19'
p119
aa(lp120
S'prep_in'
p121
aS'17'
p122
aS'20'
p123
aa(lp124
S'prep_for'
p125
aS"17'"
p126
aS'23'
p127
aasS'srls'
p128
(lp129
(dp130
S'A1'
p131
S'provinciall string Code'
p132
sS'A2'
p133
S'to Dutch monuments at the provincial level'
p134
sS'AM-PNC'
p135
S'mostly for monuments in the countryside or for waterworks00'
p136
sS'V'
g31
sasS'pos_seq'
p137
(lp138
S'NN'
p139
aS'NN'
p140
aS'NN'
p141
aS'JJ'
p142
aS'NN'
p143
aS'NN'
p144
aS'VBN'
p145
aS'TO'
p146
aS'JJ'
p147
aS'NNS'
p148
aS'IN'
p149
aS'DT'
p150
aS'JJ'
p151
aS'NN'
p152
aS'RB'
p153
aS'IN'
p154
aS'NNS'
p155
aS'IN'
p156
aS'DT'
p157
aS'NN'
p158
aS'CC'
p159
aS'IN'
p160
aS'NN'
p161
asS'ner_seq'
p162
(lp163
S'O'
aS'O'
aS'O'
aS'O'
aS'O'
aS'O'
aS'O'
aS'O'
aS'S-MISC'
p164
aS'O'
aS'O'
aS'O'
aS'O'
aS'O'
aS'O'
aS'O'
aS'O'
aS'O'
aS'O'
aS'O'
aS'O'
aS'O'
aS'O'
assb.