ccopy_reg
_reconstructor
p1
(c__main__
KBproperty
p2
c__builtin__
object
p3
NtRp4
(dp5
S'comment'
p6
S'Agency station code used on tickets/reservations etc..96999113'
p7
sS'domain'
p8
S'Station '
p9
sS'instances_count'
p10
I9699
sS'phrases'
p11
NsS'syn_hypo'
p12
S''
sS'label'
p13
S'agency station code'
p14
sS'range'
p15
S'string '
p16
sS'uniq_subjs'
p17
S'8051'
p18
sS'uniq_objs'
p19
I0
sS'prop_uri'
p20
S'http://dbpedia.org/ontology/agencyStationCode'
p21
sS'annotations'
p22
(dp23
S'bag_of_words'
p24
(lp25
S'Station'
p26
aS'agency'
p27
aS'station'
p28
aS'code'
p29
aS'string'
p30
aS'Agency'
p31
aS'station'
p32
aS'code'
p33
aS'used'
p34
aS'on'
p35
aS'tickets'
p36
aS'/'
aS'reservations'
p37
aS'etc.'
p38
aS'.96999113'
p39
asS'chunk_seq'
p40
(lp41
S'B-NP'
p42
aS'I-NP'
p43
aS'I-NP'
p44
aS'I-NP'
p45
aS'I-NP'
p46
aS'I-NP'
p47
aS'I-NP'
p48
aS'E-NP'
p49
aS'S-VP'
p50
aS'S-PP'
p51
aS'S-NP'
p52
aS'O'
aS'S-NP'
p53
aS'B-ADJP'
p54
aS'E-ADJP'
p55
asS'dep_seq'
p56
(lp57
(lp58
S'nn'
p59
aS'8'
aS'1'
aa(lp60
S'nn'
p61
aS'8'
aS'2'
aa(lp62
S'nn'
p63
aS'8'
aS'3'
aa(lp64
S'nn'
p65
aS'8'
aS'4'
aa(lp66
S'nn'
p67
aS'8'
aS'5'
aa(lp68
S'nn'
p69
aS'8'
aS'6'
aa(lp70
S'nn'
p71
aS'8'
aS'7'
aa(lp72
S'root'
p73
aS'0'
aS'8'
aa(lp74
S'partmod'
p75
aS'8'
aS'9'
aa(lp76
S'prep_on'
p77
aS'9'
aS'11'
p78
aa(lp79
S'punct'
p80
aS'11'
p81
aS'12'
p82
aa(lp83
S'dep'
p84
aS'11'
p85
aS'13'
p86
aa(lp87
S'punct'
p88
aS'11'
p89
aS'14'
p90
aa(lp91
S'dep'
p92
aS'11'
p93
aS'15'
p94
aasS'srls'
p95
(lp96
(dp97
S'A0'
p98
S'Station agency station code string Agency station code'
p99
sS'AM-LOC'
p100
S'on tickets / reservations etc. .96999113'
p101
sS'V'
g34
sasS'pos_seq'
p102
(lp103
S'NN'
p104
aS'NN'
p105
aS'NN'
p106
aS'NN'
p107
aS'NN'
p108
aS'NN'
p109
aS'NN'
p110
aS'NN'
p111
aS'VBN'
p112
aS'IN'
p113
aS'NNS'
p114
aS':'
aS'NNS'
p115
aS'-RRB-'
p116
aS'.'
asS'ner_seq'
p117
(lp118
S'O'
aS'O'
aS'O'
aS'O'
aS'O'
aS'O'
aS'O'
aS'O'
aS'O'
aS'O'
aS'O'
aS'O'
aS'O'
aS'O'
aS'O'
assb.