ccopy_reg
_reconstructor
p1
(c__main__
KBproperty
p2
c__builtin__
object
p3
NtRp4
(dp5
S'comment'
p6
S'lowest temperature at which a substance can vaporize and start burning00'
p7
sS'domain'
p8
S'Chemical Substance '
p9
sS'instances_count'
p10
I0
sS'phrases'
p11
NsS'syn_hypo'
p12
S''
sS'label'
p13
S'flash point'
p14
sS'range'
p15
S'integer '
p16
sS'uniq_subjs'
p17
S'0'
sS'uniq_objs'
p18
I0
sS'prop_uri'
p19
S'http://dbpedia.org/ontology/flashPoint'
p20
sS'annotations'
p21
(dp22
S'bag_of_words'
p23
(lp24
S'Chemical'
p25
aS'Substance'
p26
aS'flash'
p27
aS'point'
p28
aS'integer'
p29
aS'lowest'
p30
aS'temperature'
p31
aS'at'
p32
aS'which'
p33
aS'a'
aS'substance'
p34
aS'can'
p35
aS'vaporize'
p36
aS'and'
p37
aS'start'
p38
aS'burning00'
p39
asS'chunk_seq'
p40
(lp41
S'B-NP'
p42
aS'I-NP'
p43
aS'I-NP'
p44
aS'I-NP'
p45
aS'I-NP'
p46
aS'I-NP'
p47
aS'E-NP'
p48
aS'S-PP'
p49
aS'S-NP'
p50
aS'B-NP'
p51
aS'E-NP'
p52
aS'B-VP'
p53
aS'I-VP'
p54
aS'I-VP'
p55
aS'E-VP'
p56
aS'S-NP'
p57
asS'dep_seq'
p58
(lp59
(lp60
S'nn'
p61
aS'4'
aS'1'
aa(lp62
S'nn'
p63
aS'4'
aS'2'
aa(lp64
S'nn'
p65
aS'4'
aS'3'
aa(lp66
S'root'
p67
aS'0'
aS'4'
aa(lp68
S'nn'
p69
aS'7'
aS'5'
aa(lp70
S'amod'
p71
aS'7'
aS'6'
aa(lp72
S'dep'
p73
aS'4'
aS'7'
aa(lp74
S'prep_at'
p75
aS'13'
p76
aS'7'
aa(lp77
S'rel'
p78
aS'13'
p79
aS'8'
aa(lp80
S'det'
p81
aS'11'
p82
aS'10'
p83
aa(lp84
S'nsubj'
p85
aS'13'
p86
aS'11'
p87
aa(lp88
S'aux'
p89
aS'13'
p90
aS'12'
p91
aa(lp92
S'rcmod'
p93
aS'7'
aS'13'
p94
aa(lp95
S'conj_and'
p96
aS'13'
p97
aS'15'
p98
aa(lp99
S'dobj'
p100
aS'15'
p101
aS'16'
p102
aasS'srls'
p103
(lp104
(dp105
S'A1'
p106
S'a substance'
p107
sS'V'
g36
sS'AM-MOD'
p108
g35
sa(dp109
S'A1'
p110
S'a substance burning00'
p111
sS'V'
g38
sS'AM-MOD'
p112
g35
sasS'pos_seq'
p113
(lp114
S'NNP'
p115
aS'NNP'
p116
aS'NN'
p117
aS'NN'
p118
aS'NN'
p119
aS'JJS'
p120
aS'NN'
p121
aS'IN'
p122
aS'WDT'
p123
aS'DT'
p124
aS'NN'
p125
aS'MD'
p126
aS'VB'
p127
aS'CC'
p128
aS'VB'
p129
aS'NN'
p130
asS'ner_seq'
p131
(lp132
S'O'
aS'O'
aS'O'
aS'O'
aS'O'
aS'O'
aS'O'
aS'O'
aS'O'
aS'O'
aS'O'
aS'O'
aS'O'
aS'O'
aS'O'
aS'O'
assb.