ccopy_reg
_reconstructor
p1
(c__main__
KBproperty
p2
c__builtin__
object
p3
NtRp4
(dp5
S'comment'
p6
S'number of votes the office holder attained17961559'
p7
sS'domain'
p8
S''
sS'instances_count'
p9
I1613
sS'phrases'
p10
NsS'syn_hypo'
p11
S''
sS'label'
p12
S'election majority'
p13
sS'range'
p14
S'non Negative Integer '
p15
sS'uniq_subjs'
p16
S'1613'
p17
sS'uniq_objs'
p18
I0
sS'prop_uri'
p19
S'http://dbpedia.org/ontology/electionMajority'
p20
sS'annotations'
p21
(dp22
S'bag_of_words'
p23
(lp24
S'election'
p25
aS'majority'
p26
aS'non'
p27
aS'Negative'
p28
aS'Integer'
p29
aS'number'
p30
aS'of'
p31
aS'votes'
p32
aS'the'
p33
aS'office'
p34
aS'holder'
p35
aS'attained17961559'
p36
asS'chunk_seq'
p37
(lp38
S'B-NP'
p39
aS'E-NP'
p40
aS'B-NP'
p41
aS'I-NP'
p42
aS'I-NP'
p43
aS'E-NP'
p44
aS'S-PP'
p45
aS'S-NP'
p46
aS'B-NP'
p47
aS'I-NP'
p48
aS'E-NP'
p49
aS'O'
asS'dep_seq'
p50
(lp51
(lp52
S'nn'
p53
aS'2'
aS'1'
aa(lp54
S'root'
p55
aS'0'
aS'2'
aa(lp56
S'amod'
p57
aS'6'
aS'3'
aa(lp58
S'amod'
p59
aS'6'
aS'4'
aa(lp60
S'nn'
p61
aS'6'
aS'5'
aa(lp62
S'dep'
p63
aS'2'
aS'6'
aa(lp64
S'prep_of'
p65
aS'6'
aS'8'
aa(lp66
S'det'
p67
aS'11'
p68
aS'9'
aa(lp69
S'nn'
p70
aS'11'
p71
aS'10'
p72
aa(lp73
S'dep'
p74
aS'6'
aS'11'
p75
aa(lp76
S'punct'
p77
aS'11'
p78
aS'12'
p79
aasS'srls'
p80
(lp81
sS'pos_seq'
p82
(lp83
S'NN'
p84
aS'NN'
p85
aS'JJ'
p86
aS'JJ'
p87
aS'NN'
p88
aS'NN'
p89
aS'IN'
p90
aS'NNS'
p91
aS'DT'
p92
aS'NN'
p93
aS'NN'
p94
aS'.'
asS'ner_seq'
p95
(lp96
S'O'
aS'O'
aS'O'
aS'O'
aS'O'
aS'O'
aS'O'
aS'O'
aS'O'
aS'O'
aS'O'
aS'O'
assb.