ccopy_reg
_reconstructor
p1
(c__main__
KBproperty
p2
c__builtin__
object
p3
NtRp4
(dp5
S'comment'
p6
S'city where stand the administrative power00'
p7
sS'domain'
p8
S'Populated Place '
p9
sS'instances_count'
p10
I0
sS'phrases'
p11
NsS'syn_hypo'
p12
S''
sS'label'
p13
S'head city'
p14
sS'range'
p15
S'City '
p16
sS'uniq_subjs'
p17
S'0'
sS'uniq_objs'
p18
I0
sS'prop_uri'
p19
S'http://dbpedia.org/ontology/administrativeHeadCity'
p20
sS'annotations'
p21
(dp22
S'bag_of_words'
p23
(lp24
S'Populated'
p25
aS'Place'
p26
aS'head'
p27
aS'city'
p28
aS'City'
p29
aS'city'
p30
aS'where'
p31
aS'stand'
p32
aS'the'
p33
aS'administrative'
p34
aS'power00'
p35
asS'chunk_seq'
p36
(lp37
S'B-NP'
p38
aS'I-NP'
p39
aS'I-NP'
p40
aS'I-NP'
p41
aS'I-NP'
p42
aS'E-NP'
p43
aS'S-ADVP'
p44
aS'S-VP'
p45
aS'B-NP'
p46
aS'I-NP'
p47
aS'E-NP'
p48
asS'dep_seq'
p49
(lp50
(lp51
S'amod'
p52
aS'6'
aS'1'
aa(lp53
S'nn'
p54
aS'6'
aS'2'
aa(lp55
S'nn'
p56
aS'6'
aS'3'
aa(lp57
S'nn'
p58
aS'6'
aS'4'
aa(lp59
S'nn'
p60
aS'6'
aS'5'
aa(lp61
S'root'
p62
aS'0'
aS'6'
aa(lp63
S'advmod'
p64
aS'8'
aS'7'
aa(lp65
S'rcmod'
p66
aS'6'
aS'8'
aa(lp67
S'det'
p68
aS'11'
p69
aS'9'
aa(lp70
S'amod'
p71
aS'11'
p72
aS'10'
p73
aa(lp74
S'dobj'
p75
aS'8'
aS'11'
p76
aasS'srls'
p77
(lp78
(dp79
S'A1'
p80
S'the administrative power00'
p81
sS'A2'
p82
S'Populated Place head city City city'
p83
sS'R-A2'
p84
g31
sS'V'
g32
sasS'pos_seq'
p85
(lp86
S'VBN'
p87
aS'NN'
p88
aS'NN'
p89
aS'NN'
p90
aS'NNP'
p91
aS'NN'
p92
aS'WRB'
p93
aS'VBP'
p94
aS'DT'
p95
aS'JJ'
p96
aS'NN'
p97
asS'ner_seq'
p98
(lp99
S'O'
aS'O'
aS'O'
aS'O'
aS'B-LOC'
p100
aS'E-LOC'
p101
aS'O'
aS'O'
aS'O'
aS'O'
aS'O'
assb.