ccopy_reg
_reconstructor
p1
(c__main__
KBproperty
p2
c__builtin__
object
p3
NtRp4
(dp5
S'comment'
p6
S'volume \\xce\\xbc\\xc2\\xb3'
p7
sS'domain'
p8
S''
sS'instances_count'
p9
I2997
sS'phrases'
p10
NsS'syn_hypo'
p11
S''
sS'label'
p12
g7
sS'range'
p13
S'double '
p14
sS'uniq_subjs'
p15
S'2997'
p16
sS'uniq_objs'
p17
I0
sS'prop_uri'
p18
S'http://dbpedia.org/ontology/volume'
p19
sS'annotations'
p20
(dp21
S'bag_of_words'
p22
(lp23
S'volume'
p24
aS'double'
p25
aS'volume'
p26
aS'\\'
aS'xce'
p27
aS'\\'
aS'xbc'
p28
aS'\\'
aS'xc2'
p29
aS'\\'
aS'xb3'
p30
asS'chunk_seq'
p31
(lp32
S'B-NP'
p33
aS'I-NP'
p34
aS'E-NP'
p35
aS'O'
aS'O'
aS'O'
aS'O'
aS'O'
aS'O'
aS'O'
aS'O'
asS'dep_seq'
p36
(lp37
(lp38
S'root'
p39
aS'0'
aS'1'
aa(lp40
S'amod'
p41
aS'3'
aS'2'
aa(lp42
S'nn'
p43
aS'1'
aS'3'
aa(lp44
S'dep'
p45
aS'1'
aS'4'
aa(lp46
S'discourse'
p47
aS'1'
aS'5'
aa(lp48
S'dep'
p49
aS'5'
aS'6'
aa(lp50
S'dep'
p51
aS'5'
aS'7'
aa(lp52
S'dep'
p53
aS'5'
aS'8'
aa(lp54
S'dep'
p55
aS'5'
aS'9'
aa(lp56
S'dep'
p57
aS'5'
aS'10'
p58
aa(lp59
S'dep'
p60
aS'5'
aS'11'
p61
aasS'srls'
p62
(lp63
sS'pos_seq'
p64
(lp65
S'NN'
p66
aS'JJ'
p67
aS'NN'
p68
aS'FW'
p69
aS'FW'
p70
aS'FW'
p71
aS'FW'
p72
aS'FW'
p73
aS'FW'
p74
aS'FW'
p75
aS'FW'
p76
asS'ner_seq'
p77
(lp78
S'O'
aS'O'
aS'O'
aS'O'
aS'O'
aS'O'
aS'O'
aS'O'
aS'O'
aS'O'
aS'O'
assb.