ccopy_reg
_reconstructor
p1
(c__main__
KBproperty
p2
c__builtin__
object
p3
NtRp4
(dp5
S'comment'
p6
S'Developer of a Work Artwork Book Software or Building Hotel Skyscraper2861524345'
p7
sS'domain'
p8
S''
sS'instances_count'
p9
I28615
sS'phrases'
p10
NsS'syn_hypo'
p11
V
sS'label'
p12
S'developer'
p13
sS'range'
p14
S'Agent '
p15
sS'uniq_subjs'
p16
S'8750'
p17
sS'uniq_objs'
p18
I0
sS'prop_uri'
p19
S'http://dbpedia.org/ontology/developer'
p20
sS'annotations'
p21
(dp22
S'bag_of_words'
p23
(lp24
S'developer'
p25
aS'Agent'
p26
aS'Developer'
p27
aS'of'
p28
aS'a'
aS'Work'
p29
aS'Artwork'
p30
aS'Book'
p31
aS'Software'
p32
aS'or'
p33
aS'Building'
p34
aS'Hotel'
p35
aS'Skyscraper2861524345'
p36
asS'chunk_seq'
p37
(lp38
S'B-NP'
p39
aS'I-NP'
p40
aS'E-NP'
p41
aS'S-PP'
p42
aS'B-NP'
p43
aS'I-NP'
p44
aS'I-NP'
p45
aS'I-NP'
p46
aS'I-NP'
p47
aS'I-NP'
p48
aS'I-NP'
p49
aS'I-NP'
p50
aS'E-NP'
p51
asS'dep_seq'
p52
(lp53
(lp54
S'nn'
p55
aS'3'
aS'1'
aa(lp56
S'nn'
p57
aS'3'
aS'2'
aa(lp58
S'root'
p59
aS'0'
aS'3'
aa(lp60
S'det'
p61
aS'9'
aS'5'
aa(lp62
S'nn'
p63
aS'9'
aS'6'
aa(lp64
S'nn'
p65
aS'9'
aS'7'
aa(lp66
S'nn'
p67
aS'9'
aS'8'
aa(lp68
S'prep_of'
p69
aS'3'
aS'9'
aa(lp70
S'nn'
p71
aS'13'
p72
aS'11'
p73
aa(lp74
S'nn'
p75
aS'13'
p76
aS'12'
p77
aa(lp78
S'conj_or'
p79
aS'9'
aS'13'
p80
aasS'srls'
p81
(lp82
sS'pos_seq'
p83
(lp84
S'NN'
p85
aS'NNP'
p86
aS'NNP'
p87
aS'IN'
p88
aS'DT'
p89
aS'NNP'
p90
aS'NNP'
p91
aS'NNP'
p92
aS'NNP'
p93
aS'CC'
p94
aS'NNP'
p95
aS'NNP'
p96
aS'NNP'
p97
asS'ner_seq'
p98
(lp99
S'O'
aS'O'
aS'O'
aS'O'
aS'O'
aS'O'
aS'B-MISC'
p100
aS'I-MISC'
p101
aS'I-MISC'
p102
aS'I-MISC'
p103
aS'I-MISC'
p104
aS'I-MISC'
p105
aS'E-MISC'
p106
assb.