ccopy_reg
_reconstructor
p1
(c__main__
KBproperty
p2
c__builtin__
object
p3
NtRp4
(dp5
S'comment'
p6
S'Number of things eg vehicles sold60625929'
p7
sS'domain'
p8
S'Sales '
p9
sS'instances_count'
p10
I3972
sS'phrases'
p11
NsS'syn_hypo'
p12
S''
sS'label'
p13
S'number sold'
p14
sS'range'
p15
S'non Negative Integer '
p16
sS'uniq_subjs'
p17
S'3972'
p18
sS'uniq_objs'
p19
I0
sS'prop_uri'
p20
S'http://dbpedia.org/ontology/numberSold'
p21
sS'annotations'
p22
(dp23
S'bag_of_words'
p24
(lp25
S'Sales'
p26
aS'number'
p27
aS'sold'
p28
aS'non'
p29
aS'Negative'
p30
aS'Integer'
p31
aS'Number'
p32
aS'of'
p33
aS'things'
p34
aS'eg'
p35
aS'vehicles'
p36
aS'sold60625929'
p37
asS'chunk_seq'
p38
(lp39
S'B-NP'
p40
aS'E-NP'
p41
aS'S-VP'
p42
aS'B-NP'
p43
aS'I-NP'
p44
aS'I-NP'
p45
aS'E-NP'
p46
aS'S-PP'
p47
aS'S-NP'
p48
aS'B-NP'
p49
aS'E-NP'
p50
aS'S-ADJP'
p51
asS'dep_seq'
p52
(lp53
(lp54
S'nn'
p55
aS'2'
aS'1'
aa(lp56
S'root'
p57
aS'0'
aS'2'
aa(lp58
S'partmod'
p59
aS'2'
aS'3'
aa(lp60
S'amod'
p61
aS'7'
aS'4'
aa(lp62
S'amod'
p63
aS'7'
aS'5'
aa(lp64
S'nn'
p65
aS'7'
aS'6'
aa(lp66
S'dobj'
p67
aS'3'
aS'7'
aa(lp68
S'iobj'
p69
aS'3'
aS'7'
aa(lp70
S'prep_of'
p71
aS'7'
aS'9'
aa(lp72
S'amod'
p73
aS'11'
p74
aS'10'
p75
aa(lp76
S'dep'
p77
aS'7'
aS'11'
p78
aa(lp79
S'punct'
p80
aS'2'
aS'12'
p81
aasS'srls'
p82
(lp83
(dp84
S'A1'
p85
S'Sales number  non Negative Integer Number of things eg vehicles sold60625929'
p86
sS'V'
g28
sasS'pos_seq'
p87
(lp88
S'NNS'
p89
aS'NN'
p90
aS'VBD'
p91
aS'JJ'
p92
aS'JJ'
p93
aS'NNP'
p94
aS'NNP'
p95
aS'IN'
p96
aS'NNS'
p97
aS'JJ'
p98
aS'NNS'
p99
aS'.'
asS'ner_seq'
p100
(lp101
S'O'
aS'O'
aS'O'
aS'O'
aS'O'
aS'O'
aS'O'
aS'O'
aS'O'
aS'O'
aS'O'
aS'O'
assb.