ccopy_reg
_reconstructor
p1
(c__main__
KBproperty
p2
c__builtin__
object
p3
NtRp4
(dp5
S'comment'
p6
S'Honours bestowed upon a Person Organization RaceHorse etc1512950'
p7
sS'domain'
p8
S''
sS'instances_count'
p9
I1512
sS'phrases'
p10
NsS'syn_hypo'
p11
Vfirsthonourshonours_degreefirst-class_honours_degree
p12
sS'label'
p13
S'honours'
p14
sS'range'
p15
S''
sS'uniq_subjs'
p16
S'616'
p17
sS'uniq_objs'
p18
I0
sS'prop_uri'
p19
S'http://dbpedia.org/ontology/honours'
p20
sS'annotations'
p21
(dp22
S'bag_of_words'
p23
(lp24
S'honours'
p25
aS'Honours'
p26
aS'bestowed'
p27
aS'upon'
p28
aS'a'
aS'Person'
p29
aS'Organization'
p30
aS'RaceHorse'
p31
aS'etc1512950'
p32
asS'chunk_seq'
p33
(lp34
S'B-NP'
p35
aS'E-NP'
p36
aS'S-VP'
p37
aS'S-PP'
p38
aS'B-NP'
p39
aS'I-NP'
p40
aS'I-NP'
p41
aS'I-NP'
p42
aS'E-NP'
p43
asS'dep_seq'
p44
(lp45
(lp46
S'nn'
p47
aS'2'
aS'1'
aa(lp48
S'root'
p49
aS'0'
aS'2'
aa(lp50
S'partmod'
p51
aS'2'
aS'3'
aa(lp52
S'det'
p53
aS'9'
aS'5'
aa(lp54
S'nn'
p55
aS'9'
aS'6'
aa(lp56
S'nn'
p57
aS'9'
aS'7'
aa(lp58
S'nn'
p59
aS'9'
aS'8'
aa(lp60
S'prep_upon'
p61
aS'3'
aS'9'
aasS'srls'
p62
(lp63
(dp64
S'A1'
p65
S'honours Honours'
p66
sS'A2'
p67
S'upon a Person Organization RaceHorse etc1512950'
p68
sS'V'
g27
sasS'pos_seq'
p69
(lp70
S'NNS'
p71
aS'NNS'
p72
aS'VBN'
p73
aS'IN'
p74
aS'DT'
p75
aS'NNP'
p76
aS'NNP'
p77
aS'NNP'
p78
aS'NN'
p79
asS'ner_seq'
p80
(lp81
S'O'
aS'O'
aS'O'
aS'O'
aS'O'
aS'O'
aS'O'
aS'O'
aS'O'
assb.