ccopy_reg
_reconstructor
p1
(c__main__
KBproperty
p2
c__builtin__
object
p3
NtRp4
(dp5
S'comment'
p6
S'11521108'
p7
sS'domain'
p8
S'Wrestling Event '
p9
sS'instances_count'
p10
I54
sS'phrases'
p11
NsS'syn_hypo'
p12
Vadpromotionpublicitypromotional_materialpackagingadvertisementpromotionpublicitypromotional_materialpackagingadvertizementpromotionpublicitypromotional_materialpackagingadvertisingpromotionpublicitypromotional_materialpackagingadvertizingpromotionpublicitypromotional_materialpackagingadvertpromotionpublicitypromotional_materialpackagingballyhoopromotionpublicitypromotional_materialpackaginghooplapromotionpublicitypromotional_materialpackaginghypepromotionpublicitypromotional_materialpackagingplugpromotionpublicitypromotional_materialpackagingbuilduppromotionpublicitypromotional_materialpackagingendorsementpromotionpublicitypromotional_materialpackagingindorsementpromotionpublicitypromotional_materialpackagingblurbpromotionpublicitypromotional_materialpackagingpublic_relationspromotionpublicitypromotional_materialpackagingPRpromotionpublicitypromotional_materialpackagingsales_promotionpromotionpublicitypromotional_materialpackagingsales_talkpromotionpublicitypromotional_materialpackagingsales_pitchpromotionpublicitypromotional_materialpackagingpitch
p13
sS'label'
p14
S'promotion'
p15
sS'range'
p16
S''
sS'uniq_subjs'
p17
S'54'
p18
sS'uniq_objs'
p19
I0
sS'prop_uri'
p20
S'http://dbpedia.org/ontology/promotion'
p21
sS'annotations'
p22
(dp23
S'bag_of_words'
p24
(lp25
S'Wrestling'
p26
aS'Event'
p27
aS'promotion'
p28
aS'11521108'
p29
asS'chunk_seq'
p30
(lp31
S'S-VP'
p32
aS'B-NP'
p33
aS'E-NP'
p34
aS'S-ADJP'
p35
asS'dep_seq'
p36
(lp37
(lp38
S'amod'
p39
aS'3'
aS'1'
aa(lp40
S'nn'
p41
aS'3'
aS'2'
aa(lp42
S'root'
p43
aS'0'
aS'3'
aa(lp44
S'punct'
p45
aS'3'
aS'4'
aasS'srls'
p46
(lp47
(dp48
S'A1'
p49
S'Event promotion'
p50
sS'V'
g26
sasS'pos_seq'
p51
(lp52
S'VBG'
p53
aS'NN'
p54
aS'NN'
p55
aS'.'
asS'ner_seq'
p56
(lp57
S'O'
aS'O'
aS'O'
aS'O'
assb.