ccopy_reg
_reconstructor
p1
(c__main__
KBproperty
p2
c__builtin__
object
p3
NtRp4
(dp5
S'comment'
p6
S'the organ system that a anatomical structure belongs to33'
p7
sS'domain'
p8
S'Anatomical Structure '
p9
sS'instances_count'
p10
I2
sS'phrases'
p11
NsS'syn_hypo'
p12
S''
sS'label'
p13
S'organ system'
p14
sS'range'
p15
S'Anatomical Structure '
p16
sS'uniq_subjs'
p17
S'2'
sS'uniq_objs'
p18
I0
sS'prop_uri'
p19
S'http://dbpedia.org/ontology/organSystem'
p20
sS'annotations'
p21
(dp22
S'bag_of_words'
p23
(lp24
S'Anatomical'
p25
aS'Structure'
p26
aS'organ'
p27
aS'system'
p28
aS'Anatomical'
p29
aS'Structure'
p30
aS'the'
p31
aS'organ'
p32
aS'system'
p33
aS'that'
p34
aS'a'
aS'anatomical'
p35
aS'structure'
p36
aS'belongs'
p37
aS'to33'
p38
asS'chunk_seq'
p39
(lp40
S'B-NP'
p41
aS'I-NP'
p42
aS'I-NP'
p43
aS'I-NP'
p44
aS'I-NP'
p45
aS'E-NP'
p46
aS'B-NP'
p47
aS'I-NP'
p48
aS'E-NP'
p49
aS'S-SBAR'
p50
aS'B-NP'
p51
aS'I-NP'
p52
aS'E-NP'
p53
aS'S-VP'
p54
aS'O'
asS'dep_seq'
p55
(lp56
(lp57
S'amod'
p58
aS'6'
aS'1'
aa(lp59
S'nn'
p60
aS'6'
aS'2'
aa(lp61
S'nn'
p62
aS'6'
aS'3'
aa(lp63
S'nn'
p64
aS'6'
aS'4'
aa(lp65
S'nn'
p66
aS'6'
aS'5'
aa(lp67
S'dep'
p68
aS'9'
aS'6'
aa(lp69
S'det'
p70
aS'9'
aS'7'
aa(lp71
S'nn'
p72
aS'9'
aS'8'
aa(lp73
S'root'
p74
aS'0'
aS'9'
aa(lp75
S'dobj'
p76
aS'14'
p77
aS'9'
aa(lp78
S'rel'
p79
aS'14'
p80
aS'10'
p81
aa(lp82
S'det'
p83
aS'13'
p84
aS'11'
p85
aa(lp86
S'amod'
p87
aS'13'
p88
aS'12'
p89
aa(lp90
S'nsubj'
p91
aS'14'
p92
aS'13'
p93
aa(lp94
S'rcmod'
p95
aS'9'
aS'14'
p96
aa(lp97
S'advmod'
p98
aS'14'
p99
aS'15'
p100
aasS'srls'
p101
(lp102
(dp103
S'A1'
p104
g38
sS'A0'
p105
S'Anatomical Structure organ system Anatomical Structure the organ system that a anatomical structure'
p106
sS'V'
g37
sasS'pos_seq'
p107
(lp108
S'JJ'
p109
aS'NN'
p110
aS'NN'
p111
aS'NN'
p112
aS'NNP'
p113
aS'NNP'
p114
aS'DT'
p115
aS'NN'
p116
aS'NN'
p117
aS'IN'
p118
aS'DT'
p119
aS'JJ'
p120
aS'NN'
p121
aS'VBZ'
p122
aS'.'
asS'ner_seq'
p123
(lp124
S'O'
aS'O'
aS'O'
aS'O'
aS'O'
aS'O'
aS'O'
aS'O'
aS'O'
aS'O'
aS'O'
aS'O'
aS'O'
aS'O'
aS'O'
assb.