ccopy_reg
_reconstructor
p1
(c__main__
KBproperty
p2
c__builtin__
object
p3
NtRp4
(dp5
S'comment'
p6
S'Row # where the referenced resource is to be found in the source file00'
p7
sS'domain'
p8
S'Reference '
p9
sS'instances_count'
p10
I0
sS'phrases'
p11
NsS'syn_hypo'
p12
S''
sS'label'
p13
S'row number'
p14
sS'range'
p15
S'string '
p16
sS'uniq_subjs'
p17
S'0'
sS'uniq_objs'
p18
I0
sS'prop_uri'
p19
S'http://dbpedia.org/ontology/atRowNumber'
p20
sS'annotations'
p21
(dp22
S'bag_of_words'
p23
(lp24
S'Reference'
p25
aS'row'
p26
aS'number'
p27
aS'string'
p28
aS'Row'
p29
aS'#'
aS'where'
p30
aS'the'
p31
aS'referenced'
p32
aS'resource'
p33
aS'is'
p34
aS'to'
p35
aS'be'
p36
aS'found'
p37
aS'in'
p38
aS'the'
p39
aS'source'
p40
aS'file00'
p41
asS'chunk_seq'
p42
(lp43
S'B-NP'
p44
aS'I-NP'
p45
aS'I-NP'
p46
aS'I-NP'
p47
aS'E-NP'
p48
aS'S-PP'
p49
aS'S-ADVP'
p50
aS'B-NP'
p51
aS'I-NP'
p52
aS'E-NP'
p53
aS'B-VP'
p54
aS'I-VP'
p55
aS'I-VP'
p56
aS'E-VP'
p57
aS'S-PP'
p58
aS'B-NP'
p59
aS'E-NP'
p60
aS'S-ADJP'
p61
asS'dep_seq'
p62
(lp63
(lp64
S'nn'
p65
aS'5'
aS'1'
aa(lp66
S'nn'
p67
aS'5'
aS'2'
aa(lp68
S'nn'
p69
aS'5'
aS'3'
aa(lp70
S'nn'
p71
aS'5'
aS'4'
aa(lp72
S'root'
p73
aS'0'
aS'5'
aa(lp74
S'dep'
p75
aS'5'
aS'6'
aa(lp76
S'advmod'
p77
aS'11'
p78
aS'7'
aa(lp79
S'det'
p80
aS'10'
p81
aS'8'
aa(lp82
S'amod'
p83
aS'10'
p84
aS'9'
aa(lp85
S'nsubj'
p86
aS'11'
p87
aS'10'
p88
aa(lp89
S'xsubj'
p90
aS'14'
p91
aS'10'
p92
aa(lp93
S'dep'
p94
aS'6'
aS'11'
p95
aa(lp96
S'aux'
p97
aS'14'
p98
aS'12'
p99
aa(lp100
S'auxpass'
p101
aS'14'
p102
aS'13'
p103
aa(lp104
S'xcomp'
p105
aS'11'
p106
aS'14'
p107
aa(lp108
S'det'
p109
aS'17'
p110
aS'16'
p111
aa(lp112
S'prep_in'
p113
aS'14'
p114
aS'17'
p115
aa(lp116
S'punct'
p117
aS'6'
aS'18'
p118
aasS'srls'
p119
(lp120
(dp121
S'A1'
p122
g33
sS'V'
g32
sa(dp123
S'A1'
p124
S'the referenced resource'
p125
sS'AM-LOC'
p126
S'in the source file00'
p127
sS'V'
g37
sasS'pos_seq'
p128
(lp129
S'NN'
p130
aS'NN'
p131
aS'NN'
p132
aS'NN'
p133
aS'NN'
p134
aS'IN'
p135
aS'WRB'
p136
aS'DT'
p137
aS'VBN'
p138
aS'NN'
p139
aS'VBZ'
p140
aS'TO'
p141
aS'VB'
p142
aS'VBN'
p143
aS'IN'
p144
aS'DT'
p145
aS'NN'
p146
aS'.'
asS'ner_seq'
p147
(lp148
S'O'
aS'O'
aS'O'
aS'O'
aS'O'
aS'O'
aS'O'
aS'O'
aS'O'
aS'O'
aS'O'
aS'O'
aS'O'
aS'O'
aS'O'
aS'O'
aS'O'
aS'O'
assb.