ccopy_reg
_reconstructor
p1
(c__main__
KBproperty
p2
c__builtin__
object
p3
NtRp4
(dp5
S'comment'
p6
S'word before the country'
p7
sS'domain'
p8
S'Country '
p9
sS'instances_count'
p10
I0
sS'phrases'
p11
NsS'syn_hypo'
p12
S''
sS'label'
p13
g7
sS'range'
p14
S'string '
p15
sS'uniq_subjs'
p16
S'0'
sS'uniq_objs'
p17
I0
sS'prop_uri'
p18
S'http://dbpedia.org/ontology/wordBefore'
p19
sS'annotations'
p20
(dp21
S'bag_of_words'
p22
(lp23
S'Country'
p24
aS'word'
p25
aS'Before'
p26
aS'string'
p27
aS'word'
p28
aS'before'
p29
aS'the'
p30
aS'country'
p31
asS'chunk_seq'
p32
(lp33
S'B-NP'
p34
aS'E-NP'
p35
aS'S-PP'
p36
aS'B-NP'
p37
aS'E-NP'
p38
aS'S-PP'
p39
aS'B-NP'
p40
aS'E-NP'
p41
asS'dep_seq'
p42
(lp43
(lp44
S'nn'
p45
aS'2'
aS'1'
aa(lp46
S'root'
p47
aS'0'
aS'2'
aa(lp48
S'nn'
p49
aS'5'
aS'4'
aa(lp50
S'prep_before'
p51
aS'2'
aS'5'
aa(lp52
S'det'
p53
aS'8'
aS'7'
aa(lp54
S'prep_before'
p55
aS'2'
aS'8'
aasS'srls'
p56
(lp57
sS'pos_seq'
p58
(lp59
S'NN'
p60
aS'NN'
p61
aS'IN'
p62
aS'NN'
p63
aS'NN'
p64
aS'IN'
p65
aS'DT'
p66
aS'NN'
p67
asS'ner_seq'
p68
(lp69
S'O'
aS'O'
aS'O'
aS'O'
aS'O'
aS'O'
aS'O'
aS'O'
assb.