ccopy_reg
_reconstructor
p1
(c__main__
KBproperty
p2
c__builtin__
object
p3
NtRp4
(dp5
S'comment'
p6
S'00'
p7
sS'domain'
p8
S'Populated Place '
p9
sS'instances_count'
p10
I0
sS'phrases'
p11
NsS'syn_hypo'
p12
S''
sS'label'
p13
S'gini coefficient as of'
p14
sS'range'
p15
S'date '
p16
sS'uniq_subjs'
p17
S'0'
sS'uniq_objs'
p18
I0
sS'prop_uri'
p19
S'http://dbpedia.org/ontology/giniCoefficientAsOf'
p20
sS'annotations'
p21
(dp22
S'bag_of_words'
p23
(lp24
S'Populated'
p25
aS'Place'
p26
aS'gini'
p27
aS'coefficient'
p28
aS'as'
p29
aS'of'
p30
aS'date'
p31
aS'00'
p32
asS'chunk_seq'
p33
(lp34
S'B-NP'
p35
aS'I-NP'
p36
aS'I-NP'
p37
aS'E-NP'
p38
aS'S-PP'
p39
aS'S-PP'
p40
aS'S-NP'
p41
aS'O'
asS'dep_seq'
p42
(lp43
(lp44
S'amod'
p45
aS'4'
aS'1'
aa(lp46
S'nn'
p47
aS'4'
aS'2'
aa(lp48
S'nn'
p49
aS'4'
aS'3'
aa(lp50
S'root'
p51
aS'0'
aS'4'
aa(lp52
S'prepc_as_of'
p53
aS'4'
aS'6'
aa(lp54
S'pobj'
p55
aS'4'
aS'7'
aa(lp56
S'pobj'
p57
aS'4'
aS'8'
aasS'srls'
p58
(lp59
sS'pos_seq'
p60
(lp61
S'JJ'
p62
aS'NN'
p63
aS'NN'
p64
aS'NN'
p65
aS'IN'
p66
aS'IN'
p67
aS'NN'
p68
aS'CD'
p69
asS'ner_seq'
p70
(lp71
S'O'
aS'O'
aS'O'
aS'O'
aS'O'
aS'O'
aS'O'
aS'O'
assb.