ccopy_reg
_reconstructor
p1
(c__main__
KBproperty
p2
c__builtin__
object
p3
NtRp4
(dp5
S'comment'
p6
S'minimum system requirements'
p7
sS'domain'
p8
S''
sS'instances_count'
p9
I0
sS'phrases'
p10
NsS'syn_hypo'
p11
S''
sS'label'
p12
g7
sS'range'
p13
S'string '
p14
sS'uniq_subjs'
p15
S'0'
sS'uniq_objs'
p16
I0
sS'prop_uri'
p17
S'http://dbpedia.org/ontology/systemRequirements'
p18
sS'annotations'
p19
(dp20
S'bag_of_words'
p21
(lp22
S'system'
p23
aS'Requirements'
p24
aS'string'
p25
aS'minimum'
p26
aS'system'
p27
aS'requirements'
p28
asS'chunk_seq'
p29
(lp30
S'B-NP'
p31
aS'I-NP'
p32
aS'I-NP'
p33
aS'I-NP'
p34
aS'I-NP'
p35
aS'E-NP'
p36
asS'dep_seq'
p37
(lp38
(lp39
S'nn'
p40
aS'2'
aS'1'
aa(lp41
S'root'
p42
aS'0'
aS'2'
aa(lp43
S'nn'
p44
aS'6'
aS'3'
aa(lp45
S'amod'
p46
aS'6'
aS'4'
aa(lp47
S'nn'
p48
aS'6'
aS'5'
aa(lp49
S'dep'
p50
aS'2'
aS'6'
aasS'srls'
p51
(lp52
sS'pos_seq'
p53
(lp54
S'NN'
p55
aS'NNS'
p56
aS'NN'
p57
aS'JJ'
p58
aS'NN'
p59
aS'NNS'
p60
asS'ner_seq'
p61
(lp62
S'O'
aS'O'
aS'O'
aS'O'
aS'O'
aS'O'
assb.