ccopy_reg
_reconstructor
p1
(c__main__
KBproperty
p2
c__builtin__
object
p3
NtRp4
(dp5
S'comment'
p6
S'Waterway that goes through the tunnel.2222'
p7
sS'domain'
p8
S'Waterway Tunnel '
p9
sS'instances_count'
p10
I17
sS'phrases'
p11
NsS'syn_hypo'
p12
S''
sS'label'
p13
S'waterway through tunnel'
p14
sS'range'
p15
S''
sS'uniq_subjs'
p16
S'17'
p17
sS'uniq_objs'
p18
I0
sS'prop_uri'
p19
S'http://dbpedia.org/ontology/waterwayThroughTunnel'
p20
sS'annotations'
p21
(dp22
S'bag_of_words'
p23
(lp24
S'Waterway'
p25
aS'Tunnel'
p26
aS'waterway'
p27
aS'through'
p28
aS'tunnel'
p29
aS'Waterway'
p30
aS'that'
p31
aS'goes'
p32
aS'through'
p33
aS'the'
p34
aS'tunnel.2222'
p35
asS'chunk_seq'
p36
(lp37
S'B-NP'
p38
aS'I-NP'
p39
aS'E-NP'
p40
aS'S-PP'
p41
aS'B-NP'
p42
aS'E-NP'
p43
aS'S-NP'
p44
aS'S-VP'
p45
aS'S-PP'
p46
aS'B-NP'
p47
aS'E-NP'
p48
asS'dep_seq'
p49
(lp50
(lp51
S'nn'
p52
aS'3'
aS'1'
aa(lp53
S'nn'
p54
aS'3'
aS'2'
aa(lp55
S'root'
p56
aS'0'
aS'3'
aa(lp57
S'nsubj'
p58
aS'8'
aS'3'
aa(lp59
S'nn'
p60
aS'6'
aS'5'
aa(lp61
S'prep_through'
p62
aS'3'
aS'6'
aa(lp63
S'rcmod'
p64
aS'3'
aS'8'
aa(lp65
S'det'
p66
aS'11'
p67
aS'10'
p68
aa(lp69
S'prep_through'
p70
aS'8'
aS'11'
p71
aasS'srls'
p72
(lp73
(dp74
S'AM-DIR'
p75
S'through the tunnel.2222'
p76
sS'R-A1'
p77
g31
sS'V'
g32
sasS'pos_seq'
p78
(lp79
S'NNP'
p80
aS'NNP'
p81
aS'NN'
p82
aS'IN'
p83
aS'NN'
p84
aS'NN'
p85
aS'WDT'
p86
aS'VBZ'
p87
aS'IN'
p88
aS'DT'
p89
aS'NN'
p90
asS'ner_seq'
p91
(lp92
S'O'
aS'O'
aS'O'
aS'O'
aS'O'
aS'O'
aS'O'
aS'O'
aS'O'
aS'O'
aS'O'
assb.