ccopy_reg
_reconstructor
p1
(c__main__
KBproperty
p2
c__builtin__
object
p3
NtRp4
(dp5
S'comment'
p6
S'172859880'
p7
sS'domain'
p8
S'Military Conflict '
p9
sS'instances_count'
p10
I11154
sS'phrases'
p11
NsS'syn_hypo'
p12
S''
sS'label'
p13
S'causalties'
p14
sS'range'
p15
S'string '
p16
sS'uniq_subjs'
p17
S'11154'
p18
sS'uniq_objs'
p19
I0
sS'prop_uri'
p20
S'http://dbpedia.org/ontology/causalties'
p21
sS'annotations'
p22
(dp23
S'bag_of_words'
p24
(lp25
S'Military'
p26
aS'Conflict'
p27
aS'causalties'
p28
aS'string'
p29
aS'172859880'
p30
asS'chunk_seq'
p31
(lp32
S'B-NP'
p33
aS'E-NP'
p34
aS'S-VP'
p35
aS'B-NP'
p36
aS'E-NP'
p37
asS'dep_seq'
p38
(lp39
(lp40
S'nn'
p41
aS'4'
aS'1'
aa(lp42
S'nn'
p43
aS'4'
aS'2'
aa(lp44
S'dep'
p45
aS'4'
aS'3'
aa(lp46
S'root'
p47
aS'0'
aS'4'
aa(lp48
S'advmod'
p49
aS'4'
aS'5'
aasS'srls'
p50
(lp51
(dp52
S'A1'
p53
S'string 172859880'
p54
sS'A0'
p55
S'Military Conflict'
p56
sS'V'
g28
sasS'pos_seq'
p57
(lp58
S'NNP'
p59
aS'NNP'
p60
aS'VBZ'
p61
aS'NN'
p62
aS'CD'
p63
asS'ner_seq'
p64
(lp65
S'O'
aS'O'
aS'O'
aS'O'
aS'O'
assb.