ccopy_reg
_reconstructor
p1
(c__main__
KBproperty
p2
c__builtin__
object
p3
NtRp4
(dp5
S'comment'
p6
S'572526'
p7
sS'domain'
p8
S'Anatomical Structure '
p9
sS'instances_count'
p10
I210
sS'phrases'
p11
NsS'syn_hypo'
p12
S''
sS'label'
p13
S'branch from'
p14
sS'range'
p15
S'Anatomical Structure '
p16
sS'uniq_subjs'
p17
S'210'
p18
sS'uniq_objs'
p19
I0
sS'prop_uri'
p20
S'http://dbpedia.org/ontology/branchFrom'
p21
sS'annotations'
p22
(dp23
S'bag_of_words'
p24
(lp25
S'Anatomical'
p26
aS'Structure'
p27
aS'branch'
p28
aS'from'
p29
aS'Anatomical'
p30
aS'Structure'
p31
aS'572526'
p32
asS'chunk_seq'
p33
(lp34
S'B-NP'
p35
aS'I-NP'
p36
aS'E-NP'
p37
aS'S-PP'
p38
aS'B-NP'
p39
aS'E-NP'
p40
aS'O'
asS'dep_seq'
p41
(lp42
(lp43
S'nn'
p44
aS'3'
aS'1'
aa(lp45
S'nn'
p46
aS'3'
aS'2'
aa(lp47
S'root'
p48
aS'0'
aS'3'
aa(lp49
S'amod'
p50
aS'6'
aS'5'
aa(lp51
S'prep_from'
p52
aS'3'
aS'6'
aa(lp53
S'punct'
p54
aS'6'
aS'7'
aasS'srls'
p55
(lp56
sS'pos_seq'
p57
(lp58
S'NNP'
p59
aS'NNP'
p60
aS'NN'
p61
aS'IN'
p62
aS'JJ'
p63
aS'NN'
p64
aS'.'
asS'ner_seq'
p65
(lp66
S'O'
aS'O'
aS'O'
aS'O'
aS'S-MISC'
p67
aS'O'
aS'O'
assb.