ccopy_reg
_reconstructor
p1
(c__main__
KBproperty
p2
c__builtin__
object
p3
NtRp4
(dp5
S'comment'
p6
S'63045380'
p7
sS'domain'
p8
S''
sS'instances_count'
p9
I1389
sS'phrases'
p10
NsS'syn_hypo'
p11
S''
sS'label'
p12
S'home stadium'
p13
sS'range'
p14
S'Stadium '
p15
sS'uniq_subjs'
p16
S'1389'
p17
sS'uniq_objs'
p18
I0
sS'prop_uri'
p19
S'http://dbpedia.org/ontology/homeStadium'
p20
sS'annotations'
p21
(dp22
S'bag_of_words'
p23
(lp24
S'home'
p25
aS'stadium'
p26
aS'Stadium'
p27
aS'63045380'
p28
asS'chunk_seq'
p29
(lp30
S'B-NP'
p31
aS'I-NP'
p32
aS'E-NP'
p33
aS'S-ADVP'
p34
asS'dep_seq'
p35
(lp36
(lp37
S'nn'
p38
aS'3'
aS'1'
aa(lp39
S'nn'
p40
aS'3'
aS'2'
aa(lp41
S'root'
p42
aS'0'
aS'3'
aa(lp43
S'dep'
p44
aS'3'
aS'4'
aasS'srls'
p45
(lp46
sS'pos_seq'
p47
(lp48
S'NN'
p49
aS'NN'
p50
aS'NNP'
p51
aS'CD'
p52
asS'ner_seq'
p53
(lp54
S'O'
aS'O'
aS'O'
aS'O'
assb.