ccopy_reg
_reconstructor
p1
(c__main__
KBproperty
p2
c__builtin__
object
p3
NtRp4
(dp5
S'comment'
p6
S'The theatre and/or city the play was first performed in.19021214'
p7
sS'domain'
p8
S'Play '
p9
sS'instances_count'
p10
I628
sS'phrases'
p11
NsS'syn_hypo'
p12
S''
sS'label'
p13
S'premiere place'
p14
sS'range'
p15
S''
sS'uniq_subjs'
p16
S'628'
p17
sS'uniq_objs'
p18
I0
sS'prop_uri'
p19
S'http://dbpedia.org/ontology/premierePlace'
p20
sS'annotations'
p21
(dp22
S'bag_of_words'
p23
(lp24
S'Play'
p25
aS'premiere'
p26
aS'place'
p27
aS'The'
p28
aS'theatre'
p29
aS'and/or'
p30
aS'city'
p31
aS'the'
p32
aS'play'
p33
aS'was'
p34
aS'first'
p35
aS'performed'
p36
aS'in.19021214'
p37
asS'chunk_seq'
p38
(lp39
S'S-VP'
p40
aS'B-NP'
p41
aS'E-NP'
p42
aS'B-NP'
p43
aS'E-NP'
p44
aS'S-PP'
p45
aS'S-NP'
p46
aS'B-NP'
p47
aS'E-NP'
p48
aS'B-VP'
p49
aS'I-VP'
p50
aS'E-VP'
p51
aS'S-NP'
p52
asS'dep_seq'
p53
(lp54
(lp55
S'root'
p56
aS'0'
aS'1'
aa(lp57
S'nn'
p58
aS'3'
aS'2'
aa(lp59
S'dobj'
p60
aS'1'
aS'3'
aa(lp61
S'det'
p62
aS'5'
aS'4'
aa(lp63
S'dep'
p64
aS'1'
aS'5'
aa(lp65
S'mark'
p66
aS'12'
p67
aS'6'
aa(lp68
S'nsubjpass'
p69
aS'12'
p70
aS'7'
aa(lp71
S'det'
p72
aS'9'
aS'8'
aa(lp73
S'dep'
p74
aS'7'
aS'9'
aa(lp75
S'auxpass'
p76
aS'12'
p77
aS'10'
p78
aa(lp79
S'advmod'
p80
aS'12'
p81
aS'11'
p82
aa(lp83
S'dep'
p84
aS'5'
aS'12'
p85
aa(lp86
S'dobj'
p87
aS'12'
p88
aS'13'
p89
aasS'srls'
p90
(lp91
(dp92
S'A1'
p93
S'premiere place The theatre and/or city the play'
p94
sS'V'
g25
sa(dp95
S'A1'
p96
g37
sS'A0'
p97
S'the play'
p98
sS'AM-TMP'
p99
g35
sS'V'
g36
sasS'pos_seq'
p100
(lp101
S'VB'
p102
aS'NN'
p103
aS'NN'
p104
aS'DT'
p105
aS'NN'
p106
aS'IN'
p107
aS'NN'
p108
aS'DT'
p109
aS'NN'
p110
aS'VBD'
p111
aS'RB'
p112
aS'VBN'
p113
aS'NN'
p114
asS'ner_seq'
p115
(lp116
S'O'
aS'O'
aS'O'
aS'O'
aS'O'
aS'O'
aS'O'
aS'O'
aS'O'
aS'O'
aS'O'
aS'O'
aS'O'
assb.