ccopy_reg
_reconstructor
p1
(c__main__
KBproperty
p2
c__builtin__
object
p3
NtRp4
(dp5
S'comment'
p6
S'The place where the person has been buried.13441054'
p7
sS'domain'
p8
S'Person '
p9
sS'instances_count'
p10
I868
sS'phrases'
p11
NsS'syn_hypo'
p12
S''
sS'label'
p13
S'place of burial'
p14
sS'range'
p15
S'Place '
p16
sS'uniq_subjs'
p17
S'868'
p18
sS'uniq_objs'
p19
I0
sS'prop_uri'
p20
S'http://dbpedia.org/ontology/placeOfBurial'
p21
sS'annotations'
p22
(dp23
S'bag_of_words'
p24
(lp25
S'Person'
p26
aS'place'
p27
aS'of'
p28
aS'burial'
p29
aS'Place'
p30
aS'The'
p31
aS'place'
p32
aS'where'
p33
aS'the'
p34
aS'person'
p35
aS'has'
p36
aS'been'
p37
aS'buried.13441054'
p38
asS'chunk_seq'
p39
(lp40
S'B-NP'
p41
aS'E-NP'
p42
aS'S-PP'
p43
aS'B-NP'
p44
aS'E-NP'
p45
aS'B-NP'
p46
aS'E-NP'
p47
aS'S-ADVP'
p48
aS'B-NP'
p49
aS'E-NP'
p50
aS'B-VP'
p51
aS'E-VP'
p52
aS'S-ADJP'
p53
asS'dep_seq'
p54
(lp55
(lp56
S'nn'
p57
aS'2'
aS'1'
aa(lp58
S'root'
p59
aS'0'
aS'2'
aa(lp60
S'nn'
p61
aS'5'
aS'4'
aa(lp62
S'prep_of'
p63
aS'2'
aS'5'
aa(lp64
S'det'
p65
aS'7'
aS'6'
aa(lp66
S'dep'
p67
aS'2'
aS'7'
aa(lp68
S'advmod'
p69
aS'13'
p70
aS'8'
aa(lp71
S'det'
p72
aS'10'
p73
aS'9'
aa(lp74
S'nsubj'
p75
aS'13'
p76
aS'10'
p77
aa(lp78
S'aux'
p79
aS'13'
p80
aS'11'
p81
aa(lp82
S'cop'
p83
aS'13'
p84
aS'12'
p85
aa(lp86
S'rcmod'
p87
aS'7'
aS'13'
p88
aasS'srls'
p89
(lp90
sS'pos_seq'
p91
(lp92
S'NN'
p93
aS'NN'
p94
aS'IN'
p95
aS'NN'
p96
aS'NN'
p97
aS'DT'
p98
aS'NN'
p99
aS'WRB'
p100
aS'DT'
p101
aS'NN'
p102
aS'VBZ'
p103
aS'VBN'
p104
aS'.'
asS'ner_seq'
p105
(lp106
S'O'
aS'O'
aS'O'
aS'O'
aS'O'
aS'O'
aS'O'
aS'O'
aS'O'
aS'O'
aS'O'
aS'O'
aS'O'
assb.