ccopy_reg
_reconstructor
p1
(c__main__
KBproperty
p2
c__builtin__
object
p3
NtRp4
(dp5
S'comment'
p6
S'6060'
p7
sS'domain'
p8
S'Wine Region '
p9
sS'instances_count'
p10
I47
sS'phrases'
p11
NsS'syn_hypo'
p12
S''
sS'label'
p13
S'number of vineyards'
p14
sS'range'
p15
S'non Negative Integer '
p16
sS'uniq_subjs'
p17
S'47'
p18
sS'uniq_objs'
p19
I0
sS'prop_uri'
p20
S'http://dbpedia.org/ontology/numberOfVineyards'
p21
sS'annotations'
p22
(dp23
S'bag_of_words'
p24
(lp25
S'Wine'
p26
aS'Region'
p27
aS'number'
p28
aS'of'
p29
aS'vineyards'
p30
aS'non'
p31
aS'Negative'
p32
aS'Integer'
p33
aS'6060'
p34
asS'chunk_seq'
p35
(lp36
S'B-NP'
p37
aS'I-NP'
p38
aS'E-NP'
p39
aS'S-PP'
p40
aS'B-NP'
p41
aS'I-NP'
p42
aS'I-NP'
p43
aS'E-NP'
p44
aS'O'
asS'dep_seq'
p45
(lp46
(lp47
S'nn'
p48
aS'3'
aS'1'
aa(lp49
S'nn'
p50
aS'3'
aS'2'
aa(lp51
S'root'
p52
aS'0'
aS'3'
aa(lp53
S'prep_of'
p54
aS'3'
aS'5'
aa(lp55
S'amod'
p56
aS'8'
aS'6'
aa(lp57
S'nn'
p58
aS'8'
aS'7'
aa(lp59
S'dep'
p60
aS'3'
aS'8'
aa(lp61
S'num'
p62
aS'8'
aS'9'
aasS'srls'
p63
(lp64
sS'pos_seq'
p65
(lp66
S'NNP'
p67
aS'NNP'
p68
aS'NN'
p69
aS'IN'
p70
aS'NNS'
p71
aS'JJ'
p72
aS'NNP'
p73
aS'NNP'
p74
aS'CD'
p75
asS'ner_seq'
p76
(lp77
S'O'
aS'O'
aS'O'
aS'O'
aS'O'
aS'O'
aS'O'
aS'O'
aS'O'
assb.