ccopy_reg
_reconstructor
p1
(c__main__
KBproperty
p2
c__builtin__
object
p3
NtRp4
(dp5
S'comment'
p6
S'00'
p7
sS'domain'
p8
S'Openswarm '
p9
sS'instances_count'
p10
I0
sS'phrases'
p11
NsS'syn_hypo'
p12
S''
sS'label'
p13
S'size_v'
p14
sS'range'
p15
S'integer '
p16
sS'uniq_subjs'
p17
S'0'
sS'uniq_objs'
p18
I0
sS'prop_uri'
p19
S'http://dbpedia.org/ontology/size_v'
p20
sS'annotations'
p21
(dp22
S'bag_of_words'
p23
(lp24
S'Openswarm'
p25
aS'size'
p26
aS'_'
aS'v'
aS'integer'
p27
aS'00'
p28
asS'chunk_seq'
p29
(lp30
S'B-NP'
p31
aS'E-NP'
p32
aS'O'
aS'O'
aS'O'
aS'O'
asS'dep_seq'
p33
(lp34
(lp35
S'nn'
p36
aS'5'
aS'1'
aa(lp37
S'nn'
p38
aS'5'
aS'2'
aa(lp39
S'nn'
p40
aS'5'
aS'3'
aa(lp41
S'nn'
p42
aS'5'
aS'4'
aa(lp43
S'root'
p44
aS'0'
aS'5'
aa(lp45
S'num'
p46
aS'5'
aS'6'
aasS'srls'
p47
(lp48
sS'pos_seq'
p49
(lp50
S'FW'
p51
aS'FW'
p52
aS'FW'
p53
aS'FW'
p54
aS'NN'
p55
aS'CD'
p56
asS'ner_seq'
p57
(lp58
S'S-LOC'
p59
aS'O'
aS'O'
aS'O'
aS'O'
aS'O'
assb.