ccopy_reg
_reconstructor
p1
(c__main__
KBproperty
p2
c__builtin__
object
p3
NtRp4
(dp5
S'comment'
p6
S'Smartcard for fare payment system for public transit systems that are or will be available at the station.831831'
p7
sS'domain'
p8
S'Station '
p9
sS'instances_count'
p10
I22
sS'phrases'
p11
NsS'syn_hypo'
p12
S''
sS'label'
p13
S'available smart card'
p14
sS'range'
p15
S''
sS'uniq_subjs'
p16
S'22'
p17
sS'uniq_objs'
p18
I0
sS'prop_uri'
p19
S'http://dbpedia.org/ontology/availableSmartCard'
p20
sS'annotations'
p21
(dp22
S'bag_of_words'
p23
(lp24
S'Station'
p25
aS'available'
p26
aS'smart'
p27
aS'card'
p28
aS'Smartcard'
p29
aS'for'
p30
aS'fare'
p31
aS'payment'
p32
aS'system'
p33
aS'for'
p34
aS'public'
p35
aS'transit'
p36
aS'systems'
p37
aS'that'
p38
aS'are'
p39
aS'or'
p40
aS'will'
p41
aS'be'
p42
aS'available'
p43
aS'at'
p44
aS'the'
p45
aS'station.831831'
p46
asS'chunk_seq'
p47
(lp48
S'B-NP'
p49
aS'I-NP'
p50
aS'I-NP'
p51
aS'I-NP'
p52
aS'E-NP'
p53
aS'S-PP'
p54
aS'B-NP'
p55
aS'I-NP'
p56
aS'E-NP'
p57
aS'S-PP'
p58
aS'B-NP'
p59
aS'I-NP'
p60
aS'E-NP'
p61
aS'S-NP'
p62
aS'S-VP'
p63
aS'O'
aS'B-VP'
p64
aS'E-VP'
p65
aS'S-ADJP'
p66
aS'S-PP'
p67
aS'B-NP'
p68
aS'E-NP'
p69
asS'dep_seq'
p70
(lp71
(lp72
S'nn'
p73
aS'5'
aS'1'
aa(lp74
S'amod'
p75
aS'5'
aS'2'
aa(lp76
S'amod'
p77
aS'5'
aS'3'
aa(lp78
S'nn'
p79
aS'5'
aS'4'
aa(lp80
S'dep'
p81
aS'6'
aS'5'
aa(lp82
S'root'
p83
aS'0'
aS'6'
aa(lp84
S'nn'
p85
aS'9'
aS'7'
aa(lp86
S'nn'
p87
aS'9'
aS'8'
aa(lp88
S'pobj'
p89
aS'6'
aS'9'
aa(lp90
S'amod'
p91
aS'13'
p92
aS'11'
p93
aa(lp94
S'nn'
p95
aS'13'
p96
aS'12'
p97
aa(lp98
S'prep_for'
p99
aS'9'
aS'13'
p100
aa(lp101
S'nsubj'
p102
aS'15'
p103
aS'13'
p104
aa(lp105
S'rcmod'
p106
aS'13'
p107
aS'15'
p108
aa(lp109
S'aux'
p110
aS'19'
p111
aS'17'
p112
aa(lp113
S'cop'
p114
aS'19'
p115
aS'18'
p116
aa(lp117
S'conj_or'
p118
aS'6'
aS'19'
p119
aa(lp120
S'det'
p121
aS'22'
p122
aS'21'
p123
aa(lp124
S'prep_at'
p125
aS'19'
p126
aS'22'
p127
aasS'srls'
p128
(lp129
sS'pos_seq'
p130
(lp131
S'NN'
p132
aS'JJ'
p133
aS'JJ'
p134
aS'NN'
p135
aS'NNP'
p136
aS'IN'
p137
aS'NN'
p138
aS'NN'
p139
aS'NN'
p140
aS'IN'
p141
aS'JJ'
p142
aS'NN'
p143
aS'NNS'
p144
aS'WDT'
p145
aS'VBP'
p146
aS'CC'
p147
aS'MD'
p148
aS'VB'
p149
aS'JJ'
p150
aS'IN'
p151
aS'DT'
p152
aS'NN'
p153
asS'ner_seq'
p154
(lp155
S'O'
aS'O'
aS'O'
aS'O'
aS'O'
aS'O'
aS'O'
aS'O'
aS'O'
aS'O'
aS'O'
aS'O'
aS'O'
aS'O'
aS'O'
aS'O'
aS'O'
aS'O'
aS'O'
aS'O'
aS'O'
aS'O'
assb.