ccopy_reg
_reconstructor
p1
(c__main__
KBproperty
p2
c__builtin__
object
p3
NtRp4
(dp5
S'comment'
p6
S'19550'
p7
sS'domain'
p8
S'Year In Spaceflight '
p9
sS'instances_count'
p10
I136
sS'phrases'
p11
NsS'syn_hypo'
p12
S''
sS'label'
p13
S'maiden flight rocket'
p14
sS'range'
p15
S'Rocket '
p16
sS'uniq_subjs'
p17
S'136'
p18
sS'uniq_objs'
p19
I0
sS'prop_uri'
p20
S'http://dbpedia.org/ontology/maidenFlightRocket'
p21
sS'annotations'
p22
(dp23
S'bag_of_words'
p24
(lp25
S'Year'
p26
aS'In'
p27
aS'Spaceflight'
p28
aS'maiden'
p29
aS'flight'
p30
aS'rocket'
p31
aS'Rocket'
p32
aS'19550'
p33
asS'chunk_seq'
p34
(lp35
S'S-NP'
p36
aS'S-PP'
p37
aS'B-NP'
p38
aS'I-NP'
p39
aS'I-NP'
p40
aS'I-NP'
p41
aS'E-NP'
p42
aS'O'
asS'dep_seq'
p43
(lp44
(lp45
S'root'
p46
aS'0'
aS'1'
aa(lp47
S'nn'
p48
aS'7'
aS'3'
aa(lp49
S'nn'
p50
aS'7'
aS'4'
aa(lp51
S'nn'
p52
aS'7'
aS'5'
aa(lp53
S'nn'
p54
aS'7'
aS'6'
aa(lp55
S'prep_in'
p56
aS'1'
aS'7'
aa(lp57
S'num'
p58
aS'7'
aS'8'
aasS'srls'
p59
(lp60
sS'pos_seq'
p61
(lp62
S'NN'
p63
aS'IN'
p64
aS'NNP'
p65
aS'NN'
p66
aS'NN'
p67
aS'NN'
p68
aS'NNP'
p69
aS'CD'
p70
asS'ner_seq'
p71
(lp72
S'O'
aS'O'
aS'O'
aS'O'
aS'O'
aS'O'
aS'O'
aS'O'
assb.