ccopy_reg
_reconstructor
p1
(c__main__
KBproperty
p2
c__builtin__
object
p3
NtRp4
(dp5
S'comment'
p6
S'True if the station is handicapped accessible.43144314'
p7
sS'domain'
p8
S'Station '
p9
sS'instances_count'
p10
I2
sS'phrases'
p11
NsS'syn_hypo'
p12
S''
sS'label'
p13
S'is handicapped accessible'
p14
sS'range'
p15
S'boolean '
p16
sS'uniq_subjs'
p17
S'2'
sS'uniq_objs'
p18
I0
sS'prop_uri'
p19
S'http://dbpedia.org/ontology/isHandicappedAccessible'
p20
sS'annotations'
p21
(dp22
S'bag_of_words'
p23
(lp24
S'Station'
p25
aS'is'
p26
aS'handicapped'
p27
aS'accessible'
p28
aS'boolean'
p29
aS'True'
p30
aS'if'
p31
aS'the'
p32
aS'station'
p33
aS'is'
p34
aS'handicapped'
p35
aS'accessible.43144314'
p36
asS'chunk_seq'
p37
(lp38
S'S-NP'
p39
aS'B-VP'
p40
aS'E-VP'
p41
aS'B-ADJP'
p42
aS'I-ADJP'
p43
aS'E-ADJP'
p44
aS'S-SBAR'
p45
aS'B-NP'
p46
aS'E-NP'
p47
aS'B-VP'
p48
aS'E-VP'
p49
aS'S-ADJP'
p50
asS'dep_seq'
p51
(lp52
(lp53
S'nsubjpass'
p54
aS'3'
aS'1'
aa(lp55
S'auxpass'
p56
aS'3'
aS'2'
aa(lp57
S'root'
p58
aS'0'
aS'3'
aa(lp59
S'amod'
p60
aS'6'
aS'4'
aa(lp61
S'amod'
p62
aS'6'
aS'5'
aa(lp63
S'acomp'
p64
aS'3'
aS'6'
aa(lp65
S'mark'
p66
aS'11'
p67
aS'7'
aa(lp68
S'det'
p69
aS'9'
aS'8'
aa(lp70
S'nsubjpass'
p71
aS'11'
p72
aS'9'
aa(lp73
S'auxpass'
p74
aS'11'
p75
aS'10'
p76
aa(lp77
S'advcl'
p78
aS'3'
aS'11'
p79
aa(lp80
S'advmod'
p81
aS'11'
p82
aS'12'
p83
aasS'srls'
p84
(lp85
sS'pos_seq'
p86
(lp87
S'NN'
p88
aS'VBZ'
p89
aS'VBN'
p90
aS'JJ'
p91
aS'JJ'
p92
aS'JJ'
p93
aS'IN'
p94
aS'DT'
p95
aS'NN'
p96
aS'VBZ'
p97
aS'VBN'
p98
aS'.'
asS'ner_seq'
p99
(lp100
S'O'
aS'O'
aS'O'
aS'O'
aS'O'
aS'O'
aS'O'
aS'O'
aS'O'
aS'O'
aS'O'
aS'O'
assb.