ccopy_reg
_reconstructor
p1
(c__main__
KBproperty
p2
c__builtin__
object
p3
NtRp4
(dp5
S'comment'
p6
S'A document cited by this work. Like OntologyProperty:dct:references but as a datatype property.00'
p7
sS'domain'
p8
S'Work '
p9
sS'instances_count'
p10
I0
sS'phrases'
p11
NsS'syn_hypo'
p12
S''
sS'label'
p13
S'cites'
p14
sS'range'
p15
S'string '
p16
sS'uniq_subjs'
p17
S'0'
sS'uniq_objs'
p18
I0
sS'prop_uri'
p19
S'http://dbpedia.org/ontology/cites'
p20
sS'annotations'
p21
(dp22
S'bag_of_words'
p23
(lp24
S'Work'
p25
aS'cites'
p26
aS'string'
p27
aS'A'
aS'document'
p28
aS'cited'
p29
aS'by'
p30
aS'this'
p31
aS'work.'
p32
aS'Like'
p33
aS'OntologyProperty'
p34
aS':'
aS'dct'
p35
aS':'
aS'references'
p36
aS'but'
p37
aS'as'
p38
aS'a'
aS'datatype'
p39
aS'property.00'
p40
asS'chunk_seq'
p41
(lp42
S'S-NP'
p43
aS'S-VP'
p44
aS'B-NP'
p45
aS'I-NP'
p46
aS'E-NP'
p47
aS'S-VP'
p48
aS'S-PP'
p49
aS'B-NP'
p50
aS'E-NP'
p51
aS'S-PP'
p52
aS'S-NP'
p53
aS'O'
aS'S-NP'
p54
aS'O'
aS'S-NP'
p55
aS'O'
aS'S-PP'
p56
aS'B-NP'
p57
aS'E-NP'
p58
aS'O'
asS'dep_seq'
p59
(lp60
(lp61
S'dep'
p62
aS'15'
p63
aS'1'
aa(lp64
S'dep'
p65
aS'15'
p66
aS'2'
aa(lp67
S'dep'
p68
aS'15'
p69
aS'3'
aa(lp70
S'det'
p71
aS'5'
aS'4'
aa(lp72
S'dep'
p73
aS'15'
p74
aS'5'
aa(lp75
S'dep'
p76
aS'15'
p77
aS'6'
aa(lp78
S'dep'
p79
aS'15'
p80
aS'7'
aa(lp81
S'det'
p82
aS'9'
aS'8'
aa(lp83
S'pobj'
p84
aS'7'
aS'9'
aa(lp85
S'dep'
p86
aS'15'
p87
aS'10'
p88
aa(lp89
S'dep'
p90
aS'15'
p91
aS'11'
p92
aa(lp93
S'dep'
p94
aS'15'
p95
aS'13'
p96
aa(lp97
S'root'
p98
aS'0'
aS'15'
p99
aa(lp100
S'cc'
p101
aS'15'
p102
aS'16'
p103
aa(lp104
S'det'
p105
aS'19'
p106
aS'18'
p107
aa(lp108
S'prep_as'
p109
aS'15'
p110
aS'19'
p111
aa(lp112
S'punct'
p113
aS'19'
p114
aS'20'
p115
aasS'srls'
p116
(lp117
(dp118
S'A1'
p119
S'string A document cited by this work. Like OntologyProperty : dct : references but as a datatype property.00'
p120
sS'A0'
p121
g25
sS'V'
g26
sa(dp122
S'A1'
p123
S'A document'
p124
sS'A0'
p125
S'by this work. Like OntologyProperty'
p126
sS'V'
g29
sasS'pos_seq'
p127
(lp128
S'NN'
p129
aS'VBZ'
p130
aS'NN'
p131
aS'DT'
p132
aS'NN'
p133
aS'VBN'
p134
aS'IN'
p135
aS'DT'
p136
aS'NN'
p137
aS'IN'
p138
aS'NNP'
p139
aS':'
aS'NN'
p140
aS':'
aS'NNS'
p141
aS'CC'
p142
aS'IN'
p143
aS'DT'
p144
aS'NN'
p145
aS'.'
asS'ner_seq'
p146
(lp147
S'O'
aS'O'
aS'O'
aS'O'
aS'O'
aS'O'
aS'O'
aS'O'
aS'O'
aS'O'
aS'O'
aS'O'
aS'O'
aS'O'
aS'O'
aS'O'
aS'O'
aS'O'
aS'O'
aS'O'
assb.