ccopy_reg
_reconstructor
p1
(c__main__
KBproperty
p2
c__builtin__
object
p3
NtRp4
(dp5
S'comment'
p6
S'indexing code used by the Polish National Official Register of the Territorial Division of the Country TERYT to identify various entities00'
p7
sS'domain'
p8
S'Populated Place '
p9
sS'instances_count'
p10
I0
sS'phrases'
p11
NsS'syn_hypo'
p12
S''
sS'label'
p13
S'TERYT code'
p14
sS'range'
p15
S''
sS'uniq_subjs'
p16
S'0'
sS'uniq_objs'
p17
I0
sS'prop_uri'
p18
S'http://dbpedia.org/ontology/terytCode'
p19
sS'annotations'
p20
(dp21
S'bag_of_words'
p22
(lp23
S'Populated'
p24
aS'Place'
p25
aS'TERYT'
p26
aS'code'
p27
aS'indexing'
p28
aS'code'
p29
aS'used'
p30
aS'by'
p31
aS'the'
p32
aS'Polish'
p33
aS'National'
p34
aS'Official'
p35
aS'Register'
p36
aS'of'
p37
aS'the'
p38
aS'Territorial'
p39
aS'Division'
p40
aS'of'
p41
aS'the'
p42
aS'Country'
p43
aS'TERYT'
p44
aS'to'
p45
aS'identify'
p46
aS'various'
p47
aS'entities00'
p48
asS'chunk_seq'
p49
(lp50
S'B-NP'
p51
aS'I-NP'
p52
aS'I-NP'
p53
aS'I-NP'
p54
aS'I-NP'
p55
aS'E-NP'
p56
aS'S-VP'
p57
aS'S-PP'
p58
aS'B-NP'
p59
aS'I-NP'
p60
aS'I-NP'
p61
aS'I-NP'
p62
aS'E-NP'
p63
aS'S-PP'
p64
aS'B-NP'
p65
aS'I-NP'
p66
aS'E-NP'
p67
aS'S-PP'
p68
aS'B-NP'
p69
aS'I-NP'
p70
aS'E-NP'
p71
aS'B-VP'
p72
aS'E-VP'
p73
aS'B-NP'
p74
aS'E-NP'
p75
asS'dep_seq'
p76
(lp77
(lp78
S'amod'
p79
aS'6'
aS'1'
aa(lp80
S'nn'
p81
aS'6'
aS'2'
aa(lp82
S'nn'
p83
aS'6'
aS'3'
aa(lp84
S'nn'
p85
aS'6'
aS'4'
aa(lp86
S'nn'
p87
aS'6'
aS'5'
aa(lp88
S'nsubj'
p89
aS'7'
aS'6'
aa(lp90
S'root'
p91
aS'0'
aS'7'
aa(lp92
S'det'
p93
aS'13'
p94
aS'9'
aa(lp95
S'nn'
p96
aS'13'
p97
aS'10'
p98
aa(lp99
S'nn'
p100
aS'13'
p101
aS'11'
p102
aa(lp103
S'nn'
p104
aS'13'
p105
aS'12'
p106
aa(lp107
S'prep_by'
p108
aS'7'
aS'13'
p109
aa(lp110
S'det'
p111
aS'17'
p112
aS'15'
p113
aa(lp114
S'nn'
p115
aS'17'
p116
aS'16'
p117
aa(lp118
S'prep_of'
p119
aS'13'
p120
aS'17'
p121
aa(lp122
S'det'
p123
aS'21'
p124
aS'19'
p125
aa(lp126
S'nn'
p127
aS'21'
p128
aS'20'
p129
aa(lp130
S'prep_of'
p131
aS'17'
p132
aS'21'
p133
aa(lp134
S'aux'
p135
aS'23'
p136
aS'22'
p137
aa(lp138
S'infmod'
p139
aS'13'
p140
aS'23'
p141
aa(lp142
S'amod'
p143
aS'25'
p144
aS'24'
p145
aa(lp146
S'dobj'
p147
aS'23'
p148
aS'25'
p149
aasS'srls'
p150
(lp151
(dp152
S'A1'
p153
S'TERYT code indexing code'
p154
sS'A0'
p155
S'by the Polish National Official Register of the Territorial Division of the Country TERYT'
p156
sS'AM-PNC'
p157
S'to identify various entities00'
p158
sS'V'
g30
sa(dp159
S'A1'
p160
S'various entities00'
p161
sS'A0'
p162
S'Populated Place TERYT code indexing code used by the Polish National Official Register of the Territorial Division'
p163
sS'V'
g46
sasS'pos_seq'
p164
(lp165
S'VBN'
p166
aS'NNP'
p167
aS'NNP'
p168
aS'NN'
p169
aS'NN'
p170
aS'NN'
p171
aS'VBN'
p172
aS'IN'
p173
aS'DT'
p174
aS'NNP'
p175
aS'NNP'
p176
aS'NNP'
p177
aS'NNP'
p178
aS'IN'
p179
aS'DT'
p180
aS'NNP'
p181
aS'NNP'
p182
aS'IN'
p183
aS'DT'
p184
aS'NNP'
p185
aS'NNP'
p186
aS'TO'
p187
aS'VB'
p188
aS'JJ'
p189
aS'NN'
p190
asS'ner_seq'
p191
(lp192
S'O'
aS'O'
aS'O'
aS'O'
aS'O'
aS'O'
aS'O'
aS'O'
aS'O'
aS'B-ORG'
p193
aS'I-ORG'
p194
aS'I-ORG'
p195
aS'I-ORG'
p196
aS'I-ORG'
p197
aS'I-ORG'
p198
aS'I-ORG'
p199
aS'I-ORG'
p200
aS'I-ORG'
p201
aS'I-ORG'
p202
aS'I-ORG'
p203
aS'E-ORG'
p204
aS'O'
aS'O'
aS'O'
aS'O'
assb.