ccopy_reg
_reconstructor
p1
(c__main__
KBproperty
p2
c__builtin__
object
p3
NtRp4
(dp5
S'comment'
p6
S'The impact factor often abbreviated IF is a measure reflecting the average number of citations to articles published in science and social science journals.35983573'
p7
sS'domain'
p8
S'Academic Journal '
p9
sS'instances_count'
p10
I3598
sS'phrases'
p11
NsS'syn_hypo'
p12
S''
sS'label'
p13
S'impact factor'
p14
sS'range'
p15
S'double '
p16
sS'uniq_subjs'
p17
S'2543'
p18
sS'uniq_objs'
p19
I0
sS'prop_uri'
p20
S'http://dbpedia.org/ontology/impactFactor'
p21
sS'annotations'
p22
(dp23
S'bag_of_words'
p24
(lp25
S'Academic'
p26
aS'Journal'
p27
aS'impact'
p28
aS'factor'
p29
aS'double'
p30
aS'The'
p31
aS'impact'
p32
aS'factor'
p33
aS'often'
p34
aS'abbreviated'
p35
aS'IF'
p36
aS'is'
p37
aS'a'
aS'measure'
p38
aS'reflecting'
p39
aS'the'
p40
aS'average'
p41
aS'number'
p42
aS'of'
p43
aS'citations'
p44
aS'to'
p45
aS'articles'
p46
aS'published'
p47
aS'in'
p48
aS'science'
p49
aS'and'
p50
aS'social'
p51
aS'science'
p52
aS'journals.35983573'
p53
asS'chunk_seq'
p54
(lp55
S'B-NP'
p56
aS'I-NP'
p57
aS'I-NP'
p58
aS'E-NP'
p59
aS'B-NP'
p60
aS'I-NP'
p61
aS'I-NP'
p62
aS'E-NP'
p63
aS'B-VP'
p64
aS'E-VP'
p65
aS'S-SBAR'
p66
aS'S-VP'
p67
aS'B-NP'
p68
aS'E-NP'
p69
aS'S-VP'
p70
aS'B-NP'
p71
aS'I-NP'
p72
aS'E-NP'
p73
aS'S-PP'
p74
aS'S-NP'
p75
aS'S-PP'
p76
aS'S-NP'
p77
aS'S-VP'
p78
aS'S-PP'
p79
aS'B-NP'
p80
aS'I-NP'
p81
aS'I-NP'
p82
aS'E-NP'
p83
aS'O'
asS'dep_seq'
p84
(lp85
(lp86
S'nn'
p87
aS'4'
aS'1'
aa(lp88
S'nn'
p89
aS'4'
aS'2'
aa(lp90
S'nn'
p91
aS'4'
aS'3'
aa(lp92
S'root'
p93
aS'0'
aS'4'
aa(lp94
S'advmod'
p95
aS'10'
p96
aS'5'
aa(lp97
S'det'
p98
aS'8'
aS'6'
aa(lp99
S'nn'
p100
aS'8'
aS'7'
aa(lp101
S'nsubj'
p102
aS'10'
p103
aS'8'
aa(lp104
S'advmod'
p105
aS'10'
p106
aS'9'
aa(lp107
S'dep'
p108
aS'4'
aS'10'
p109
aa(lp110
S'mark'
p111
aS'14'
p112
aS'11'
p113
aa(lp114
S'cop'
p115
aS'14'
p116
aS'12'
p117
aa(lp118
S'det'
p119
aS'14'
p120
aS'13'
p121
aa(lp122
S'advcl'
p123
aS'10'
p124
aS'14'
p125
aa(lp126
S'partmod'
p127
aS'14'
p128
aS'15'
p129
aa(lp130
S'det'
p131
aS'18'
p132
aS'16'
p133
aa(lp134
S'amod'
p135
aS'18'
p136
aS'17'
p137
aa(lp138
S'dobj'
p139
aS'15'
p140
aS'18'
p141
aa(lp142
S'prep_of'
p143
aS'18'
p144
aS'20'
p145
aa(lp146
S'prep_to'
p147
aS'20'
p148
aS'22'
p149
aa(lp150
S'partmod'
p151
aS'22'
p152
aS'23'
p153
aa(lp154
S'prep_in'
p155
aS'23'
p156
aS'25'
p157
aa(lp158
S'amod'
p159
aS'28'
p160
aS'27'
p161
aa(lp162
S'conj_and'
p163
aS'25'
p164
aS'28'
p165
aa(lp166
S'punct'
p167
aS'28'
p168
aS'29'
p169
aasS'srls'
p170
(lp171
(dp172
S'A1'
p173
S'Academic Journal impact factor double The impact factor'
p174
sS'AM-TMP'
p175
g34
sS'V'
g35
sa(dp176
S'A1'
p177
S'the average number of citations to articles published in science and social science journals.35983573'
p178
sS'A2'
p179
S'a measure'
p180
sS'V'
g39
sa(dp181
S'A1'
p182
g46
sS'AM-LOC'
p183
S'in science and social science journals.35983573'
p184
sS'V'
g47
sasS'pos_seq'
p185
(lp186
S'NNP'
p187
aS'NNP'
p188
aS'NN'
p189
aS'NN'
p190
aS'RB'
p191
aS'DT'
p192
aS'NN'
p193
aS'NN'
p194
aS'RB'
p195
aS'VBN'
p196
aS'IN'
p197
aS'VBZ'
p198
aS'DT'
p199
aS'NN'
p200
aS'VBG'
p201
aS'DT'
p202
aS'JJ'
p203
aS'NN'
p204
aS'IN'
p205
aS'NNS'
p206
aS'TO'
p207
aS'NNS'
p208
aS'VBN'
p209
aS'IN'
p210
aS'NN'
p211
aS'CC'
p212
aS'JJ'
p213
aS'NN'
p214
aS'.'
asS'ner_seq'
p215
(lp216
S'B-ORG'
p217
aS'E-ORG'
p218
aS'O'
aS'O'
aS'O'
aS'O'
aS'O'
aS'O'
aS'O'
aS'O'
aS'O'
aS'O'
aS'O'
aS'O'
aS'O'
aS'O'
aS'O'
aS'O'
aS'O'
aS'O'
aS'O'
aS'O'
aS'O'
aS'O'
aS'O'
aS'O'
aS'O'
aS'O'
aS'O'
assb.