ccopy_reg
_reconstructor
p1
(c__main__
KBproperty
p2
c__builtin__
object
p3
NtRp4
(dp5
S'comment'
p6
S"Date when the Church forbade the veneration of this saint. \\nI hope that's what it means I don't know why the original author didn't document it11"
p7
sS'domain'
p8
S'Saint '
p9
sS'instances_count'
p10
I1
sS'phrases'
p11
NsS'syn_hypo'
p12
S''
sS'label'
p13
S'suppredded date'
p14
sS'range'
p15
S'date '
p16
sS'uniq_subjs'
p17
S'1'
sS'uniq_objs'
p18
I0
sS'prop_uri'
p19
S'http://dbpedia.org/ontology/suppreddedDate'
p20
sS'annotations'
p21
(dp22
S'bag_of_words'
p23
(lp24
S'Saint'
p25
aS'suppredded'
p26
aS'date'
p27
aS'date'
p28
aS'Date'
p29
aS'when'
p30
aS'the'
p31
aS'Church'
p32
aS'forbade'
p33
aS'the'
p34
aS'veneration'
p35
aS'of'
p36
aS'this'
p37
aS'saint'
p38
aS'.'
aS'\\'
aS'nI'
p39
aS'hope'
p40
aS'that'
p41
aS"'s"
p42
aS'what'
p43
aS'it'
p44
aS'means'
p45
aS'I'
aS'don'
p46
aS"'t"
p47
aS'know'
p48
aS'why'
p49
aS'the'
p50
aS'original'
p51
aS'author'
p52
aS'didn'
p53
aS"'t"
p54
aS'document'
p55
aS'it11'
p56
asS'chunk_seq'
p57
(lp58
S'B-NP'
p59
aS'I-NP'
p60
aS'I-NP'
p61
aS'I-NP'
p62
aS'E-NP'
p63
aS'S-ADVP'
p64
aS'B-NP'
p65
aS'E-NP'
p66
aS'S-VP'
p67
aS'B-NP'
p68
aS'E-NP'
p69
aS'S-PP'
p70
aS'B-NP'
p71
aS'E-NP'
p72
aS'O'
aS'O'
aS'O'
aS'S-VP'
p73
aS'S-NP'
p74
aS'S-VP'
p75
aS'S-NP'
p76
aS'S-NP'
p77
aS'S-VP'
p78
aS'S-NP'
p79
aS'S-VP'
p80
aS'S-NP'
p81
aS'S-VP'
p82
aS'S-ADVP'
p83
aS'B-NP'
p84
aS'I-NP'
p85
aS'I-NP'
p86
aS'I-NP'
p87
aS'I-NP'
p88
aS'E-NP'
p89
aS'S-ADJP'
p90
asS'dep_seq'
p91
(lp92
(lp93
S'nn'
p94
aS'5'
aS'1'
aa(lp95
S'amod'
p96
aS'5'
aS'2'
aa(lp97
S'nn'
p98
aS'5'
aS'3'
aa(lp99
S'nn'
p100
aS'5'
aS'4'
aa(lp101
S'tmod'
p102
aS'9'
aS'5'
aa(lp103
S'dep'
p104
aS'34'
p105
aS'5'
aa(lp106
S'advmod'
p107
aS'9'
aS'6'
aa(lp108
S'det'
p109
aS'8'
aS'7'
aa(lp110
S'nsubj'
p111
aS'9'
aS'8'
aa(lp112
S'rcmod'
p113
aS'5'
aS'9'
aa(lp114
S'det'
p115
aS'11'
p116
aS'10'
p117
aa(lp118
S'dobj'
p119
aS'9'
aS'11'
p120
aa(lp121
S'det'
p122
aS'14'
p123
aS'13'
p124
aa(lp125
S'prep_of'
p126
aS'11'
p127
aS'14'
p128
aa(lp129
S'punct'
p130
aS'17'
p131
aS'16'
p132
aa(lp133
S'dep'
p134
aS'34'
p135
aS'17'
p136
aa(lp137
S'dep'
p138
aS'34'
p139
aS'18'
p140
aa(lp141
S'dep'
p142
aS'34'
p143
aS'19'
p144
aa(lp145
S'dep'
p146
aS'34'
p147
aS'20'
p148
aa(lp149
S'dep'
p150
aS'34'
p151
aS'21'
p152
aa(lp153
S'dep'
p154
aS'34'
p155
aS'22'
p156
aa(lp157
S'dep'
p158
aS'34'
p159
aS'23'
p160
aa(lp161
S'dep'
p162
aS'34'
p163
aS'24'
p164
aa(lp165
S'dep'
p166
aS'34'
p167
aS'25'
p168
aa(lp169
S'dep'
p170
aS'34'
p171
aS'26'
p172
aa(lp173
S'dep'
p174
aS'34'
p175
aS'27'
p176
aa(lp177
S'advmod'
p178
aS'34'
p179
aS'28'
p180
aa(lp181
S'det'
p182
aS'34'
p183
aS'29'
p184
aa(lp185
S'amod'
p186
aS'34'
p187
aS'30'
p188
aa(lp189
S'nn'
p190
aS'34'
p191
aS'31'
p192
aa(lp193
S'amod'
p194
aS'34'
p195
aS'32'
p196
aa(lp197
S'nn'
p198
aS'34'
p199
aS'33'
p200
aa(lp201
S'root'
p202
aS'0'
aS'34'
p203
aa(lp204
S'punct'
p205
aS'34'
p206
aS'35'
p207
aasS'srls'
p208
(lp209
(dp210
S'A1'
p211
S'the veneration of this saint'
p212
sS'A0'
p213
S'the Church'
p214
sS'A2'
p215
S"\\ nI hope that 's what it means I don 't know why the original author didn 't document it11"
p216
sS'AM-TMP'
p217
S'date date Date'
p218
sS'V'
g33
sa(dp219
S'A1'
p220
S"that 's what it means I don 't know why the original author didn 't document it11"
p221
sS'A0'
p222
S'\\ nI'
p223
sS'V'
g40
sa(dp224
S'A1'
p225
S"I don 't know why the original author didn 't document it11"
p226
sS'A0'
p227
g44
sS'R-A1'
p228
g43
sS'V'
g45
sa(dp229
S'A1'
p230
S"why the original author didn 't document it11"
p231
sS'AM-TMP'
p232
S"when the Church forbade the veneration of this saint . \\ nI hope that 's what it means I don 't"
p233
sS'V'
g48
sasS'pos_seq'
p234
(lp235
S'NNP'
p236
aS'JJ'
p237
aS'NN'
p238
aS'NN'
p239
aS'NN'
p240
aS'WRB'
p241
aS'DT'
p242
aS'NNP'
p243
aS'VBD'
p244
aS'DT'
p245
aS'NN'
p246
aS'IN'
p247
aS'DT'
p248
aS'NN'
p249
aS'.'
aS'-LRB-'
p250
aS'NNP'
p251
aS'VBP'
p252
aS'DT'
p253
aS'VBZ'
p254
aS'WP'
p255
aS'PRP'
p256
aS'VBZ'
p257
aS'PRP'
p258
aS'VBP'
p259
aS'NN'
p260
aS'VB'
p261
aS'WRB'
p262
aS'DT'
p263
aS'JJ'
p264
aS'NN'
p265
aS'JJ'
p266
aS'NN'
p267
aS'NN'
p268
aS'.'
asS'ner_seq'
p269
(lp270
S'O'
aS'O'
aS'O'
aS'O'
aS'O'
aS'O'
aS'O'
aS'O'
aS'O'
aS'O'
aS'O'
aS'O'
aS'O'
aS'O'
aS'O'
aS'O'
aS'O'
aS'O'
aS'O'
aS'O'
aS'O'
aS'O'
aS'O'
aS'O'
aS'O'
aS'O'
aS'O'
aS'O'
aS'O'
aS'O'
aS'O'
aS'O'
aS'O'
aS'O'
aS'O'
assb.