ccopy_reg
_reconstructor
p1
(c__main__
KBproperty
p2
c__builtin__
object
p3
NtRp4
(dp5
S'comment'
p6
S'The Library of Congress Classification LCC is a system of library classification developed by the Library of Congress.70437001'
p7
sS'domain'
p8
S'Written Work '
p9
sS'instances_count'
p10
I6964
sS'phrases'
p11
NsS'syn_hypo'
p12
S''
sS'label'
p13
S'LCC'
p14
sS'range'
p15
S'string '
p16
sS'uniq_subjs'
p17
S'6964'
p18
sS'uniq_objs'
p19
I0
sS'prop_uri'
p20
S'http://dbpedia.org/ontology/lcc'
p21
sS'annotations'
p22
(dp23
S'bag_of_words'
p24
(lp25
S'Written'
p26
aS'Work'
p27
aS'LCC'
p28
aS'string'
p29
aS'The'
p30
aS'Library'
p31
aS'of'
p32
aS'Congress'
p33
aS'Classification'
p34
aS'LCC'
p35
aS'is'
p36
aS'a'
aS'system'
p37
aS'of'
p38
aS'library'
p39
aS'classification'
p40
aS'developed'
p41
aS'by'
p42
aS'the'
p43
aS'Library'
p44
aS'of'
p45
aS'Congress.70437001'
p46
asS'chunk_seq'
p47
(lp48
S'B-NP'
p49
aS'I-NP'
p50
aS'I-NP'
p51
aS'E-NP'
p52
aS'B-NP'
p53
aS'E-NP'
p54
aS'S-PP'
p55
aS'S-NP'
p56
aS'B-NP'
p57
aS'E-NP'
p58
aS'S-VP'
p59
aS'B-NP'
p60
aS'E-NP'
p61
aS'S-PP'
p62
aS'B-NP'
p63
aS'E-NP'
p64
aS'S-VP'
p65
aS'S-PP'
p66
aS'B-NP'
p67
aS'E-NP'
p68
aS'S-PP'
p69
aS'S-NP'
p70
asS'dep_seq'
p71
(lp72
(lp73
S'nn'
p74
aS'4'
aS'1'
aa(lp75
S'nn'
p76
aS'4'
aS'2'
aa(lp77
S'nn'
p78
aS'4'
aS'3'
aa(lp79
S'root'
p80
aS'0'
aS'4'
aa(lp81
S'det'
p82
aS'9'
aS'5'
aa(lp83
S'dep'
p84
aS'9'
aS'6'
aa(lp85
S'prep_of'
p86
aS'6'
aS'8'
aa(lp87
S'nsubj'
p88
aS'13'
p89
aS'9'
aa(lp90
S'nsubj'
p91
aS'13'
p92
aS'10'
p93
aa(lp94
S'cop'
p95
aS'13'
p96
aS'11'
p97
aa(lp98
S'det'
p99
aS'13'
p100
aS'12'
p101
aa(lp102
S'rcmod'
p103
aS'4'
aS'13'
p104
aa(lp105
S'nn'
p106
aS'16'
p107
aS'15'
p108
aa(lp109
S'prep_of'
p110
aS'13'
p111
aS'16'
p112
aa(lp113
S'partmod'
p114
aS'13'
p115
aS'17'
p116
aa(lp117
S'det'
p118
aS'20'
p119
aS'19'
p120
aa(lp121
S'agent'
p122
aS'17'
p123
aS'20'
p124
aa(lp125
S'prep_of'
p126
aS'20'
p127
aS'22'
p128
aasS'srls'
p129
(lp130
(dp131
S'A1'
p132
S'a system of library classification'
p133
sS'A0'
p134
S'by the Library of Congress.70437001'
p135
sS'V'
g41
sasS'pos_seq'
p136
(lp137
S'NNP'
p138
aS'NNP'
p139
aS'NNP'
p140
aS'NN'
p141
aS'DT'
p142
aS'NNP'
p143
aS'IN'
p144
aS'NNP'
p145
aS'NNP'
p146
aS'NNP'
p147
aS'VBZ'
p148
aS'DT'
p149
aS'NN'
p150
aS'IN'
p151
aS'NN'
p152
aS'NN'
p153
aS'VBN'
p154
aS'IN'
p155
aS'DT'
p156
aS'NNP'
p157
aS'IN'
p158
aS'NNP'
p159
asS'ner_seq'
p160
(lp161
S'O'
aS'O'
aS'S-ORG'
p162
aS'O'
aS'B-ORG'
p163
aS'I-ORG'
p164
aS'I-ORG'
p165
aS'E-ORG'
p166
aS'O'
aS'S-ORG'
p167
aS'O'
aS'O'
aS'O'
aS'O'
aS'O'
aS'O'
aS'O'
aS'O'
aS'O'
aS'B-ORG'
p168
aS'I-ORG'
p169
aS'E-ORG'
p170
assb.