ccopy_reg
_reconstructor
p1
(c__main__
KBproperty
p2
c__builtin__
object
p3
NtRp4
(dp5
S'comment'
p6
S'449324'
p7
sS'domain'
p8
S'Currency '
p9
sS'instances_count'
p10
I333
sS'phrases'
p11
NsS'syn_hypo'
p12
S''
sS'label'
p13
S'using country'
p14
sS'range'
p15
S'Country '
p16
sS'uniq_subjs'
p17
S'333'
p18
sS'uniq_objs'
p19
I0
sS'prop_uri'
p20
S'http://dbpedia.org/ontology/usingCountry'
p21
sS'annotations'
p22
(dp23
S'bag_of_words'
p24
(lp25
S'Currency'
p26
aS'using'
p27
aS'country'
p28
aS'Country'
p29
aS'449324'
p30
asS'chunk_seq'
p31
(lp32
S'S-NP'
p33
aS'S-VP'
p34
aS'B-NP'
p35
aS'E-NP'
p36
aS'S-ADJP'
p37
asS'dep_seq'
p38
(lp39
(lp40
S'root'
p41
aS'0'
aS'1'
aa(lp42
S'nn'
p43
aS'4'
aS'3'
aa(lp44
S'prep_using'
p45
aS'1'
aS'4'
aa(lp46
S'punct'
p47
aS'4'
aS'5'
aasS'srls'
p48
(lp49
(dp50
S'A1'
p51
S'country Country'
p52
sS'A0'
p53
g26
sS'A2'
p54
g30
sS'V'
g27
sasS'pos_seq'
p55
(lp56
S'NN'
p57
aS'VBG'
p58
aS'NN'
p59
aS'NN'
p60
aS'.'
asS'ner_seq'
p61
(lp62
S'O'
aS'O'
aS'O'
aS'O'
aS'O'
assb.