ccopy_reg
_reconstructor
p1
(c__main__
KBproperty
p2
c__builtin__
object
p3
NtRp4
(dp5
S'comment'
p6
S'mandate of the president council of the regional council'
p7
sS'domain'
p8
S'Place '
p9
sS'instances_count'
p10
I0
sS'phrases'
p11
NsS'syn_hypo'
p12
S''
sS'label'
p13
g7
sS'range'
p14
S'string '
p15
sS'uniq_subjs'
p16
S'0'
sS'uniq_objs'
p17
I0
sS'prop_uri'
p18
S'http://dbpedia.org/ontology/presidentRegionalCouncilMandate'
p19
sS'annotations'
p20
(dp21
S'bag_of_words'
p22
(lp23
S'Place'
p24
aS'president'
p25
aS'Regional'
p26
aS'Council'
p27
aS'Mandate'
p28
aS'string'
p29
aS'mandate'
p30
aS'of'
p31
aS'the'
p32
aS'president'
p33
aS'council'
p34
aS'of'
p35
aS'the'
p36
aS'regional'
p37
aS'council'
p38
asS'chunk_seq'
p39
(lp40
S'B-NP'
p41
aS'I-NP'
p42
aS'I-NP'
p43
aS'I-NP'
p44
aS'I-NP'
p45
aS'I-NP'
p46
aS'E-NP'
p47
aS'S-PP'
p48
aS'B-NP'
p49
aS'I-NP'
p50
aS'E-NP'
p51
aS'S-PP'
p52
aS'B-NP'
p53
aS'I-NP'
p54
aS'E-NP'
p55
asS'dep_seq'
p56
(lp57
(lp58
S'root'
p59
aS'0'
aS'1'
aa(lp60
S'nn'
p61
aS'7'
aS'2'
aa(lp62
S'nn'
p63
aS'7'
aS'3'
aa(lp64
S'nn'
p65
aS'7'
aS'4'
aa(lp66
S'nn'
p67
aS'7'
aS'5'
aa(lp68
S'nn'
p69
aS'7'
aS'6'
aa(lp70
S'dep'
p71
aS'1'
aS'7'
aa(lp72
S'det'
p73
aS'11'
p74
aS'9'
aa(lp75
S'nn'
p76
aS'11'
p77
aS'10'
p78
aa(lp79
S'prep_of'
p80
aS'7'
aS'11'
p81
aa(lp82
S'det'
p83
aS'15'
p84
aS'13'
p85
aa(lp86
S'amod'
p87
aS'15'
p88
aS'14'
p89
aa(lp90
S'prep_of'
p91
aS'11'
p92
aS'15'
p93
aasS'srls'
p94
(lp95
sS'pos_seq'
p96
(lp97
S'NN'
p98
aS'NN'
p99
aS'NNP'
p100
aS'NNP'
p101
aS'NNP'
p102
aS'NN'
p103
aS'NN'
p104
aS'IN'
p105
aS'DT'
p106
aS'NN'
p107
aS'NN'
p108
aS'IN'
p109
aS'DT'
p110
aS'JJ'
p111
aS'NN'
p112
asS'ner_seq'
p113
(lp114
S'O'
aS'O'
aS'B-ORG'
p115
aS'E-ORG'
p116
aS'O'
aS'O'
aS'O'
aS'O'
aS'O'
aS'O'
aS'O'
aS'O'
aS'O'
aS'O'
aS'O'
assb.