ccopy_reg
_reconstructor
p1
(c__main__
KBproperty
p2
c__builtin__
object
p3
NtRp4
(dp5
S'comment'
p6
S'http://www.w3.org/2001/XMLSchema#integer'
p7
sS'domain'
p8
S'Military Conflict '
p9
sS'instances_count'
p10
I772
sS'phrases'
p11
NsS'syn_hypo'
p12
S''
sS'label'
p13
g7
sS'range'
p14
S'Natural Event '
p15
sS'uniq_subjs'
p16
S'355'
p17
sS'uniq_objs'
p18
I0
sS'prop_uri'
p19
S'http://dbpedia.org/ontology/casualties'
p20
sS'annotations'
p21
(dp22
S'bag_of_words'
p23
(lp24
S'Military'
p25
aS'Conflict'
p26
aS'casualties'
p27
aS'Natural'
p28
aS'Event'
p29
aS'http'
p30
aS':'
aS'//'
p31
aS'www'
p32
aS'.'
aS'w3'
p33
aS'.org'
p34
aS'/2001'
p35
aS'/'
aS'XMLSchema'
p36
aS'#'
aS'integer'
p37
asS'chunk_seq'
p38
(lp39
S'B-NP'
p40
aS'I-NP'
p41
aS'I-NP'
p42
aS'I-NP'
p43
aS'I-NP'
p44
aS'E-NP'
p45
aS'O'
aS'B-NP'
p46
aS'E-NP'
p47
aS'O'
aS'O'
aS'O'
aS'O'
aS'O'
aS'O'
aS'O'
aS'O'
asS'dep_seq'
p48
(lp49
(lp50
S'amod'
p51
aS'6'
aS'1'
aa(lp52
S'nn'
p53
aS'6'
aS'2'
aa(lp54
S'nn'
p55
aS'6'
aS'3'
aa(lp56
S'amod'
p57
aS'6'
aS'4'
aa(lp58
S'nn'
p59
aS'6'
aS'5'
aa(lp60
S'root'
p61
aS'0'
aS'6'
aa(lp62
S'nn'
p63
aS'9'
aS'8'
aa(lp64
S'dep'
p65
aS'6'
aS'9'
aa(lp66
S'nn'
p67
aS'9'
aS'11'
p68
aa(lp69
S'nn'
p70
aS'9'
aS'12'
p71
aa(lp72
S'dep'
p73
aS'9'
aS'13'
p74
aa(lp75
S'dep'
p76
aS'6'
aS'14'
p77
aa(lp78
S'dep'
p79
aS'17'
p80
aS'15'
p81
aa(lp82
S'nn'
p83
aS'17'
p84
aS'16'
p85
aa(lp86
S'dep'
p87
aS'6'
aS'17'
p88
aasS'srls'
p89
(lp90
sS'pos_seq'
p91
(lp92
S'JJ'
p93
aS'NN'
p94
aS'NNS'
p95
aS'JJ'
p96
aS'NN'
p97
aS'NN'
p98
aS':'
aS'NN'
p99
aS'NN'
p100
aS'.'
aS'FW'
p101
aS'FW'
p102
aS'FW'
p103
aS'FW'
p104
aS'FW'
p105
aS'FW'
p106
aS'FW'
p107
asS'ner_seq'
p108
(lp109
S'O'
aS'O'
aS'O'
aS'B-MISC'
p110
aS'E-MISC'
p111
aS'O'
aS'O'
aS'O'
aS'O'
aS'O'
aS'O'
aS'O'
aS'O'
aS'O'
aS'O'
aS'O'
aS'O'
assb.