ccopy_reg
_reconstructor
p1
(c__main__
KBproperty
p2
c__builtin__
object
p3
NtRp4
(dp5
S'comment'
p6
S'label of a website'
p7
sS'domain'
p8
S''
sS'instances_count'
p9
I0
sS'phrases'
p10
NsS'syn_hypo'
p11
S''
sS'label'
p12
g7
sS'range'
p13
S'lang String '
p14
sS'uniq_subjs'
p15
S'0'
sS'uniq_objs'
p16
I0
sS'prop_uri'
p17
S'http://dbpedia.org/ontology/websiteLabel'
p18
sS'annotations'
p19
(dp20
S'bag_of_words'
p21
(lp22
S'website'
p23
aS'Label'
p24
aS'lang'
p25
aS'String'
p26
aS'label'
p27
aS'of'
p28
aS'a'
aS'website'
p29
asS'chunk_seq'
p30
(lp31
S'B-NP'
p32
aS'I-NP'
p33
aS'I-NP'
p34
aS'I-NP'
p35
aS'E-NP'
p36
aS'S-PP'
p37
aS'B-NP'
p38
aS'E-NP'
p39
asS'dep_seq'
p40
(lp41
(lp42
S'nn'
p43
aS'5'
aS'1'
aa(lp44
S'nn'
p45
aS'5'
aS'2'
aa(lp46
S'amod'
p47
aS'5'
aS'3'
aa(lp48
S'nn'
p49
aS'5'
aS'4'
aa(lp50
S'root'
p51
aS'0'
aS'5'
aa(lp52
S'det'
p53
aS'8'
aS'7'
aa(lp54
S'prep_of'
p55
aS'5'
aS'8'
aasS'srls'
p56
(lp57
sS'pos_seq'
p58
(lp59
S'NN'
p60
aS'NN'
p61
aS'VBG'
p62
aS'NN'
p63
aS'NN'
p64
aS'IN'
p65
aS'DT'
p66
aS'NN'
p67
asS'ner_seq'
p68
(lp69
S'O'
aS'B-MISC'
p70
aS'I-MISC'
p71
aS'E-MISC'
p72
aS'O'
aS'O'
aS'O'
aS'O'
assb.