ccopy_reg
_reconstructor
p1
(c__main__
KBproperty
p2
c__builtin__
object
p3
NtRp4
(dp5
S'comment'
p6
S'00'
p7
sS'domain'
p8
S''
sS'instances_count'
p9
I0
sS'phrases'
p10
NsS'syn_hypo'
p11
S''
sS'label'
p12
S'start occupation'
p13
sS'range'
p14
S'string '
p15
sS'uniq_subjs'
p16
S'0'
sS'uniq_objs'
p17
I0
sS'prop_uri'
p18
S'http://dbpedia.org/ontology/startOccupation'
p19
sS'annotations'
p20
(dp21
S'bag_of_words'
p22
(lp23
S'start'
p24
aS'occupation'
p25
aS'string'
p26
aS'00'
p27
asS'chunk_seq'
p28
(lp29
S'S-VP'
p30
aS'B-NP'
p31
aS'E-NP'
p32
aS'O'
asS'dep_seq'
p33
(lp34
(lp35
S'root'
p36
aS'0'
aS'1'
aa(lp37
S'nn'
p38
aS'3'
aS'2'
aa(lp39
S'dobj'
p40
aS'1'
aS'3'
aa(lp41
S'num'
p42
aS'3'
aS'4'
aasS'srls'
p43
(lp44
(dp45
S'A1'
p46
g25
sS'AM-MNR'
p47
S'string 00'
p48
sS'V'
g24
sasS'pos_seq'
p49
(lp50
S'VB'
p51
aS'NN'
p52
aS'NN'
p53
aS'CD'
p54
asS'ner_seq'
p55
(lp56
S'O'
aS'O'
aS'O'
aS'O'
assb.