ccopy_reg
_reconstructor
p1
(c__main__
KBproperty
p2
c__builtin__
object
p3
NtRp4
(dp5
S'comment'
p6
S'colour hex code of home jersey or its parts'
p7
sS'domain'
p8
S''
sS'instances_count'
p9
I0
sS'phrases'
p10
NsS'syn_hypo'
p11
S''
sS'label'
p12
g7
sS'range'
p13
S'string '
p14
sS'uniq_subjs'
p15
S'0'
sS'uniq_objs'
p16
I0
sS'prop_uri'
p17
S'http://dbpedia.org/ontology/homeColourHexCode'
p18
sS'annotations'
p19
(dp20
S'bag_of_words'
p21
(lp22
S'home'
p23
aS'Colour'
p24
aS'Hex'
p25
aS'Code'
p26
aS'string'
p27
aS'colour'
p28
aS'hex'
p29
aS'code'
p30
aS'of'
p31
aS'home'
p32
aS'jersey'
p33
aS'or'
p34
aS'its'
p35
aS'parts'
p36
asS'chunk_seq'
p37
(lp38
S'B-NP'
p39
aS'I-NP'
p40
aS'I-NP'
p41
aS'I-NP'
p42
aS'I-NP'
p43
aS'I-NP'
p44
aS'I-NP'
p45
aS'E-NP'
p46
aS'S-PP'
p47
aS'B-NP'
p48
aS'E-NP'
p49
aS'O'
aS'B-NP'
p50
aS'E-NP'
p51
asS'dep_seq'
p52
(lp53
(lp54
S'nn'
p55
aS'8'
aS'1'
aa(lp56
S'nn'
p57
aS'8'
aS'2'
aa(lp58
S'nn'
p59
aS'8'
aS'3'
aa(lp60
S'nn'
p61
aS'8'
aS'4'
aa(lp62
S'nn'
p63
aS'8'
aS'5'
aa(lp64
S'nn'
p65
aS'8'
aS'6'
aa(lp66
S'nn'
p67
aS'8'
aS'7'
aa(lp68
S'root'
p69
aS'0'
aS'8'
aa(lp70
S'nn'
p71
aS'11'
p72
aS'10'
p73
aa(lp74
S'prep_of'
p75
aS'8'
aS'11'
p76
aa(lp77
S'poss'
p78
aS'14'
p79
aS'13'
p80
aa(lp81
S'conj_or'
p82
aS'11'
p83
aS'14'
p84
aasS'srls'
p85
(lp86
sS'pos_seq'
p87
(lp88
S'NN'
p89
aS'NNP'
p90
aS'NNP'
p91
aS'NNP'
p92
aS'NN'
p93
aS'NN'
p94
aS'NN'
p95
aS'NN'
p96
aS'IN'
p97
aS'NN'
p98
aS'NN'
p99
aS'CC'
p100
aS'PRP$'
p101
aS'NNS'
p102
asS'ner_seq'
p103
(lp104
S'O'
aS'O'
aS'O'
aS'O'
aS'O'
aS'O'
aS'O'
aS'O'
aS'O'
aS'O'
aS'O'
aS'O'
aS'O'
aS'O'
assb.