ccopy_reg
_reconstructor
p1
(c__main__
KBproperty
p2
c__builtin__
object
p3
NtRp4
(dp5
S'comment'
p6
S'22'
p7
sS'domain'
p8
S'School '
p9
sS'instances_count'
p10
I2
sS'phrases'
p11
NsS'syn_hypo'
p12
S''
sS'label'
p13
S'number of classrooms'
p14
sS'range'
p15
S''
sS'uniq_subjs'
p16
S'2'
sS'uniq_objs'
p17
I0
sS'prop_uri'
p18
S'http://dbpedia.org/ontology/numberOfClassrooms'
p19
sS'annotations'
p20
(dp21
S'bag_of_words'
p22
(lp23
S'School'
p24
aS'number'
p25
aS'of'
p26
aS'classrooms'
p27
aS'22'
p28
asS'chunk_seq'
p29
(lp30
S'B-NP'
p31
aS'E-NP'
p32
aS'S-PP'
p33
aS'S-NP'
p34
aS'S-ADJP'
p35
asS'dep_seq'
p36
(lp37
(lp38
S'nn'
p39
aS'2'
aS'1'
aa(lp40
S'root'
p41
aS'0'
aS'2'
aa(lp42
S'prep_of'
p43
aS'2'
aS'4'
aa(lp44
S'dep'
p45
aS'2'
aS'5'
aasS'srls'
p46
(lp47
sS'pos_seq'
p48
(lp49
S'NN'
p50
aS'NN'
p51
aS'IN'
p52
aS'NNS'
p53
aS'.'
asS'ner_seq'
p54
(lp55
S'O'
aS'O'
aS'O'
aS'O'
aS'O'
assb.