ccopy_reg
_reconstructor
p1
(c__main__
KBproperty
p2
c__builtin__
object
p3
NtRp4
(dp5
S'comment'
p6
S'indicates another place situated inside.00'
p7
sS'domain'
p8
S'Place '
p9
sS'instances_count'
p10
I0
sS'phrases'
p11
NsS'syn_hypo'
p12
S''
sS'label'
p13
S'has inside place'
p14
sS'range'
p15
S'Place '
p16
sS'uniq_subjs'
p17
S'0'
sS'uniq_objs'
p18
I0
sS'prop_uri'
p19
S'http://dbpedia.org/ontology/hasInsidePlace'
p20
sS'annotations'
p21
(dp22
S'bag_of_words'
p23
(lp24
S'Place'
p25
aS'has'
p26
aS'inside'
p27
aS'place'
p28
aS'Place'
p29
aS'indicates'
p30
aS'another'
p31
aS'place'
p32
aS'situated'
p33
aS'inside.00'
p34
asS'chunk_seq'
p35
(lp36
S'S-NP'
p37
aS'S-VP'
p38
aS'B-NP'
p39
aS'I-NP'
p40
aS'E-NP'
p41
aS'S-VP'
p42
aS'B-NP'
p43
aS'E-NP'
p44
aS'S-VP'
p45
aS'S-ADJP'
p46
asS'dep_seq'
p47
(lp48
(lp49
S'root'
p50
aS'0'
aS'1'
aa(lp51
S'dep'
p52
aS'6'
aS'2'
aa(lp53
S'amod'
p54
aS'5'
aS'3'
aa(lp55
S'nn'
p56
aS'5'
aS'4'
aa(lp57
S'dobj'
p58
aS'2'
aS'5'
aa(lp59
S'dep'
p60
aS'1'
aS'6'
aa(lp61
S'det'
p62
aS'8'
aS'7'
aa(lp63
S'nsubj'
p64
aS'6'
aS'8'
aa(lp65
S'dep'
p66
aS'8'
aS'9'
aa(lp67
S'punct'
p68
aS'9'
aS'10'
p69
aasS'srls'
p70
(lp71
(dp72
S'A1'
p73
S'inside place Place indicates another place situated inside.00'
p74
sS'A0'
p75
g25
sS'V'
g26
sa(dp76
S'A1'
p77
S'another place situated inside.00'
p78
sS'A0'
p79
S'Place has inside place Place'
p80
sS'V'
g30
sa(dp81
S'A1'
p82
S'another place'
p83
sS'A2'
p84
g34
sS'V'
g33
sasS'pos_seq'
p85
(lp86
S'NN'
p87
aS'VBZ'
p88
aS'JJ'
p89
aS'NN'
p90
aS'NN'
p91
aS'VBZ'
p92
aS'DT'
p93
aS'NN'
p94
aS'VBN'
p95
aS'.'
asS'ner_seq'
p96
(lp97
S'O'
aS'O'
aS'O'
aS'O'
aS'O'
aS'O'
aS'O'
aS'O'
aS'O'
aS'O'
assb.