ccopy_reg
_reconstructor
p1
(c__main__
KBproperty
p2
c__builtin__
object
p3
NtRp4
(dp5
S'comment'
p6
S'00'
p7
sS'domain'
p8
S'Military Person '
p9
sS'instances_count'
p10
I0
sS'phrases'
p11
NsS'syn_hypo'
p12
S''
sS'label'
p13
S'note on place of burial'
p14
sS'range'
p15
S'string '
p16
sS'uniq_subjs'
p17
S'0'
sS'uniq_objs'
p18
I0
sS'prop_uri'
p19
S'http://dbpedia.org/ontology/noteOnPlaceOfBurial'
p20
sS'annotations'
p21
(dp22
S'bag_of_words'
p23
(lp24
S'Military'
p25
aS'Person'
p26
aS'note'
p27
aS'on'
p28
aS'place'
p29
aS'of'
p30
aS'burial'
p31
aS'string'
p32
aS'00'
p33
asS'chunk_seq'
p34
(lp35
S'B-NP'
p36
aS'E-NP'
p37
aS'S-VP'
p38
aS'S-PP'
p39
aS'S-NP'
p40
aS'S-PP'
p41
aS'B-NP'
p42
aS'E-NP'
p43
aS'O'
asS'dep_seq'
p44
(lp45
(lp46
S'amod'
p47
aS'3'
aS'1'
aa(lp48
S'nn'
p49
aS'3'
aS'2'
aa(lp50
S'root'
p51
aS'0'
aS'3'
aa(lp52
S'prep_on'
p53
aS'3'
aS'5'
aa(lp54
S'nn'
p55
aS'8'
aS'7'
aa(lp56
S'prep_of'
p57
aS'5'
aS'8'
aa(lp58
S'num'
p59
aS'8'
aS'9'
aasS'srls'
p60
(lp61
(dp62
S'A0'
p63
S'Military Person'
p64
sS'AM-LOC'
p65
S'on place of burial string 00'
p66
sS'V'
g27
sasS'pos_seq'
p67
(lp68
S'JJ'
p69
aS'NN'
p70
aS'NN'
p71
aS'IN'
p72
aS'NN'
p73
aS'IN'
p74
aS'NN'
p75
aS'NN'
p76
aS'CD'
p77
asS'ner_seq'
p78
(lp79
S'O'
aS'O'
aS'O'
aS'O'
aS'O'
aS'O'
aS'O'
aS'O'
aS'O'
assb.