ccopy_reg
_reconstructor
p1
(c__main__
KBproperty
p2
c__builtin__
object
p3
NtRp4
(dp5
S'comment'
p6
S'00'
p7
sS'domain'
p8
S'Tennis Player '
p9
sS'instances_count'
p10
I0
sS'phrases'
p11
NsS'syn_hypo'
p12
S''
sS'label'
p13
S'davis cup'
p14
sS'range'
p15
S'string '
p16
sS'uniq_subjs'
p17
S'0'
sS'uniq_objs'
p18
I0
sS'prop_uri'
p19
S'http://dbpedia.org/ontology/davisCup'
p20
sS'annotations'
p21
(dp22
S'bag_of_words'
p23
(lp24
S'Tennis'
p25
aS'Player'
p26
aS'davis'
p27
aS'cup'
p28
aS'string'
p29
aS'00'
p30
asS'chunk_seq'
p31
(lp32
S'B-NP'
p33
aS'I-NP'
p34
aS'I-NP'
p35
aS'I-NP'
p36
aS'E-NP'
p37
aS'S-ADVP'
p38
asS'dep_seq'
p39
(lp40
(lp41
S'nn'
p42
aS'5'
aS'1'
aa(lp43
S'nn'
p44
aS'5'
aS'2'
aa(lp45
S'nn'
p46
aS'5'
aS'3'
aa(lp47
S'nn'
p48
aS'5'
aS'4'
aa(lp49
S'root'
p50
aS'0'
aS'5'
aa(lp51
S'advmod'
p52
aS'5'
aS'6'
aasS'srls'
p53
(lp54
sS'pos_seq'
p55
(lp56
S'NNP'
p57
aS'NNP'
p58
aS'NNP'
p59
aS'NN'
p60
aS'NN'
p61
aS'CD'
p62
asS'ner_seq'
p63
(lp64
S'B-MISC'
p65
aS'I-MISC'
p66
aS'I-MISC'
p67
aS'E-MISC'
p68
aS'O'
aS'O'
assb.