ccopy_reg
_reconstructor
p1
(c__main__
KBproperty
p2
c__builtin__
object
p3
NtRp4
(dp5
S'comment'
p6
S'783782'
p7
sS'domain'
p8
S'Formula One Racer '
p9
sS'instances_count'
p10
I8
sS'phrases'
p11
NsS'syn_hypo'
p12
S''
sS'label'
p13
S'championships'
p14
sS'range'
p15
S'non Negative Integer '
p16
sS'uniq_subjs'
p17
S'8'
sS'uniq_objs'
p18
I0
sS'prop_uri'
p19
S'http://dbpedia.org/ontology/championships'
p20
sS'annotations'
p21
(dp22
S'bag_of_words'
p23
(lp24
S'Formula'
p25
aS'One'
p26
aS'Racer'
p27
aS'championships'
p28
aS'non'
p29
aS'Negative'
p30
aS'Integer'
p31
aS'783782'
p32
asS'chunk_seq'
p33
(lp34
S'B-NP'
p35
aS'I-NP'
p36
aS'E-NP'
p37
aS'S-VP'
p38
aS'B-NP'
p39
aS'I-NP'
p40
aS'I-NP'
p41
aS'E-NP'
p42
asS'dep_seq'
p43
(lp44
(lp45
S'nn'
p46
aS'3'
aS'1'
aa(lp47
S'num'
p48
aS'3'
aS'2'
aa(lp49
S'nsubj'
p50
aS'4'
aS'3'
aa(lp51
S'root'
p52
aS'0'
aS'4'
aa(lp53
S'advmod'
p54
aS'8'
aS'5'
aa(lp55
S'amod'
p56
aS'8'
aS'6'
aa(lp57
S'nn'
p58
aS'8'
aS'7'
aa(lp59
S'dobj'
p60
aS'4'
aS'8'
aasS'srls'
p61
(lp62
(dp63
S'A1'
p64
S'non Negative Integer 783782'
p65
sS'A0'
p66
S'Formula One Racer'
p67
sS'V'
g28
sasS'pos_seq'
p68
(lp69
S'NN'
p70
aS'CD'
p71
aS'NN'
p72
aS'VBZ'
p73
aS'RB'
p74
aS'JJ'
p75
aS'NN'
p76
aS'NN'
p77
asS'ner_seq'
p78
(lp79
S'O'
aS'O'
aS'O'
aS'O'
aS'O'
aS'O'
aS'O'
aS'O'
assb.