ccopy_reg
_reconstructor
p1
(c__main__
KBproperty
p2
c__builtin__
object
p3
NtRp4
(dp5
S'comment'
p6
S'distance to capital \\xce\\xbc'
p7
sS'domain'
p8
S'Settlement '
p9
sS'instances_count'
p10
I0
sS'phrases'
p11
NsS'syn_hypo'
p12
S''
sS'label'
p13
g7
sS'range'
p14
S'double '
p15
sS'uniq_subjs'
p16
S'0'
sS'uniq_objs'
p17
I0
sS'prop_uri'
p18
S'http://dbpedia.org/ontology/distanceToCapital'
p19
sS'annotations'
p20
(dp21
S'bag_of_words'
p22
(lp23
S'Settlement'
p24
aS'distance'
p25
aS'To'
p26
aS'Capital'
p27
aS'double'
p28
aS'distance'
p29
aS'to'
p30
aS'capital'
p31
aS'\\'
aS'xce'
p32
aS'\\'
aS'xbc'
p33
asS'chunk_seq'
p34
(lp35
S'B-NP'
p36
aS'E-NP'
p37
aS'S-PP'
p38
aS'B-NP'
p39
aS'I-NP'
p40
aS'E-NP'
p41
aS'S-PP'
p42
aS'S-NP'
p43
aS'O'
aS'O'
aS'O'
aS'O'
asS'dep_seq'
p44
(lp45
(lp46
S'nn'
p47
aS'2'
aS'1'
aa(lp48
S'root'
p49
aS'0'
aS'2'
aa(lp50
S'amod'
p51
aS'6'
aS'4'
aa(lp52
S'amod'
p53
aS'6'
aS'5'
aa(lp54
S'prep_to'
p55
aS'2'
aS'6'
aa(lp56
S'prep_to'
p57
aS'6'
aS'8'
aa(lp58
S'nn'
p59
aS'12'
p60
aS'9'
aa(lp61
S'nn'
p62
aS'12'
p63
aS'10'
p64
aa(lp65
S'nn'
p66
aS'12'
p67
aS'11'
p68
aa(lp69
S'dep'
p70
aS'2'
aS'12'
p71
aasS'srls'
p72
(lp73
sS'pos_seq'
p74
(lp75
S'NN'
p76
aS'NN'
p77
aS'TO'
p78
aS'JJ'
p79
aS'JJ'
p80
aS'NN'
p81
aS'TO'
p82
aS'NN'
p83
aS'FW'
p84
aS'FW'
p85
aS'FW'
p86
aS'FW'
p87
asS'ner_seq'
p88
(lp89
S'O'
aS'O'
aS'O'
aS'O'
aS'O'
aS'O'
aS'O'
aS'O'
aS'O'
aS'O'
aS'O'
aS'O'
assb.