ccopy_reg
_reconstructor
p1
(c__main__
KBproperty
p2
c__builtin__
object
p3
NtRp4
(dp5
S'comment'
p6
S'The common name of an entity. Frequently foaf:name is used for all of the different names of a person; this property just defines the most commonly used name.55'
p7
sS'domain'
p8
S''
sS'instances_count'
p9
I5
sS'phrases'
p10
NsS'syn_hypo'
p11
S''
sS'label'
p12
S'common name'
p13
sS'range'
p14
S'lang String '
p15
sS'uniq_subjs'
p16
S'5'
sS'uniq_objs'
p17
I0
sS'prop_uri'
p18
S'http://dbpedia.org/ontology/commonName'
p19
sS'annotations'
p20
(dp21
S'bag_of_words'
p22
(lp23
S'common'
p24
aS'name'
p25
aS'lang'
p26
aS'String'
p27
aS'The'
p28
aS'common'
p29
aS'name'
p30
aS'of'
p31
aS'an'
p32
aS'entity'
p33
aS'.'
aS'Frequently'
p34
aS'foaf'
p35
aS':'
aS'name'
p36
aS'is'
p37
aS'used'
p38
aS'for'
p39
aS'all'
p40
aS'of'
p41
aS'the'
p42
aS'different'
p43
aS'names'
p44
aS'of'
p45
aS'a'
aS'person'
p46
aS';'
aS'this'
p47
aS'property'
p48
aS'just'
p49
aS'defines'
p50
aS'the'
p51
aS'most'
p52
aS'commonly'
p53
aS'used'
p54
aS'name.55'
p55
asS'chunk_seq'
p56
(lp57
S'B-NP'
p58
aS'I-NP'
p59
aS'I-NP'
p60
aS'E-NP'
p61
aS'B-NP'
p62
aS'I-NP'
p63
aS'E-NP'
p64
aS'S-PP'
p65
aS'B-NP'
p66
aS'E-NP'
p67
aS'O'
aS'S-ADVP'
p68
aS'S-VP'
p69
aS'O'
aS'S-NP'
p70
aS'B-VP'
p71
aS'E-VP'
p72
aS'S-PP'
p73
aS'S-NP'
p74
aS'S-PP'
p75
aS'B-NP'
p76
aS'I-NP'
p77
aS'E-NP'
p78
aS'S-PP'
p79
aS'B-NP'
p80
aS'E-NP'
p81
aS'O'
aS'B-NP'
p82
aS'E-NP'
p83
aS'S-ADVP'
p84
aS'S-VP'
p85
aS'B-NP'
p86
aS'I-NP'
p87
aS'I-NP'
p88
aS'I-NP'
p89
aS'E-NP'
p90
asS'dep_seq'
p91
(lp92
(lp93
S'amod'
p94
aS'4'
aS'1'
aa(lp95
S'nn'
p96
aS'4'
aS'2'
aa(lp97
S'amod'
p98
aS'4'
aS'3'
aa(lp99
S'root'
p100
aS'0'
aS'4'
aa(lp101
S'det'
p102
aS'7'
aS'5'
aa(lp103
S'amod'
p104
aS'7'
aS'6'
aa(lp105
S'dep'
p106
aS'4'
aS'7'
aa(lp107
S'det'
p108
aS'10'
p109
aS'9'
aa(lp110
S'prep_of'
p111
aS'7'
aS'10'
p112
aa(lp113
S'advmod'
p114
aS'13'
p115
aS'12'
p116
aa(lp117
S'parataxis'
p118
aS'4'
aS'13'
p119
aa(lp120
S'nsubjpass'
p121
aS'17'
p122
aS'15'
p123
aa(lp124
S'auxpass'
p125
aS'17'
p126
aS'16'
p127
aa(lp128
S'parataxis'
p129
aS'4'
aS'17'
p130
aa(lp131
S'prep_for'
p132
aS'17'
p133
aS'19'
p134
aa(lp135
S'det'
p136
aS'23'
p137
aS'21'
p138
aa(lp139
S'amod'
p140
aS'23'
p141
aS'22'
p142
aa(lp143
S'prep_of'
p144
aS'19'
p145
aS'23'
p146
aa(lp147
S'det'
p148
aS'26'
p149
aS'25'
p150
aa(lp151
S'prep_of'
p152
aS'23'
p153
aS'26'
p154
aa(lp155
S'det'
p156
aS'29'
p157
aS'28'
p158
aa(lp159
S'nsubj'
p160
aS'31'
p161
aS'29'
p162
aa(lp163
S'advmod'
p164
aS'31'
p165
aS'30'
p166
aa(lp167
S'parataxis'
p168
aS'4'
aS'31'
p169
aa(lp170
S'det'
p171
aS'35'
p172
aS'32'
p173
aa(lp174
S'advmod'
p175
aS'34'
p176
aS'33'
p177
aa(lp178
S'advmod'
p179
aS'35'
p180
aS'34'
p181
aa(lp182
S'dobj'
p183
aS'31'
p184
aS'35'
p185
aa(lp186
S'advmod'
p187
aS'35'
p188
aS'36'
p189
aasS'srls'
p190
(lp191
(dp192
S'A0'
p193
S'common name lang String'
p194
sS'AM-TMP'
p195
g34
sS'V'
g35
sa(dp196
S'A1'
p197
g36
sS'A2'
p198
S'for all of the different names of a person'
p199
sS'V'
g38
sa(dp200
S'AM-ADV'
p201
g49
sS'A0'
p202
S'this property'
p203
sS'A1'
p204
S'the most commonly used name.55'
p205
sS'V'
g50
sa(dp206
S'A1'
p207
g55
sS'A0'
p208
S'the most commonly'
p209
sS'V'
g54
sasS'pos_seq'
p210
(lp211
S'JJ'
p212
aS'NN'
p213
aS'VBG'
p214
aS'NN'
p215
aS'DT'
p216
aS'JJ'
p217
aS'NN'
p218
aS'IN'
p219
aS'DT'
p220
aS'NN'
p221
aS'.'
aS'RB'
p222
aS'VBP'
p223
aS':'
aS'NN'
p224
aS'VBZ'
p225
aS'VBN'
p226
aS'IN'
p227
aS'DT'
p228
aS'IN'
p229
aS'DT'
p230
aS'JJ'
p231
aS'NNS'
p232
aS'IN'
p233
aS'DT'
p234
aS'NN'
p235
aS':'
aS'DT'
p236
aS'NN'
p237
aS'RB'
p238
aS'VBZ'
p239
aS'DT'
p240
aS'RBS'
p241
aS'RB'
p242
aS'VBN'
p243
aS'.'
asS'ner_seq'
p244
(lp245
S'O'
aS'O'
aS'B-PER'
p246
aS'E-PER'
p247
aS'O'
aS'O'
aS'O'
aS'O'
aS'O'
aS'O'
aS'O'
aS'O'
aS'O'
aS'O'
aS'O'
aS'O'
aS'O'
aS'O'
aS'O'
aS'O'
aS'O'
aS'O'
aS'O'
aS'O'
aS'O'
aS'O'
aS'O'
aS'O'
aS'O'
aS'O'
aS'O'
aS'O'
aS'O'
aS'O'
aS'O'
aS'O'
assb.