ccopy_reg
_reconstructor
p1
(c__main__
KBproperty
p2
c__builtin__
object
p3
NtRp4
(dp5
S'comment'
p6
S'Age range of students admitted in a School MilitaryUnit etc820723'
p7
sS'domain'
p8
S''
sS'instances_count'
p9
I820
sS'phrases'
p10
NsS'syn_hypo'
p11
S''
sS'label'
p12
S'age range'
p13
sS'range'
p14
S'non Negative Integer '
p15
sS'uniq_subjs'
p16
S'30'
p17
sS'uniq_objs'
p18
I0
sS'prop_uri'
p19
S'http://dbpedia.org/ontology/ageRange'
p20
sS'annotations'
p21
(dp22
S'bag_of_words'
p23
(lp24
S'age'
p25
aS'range'
p26
aS'non'
p27
aS'Negative'
p28
aS'Integer'
p29
aS'Age'
p30
aS'range'
p31
aS'of'
p32
aS'students'
p33
aS'admitted'
p34
aS'in'
p35
aS'a'
aS'School'
p36
aS'MilitaryUnit'
p37
aS'etc820723'
p38
asS'chunk_seq'
p39
(lp40
S'S-NP'
p41
aS'S-VP'
p42
aS'B-NP'
p43
aS'I-NP'
p44
aS'I-NP'
p45
aS'I-NP'
p46
aS'E-NP'
p47
aS'S-PP'
p48
aS'S-NP'
p49
aS'S-VP'
p50
aS'S-PP'
p51
aS'B-NP'
p52
aS'I-NP'
p53
aS'I-NP'
p54
aS'E-NP'
p55
asS'dep_seq'
p56
(lp57
(lp58
S'nsubj'
p59
aS'2'
aS'1'
aa(lp60
S'root'
p61
aS'0'
aS'2'
aa(lp62
S'amod'
p63
aS'7'
aS'3'
aa(lp64
S'amod'
p65
aS'7'
aS'4'
aa(lp66
S'nn'
p67
aS'7'
aS'5'
aa(lp68
S'nn'
p69
aS'7'
aS'6'
aa(lp70
S'dobj'
p71
aS'2'
aS'7'
aa(lp72
S'prep_of'
p73
aS'7'
aS'9'
aa(lp74
S'partmod'
p75
aS'9'
aS'10'
p76
aa(lp77
S'det'
p78
aS'15'
p79
aS'12'
p80
aa(lp81
S'nn'
p82
aS'15'
p83
aS'13'
p84
aa(lp85
S'nn'
p86
aS'15'
p87
aS'14'
p88
aa(lp89
S'prep_in'
p90
aS'10'
p91
aS'15'
p92
aasS'srls'
p93
(lp94
(dp95
S'A1'
p96
g25
sS'A3'
p97
S'non Negative Integer Age range of students admitted in a School MilitaryUnit etc820723'
p98
sS'V'
g26
sa(dp99
S'A1'
p100
g33
sS'AM-LOC'
p101
S'in a School MilitaryUnit etc820723'
p102
sS'V'
g34
sasS'pos_seq'
p103
(lp104
S'NN'
p105
aS'VBP'
p106
aS'JJ'
p107
aS'JJ'
p108
aS'NNP'
p109
aS'NNP'
p110
aS'NN'
p111
aS'IN'
p112
aS'NNS'
p113
aS'VBN'
p114
aS'IN'
p115
aS'DT'
p116
aS'NNP'
p117
aS'NNP'
p118
aS'NN'
p119
asS'ner_seq'
p120
(lp121
S'O'
aS'O'
aS'O'
aS'B-MISC'
p122
aS'I-MISC'
p123
aS'E-MISC'
p124
aS'O'
aS'O'
aS'O'
aS'O'
aS'O'
aS'O'
aS'O'
aS'O'
aS'O'
assb.