ccopy_reg
_reconstructor
p1
(c__main__
KBproperty
p2
c__builtin__
object
p3
NtRp4
(dp5
S'comment'
p6
S'12871286'
p7
sS'domain'
p8
S'Grand Prix '
p9
sS'instances_count'
p10
I109
sS'phrases'
p11
NsS'syn_hypo'
p12
S''
sS'label'
p13
S'second team'
p14
sS'range'
p15
S'Sports Team '
p16
sS'uniq_subjs'
p17
S'109'
p18
sS'uniq_objs'
p19
I0
sS'prop_uri'
p20
S'http://dbpedia.org/ontology/secondTeam'
p21
sS'annotations'
p22
(dp23
S'bag_of_words'
p24
(lp25
S'Grand'
p26
aS'Prix'
p27
aS'second'
p28
aS'team'
p29
aS'Sports'
p30
aS'Team'
p31
aS'12871286'
p32
asS'chunk_seq'
p33
(lp34
S'B-NP'
p35
aS'I-NP'
p36
aS'I-NP'
p37
aS'I-NP'
p38
aS'I-NP'
p39
aS'E-NP'
p40
aS'S-ADJP'
p41
asS'dep_seq'
p42
(lp43
(lp44
S'nn'
p45
aS'6'
aS'1'
aa(lp46
S'nn'
p47
aS'6'
aS'2'
aa(lp48
S'amod'
p49
aS'6'
aS'3'
aa(lp50
S'nn'
p51
aS'6'
aS'4'
aa(lp52
S'nn'
p53
aS'6'
aS'5'
aa(lp54
S'root'
p55
aS'0'
aS'6'
aa(lp56
S'punct'
p57
aS'6'
aS'7'
aasS'srls'
p58
(lp59
sS'pos_seq'
p60
(lp61
S'NNP'
p62
aS'NNP'
p63
aS'JJ'
p64
aS'NN'
p65
aS'NNP'
p66
aS'NNP'
p67
aS'.'
asS'ner_seq'
p68
(lp69
S'B-MISC'
p70
aS'E-MISC'
p71
aS'O'
aS'O'
aS'B-ORG'
p72
aS'E-ORG'
p73
aS'O'
assb.