ccopy_reg
_reconstructor
p1
(c__main__
KBproperty
p2
c__builtin__
object
p3
NtRp4
(dp5
S'comment'
p6
S'00'
p7
sS'domain'
p8
S'Celestial Body '
p9
sS'instances_count'
p10
I0
sS'phrases'
p11
NsS'syn_hypo'
p12
S''
sS'label'
p13
S'stellar classification'
p14
sS'range'
p15
S'Ordered Collection '
p16
sS'uniq_subjs'
p17
S'0'
sS'uniq_objs'
p18
I0
sS'prop_uri'
p19
S'http://dbpedia.org/ontology/stellarClassification'
p20
sS'annotations'
p21
(dp22
S'bag_of_words'
p23
(lp24
S'Celestial'
p25
aS'Body'
p26
aS'stellar'
p27
aS'classification'
p28
aS'Ordered'
p29
aS'Collection'
p30
aS'00'
p31
asS'chunk_seq'
p32
(lp33
S'B-NP'
p34
aS'I-NP'
p35
aS'I-NP'
p36
aS'E-NP'
p37
aS'S-VP'
p38
aS'B-NP'
p39
aS'E-NP'
p40
asS'dep_seq'
p41
(lp42
(lp43
S'amod'
p44
aS'4'
aS'1'
aa(lp45
S'nn'
p46
aS'4'
aS'2'
aa(lp47
S'amod'
p48
aS'4'
aS'3'
aa(lp49
S'nsubj'
p50
aS'5'
aS'4'
aa(lp51
S'root'
p52
aS'0'
aS'5'
aa(lp53
S'dobj'
p54
aS'5'
aS'6'
aa(lp55
S'num'
p56
aS'6'
aS'7'
aasS'srls'
p57
(lp58
(dp59
S'A1'
p60
S'Celestial Body stellar classification  Collection 00'
p61
sS'V'
g29
sasS'pos_seq'
p62
(lp63
S'JJ'
p64
aS'NN'
p65
aS'JJ'
p66
aS'NN'
p67
aS'VBN'
p68
aS'NN'
p69
aS'CD'
p70
asS'ner_seq'
p71
(lp72
S'B-ORG'
p73
aS'E-ORG'
p74
aS'O'
aS'O'
aS'O'
aS'O'
aS'O'
assb.