ccopy_reg
_reconstructor
p1
(c__main__
KBproperty
p2
c__builtin__
object
p3
NtRp4
(dp5
S'comment'
p6
S'Country the thing is located.2232021506'
p7
sS'domain'
p8
S''
sS'instances_count'
p9
I501
sS'phrases'
p10
NsS'syn_hypo'
p11
S''
sS'label'
p12
S'pa\\xc5\\x84stwo'
p13
sS'range'
p14
S'Country '
p15
sS'uniq_subjs'
p16
S'501'
p17
sS'uniq_objs'
p18
I0
sS'prop_uri'
p19
S'http://dbpedia.org/ontology/locationCountry'
p20
sS'annotations'
p21
(dp22
S'bag_of_words'
p23
(lp24
S'pa'
p25
aS'\\'
aS'xc5'
p26
aS'\\'
aS'x84stwo'
p27
aS'Country'
p28
aS'Country'
p29
aS'the'
p30
aS'thing'
p31
aS'is'
p32
aS'located.2232021506'
p33
asS'chunk_seq'
p34
(lp35
S'S-NP'
p36
aS'O'
aS'O'
aS'O'
aS'B-NP'
p37
aS'I-NP'
p38
aS'E-NP'
p39
aS'B-NP'
p40
aS'E-NP'
p41
aS'S-VP'
p42
aS'S-ADJP'
p43
asS'dep_seq'
p44
(lp45
(lp46
S'dep'
p47
aS'5'
aS'1'
aa(lp48
S'dep'
p49
aS'5'
aS'2'
aa(lp50
S'dep'
p51
aS'5'
aS'3'
aa(lp52
S'dep'
p53
aS'5'
aS'4'
aa(lp54
S'dep'
p55
aS'7'
aS'5'
aa(lp56
S'nn'
p57
aS'7'
aS'6'
aa(lp58
S'csubj'
p59
aS'11'
p60
aS'7'
aa(lp61
S'det'
p62
aS'9'
aS'8'
aa(lp63
S'dobj'
p64
aS'7'
aS'9'
aa(lp65
S'cop'
p66
aS'11'
p67
aS'10'
p68
aa(lp69
S'root'
p70
aS'0'
aS'11'
p71
aasS'srls'
p72
(lp73
sS'pos_seq'
p74
(lp75
S'FW'
p76
aS'FW'
p77
aS'FW'
p78
aS'FW'
p79
aS'FW'
p80
aS'NNP'
p81
aS'NNP'
p82
aS'DT'
p83
aS'NN'
p84
aS'VBZ'
p85
aS'.'
asS'ner_seq'
p86
(lp87
S'O'
aS'O'
aS'O'
aS'O'
aS'O'
aS'B-ORG'
p88
aS'E-ORG'
p89
aS'O'
aS'O'
aS'O'
aS'O'
assb.