ccopy_reg
_reconstructor
p1
(c__main__
KBproperty
p2
c__builtin__
object
p3
NtRp4
(dp5
S'comment'
p6
S'Number of votes in favour of the resolution'
p7
sS'domain'
p8
S'Stated Resolution '
p9
sS'instances_count'
p10
I0
sS'phrases'
p11
NsS'syn_hypo'
p12
S''
sS'label'
p13
g7
sS'range'
p14
S'non Negative Integer '
p15
sS'uniq_subjs'
p16
S'0'
sS'uniq_objs'
p17
I0
sS'prop_uri'
p18
S'http://dbpedia.org/ontology/votesFor'
p19
sS'annotations'
p20
(dp21
S'bag_of_words'
p22
(lp23
S'Stated'
p24
aS'Resolution'
p25
aS'votes'
p26
aS'For'
p27
aS'non'
p28
aS'Negative'
p29
aS'Integer'
p30
aS'Number'
p31
aS'of'
p32
aS'votes'
p33
aS'in'
p34
aS'favour'
p35
aS'of'
p36
aS'the'
p37
aS'resolution'
p38
asS'chunk_seq'
p39
(lp40
S'B-NP'
p41
aS'I-NP'
p42
aS'E-NP'
p43
aS'S-PP'
p44
aS'B-NP'
p45
aS'I-NP'
p46
aS'I-NP'
p47
aS'E-NP'
p48
aS'S-PP'
p49
aS'S-NP'
p50
aS'S-PP'
p51
aS'S-NP'
p52
aS'S-PP'
p53
aS'B-NP'
p54
aS'E-NP'
p55
asS'dep_seq'
p56
(lp57
(lp58
S'amod'
p59
aS'3'
aS'1'
aa(lp60
S'nn'
p61
aS'3'
aS'2'
aa(lp62
S'root'
p63
aS'0'
aS'3'
aa(lp64
S'amod'
p65
aS'8'
aS'5'
aa(lp66
S'amod'
p67
aS'8'
aS'6'
aa(lp68
S'nn'
p69
aS'8'
aS'7'
aa(lp70
S'prep_for'
p71
aS'3'
aS'8'
aa(lp72
S'prep_of'
p73
aS'8'
aS'10'
p74
aa(lp75
S'prep_in'
p76
aS'3'
aS'12'
p77
aa(lp78
S'det'
p79
aS'15'
p80
aS'14'
p81
aa(lp82
S'prep_of'
p83
aS'12'
p84
aS'15'
p85
aasS'srls'
p86
(lp87
sS'pos_seq'
p88
(lp89
S'VBN'
p90
aS'NN'
p91
aS'NNS'
p92
aS'IN'
p93
aS'JJ'
p94
aS'JJ'
p95
aS'NNP'
p96
aS'NNP'
p97
aS'IN'
p98
aS'NNS'
p99
aS'IN'
p100
aS'NN'
p101
aS'IN'
p102
aS'DT'
p103
aS'NN'
p104
asS'ner_seq'
p105
(lp106
S'O'
aS'O'
aS'O'
aS'O'
aS'O'
aS'O'
aS'O'
aS'O'
aS'O'
aS'O'
aS'O'
aS'O'
aS'O'
aS'O'
aS'O'
assb.