ccopy_reg
_reconstructor
p1
(c__main__
KBproperty
p2
c__builtin__
object
p3
NtRp4
(dp5
S'comment'
p6
S"Address of something as literal. Usually Building but we also use it for the address of a Region's or Settlement's government5266243779"
p7
sS'domain'
p8
S''
sS'instances_count'
p9
I52662
sS'phrases'
p10
NsS'syn_hypo'
p11
Vargumentaddresscomputer_addressreferenceparameteraddresscomputer_addressreferenceURLaddresscomputer_addressreferenceuniform_resource_locatoraddresscomputer_addressreferenceuniversal_resource_locator
p12
sS'label'
p13
S'address'
p14
sS'range'
p15
S'lang String '
p16
sS'uniq_subjs'
p17
S'45586'
p18
sS'uniq_objs'
p19
I0
sS'prop_uri'
p20
S'http://dbpedia.org/ontology/address'
p21
sS'annotations'
p22
(dp23
S'bag_of_words'
p24
(lp25
S'address'
p26
aS'lang'
p27
aS'String'
p28
aS'Address'
p29
aS'of'
p30
aS'something'
p31
aS'as'
p32
aS'literal'
p33
aS'.'
aS'Usually'
p34
aS'Building'
p35
aS'but'
p36
aS'we'
p37
aS'also'
p38
aS'use'
p39
aS'it'
p40
aS'for'
p41
aS'the'
p42
aS'address'
p43
aS'of'
p44
aS'a'
aS'Region'
p45
aS"'s"
p46
aS'or'
p47
aS'Settlement'
p48
aS"'s"
p49
aS'government5266243779'
p50
asS'chunk_seq'
p51
(lp52
S'B-NP'
p53
aS'I-NP'
p54
aS'I-NP'
p55
aS'E-NP'
p56
aS'S-PP'
p57
aS'S-NP'
p58
aS'S-PP'
p59
aS'S-ADJP'
p60
aS'O'
aS'S-ADVP'
p61
aS'S-VP'
p62
aS'O'
aS'S-NP'
p63
aS'S-ADVP'
p64
aS'S-VP'
p65
aS'S-NP'
p66
aS'S-PP'
p67
aS'B-NP'
p68
aS'E-NP'
p69
aS'S-PP'
p70
aS'B-NP'
p71
aS'E-NP'
p72
aS'S-NP'
p73
aS'O'
aS'S-NP'
p74
aS'B-NP'
p75
aS'E-NP'
p76
asS'dep_seq'
p77
(lp78
(lp79
S'dep'
p80
aS'8'
aS'1'
aa(lp81
S'dep'
p82
aS'8'
aS'2'
aa(lp83
S'dep'
p84
aS'2'
aS'3'
aa(lp85
S'dep'
p86
aS'3'
aS'4'
aa(lp87
S'prep_of'
p88
aS'3'
aS'6'
aa(lp89
S'dep'
p90
aS'8'
aS'7'
aa(lp91
S'root'
p92
aS'0'
aS'8'
aa(lp93
S'advmod'
p94
aS'11'
p95
aS'10'
p96
aa(lp97
S'dep'
p98
aS'8'
aS'11'
p99
aa(lp100
S'nsubj'
p101
aS'15'
p102
aS'13'
p103
aa(lp104
S'advmod'
p105
aS'15'
p106
aS'14'
p107
aa(lp108
S'conj_but'
p109
aS'8'
aS'15'
p110
aa(lp111
S'dobj'
p112
aS'15'
p113
aS'16'
p114
aa(lp115
S'det'
p116
aS'19'
p117
aS'18'
p118
aa(lp119
S'prep_for'
p120
aS'15'
p121
aS'19'
p122
aa(lp123
S'det'
p124
aS'22'
p125
aS'21'
p126
aa(lp127
S'prep_of'
p128
aS'19'
p129
aS'22'
p130
aa(lp131
S'possessive'
p132
aS'22'
p133
aS'23'
p134
aa(lp135
S'poss'
p136
aS'27'
p137
aS'25'
p138
aa(lp139
S'conj_or'
p140
aS'22'
p141
aS'27'
p142
aasS'srls'
p143
(lp144
(dp145
S'A1'
p146
S'String Address'
p147
sS'V'
g27
sa(dp148
S'AM-TMP'
p149
g34
sS'V'
g35
sa(dp150
S'A1'
p151
S"it for the address of a Region 's or Settlement 's government5266243779"
p152
sS'A0'
p153
g37
sS'AM-DIS'
p154
g38
sS'V'
g39
sasS'pos_seq'
p155
(lp156
S'NN'
p157
aS'VBG'
p158
aS'NNP'
p159
aS'NNP'
p160
aS'IN'
p161
aS'NN'
p162
aS'IN'
p163
aS'JJ'
p164
aS'.'
aS'RB'
p165
aS'VBG'
p166
aS'CC'
p167
aS'PRP'
p168
aS'RB'
p169
aS'VBP'
p170
aS'PRP'
p171
aS'IN'
p172
aS'DT'
p173
aS'NN'
p174
aS'IN'
p175
aS'DT'
p176
aS'NNP'
p177
aS'POS'
p178
aS'CC'
p179
aS'NNP'
p180
aS'POS'
p181
aS'NN'
p182
asS'ner_seq'
p183
(lp184
S'O'
aS'O'
aS'O'
aS'O'
aS'O'
aS'O'
aS'O'
aS'O'
aS'O'
aS'O'
aS'O'
aS'O'
aS'O'
aS'O'
aS'O'
aS'O'
aS'O'
aS'O'
aS'O'
aS'O'
aS'O'
aS'O'
aS'O'
aS'O'
aS'O'
aS'O'
aS'O'
assb.