ccopy_reg
_reconstructor
p1
(c__main__
KBproperty
p2
c__builtin__
object
p3
NtRp4
(dp5
S'comment'
p6
S'Code used to indentify populated places in Russia00'
p7
sS'domain'
p8
S'Populated Place '
p9
sS'instances_count'
p10
I0
sS'phrases'
p11
NsS'syn_hypo'
p12
S''
sS'label'
p13
S'okato code'
p14
sS'range'
p15
S'string '
p16
sS'uniq_subjs'
p17
S'0'
sS'uniq_objs'
p18
I0
sS'prop_uri'
p19
S'http://dbpedia.org/ontology/okatoCode'
p20
sS'annotations'
p21
(dp22
S'bag_of_words'
p23
(lp24
S'Populated'
p25
aS'Place'
p26
aS'okato'
p27
aS'code'
p28
aS'string'
p29
aS'Code'
p30
aS'used'
p31
aS'to'
p32
aS'indentify'
p33
aS'populated'
p34
aS'places'
p35
aS'in'
p36
aS'Russia00'
p37
asS'chunk_seq'
p38
(lp39
S'B-NP'
p40
aS'I-NP'
p41
aS'I-NP'
p42
aS'I-NP'
p43
aS'I-NP'
p44
aS'E-NP'
p45
aS'S-VP'
p46
aS'S-PP'
p47
aS'B-NP'
p48
aS'I-NP'
p49
aS'E-NP'
p50
aS'S-PP'
p51
aS'S-NP'
p52
asS'dep_seq'
p53
(lp54
(lp55
S'amod'
p56
aS'6'
aS'1'
aa(lp57
S'nn'
p58
aS'6'
aS'2'
aa(lp59
S'amod'
p60
aS'6'
aS'3'
aa(lp61
S'nn'
p62
aS'6'
aS'4'
aa(lp63
S'nn'
p64
aS'6'
aS'5'
aa(lp65
S'nsubj'
p66
aS'7'
aS'6'
aa(lp67
S'xsubj'
p68
aS'9'
aS'6'
aa(lp69
S'root'
p70
aS'0'
aS'7'
aa(lp71
S'aux'
p72
aS'9'
aS'8'
aa(lp73
S'xcomp'
p74
aS'7'
aS'9'
aa(lp75
S'amod'
p76
aS'11'
p77
aS'10'
p78
aa(lp79
S'dobj'
p80
aS'9'
aS'11'
p81
aa(lp82
S'prep_in'
p83
aS'11'
p84
aS'13'
p85
aasS'srls'
p86
(lp87
(dp88
S'A0'
p89
S'Populated Place okato code string Code'
p90
sS'V'
g31
sa(dp91
S'A1'
p92
S'populated places in Russia00'
p93
sS'A0'
p94
S'Populated Place okato code string Code'
p95
sS'V'
g33
sasS'pos_seq'
p96
(lp97
S'JJ'
p98
aS'NN'
p99
aS'JJ'
p100
aS'NN'
p101
aS'NN'
p102
aS'NN'
p103
aS'VBN'
p104
aS'TO'
p105
aS'VB'
p106
aS'JJ'
p107
aS'NNS'
p108
aS'IN'
p109
aS'NNP'
p110
asS'ner_seq'
p111
(lp112
S'O'
aS'O'
aS'O'
aS'O'
aS'O'
aS'O'
aS'O'
aS'O'
aS'O'
aS'O'
aS'O'
aS'O'
aS'S-LOC'
p113
assb.