ccopy_reg
_reconstructor
p1
(c__main__
KBproperty
p2
c__builtin__
object
p3
NtRp4
(dp5
S'comment'
p6
S'Electrification system e.g. Third rail Overhead catenary.16771386'
p7
sS'domain'
p8
S'Route Of Transportation '
p9
sS'instances_count'
p10
I1677
sS'phrases'
p11
NsS'syn_hypo'
p12
S''
sS'label'
p13
S'type of electrification'
p14
sS'range'
p15
S''
sS'uniq_subjs'
p16
S'45'
p17
sS'uniq_objs'
p18
I0
sS'prop_uri'
p19
S'http://dbpedia.org/ontology/typeOfElectrification'
p20
sS'annotations'
p21
(dp22
S'bag_of_words'
p23
(lp24
S'Route'
p25
aS'Of'
p26
aS'Transportation'
p27
aS'type'
p28
aS'of'
p29
aS'electrification'
p30
aS'Electrification'
p31
aS'system'
p32
aS'e.g.'
p33
aS'Third'
p34
aS'rail'
p35
aS'Overhead'
p36
aS'catenary.16771386'
p37
asS'chunk_seq'
p38
(lp39
S'S-NP'
p40
aS'S-PP'
p41
aS'B-NP'
p42
aS'E-NP'
p43
aS'S-PP'
p44
aS'B-NP'
p45
aS'I-NP'
p46
aS'E-NP'
p47
aS'S-PP'
p48
aS'B-NP'
p49
aS'I-NP'
p50
aS'I-NP'
p51
aS'E-NP'
p52
asS'dep_seq'
p53
(lp54
(lp55
S'dep'
p56
aS'4'
aS'1'
aa(lp57
S'prep_of'
p58
aS'1'
aS'3'
aa(lp59
S'root'
p60
aS'0'
aS'4'
aa(lp61
S'nn'
p62
aS'8'
aS'6'
aa(lp63
S'nn'
p64
aS'8'
aS'7'
aa(lp65
S'prep_of'
p66
aS'4'
aS'8'
aa(lp67
S'amod'
p68
aS'13'
p69
aS'10'
p70
aa(lp71
S'nn'
p72
aS'13'
p73
aS'11'
p74
aa(lp75
S'nn'
p76
aS'13'
p77
aS'12'
p78
aa(lp79
S'prep_e.g.'
p80
aS'4'
aS'13'
p81
aasS'srls'
p82
(lp83
sS'pos_seq'
p84
(lp85
S'NNP'
p86
aS'IN'
p87
aS'NNP'
p88
aS'NN'
p89
aS'IN'
p90
aS'NN'
p91
aS'NN'
p92
aS'NN'
p93
aS'IN'
p94
aS'JJ'
p95
aS'NN'
p96
aS'NN'
p97
aS'NN'
p98
asS'ner_seq'
p99
(lp100
S'B-ORG'
p101
aS'I-ORG'
p102
aS'E-ORG'
p103
aS'O'
aS'O'
aS'O'
aS'O'
aS'O'
aS'O'
aS'O'
aS'O'
aS'O'
aS'O'
assb.