ccopy_reg
_reconstructor
p1
(c__main__
KBproperty
p2
c__builtin__
object
p3
NtRp4
(dp5
S'comment'
p6
S'33653106'
p7
sS'domain'
p8
S'Species '
p9
sS'instances_count'
p10
I1419
sS'phrases'
p11
NsS'syn_hypo'
p12
Vbacteria_speciesspeciesendangered_speciesspeciesfish_speciesspeciestype_species
p13
sS'label'
p14
S'species'
p15
sS'range'
p16
S''
sS'uniq_subjs'
p17
S'1419'
p18
sS'uniq_objs'
p19
I0
sS'prop_uri'
p20
S'http://dbpedia.org/ontology/species'
p21
sS'annotations'
p22
(dp23
S'bag_of_words'
p24
(lp25
S'Species'
p26
aS'species'
p27
aS'33653106'
p28
asS'chunk_seq'
p29
(lp30
S'B-NP'
p31
aS'E-NP'
p32
aS'O'
asS'dep_seq'
p33
(lp34
(lp35
S'nn'
p36
aS'2'
aS'1'
aa(lp37
S'root'
p38
aS'0'
aS'2'
aa(lp39
S'punct'
p40
aS'2'
aS'3'
aasS'srls'
p41
(lp42
sS'pos_seq'
p43
(lp44
S'NNS'
p45
aS'NNS'
p46
aS'.'
asS'ner_seq'
p47
(lp48
S'O'
aS'O'
aS'O'
assb.