ccopy_reg
_reconstructor
p1
(c__main__
KBproperty
p2
c__builtin__
object
p3
NtRp4
(dp5
S'comment'
p6
S'100849966'
p7
sS'domain'
p8
S''
sS'instances_count'
p9
I499
sS'phrases'
p10
NsS'syn_hypo'
p11
Vacceptancedraftbill_of_exchangeorder_of_paymentbanker's_acceptancedraftbill_of_exchangeorder_of_paymentbank_draftdraftbill_of_exchangeorder_of_paymentbanker's_draftdraftbill_of_exchangeorder_of_paymentcheckdraftbill_of_exchangeorder_of_paymentbank_checkdraftbill_of_exchangeorder_of_paymentchequedraftbill_of_exchangeorder_of_paymentdividend_warrantdraftbill_of_exchangeorder_of_paymentforeign_billdraftbill_of_exchangeorder_of_paymentforeign_draftdraftbill_of_exchangeorder_of_paymentinland_billdraftbill_of_exchangeorder_of_paymentmoney_orderdraftbill_of_exchangeorder_of_paymentpostal_orderdraftbill_of_exchangeorder_of_paymentoverdraftdraftbill_of_exchangeorder_of_paymentredraftdraftbill_of_exchangeorder_of_paymentsight_draftdraftbill_of_exchangeorder_of_paymentsight_billdraftbill_of_exchangeorder_of_paymenttime_draftdraftbill_of_exchangeorder_of_paymenttime_billdraftbill_of_exchangeorder_of_paymenttrade_acceptance
p12
sS'label'
p13
S'draft'
p14
sS'range'
p15
S'string '
p16
sS'uniq_subjs'
p17
S'499'
p18
sS'uniq_objs'
p19
I0
sS'prop_uri'
p20
S'http://dbpedia.org/ontology/draft'
p21
sS'annotations'
p22
(dp23
S'bag_of_words'
p24
(lp25
S'draft'
p26
aS'string'
p27
aS'100849966'
p28
asS'chunk_seq'
p29
(lp30
S'B-NP'
p31
aS'I-NP'
p32
aS'E-NP'
p33
asS'dep_seq'
p34
(lp35
(lp36
S'nn'
p37
aS'3'
aS'1'
aa(lp38
S'nn'
p39
aS'3'
aS'2'
aa(lp40
S'root'
p41
aS'0'
aS'3'
aasS'srls'
p42
(lp43
sS'pos_seq'
p44
(lp45
S'NN'
p46
aS'NN'
p47
aS'NN'
p48
asS'ner_seq'
p49
(lp50
S'O'
aS'O'
aS'O'
assb.