ccopy_reg
_reconstructor
p1
(c__main__
KBproperty
p2
c__builtin__
object
p3
NtRp4
(dp5
S'comment'
p6
S'The place where the person died.303256193883'
p7
sS'domain'
p8
S'Person '
p9
sS'instances_count'
p10
I38303
sS'phrases'
p11
(lp12
S' where;die'
p13
aS' place of death'
p14
aS' where;died'
p15
aS' where;killed'
p16
aS' where;murder'
p17
aS' where;murdered'
p18
aS'died in\n'
p19
asS'syn_hypo'
p20
S''
sS'label'
p21
S'death place'
p22
sS'range'
p23
S'Place '
p24
sS'uniq_subjs'
p25
S'38303'
p26
sS'uniq_objs'
p27
I0
sS'prop_uri'
p28
S'http://dbpedia.org/ontology/deathPlace'
p29
sS'annotations'
p30
(dp31
S'bag_of_words'
p32
(lp33
S'Person'
p34
aS'death'
p35
aS'place'
p36
aS'Place'
p37
aS'The'
p38
aS'place'
p39
aS'where'
p40
aS'the'
p41
aS'person'
p42
aS'died.303256193883'
p43
asS'chunk_seq'
p44
(lp45
S'B-NP'
p46
aS'I-NP'
p47
aS'I-NP'
p48
aS'E-NP'
p49
aS'B-NP'
p50
aS'E-NP'
p51
aS'S-ADVP'
p52
aS'B-NP'
p53
aS'E-NP'
p54
aS'S-ADJP'
p55
asS'dep_seq'
p56
(lp57
(lp58
S'nn'
p59
aS'4'
aS'1'
aa(lp60
S'nn'
p61
aS'4'
aS'2'
aa(lp62
S'nn'
p63
aS'4'
aS'3'
aa(lp64
S'dep'
p65
aS'9'
aS'4'
aa(lp66
S'det'
p67
aS'6'
aS'5'
aa(lp68
S'dep'
p69
aS'9'
aS'6'
aa(lp70
S'advmod'
p71
aS'9'
aS'7'
aa(lp72
S'det'
p73
aS'9'
aS'8'
aa(lp74
S'root'
p75
aS'0'
aS'9'
aa(lp76
S'punct'
p77
aS'9'
aS'10'
p78
aasS'srls'
p79
(lp80
sS'pos_seq'
p81
(lp82
S'NN'
p83
aS'NN'
p84
aS'NN'
p85
aS'NN'
p86
aS'DT'
p87
aS'NN'
p88
aS'WRB'
p89
aS'DT'
p90
aS'NN'
p91
aS'.'
asS'ner_seq'
p92
(lp93
S'O'
aS'O'
aS'O'
aS'O'
aS'O'
aS'O'
aS'O'
aS'O'
aS'O'
aS'O'
assb.