ccopy_reg
_reconstructor
p1
(c__main__
KBproperty
p2
c__builtin__
object
p3
NtRp4
(dp5
S'comment'
p6
S'There are many types of business entity defined in the legal systems of various countries. These include corporations cooperatives partnerships sole traders limited liability company and other specialized types of organization.357347'
p7
sS'domain'
p8
S'Organisation '
p9
sS'instances_count'
p10
I357
sS'phrases'
p11
NsS'syn_hypo'
p12
S''
sS'label'
p13
S'legal form'
p14
sS'range'
p15
S''
sS'uniq_subjs'
p16
S'23'
p17
sS'uniq_objs'
p18
I0
sS'prop_uri'
p19
S'http://dbpedia.org/ontology/legalForm'
p20
sS'annotations'
p21
(dp22
S'bag_of_words'
p23
(lp24
S'Organisation'
p25
aS'legal'
p26
aS'form'
p27
aS'There'
p28
aS'are'
p29
aS'many'
p30
aS'types'
p31
aS'of'
p32
aS'business'
p33
aS'entity'
p34
aS'defined'
p35
aS'in'
p36
aS'the'
p37
aS'legal'
p38
aS'systems'
p39
aS'of'
p40
aS'various'
p41
aS'countries.'
p42
aS'These'
p43
aS'include'
p44
aS'corporations'
p45
aS'cooperatives'
p46
aS'partnerships'
p47
aS'sole'
p48
aS'traders'
p49
aS'limited'
p50
aS'liability'
p51
aS'company'
p52
aS'and'
p53
aS'other'
p54
aS'specialized'
p55
aS'types'
p56
aS'of'
p57
aS'organization.357347'
p58
asS'chunk_seq'
p59
(lp60
S'B-NP'
p61
aS'I-NP'
p62
aS'E-NP'
p63
aS'S-NP'
p64
aS'S-VP'
p65
aS'B-NP'
p66
aS'E-NP'
p67
aS'S-PP'
p68
aS'B-NP'
p69
aS'E-NP'
p70
aS'S-VP'
p71
aS'S-PP'
p72
aS'B-NP'
p73
aS'I-NP'
p74
aS'E-NP'
p75
aS'S-PP'
p76
aS'B-NP'
p77
aS'E-NP'
p78
aS'S-NP'
p79
aS'S-VP'
p80
aS'B-NP'
p81
aS'I-NP'
p82
aS'I-NP'
p83
aS'I-NP'
p84
aS'I-NP'
p85
aS'I-NP'
p86
aS'I-NP'
p87
aS'E-NP'
p88
aS'O'
aS'B-NP'
p89
aS'I-NP'
p90
aS'E-NP'
p91
aS'S-PP'
p92
aS'S-NP'
p93
asS'dep_seq'
p94
(lp95
(lp96
S'nn'
p97
aS'3'
aS'1'
aa(lp98
S'amod'
p99
aS'3'
aS'2'
aa(lp100
S'root'
p101
aS'0'
aS'3'
aa(lp102
S'expl'
p103
aS'5'
aS'4'
aa(lp104
S'rcmod'
p105
aS'3'
aS'5'
aa(lp106
S'amod'
p107
aS'7'
aS'6'
aa(lp108
S'nsubj'
p109
aS'5'
aS'7'
aa(lp110
S'nn'
p111
aS'10'
p112
aS'9'
aa(lp113
S'prep_of'
p114
aS'7'
aS'10'
p115
aa(lp116
S'partmod'
p117
aS'10'
p118
aS'11'
p119
aa(lp120
S'det'
p121
aS'15'
p122
aS'13'
p123
aa(lp124
S'amod'
p125
aS'15'
p126
aS'14'
p127
aa(lp128
S'prep_in'
p129
aS'11'
p130
aS'15'
p131
aa(lp132
S'amod'
p133
aS'18'
p134
aS'17'
p135
aa(lp136
S'prep_of'
p137
aS'15'
p138
aS'18'
p139
aa(lp140
S'nsubj'
p141
aS'20'
p142
aS'19'
p143
aa(lp144
S'rcmod'
p145
aS'3'
aS'20'
p146
aa(lp147
S'nn'
p148
aS'25'
p149
aS'21'
p150
aa(lp151
S'nn'
p152
aS'25'
p153
aS'22'
p154
aa(lp155
S'nn'
p156
aS'25'
p157
aS'23'
p158
aa(lp159
S'amod'
p160
aS'25'
p161
aS'24'
p162
aa(lp163
S'nsubj'
p164
aS'26'
p165
aS'25'
p166
aa(lp167
S'ccomp'
p168
aS'20'
p169
aS'26'
p170
aa(lp171
S'nn'
p172
aS'28'
p173
aS'27'
p174
aa(lp175
S'dobj'
p176
aS'26'
p177
aS'28'
p178
aa(lp179
S'amod'
p180
aS'32'
p181
aS'30'
p182
aa(lp183
S'amod'
p184
aS'32'
p185
aS'31'
p186
aa(lp187
S'conj_and'
p188
aS'20'
p189
aS'32'
p190
aa(lp191
S'dobj'
p192
aS'20'
p193
aS'32'
p194
aa(lp195
S'prep_of'
p196
aS'32'
p197
aS'34'
p198
aasS'srls'
p199
(lp200
(dp201
S'A1'
p202
S'many types of business entity'
p203
sS'A2'
p204
S'in the legal systems of various countries. These include corporations cooperatives partnerships sole traders limited liability company and other specialized types of organization.357347'
p205
sS'V'
g35
sa(dp206
S'A1'
p207
S'corporations cooperatives partnerships sole traders limited liability company and other specialized types of organization.357347'
p208
sS'A2'
p209
S'many types of business entity defined in the legal systems of various countries. These'
p210
sS'V'
g44
sa(dp211
S'A1'
p212
S'liability company and other specialized types of organization.357347'
p213
sS'A0'
p214
S'corporations cooperatives partnerships sole traders'
p215
sS'V'
g50
sa(dp216
S'A1'
p217
g56
sS'V'
g55
sasS'pos_seq'
p218
(lp219
S'NN'
p220
aS'JJ'
p221
aS'NN'
p222
aS'EX'
p223
aS'VBP'
p224
aS'JJ'
p225
aS'NNS'
p226
aS'IN'
p227
aS'NN'
p228
aS'NN'
p229
aS'VBN'
p230
aS'IN'
p231
aS'DT'
p232
aS'JJ'
p233
aS'NNS'
p234
aS'IN'
p235
aS'JJ'
p236
aS'NNS'
p237
aS'DT'
p238
aS'VBP'
p239
aS'NNS'
p240
aS'NNS'
p241
aS'NNS'
p242
aS'JJ'
p243
aS'NNS'
p244
aS'VBD'
p245
aS'NN'
p246
aS'NN'
p247
aS'CC'
p248
aS'JJ'
p249
aS'JJ'
p250
aS'NNS'
p251
aS'IN'
p252
aS'NN'
p253
asS'ner_seq'
p254
(lp255
S'O'
aS'O'
aS'O'
aS'O'
aS'O'
aS'O'
aS'O'
aS'O'
aS'O'
aS'O'
aS'O'
aS'O'
aS'O'
aS'O'
aS'O'
aS'O'
aS'O'
aS'O'
aS'O'
aS'O'
aS'O'
aS'O'
aS'O'
aS'O'
aS'O'
aS'O'
aS'O'
aS'O'
aS'O'
aS'O'
aS'O'
aS'O'
aS'O'
aS'O'
assb.