ccopy_reg
_reconstructor
p1
(c__main__
KBproperty
p2
c__builtin__
object
p3
NtRp4
(dp5
S'comment'
p6
S'Are reservations required for the establishment or event?5858'
p7
sS'domain'
p8
S'Restaurant '
p9
sS'instances_count'
p10
I2
sS'phrases'
p11
NsS'syn_hypo'
p12
S''
sS'label'
p13
S'reservations'
p14
sS'range'
p15
S'boolean '
p16
sS'uniq_subjs'
p17
S'2'
sS'uniq_objs'
p18
I0
sS'prop_uri'
p19
S'http://dbpedia.org/ontology/reservations'
p20
sS'annotations'
p21
(dp22
S'bag_of_words'
p23
(lp24
S'Restaurant'
p25
aS'reservations'
p26
aS'boolean'
p27
aS'Are'
p28
aS'reservations'
p29
aS'required'
p30
aS'for'
p31
aS'the'
p32
aS'establishment'
p33
aS'or'
p34
aS'event'
p35
aS'?'
aS'5858'
p36
asS'chunk_seq'
p37
(lp38
S'B-NP'
p39
aS'I-NP'
p40
aS'E-NP'
p41
aS'S-VP'
p42
aS'S-NP'
p43
aS'S-VP'
p44
aS'S-PP'
p45
aS'B-NP'
p46
aS'I-NP'
p47
aS'I-NP'
p48
aS'E-NP'
p49
aS'O'
aS'S-NP'
p50
asS'dep_seq'
p51
(lp52
(lp53
S'nn'
p54
aS'3'
aS'1'
aa(lp55
S'nn'
p56
aS'3'
aS'2'
aa(lp57
S'nsubj'
p58
aS'5'
aS'3'
aa(lp59
S'cop'
p60
aS'5'
aS'4'
aa(lp61
S'root'
p62
aS'0'
aS'5'
aa(lp63
S'partmod'
p64
aS'5'
aS'6'
aa(lp65
S'det'
p66
aS'9'
aS'8'
aa(lp67
S'prep_for'
p68
aS'6'
aS'9'
aa(lp69
S'conj_or'
p70
aS'9'
aS'11'
p71
aa(lp72
S'dep'
p73
aS'5'
aS'13'
p74
aasS'srls'
p75
(lp76
(dp77
S'A1'
p78
S'reservations  for the establishment or event'
p79
sS'V'
g30
sasS'pos_seq'
p80
(lp81
S'NN'
p82
aS'NNS'
p83
aS'NN'
p84
aS'VBP'
p85
aS'NNS'
p86
aS'VBN'
p87
aS'IN'
p88
aS'DT'
p89
aS'NN'
p90
aS'CC'
p91
aS'NN'
p92
aS'.'
aS'NN'
p93
asS'ner_seq'
p94
(lp95
S'O'
aS'O'
aS'O'
aS'O'
aS'O'
aS'O'
aS'O'
aS'O'
aS'O'
aS'O'
aS'O'
aS'O'
aS'O'
assb.