ccopy_reg
_reconstructor
p1
(c__main__
KBproperty
p2
c__builtin__
object
p3
NtRp4
(dp5
S'comment'
p6
S'Link from a Wikipage to another Wikipage'
p7
sS'domain'
p8
S''
sS'instances_count'
p9
I0
sS'phrases'
p10
NsS'syn_hypo'
p11
S''
sS'label'
p12
g7
sS'range'
p13
S''
sS'uniq_subjs'
p14
S'0'
sS'uniq_objs'
p15
I0
sS'prop_uri'
p16
S'http://dbpedia.org/ontology/wikiPageWikiLink'
p17
sS'annotations'
p18
(dp19
S'bag_of_words'
p20
(lp21
S'wiki'
p22
aS'Page'
p23
aS'Wiki'
p24
aS'Link'
p25
aS'Link'
p26
aS'from'
p27
aS'a'
aS'Wikipage'
p28
aS'to'
p29
aS'another'
p30
aS'Wikipage'
p31
asS'chunk_seq'
p32
(lp33
S'O'
aS'O'
aS'O'
aS'B-NP'
p34
aS'E-NP'
p35
aS'S-PP'
p36
aS'B-NP'
p37
aS'E-NP'
p38
aS'S-PP'
p39
aS'B-NP'
p40
aS'E-NP'
p41
asS'dep_seq'
p42
(lp43
(lp44
S'nn'
p45
aS'5'
aS'1'
aa(lp46
S'nn'
p47
aS'5'
aS'2'
aa(lp48
S'nn'
p49
aS'5'
aS'3'
aa(lp50
S'nn'
p51
aS'5'
aS'4'
aa(lp52
S'root'
p53
aS'0'
aS'5'
aa(lp54
S'det'
p55
aS'8'
aS'7'
aa(lp56
S'prep_from'
p57
aS'5'
aS'8'
aa(lp58
S'det'
p59
aS'11'
p60
aS'10'
p61
aa(lp62
S'prep_to'
p63
aS'5'
aS'11'
p64
aasS'srls'
p65
(lp66
sS'pos_seq'
p67
(lp68
S'NN'
p69
aS'NNP'
p70
aS'NNP'
p71
aS'NNP'
p72
aS'NNP'
p73
aS'IN'
p74
aS'DT'
p75
aS'NNP'
p76
aS'TO'
p77
aS'DT'
p78
aS'NNP'
p79
asS'ner_seq'
p80
(lp81
S'O'
aS'O'
aS'O'
aS'O'
aS'O'
aS'O'
aS'O'
aS'S-MISC'
p82
aS'O'
aS'O'
aS'S-ORG'
p83
assb.