ccopy_reg
_reconstructor
p1
(c__main__
KBproperty
p2
c__builtin__
object
p3
NtRp4
(dp5
S'comment'
p6
S'Building start date of an ArchitecturalStructure man-made Lake etc. For older structures this can be just a year or century for newer structures an exact date is preferred1200711522'
p7
sS'domain'
p8
S''
sS'instances_count'
p9
I12007
sS'phrases'
p10
NsS'syn_hypo'
p11
S''
sS'label'
p12
S'building start date'
p13
sS'range'
p14
S'string '
p15
sS'uniq_subjs'
p16
S'3621'
p17
sS'uniq_objs'
p18
I0
sS'prop_uri'
p19
S'http://dbpedia.org/ontology/buildingStartDate'
p20
sS'annotations'
p21
(dp22
S'bag_of_words'
p23
(lp24
S'building'
p25
aS'start'
p26
aS'date'
p27
aS'string'
p28
aS'Building'
p29
aS'start'
p30
aS'date'
p31
aS'of'
p32
aS'an'
p33
aS'ArchitecturalStructure'
p34
aS'man-made'
p35
aS'Lake'
p36
aS'etc.'
p37
aS'For'
p38
aS'older'
p39
aS'structures'
p40
aS'this'
p41
aS'can'
p42
aS'be'
p43
aS'just'
p44
aS'a'
aS'year'
p45
aS'or'
p46
aS'century'
p47
aS'for'
p48
aS'newer'
p49
aS'structures'
p50
aS'an'
p51
aS'exact'
p52
aS'date'
p53
aS'is'
p54
aS'preferred1200711522'
p55
asS'chunk_seq'
p56
(lp57
S'B-NP'
p58
aS'I-NP'
p59
aS'I-NP'
p60
aS'I-NP'
p61
aS'I-NP'
p62
aS'I-NP'
p63
aS'E-NP'
p64
aS'S-PP'
p65
aS'B-NP'
p66
aS'I-NP'
p67
aS'I-NP'
p68
aS'I-NP'
p69
aS'E-NP'
p70
aS'S-PP'
p71
aS'B-NP'
p72
aS'E-NP'
p73
aS'S-NP'
p74
aS'B-VP'
p75
aS'E-VP'
p76
aS'B-NP'
p77
aS'I-NP'
p78
aS'I-NP'
p79
aS'I-NP'
p80
aS'E-NP'
p81
aS'S-PP'
p82
aS'B-NP'
p83
aS'E-NP'
p84
aS'B-NP'
p85
aS'I-NP'
p86
aS'E-NP'
p87
aS'S-VP'
p88
aS'S-ADJP'
p89
asS'dep_seq'
p90
(lp91
(lp92
S'nn'
p93
aS'7'
aS'1'
aa(lp94
S'nn'
p95
aS'7'
aS'2'
aa(lp96
S'nn'
p97
aS'7'
aS'3'
aa(lp98
S'nn'
p99
aS'7'
aS'4'
aa(lp100
S'nn'
p101
aS'7'
aS'5'
aa(lp102
S'nn'
p103
aS'7'
aS'6'
aa(lp104
S'nsubj'
p105
aS'19'
p106
aS'7'
aa(lp107
S'det'
p108
aS'13'
p109
aS'9'
aa(lp110
S'nn'
p111
aS'13'
p112
aS'10'
p113
aa(lp114
S'amod'
p115
aS'13'
p116
aS'made'
p117
aa(lp118
S'nn'
p119
aS'13'
p120
aS'12'
p121
aa(lp122
S'prep_of'
p123
aS'7'
aS'13'
p124
aa(lp125
S'amod'
p126
aS'16'
p127
aS'15'
p128
aa(lp129
S'prep_for'
p130
aS'7'
aS'16'
p131
aa(lp132
S'dep'
p133
aS'7'
aS'17'
p134
aa(lp135
S'aux'
p136
aS'19'
p137
aS'18'
p138
aa(lp139
S'root'
p140
aS'0'
aS'19'
p141
aa(lp142
S'advmod'
p143
aS'22'
p144
aS'20'
p145
aa(lp146
S'det'
p147
aS'22'
p148
aS'21'
p149
aa(lp150
S'nsubj'
p151
aS'32'
p152
aS'22'
p153
aa(lp154
S'conj_or'
p155
aS'22'
p156
aS'24'
p157
aa(lp158
S'amod'
p159
aS'27'
p160
aS'26'
p161
aa(lp162
S'prep_for'
p163
aS'22'
p164
aS'27'
p165
aa(lp166
S'det'
p167
aS'30'
p168
aS'28'
p169
aa(lp170
S'amod'
p171
aS'30'
p172
aS'29'
p173
aa(lp174
S'dep'
p175
aS'27'
p176
aS'30'
p177
aa(lp178
S'cop'
p179
aS'32'
p180
aS'31'
p181
aa(lp182
S'ccomp'
p183
aS'19'
p184
aS'32'
p185
aasS'srls'
p186
(lp187
sS'pos_seq'
p188
(lp189
S'NN'
p190
aS'NN'
p191
aS'NN'
p192
aS'NN'
p193
aS'NN'
p194
aS'NN'
p195
aS'NN'
p196
aS'IN'
p197
aS'DT'
p198
aS'NNP'
p199
aS'JJ'
p200
aS'NNP'
p201
aS'NN'
p202
aS'IN'
p203
aS'JJR'
p204
aS'NNS'
p205
aS'DT'
p206
aS'MD'
p207
aS'VB'
p208
aS'RB'
p209
aS'DT'
p210
aS'NN'
p211
aS'CC'
p212
aS'NN'
p213
aS'IN'
p214
aS'JJR'
p215
aS'NNS'
p216
aS'DT'
p217
aS'JJ'
p218
aS'NN'
p219
aS'VBZ'
p220
aS'JJ'
p221
asS'ner_seq'
p222
(lp223
S'O'
aS'O'
aS'O'
aS'O'
aS'O'
aS'O'
aS'O'
aS'O'
aS'O'
aS'B-LOC'
p224
aS'I-LOC'
p225
aS'E-LOC'
p226
aS'O'
aS'O'
aS'O'
aS'O'
aS'O'
aS'O'
aS'O'
aS'O'
aS'O'
aS'O'
aS'O'
aS'O'
aS'O'
aS'O'
aS'O'
aS'O'
aS'O'
aS'O'
aS'O'
aS'O'
assb.