ccopy_reg
_reconstructor
p1
(c__main__
KBproperty
p2
c__builtin__
object
p3
NtRp4
(dp5
S'comment'
p6
S'The price of something eg a journal. For "total money earned by an Athlete" use gross00'
p7
sS'domain'
p8
S''
sS'instances_count'
p9
I0
sS'phrases'
p10
NsS'syn_hypo'
p11
S''
sS'label'
p12
S'price $'
p13
sS'range'
p14
S'double '
p15
sS'uniq_subjs'
p16
S'0'
sS'uniq_objs'
p17
I0
sS'prop_uri'
p18
S'http://dbpedia.org/ontology/price'
p19
sS'annotations'
p20
(dp21
S'bag_of_words'
p22
(lp23
S'price'
p24
aS'$'
aS'double'
p25
aS'The'
p26
aS'price'
p27
aS'of'
p28
aS'something'
p29
aS'eg'
p30
aS'a'
aS'journal'
p31
aS'.'
aS'For'
p32
aS'"'
aS'total'
p33
aS'money'
p34
aS'earned'
p35
aS'by'
p36
aS'an'
p37
aS'Athlete'
p38
aS'"'
aS'use'
p39
aS'gross00'
p40
asS'chunk_seq'
p41
(lp42
S'B-NP'
p43
aS'I-NP'
p44
aS'I-NP'
p45
aS'I-NP'
p46
aS'E-NP'
p47
aS'S-PP'
p48
aS'S-NP'
p49
aS'S-PP'
p50
aS'B-NP'
p51
aS'E-NP'
p52
aS'O'
aS'S-PP'
p53
aS'B-NP'
p54
aS'I-NP'
p55
aS'E-NP'
p56
aS'S-VP'
p57
aS'S-PP'
p58
aS'B-NP'
p59
aS'E-NP'
p60
aS'B-VP'
p61
aS'E-VP'
p62
aS'S-NP'
p63
asS'dep_seq'
p64
(lp65
(lp66
S'nn'
p67
aS'5'
aS'1'
aa(lp68
S'amod'
p69
aS'5'
aS'2'
aa(lp70
S'dep'
p71
aS'2'
aS'3'
aa(lp72
S'det'
p73
aS'5'
aS'4'
aa(lp74
S'dep'
p75
aS'22'
p76
aS'5'
aa(lp77
S'prep_of'
p78
aS'5'
aS'7'
aa(lp79
S'det'
p80
aS'10'
p81
aS'9'
aa(lp82
S'prep_eg'
p83
aS'7'
aS'10'
p84
aa(lp85
S'amod'
p86
aS'15'
p87
aS'13'
p88
aa(lp89
S'amod'
p90
aS'15'
p91
aS'14'
p92
aa(lp93
S'prep_for'
p94
aS'5'
aS'15'
p95
aa(lp96
S'partmod'
p97
aS'15'
p98
aS'16'
p99
aa(lp100
S'det'
p101
aS'19'
p102
aS'18'
p103
aa(lp104
S'agent'
p105
aS'16'
p106
aS'19'
p107
aa(lp108
S'dep'
p109
aS'22'
p110
aS'20'
p111
aa(lp112
S'dep'
p113
aS'22'
p114
aS'21'
p115
aa(lp116
S'root'
p117
aS'0'
aS'22'
p118
aasS'srls'
p119
(lp120
(dp121
S'A1'
p122
S'" total money'
p123
sS'A0'
p124
S'by an Athlete'
p125
sS'V'
g35
sa(dp126
S'A1'
p127
g40
sS'A0'
p128
S'an Athlete'
p129
sS'A3'
p130
S'price $ double The price of something eg a journal  For " total money'
p131
sS'V'
g39
sasS'pos_seq'
p132
(lp133
S'NN'
p134
aS'$'
aS'JJ'
p135
aS'DT'
p136
aS'NN'
p137
aS'IN'
p138
aS'NN'
p139
aS'IN'
p140
aS'DT'
p141
aS'NN'
p142
aS'.'
aS'IN'
p143
aS'JJ'
p144
aS'JJ'
p145
aS'NN'
p146
aS'VBN'
p147
aS'IN'
p148
aS'DT'
p149
aS'NN'
p150
aS'WDT'
p151
aS'VBP'
p152
aS'NN'
p153
asS'ner_seq'
p154
(lp155
S'O'
aS'O'
aS'O'
aS'O'
aS'O'
aS'O'
aS'O'
aS'O'
aS'O'
aS'O'
aS'O'
aS'O'
aS'O'
aS'O'
aS'O'
aS'O'
aS'O'
aS'O'
aS'O'
aS'O'
aS'O'
aS'O'
assb.