ccopy_reg
_reconstructor
p1
(c__main__
KBproperty
p2
c__builtin__
object
p3
NtRp4
(dp5
S'comment'
p6
S"Refers to the famous 1918 edition of Gray's Anatomy.28292829"
p7
sS'domain'
p8
S'Anatomical Structure '
p9
sS'instances_count'
p10
I258
sS'phrases'
p11
NsS'syn_hypo'
p12
S''
sS'label'
p13
S'Gray subject'
p14
sS'range'
p15
S'positive Integer '
p16
sS'uniq_subjs'
p17
S'258'
p18
sS'uniq_objs'
p19
I0
sS'prop_uri'
p20
S'http://dbpedia.org/ontology/graySubject'
p21
sS'annotations'
p22
(dp23
S'bag_of_words'
p24
(lp25
S'Anatomical'
p26
aS'Structure'
p27
aS'Gray'
p28
aS'subject'
p29
aS'positive'
p30
aS'Integer'
p31
aS'Refers'
p32
aS'to'
p33
aS'the'
p34
aS'famous'
p35
aS'1918'
p36
aS'edition'
p37
aS'of'
p38
aS'Gray'
p39
aS"'s"
p40
aS'Anatomy.28292829'
p41
asS'chunk_seq'
p42
(lp43
S'B-NP'
p44
aS'I-NP'
p45
aS'I-NP'
p46
aS'I-NP'
p47
aS'I-NP'
p48
aS'I-NP'
p49
aS'E-NP'
p50
aS'S-PP'
p51
aS'B-NP'
p52
aS'I-NP'
p53
aS'I-NP'
p54
aS'E-NP'
p55
aS'S-PP'
p56
aS'S-NP'
p57
aS'B-NP'
p58
aS'E-NP'
p59
asS'dep_seq'
p60
(lp61
(lp62
S'nn'
p63
aS'3'
aS'1'
aa(lp64
S'nn'
p65
aS'3'
aS'2'
aa(lp66
S'nn'
p67
aS'6'
aS'3'
aa(lp68
S'amod'
p69
aS'6'
aS'4'
aa(lp70
S'amod'
p71
aS'6'
aS'5'
aa(lp72
S'root'
p73
aS'0'
aS'6'
aa(lp74
S'amod'
p75
aS'6'
aS'7'
aa(lp76
S'det'
p77
aS'12'
p78
aS'9'
aa(lp79
S'amod'
p80
aS'12'
p81
aS'10'
p82
aa(lp83
S'num'
p84
aS'12'
p85
aS'11'
p86
aa(lp87
S'prep_to'
p88
aS'7'
aS'12'
p89
aa(lp90
S'poss'
p91
aS'16'
p92
aS'14'
p93
aa(lp94
S'prep_of'
p95
aS'12'
p96
aS'16'
p97
aasS'srls'
p98
(lp99
sS'pos_seq'
p100
(lp101
S'NNP'
p102
aS'NNP'
p103
aS'NNP'
p104
aS'JJ'
p105
aS'JJ'
p106
aS'NNP'
p107
aS'NNP'
p108
aS'TO'
p109
aS'DT'
p110
aS'JJ'
p111
aS'CD'
p112
aS'NN'
p113
aS'IN'
p114
aS'NNP'
p115
aS'POS'
p116
aS'NNP'
p117
asS'ner_seq'
p118
(lp119
S'O'
aS'O'
aS'O'
aS'O'
aS'O'
aS'O'
aS'O'
aS'O'
aS'O'
aS'O'
aS'O'
aS'O'
aS'O'
aS'B-MISC'
p120
aS'I-MISC'
p121
aS'E-MISC'
p122
assb.