ccopy_reg
_reconstructor
p1
(c__main__
KBproperty
p2
c__builtin__
object
p3
NtRp4
(dp5
S'comment'
p6
S'active years start date manager'
p7
sS'domain'
p8
S'Person '
p9
sS'instances_count'
p10
I0
sS'phrases'
p11
NsS'syn_hypo'
p12
S''
sS'label'
p13
g7
sS'range'
p14
S'date '
p15
sS'uniq_subjs'
p16
S'0'
sS'uniq_objs'
p17
I0
sS'prop_uri'
p18
S'http://dbpedia.org/ontology/activeYearsStartDateMgr'
p19
sS'annotations'
p20
(dp21
S'bag_of_words'
p22
(lp23
S'Person'
p24
aS'active'
p25
aS'Years'
p26
aS'Start'
p27
aS'Date'
p28
aS'Mgr'
p29
aS'date'
p30
aS'active'
p31
aS'years'
p32
aS'start'
p33
aS'date'
p34
aS'manager'
p35
asS'chunk_seq'
p36
(lp37
S'B-NP'
p38
aS'I-NP'
p39
aS'E-NP'
p40
aS'S-VP'
p41
aS'B-NP'
p42
aS'I-NP'
p43
aS'E-NP'
p44
aS'B-NP'
p45
aS'E-NP'
p46
aS'S-VP'
p47
aS'B-NP'
p48
aS'E-NP'
p49
asS'dep_seq'
p50
(lp51
(lp52
S'nn'
p53
aS'3'
aS'1'
aa(lp54
S'amod'
p55
aS'3'
aS'2'
aa(lp56
S'nsubj'
p57
aS'4'
aS'3'
aa(lp58
S'root'
p59
aS'0'
aS'4'
aa(lp60
S'dobj'
p61
aS'4'
aS'5'
aa(lp62
S'nn'
p63
aS'7'
aS'6'
aa(lp64
S'dep'
p65
aS'5'
aS'7'
aa(lp66
S'amod'
p67
aS'9'
aS'8'
aa(lp68
S'nsubj'
p69
aS'10'
p70
aS'9'
aa(lp71
S'rcmod'
p72
aS'5'
aS'10'
p73
aa(lp74
S'nn'
p75
aS'12'
p76
aS'11'
p77
aa(lp78
S'dobj'
p79
aS'10'
p80
aS'12'
p81
aasS'srls'
p82
(lp83
(dp84
S'A1'
p85
S'Person active Years Start Date Mgr date active years'
p86
sS'A2'
p87
S'date manager'
p88
sS'V'
g33
sasS'pos_seq'
p89
(lp90
S'NN'
p91
aS'JJ'
p92
aS'NNS'
p93
aS'VBP'
p94
aS'NN'
p95
aS'NNP'
p96
aS'NN'
p97
aS'JJ'
p98
aS'NNS'
p99
aS'VBP'
p100
aS'NN'
p101
aS'NN'
p102
asS'ner_seq'
p103
(lp104
S'O'
aS'O'
aS'O'
aS'O'
aS'O'
aS'O'
aS'O'
aS'O'
aS'O'
aS'O'
aS'O'
aS'O'
assb.