ccopy_reg
_reconstructor
p1
(c__main__
KBproperty
p2
c__builtin__
object
p3
NtRp4
(dp5
S'comment'
p6
S'9292'
p7
sS'domain'
p8
S'Formula One Racer '
p9
sS'instances_count'
p10
I92
sS'phrases'
p11
NsS'syn_hypo'
p12
S''
sS'label'
p13
S'last win'
p14
sS'range'
p15
S'Grand Prix '
p16
sS'uniq_subjs'
p17
S'92'
p18
sS'uniq_objs'
p19
I0
sS'prop_uri'
p20
S'http://dbpedia.org/ontology/lastWin'
p21
sS'annotations'
p22
(dp23
S'bag_of_words'
p24
(lp25
S'Formula'
p26
aS'One'
p27
aS'Racer'
p28
aS'last'
p29
aS'win'
p30
aS'Grand'
p31
aS'Prix'
p32
aS'9292'
p33
asS'chunk_seq'
p34
(lp35
S'B-NP'
p36
aS'I-NP'
p37
aS'E-NP'
p38
aS'S-ADVP'
p39
aS'S-VP'
p40
aS'B-NP'
p41
aS'E-NP'
p42
aS'O'
asS'dep_seq'
p43
(lp44
(lp45
S'dep'
p46
aS'5'
aS'1'
aa(lp47
S'num'
p48
aS'3'
aS'2'
aa(lp49
S'nsubj'
p50
aS'5'
aS'3'
aa(lp51
S'advmod'
p52
aS'5'
aS'4'
aa(lp53
S'root'
p54
aS'0'
aS'5'
aa(lp55
S'nn'
p56
aS'7'
aS'6'
aa(lp57
S'dobj'
p58
aS'5'
aS'7'
aa(lp59
S'punct'
p60
aS'7'
aS'8'
aasS'srls'
p61
(lp62
(dp63
S'A1'
p64
S'Grand Prix 9292'
p65
sS'A0'
p66
S'Formula One Racer'
p67
sS'AM-TMP'
p68
g29
sS'V'
g30
sasS'pos_seq'
p69
(lp70
S'NN'
p71
aS'CD'
p72
aS'NNP'
p73
aS'JJ'
p74
aS'VBP'
p75
aS'NNP'
p76
aS'NNP'
p77
aS'.'
asS'ner_seq'
p78
(lp79
S'O'
aS'O'
aS'S-ORG'
p80
aS'O'
aS'O'
aS'B-MISC'
p81
aS'E-MISC'
p82
aS'O'
assb.