ccopy_reg
_reconstructor
p1
(c__main__
KBproperty
p2
c__builtin__
object
p3
NtRp4
(dp5
S'comment'
p6
S'779779'
p7
sS'domain'
p8
S'Mythological Figure '
p9
sS'instances_count'
p10
I1
sS'phrases'
p11
NsS'syn_hypo'
p12
Vclassical_mythologymythologyNorse_mythology
p13
sS'label'
p14
S'mythology'
p15
sS'range'
p16
S''
sS'uniq_subjs'
p17
S'1'
sS'uniq_objs'
p18
I0
sS'prop_uri'
p19
S'http://dbpedia.org/ontology/mythology'
p20
sS'annotations'
p21
(dp22
S'bag_of_words'
p23
(lp24
S'Mythological'
p25
aS'Figure'
p26
aS'mythology'
p27
aS'779779'
p28
asS'chunk_seq'
p29
(lp30
S'B-NP'
p31
aS'I-NP'
p32
aS'E-NP'
p33
aS'S-ADJP'
p34
asS'dep_seq'
p35
(lp36
(lp37
S'amod'
p38
aS'3'
aS'1'
aa(lp39
S'nn'
p40
aS'3'
aS'2'
aa(lp41
S'root'
p42
aS'0'
aS'3'
aa(lp43
S'punct'
p44
aS'3'
aS'4'
aasS'srls'
p45
(lp46
(dp47
S'A0'
p48
S'Mythological Figure 779779'
p49
sS'V'
g27
sasS'pos_seq'
p50
(lp51
S'JJ'
p52
aS'NN'
p53
aS'NN'
p54
aS'.'
asS'ner_seq'
p55
(lp56
S'O'
aS'O'
aS'O'
aS'O'
assb.