ccopy_reg
_reconstructor
p1
(c__main__
KBproperty
p2
c__builtin__
object
p3
NtRp4
(dp5
S'comment'
p6
S'City the thing is located.2636120341'
p7
sS'domain'
p8
S'Organisation '
p9
sS'instances_count'
p10
I6537
sS'phrases'
p11
NsS'syn_hypo'
p12
S''
sS'label'
p13
S'location city'
p14
sS'range'
p15
S'City '
p16
sS'uniq_subjs'
p17
S'6537'
p18
sS'uniq_objs'
p19
I0
sS'prop_uri'
p20
S'http://dbpedia.org/ontology/locationCity'
p21
sS'annotations'
p22
(dp23
S'bag_of_words'
p24
(lp25
S'Organisation'
p26
aS'location'
p27
aS'city'
p28
aS'City'
p29
aS'City'
p30
aS'the'
p31
aS'thing'
p32
aS'is'
p33
aS'located.2636120341'
p34
asS'chunk_seq'
p35
(lp36
S'B-NP'
p37
aS'I-NP'
p38
aS'I-NP'
p39
aS'I-NP'
p40
aS'E-NP'
p41
aS'B-NP'
p42
aS'E-NP'
p43
aS'S-VP'
p44
aS'S-ADJP'
p45
asS'dep_seq'
p46
(lp47
(lp48
S'nn'
p49
aS'5'
aS'1'
aa(lp50
S'nn'
p51
aS'5'
aS'2'
aa(lp52
S'nn'
p53
aS'5'
aS'3'
aa(lp54
S'nn'
p55
aS'5'
aS'4'
aa(lp56
S'root'
p57
aS'0'
aS'5'
aa(lp58
S'det'
p59
aS'7'
aS'6'
aa(lp60
S'nsubj'
p61
aS'9'
aS'7'
aa(lp62
S'cop'
p63
aS'9'
aS'8'
aa(lp64
S'rcmod'
p65
aS'5'
aS'9'
aasS'srls'
p66
(lp67
sS'pos_seq'
p68
(lp69
S'NN'
p70
aS'NN'
p71
aS'NN'
p72
aS'NNP'
p73
aS'NNP'
p74
aS'DT'
p75
aS'NN'
p76
aS'VBZ'
p77
aS'.'
asS'ner_seq'
p78
(lp79
S'O'
aS'O'
aS'O'
aS'B-LOC'
p80
aS'E-LOC'
p81
aS'O'
aS'O'
aS'O'
aS'O'
assb.