ccopy_reg
_reconstructor
p1
(c__main__
KBproperty
p2
c__builtin__
object
p3
NtRp4
(dp5
S'comment'
p6
S'where the person was born1131397661582'
p7
sS'domain'
p8
S'Person '
p9
sS'instances_count'
p10
I92686
sS'phrases'
p11
(lp12
S' where;born'
p13
aS' place of birth'
p14
aS' born in'
p15
aS' born at \n'
p16
asS'syn_hypo'
p17
S''
sS'label'
p18
S'birth place'
p19
sS'range'
p20
S'Place '
p21
sS'uniq_subjs'
p22
S'92686'
p23
sS'uniq_objs'
p24
I0
sS'prop_uri'
p25
S'http://dbpedia.org/ontology/birthPlace'
p26
sS'annotations'
p27
(dp28
S'bag_of_words'
p29
(lp30
S'Person'
p31
aS'birth'
p32
aS'place'
p33
aS'Place'
p34
aS'where'
p35
aS'the'
p36
aS'person'
p37
aS'was'
p38
aS'born1131397661582'
p39
asS'chunk_seq'
p40
(lp41
S'B-NP'
p42
aS'I-NP'
p43
aS'I-NP'
p44
aS'E-NP'
p45
aS'S-ADVP'
p46
aS'B-NP'
p47
aS'E-NP'
p48
aS'S-VP'
p49
aS'S-ADJP'
p50
asS'dep_seq'
p51
(lp52
(lp53
S'nn'
p54
aS'4'
aS'1'
aa(lp55
S'nn'
p56
aS'4'
aS'2'
aa(lp57
S'nn'
p58
aS'4'
aS'3'
aa(lp59
S'root'
p60
aS'0'
aS'4'
aa(lp61
S'advmod'
p62
aS'9'
aS'5'
aa(lp63
S'det'
p64
aS'7'
aS'6'
aa(lp65
S'nsubj'
p66
aS'9'
aS'7'
aa(lp67
S'cop'
p68
aS'9'
aS'8'
aa(lp69
S'rcmod'
p70
aS'4'
aS'9'
aasS'srls'
p71
(lp72
sS'pos_seq'
p73
(lp74
S'NN'
p75
aS'NN'
p76
aS'NN'
p77
aS'NN'
p78
aS'WRB'
p79
aS'DT'
p80
aS'NN'
p81
aS'VBD'
p82
aS'JJ'
p83
asS'ner_seq'
p84
(lp85
S'O'
aS'O'
aS'O'
aS'O'
aS'O'
aS'O'
aS'O'
aS'O'
aS'O'
assb.