ccopy_reg
_reconstructor
p1
(c__main__
KBproperty
p2
c__builtin__
object
p3
NtRp4
(dp5
S'comment'
p6
S'International Movie Database ID. Applies to Films Actors etc7087668712'
p7
sS'domain'
p8
S''
sS'instances_count'
p9
I70876
sS'phrases'
p10
NsS'syn_hypo'
p11
S''
sS'label'
p12
S'IMDB id'
p13
sS'range'
p14
S'string '
p15
sS'uniq_subjs'
p16
S'68789'
p17
sS'uniq_objs'
p18
I0
sS'prop_uri'
p19
S'http://dbpedia.org/ontology/imdbId'
p20
sS'annotations'
p21
(dp22
S'bag_of_words'
p23
(lp24
S'IMDB'
p25
aS'id'
p26
aS'string'
p27
aS'International'
p28
aS'Movie'
p29
aS'Database'
p30
aS'ID.'
p31
aS'Applies'
p32
aS'to'
p33
aS'Films'
p34
aS'Actors'
p35
aS'etc7087668712'
p36
asS'chunk_seq'
p37
(lp38
S'B-NP'
p39
aS'I-NP'
p40
aS'I-NP'
p41
aS'I-NP'
p42
aS'I-NP'
p43
aS'I-NP'
p44
aS'E-NP'
p45
aS'S-VP'
p46
aS'S-PP'
p47
aS'B-NP'
p48
aS'E-NP'
p49
aS'O'
asS'dep_seq'
p50
(lp51
(lp52
S'nn'
p53
aS'7'
aS'1'
aa(lp54
S'nn'
p55
aS'7'
aS'2'
aa(lp56
S'nn'
p57
aS'7'
aS'3'
aa(lp58
S'nn'
p59
aS'7'
aS'4'
aa(lp60
S'nn'
p61
aS'7'
aS'5'
aa(lp62
S'nn'
p63
aS'7'
aS'6'
aa(lp64
S'nsubj'
p65
aS'8'
aS'7'
aa(lp66
S'root'
p67
aS'0'
aS'8'
aa(lp68
S'nn'
p69
aS'11'
p70
aS'10'
p71
aa(lp72
S'prep_to'
p73
aS'8'
aS'11'
p74
aa(lp75
S'punct'
p76
aS'11'
p77
aS'12'
p78
aasS'srls'
p79
(lp80
(dp81
S'A1'
p82
S'IMDB id string International Movie Database ID.'
p83
sS'A2'
p84
S'to Films Actors etc7087668712'
p85
sS'V'
g32
sasS'pos_seq'
p86
(lp87
S'NNP'
p88
aS'NN'
p89
aS'NN'
p90
aS'NNP'
p91
aS'NNP'
p92
aS'NNP'
p93
aS'NNP'
p94
aS'VBZ'
p95
aS'TO'
p96
aS'NNPS'
p97
aS'NNPS'
p98
aS'.'
asS'ner_seq'
p99
(lp100
S'O'
aS'O'
aS'O'
aS'O'
aS'O'
aS'O'
aS'O'
aS'O'
aS'O'
aS'B-MISC'
p101
aS'E-MISC'
p102
aS'O'
assb.