ccopy_reg
_reconstructor
p1
(c__main__
KBproperty
p2
c__builtin__
object
p3
NtRp4
(dp5
S'comment'
p6
S'Date of reopening the architectural structure.2222'
p7
sS'domain'
p8
S'Architectural Structure '
p9
sS'instances_count'
p10
I22
sS'phrases'
p11
NsS'syn_hypo'
p12
S''
sS'label'
p13
S'reopening date'
p14
sS'range'
p15
S'date '
p16
sS'uniq_subjs'
p17
S'22'
p18
sS'uniq_objs'
p19
I0
sS'prop_uri'
p20
S'http://dbpedia.org/ontology/reopeningDate'
p21
sS'annotations'
p22
(dp23
S'bag_of_words'
p24
(lp25
S'Architectural'
p26
aS'Structure'
p27
aS'reopening'
p28
aS'date'
p29
aS'date'
p30
aS'Date'
p31
aS'of'
p32
aS'reopening'
p33
aS'the'
p34
aS'architectural'
p35
aS'structure.2222'
p36
asS'chunk_seq'
p37
(lp38
S'B-NP'
p39
aS'E-NP'
p40
aS'S-VP'
p41
aS'B-NP'
p42
aS'I-NP'
p43
aS'E-NP'
p44
aS'S-PP'
p45
aS'S-VP'
p46
aS'B-NP'
p47
aS'I-NP'
p48
aS'E-NP'
p49
asS'dep_seq'
p50
(lp51
(lp52
S'amod'
p53
aS'2'
aS'1'
aa(lp54
S'root'
p55
aS'0'
aS'2'
aa(lp56
S'partmod'
p57
aS'2'
aS'3'
aa(lp58
S'nn'
p59
aS'6'
aS'4'
aa(lp60
S'nn'
p61
aS'6'
aS'5'
aa(lp62
S'dobj'
p63
aS'3'
aS'6'
aa(lp64
S'prepc_of'
p65
aS'2'
aS'8'
aa(lp66
S'det'
p67
aS'11'
p68
aS'9'
aa(lp69
S'amod'
p70
aS'11'
p71
aS'10'
p72
aa(lp73
S'dobj'
p74
aS'8'
aS'11'
p75
aasS'srls'
p76
(lp77
(dp78
S'A0'
p79
S'Architectural Structure'
p80
sS'AM-TMP'
p81
S'date date Date of reopening the architectural structure.2222'
p82
sS'V'
g28
sa(dp83
S'A1'
p84
S'the architectural structure.2222'
p85
sS'A0'
p86
S'Architectural Structure'
p87
sS'V'
g33
sasS'pos_seq'
p88
(lp89
S'JJ'
p90
aS'NN'
p91
aS'VBG'
p92
aS'NN'
p93
aS'NN'
p94
aS'NN'
p95
aS'IN'
p96
aS'VBG'
p97
aS'DT'
p98
aS'JJ'
p99
aS'NN'
p100
asS'ner_seq'
p101
(lp102
S'O'
aS'O'
aS'O'
aS'O'
aS'O'
aS'O'
aS'O'
aS'O'
aS'O'
aS'O'
aS'O'
assb.