ccopy_reg
_reconstructor
p1
(c__main__
KBproperty
p2
c__builtin__
object
p3
NtRp4
(dp5
S'comment'
p6
S'magenta coordinate in the CMYK space'
p7
sS'domain'
p8
S'Colour '
p9
sS'instances_count'
p10
I100
sS'phrases'
p11
NsS'syn_hypo'
p12
S''
sS'label'
p13
g7
sS'range'
p14
S'integer '
p15
sS'uniq_subjs'
p16
S'100'
p17
sS'uniq_objs'
p18
I0
sS'prop_uri'
p19
S'http://dbpedia.org/ontology/cmykCoordinateMagenta'
p20
sS'annotations'
p21
(dp22
S'bag_of_words'
p23
(lp24
S'Colour'
p25
aS'cmyk'
p26
aS'Coordinate'
p27
aS'Magenta'
p28
aS'integer'
p29
aS'magenta'
p30
aS'coordinate'
p31
aS'in'
p32
aS'the'
p33
aS'CMYK'
p34
aS'space'
p35
asS'chunk_seq'
p36
(lp37
S'B-NP'
p38
aS'I-NP'
p39
aS'I-NP'
p40
aS'I-NP'
p41
aS'I-NP'
p42
aS'E-NP'
p43
aS'S-VP'
p44
aS'S-PP'
p45
aS'B-NP'
p46
aS'I-NP'
p47
aS'E-NP'
p48
asS'dep_seq'
p49
(lp50
(lp51
S'nn'
p52
aS'6'
aS'1'
aa(lp53
S'nn'
p54
aS'6'
aS'2'
aa(lp55
S'nn'
p56
aS'6'
aS'3'
aa(lp57
S'nn'
p58
aS'6'
aS'4'
aa(lp59
S'nn'
p60
aS'6'
aS'5'
aa(lp61
S'nsubj'
p62
aS'7'
aS'6'
aa(lp63
S'root'
p64
aS'0'
aS'7'
aa(lp65
S'det'
p66
aS'11'
p67
aS'9'
aa(lp68
S'nn'
p69
aS'11'
p70
aS'10'
p71
aa(lp72
S'prep_in'
p73
aS'7'
aS'11'
p74
aasS'srls'
p75
(lp76
(dp77
S'A0'
p78
S'Colour cmyk Coordinate Magenta integer magenta'
p79
sS'AM-LOC'
p80
S'in the CMYK space'
p81
sS'V'
g31
sasS'pos_seq'
p82
(lp83
S'NN'
p84
aS'NN'
p85
aS'NNP'
p86
aS'NNP'
p87
aS'NN'
p88
aS'NN'
p89
aS'VB'
p90
aS'IN'
p91
aS'DT'
p92
aS'NN'
p93
aS'NN'
p94
asS'ner_seq'
p95
(lp96
S'O'
aS'O'
aS'B-MISC'
p97
aS'E-MISC'
p98
aS'O'
aS'O'
aS'O'
aS'O'
aS'O'
aS'O'
aS'O'
assb.