ccopy_reg
_reconstructor
p1
(c__main__
KBproperty
p2
c__builtin__
object
p3
NtRp4
(dp5
S'comment'
p6
S'grinding capability for Mills00'
p7
sS'domain'
p8
S'Mill '
p9
sS'instances_count'
p10
I0
sS'phrases'
p11
NsS'syn_hypo'
p12
S''
sS'label'
p13
S'grinding capability'
p14
sS'range'
p15
S'string '
p16
sS'uniq_subjs'
p17
S'0'
sS'uniq_objs'
p18
I0
sS'prop_uri'
p19
S'http://dbpedia.org/ontology/grindingCapability'
p20
sS'annotations'
p21
(dp22
S'bag_of_words'
p23
(lp24
S'Mill'
p25
aS'grinding'
p26
aS'capability'
p27
aS'string'
p28
aS'grinding'
p29
aS'capability'
p30
aS'for'
p31
aS'Mills00'
p32
asS'chunk_seq'
p33
(lp34
S'B-NP'
p35
aS'I-NP'
p36
aS'I-NP'
p37
aS'I-NP'
p38
aS'I-NP'
p39
aS'E-NP'
p40
aS'S-PP'
p41
aS'S-NP'
p42
asS'dep_seq'
p43
(lp44
(lp45
S'nn'
p46
aS'6'
aS'1'
aa(lp47
S'amod'
p48
aS'6'
aS'2'
aa(lp49
S'nn'
p50
aS'6'
aS'3'
aa(lp51
S'nn'
p52
aS'6'
aS'4'
aa(lp53
S'amod'
p54
aS'6'
aS'5'
aa(lp55
S'root'
p56
aS'0'
aS'6'
aa(lp57
S'prep_for'
p58
aS'6'
aS'8'
aasS'srls'
p59
(lp60
(dp61
S'A1'
p62
S'capability string grinding capability for Mills00'
p63
sS'A0'
p64
g25
sS'V'
g26
sa(dp65
S'A1'
p66
g30
sS'V'
g29
sasS'pos_seq'
p67
(lp68
S'NN'
p69
aS'VBG'
p70
aS'NN'
p71
aS'NN'
p72
aS'VBG'
p73
aS'NN'
p74
aS'IN'
p75
aS'NNP'
p76
asS'ner_seq'
p77
(lp78
S'O'
aS'O'
aS'O'
aS'O'
aS'O'
aS'O'
aS'O'
aS'S-ORG'
p79
assb.