ccopy_reg
_reconstructor
p1
(c__main__
KBproperty
p2
c__builtin__
object
p3
NtRp4
(dp5
S'comment'
p6
S'date of approval by lower parliament'
p7
sS'domain'
p8
S'Law '
p9
sS'instances_count'
p10
I0
sS'phrases'
p11
NsS'syn_hypo'
p12
S''
sS'label'
p13
g7
sS'range'
p14
S'date '
p15
sS'uniq_subjs'
p16
S'0'
sS'uniq_objs'
p17
I0
sS'prop_uri'
p18
S'http://dbpedia.org/ontology/approvedByLowerParliament'
p19
sS'annotations'
p20
(dp21
S'bag_of_words'
p22
(lp23
S'Law'
p24
aS'approved'
p25
aS'By'
p26
aS'Lower'
p27
aS'Parliament'
p28
aS'date'
p29
aS'date'
p30
aS'of'
p31
aS'approval'
p32
aS'by'
p33
aS'lower'
p34
aS'parliament'
p35
asS'chunk_seq'
p36
(lp37
S'S-NP'
p38
aS'S-VP'
p39
aS'S-PP'
p40
aS'B-NP'
p41
aS'I-NP'
p42
aS'I-NP'
p43
aS'E-NP'
p44
aS'S-PP'
p45
aS'S-NP'
p46
aS'S-PP'
p47
aS'B-NP'
p48
aS'E-NP'
p49
asS'dep_seq'
p50
(lp51
(lp52
S'root'
p53
aS'0'
aS'1'
aa(lp54
S'partmod'
p55
aS'1'
aS'2'
aa(lp56
S'nn'
p57
aS'7'
aS'4'
aa(lp58
S'nn'
p59
aS'7'
aS'5'
aa(lp60
S'nn'
p61
aS'7'
aS'6'
aa(lp62
S'agent'
p63
aS'2'
aS'7'
aa(lp64
S'prep_of'
p65
aS'7'
aS'9'
aa(lp66
S'amod'
p67
aS'12'
p68
aS'11'
p69
aa(lp70
S'prep_by'
p71
aS'9'
aS'12'
p72
aasS'srls'
p73
(lp74
(dp75
S'A1'
p76
g24
sS'A0'
p77
S'By Lower Parliament'
p78
sS'AM-TMP'
p79
S'date date of approval by lower parliament'
p80
sS'V'
g25
sasS'pos_seq'
p81
(lp82
S'NN'
p83
aS'VBN'
p84
aS'IN'
p85
aS'NNP'
p86
aS'NNP'
p87
aS'NN'
p88
aS'NN'
p89
aS'IN'
p90
aS'NN'
p91
aS'IN'
p92
aS'JJR'
p93
aS'NN'
p94
asS'ner_seq'
p95
(lp96
S'O'
aS'O'
aS'O'
aS'B-MISC'
p97
aS'E-MISC'
p98
aS'O'
aS'O'
aS'O'
aS'O'
aS'O'
aS'O'
aS'O'
assb.