ccopy_reg
_reconstructor
p1
(c__main__
KBproperty
p2
c__builtin__
object
p3
NtRp4
(dp5
S'comment'
p6
S'the ratio of the average mass of atoms of an element from a single given sample or source to 1\\xe2\\x81\\x8412 of the mass of an atom of carbon-1200'
p7
sS'domain'
p8
S'Chemical Element '
p9
sS'instances_count'
p10
I0
sS'phrases'
p11
NsS'syn_hypo'
p12
S''
sS'label'
p13
S'atomic number'
p14
sS'range'
p15
S'non Negative Integer '
p16
sS'uniq_subjs'
p17
S'0'
sS'uniq_objs'
p18
I0
sS'prop_uri'
p19
S'http://dbpedia.org/ontology/atomicNumber'
p20
sS'annotations'
p21
(dp22
S'bag_of_words'
p23
(lp24
S'Chemical'
p25
aS'Element'
p26
aS'atomic'
p27
aS'number'
p28
aS'non'
p29
aS'Negative'
p30
aS'Integer'
p31
aS'the'
p32
aS'ratio'
p33
aS'of'
p34
aS'the'
p35
aS'average'
p36
aS'mass'
p37
aS'of'
p38
aS'atoms'
p39
aS'of'
p40
aS'an'
p41
aS'element'
p42
aS'from'
p43
aS'a'
aS'single'
p44
aS'given'
p45
aS'sample'
p46
aS'or'
p47
aS'source'
p48
aS'to'
p49
aS'1'
aS'\\'
aS'xe2'
p50
aS'\\'
aS'x81'
p51
aS'\\'
aS'x8412'
p52
aS'of'
p53
aS'the'
p54
aS'mass'
p55
aS'of'
p56
aS'an'
p57
aS'atom'
p58
aS'of'
p59
aS'carbon-1200'
p60
asS'chunk_seq'
p61
(lp62
S'B-NP'
p63
aS'I-NP'
p64
aS'I-NP'
p65
aS'I-NP'
p66
aS'I-NP'
p67
aS'I-NP'
p68
aS'E-NP'
p69
aS'B-NP'
p70
aS'E-NP'
p71
aS'S-PP'
p72
aS'B-NP'
p73
aS'I-NP'
p74
aS'E-NP'
p75
aS'S-PP'
p76
aS'S-NP'
p77
aS'S-PP'
p78
aS'B-NP'
p79
aS'E-NP'
p80
aS'S-PP'
p81
aS'B-NP'
p82
aS'I-NP'
p83
aS'I-NP'
p84
aS'I-NP'
p85
aS'I-NP'
p86
aS'E-NP'
p87
aS'S-PP'
p88
aS'S-NP'
p89
aS'O'
aS'O'
aS'O'
aS'O'
aS'O'
aS'O'
aS'S-PP'
p90
aS'B-NP'
p91
aS'E-NP'
p92
aS'S-PP'
p93
aS'B-NP'
p94
aS'E-NP'
p95
aS'S-PP'
p96
aS'S-NP'
p97
asS'dep_seq'
p98
(lp99
(lp100
S'nn'
p101
aS'4'
aS'1'
aa(lp102
S'nn'
p103
aS'4'
aS'2'
aa(lp104
S'amod'
p105
aS'4'
aS'3'
aa(lp106
S'root'
p107
aS'0'
aS'4'
aa(lp108
S'amod'
p109
aS'7'
aS'5'
aa(lp110
S'nn'
p111
aS'7'
aS'6'
aa(lp112
S'dep'
p113
aS'4'
aS'7'
aa(lp114
S'det'
p115
aS'9'
aS'8'
aa(lp116
S'dep'
p117
aS'7'
aS'9'
aa(lp118
S'det'
p119
aS'13'
p120
aS'11'
p121
aa(lp122
S'amod'
p123
aS'13'
p124
aS'12'
p125
aa(lp126
S'prep_of'
p127
aS'9'
aS'13'
p128
aa(lp129
S'prep_of'
p130
aS'13'
p131
aS'15'
p132
aa(lp133
S'det'
p134
aS'18'
p135
aS'17'
p136
aa(lp137
S'prep_of'
p138
aS'15'
p139
aS'18'
p140
aa(lp141
S'det'
p142
aS'23'
p143
aS'20'
p144
aa(lp145
S'amod'
p146
aS'23'
p147
aS'21'
p148
aa(lp149
S'amod'
p150
aS'23'
p151
aS'22'
p152
aa(lp153
S'prep_from'
p154
aS'18'
p155
aS'23'
p156
aa(lp157
S'conj_or'
p158
aS'23'
p159
aS'25'
p160
aa(lp161
S'num'
p162
aS'33'
p163
aS'27'
p164
aa(lp165
S'nn'
p166
aS'33'
p167
aS'28'
p168
aa(lp169
S'nn'
p170
aS'33'
p171
aS'29'
p172
aa(lp173
S'nn'
p174
aS'33'
p175
aS'30'
p176
aa(lp177
S'nn'
p178
aS'33'
p179
aS'31'
p180
aa(lp181
S'nn'
p182
aS'33'
p183
aS'32'
p184
aa(lp185
S'prep_to'
p186
aS'18'
p187
aS'33'
p188
aa(lp189
S'det'
p190
aS'36'
p191
aS'35'
p192
aa(lp193
S'prep_of'
p194
aS'33'
p195
aS'36'
p196
aa(lp197
S'det'
p198
aS'39'
p199
aS'38'
p200
aa(lp201
S'prep_of'
p202
aS'36'
p203
aS'39'
p204
aa(lp205
S'prep_of'
p206
aS'39'
p207
aS'1200'
p208
aasS'srls'
p209
(lp210
(dp211
S'A1'
p212
S'sample or source  1 \\ xe2 \\ x81 \\ x8412 of the mass of an atom of carbon-1200'
p213
sS'AM-EXT'
p214
g44
sS'V'
g45
sasS'pos_seq'
p215
(lp216
S'NNP'
p217
aS'NN'
p218
aS'JJ'
p219
aS'NN'
p220
aS'JJ'
p221
aS'NNP'
p222
aS'NNP'
p223
aS'DT'
p224
aS'NN'
p225
aS'IN'
p226
aS'DT'
p227
aS'JJ'
p228
aS'NN'
p229
aS'IN'
p230
aS'NNS'
p231
aS'IN'
p232
aS'DT'
p233
aS'NN'
p234
aS'IN'
p235
aS'DT'
p236
aS'JJ'
p237
aS'VBN'
p238
aS'NN'
p239
aS'CC'
p240
aS'NN'
p241
aS'TO'
p242
aS'CD'
p243
aS'FW'
p244
aS'FW'
p245
aS'FW'
p246
aS'FW'
p247
aS'FW'
p248
aS'NN'
p249
aS'IN'
p250
aS'DT'
p251
aS'NN'
p252
aS'IN'
p253
aS'DT'
p254
aS'NN'
p255
aS'IN'
p256
aS'NN'
p257
asS'ner_seq'
p258
(lp259
S'O'
aS'O'
aS'O'
aS'O'
aS'O'
aS'O'
aS'O'
aS'O'
aS'O'
aS'O'
aS'O'
aS'O'
aS'O'
aS'O'
aS'O'
aS'O'
aS'O'
aS'O'
aS'O'
aS'O'
aS'O'
aS'O'
aS'O'
aS'O'
aS'O'
aS'O'
aS'O'
aS'O'
aS'O'
aS'O'
aS'O'
aS'O'
aS'O'
aS'O'
aS'O'
aS'O'
aS'O'
aS'O'
aS'O'
aS'O'
aS'O'
assb.