ccopy_reg
_reconstructor
p1
(c__main__
KBproperty
p2
c__builtin__
object
p3
NtRp4
(dp5
S'comment'
p6
S'A organisation financing the research project.97'
p7
sS'domain'
p8
S'Research Project '
p9
sS'instances_count'
p10
I3
sS'phrases'
p11
NsS'syn_hypo'
p12
S''
sS'label'
p13
S'funded by'
p14
sS'range'
p15
S'Organisation '
p16
sS'uniq_subjs'
p17
S'3'
sS'uniq_objs'
p18
I0
sS'prop_uri'
p19
S'http://dbpedia.org/ontology/fundedBy'
p20
sS'annotations'
p21
(dp22
S'bag_of_words'
p23
(lp24
S'Research'
p25
aS'Project'
p26
aS'funded'
p27
aS'by'
p28
aS'Organisation'
p29
aS'A'
aS'organisation'
p30
aS'financing'
p31
aS'the'
p32
aS'research'
p33
aS'project.97'
p34
asS'chunk_seq'
p35
(lp36
S'B-NP'
p37
aS'E-NP'
p38
aS'S-VP'
p39
aS'S-PP'
p40
aS'B-NP'
p41
aS'I-NP'
p42
aS'E-NP'
p43
aS'S-VP'
p44
aS'B-NP'
p45
aS'I-NP'
p46
aS'E-NP'
p47
asS'dep_seq'
p48
(lp49
(lp50
S'nn'
p51
aS'2'
aS'1'
aa(lp52
S'root'
p53
aS'0'
aS'2'
aa(lp54
S'partmod'
p55
aS'2'
aS'3'
aa(lp56
S'nn'
p57
aS'7'
aS'5'
aa(lp58
S'nn'
p59
aS'7'
aS'6'
aa(lp60
S'agent'
p61
aS'3'
aS'7'
aa(lp62
S'dep'
p63
aS'3'
aS'8'
aa(lp64
S'det'
p65
aS'11'
p66
aS'9'
aa(lp67
S'nn'
p68
aS'11'
p69
aS'10'
p70
aa(lp71
S'dobj'
p72
aS'8'
aS'11'
p73
aasS'srls'
p74
(lp75
(dp76
S'A1'
p77
S'Research Project'
p78
sS'A0'
p79
S'by Organisation A organisation'
p80
sS'V'
g27
sa(dp81
S'A1'
p82
S'the research project.97'
p83
sS'A0'
p84
S'Research Project funded by Organisation A organisation'
p85
sS'V'
g31
sasS'pos_seq'
p86
(lp87
S'NNP'
p88
aS'NNP'
p89
aS'VBN'
p90
aS'IN'
p91
aS'NNP'
p92
aS'NNP'
p93
aS'NN'
p94
aS'VBG'
p95
aS'DT'
p96
aS'NN'
p97
aS'NN'
p98
asS'ner_seq'
p99
(lp100
S'O'
aS'O'
aS'O'
aS'O'
aS'S-ORG'
p101
aS'O'
aS'O'
aS'O'
aS'O'
aS'O'
aS'O'
assb.