ccopy_reg
_reconstructor
p1
(c__main__
KBproperty
p2
c__builtin__
object
p3
NtRp4
(dp5
S'comment'
p6
S'00'
p7
sS'domain'
p8
S'Soccer League Season '
p9
sS'instances_count'
p10
I0
sS'phrases'
p11
NsS'syn_hypo'
p12
S''
sS'label'
p13
S'relegated teams'
p14
sS'range'
p15
S'Sports Team '
p16
sS'uniq_subjs'
p17
S'0'
sS'uniq_objs'
p18
I0
sS'prop_uri'
p19
S'http://dbpedia.org/ontology/soccerLeagueRelegated'
p20
sS'annotations'
p21
(dp22
S'bag_of_words'
p23
(lp24
S'Soccer'
p25
aS'League'
p26
aS'Season'
p27
aS'relegated'
p28
aS'teams'
p29
aS'Sports'
p30
aS'Team'
p31
aS'00'
p32
asS'chunk_seq'
p33
(lp34
S'B-NP'
p35
aS'I-NP'
p36
aS'E-NP'
p37
aS'S-VP'
p38
aS'B-NP'
p39
aS'I-NP'
p40
aS'E-NP'
p41
aS'S-ADVP'
p42
asS'dep_seq'
p43
(lp44
(lp45
S'nn'
p46
aS'3'
aS'1'
aa(lp47
S'nn'
p48
aS'3'
aS'2'
aa(lp49
S'nsubj'
p50
aS'4'
aS'3'
aa(lp51
S'root'
p52
aS'0'
aS'4'
aa(lp53
S'nn'
p54
aS'7'
aS'5'
aa(lp55
S'nn'
p56
aS'7'
aS'6'
aa(lp57
S'dobj'
p58
aS'4'
aS'7'
aa(lp59
S'num'
p60
aS'7'
aS'8'
aasS'srls'
p61
(lp62
(dp63
S'A1'
p64
S'teams Sports Team 00'
p65
sS'A0'
p66
S'Soccer League Season'
p67
sS'V'
g28
sasS'pos_seq'
p68
(lp69
S'NNP'
p70
aS'NNP'
p71
aS'NNP'
p72
aS'VBD'
p73
aS'NNS'
p74
aS'NNP'
p75
aS'NNP'
p76
aS'CD'
p77
asS'ner_seq'
p78
(lp79
S'O'
aS'O'
aS'O'
aS'O'
aS'O'
aS'B-ORG'
p80
aS'E-ORG'
p81
aS'O'
assb.