ccopy_reg
_reconstructor
p1
(c__main__
KBproperty
p2
c__builtin__
object
p3
NtRp4
(dp5
S'comment'
p6
S'Voltage of the electrification system.894875'
p7
sS'domain'
p8
S'Route Of Transportation '
p9
sS'instances_count'
p10
I35
sS'phrases'
p11
NsS'syn_hypo'
p12
S''
sS'label'
p13
S'voltage of electrification V'
p14
sS'range'
p15
S'double '
p16
sS'uniq_subjs'
p17
S'35'
p18
sS'uniq_objs'
p19
I0
sS'prop_uri'
p20
S'http://dbpedia.org/ontology/voltageOfElectrification'
p21
sS'annotations'
p22
(dp23
S'bag_of_words'
p24
(lp25
S'Route'
p26
aS'Of'
p27
aS'Transportation'
p28
aS'voltage'
p29
aS'of'
p30
aS'electrification'
p31
aS'V'
aS'double'
p32
aS'Voltage'
p33
aS'of'
p34
aS'the'
p35
aS'electrification'
p36
aS'system.894875'
p37
asS'chunk_seq'
p38
(lp39
S'S-NP'
p40
aS'S-PP'
p41
aS'B-NP'
p42
aS'E-NP'
p43
aS'S-PP'
p44
aS'B-NP'
p45
aS'I-NP'
p46
aS'I-NP'
p47
aS'E-NP'
p48
aS'S-PP'
p49
aS'B-NP'
p50
aS'E-NP'
p51
aS'S-ADJP'
p52
asS'dep_seq'
p53
(lp54
(lp55
S'dep'
p56
aS'9'
aS'1'
aa(lp57
S'nn'
p58
aS'4'
aS'3'
aa(lp59
S'prep_of'
p60
aS'9'
aS'4'
aa(lp61
S'prep_of'
p62
aS'4'
aS'6'
aa(lp63
S'nn'
p64
aS'9'
aS'7'
aa(lp65
S'amod'
p66
aS'9'
aS'8'
aa(lp67
S'root'
p68
aS'0'
aS'9'
aa(lp69
S'det'
p70
aS'12'
p71
aS'11'
p72
aa(lp73
S'prep_of'
p74
aS'9'
aS'12'
p75
aa(lp76
S'advmod'
p77
aS'9'
aS'13'
p78
aasS'srls'
p79
(lp80
sS'pos_seq'
p81
(lp82
S'NNP'
p83
aS'IN'
p84
aS'NNP'
p85
aS'NN'
p86
aS'IN'
p87
aS'NN'
p88
aS'NNP'
p89
aS'JJ'
p90
aS'NN'
p91
aS'IN'
p92
aS'DT'
p93
aS'NN'
p94
aS'.'
asS'ner_seq'
p95
(lp96
S'B-ORG'
p97
aS'I-ORG'
p98
aS'E-ORG'
p99
aS'O'
aS'O'
aS'O'
aS'O'
aS'O'
aS'O'
aS'O'
aS'O'
aS'O'
aS'O'
assb.