ccopy_reg
_reconstructor
p1
(c__main__
KBproperty
p2
c__builtin__
object
p3
NtRp4
(dp5
S'comment'
p6
S'connects a referenced resource to another resource. This property is important to connect non-extracted resources to extracted ones00'
p7
sS'domain'
p8
S'Reference '
p9
sS'instances_count'
p10
I0
sS'phrases'
p11
NsS'syn_hypo'
p12
S''
sS'label'
p13
S'connects referenced to'
p14
sS'range'
p15
S''
sS'uniq_subjs'
p16
S'0'
sS'uniq_objs'
p17
I0
sS'prop_uri'
p18
S'http://dbpedia.org/ontology/connectsReferencedTo'
p19
sS'annotations'
p20
(dp21
S'bag_of_words'
p22
(lp23
S'Reference'
p24
aS'connects'
p25
aS'referenced'
p26
aS'to'
p27
aS'connects'
p28
aS'a'
aS'referenced'
p29
aS'resource'
p30
aS'to'
p31
aS'another'
p32
aS'resource'
p33
aS'.'
aS'This'
p34
aS'property'
p35
aS'is'
p36
aS'important'
p37
aS'to'
p38
aS'connect'
p39
aS'non-'
p40
aS'extracted'
p41
aS'resources'
p42
aS'to'
p43
aS'extracted'
p44
aS'ones00'
p45
asS'chunk_seq'
p46
(lp47
S'S-NP'
p48
aS'S-VP'
p49
aS'S-VP'
p50
aS'B-VP'
p51
aS'E-VP'
p52
aS'B-NP'
p53
aS'I-NP'
p54
aS'E-NP'
p55
aS'S-PP'
p56
aS'B-NP'
p57
aS'E-NP'
p58
aS'O'
aS'B-NP'
p59
aS'E-NP'
p60
aS'S-VP'
p61
aS'S-ADJP'
p62
aS'B-VP'
p63
aS'E-VP'
p64
aS'B-NP'
p65
aS'I-NP'
p66
aS'E-NP'
p67
aS'B-VP'
p68
aS'E-VP'
p69
aS'S-NP'
p70
asS'dep_seq'
p71
(lp72
(lp73
S'nsubj'
p74
aS'2'
aS'1'
aa(lp75
S'ccomp'
p76
aS'16'
p77
aS'2'
aa(lp78
S'dep'
p79
aS'2'
aS'3'
aa(lp80
S'aux'
p81
aS'5'
aS'4'
aa(lp82
S'xcomp'
p83
aS'3'
aS'5'
aa(lp84
S'det'
p85
aS'8'
aS'6'
aa(lp86
S'amod'
p87
aS'8'
aS'7'
aa(lp88
S'dobj'
p89
aS'5'
aS'8'
aa(lp90
S'det'
p91
aS'11'
p92
aS'10'
p93
aa(lp94
S'prep_to'
p95
aS'5'
aS'11'
p96
aa(lp97
S'det'
p98
aS'14'
p99
aS'13'
p100
aa(lp101
S'nsubj'
p102
aS'16'
p103
aS'14'
p104
aa(lp105
S'xsubj'
p106
aS'18'
p107
aS'14'
p108
aa(lp109
S'cop'
p110
aS'16'
p111
aS'15'
p112
aa(lp113
S'root'
p114
aS'0'
aS'16'
p115
aa(lp116
S'aux'
p117
aS'18'
p118
aS'17'
p119
aa(lp120
S'xcomp'
p121
aS'16'
p122
aS'18'
p123
aa(lp124
S'amod'
p125
aS'21'
p126
aS''
aa(lp127
S'amod'
p128
aS'21'
p129
aS'20'
p130
aa(lp131
S'dobj'
p132
aS'18'
p133
aS'21'
p134
aa(lp135
S'aux'
p136
aS'23'
p137
aS'22'
p138
aa(lp139
S'infmod'
p140
aS'21'
p141
aS'23'
p142
aa(lp143
S'dobj'
p144
aS'23'
p145
aS'24'
p146
aasS'srls'
p147
(lp148
(dp149
S'A1'
p150
S'referenced to connects a referenced resource to another resource . This property is important to connect non- extracted resources to extracted ones00'
p151
sS'V'
g25
sa(dp152
S'A1'
p153
S'a referenced resource to another resource . This property is important to connect non- extracted resources to extracted ones00'
p154
sS'V'
g28
sa(dp155
S'A1'
p156
g30
sS'V'
g29
sa(dp157
S'A1'
p158
S'non- extracted resources to extracted ones00'
p159
sS'V'
g39
sa(dp160
S'A1'
p161
g42
sS'V'
g41
sa(dp162
S'A1'
p163
S'non- extracted resources ones00'
p164
sS'V'
g44
sasS'pos_seq'
p165
(lp166
S'NN'
p167
aS'VBZ'
p168
aS'VBN'
p169
aS'TO'
p170
aS'VB'
p171
aS'DT'
p172
aS'VBN'
p173
aS'NN'
p174
aS'TO'
p175
aS'DT'
p176
aS'NN'
p177
aS'.'
aS'DT'
p178
aS'NN'
p179
aS'VBZ'
p180
aS'JJ'
p181
aS'TO'
p182
aS'VB'
p183
aS'JJ'
p184
aS'VBN'
p185
aS'NNS'
p186
aS'TO'
p187
aS'VBN'
p188
aS'NN'
p189
asS'ner_seq'
p190
(lp191
S'O'
aS'O'
aS'O'
aS'O'
aS'O'
aS'O'
aS'O'
aS'O'
aS'O'
aS'O'
aS'O'
aS'O'
aS'O'
aS'O'
aS'O'
aS'O'
aS'O'
aS'O'
aS'O'
aS'O'
aS'O'
aS'O'
aS'O'
aS'O'
assb.