ccopy_reg
_reconstructor
p1
(c__main__
KBproperty
p2
c__builtin__
object
p3
NtRp4
(dp5
S'comment'
p6
S'The current production running in the theatre.4839'
p7
sS'domain'
p8
S'Theatre '
p9
sS'instances_count'
p10
I44
sS'phrases'
p11
NsS'syn_hypo'
p12
S''
sS'label'
p13
S'current production'
p14
sS'range'
p15
S''
sS'uniq_subjs'
p16
S'44'
p17
sS'uniq_objs'
p18
I0
sS'prop_uri'
p19
S'http://dbpedia.org/ontology/currentProduction'
p20
sS'annotations'
p21
(dp22
S'bag_of_words'
p23
(lp24
S'Theatre'
p25
aS'current'
p26
aS'production'
p27
aS'The'
p28
aS'current'
p29
aS'production'
p30
aS'running'
p31
aS'in'
p32
aS'the'
p33
aS'theatre.4839'
p34
asS'chunk_seq'
p35
(lp36
S'B-NP'
p37
aS'I-NP'
p38
aS'E-NP'
p39
aS'B-NP'
p40
aS'I-NP'
p41
aS'E-NP'
p42
aS'S-VP'
p43
aS'S-PP'
p44
aS'B-NP'
p45
aS'E-NP'
p46
asS'dep_seq'
p47
(lp48
(lp49
S'nn'
p50
aS'3'
aS'1'
aa(lp51
S'amod'
p52
aS'3'
aS'2'
aa(lp53
S'dep'
p54
aS'6'
aS'3'
aa(lp55
S'det'
p56
aS'6'
aS'4'
aa(lp57
S'amod'
p58
aS'6'
aS'5'
aa(lp59
S'root'
p60
aS'0'
aS'6'
aa(lp61
S'partmod'
p62
aS'6'
aS'7'
aa(lp63
S'det'
p64
aS'10'
p65
aS'9'
aa(lp66
S'prep_in'
p67
aS'7'
aS'10'
p68
aasS'srls'
p69
(lp70
(dp71
S'A1'
p72
S'Theatre current production The current production'
p73
sS'AM-LOC'
p74
S'in the theatre.4839'
p75
sS'V'
g31
sasS'pos_seq'
p76
(lp77
S'NNP'
p78
aS'JJ'
p79
aS'NN'
p80
aS'DT'
p81
aS'JJ'
p82
aS'NN'
p83
aS'VBG'
p84
aS'IN'
p85
aS'DT'
p86
aS'NN'
p87
asS'ner_seq'
p88
(lp89
S'O'
aS'O'
aS'O'
aS'O'
aS'O'
aS'O'
aS'O'
aS'O'
aS'O'
aS'O'
assb.