ccopy_reg
_reconstructor
p1
(c__main__
KBproperty
p2
c__builtin__
object
p3
NtRp4
(dp5
S'comment'
p6
S'registered in a heritage register : inventory of cultural properties natural and man-made tangible and intangible movable and immovable that are deemed to be of sufficient heritage value to be separately identified and recorded.00'
p7
sS'domain'
p8
S'Place '
p9
sS'instances_count'
p10
I0
sS'phrases'
p11
NsS'syn_hypo'
p12
S''
sS'label'
p13
S'heritage register'
p14
sS'range'
p15
S''
sS'uniq_subjs'
p16
S'0'
sS'uniq_objs'
p17
I0
sS'prop_uri'
p18
S'http://dbpedia.org/ontology/heritageRegister'
p19
sS'annotations'
p20
(dp21
S'bag_of_words'
p22
(lp23
S'Place'
p24
aS'heritage'
p25
aS'register'
p26
aS'registered'
p27
aS'in'
p28
aS'a'
aS'heritage'
p29
aS'register'
p30
aS':'
aS'inventory'
p31
aS'of'
p32
aS'cultural'
p33
aS'properties'
p34
aS'natural'
p35
aS'and'
p36
aS'man-made'
p37
aS'tangible'
p38
aS'and'
p39
aS'intangible'
p40
aS'movable'
p41
aS'and'
p42
aS'immovable'
p43
aS'that'
p44
aS'are'
p45
aS'deemed'
p46
aS'to'
p47
aS'be'
p48
aS'of'
p49
aS'sufficient'
p50
aS'heritage'
p51
aS'value'
p52
aS'to'
p53
aS'be'
p54
aS'separately'
p55
aS'identified'
p56
aS'and'
p57
aS'recorded.00'
p58
asS'chunk_seq'
p59
(lp60
S'B-NP'
p61
aS'E-NP'
p62
aS'B-VP'
p63
aS'E-VP'
p64
aS'S-PP'
p65
aS'B-NP'
p66
aS'I-NP'
p67
aS'E-NP'
p68
aS'O'
aS'S-NP'
p69
aS'S-PP'
p70
aS'B-NP'
p71
aS'I-NP'
p72
aS'I-NP'
p73
aS'I-NP'
p74
aS'I-NP'
p75
aS'I-NP'
p76
aS'I-NP'
p77
aS'I-NP'
p78
aS'I-NP'
p79
aS'I-NP'
p80
aS'E-NP'
p81
aS'S-NP'
p82
aS'B-VP'
p83
aS'I-VP'
p84
aS'I-VP'
p85
aS'E-VP'
p86
aS'S-PP'
p87
aS'B-NP'
p88
aS'I-NP'
p89
aS'E-NP'
p90
aS'B-VP'
p91
aS'I-VP'
p92
aS'I-VP'
p93
aS'E-VP'
p94
aS'O'
aS'S-NP'
p95
asS'dep_seq'
p96
(lp97
(lp98
S'nn'
p99
aS'2'
aS'1'
aa(lp100
S'nsubj'
p101
aS'3'
aS'2'
aa(lp102
S'root'
p103
aS'0'
aS'3'
aa(lp104
S'dep'
p105
aS'3'
aS'4'
aa(lp106
S'det'
p107
aS'8'
aS'6'
aa(lp108
S'nn'
p109
aS'8'
aS'7'
aa(lp110
S'prep_in'
p111
aS'4'
aS'8'
aa(lp112
S'conj_and'
p113
aS'3'
aS'10'
p114
aa(lp115
S'amod'
p116
aS'13'
p117
aS'12'
p118
aa(lp119
S'prep_of'
p120
aS'10'
p121
aS'13'
p122
aa(lp123
S'amod'
p124
aS'13'
p125
aS'14'
p126
aa(lp127
S'conj_and'
p128
aS'14'
p129
aS'made'
p130
aa(lp131
S'amod'
p132
aS'13'
p133
aS'17'
p134
aa(lp135
S'conj_and'
p136
aS'17'
p137
aS'19'
p138
aa(lp139
S'amod'
p140
aS'13'
p141
aS'20'
p142
aa(lp143
S'conj_and'
p144
aS'20'
p145
aS'22'
p146
aa(lp147
S'dep'
p148
aS'3'
aS'23'
p149
aa(lp150
S'dep'
p151
aS'3'
aS'24'
p152
aa(lp153
S'dep'
p154
aS'3'
aS'25'
p155
aa(lp156
S'dep'
p157
aS'3'
aS'26'
p158
aa(lp159
S'dep'
p160
aS'3'
aS'27'
p161
aa(lp162
S'dep'
p163
aS'3'
aS'28'
p164
aa(lp165
S'amod'
p166
aS'31'
p167
aS'29'
p168
aa(lp169
S'nn'
p170
aS'31'
p171
aS'30'
p172
aa(lp173
S'dep'
p174
aS'3'
aS'31'
p175
aa(lp176
S'aux'
p177
aS'35'
p178
aS'32'
p179
aa(lp180
S'auxpass'
p181
aS'35'
p182
aS'33'
p183
aa(lp184
S'advmod'
p185
aS'35'
p186
aS'34'
p187
aa(lp188
S'infmod'
p189
aS'31'
p190
aS'35'
p191
aa(lp192
S'conj_and'
p193
aS'3'
aS'37'
p194
aasS'srls'
p195
(lp196
(dp197
S'A1'
p198
S'Place heritage  registered in a heritage register  inventory of cultural properties natural and man-made tangible and intangible movable and immovable that are deemed to be of sufficient heritage value to be separately identified and recorded.00'
p199
sS'V'
g26
sa(dp200
S'A1'
p201
S'Place heritage  inventory of cultural properties natural and man-made tangible and intangible movable and immovable that are deemed to be of sufficient heritage value'
p202
sS'AM-LOC'
p203
S'in a heritage register'
p204
sS'V'
g27
sa(dp205
S'A2'
p206
S'to be of sufficient heritage value'
p207
sS'R-A1'
p208
g44
sS'V'
g46
sa(dp209
S'A1'
p210
S'inventory of cultural properties natural and man-made tangible and intangible movable and immovable  sufficient heritage value'
p211
sS'R-A1'
p212
g44
sS'AM-MNR'
p213
g55
sS'V'
g56
sasS'pos_seq'
p214
(lp215
S'NN'
p216
aS'NN'
p217
aS'VBP'
p218
aS'VBN'
p219
aS'IN'
p220
aS'DT'
p221
aS'NN'
p222
aS'NN'
p223
aS':'
aS'NN'
p224
aS'IN'
p225
aS'JJ'
p226
aS'NNS'
p227
aS'JJ'
p228
aS'CC'
p229
aS'JJ'
p230
aS'JJ'
p231
aS'CC'
p232
aS'JJ'
p233
aS'JJ'
p234
aS'CC'
p235
aS'JJ'
p236
aS'WDT'
p237
aS'VBP'
p238
aS'VBN'
p239
aS'TO'
p240
aS'VB'
p241
aS'IN'
p242
aS'JJ'
p243
aS'NN'
p244
aS'NN'
p245
aS'TO'
p246
aS'VB'
p247
aS'RB'
p248
aS'VBN'
p249
aS'CC'
p250
aS'NN'
p251
asS'ner_seq'
p252
(lp253
S'O'
aS'O'
aS'O'
aS'O'
aS'O'
aS'O'
aS'O'
aS'O'
aS'O'
aS'O'
aS'O'
aS'O'
aS'O'
aS'O'
aS'O'
aS'O'
aS'O'
aS'O'
aS'O'
aS'O'
aS'O'
aS'O'
aS'O'
aS'O'
aS'O'
aS'O'
aS'O'
aS'O'
aS'O'
aS'O'
aS'O'
aS'O'
aS'O'
aS'O'
aS'O'
aS'O'
aS'O'
assb.