ccopy_reg
_reconstructor
p1
(c__main__
KBproperty
p2
c__builtin__
object
p3
NtRp4
(dp5
S'comment'
p6
S'Dutch project with material for 40000 digitized biographies including former colonies of the Netherlands.22'
p7
sS'domain'
p8
S''
sS'instances_count'
p9
I2
sS'phrases'
p10
NsS'syn_hypo'
p11
S''
sS'label'
p12
S'BPN Id'
p13
sS'range'
p14
S'string '
p15
sS'uniq_subjs'
p16
S'2'
sS'uniq_objs'
p17
I0
sS'prop_uri'
p18
S'http://dbpedia.org/ontology/bpnId'
p19
sS'annotations'
p20
(dp21
S'bag_of_words'
p22
(lp23
S'BPN'
p24
aS'Id'
p25
aS'string'
p26
aS'Dutch'
p27
aS'project'
p28
aS'with'
p29
aS'material'
p30
aS'for'
p31
aS'40000'
p32
aS'digitized'
p33
aS'biographies'
p34
aS'including'
p35
aS'former'
p36
aS'colonies'
p37
aS'of'
p38
aS'the'
p39
aS'Netherlands.22'
p40
asS'chunk_seq'
p41
(lp42
S'B-NP'
p43
aS'I-NP'
p44
aS'I-NP'
p45
aS'I-NP'
p46
aS'E-NP'
p47
aS'S-PP'
p48
aS'S-NP'
p49
aS'S-PP'
p50
aS'B-NP'
p51
aS'I-NP'
p52
aS'E-NP'
p53
aS'S-PP'
p54
aS'B-NP'
p55
aS'E-NP'
p56
aS'S-PP'
p57
aS'B-NP'
p58
aS'E-NP'
p59
asS'dep_seq'
p60
(lp61
(lp62
S'nn'
p63
aS'5'
aS'1'
aa(lp64
S'nn'
p65
aS'5'
aS'2'
aa(lp66
S'nn'
p67
aS'5'
aS'3'
aa(lp68
S'amod'
p69
aS'5'
aS'4'
aa(lp70
S'root'
p71
aS'0'
aS'5'
aa(lp72
S'prep_with'
p73
aS'5'
aS'7'
aa(lp74
S'num'
p75
aS'11'
p76
aS'9'
aa(lp77
S'amod'
p78
aS'11'
p79
aS'10'
p80
aa(lp81
S'prep_for'
p82
aS'7'
aS'11'
p83
aa(lp84
S'amod'
p85
aS'14'
p86
aS'13'
p87
aa(lp88
S'prep_including'
p89
aS'11'
p90
aS'14'
p91
aa(lp92
S'det'
p93
aS'17'
p94
aS'16'
p95
aa(lp96
S'prep_of'
p97
aS'14'
p98
aS'17'
p99
aasS'srls'
p100
(lp101
(dp102
S'A1'
p103
S'former colonies of the Netherlands.22'
p104
sS'A2'
p105
S'BPN Id string Dutch project with material for 40000 digitized biographies'
p106
sS'V'
g35
sasS'pos_seq'
p107
(lp108
S'NNP'
p109
aS'NNP'
p110
aS'NN'
p111
aS'JJ'
p112
aS'NN'
p113
aS'IN'
p114
aS'NN'
p115
aS'IN'
p116
aS'CD'
p117
aS'JJ'
p118
aS'NNS'
p119
aS'VBG'
p120
aS'JJ'
p121
aS'NNS'
p122
aS'IN'
p123
aS'DT'
p124
aS'NNP'
p125
asS'ner_seq'
p126
(lp127
S'O'
aS'O'
aS'O'
aS'S-MISC'
p128
aS'O'
aS'O'
aS'O'
aS'O'
aS'O'
aS'O'
aS'O'
aS'O'
aS'O'
aS'O'
aS'O'
aS'O'
aS'S-MISC'
p129
assb.