ccopy_reg
_reconstructor
p1
(c__main__
KBproperty
p2
c__builtin__
object
p3
NtRp4
(dp5
S'comment'
p6
S'15851570'
p7
sS'domain'
p8
S''
sS'instances_count'
p9
I409
sS'phrases'
p10
NsS'syn_hypo'
p11
S''
sS'label'
p12
S'appointer'
p13
sS'range'
p14
S'Person '
p15
sS'uniq_subjs'
p16
S'409'
p17
sS'uniq_objs'
p18
I0
sS'prop_uri'
p19
S'http://dbpedia.org/ontology/appointer'
p20
sS'annotations'
p21
(dp22
S'bag_of_words'
p23
(lp24
S'appointer'
p25
aS'Person'
p26
aS'15851570'
p27
asS'chunk_seq'
p28
(lp29
S'B-NP'
p30
aS'E-NP'
p31
aS'O'
asS'dep_seq'
p32
(lp33
(lp34
S'amod'
p35
aS'2'
aS'1'
aa(lp36
S'root'
p37
aS'0'
aS'2'
aa(lp38
S'num'
p39
aS'2'
aS'3'
aasS'srls'
p40
(lp41
sS'pos_seq'
p42
(lp43
S'JJR'
p44
aS'NN'
p45
aS'CD'
p46
asS'ner_seq'
p47
(lp48
S'O'
aS'O'
aS'O'
assb.