ccopy_reg
_reconstructor
p1
(c__main__
KBproperty
p2
c__builtin__
object
p3
NtRp4
(dp5
S'comment'
p6
S'88'
p7
sS'domain'
p8
S'Golf Player '
p9
sS'instances_count'
p10
I8
sS'phrases'
p11
NsS'syn_hypo'
p12
S''
sS'label'
p13
S'wins at NWIDE'
p14
sS'range'
p15
S''
sS'uniq_subjs'
p16
S'8'
sS'uniq_objs'
p17
I0
sS'prop_uri'
p18
S'http://dbpedia.org/ontology/winsAtNWIDE'
p19
sS'annotations'
p20
(dp21
S'bag_of_words'
p22
(lp23
S'Golf'
p24
aS'Player'
p25
aS'wins'
p26
aS'at'
p27
aS'NWIDE'
p28
aS'88'
p29
asS'chunk_seq'
p30
(lp31
S'B-NP'
p32
aS'E-NP'
p33
aS'S-VP'
p34
aS'S-PP'
p35
aS'B-NP'
p36
aS'E-NP'
p37
asS'dep_seq'
p38
(lp39
(lp40
S'nn'
p41
aS'2'
aS'1'
aa(lp42
S'nsubj'
p43
aS'3'
aS'2'
aa(lp44
S'root'
p45
aS'0'
aS'3'
aa(lp46
S'nn'
p47
aS'6'
aS'5'
aa(lp48
S'prep_at'
p49
aS'3'
aS'6'
aasS'srls'
p50
(lp51
(dp52
S'A0'
p53
S'Golf Player'
p54
sS'AM-MNR'
p55
S'at NWIDE 88'
p56
sS'V'
g26
sasS'pos_seq'
p57
(lp58
S'NNP'
p59
aS'NNP'
p60
aS'VBZ'
p61
aS'IN'
p62
aS'NNP'
p63
aS'NN'
p64
asS'ner_seq'
p65
(lp66
S'B-ORG'
p67
aS'E-ORG'
p68
aS'O'
aS'O'
aS'S-LOC'
p69
aS'O'
assb.