ccopy_reg
_reconstructor
p1
(c__main__
KBproperty
p2
c__builtin__
object
p3
NtRp4
(dp5
S'comment'
p6
S'The original language of the work.438435'
p7
sS'domain'
p8
S'Work '
p9
sS'instances_count'
p10
I53
sS'phrases'
p11
NsS'syn_hypo'
p12
S''
sS'label'
p13
S'original language'
p14
sS'range'
p15
S'Language '
p16
sS'uniq_subjs'
p17
S'53'
p18
sS'uniq_objs'
p19
I0
sS'prop_uri'
p20
S'http://dbpedia.org/ontology/originalLanguage'
p21
sS'annotations'
p22
(dp23
S'bag_of_words'
p24
(lp25
S'Work'
p26
aS'original'
p27
aS'language'
p28
aS'Language'
p29
aS'The'
p30
aS'original'
p31
aS'language'
p32
aS'of'
p33
aS'the'
p34
aS'work.438435'
p35
asS'chunk_seq'
p36
(lp37
S'S-VP'
p38
aS'B-NP'
p39
aS'I-NP'
p40
aS'E-NP'
p41
aS'B-NP'
p42
aS'I-NP'
p43
aS'E-NP'
p44
aS'S-PP'
p45
aS'B-NP'
p46
aS'E-NP'
p47
asS'dep_seq'
p48
(lp49
(lp50
S'root'
p51
aS'0'
aS'1'
aa(lp52
S'amod'
p53
aS'4'
aS'2'
aa(lp54
S'nn'
p55
aS'4'
aS'3'
aa(lp56
S'iobj'
p57
aS'1'
aS'4'
aa(lp58
S'nn'
p59
aS'7'
aS'5'
aa(lp60
S'amod'
p61
aS'7'
aS'6'
aa(lp62
S'dobj'
p63
aS'1'
aS'7'
aa(lp64
S'det'
p65
aS'10'
p66
aS'9'
aa(lp67
S'prep_of'
p68
aS'7'
aS'10'
p69
aasS'srls'
p70
(lp71
(dp72
S'A1'
p73
S'original language Language The original language of the work.438435'
p74
sS'V'
g26
sasS'pos_seq'
p75
(lp76
S'VB'
p77
aS'JJ'
p78
aS'NN'
p79
aS'NNP'
p80
aS'NNP'
p81
aS'JJ'
p82
aS'NN'
p83
aS'IN'
p84
aS'DT'
p85
aS'NN'
p86
asS'ner_seq'
p87
(lp88
S'O'
aS'O'
aS'O'
aS'O'
aS'O'
aS'O'
aS'O'
aS'O'
aS'O'
aS'O'
assb.