ccopy_reg
_reconstructor
p1
(c__main__
KBproperty
p2
c__builtin__
object
p3
NtRp4
(dp5
S'comment'
p6
S'maximum ELO rating'
p7
sS'domain'
p8
S'Chess Player '
p9
sS'instances_count'
p10
I0
sS'phrases'
p11
NsS'syn_hypo'
p12
S''
sS'label'
p13
g7
sS'range'
p14
S'non Negative Integer '
p15
sS'uniq_subjs'
p16
S'0'
sS'uniq_objs'
p17
I0
sS'prop_uri'
p18
S'http://dbpedia.org/ontology/eloRecord'
p19
sS'annotations'
p20
(dp21
S'bag_of_words'
p22
(lp23
S'Chess'
p24
aS'Player'
p25
aS'elo'
p26
aS'Record'
p27
aS'non'
p28
aS'Negative'
p29
aS'Integer'
p30
aS'maximum'
p31
aS'ELO'
p32
aS'rating'
p33
asS'chunk_seq'
p34
(lp35
S'B-NP'
p36
aS'I-NP'
p37
aS'I-NP'
p38
aS'I-NP'
p39
aS'I-NP'
p40
aS'I-NP'
p41
aS'I-NP'
p42
aS'I-NP'
p43
aS'I-NP'
p44
aS'E-NP'
p45
asS'dep_seq'
p46
(lp47
(lp48
S'dep'
p49
aS'7'
aS'1'
aa(lp50
S'dep'
p51
aS'7'
aS'2'
aa(lp52
S'nn'
p53
aS'7'
aS'3'
aa(lp54
S'nn'
p55
aS'7'
aS'4'
aa(lp56
S'amod'
p57
aS'7'
aS'5'
aa(lp58
S'amod'
p59
aS'5'
aS'6'
aa(lp60
S'root'
p61
aS'0'
aS'7'
aa(lp62
S'prep'
p63
aS'7'
aS'8'
aa(lp64
S'nn'
p65
aS'10'
p66
aS'9'
aa(lp67
S'dep'
p68
aS'8'
aS'10'
p69
aasS'srls'
p70
(lp71
sS'pos_seq'
p72
(lp73
S'NNP'
p74
aS'NNP'
p75
aS'NNP'
p76
aS'NNP'
p77
aS'JJ'
p78
aS'NNP'
p79
aS'NNP'
p80
aS'NN'
p81
aS'NNP'
p82
aS'NN'
p83
asS'ner_seq'
p84
(lp85
S'B-ORG'
p86
aS'E-ORG'
p87
aS'O'
aS'O'
aS'O'
aS'B-MISC'
p88
aS'E-MISC'
p89
aS'O'
aS'S-MISC'
p90
aS'O'
assb.