ccopy_reg
_reconstructor
p1
(c__main__
KBproperty
p2
c__builtin__
object
p3
NtRp4
(dp5
S'comment'
p6
S'00'
p7
sS'domain'
p8
S'Olympics '
p9
sS'instances_count'
p10
I0
sS'phrases'
p11
NsS'syn_hypo'
p12
S''
sS'label'
p13
S'number of newly introduced sports'
p14
sS'range'
p15
S'non Negative Integer '
p16
sS'uniq_subjs'
p17
S'0'
sS'uniq_objs'
p18
I0
sS'prop_uri'
p19
S'http://dbpedia.org/ontology/numberOfNewlyIntroducedSports'
p20
sS'annotations'
p21
(dp22
S'bag_of_words'
p23
(lp24
S'Olympics'
p25
aS'number'
p26
aS'of'
p27
aS'newly'
p28
aS'introduced'
p29
aS'sports'
p30
aS'non'
p31
aS'Negative'
p32
aS'Integer'
p33
aS'00'
p34
asS'chunk_seq'
p35
(lp36
S'B-NP'
p37
aS'E-NP'
p38
aS'S-PP'
p39
aS'B-NP'
p40
aS'I-NP'
p41
aS'I-NP'
p42
aS'I-NP'
p43
aS'I-NP'
p44
aS'E-NP'
p45
aS'O'
asS'dep_seq'
p46
(lp47
(lp48
S'nn'
p49
aS'2'
aS'1'
aa(lp50
S'dep'
p51
aS'9'
aS'2'
aa(lp52
S'advmod'
p53
aS'5'
aS'4'
aa(lp54
S'amod'
p55
aS'6'
aS'5'
aa(lp56
S'prep_of'
p57
aS'2'
aS'6'
aa(lp58
S'amod'
p59
aS'9'
aS'7'
aa(lp60
S'nn'
p61
aS'9'
aS'8'
aa(lp62
S'root'
p63
aS'0'
aS'9'
aa(lp64
S'num'
p65
aS'9'
aS'10'
p66
aasS'srls'
p67
(lp68
(dp69
S'A1'
p70
S'sports non Negative Integer 00'
p71
sS'AM-TMP'
p72
g28
sS'V'
g29
sasS'pos_seq'
p73
(lp74
S'NNS'
p75
aS'NN'
p76
aS'IN'
p77
aS'RB'
p78
aS'VBN'
p79
aS'NNS'
p80
aS'JJ'
p81
aS'NNP'
p82
aS'NNP'
p83
aS'CD'
p84
asS'ner_seq'
p85
(lp86
S'S-MISC'
p87
aS'O'
aS'O'
aS'O'
aS'O'
aS'O'
aS'O'
aS'O'
aS'O'
aS'O'
assb.