ccopy_reg
_reconstructor
p1
(c__main__
KBproperty
p2
c__builtin__
object
p3
NtRp4
(dp5
S'comment'
p6
S'8986'
p7
sS'domain'
p8
S'Brain '
p9
sS'instances_count'
p10
I34
sS'phrases'
p11
NsS'syn_hypo'
p12
S''
sS'label'
p13
S'is part of anatomical structure'
p14
sS'range'
p15
S'Anatomical Structure '
p16
sS'uniq_subjs'
p17
S'34'
p18
sS'uniq_objs'
p19
I0
sS'prop_uri'
p20
S'http://dbpedia.org/ontology/isPartOfAnatomicalStructure'
p21
sS'annotations'
p22
(dp23
S'bag_of_words'
p24
(lp25
S'Brain'
p26
aS'is'
p27
aS'part'
p28
aS'of'
p29
aS'anatomical'
p30
aS'structure'
p31
aS'Anatomical'
p32
aS'Structure'
p33
aS'8986'
p34
asS'chunk_seq'
p35
(lp36
S'S-NP'
p37
aS'S-VP'
p38
aS'S-NP'
p39
aS'S-PP'
p40
aS'B-NP'
p41
aS'I-NP'
p42
aS'I-NP'
p43
aS'E-NP'
p44
aS'O'
asS'dep_seq'
p45
(lp46
(lp47
S'nsubj'
p48
aS'3'
aS'1'
aa(lp49
S'cop'
p50
aS'3'
aS'2'
aa(lp51
S'root'
p52
aS'0'
aS'3'
aa(lp53
S'amod'
p54
aS'8'
aS'5'
aa(lp55
S'nn'
p56
aS'8'
aS'6'
aa(lp57
S'amod'
p58
aS'8'
aS'7'
aa(lp59
S'prep_of'
p60
aS'3'
aS'8'
aa(lp61
S'punct'
p62
aS'8'
aS'9'
aasS'srls'
p63
(lp64
sS'pos_seq'
p65
(lp66
S'NN'
p67
aS'VBZ'
p68
aS'NN'
p69
aS'IN'
p70
aS'JJ'
p71
aS'NN'
p72
aS'JJ'
p73
aS'NN'
p74
aS'.'
asS'ner_seq'
p75
(lp76
S'O'
aS'O'
aS'O'
aS'O'
aS'O'
aS'O'
aS'O'
aS'O'
aS'O'
assb.