ccopy_reg
_reconstructor
p1
(c__main__
KBproperty
p2
c__builtin__
object
p3
NtRp4
(dp5
S'comment'
p6
S'Type of vehicles the bridge carries.31812915'
p7
sS'domain'
p8
S'Bridge '
p9
sS'instances_count'
p10
I1961
sS'phrases'
p11
NsS'syn_hypo'
p12
S''
sS'label'
p13
S'bridge carries'
p14
sS'range'
p15
S'string '
p16
sS'uniq_subjs'
p17
S'1961'
p18
sS'uniq_objs'
p19
I0
sS'prop_uri'
p20
S'http://dbpedia.org/ontology/bridgeCarries'
p21
sS'annotations'
p22
(dp23
S'bag_of_words'
p24
(lp25
S'Bridge'
p26
aS'bridge'
p27
aS'carries'
p28
aS'string'
p29
aS'Type'
p30
aS'of'
p31
aS'vehicles'
p32
aS'the'
p33
aS'bridge'
p34
aS'carries.31812915'
p35
asS'chunk_seq'
p36
(lp37
S'B-NP'
p38
aS'E-NP'
p39
aS'S-VP'
p40
aS'B-NP'
p41
aS'E-NP'
p42
aS'S-PP'
p43
aS'S-NP'
p44
aS'B-NP'
p45
aS'E-NP'
p46
aS'S-VP'
p47
asS'dep_seq'
p48
(lp49
(lp50
S'nn'
p51
aS'2'
aS'1'
aa(lp52
S'root'
p53
aS'0'
aS'2'
aa(lp54
S'dep'
p55
aS'2'
aS'3'
aa(lp56
S'nn'
p57
aS'5'
aS'4'
aa(lp58
S'nsubj'
p59
aS'9'
aS'5'
aa(lp60
S'prep_of'
p61
aS'5'
aS'7'
aa(lp62
S'det'
p63
aS'9'
aS'8'
aa(lp64
S'xcomp'
p65
aS'3'
aS'9'
aa(lp66
S'dep'
p67
aS'9'
aS'10'
p68
aasS'srls'
p69
(lp70
(dp71
S'A1'
p72
S'string Type of vehicles the bridge carries.31812915'
p73
sS'A0'
p74
S'Bridge bridge'
p75
sS'V'
g28
sasS'pos_seq'
p76
(lp77
S'NNP'
p78
aS'NN'
p79
aS'VBZ'
p80
aS'NN'
p81
aS'NN'
p82
aS'IN'
p83
aS'NNS'
p84
aS'DT'
p85
aS'NN'
p86
aS'NN'
p87
asS'ner_seq'
p88
(lp89
S'O'
aS'O'
aS'O'
aS'O'
aS'O'
aS'O'
aS'O'
aS'O'
aS'O'
aS'O'
assb.