ccopy_reg
_reconstructor
p1
(c__main__
KBproperty
p2
c__builtin__
object
p3
NtRp4
(dp5
S'comment'
p6
S'138132'
p7
sS'domain'
p8
S'School '
p9
sS'instances_count'
p10
I100
sS'phrases'
p11
NsS'syn_hypo'
p12
S''
sS'label'
p13
S'bar pass rate'
p14
sS'range'
p15
S'float '
p16
sS'uniq_subjs'
p17
S'100'
p18
sS'uniq_objs'
p19
I0
sS'prop_uri'
p20
S'http://dbpedia.org/ontology/barPassRate'
p21
sS'annotations'
p22
(dp23
S'bag_of_words'
p24
(lp25
S'School'
p26
aS'bar'
p27
aS'pass'
p28
aS'rate'
p29
aS'float'
p30
aS'138132'
p31
asS'chunk_seq'
p32
(lp33
S'B-NP'
p34
aS'E-NP'
p35
aS'S-VP'
p36
aS'B-NP'
p37
aS'E-NP'
p38
aS'S-ADJP'
p39
asS'dep_seq'
p40
(lp41
(lp42
S'nn'
p43
aS'2'
aS'1'
aa(lp44
S'nsubj'
p45
aS'3'
aS'2'
aa(lp46
S'root'
p47
aS'0'
aS'3'
aa(lp48
S'nn'
p49
aS'5'
aS'4'
aa(lp50
S'dobj'
p51
aS'3'
aS'5'
aa(lp52
S'punct'
p53
aS'5'
aS'6'
aasS'srls'
p54
(lp55
(dp56
S'A1'
p57
S'rate float 138132'
p58
sS'A0'
p59
S'School bar'
p60
sS'V'
g28
sasS'pos_seq'
p61
(lp62
S'NN'
p63
aS'NN'
p64
aS'VB'
p65
aS'NN'
p66
aS'NN'
p67
aS'.'
asS'ner_seq'
p68
(lp69
S'O'
aS'O'
aS'O'
aS'O'
aS'O'
aS'O'
assb.