ccopy_reg
_reconstructor
p1
(c__main__
KBproperty
p2
c__builtin__
object
p3
NtRp4
(dp5
S'comment'
p6
S'something especially a person or animal used to symbolize a sports team company organization or other group.1471514564'
p7
sS'domain'
p8
S''
sS'instances_count'
p9
I14715
sS'phrases'
p10
NsS'syn_hypo'
p11
V
sS'label'
p12
S'mascot'
p13
sS'range'
p14
S'string '
p15
sS'uniq_subjs'
p16
S'5149'
p17
sS'uniq_objs'
p18
I0
sS'prop_uri'
p19
S'http://dbpedia.org/ontology/mascot'
p20
sS'annotations'
p21
(dp22
S'bag_of_words'
p23
(lp24
S'mascot'
p25
aS'string'
p26
aS'something'
p27
aS'especially'
p28
aS'a'
aS'person'
p29
aS'or'
p30
aS'animal'
p31
aS'used'
p32
aS'to'
p33
aS'symbolize'
p34
aS'a'
aS'sports'
p35
aS'team'
p36
aS'company'
p37
aS'organization'
p38
aS'or'
p39
aS'other'
p40
aS'group.1471514564'
p41
asS'chunk_seq'
p42
(lp43
S'B-NP'
p44
aS'E-NP'
p45
aS'S-NP'
p46
aS'S-ADVP'
p47
aS'B-NP'
p48
aS'I-NP'
p49
aS'I-NP'
p50
aS'E-NP'
p51
aS'B-VP'
p52
aS'I-VP'
p53
aS'E-VP'
p54
aS'B-NP'
p55
aS'I-NP'
p56
aS'I-NP'
p57
aS'I-NP'
p58
aS'E-NP'
p59
aS'O'
aS'B-NP'
p60
aS'E-NP'
p61
asS'dep_seq'
p62
(lp63
(lp64
S'nn'
p65
aS'2'
aS'1'
aa(lp66
S'root'
p67
aS'0'
aS'2'
aa(lp68
S'dep'
p69
aS'2'
aS'3'
aa(lp70
S'advmod'
p71
aS'3'
aS'4'
aa(lp72
S'det'
p73
aS'6'
aS'5'
aa(lp74
S'dep'
p75
aS'3'
aS'6'
aa(lp76
S'conj_or'
p77
aS'6'
aS'8'
aa(lp78
S'partmod'
p79
aS'3'
aS'9'
aa(lp80
S'aux'
p81
aS'11'
p82
aS'10'
p83
aa(lp84
S'xcomp'
p85
aS'9'
aS'11'
p86
aa(lp87
S'det'
p88
aS'16'
p89
aS'12'
p90
aa(lp91
S'nn'
p92
aS'16'
p93
aS'13'
p94
aa(lp95
S'nn'
p96
aS'16'
p97
aS'14'
p98
aa(lp99
S'nn'
p100
aS'16'
p101
aS'15'
p102
aa(lp103
S'dobj'
p104
aS'11'
p105
aS'16'
p106
aa(lp107
S'amod'
p108
aS'19'
p109
aS'18'
p110
aa(lp111
S'conj_or'
p112
aS'16'
p113
aS'19'
p114
aasS'srls'
p115
(lp116
(dp117
S'A1'
p118
S'a person or animal'
p119
sS'A2'
p120
S'to symbolize a sports team company organization or other group.1471514564'
p121
sS'V'
g32
sa(dp122
S'A1'
p123
S'a sports team company organization or other group.1471514564'
p124
sS'A0'
p125
S'a person or animal'
p126
sS'V'
g34
sasS'pos_seq'
p127
(lp128
S'NN'
p129
aS'NN'
p130
aS'NN'
p131
aS'RB'
p132
aS'DT'
p133
aS'NN'
p134
aS'CC'
p135
aS'NN'
p136
aS'VBN'
p137
aS'TO'
p138
aS'VB'
p139
aS'DT'
p140
aS'NNS'
p141
aS'NN'
p142
aS'NN'
p143
aS'NN'
p144
aS'CC'
p145
aS'JJ'
p146
aS'NN'
p147
asS'ner_seq'
p148
(lp149
S'O'
aS'O'
aS'O'
aS'O'
aS'O'
aS'O'
aS'O'
aS'O'
aS'O'
aS'O'
aS'O'
aS'O'
aS'O'
aS'O'
aS'O'
aS'O'
aS'O'
aS'O'
aS'O'
assb.