ccopy_reg
_reconstructor
p1
(c__main__
KBproperty
p2
c__builtin__
object
p3
NtRp4
(dp5
S'comment'
p6
S'The books number of pages.2560024842'
p7
sS'domain'
p8
S'Written Work '
p9
sS'instances_count'
p10
I1145
sS'phrases'
p11
NsS'syn_hypo'
p12
S''
sS'label'
p13
S'number of pages'
p14
sS'range'
p15
S'positive Integer '
p16
sS'uniq_subjs'
p17
S'1145'
p18
sS'uniq_objs'
p19
I0
sS'prop_uri'
p20
S'http://dbpedia.org/ontology/numberOfPages'
p21
sS'annotations'
p22
(dp23
S'bag_of_words'
p24
(lp25
S'Written'
p26
aS'Work'
p27
aS'number'
p28
aS'of'
p29
aS'pages'
p30
aS'positive'
p31
aS'Integer'
p32
aS'The'
p33
aS'books'
p34
aS'number'
p35
aS'of'
p36
aS'pages.2560024842'
p37
asS'chunk_seq'
p38
(lp39
S'B-NP'
p40
aS'I-NP'
p41
aS'E-NP'
p42
aS'S-PP'
p43
aS'S-NP'
p44
aS'S-ADJP'
p45
aS'O'
aS'B-NP'
p46
aS'I-NP'
p47
aS'E-NP'
p48
aS'S-PP'
p49
aS'S-NP'
p50
asS'dep_seq'
p51
(lp52
(lp53
S'nn'
p54
aS'3'
aS'1'
aa(lp55
S'nn'
p56
aS'3'
aS'2'
aa(lp57
S'root'
p58
aS'0'
aS'3'
aa(lp59
S'prep_of'
p60
aS'3'
aS'5'
aa(lp61
S'dep'
p62
aS'3'
aS'6'
aa(lp63
S'dep'
p64
aS'6'
aS'7'
aa(lp65
S'nn'
p66
aS'10'
p67
aS'8'
aa(lp68
S'nn'
p69
aS'10'
p70
aS'9'
aa(lp71
S'dobj'
p72
aS'6'
aS'10'
p73
aa(lp74
S'prep_of'
p75
aS'10'
p76
aS'12'
p77
aasS'srls'
p78
(lp79
sS'pos_seq'
p80
(lp81
S'NNP'
p82
aS'NNP'
p83
aS'NN'
p84
aS'IN'
p85
aS'NNS'
p86
aS'JJ'
p87
aS'NNP'
p88
aS'NNP'
p89
aS'NNS'
p90
aS'NN'
p91
aS'IN'
p92
aS'NN'
p93
asS'ner_seq'
p94
(lp95
S'O'
aS'O'
aS'O'
aS'O'
aS'O'
aS'O'
aS'O'
aS'O'
aS'O'
aS'O'
aS'O'
aS'O'
assb.