ccopy_reg
_reconstructor
p1
(c__main__
KBproperty
p2
c__builtin__
object
p3
NtRp4
(dp5
S'comment'
p6
S'density \\xce\\xbc3'
p7
sS'domain'
p8
S''
sS'instances_count'
p9
I31
sS'phrases'
p10
NsS'syn_hypo'
p11
S''
sS'label'
p12
g7
sS'range'
p13
S'double '
p14
sS'uniq_subjs'
p15
S'31'
p16
sS'uniq_objs'
p17
I0
sS'prop_uri'
p18
S'http://dbpedia.org/ontology/density'
p19
sS'annotations'
p20
(dp21
S'bag_of_words'
p22
(lp23
S'density'
p24
aS'double'
p25
aS'density'
p26
aS'\\'
aS'xce'
p27
aS'\\'
aS'xbc3'
p28
asS'chunk_seq'
p29
(lp30
S'B-NP'
p31
aS'I-NP'
p32
aS'E-NP'
p33
aS'O'
aS'O'
aS'O'
aS'O'
asS'dep_seq'
p34
(lp35
(lp36
S'nn'
p37
aS'3'
aS'1'
aa(lp38
S'amod'
p39
aS'3'
aS'2'
aa(lp40
S'root'
p41
aS'0'
aS'3'
aa(lp42
S'nn'
p43
aS'3'
aS'4'
aa(lp44
S'nn'
p45
aS'3'
aS'5'
aa(lp46
S'nn'
p47
aS'3'
aS'6'
aa(lp48
S'dep'
p49
aS'3'
aS'7'
aasS'srls'
p50
(lp51
sS'pos_seq'
p52
(lp53
S'NN'
p54
aS'JJ'
p55
aS'NN'
p56
aS'FW'
p57
aS'FW'
p58
aS'FW'
p59
aS'FW'
p60
asS'ner_seq'
p61
(lp62
S'O'
aS'O'
aS'O'
aS'O'
aS'O'
aS'O'
aS'O'
assb.