ccopy_reg
_reconstructor
p1
(c__main__
KBproperty
p2
c__builtin__
object
p3
NtRp4
(dp5
S'comment'
p6
S'629629'
p7
sS'domain'
p8
S'Sport Competition Result '
p9
sS'instances_count'
p10
I38
sS'phrases'
p11
NsS'syn_hypo'
p12
S''
sS'label'
p13
S'number of silver medals won'
p14
sS'range'
p15
S'non Negative Integer '
p16
sS'uniq_subjs'
p17
S'38'
p18
sS'uniq_objs'
p19
I0
sS'prop_uri'
p20
S'http://dbpedia.org/ontology/numberOfSilverMedalsWon'
p21
sS'annotations'
p22
(dp23
S'bag_of_words'
p24
(lp25
S'Sport'
p26
aS'Competition'
p27
aS'Result'
p28
aS'number'
p29
aS'of'
p30
aS'silver'
p31
aS'medals'
p32
aS'won'
p33
aS'non'
p34
aS'Negative'
p35
aS'Integer'
p36
aS'629629'
p37
asS'chunk_seq'
p38
(lp39
S'B-NP'
p40
aS'I-NP'
p41
aS'I-NP'
p42
aS'E-NP'
p43
aS'S-PP'
p44
aS'B-NP'
p45
aS'E-NP'
p46
aS'S-VP'
p47
aS'B-NP'
p48
aS'I-NP'
p49
aS'I-NP'
p50
aS'E-NP'
p51
asS'dep_seq'
p52
(lp53
(lp54
S'nn'
p55
aS'2'
aS'1'
aa(lp56
S'nsubj'
p57
aS'4'
aS'2'
aa(lp58
S'dep'
p59
aS'4'
aS'3'
aa(lp60
S'root'
p61
aS'0'
aS'4'
aa(lp62
S'nn'
p63
aS'7'
aS'6'
aa(lp64
S'prep_of'
p65
aS'4'
aS'7'
aa(lp66
S'dep'
p67
aS'4'
aS'8'
aa(lp68
S'amod'
p69
aS'12'
p70
aS'9'
aa(lp71
S'amod'
p72
aS'12'
p73
aS'10'
p74
aa(lp75
S'nn'
p76
aS'12'
p77
aS'11'
p78
aa(lp79
S'dobj'
p80
aS'8'
aS'12'
p81
aasS'srls'
p82
(lp83
(dp84
S'A1'
p85
S'non Negative Integer 629629'
p86
sS'A0'
p87
S'Sport Competition Result number of silver medals'
p88
sS'V'
g33
sasS'pos_seq'
p89
(lp90
S'NNP'
p91
aS'NNP'
p92
aS'NNP'
p93
aS'NN'
p94
aS'IN'
p95
aS'NN'
p96
aS'NNS'
p97
aS'VBD'
p98
aS'JJ'
p99
aS'JJ'
p100
aS'NN'
p101
aS'NN'
p102
asS'ner_seq'
p103
(lp104
S'B-ORG'
p105
aS'E-ORG'
p106
aS'O'
aS'O'
aS'O'
aS'O'
aS'O'
aS'O'
aS'O'
aS'O'
aS'O'
aS'O'
assb.