ccopy_reg
_reconstructor
p1
(c__main__
KBproperty
p2
c__builtin__
object
p3
NtRp4
(dp5
S'comment'
p6
S'1313'
p7
sS'domain'
p8
S'Golf Player '
p9
sS'instances_count'
p10
I10
sS'phrases'
p11
NsS'syn_hypo'
p12
S''
sS'label'
p13
S'wins at pga'
p14
sS'range'
p15
S''
sS'uniq_subjs'
p16
S'10'
p17
sS'uniq_objs'
p18
I0
sS'prop_uri'
p19
S'http://dbpedia.org/ontology/winsAtPGA'
p20
sS'annotations'
p21
(dp22
S'bag_of_words'
p23
(lp24
S'Golf'
p25
aS'Player'
p26
aS'wins'
p27
aS'at'
p28
aS'pga'
p29
aS'1313'
p30
asS'chunk_seq'
p31
(lp32
S'B-NP'
p33
aS'E-NP'
p34
aS'S-VP'
p35
aS'S-PP'
p36
aS'B-NP'
p37
aS'E-NP'
p38
asS'dep_seq'
p39
(lp40
(lp41
S'nn'
p42
aS'2'
aS'1'
aa(lp43
S'nsubj'
p44
aS'3'
aS'2'
aa(lp45
S'root'
p46
aS'0'
aS'3'
aa(lp47
S'nn'
p48
aS'6'
aS'5'
aa(lp49
S'prep_at'
p50
aS'3'
aS'6'
aasS'srls'
p51
(lp52
(dp53
S'A0'
p54
S'Golf Player'
p55
sS'AM-MNR'
p56
S'at pga 1313'
p57
sS'V'
g27
sasS'pos_seq'
p58
(lp59
S'NNP'
p60
aS'NNP'
p61
aS'VBZ'
p62
aS'IN'
p63
aS'NN'
p64
aS'NN'
p65
asS'ner_seq'
p66
(lp67
S'B-ORG'
p68
aS'E-ORG'
p69
aS'O'
aS'O'
aS'O'
aS'O'
assb.