ccopy_reg
_reconstructor
p1
(c__main__
KBproperty
p2
c__builtin__
object
p3
NtRp4
(dp5
S'comment'
p6
S'date when the island has been discovered'
p7
sS'domain'
p8
S'Island '
p9
sS'instances_count'
p10
I0
sS'phrases'
p11
NsS'syn_hypo'
p12
S''
sS'label'
p13
g7
sS'range'
p14
S'string '
p15
sS'uniq_subjs'
p16
S'0'
sS'uniq_objs'
p17
I0
sS'prop_uri'
p18
S'http://dbpedia.org/ontology/discovery'
p19
sS'annotations'
p20
(dp21
S'bag_of_words'
p22
(lp23
S'Island'
p24
aS'discovery'
p25
aS'string'
p26
aS'date'
p27
aS'when'
p28
aS'the'
p29
aS'island'
p30
aS'has'
p31
aS'been'
p32
aS'discovered'
p33
asS'chunk_seq'
p34
(lp35
S'B-NP'
p36
aS'I-NP'
p37
aS'I-NP'
p38
aS'E-NP'
p39
aS'S-ADVP'
p40
aS'B-NP'
p41
aS'E-NP'
p42
aS'B-VP'
p43
aS'I-VP'
p44
aS'E-VP'
p45
asS'dep_seq'
p46
(lp47
(lp48
S'nn'
p49
aS'4'
aS'1'
aa(lp50
S'nn'
p51
aS'4'
aS'2'
aa(lp52
S'nn'
p53
aS'4'
aS'3'
aa(lp54
S'root'
p55
aS'0'
aS'4'
aa(lp56
S'tmod'
p57
aS'10'
p58
aS'4'
aa(lp59
S'advmod'
p60
aS'10'
p61
aS'5'
aa(lp62
S'det'
p63
aS'7'
aS'6'
aa(lp64
S'nsubjpass'
p65
aS'10'
p66
aS'7'
aa(lp67
S'aux'
p68
aS'10'
p69
aS'8'
aa(lp70
S'auxpass'
p71
aS'10'
p72
aS'9'
aa(lp73
S'rcmod'
p74
aS'4'
aS'10'
p75
aasS'srls'
p76
(lp77
sS'pos_seq'
p78
(lp79
S'NN'
p80
aS'NN'
p81
aS'NN'
p82
aS'NN'
p83
aS'WRB'
p84
aS'DT'
p85
aS'NN'
p86
aS'VBZ'
p87
aS'VBN'
p88
aS'VBN'
p89
asS'ner_seq'
p90
(lp91
S'O'
aS'O'
aS'O'
aS'O'
aS'O'
aS'O'
aS'O'
aS'O'
aS'O'
aS'O'
assb.