ccopy_reg
_reconstructor
p1
(c__main__
KBproperty
p2
c__builtin__
object
p3
NtRp4
(dp5
S'comment'
p6
S'00'
p7
sS'domain'
p8
S'Activity '
p9
sS'instances_count'
p10
I0
sS'phrases'
p11
NsS'syn_hypo'
p12
S''
sS'label'
p13
S'number of clubs'
p14
sS'range'
p15
S'non Negative Integer '
p16
sS'uniq_subjs'
p17
S'0'
sS'uniq_objs'
p18
I0
sS'prop_uri'
p19
S'http://dbpedia.org/ontology/numberOfClubs'
p20
sS'annotations'
p21
(dp22
S'bag_of_words'
p23
(lp24
S'Activity'
p25
aS'number'
p26
aS'of'
p27
aS'clubs'
p28
aS'non'
p29
aS'Negative'
p30
aS'Integer'
p31
aS'00'
p32
asS'chunk_seq'
p33
(lp34
S'B-NP'
p35
aS'E-NP'
p36
aS'S-PP'
p37
aS'S-NP'
p38
aS'B-NP'
p39
aS'I-NP'
p40
aS'E-NP'
p41
aS'O'
asS'dep_seq'
p42
(lp43
(lp44
S'nn'
p45
aS'2'
aS'1'
aa(lp46
S'root'
p47
aS'0'
aS'2'
aa(lp48
S'prep_of'
p49
aS'2'
aS'4'
aa(lp50
S'nn'
p51
aS'7'
aS'6'
aa(lp52
S'poss'
p53
aS'2'
aS'7'
aa(lp54
S'num'
p55
aS'7'
aS'8'
aasS'srls'
p56
(lp57
sS'pos_seq'
p58
(lp59
S'NN'
p60
aS'NN'
p61
aS'IN'
p62
aS'NNS'
p63
aS'POS'
p64
aS'NNP'
p65
aS'NNP'
p66
aS'CD'
p67
asS'ner_seq'
p68
(lp69
S'O'
aS'O'
aS'O'
aS'O'
aS'O'
aS'O'
aS'O'
aS'O'
assb.