ccopy_reg
_reconstructor
p1
(c__main__
KBproperty
p2
c__builtin__
object
p3
NtRp4
(dp5
S'comment'
p6
S'the person who is responsible for the film special effects00'
p7
sS'domain'
p8
S'Film '
p9
sS'instances_count'
p10
I0
sS'phrases'
p11
NsS'syn_hypo'
p12
S''
sS'label'
p13
S'special effects'
p14
sS'range'
p15
S'Person '
p16
sS'uniq_subjs'
p17
S'0'
sS'uniq_objs'
p18
I0
sS'prop_uri'
p19
S'http://dbpedia.org/ontology/specialEffects'
p20
sS'annotations'
p21
(dp22
S'bag_of_words'
p23
(lp24
S'Film'
p25
aS'special'
p26
aS'effects'
p27
aS'Person'
p28
aS'the'
p29
aS'person'
p30
aS'who'
p31
aS'is'
p32
aS'responsible'
p33
aS'for'
p34
aS'the'
p35
aS'film'
p36
aS'special'
p37
aS'effects00'
p38
asS'chunk_seq'
p39
(lp40
S'B-NP'
p41
aS'I-NP'
p42
aS'I-NP'
p43
aS'E-NP'
p44
aS'B-NP'
p45
aS'E-NP'
p46
aS'S-NP'
p47
aS'S-VP'
p48
aS'S-ADJP'
p49
aS'S-PP'
p50
aS'B-NP'
p51
aS'I-NP'
p52
aS'I-NP'
p53
aS'E-NP'
p54
asS'dep_seq'
p55
(lp56
(lp57
S'nn'
p58
aS'4'
aS'1'
aa(lp59
S'amod'
p60
aS'4'
aS'2'
aa(lp61
S'nn'
p62
aS'4'
aS'3'
aa(lp63
S'dep'
p64
aS'6'
aS'4'
aa(lp65
S'det'
p66
aS'6'
aS'5'
aa(lp67
S'root'
p68
aS'0'
aS'6'
aa(lp69
S'nsubj'
p70
aS'9'
aS'6'
aa(lp71
S'cop'
p72
aS'9'
aS'8'
aa(lp73
S'rcmod'
p74
aS'6'
aS'9'
aa(lp75
S'det'
p76
aS'14'
p77
aS'11'
p78
aa(lp79
S'nn'
p80
aS'14'
p81
aS'12'
p82
aa(lp83
S'amod'
p84
aS'14'
p85
aS'13'
p86
aa(lp87
S'prep_for'
p88
aS'9'
aS'14'
p89
aasS'srls'
p90
(lp91
sS'pos_seq'
p92
(lp93
S'NNP'
p94
aS'JJ'
p95
aS'NNS'
p96
aS'NNP'
p97
aS'DT'
p98
aS'NN'
p99
aS'WP'
p100
aS'VBZ'
p101
aS'JJ'
p102
aS'IN'
p103
aS'DT'
p104
aS'NN'
p105
aS'JJ'
p106
aS'NN'
p107
asS'ner_seq'
p108
(lp109
S'O'
aS'O'
aS'O'
aS'O'
aS'O'
aS'O'
aS'O'
aS'O'
aS'O'
aS'O'
aS'O'
aS'O'
aS'O'
aS'O'
assb.