ccopy_reg
_reconstructor
p1
(c__main__
KBproperty
p2
c__builtin__
object
p3
NtRp4
(dp5
S'comment'
p6
S'00'
p7
sS'domain'
p8
S'Populated Place '
p9
sS'instances_count'
p10
I0
sS'phrases'
p11
NsS'syn_hypo'
p12
S''
sS'label'
p13
S'gross domestic product nominal per capita'
p14
sS'range'
p15
S'Gross Domestic Product Per Capita '
p16
sS'uniq_subjs'
p17
S'0'
sS'uniq_objs'
p18
I0
sS'prop_uri'
p19
S'http://dbpedia.org/ontology/grossDomesticProductNominalPerCapita'
p20
sS'annotations'
p21
(dp22
S'bag_of_words'
p23
(lp24
S'Populated'
p25
aS'Place'
p26
aS'gross'
p27
aS'domestic'
p28
aS'product'
p29
aS'nominal'
p30
aS'per'
p31
aS'capita'
p32
aS'Gross'
p33
aS'Domestic'
p34
aS'Product'
p35
aS'Per'
p36
aS'Capita'
p37
aS'00'
p38
asS'chunk_seq'
p39
(lp40
S'B-NP'
p41
aS'I-NP'
p42
aS'I-NP'
p43
aS'I-NP'
p44
aS'E-NP'
p45
aS'S-ADJP'
p46
aS'S-PP'
p47
aS'B-NP'
p48
aS'I-NP'
p49
aS'I-NP'
p50
aS'E-NP'
p51
aS'O'
aS'O'
aS'O'
asS'dep_seq'
p52
(lp53
(lp54
S'amod'
p55
aS'5'
aS'1'
aa(lp56
S'nn'
p57
aS'5'
aS'2'
aa(lp58
S'amod'
p59
aS'5'
aS'3'
aa(lp60
S'amod'
p61
aS'5'
aS'4'
aa(lp62
S'root'
p63
aS'0'
aS'5'
aa(lp64
S'amod'
p65
aS'5'
aS'6'
aa(lp66
S'nn'
p67
aS'13'
p68
aS'8'
aa(lp69
S'nn'
p70
aS'13'
p71
aS'9'
aa(lp72
S'nn'
p73
aS'13'
p74
aS'10'
p75
aa(lp76
S'nn'
p77
aS'13'
p78
aS'11'
p79
aa(lp80
S'nn'
p81
aS'13'
p82
aS'12'
p83
aa(lp84
S'prep_per'
p85
aS'6'
aS'13'
p86
aa(lp87
S'num'
p88
aS'13'
p89
aS'14'
p90
aasS'srls'
p91
(lp92
sS'pos_seq'
p93
(lp94
S'VBN'
p95
aS'NN'
p96
aS'JJ'
p97
aS'JJ'
p98
aS'NN'
p99
aS'JJ'
p100
aS'IN'
p101
aS'NN'
p102
aS'NNP'
p103
aS'NNP'
p104
aS'NNP'
p105
aS'NNP'
p106
aS'NNP'
p107
aS'CD'
p108
asS'ner_seq'
p109
(lp110
S'O'
aS'O'
aS'O'
aS'O'
aS'O'
aS'O'
aS'O'
aS'O'
aS'O'
aS'O'
aS'O'
aS'O'
aS'O'
aS'O'
assb.