ccopy_reg
_reconstructor
p1
(c__main__
KBproperty
p2
c__builtin__
object
p3
NtRp4
(dp5
S'comment'
p6
S'The genre of the thing music group film etc.556300305799'
p7
sS'domain'
p8
S''
sS'instances_count'
p9
I556300
sS'phrases'
p10
NsS'syn_hypo'
p11
V
sS'label'
p12
S'genre'
p13
sS'range'
p14
S'Genre '
p15
sS'uniq_subjs'
p16
S'8548'
p17
sS'uniq_objs'
p18
I0
sS'prop_uri'
p19
S'http://dbpedia.org/ontology/genre'
p20
sS'annotations'
p21
(dp22
S'bag_of_words'
p23
(lp24
S'genre'
p25
aS'Genre'
p26
aS'The'
p27
aS'genre'
p28
aS'of'
p29
aS'the'
p30
aS'thing'
p31
aS'music'
p32
aS'group'
p33
aS'film'
p34
aS'etc.556300305799'
p35
asS'chunk_seq'
p36
(lp37
S'B-NP'
p38
aS'E-NP'
p39
aS'B-NP'
p40
aS'E-NP'
p41
aS'S-PP'
p42
aS'B-NP'
p43
aS'I-NP'
p44
aS'I-NP'
p45
aS'I-NP'
p46
aS'E-NP'
p47
aS'S-ADJP'
p48
asS'dep_seq'
p49
(lp50
(lp51
S'nn'
p52
aS'2'
aS'1'
aa(lp53
S'root'
p54
aS'0'
aS'2'
aa(lp55
S'det'
p56
aS'4'
aS'3'
aa(lp57
S'dep'
p58
aS'2'
aS'4'
aa(lp59
S'det'
p60
aS'10'
p61
aS'6'
aa(lp62
S'nn'
p63
aS'10'
p64
aS'7'
aa(lp65
S'nn'
p66
aS'10'
p67
aS'8'
aa(lp68
S'nn'
p69
aS'10'
p70
aS'9'
aa(lp71
S'prep_of'
p72
aS'4'
aS'10'
p73
aa(lp74
S'punct'
p75
aS'10'
p76
aS'11'
p77
aasS'srls'
p78
(lp79
sS'pos_seq'
p80
(lp81
S'NN'
p82
aS'NNP'
p83
aS'DT'
p84
aS'NN'
p85
aS'IN'
p86
aS'DT'
p87
aS'NN'
p88
aS'NN'
p89
aS'NN'
p90
aS'NN'
p91
aS'.'
asS'ner_seq'
p92
(lp93
S'O'
aS'O'
aS'O'
aS'O'
aS'O'
aS'O'
aS'O'
aS'O'
aS'O'
aS'O'
aS'O'
assb.