ccopy_reg
_reconstructor
p1
(c__main__
KBproperty
p2
c__builtin__
object
p3
NtRp4
(dp5
S'comment'
p6
S'1662315254'
p7
sS'domain'
p8
S''
sS'instances_count'
p9
I13040
sS'phrases'
p10
(lp11
S' When is'
p12
aS' when does; occur'
p13
aS' when did ; occur'
p14
aS' when does; take place'
p15
aS' when did ; take place\n'
p16
asS'syn_hypo'
p17
Vbirthdaydateday_of_the_monthnatal_daydateday_of_the_monthmaturitydateday_of_the_monthmaturity_datedateday_of_the_monthdue_date
p18
sS'label'
p19
S'date'
p20
sS'range'
p21
S'date '
p22
sS'uniq_subjs'
p23
S'13040'
p24
sS'uniq_objs'
p25
I0
sS'prop_uri'
p26
S'http://dbpedia.org/ontology/date'
p27
sS'annotations'
p28
(dp29
S'bag_of_words'
p30
(lp31
S'date'
p32
aS'date'
p33
aS'1662315254'
p34
asS'chunk_seq'
p35
(lp36
S'B-NP'
p37
aS'E-NP'
p38
aS'S-NP'
p39
asS'dep_seq'
p40
(lp41
(lp42
S'nn'
p43
aS'2'
aS'1'
aa(lp44
S'root'
p45
aS'0'
aS'2'
aa(lp46
S'dep'
p47
aS'2'
aS'3'
aasS'srls'
p48
(lp49
sS'pos_seq'
p50
(lp51
S'NN'
p52
aS'NN'
p53
aS'NN'
p54
asS'ner_seq'
p55
(lp56
S'O'
aS'O'
aS'O'
assb.