ccopy_reg
_reconstructor
p1
(c__main__
KBproperty
p2
c__builtin__
object
p3
NtRp4
(dp5
S'comment'
p6
S'1614797'
p7
sS'domain'
p8
S'Route Of Transportation '
p9
sS'instances_count'
p10
I621
sS'phrases'
p11
NsS'syn_hypo'
p12
S''
sS'label'
p13
S'railway rolling stock'
p14
sS'range'
p15
S''
sS'uniq_subjs'
p16
S'621'
p17
sS'uniq_objs'
p18
I0
sS'prop_uri'
p19
S'http://dbpedia.org/ontology/railwayRollingStock'
p20
sS'annotations'
p21
(dp22
S'bag_of_words'
p23
(lp24
S'Route'
p25
aS'Of'
p26
aS'Transportation'
p27
aS'railway'
p28
aS'rolling'
p29
aS'stock'
p30
aS'1614797'
p31
asS'chunk_seq'
p32
(lp33
S'S-NP'
p34
aS'S-PP'
p35
aS'B-NP'
p36
aS'E-NP'
p37
aS'S-VP'
p38
aS'B-NP'
p39
aS'E-NP'
p40
asS'dep_seq'
p41
(lp42
(lp43
S'dep'
p44
aS'7'
aS'1'
aa(lp45
S'prep_of'
p46
aS'1'
aS'3'
aa(lp47
S'nn'
p48
aS'7'
aS'4'
aa(lp49
S'amod'
p50
aS'7'
aS'5'
aa(lp51
S'nn'
p52
aS'7'
aS'6'
aa(lp53
S'root'
p54
aS'0'
aS'7'
aasS'srls'
p55
(lp56
(dp57
S'A1'
p58
S'stock 1614797'
p59
sS'V'
g29
sasS'pos_seq'
p60
(lp61
S'NNP'
p62
aS'IN'
p63
aS'NNP'
p64
aS'NN'
p65
aS'VBG'
p66
aS'NN'
p67
aS'NN'
p68
asS'ner_seq'
p69
(lp70
S'B-ORG'
p71
aS'I-ORG'
p72
aS'E-ORG'
p73
aS'O'
aS'O'
aS'O'
aS'O'
assb.