ccopy_reg
_reconstructor
p1
(c__main__
KBproperty
p2
c__builtin__
object
p3
NtRp4
(dp5
S'comment'
p6
S'582553'
p7
sS'domain'
p8
S'Route Of Transportation '
p9
sS'instances_count'
p10
I422
sS'phrases'
p11
NsS'syn_hypo'
p12
S''
sS'label'
p13
S'vehicles per day'
p14
sS'range'
p15
S'non Negative Integer '
p16
sS'uniq_subjs'
p17
S'422'
p18
sS'uniq_objs'
p19
I0
sS'prop_uri'
p20
S'http://dbpedia.org/ontology/vehiclesPerDay'
p21
sS'annotations'
p22
(dp23
S'bag_of_words'
p24
(lp25
S'Route'
p26
aS'Of'
p27
aS'Transportation'
p28
aS'vehicles'
p29
aS'per'
p30
aS'day'
p31
aS'non'
p32
aS'Negative'
p33
aS'Integer'
p34
aS'582553'
p35
asS'chunk_seq'
p36
(lp37
S'S-NP'
p38
aS'S-PP'
p39
aS'B-NP'
p40
aS'E-NP'
p41
aS'S-PP'
p42
aS'B-NP'
p43
aS'I-NP'
p44
aS'I-NP'
p45
aS'I-NP'
p46
aS'E-NP'
p47
asS'dep_seq'
p48
(lp49
(lp50
S'dep'
p51
aS'10'
p52
aS'1'
aa(lp53
S'nn'
p54
aS'4'
aS'3'
aa(lp55
S'prep_of'
p56
aS'1'
aS'4'
aa(lp57
S'prep_per'
p58
aS'1'
aS'6'
aa(lp59
S'advmod'
p60
aS'10'
p61
aS'7'
aa(lp62
S'amod'
p63
aS'10'
p64
aS'8'
aa(lp65
S'nn'
p66
aS'10'
p67
aS'9'
aa(lp68
S'root'
p69
aS'0'
aS'10'
p70
aasS'srls'
p71
(lp72
sS'pos_seq'
p73
(lp74
S'NNP'
p75
aS'IN'
p76
aS'NNP'
p77
aS'NNS'
p78
aS'IN'
p79
aS'NN'
p80
aS'RB'
p81
aS'JJ'
p82
aS'NN'
p83
aS'NN'
p84
asS'ner_seq'
p85
(lp86
S'B-ORG'
p87
aS'I-ORG'
p88
aS'E-ORG'
p89
aS'O'
aS'O'
aS'O'
aS'O'
aS'O'
aS'O'
aS'O'
assb.