ccopy_reg
_reconstructor
p1
(c__main__
KBproperty
p2
c__builtin__
object
p3
NtRp4
(dp5
S'comment'
p6
S"For compilation albums: the person or entity responsible for selecting the album's track listing.295240"
p7
sS'domain'
p8
S'Album '
p9
sS'instances_count'
p10
I200
sS'phrases'
p11
NsS'syn_hypo'
p12
Vencyclopedistcompilerencyclopaedistcompilerlexicographercompilerlexicologist
p13
sS'label'
p14
S'compiler'
p15
sS'range'
p16
S'Person '
p17
sS'uniq_subjs'
p18
S'200'
p19
sS'uniq_objs'
p20
I0
sS'prop_uri'
p21
S'http://dbpedia.org/ontology/compiler'
p22
sS'annotations'
p23
(dp24
S'bag_of_words'
p25
(lp26
S'Album'
p27
aS'compiler'
p28
aS'Person'
p29
aS'For'
p30
aS'compilation'
p31
aS'albums'
p32
aS':'
aS'the'
p33
aS'person'
p34
aS'or'
p35
aS'entity'
p36
aS'responsible'
p37
aS'for'
p38
aS'selecting'
p39
aS'the'
p40
aS'album'
p41
aS"'s"
p42
aS'track'
p43
aS'listing.295240'
p44
asS'chunk_seq'
p45
(lp46
S'B-NP'
p47
aS'I-NP'
p48
aS'E-NP'
p49
aS'S-PP'
p50
aS'B-NP'
p51
aS'E-NP'
p52
aS'O'
aS'B-NP'
p53
aS'I-NP'
p54
aS'I-NP'
p55
aS'E-NP'
p56
aS'S-ADJP'
p57
aS'S-PP'
p58
aS'S-VP'
p59
aS'B-NP'
p60
aS'E-NP'
p61
aS'B-NP'
p62
aS'E-NP'
p63
aS'S-ADJP'
p64
asS'dep_seq'
p65
(lp66
(lp67
S'nn'
p68
aS'3'
aS'1'
aa(lp69
S'nn'
p70
aS'3'
aS'2'
aa(lp71
S'root'
p72
aS'0'
aS'3'
aa(lp73
S'nn'
p74
aS'6'
aS'5'
aa(lp75
S'prep_for'
p76
aS'3'
aS'6'
aa(lp77
S'det'
p78
aS'9'
aS'8'
aa(lp79
S'dep'
p80
aS'3'
aS'9'
aa(lp81
S'conj_or'
p82
aS'9'
aS'11'
p83
aa(lp84
S'amod'
p85
aS'9'
aS'12'
p86
aa(lp87
S'prepc_for'
p88
aS'12'
p89
aS'14'
p90
aa(lp91
S'det'
p92
aS'16'
p93
aS'15'
p94
aa(lp95
S'poss'
p96
aS'18'
p97
aS'16'
p98
aa(lp99
S'dobj'
p100
aS'14'
p101
aS'18'
p102
aa(lp103
S'punct'
p104
aS'18'
p105
aS'19'
p106
aasS'srls'
p107
(lp108
(dp109
S'A1'
p110
S"the album 's track listing.295240"
p111
sS'A0'
p112
S'the person or entity'
p113
sS'V'
g39
sasS'pos_seq'
p114
(lp115
S'NN'
p116
aS'NN'
p117
aS'NN'
p118
aS'IN'
p119
aS'NN'
p120
aS'NNS'
p121
aS':'
aS'DT'
p122
aS'NN'
p123
aS'CC'
p124
aS'NN'
p125
aS'JJ'
p126
aS'IN'
p127
aS'VBG'
p128
aS'DT'
p129
aS'NN'
p130
aS'POS'
p131
aS'NN'
p132
aS'.'
asS'ner_seq'
p133
(lp134
S'O'
aS'O'
aS'O'
aS'O'
aS'O'
aS'O'
aS'O'
aS'O'
aS'O'
aS'O'
aS'O'
aS'O'
aS'O'
aS'O'
aS'O'
aS'O'
aS'O'
aS'O'
aS'O'
assb.