ccopy_reg
_reconstructor
p1
(c__main__
KBproperty
p2
c__builtin__
object
p3
NtRp4
(dp5
S'comment'
p6
S'http://www.w3.org/2001/XMLSchema#string'
p7
sS'domain'
p8
S'Athlete '
p9
sS'instances_count'
p10
I0
sS'phrases'
p11
NsS'syn_hypo'
p12
S''
sS'label'
p13
g7
sS'range'
p14
S'Career Station '
p15
sS'uniq_subjs'
p16
S'0'
sS'uniq_objs'
p17
I0
sS'prop_uri'
p18
S'http://dbpedia.org/ontology/proYear'
p19
sS'annotations'
p20
(dp21
S'bag_of_words'
p22
(lp23
S'Athlete'
p24
aS'pro'
p25
aS'Year'
p26
aS'Career'
p27
aS'Station'
p28
aS'http'
p29
aS':'
aS'//'
p30
aS'www'
p31
aS'.'
aS'w3'
p32
aS'.org'
p33
aS'/2001'
p34
aS'/'
aS'XMLSchema'
p35
aS'#'
aS'string'
p36
asS'chunk_seq'
p37
(lp38
S'B-NP'
p39
aS'I-NP'
p40
aS'I-NP'
p41
aS'I-NP'
p42
aS'I-NP'
p43
aS'E-NP'
p44
aS'O'
aS'B-NP'
p45
aS'E-NP'
p46
aS'O'
aS'O'
aS'O'
aS'O'
aS'O'
aS'O'
aS'B-NP'
p47
aS'E-NP'
p48
asS'dep_seq'
p49
(lp50
(lp51
S'nn'
p52
aS'6'
aS'1'
aa(lp53
S'nn'
p54
aS'6'
aS'2'
aa(lp55
S'nn'
p56
aS'6'
aS'3'
aa(lp57
S'nn'
p58
aS'6'
aS'4'
aa(lp59
S'nn'
p60
aS'6'
aS'5'
aa(lp61
S'root'
p62
aS'0'
aS'6'
aa(lp63
S'nn'
p64
aS'9'
aS'8'
aa(lp65
S'dep'
p66
aS'6'
aS'9'
aa(lp67
S'nn'
p68
aS'9'
aS'11'
p69
aa(lp70
S'nn'
p71
aS'9'
aS'12'
p72
aa(lp73
S'dep'
p74
aS'9'
aS'13'
p75
aa(lp76
S'nn'
p77
aS'9'
aS'14'
p78
aa(lp79
S'dep'
p80
aS'9'
aS'15'
p81
aa(lp82
S'nn'
p83
aS'17'
p84
aS'16'
p85
aa(lp86
S'dep'
p87
aS'9'
aS'17'
p88
aasS'srls'
p89
(lp90
sS'pos_seq'
p91
(lp92
S'NNP'
p93
aS'FW'
p94
aS'NNP'
p95
aS'NNP'
p96
aS'NNP'
p97
aS'NN'
p98
aS':'
aS'NN'
p99
aS'NN'
p100
aS'.'
aS'FW'
p101
aS'FW'
p102
aS'FW'
p103
aS'FW'
p104
aS'FW'
p105
aS'FW'
p106
aS'NN'
p107
asS'ner_seq'
p108
(lp109
S'O'
aS'O'
aS'O'
aS'O'
aS'O'
aS'O'
aS'O'
aS'O'
aS'O'
aS'O'
aS'O'
aS'O'
aS'O'
aS'O'
aS'O'
aS'O'
aS'O'
assb.