ccopy_reg
_reconstructor
p1
(c__main__
KBproperty
p2
c__builtin__
object
p3
NtRp4
(dp5
S'comment'
p6
S'total number of launches resulting in partial failure6867'
p7
sS'domain'
p8
S''
sS'instances_count'
p9
I6
sS'phrases'
p10
NsS'syn_hypo'
p11
S''
sS'label'
p12
S'partial failed launches'
p13
sS'range'
p14
S'non Negative Integer '
p15
sS'uniq_subjs'
p16
S'6'
sS'uniq_objs'
p17
I0
sS'prop_uri'
p18
S'http://dbpedia.org/ontology/partialFailedLaunches'
p19
sS'annotations'
p20
(dp21
S'bag_of_words'
p22
(lp23
S'partial'
p24
aS'failed'
p25
aS'launches'
p26
aS'non'
p27
aS'Negative'
p28
aS'Integer'
p29
aS'total'
p30
aS'number'
p31
aS'of'
p32
aS'launches'
p33
aS'resulting'
p34
aS'in'
p35
aS'partial'
p36
aS'failure6867'
p37
asS'chunk_seq'
p38
(lp39
S'B-NP'
p40
aS'I-NP'
p41
aS'E-NP'
p42
aS'B-NP'
p43
aS'I-NP'
p44
aS'I-NP'
p45
aS'I-NP'
p46
aS'E-NP'
p47
aS'S-PP'
p48
aS'S-NP'
p49
aS'S-VP'
p50
aS'S-PP'
p51
aS'B-NP'
p52
aS'E-NP'
p53
asS'dep_seq'
p54
(lp55
(lp56
S'amod'
p57
aS'3'
aS'1'
aa(lp58
S'amod'
p59
aS'3'
aS'2'
aa(lp60
S'dep'
p61
aS'8'
aS'3'
aa(lp62
S'advmod'
p63
aS'8'
aS'4'
aa(lp64
S'amod'
p65
aS'8'
aS'5'
aa(lp66
S'nn'
p67
aS'8'
aS'6'
aa(lp68
S'amod'
p69
aS'8'
aS'7'
aa(lp70
S'root'
p71
aS'0'
aS'8'
aa(lp72
S'prep_of'
p73
aS'8'
aS'10'
p74
aa(lp75
S'partmod'
p76
aS'10'
p77
aS'11'
p78
aa(lp79
S'amod'
p80
aS'14'
p81
aS'13'
p82
aa(lp83
S'prep_in'
p84
aS'11'
p85
aS'14'
p86
aasS'srls'
p87
(lp88
(dp89
S'A1'
p90
g26
sS'V'
g25
sa(dp91
S'A2'
p92
S'in partial failure6867'
p93
sS'V'
g34
sasS'pos_seq'
p94
(lp95
S'JJ'
p96
aS'VBN'
p97
aS'NNS'
p98
aS'RB'
p99
aS'JJ'
p100
aS'NNP'
p101
aS'JJ'
p102
aS'NN'
p103
aS'IN'
p104
aS'NNS'
p105
aS'VBG'
p106
aS'IN'
p107
aS'JJ'
p108
aS'NN'
p109
asS'ner_seq'
p110
(lp111
S'O'
aS'O'
aS'O'
aS'O'
aS'O'
aS'O'
aS'O'
aS'O'
aS'O'
aS'O'
aS'O'
aS'O'
aS'O'
aS'O'
assb.