ccopy_reg
_reconstructor
p1
(c__main__
KBproperty
p2
c__builtin__
object
p3
NtRp4
(dp5
S'comment'
p6
S'60835671'
p7
sS'domain'
p8
S'Building '
p9
sS'instances_count'
p10
I167
sS'phrases'
p11
NsS'syn_hypo'
p12
S''
sS'label'
p13
S'floor count'
p14
sS'range'
p15
S'positive Integer '
p16
sS'uniq_subjs'
p17
S'167'
p18
sS'uniq_objs'
p19
I0
sS'prop_uri'
p20
S'http://dbpedia.org/ontology/floorCount'
p21
sS'annotations'
p22
(dp23
S'bag_of_words'
p24
(lp25
S'Building'
p26
aS'floor'
p27
aS'count'
p28
aS'positive'
p29
aS'Integer'
p30
aS'60835671'
p31
asS'chunk_seq'
p32
(lp33
S'B-NP'
p34
aS'E-NP'
p35
aS'S-VP'
p36
aS'B-NP'
p37
aS'E-NP'
p38
aS'O'
asS'dep_seq'
p39
(lp40
(lp41
S'amod'
p42
aS'2'
aS'1'
aa(lp43
S'nsubj'
p44
aS'3'
aS'2'
aa(lp45
S'root'
p46
aS'0'
aS'3'
aa(lp47
S'amod'
p48
aS'5'
aS'4'
aa(lp49
S'dobj'
p50
aS'3'
aS'5'
aa(lp51
S'punct'
p52
aS'5'
aS'6'
aasS'srls'
p53
(lp54
(dp55
S'A1'
p56
S'floor count positive Integer 60835671'
p57
sS'V'
g26
sa(dp58
S'A1'
p59
S'positive Integer 60835671'
p60
sS'A0'
p61
S'Building floor'
p62
sS'V'
g28
sasS'pos_seq'
p63
(lp64
S'VBG'
p65
aS'NN'
p66
aS'VBP'
p67
aS'JJ'
p68
aS'NNP'
p69
aS'.'
asS'ner_seq'
p70
(lp71
S'O'
aS'O'
aS'O'
aS'O'
aS'O'
aS'O'
assb.