ccopy_reg
_reconstructor
p1
(c__main__
KBproperty
p2
c__builtin__
object
p3
NtRp4
(dp5
S'comment'
p6
S'80758002'
p7
sS'domain'
p8
S''
sS'instances_count'
p9
I1094
sS'phrases'
p10
NsS'syn_hypo'
p11
S''
sS'label'
p12
S'intercommunality'
p13
sS'range'
p14
S'Populated Place '
p15
sS'uniq_subjs'
p16
S'1094'
p17
sS'uniq_objs'
p18
I0
sS'prop_uri'
p19
S'http://dbpedia.org/ontology/intercommunality'
p20
sS'annotations'
p21
(dp22
S'bag_of_words'
p23
(lp24
S'intercommunality'
p25
aS'Populated'
p26
aS'Place'
p27
aS'80758002'
p28
asS'chunk_seq'
p29
(lp30
S'B-NP'
p31
aS'I-NP'
p32
aS'I-NP'
p33
aS'E-NP'
p34
asS'dep_seq'
p35
(lp36
(lp37
S'dep'
p38
aS'4'
aS'1'
aa(lp39
S'amod'
p40
aS'4'
aS'2'
aa(lp41
S'nn'
p42
aS'4'
aS'3'
aa(lp43
S'root'
p44
aS'0'
aS'4'
aasS'srls'
p45
(lp46
(dp47
S'A1'
p48
S'Place 80758002'
p49
sS'V'
g26
sasS'pos_seq'
p50
(lp51
S'SYM'
p52
aS'VBN'
p53
aS'NN'
p54
aS'NN'
p55
asS'ner_seq'
p56
(lp57
S'O'
aS'O'
aS'O'
aS'O'
assb.