ccopy_reg
_reconstructor
p1
(c__main__
KBproperty
p2
c__builtin__
object
p3
NtRp4
(dp5
S'comment'
p6
S"holiday 'A day of celebration associated with the entity. Applies to Saint School etc2724"
p7
sS'domain'
p8
S''
sS'instances_count'
p9
I27
sS'phrases'
p10
NsS'syn_hypo'
p11
S''
sS'label'
p12
S'feast day'
p13
sS'range'
p14
S'date '
p15
sS'uniq_subjs'
p16
S'26'
p17
sS'uniq_objs'
p18
I0
sS'prop_uri'
p19
S'http://dbpedia.org/ontology/feastDay'
p20
sS'annotations'
p21
(dp22
S'bag_of_words'
p23
(lp24
S'feast'
p25
aS'day'
p26
aS'date'
p27
aS'holiday'
p28
aS"'A"
p29
aS'day'
p30
aS'of'
p31
aS'celebration'
p32
aS'associated'
p33
aS'with'
p34
aS'the'
p35
aS'entity'
p36
aS'.'
aS'Applies'
p37
aS'to'
p38
aS'Saint'
p39
aS'School'
p40
aS'etc2724'
p41
asS'chunk_seq'
p42
(lp43
S'B-NP'
p44
aS'I-NP'
p45
aS'E-NP'
p46
aS'B-NP'
p47
aS'I-NP'
p48
aS'E-NP'
p49
aS'S-PP'
p50
aS'S-NP'
p51
aS'S-VP'
p52
aS'S-PP'
p53
aS'B-NP'
p54
aS'E-NP'
p55
aS'O'
aS'S-VP'
p56
aS'S-PP'
p57
aS'B-NP'
p58
aS'E-NP'
p59
aS'S-ADJP'
p60
asS'dep_seq'
p61
(lp62
(lp63
S'nn'
p64
aS'3'
aS'1'
aa(lp65
S'nn'
p66
aS'3'
aS'2'
aa(lp67
S'root'
p68
aS'0'
aS'3'
aa(lp69
S'nn'
p70
aS'6'
aS'4'
aa(lp71
S'nn'
p72
aS'6'
aS'5'
aa(lp73
S'dep'
p74
aS'3'
aS'6'
aa(lp75
S'prep_of'
p76
aS'6'
aS'8'
aa(lp77
S'partmod'
p78
aS'8'
aS'9'
aa(lp79
S'det'
p80
aS'12'
p81
aS'11'
p82
aa(lp83
S'prep_with'
p84
aS'9'
aS'12'
p85
aa(lp86
S'dep'
p87
aS'3'
aS'14'
p88
aa(lp89
S'nn'
p90
aS'17'
p91
aS'16'
p92
aa(lp93
S'prep_to'
p94
aS'14'
p95
aS'17'
p96
aa(lp97
S'punct'
p98
aS'17'
p99
aS'18'
p100
aasS'srls'
p101
(lp102
(dp103
S'A1'
p104
S"holiday 'A day of celebration"
p105
sS'A2'
p106
S'with the entity'
p107
sS'AM-TMP'
p108
S'feast day date'
p109
sS'V'
g33
sa(dp110
S'A1'
p111
S"holiday 'A day of celebration"
p112
sS'A2'
p113
S'to Saint School etc2724'
p114
sS'AM-TMP'
p115
S'feast day date'
p116
sS'V'
g37
sasS'pos_seq'
p117
(lp118
S'NN'
p119
aS'NN'
p120
aS'NN'
p121
aS'NN'
p122
aS'NNP'
p123
aS'NN'
p124
aS'IN'
p125
aS'NN'
p126
aS'VBN'
p127
aS'IN'
p128
aS'DT'
p129
aS'NN'
p130
aS'.'
aS'VBZ'
p131
aS'TO'
p132
aS'NNP'
p133
aS'NNP'
p134
aS'.'
asS'ner_seq'
p135
(lp136
S'O'
aS'O'
aS'O'
aS'O'
aS'O'
aS'O'
aS'O'
aS'O'
aS'O'
aS'O'
aS'O'
aS'O'
aS'O'
aS'O'
aS'O'
aS'O'
aS'O'
aS'O'
assb.