ccopy_reg
_reconstructor
p1
(c__main__
KBproperty
p2
c__builtin__
object
p3
NtRp4
(dp5
S'comment'
p6
S'1017810175'
p7
sS'domain'
p8
S''
sS'instances_count'
p9
I1273
sS'phrases'
p10
NsS'syn_hypo'
p11
S''
sS'label'
p12
S'percentage of area water'
p13
sS'range'
p14
S'float '
p15
sS'uniq_subjs'
p16
S'1273'
p17
sS'uniq_objs'
p18
I0
sS'prop_uri'
p19
S'http://dbpedia.org/ontology/percentageOfAreaWater'
p20
sS'annotations'
p21
(dp22
S'bag_of_words'
p23
(lp24
S'percentage'
p25
aS'of'
p26
aS'area'
p27
aS'water'
p28
aS'float'
p29
aS'1017810175'
p30
asS'chunk_seq'
p31
(lp32
S'S-NP'
p33
aS'S-PP'
p34
aS'B-NP'
p35
aS'I-NP'
p36
aS'E-NP'
p37
aS'S-ADJP'
p38
asS'dep_seq'
p39
(lp40
(lp41
S'root'
p42
aS'0'
aS'1'
aa(lp43
S'nn'
p44
aS'5'
aS'3'
aa(lp45
S'nn'
p46
aS'5'
aS'4'
aa(lp47
S'prep_of'
p48
aS'1'
aS'5'
aa(lp49
S'punct'
p50
aS'5'
aS'6'
aasS'srls'
p51
(lp52
sS'pos_seq'
p53
(lp54
S'NN'
p55
aS'IN'
p56
aS'NN'
p57
aS'NN'
p58
aS'NN'
p59
aS'.'
asS'ner_seq'
p60
(lp61
S'O'
aS'O'
aS'O'
aS'O'
aS'O'
aS'O'
assb.