ccopy_reg
_reconstructor
p1
(c__main__
KBproperty
p2
c__builtin__
object
p3
NtRp4
(dp5
S'comment'
p6
S'The out written call sign.1280910065'
p7
sS'domain'
p8
S'Broadcaster '
p9
sS'instances_count'
p10
I11008
sS'phrases'
p11
NsS'syn_hypo'
p12
S''
sS'label'
p13
S'call sign meaning'
p14
sS'range'
p15
S'string '
p16
sS'uniq_subjs'
p17
S'11008'
p18
sS'uniq_objs'
p19
I0
sS'prop_uri'
p20
S'http://dbpedia.org/ontology/callsignMeaning'
p21
sS'annotations'
p22
(dp23
S'bag_of_words'
p24
(lp25
S'Broadcaster'
p26
aS'call'
p27
aS'sign'
p28
aS'meaning'
p29
aS'string'
p30
aS'The'
p31
aS'out'
p32
aS'written'
p33
aS'call'
p34
aS'sign.1280910065'
p35
asS'chunk_seq'
p36
(lp37
S'S-NP'
p38
aS'S-VP'
p39
aS'B-NP'
p40
aS'I-NP'
p41
aS'E-NP'
p42
aS'B-NP'
p43
aS'I-NP'
p44
aS'I-NP'
p45
aS'I-NP'
p46
aS'E-NP'
p47
asS'dep_seq'
p48
(lp49
(lp50
S'nsubj'
p51
aS'2'
aS'1'
aa(lp52
S'root'
p53
aS'0'
aS'2'
aa(lp54
S'nn'
p55
aS'10'
p56
aS'3'
aa(lp57
S'nn'
p58
aS'10'
p59
aS'4'
aa(lp60
S'nn'
p61
aS'10'
p62
aS'5'
aa(lp63
S'det'
p64
aS'10'
p65
aS'6'
aa(lp66
S'amod'
p67
aS'10'
p68
aS'7'
aa(lp69
S'amod'
p70
aS'10'
p71
aS'8'
aa(lp72
S'nn'
p73
aS'10'
p74
aS'9'
aa(lp75
S'dep'
p76
aS'2'
aS'10'
p77
aasS'srls'
p78
(lp79
(dp80
S'A0'
p81
g26
sS'V'
g27
sasS'pos_seq'
p82
(lp83
S'NNP'
p84
aS'VBP'
p85
aS'NN'
p86
aS'NN'
p87
aS'NN'
p88
aS'DT'
p89
aS'IN'
p90
aS'JJ'
p91
aS'NN'
p92
aS'NN'
p93
asS'ner_seq'
p94
(lp95
S'O'
aS'O'
aS'O'
aS'O'
aS'O'
aS'O'
aS'O'
aS'O'
aS'O'
aS'O'
assb.