ccopy_reg
_reconstructor
p1
(c__main__
KBproperty
p2
c__builtin__
object
p3
NtRp4
(dp5
S'comment'
p6
S'1342511139'
p7
sS'domain'
p8
S'Infrastructure '
p9
sS'instances_count'
p10
I4748
sS'phrases'
p11
NsS'syn_hypo'
p12
Videntityoperatoridentity_elementoperatoridentity_operatoroperatorlinear_operator
p13
sS'label'
p14
S'operator'
p15
sS'range'
p16
S'Organisation '
p17
sS'uniq_subjs'
p18
S'4748'
p19
sS'uniq_objs'
p20
I0
sS'prop_uri'
p21
S'http://dbpedia.org/ontology/operator'
p22
sS'annotations'
p23
(dp24
S'bag_of_words'
p25
(lp26
S'Infrastructure'
p27
aS'operator'
p28
aS'Organisation'
p29
aS'1342511139'
p30
asS'chunk_seq'
p31
(lp32
S'B-NP'
p33
aS'I-NP'
p34
aS'E-NP'
p35
aS'S-ADJP'
p36
asS'dep_seq'
p37
(lp38
(lp39
S'nn'
p40
aS'3'
aS'1'
aa(lp41
S'nn'
p42
aS'3'
aS'2'
aa(lp43
S'root'
p44
aS'0'
aS'3'
aa(lp45
S'punct'
p46
aS'3'
aS'4'
aasS'srls'
p47
(lp48
sS'pos_seq'
p49
(lp50
S'NN'
p51
aS'NN'
p52
aS'NNP'
p53
aS'.'
asS'ner_seq'
p54
(lp55
S'O'
aS'O'
aS'S-ORG'
p56
aS'O'
assb.