ccopy_reg
_reconstructor
p1
(c__main__
KBproperty
p2
c__builtin__
object
p3
NtRp4
(dp5
S'comment'
p6
S'Year of reopening the architectural structure.129124'
p7
sS'domain'
p8
S'Architectural Structure '
p9
sS'instances_count'
p10
I57
sS'phrases'
p11
NsS'syn_hypo'
p12
S''
sS'label'
p13
S'reopening year'
p14
sS'range'
p15
S'g Year '
p16
sS'uniq_subjs'
p17
S'57'
p18
sS'uniq_objs'
p19
I0
sS'prop_uri'
p20
S'http://dbpedia.org/ontology/reopeningYear'
p21
sS'annotations'
p22
(dp23
S'bag_of_words'
p24
(lp25
S'Architectural'
p26
aS'Structure'
p27
aS'reopening'
p28
aS'year'
p29
aS'g'
aS'Year'
p30
aS'Year'
p31
aS'of'
p32
aS'reopening'
p33
aS'the'
p34
aS'architectural'
p35
aS'structure.129124'
p36
asS'chunk_seq'
p37
(lp38
S'B-NP'
p39
aS'E-NP'
p40
aS'S-VP'
p41
aS'B-NP'
p42
aS'I-NP'
p43
aS'I-NP'
p44
aS'E-NP'
p45
aS'S-PP'
p46
aS'S-VP'
p47
aS'B-NP'
p48
aS'I-NP'
p49
aS'E-NP'
p50
asS'dep_seq'
p51
(lp52
(lp53
S'amod'
p54
aS'2'
aS'1'
aa(lp55
S'root'
p56
aS'0'
aS'2'
aa(lp57
S'partmod'
p58
aS'2'
aS'3'
aa(lp59
S'nn'
p60
aS'7'
aS'4'
aa(lp61
S'nn'
p62
aS'7'
aS'5'
aa(lp63
S'nn'
p64
aS'7'
aS'6'
aa(lp65
S'tmod'
p66
aS'3'
aS'7'
aa(lp67
S'prepc_of'
p68
aS'2'
aS'9'
aa(lp69
S'det'
p70
aS'12'
p71
aS'10'
p72
aa(lp73
S'amod'
p74
aS'12'
p75
aS'11'
p76
aa(lp77
S'dobj'
p78
aS'9'
aS'12'
p79
aasS'srls'
p80
(lp81
(dp82
S'A0'
p83
S'Architectural Structure'
p84
sS'AM-TMP'
p85
S'year g Year Year of reopening the architectural structure.129124'
p86
sS'V'
g28
sa(dp87
S'A1'
p88
S'the architectural structure.129124'
p89
sS'V'
g33
sasS'pos_seq'
p90
(lp91
S'JJ'
p92
aS'NN'
p93
aS'VBG'
p94
aS'NN'
p95
aS'NN'
p96
aS'NN'
p97
aS'NN'
p98
aS'IN'
p99
aS'VBG'
p100
aS'DT'
p101
aS'JJ'
p102
aS'NN'
p103
asS'ner_seq'
p104
(lp105
S'O'
aS'O'
aS'O'
aS'O'
aS'O'
aS'O'
aS'O'
aS'O'
aS'O'
aS'O'
aS'O'
aS'O'
assb.