ccopy_reg
_reconstructor
p1
(c__main__
KBproperty
p2
c__builtin__
object
p3
NtRp4
(dp5
S'comment'
p6
S'The general direction of the route eg. North-South.00'
p7
sS'domain'
p8
S'Route Of Transportation '
p9
sS'instances_count'
p10
I0
sS'phrases'
p11
NsS'syn_hypo'
p12
S''
sS'label'
p13
S'route direction'
p14
sS'range'
p15
S'string '
p16
sS'uniq_subjs'
p17
S'0'
sS'uniq_objs'
p18
I0
sS'prop_uri'
p19
S'http://dbpedia.org/ontology/routeDirection'
p20
sS'annotations'
p21
(dp22
S'bag_of_words'
p23
(lp24
S'Route'
p25
aS'Of'
p26
aS'Transportation'
p27
aS'route'
p28
aS'direction'
p29
aS'string'
p30
aS'The'
p31
aS'general'
p32
aS'direction'
p33
aS'of'
p34
aS'the'
p35
aS'route'
p36
aS'eg.'
p37
aS'North-South'
p38
aS'.00'
p39
asS'chunk_seq'
p40
(lp41
S'S-NP'
p42
aS'S-PP'
p43
aS'S-NP'
p44
aS'B-NP'
p45
aS'E-NP'
p46
aS'S-VP'
p47
aS'B-NP'
p48
aS'I-NP'
p49
aS'E-NP'
p50
aS'S-PP'
p51
aS'B-NP'
p52
aS'E-NP'
p53
aS'S-PP'
p54
aS'B-NP'
p55
aS'E-NP'
p56
asS'dep_seq'
p57
(lp58
(lp59
S'root'
p60
aS'0'
aS'1'
aa(lp61
S'prep_of'
p62
aS'1'
aS'3'
aa(lp63
S'nn'
p64
aS'5'
aS'4'
aa(lp65
S'dep'
p66
aS'1'
aS'5'
aa(lp67
S'partmod'
p68
aS'1'
aS'6'
aa(lp69
S'det'
p70
aS'9'
aS'7'
aa(lp71
S'amod'
p72
aS'9'
aS'8'
aa(lp73
S'dobj'
p74
aS'6'
aS'9'
aa(lp75
S'det'
p76
aS'12'
p77
aS'11'
p78
aa(lp79
S'prep_of'
p80
aS'9'
aS'12'
p81
aa(lp82
S'prep_eg.'
p83
aS'9'
aS'South'
p84
aa(lp85
S'num'
p86
aS'South'
p87
aS'15'
p88
aasS'srls'
p89
(lp90
(dp91
S'A0'
p92
S'Route Of Transportation route direction'
p93
sS'A2'
p94
S'The general direction of the route eg. North-South .00'
p95
sS'V'
g30
sasS'pos_seq'
p96
(lp97
S'NNP'
p98
aS'IN'
p99
aS'NNP'
p100
aS'NN'
p101
aS'NN'
p102
aS'VBG'
p103
aS'DT'
p104
aS'JJ'
p105
aS'NN'
p106
aS'IN'
p107
aS'DT'
p108
aS'NN'
p109
aS'IN'
p110
aS'NNP'
p111
aS'CD'
p112
asS'ner_seq'
p113
(lp114
S'B-ORG'
p115
aS'I-ORG'
p116
aS'E-ORG'
p117
aS'O'
aS'O'
aS'O'
aS'O'
aS'O'
aS'O'
aS'O'
aS'O'
aS'O'
aS'O'
aS'O'
aS'O'
assb.