ccopy_reg
_reconstructor
p1
(c__main__
KBproperty
p2
c__builtin__
object
p3
NtRp4
(dp5
S'comment'
p6
S'Native Resolution00'
p7
sS'domain'
p8
S'Software '
p9
sS'instances_count'
p10
I0
sS'phrases'
p11
NsS'syn_hypo'
p12
Vjoint_resolution
p13
sS'label'
p14
S'resolution'
p15
sS'range'
p16
S''
sS'uniq_subjs'
p17
S'0'
sS'uniq_objs'
p18
I0
sS'prop_uri'
p19
S'http://dbpedia.org/ontology/resolution'
p20
sS'annotations'
p21
(dp22
S'bag_of_words'
p23
(lp24
S'Software'
p25
aS'resolution'
p26
aS'Native'
p27
aS'Resolution00'
p28
asS'chunk_seq'
p29
(lp30
S'B-NP'
p31
aS'I-NP'
p32
aS'I-NP'
p33
aS'E-NP'
p34
asS'dep_seq'
p35
(lp36
(lp37
S'nn'
p38
aS'2'
aS'1'
aa(lp39
S'root'
p40
aS'0'
aS'2'
aa(lp41
S'nn'
p42
aS'4'
aS'3'
aa(lp43
S'dep'
p44
aS'2'
aS'4'
aasS'srls'
p45
(lp46
sS'pos_seq'
p47
(lp48
S'NN'
p49
aS'NN'
p50
aS'NNP'
p51
aS'NNP'
p52
asS'ner_seq'
p53
(lp54
S'O'
aS'O'
aS'O'
aS'S-ORG'
p55
assb.