ccopy_reg
_reconstructor
p1
(c__main__
KBproperty
p2
c__builtin__
object
p3
NtRp4
(dp5
S'comment'
p6
S'382341'
p7
sS'domain'
p8
S'Museum '
p9
sS'instances_count'
p10
I372
sS'phrases'
p11
NsS'syn_hypo'
p12
Vagglomerationcollectionaggregationaccumulationassemblageanacollectionaggregationaccumulationassemblagearmamentariumcollectionaggregationaccumulationassemblageart_collectioncollectionaggregationaccumulationassemblageAsiacollectionaggregationaccumulationassemblageassortmentcollectionaggregationaccumulationassemblagemixturecollectionaggregationaccumulationassemblagemixed_bagcollectionaggregationaccumulationassemblagemiscellanycollectionaggregationaccumulationassemblagemiscellaneacollectionaggregationaccumulationassemblagevarietycollectionaggregationaccumulationassemblagesalmagundicollectionaggregationaccumulationassemblagesmorgasbordcollectionaggregationaccumulationassemblagepotpourricollectionaggregationaccumulationassemblagemotleycollectionaggregationaccumulationassemblageaviationcollectionaggregationaccumulationassemblageair_powercollectionaggregationaccumulationassemblagebacklogcollectionaggregationaccumulationassemblagebatchcollectionaggregationaccumulationassemblagebatchcollectionaggregationaccumulationassemblageclutchcollectionaggregationaccumulationassemblagebatterycollectionaggregationaccumulationassemblagebiotacollectionaggregationaccumulationassemblagebiologycollectionaggregationaccumulationassemblageblockcollectionaggregationaccumulationassemblagebookcollectionaggregationaccumulationassemblagebookcollectionaggregationaccumulationassemblagerule_bookcollectionaggregationaccumulationassemblagebottle_collectioncollectionaggregationaccumulationassemblagebunchcollectionaggregationaccumulationassemblagelotcollectionaggregationaccumulationassemblagecaboodlecollectionaggregationaccumulationassemblageCentral_Americacollectionaggregationaccumulationassemblageclasscollectionaggregationaccumulationassemblagecategorycollectionaggregationaccumulationassemblagefamilycollectionaggregationaccumulationassemblagecoin_collectioncollectionaggregationaccumulationassemblagecollagecollectionaggregationaccumulationassemblagecombinationcollectionaggregationaccumulationassemblagecongregationcollectionaggregationaccumulationassemblagecontentcollectionaggregationaccumulationassemblageconvoycollectionaggregationaccumulationassemblagecorpuscollectionaggregationaccumulationassemblagecropcollectionaggregationaccumulationassemblagedatacollectionaggregationaccumulationassemblageinformationcollectionaggregationaccumulationassemblagedefensecollectionaggregationaccumulationassemblagedefencecollectionaggregationaccumulationassemblagedefense_teamcollectionaggregationaccumulationassemblagedefense_lawyerscollectionaggregationaccumulationassemblageensemblecollectionaggregationaccumulationassemblagetout_ensemblecollectionaggregationaccumulationassemblageEuropecollectionaggregationaccumulationassemblageexhibitioncollectionaggregationaccumulationassemblageexpositioncollectionaggregationaccumulationassemblageexpocollectionaggregationaccumulationassemblagefaunacollectionaggregationaccumulationassemblagezoologycollectionaggregationaccumulationassemblagefindingscollectionaggregationaccumulationassemblageflaggingcollectionaggregationaccumulationassemblagefleetcollectionaggregationaccumulationassemblagefleetcollectionaggregationaccumulationassemblagefleetcollectionaggregationaccumulationassemblageflinderscollectionaggregationaccumulationassemblageFree_Worldcollectionaggregationaccumulationassemblagegalaxycollectionaggregationaccumulationassemblagegalaxycollectionaggregationaccumulationassemblageextragalactic_nebulacollectionaggregationaccumulationassemblagegenerally_accepted_accounting_principlescollectionaggregationaccumulationassemblageGAAPcollectionaggregationaccumulationassemblagegimmickrycollectionaggregationaccumulationassemblagehandcollectionaggregationaccumulationassemblagedealcollectionaggregationaccumulationassemblageherbariumcollectionaggregationaccumulationassemblagehit_paradecollectionaggregationaccumulationassemblagejob_lotcollectionaggregationaccumulationassemblageJudaicacollectionaggregationaccumulationassemblagekludgecollectionaggregationaccumulationassemblagelawcollectionaggregationaccumulationassemblagejurisprudencecollectionaggregationaccumulationassemblagelibrarycollectionaggregationaccumulationassemblagelibrarycollectionaggregationaccumulationassemblageprogram_librarycollectionaggregationaccumulationassemblagesubroutine_librarycollectionaggregationaccumulationassemblagelong_suitcollectionaggregationaccumulationassemblagemailcollectionaggregationaccumulationassemblagepostcollectionaggregationaccumulationassemblagemasscollectionaggregationaccumulationassemblagemenageriecollectionaggregationaccumulationassemblagemythologycollectionaggregationaccumulationassemblageNorth_Americacollectionaggregationaccumulationassemblagenuclear_clubcollectionaggregationaccumulationassemblageOort_cloudcollectionaggregationaccumulationassemblagepackcollectionaggregationaccumulationassemblagepackagecollectionaggregationaccumulationassemblagebundlecollectionaggregationaccumulationassemblagepacketcollectionaggregationaccumulationassemblageparcelcollectionaggregationaccumulationassemblagepantheoncollectionaggregationaccumulationassemblagepetting_zoocollectionaggregationaccumulationassemblagepharmacopoeiacollectionaggregationaccumulationassemblagepilecollectionaggregationaccumulationassemblageheapcollectionaggregationaccumulationassemblagemoundcollectionaggregationaccumulationassemblageagglomeratecollectionaggregationaccumulationassemblagecumulationcollectionaggregationaccumulationassemblagecumuluscollectionaggregationaccumulationassemblageplantingcollectionaggregationaccumulationassemblagepopulationcollectionaggregationaccumulationassemblageuniversecollectionaggregationaccumulationassemblageprocessioncollectionaggregationaccumulationassemblageprosecutioncollectionaggregationaccumulationassemblagerepertoirecollectionaggregationaccumulationassemblagerepertorycollectionaggregationaccumulationassemblagerepertorycollectionaggregationaccumulationassemblagerepertoirecollectionaggregationaccumulationassemblagerogue's_gallerycollectionaggregationaccumulationassemblagesetcollectionaggregationaccumulationassemblagesignagecollectionaggregationaccumulationassemblagesmithereenscollectionaggregationaccumulationassemblageSouth_Americacollectionaggregationaccumulationassemblagestamp_collectioncollectionaggregationaccumulationassemblagestatuarycollectionaggregationaccumulationassemblagestringcollectionaggregationaccumulationassemblagesumcollectionaggregationaccumulationassemblagesummationcollectionaggregationaccumulationassemblagesum_totalcollectionaggregationaccumulationassemblagetenantrycollectionaggregationaccumulationassemblageThird_Worldcollectionaggregationaccumulationassemblagetrafficcollectionaggregationaccumulationassemblagetreasurecollectionaggregationaccumulationassemblagetreasure_trovecollectionaggregationaccumulationassemblagetrinketrycollectionaggregationaccumulationassemblagetroponymycollectionaggregationaccumulationassemblagetroponomycollectionaggregationaccumulationassemblagevegetationcollectionaggregationaccumulationassemblagefloracollectionaggregationaccumulationassemblagebotanycollectionaggregationaccumulationassemblageVictorianacollectionaggregationaccumulationassemblagewardrobecollectionaggregationaccumulationassemblagewardrobe
p13
sS'label'
p14
S'collection'
p15
sS'range'
p16
S'string '
p17
sS'uniq_subjs'
p18
S'372'
p19
sS'uniq_objs'
p20
I0
sS'prop_uri'
p21
S'http://dbpedia.org/ontology/collection'
p22
sS'annotations'
p23
(dp24
S'bag_of_words'
p25
(lp26
S'Museum'
p27
aS'collection'
p28
aS'string'
p29
aS'382341'
p30
asS'chunk_seq'
p31
(lp32
S'B-NP'
p33
aS'I-NP'
p34
aS'I-NP'
p35
aS'E-NP'
p36
asS'dep_seq'
p37
(lp38
(lp39
S'nn'
p40
aS'4'
aS'1'
aa(lp41
S'nn'
p42
aS'4'
aS'2'
aa(lp43
S'nn'
p44
aS'4'
aS'3'
aa(lp45
S'root'
p46
aS'0'
aS'4'
aasS'srls'
p47
(lp48
sS'pos_seq'
p49
(lp50
S'NN'
p51
aS'NN'
p52
aS'NN'
p53
aS'NN'
p54
asS'ner_seq'
p55
(lp56
S'O'
aS'O'
aS'O'
aS'O'
assb.