ccopy_reg
_reconstructor
p1
(c__main__
KBproperty
p2
c__builtin__
object
p3
NtRp4
(dp5
S'comment'
p6
S'Lortel Archives Internet Off-Broadway database "show id" from lortel.org.00'
p7
sS'domain'
p8
S'Play '
p9
sS'instances_count'
p10
I0
sS'phrases'
p11
NsS'syn_hypo'
p12
S''
sS'label'
p13
S'IOBDB ID'
p14
sS'range'
p15
S'string '
p16
sS'uniq_subjs'
p17
S'0'
sS'uniq_objs'
p18
I0
sS'prop_uri'
p19
S'http://dbpedia.org/ontology/iobdbId'
p20
sS'annotations'
p21
(dp22
S'bag_of_words'
p23
(lp24
S'Play'
p25
aS'IOBDB'
p26
aS'ID'
p27
aS'string'
p28
aS'Lortel'
p29
aS'Archives'
p30
aS'Internet'
p31
aS'Off'
p32
aS'-'
aS'Broadway'
p33
aS'database'
p34
aS'"'
aS'show'
p35
aS'id'
p36
aS'"'
aS'from'
p37
aS'lortel'
p38
aS'.org'
p39
aS'.00'
p40
asS'chunk_seq'
p41
(lp42
S'S-VP'
p43
aS'B-NP'
p44
aS'I-NP'
p45
aS'I-NP'
p46
aS'I-NP'
p47
aS'I-NP'
p48
aS'I-NP'
p49
aS'I-NP'
p50
aS'I-NP'
p51
aS'I-NP'
p52
aS'E-NP'
p53
aS'S-NP'
p54
aS'S-VP'
p55
aS'B-NP'
p56
aS'E-NP'
p57
aS'S-PP'
p58
aS'S-NP'
p59
aS'S-VP'
p60
aS'O'
asS'dep_seq'
p61
(lp62
(lp63
S'root'
p64
aS'0'
aS'1'
aa(lp65
S'nn'
p66
aS'8'
aS'2'
aa(lp67
S'nn'
p68
aS'8'
aS'3'
aa(lp69
S'nn'
p70
aS'8'
aS'4'
aa(lp71
S'nn'
p72
aS'8'
aS'5'
aa(lp73
S'nn'
p74
aS'8'
aS'6'
aa(lp75
S'nn'
p76
aS'8'
aS'7'
aa(lp77
S'dobj'
p78
aS'1'
aS'8'
aa(lp79
S'nn'
p80
aS'11'
p81
aS'10'
p82
aa(lp83
S'dep'
p84
aS'8'
aS'11'
p85
aa(lp86
S'dep'
p87
aS'13'
p88
aS'12'
p89
aa(lp90
S'dep'
p91
aS'11'
p92
aS'13'
p93
aa(lp94
S'nn'
p95
aS'15'
p96
aS'14'
p97
aa(lp98
S'dobj'
p99
aS'13'
p100
aS'15'
p101
aa(lp102
S'prep_from'
p103
aS'15'
p104
aS'17'
p105
aa(lp106
S'amod'
p107
aS'17'
p108
aS'18'
p109
aa(lp110
S'num'
p111
aS'17'
p112
aS'19'
p113
aasS'srls'
p114
(lp115
(dp116
S'A1'
p117
S'IOBDB ID string Lortel Archives Internet Off - Broadway database " show id " from lortel .org .00'
p118
sS'V'
g25
sa(dp119
S'A1'
p120
S'id " from lortel .org .00'
p121
sS'A0'
p122
S'IOBDB ID string Lortel Archives Internet Off - Broadway database'
p123
sS'V'
g35
sasS'pos_seq'
p124
(lp125
S'VB'
p126
aS'NNP'
p127
aS'NNP'
p128
aS'NN'
p129
aS'NNP'
p130
aS'NNP'
p131
aS'NNP'
p132
aS'NNP'
p133
aS':'
aS'NNP'
p134
aS'NN'
p135
aS'WDT'
p136
aS'VBP'
p137
aS'NN'
p138
aS'NN'
p139
aS'IN'
p140
aS'NN'
p141
aS'VBN'
p142
aS'CD'
p143
asS'ner_seq'
p144
(lp145
S'O'
aS'S-MISC'
p146
aS'O'
aS'O'
aS'B-ORG'
p147
aS'I-ORG'
p148
aS'I-ORG'
p149
aS'I-ORG'
p150
aS'I-ORG'
p151
aS'E-ORG'
p152
aS'O'
aS'O'
aS'O'
aS'O'
aS'O'
aS'O'
aS'O'
aS'O'
aS'O'
assb.