ccopy_reg
_reconstructor
p1
(c__main__
KBproperty
p2
c__builtin__
object
p3
NtRp4
(dp5
S'comment'
p6
S'25842512'
p7
sS'domain'
p8
S'Place '
p9
sS'instances_count'
p10
I1519
sS'phrases'
p11
NsS'syn_hypo'
p12
V
sS'label'
p13
S'river'
p14
sS'range'
p15
S'River '
p16
sS'uniq_subjs'
p17
S'1519'
p18
sS'uniq_objs'
p19
I0
sS'prop_uri'
p20
S'http://dbpedia.org/ontology/river'
p21
sS'annotations'
p22
(dp23
S'bag_of_words'
p24
(lp25
S'Place'
p26
aS'river'
p27
aS'River'
p28
aS'25842512'
p29
asS'chunk_seq'
p30
(lp31
S'B-NP'
p32
aS'I-NP'
p33
aS'I-NP'
p34
aS'E-NP'
p35
asS'dep_seq'
p36
(lp37
(lp38
S'nn'
p39
aS'4'
aS'1'
aa(lp40
S'nn'
p41
aS'4'
aS'2'
aa(lp42
S'nn'
p43
aS'4'
aS'3'
aa(lp44
S'root'
p45
aS'0'
aS'4'
aasS'srls'
p46
(lp47
sS'pos_seq'
p48
(lp49
S'NN'
p50
aS'NN'
p51
aS'NN'
p52
aS'NN'
p53
asS'ner_seq'
p54
(lp55
S'B-LOC'
p56
aS'I-LOC'
p57
aS'E-LOC'
p58
aS'O'
assb.