ccopy_reg
_reconstructor
p1
(c__main__
KBproperty
p2
c__builtin__
object
p3
NtRp4
(dp5
S'comment'
p6
S'mills code from the Belgian database on mills00'
p7
sS'domain'
p8
S'Mill '
p9
sS'instances_count'
p10
I0
sS'phrases'
p11
NsS'syn_hypo'
p12
S''
sS'label'
p13
S'mill code BE'
p14
sS'range'
p15
S'string '
p16
sS'uniq_subjs'
p17
S'0'
sS'uniq_objs'
p18
I0
sS'prop_uri'
p19
S'http://dbpedia.org/ontology/millsCodeBE'
p20
sS'annotations'
p21
(dp22
S'bag_of_words'
p23
(lp24
S'Mill'
p25
aS'mill'
p26
aS'code'
p27
aS'BE'
p28
aS'string'
p29
aS'mills'
p30
aS'code'
p31
aS'from'
p32
aS'the'
p33
aS'Belgian'
p34
aS'database'
p35
aS'on'
p36
aS'mills00'
p37
asS'chunk_seq'
p38
(lp39
S'B-NP'
p40
aS'I-NP'
p41
aS'E-NP'
p42
aS'S-VP'
p43
aS'B-NP'
p44
aS'I-NP'
p45
aS'E-NP'
p46
aS'S-PP'
p47
aS'B-NP'
p48
aS'I-NP'
p49
aS'E-NP'
p50
aS'S-PP'
p51
aS'S-NP'
p52
asS'dep_seq'
p53
(lp54
(lp55
S'nn'
p56
aS'7'
aS'1'
aa(lp57
S'nn'
p58
aS'7'
aS'2'
aa(lp59
S'nn'
p60
aS'7'
aS'3'
aa(lp61
S'dep'
p62
aS'7'
aS'4'
aa(lp63
S'nn'
p64
aS'7'
aS'5'
aa(lp65
S'nn'
p66
aS'7'
aS'6'
aa(lp67
S'root'
p68
aS'0'
aS'7'
aa(lp69
S'det'
p70
aS'11'
p71
aS'9'
aa(lp72
S'amod'
p73
aS'11'
p74
aS'10'
p75
aa(lp76
S'prep_from'
p77
aS'7'
aS'11'
p78
aa(lp79
S'prep_on'
p80
aS'7'
aS'13'
p81
aasS'srls'
p82
(lp83
sS'pos_seq'
p84
(lp85
S'NN'
p86
aS'NN'
p87
aS'NN'
p88
aS'VB'
p89
aS'NN'
p90
aS'NNS'
p91
aS'NN'
p92
aS'IN'
p93
aS'DT'
p94
aS'JJ'
p95
aS'NN'
p96
aS'IN'
p97
aS'NN'
p98
asS'ner_seq'
p99
(lp100
S'O'
aS'O'
aS'O'
aS'O'
aS'O'
aS'O'
aS'O'
aS'O'
aS'O'
aS'S-MISC'
p101
aS'O'
aS'O'
aS'O'
assb.