ccopy_reg
_reconstructor
p1
(c__main__
KBproperty
p2
c__builtin__
object
p3
NtRp4
(dp5
S'comment'
p6
S'end date and time'
p7
sS'domain'
p8
S'Event '
p9
sS'instances_count'
p10
I0
sS'phrases'
p11
NsS'syn_hypo'
p12
S''
sS'label'
p13
g7
sS'range'
p14
S'date Time '
p15
sS'uniq_subjs'
p16
S'0'
sS'uniq_objs'
p17
I0
sS'prop_uri'
p18
S'http://dbpedia.org/ontology/endDateTime'
p19
sS'annotations'
p20
(dp21
S'bag_of_words'
p22
(lp23
S'Event'
p24
aS'end'
p25
aS'Date'
p26
aS'Time'
p27
aS'date'
p28
aS'Time'
p29
aS'end'
p30
aS'date'
p31
aS'and'
p32
aS'time'
p33
asS'chunk_seq'
p34
(lp35
S'B-NP'
p36
aS'I-NP'
p37
aS'E-NP'
p38
aS'B-NP'
p39
aS'E-NP'
p40
aS'S-NP'
p41
aS'B-NP'
p42
aS'E-NP'
p43
aS'O'
aS'S-NP'
p44
asS'dep_seq'
p45
(lp46
(lp47
S'nn'
p48
aS'3'
aS'1'
aa(lp49
S'nn'
p50
aS'3'
aS'2'
aa(lp51
S'dep'
p52
aS'7'
aS'3'
aa(lp53
S'nn'
p54
aS'5'
aS'4'
aa(lp55
S'dep'
p56
aS'3'
aS'5'
aa(lp57
S'nn'
p58
aS'7'
aS'6'
aa(lp59
S'root'
p60
aS'0'
aS'7'
aa(lp61
S'dep'
p62
aS'7'
aS'8'
aa(lp63
S'conj_and'
p64
aS'8'
aS'10'
p65
aasS'srls'
p66
(lp67
sS'pos_seq'
p68
(lp69
S'NN'
p70
aS'NN'
p71
aS'NN'
p72
aS'NN'
p73
aS'NN'
p74
aS'NNP'
p75
aS'NN'
p76
aS'NN'
p77
aS'CC'
p78
aS'NN'
p79
asS'ner_seq'
p80
(lp81
S'O'
aS'O'
aS'O'
aS'O'
aS'O'
aS'O'
aS'O'
aS'O'
aS'O'
aS'O'
assb.