ccopy_reg
_reconstructor
p1
(c__main__
KBproperty
p2
c__builtin__
object
p3
NtRp4
(dp5
S'comment'
p6
S'diameter \\xce\\xbc'
p7
sS'domain'
p8
S''
sS'instances_count'
p9
I612
sS'phrases'
p10
NsS'syn_hypo'
p11
S''
sS'label'
p12
g7
sS'range'
p13
S'double '
p14
sS'uniq_subjs'
p15
S'612'
p16
sS'uniq_objs'
p17
I0
sS'prop_uri'
p18
S'http://dbpedia.org/ontology/diameter'
p19
sS'annotations'
p20
(dp21
S'bag_of_words'
p22
(lp23
S'diameter'
p24
aS'double'
p25
aS'diameter'
p26
aS'\\'
aS'xce'
p27
aS'\\'
aS'xbc'
p28
asS'chunk_seq'
p29
(lp30
S'O'
aS'O'
aS'O'
aS'O'
aS'O'
aS'O'
aS'O'
asS'dep_seq'
p31
(lp32
(lp33
S'nn'
p34
aS'7'
aS'1'
aa(lp35
S'nn'
p36
aS'7'
aS'2'
aa(lp37
S'nn'
p38
aS'7'
aS'3'
aa(lp39
S'nn'
p40
aS'7'
aS'4'
aa(lp41
S'nn'
p42
aS'7'
aS'5'
aa(lp43
S'nn'
p44
aS'7'
aS'6'
aa(lp45
S'root'
p46
aS'0'
aS'7'
aasS'srls'
p47
(lp48
sS'pos_seq'
p49
(lp50
S'FW'
p51
aS'FW'
p52
aS'FW'
p53
aS'FW'
p54
aS'FW'
p55
aS'FW'
p56
aS'FW'
p57
asS'ner_seq'
p58
(lp59
S'O'
aS'O'
aS'O'
aS'O'
aS'O'
aS'O'
aS'O'
assb.