ccopy_reg
_reconstructor
p1
(c__main__
KBproperty
p2
c__builtin__
object
p3
NtRp4
(dp5
S'comment'
p6
S'Identify which company or entity holds the licence mostly string are used in Wikipedia therefore range is xsd:sting.89218832'
p7
sS'domain'
p8
S''
sS'instances_count'
p9
I8921
sS'phrases'
p10
NsS'syn_hypo'
p11
V
sS'label'
p12
S'licensee'
p13
sS'range'
p14
S'string '
p15
sS'uniq_subjs'
p16
S'3879'
p17
sS'uniq_objs'
p18
I0
sS'prop_uri'
p19
S'http://dbpedia.org/ontology/licensee'
p20
sS'annotations'
p21
(dp22
S'bag_of_words'
p23
(lp24
S'licensee'
p25
aS'string'
p26
aS'Identify'
p27
aS'which'
p28
aS'company'
p29
aS'or'
p30
aS'entity'
p31
aS'holds'
p32
aS'the'
p33
aS'licence'
p34
aS'mostly'
p35
aS'string'
p36
aS'are'
p37
aS'used'
p38
aS'in'
p39
aS'Wikipedia'
p40
aS'therefore'
p41
aS'range'
p42
aS'is'
p43
aS'xsd'
p44
aS':'
aS'sting.89218832'
p45
asS'chunk_seq'
p46
(lp47
S'B-NP'
p48
aS'I-NP'
p49
aS'I-NP'
p50
aS'I-NP'
p51
aS'I-NP'
p52
aS'I-NP'
p53
aS'E-NP'
p54
aS'S-VP'
p55
aS'B-NP'
p56
aS'E-NP'
p57
aS'B-NP'
p58
aS'E-NP'
p59
aS'B-VP'
p60
aS'E-VP'
p61
aS'S-PP'
p62
aS'S-NP'
p63
aS'S-ADVP'
p64
aS'S-NP'
p65
aS'S-VP'
p66
aS'S-ADJP'
p67
aS'O'
aS'S-NP'
p68
asS'dep_seq'
p69
(lp70
(lp71
S'nn'
p72
aS'5'
aS'1'
aa(lp73
S'nn'
p74
aS'5'
aS'2'
aa(lp75
S'nn'
p76
aS'5'
aS'3'
aa(lp77
S'dep'
p78
aS'5'
aS'4'
aa(lp79
S'nsubj'
p80
aS'20'
p81
aS'5'
aa(lp82
S'conj_or'
p83
aS'5'
aS'7'
aa(lp84
S'dep'
p85
aS'20'
p86
aS'8'
aa(lp87
S'det'
p88
aS'12'
p89
aS'9'
aa(lp90
S'nn'
p91
aS'12'
p92
aS'10'
p93
aa(lp94
S'advmod'
p95
aS'12'
p96
aS'11'
p97
aa(lp98
S'nsubj'
p99
aS'20'
p100
aS'12'
p101
aa(lp102
S'dep'
p103
aS'20'
p104
aS'13'
p105
aa(lp106
S'dep'
p107
aS'20'
p108
aS'14'
p109
aa(lp110
S'prep_in'
p111
aS'20'
p112
aS'16'
p113
aa(lp114
S'advmod'
p115
aS'20'
p116
aS'17'
p117
aa(lp118
S'dep'
p119
aS'20'
p120
aS'18'
p121
aa(lp122
S'cop'
p123
aS'20'
p124
aS'19'
p125
aa(lp126
S'root'
p127
aS'0'
aS'20'
p128
aa(lp129
S'dep'
p130
aS'20'
p131
aS'22'
p132
aasS'srls'
p133
(lp134
(dp135
S'A1'
p136
S'the licence'
p137
sS'A0'
p138
S'licensee string Identify which company or entity'
p139
sS'V'
g32
sa(dp140
S'AM-LOC'
p141
S'in Wikipedia'
p142
sS'V'
g38
sasS'pos_seq'
p143
(lp144
S'NN'
p145
aS'NN'
p146
aS'NNP'
p147
aS'WDT'
p148
aS'NN'
p149
aS'CC'
p150
aS'NN'
p151
aS'VBZ'
p152
aS'DT'
p153
aS'NN'
p154
aS'RB'
p155
aS'NN'
p156
aS'VBP'
p157
aS'VBN'
p158
aS'IN'
p159
aS'NNP'
p160
aS'RB'
p161
aS'NN'
p162
aS'VBZ'
p163
aS'JJ'
p164
aS':'
aS'NN'
p165
asS'ner_seq'
p166
(lp167
S'O'
aS'O'
aS'O'
aS'O'
aS'O'
aS'O'
aS'O'
aS'O'
aS'O'
aS'O'
aS'O'
aS'O'
aS'O'
aS'O'
aS'O'
aS'S-LOC'
p168
aS'O'
aS'O'
aS'O'
aS'O'
aS'O'
aS'O'
assb.