ccopy_reg
_reconstructor
p1
(c__main__
KBproperty
p2
c__builtin__
object
p3
NtRp4
(dp5
S'comment'
p6
S'4579432401'
p7
sS'domain'
p8
S''
sS'instances_count'
p9
I20011
sS'phrases'
p10
NsS'syn_hypo'
p11
S''
sS'label'
p12
S'order in office'
p13
sS'range'
p14
S'string '
p15
sS'uniq_subjs'
p16
S'20011'
p17
sS'uniq_objs'
p18
I0
sS'prop_uri'
p19
S'http://dbpedia.org/ontology/orderInOffice'
p20
sS'annotations'
p21
(dp22
S'bag_of_words'
p23
(lp24
S'order'
p25
aS'in'
p26
aS'office'
p27
aS'string'
p28
aS'4579432401'
p29
asS'chunk_seq'
p30
(lp31
S'O'
aS'S-PP'
p32
aS'B-NP'
p33
aS'I-NP'
p34
aS'E-NP'
p35
asS'dep_seq'
p36
(lp37
(lp38
S'root'
p39
aS'0'
aS'1'
aa(lp40
S'nn'
p41
aS'5'
aS'3'
aa(lp42
S'nn'
p43
aS'5'
aS'4'
aa(lp44
S'prep_in'
p45
aS'1'
aS'5'
aasS'srls'
p46
(lp47
sS'pos_seq'
p48
(lp49
S'NN'
p50
aS'IN'
p51
aS'NN'
p52
aS'NN'
p53
aS'NN'
p54
asS'ner_seq'
p55
(lp56
S'O'
aS'O'
aS'O'
aS'O'
aS'O'
assb.