ccopy_reg
_reconstructor
p1
(c__main__
KBproperty
p2
c__builtin__
object
p3
NtRp4
(dp5
S'comment'
p6
S'Rijksbureau voor Kunsthistorische Documentatie RKD artists database id.\\nhttp://rkd.nl/explore/artists/$111'
p7
sS'domain'
p8
S''
sS'instances_count'
p9
I1
sS'phrases'
p10
NsS'syn_hypo'
p11
S''
sS'label'
p12
S'RKDartists id'
p13
sS'range'
p14
S'string '
p15
sS'uniq_subjs'
p16
S'1'
sS'uniq_objs'
p17
I0
sS'prop_uri'
p18
S'http://dbpedia.org/ontology/rkdArtistsId'
p19
sS'annotations'
p20
(dp21
S'bag_of_words'
p22
(lp23
S'RKDartists'
p24
aS'id'
p25
aS'string'
p26
aS'Rijksbureau'
p27
aS'voor'
p28
aS'Kunsthistorische'
p29
aS'Documentatie'
p30
aS'RKD'
p31
aS'artists'
p32
aS'database'
p33
aS'id.'
p34
aS'\\'
aS'nhttp'
p35
aS':'
aS'//'
p36
aS'rkd'
p37
aS'.'
aS'nl'
p38
aS'/'
aS'explore'
p39
aS'/'
aS'artists'
p40
aS'/'
aS'$'
aS'111'
p41
asS'chunk_seq'
p42
(lp43
S'B-NP'
p44
aS'I-NP'
p45
aS'I-NP'
p46
aS'I-NP'
p47
aS'I-NP'
p48
aS'I-NP'
p49
aS'I-NP'
p50
aS'I-NP'
p51
aS'I-NP'
p52
aS'E-NP'
p53
aS'O'
aS'O'
aS'O'
aS'O'
aS'B-NP'
p54
aS'E-NP'
p55
aS'O'
aS'O'
aS'O'
aS'O'
aS'O'
aS'S-NP'
p56
aS'O'
aS'B-NP'
p57
aS'E-NP'
p58
asS'dep_seq'
p59
(lp60
(lp61
S'nn'
p62
aS'10'
p63
aS'1'
aa(lp64
S'nn'
p65
aS'10'
p66
aS'2'
aa(lp67
S'nn'
p68
aS'10'
p69
aS'3'
aa(lp70
S'nn'
p71
aS'10'
p72
aS'4'
aa(lp73
S'nn'
p74
aS'10'
p75
aS'5'
aa(lp76
S'nn'
p77
aS'10'
p78
aS'6'
aa(lp79
S'nn'
p80
aS'10'
p81
aS'7'
aa(lp82
S'nn'
p83
aS'10'
p84
aS'8'
aa(lp85
S'nn'
p86
aS'10'
p87
aS'9'
aa(lp88
S'dep'
p89
aS'18'
p90
aS'10'
p91
aa(lp92
S'nn'
p93
aS'10'
p94
aS'11'
p95
aa(lp96
S'nn'
p97
aS'10'
p98
aS'12'
p99
aa(lp100
S'dep'
p101
aS'10'
p102
aS'13'
p103
aa(lp104
S'nn'
p105
aS'18'
p106
aS'15'
p107
aa(lp108
S'nn'
p109
aS'18'
p110
aS'16'
p111
aa(lp112
S'root'
p113
aS'0'
aS'18'
p114
aa(lp115
S'nn'
p116
aS'18'
p117
aS'19'
p118
aa(lp119
S'nn'
p120
aS'18'
p121
aS'20'
p122
aa(lp123
S'dep'
p124
aS'18'
p125
aS'21'
p126
aa(lp127
S'dep'
p128
aS'18'
p129
aS'22'
p130
aa(lp131
S'punct'
p132
aS'18'
p133
aS'23'
p134
aa(lp135
S'dep'
p136
aS'18'
p137
aS'24'
p138
aa(lp139
S'num'
p140
aS'24'
p141
aS'25'
p142
aasS'srls'
p143
(lp144
sS'pos_seq'
p145
(lp146
S'NNS'
p147
aS'NN'
p148
aS'NN'
p149
aS'NNP'
p150
aS'NNP'
p151
aS'NNP'
p152
aS'NNP'
p153
aS'NNP'
p154
aS'NNS'
p155
aS'NN'
p156
aS'FW'
p157
aS'FW'
p158
aS'FW'
p159
aS'FW'
p160
aS'FW'
p161
aS'FW'
p162
aS'FW'
p163
aS'FW'
p164
aS'FW'
p165
aS'FW'
p166
aS'FW'
p167
aS'NNS'
p168
aS':'
aS'$'
aS'CD'
p169
asS'ner_seq'
p170
(lp171
S'S-MISC'
p172
aS'O'
aS'O'
aS'B-MISC'
p173
aS'I-MISC'
p174
aS'I-MISC'
p175
aS'I-MISC'
p176
aS'E-MISC'
p177
aS'O'
aS'O'
aS'O'
aS'O'
aS'O'
aS'O'
aS'O'
aS'O'
aS'O'
aS'O'
aS'O'
aS'O'
aS'O'
aS'O'
aS'O'
aS'O'
aS'O'
assb.