ccopy_reg
_reconstructor
p1
(c__main__
KBproperty
p2
c__builtin__
object
p3
NtRp4
(dp5
S'comment'
p6
S'indicates another place situated south-east.00'
p7
sS'domain'
p8
S'Place '
p9
sS'instances_count'
p10
I0
sS'phrases'
p11
NsS'syn_hypo'
p12
S''
sS'label'
p13
S'south-east place'
p14
sS'range'
p15
S'Place '
p16
sS'uniq_subjs'
p17
S'0'
sS'uniq_objs'
p18
I0
sS'prop_uri'
p19
S'http://dbpedia.org/ontology/southEastPlace'
p20
sS'annotations'
p21
(dp22
S'bag_of_words'
p23
(lp24
S'Place'
p25
aS'south-east'
p26
aS'place'
p27
aS'Place'
p28
aS'indicates'
p29
aS'another'
p30
aS'place'
p31
aS'situated'
p32
aS'south-east'
p33
aS'.00'
p34
asS'chunk_seq'
p35
(lp36
S'B-NP'
p37
aS'I-NP'
p38
aS'I-NP'
p39
aS'E-NP'
p40
aS'S-VP'
p41
aS'B-NP'
p42
aS'E-NP'
p43
aS'S-VP'
p44
aS'S-ADVP'
p45
aS'O'
asS'dep_seq'
p46
(lp47
(lp48
S'nn'
p49
aS'4'
aS'1'
aa(lp50
S'amod'
p51
aS'4'
aS'east'
p52
aa(lp53
S'nn'
p54
aS'4'
aS'3'
aa(lp55
S'nsubj'
p56
aS'5'
aS'4'
aa(lp57
S'root'
p58
aS'0'
aS'5'
aa(lp59
S'det'
p60
aS'7'
aS'6'
aa(lp61
S'dobj'
p62
aS'5'
aS'7'
aa(lp63
S'partmod'
p64
aS'7'
aS'8'
aa(lp65
S'advmod'
p66
aS'8'
aS'east'
p67
aa(lp68
S'advmod'
p69
aS'8'
aS'10'
p70
aasS'srls'
p71
(lp72
(dp73
S'A1'
p74
S'another place situated south-east .00'
p75
sS'A0'
p76
S'Place south-east place Place'
p77
sS'V'
g29
sa(dp78
S'A1'
p79
S'another place'
p80
sS'A2'
p81
S'south-east .00'
p82
sS'V'
g32
sasS'pos_seq'
p83
(lp84
S'NN'
p85
aS'JJ'
p86
aS'NN'
p87
aS'NNP'
p88
aS'VBZ'
p89
aS'DT'
p90
aS'NN'
p91
aS'VBN'
p92
aS'RB'
p93
aS'CD'
p94
asS'ner_seq'
p95
(lp96
S'O'
aS'O'
aS'O'
aS'O'
aS'O'
aS'O'
aS'O'
aS'O'
aS'O'
aS'O'
assb.