ccopy_reg
_reconstructor
p1
(c__main__
KBproperty
p2
c__builtin__
object
p3
NtRp4
(dp5
S'comment'
p6
S'distance to Charing Cross \\xce\\xbc'
p7
sS'domain'
p8
S'Settlement '
p9
sS'instances_count'
p10
I91
sS'phrases'
p11
NsS'syn_hypo'
p12
S''
sS'label'
p13
g7
sS'range'
p14
S'double '
p15
sS'uniq_subjs'
p16
S'91'
p17
sS'uniq_objs'
p18
I0
sS'prop_uri'
p19
S'http://dbpedia.org/ontology/distanceToCharingCross'
p20
sS'annotations'
p21
(dp22
S'bag_of_words'
p23
(lp24
S'Settlement'
p25
aS'distance'
p26
aS'To'
p27
aS'Charing'
p28
aS'Cross'
p29
aS'double'
p30
aS'distance'
p31
aS'to'
p32
aS'Charing'
p33
aS'Cross'
p34
aS'\\'
aS'xce'
p35
aS'\\'
aS'xbc'
p36
asS'chunk_seq'
p37
(lp38
S'B-NP'
p39
aS'E-NP'
p40
aS'S-PP'
p41
aS'B-NP'
p42
aS'I-NP'
p43
aS'I-NP'
p44
aS'E-NP'
p45
aS'S-PP'
p46
aS'B-NP'
p47
aS'E-NP'
p48
aS'O'
aS'O'
aS'O'
aS'O'
asS'dep_seq'
p49
(lp50
(lp51
S'nn'
p52
aS'2'
aS'1'
aa(lp53
S'nsubj'
p54
aS'11'
p55
aS'2'
aa(lp56
S'nn'
p57
aS'5'
aS'4'
aa(lp58
S'prep_to'
p59
aS'2'
aS'5'
aa(lp60
S'amod'
p61
aS'7'
aS'6'
aa(lp62
S'nsubj'
p63
aS'11'
p64
aS'7'
aa(lp65
S'nn'
p66
aS'10'
p67
aS'9'
aa(lp68
S'prep_to'
p69
aS'7'
aS'10'
p70
aa(lp71
S'root'
p72
aS'0'
aS'11'
p73
aa(lp74
S'discourse'
p75
aS'11'
p76
aS'12'
p77
aa(lp78
S'dep'
p79
aS'12'
p80
aS'13'
p81
aa(lp82
S'dep'
p83
aS'12'
p84
aS'14'
p85
aasS'srls'
p86
(lp87
sS'pos_seq'
p88
(lp89
S'NN'
p90
aS'NN'
p91
aS'TO'
p92
aS'NNP'
p93
aS'NNP'
p94
aS'JJ'
p95
aS'NN'
p96
aS'TO'
p97
aS'NNP'
p98
aS'NNP'
p99
aS'FW'
p100
aS'FW'
p101
aS'FW'
p102
aS'FW'
p103
asS'ner_seq'
p104
(lp105
S'O'
aS'O'
aS'O'
aS'B-LOC'
p106
aS'E-LOC'
p107
aS'O'
aS'O'
aS'O'
aS'B-ORG'
p108
aS'E-ORG'
p109
aS'O'
aS'O'
aS'O'
aS'O'
assb.