ccopy_reg
_reconstructor
p1
(c__main__
KBproperty
p2
c__builtin__
object
p3
NtRp4
(dp5
S'comment'
p6
S'the person who dubs another person e.g. an actor or a fictional character in movies00'
p7
sS'domain'
p8
S'Person '
p9
sS'instances_count'
p10
I0
sS'phrases'
p11
NsS'syn_hypo'
p12
S''
sS'label'
p13
S'dubber'
p14
sS'range'
p15
S'Person '
p16
sS'uniq_subjs'
p17
S'0'
sS'uniq_objs'
p18
I0
sS'prop_uri'
p19
S'http://dbpedia.org/ontology/dubber'
p20
sS'annotations'
p21
(dp22
S'bag_of_words'
p23
(lp24
S'Person'
p25
aS'dubber'
p26
aS'Person'
p27
aS'the'
p28
aS'person'
p29
aS'who'
p30
aS'dubs'
p31
aS'another'
p32
aS'person'
p33
aS'e.g.'
p34
aS'an'
p35
aS'actor'
p36
aS'or'
p37
aS'a'
aS'fictional'
p38
aS'character'
p39
aS'in'
p40
aS'movies00'
p41
asS'chunk_seq'
p42
(lp43
S'B-NP'
p44
aS'I-NP'
p45
aS'E-NP'
p46
aS'B-NP'
p47
aS'E-NP'
p48
aS'S-NP'
p49
aS'S-VP'
p50
aS'B-NP'
p51
aS'E-NP'
p52
aS'S-PP'
p53
aS'B-NP'
p54
aS'E-NP'
p55
aS'O'
aS'B-NP'
p56
aS'I-NP'
p57
aS'E-NP'
p58
aS'S-PP'
p59
aS'S-NP'
p60
asS'dep_seq'
p61
(lp62
(lp63
S'nn'
p64
aS'3'
aS'1'
aa(lp65
S'amod'
p66
aS'3'
aS'2'
aa(lp67
S'dep'
p68
aS'5'
aS'3'
aa(lp69
S'det'
p70
aS'5'
aS'4'
aa(lp71
S'root'
p72
aS'0'
aS'5'
aa(lp73
S'nsubj'
p74
aS'7'
aS'5'
aa(lp75
S'rcmod'
p76
aS'5'
aS'7'
aa(lp77
S'det'
p78
aS'9'
aS'8'
aa(lp79
S'dobj'
p80
aS'7'
aS'9'
aa(lp81
S'det'
p82
aS'12'
p83
aS'11'
p84
aa(lp85
S'prep_e.g.'
p86
aS'7'
aS'12'
p87
aa(lp88
S'det'
p89
aS'16'
p90
aS'14'
p91
aa(lp92
S'amod'
p93
aS'16'
p94
aS'15'
p95
aa(lp96
S'conj_or'
p97
aS'12'
p98
aS'16'
p99
aa(lp100
S'prep_in'
p101
aS'12'
p102
aS'18'
p103
aasS'srls'
p104
(lp105
(dp106
S'R-A0'
p107
g30
sS'AM-MNR'
p108
S'e.g. an actor or a fictional character'
p109
sS'AM-LOC'
p110
S'in movies00'
p111
sS'A1'
p112
S'another person'
p113
sS'A0'
p114
S'the person'
p115
sS'V'
g31
sasS'pos_seq'
p116
(lp117
S'NN'
p118
aS'JJR'
p119
aS'NN'
p120
aS'DT'
p121
aS'NN'
p122
aS'WP'
p123
aS'VBZ'
p124
aS'DT'
p125
aS'NN'
p126
aS'IN'
p127
aS'DT'
p128
aS'NN'
p129
aS'CC'
p130
aS'DT'
p131
aS'JJ'
p132
aS'NN'
p133
aS'IN'
p134
aS'NN'
p135
asS'ner_seq'
p136
(lp137
S'O'
aS'O'
aS'O'
aS'O'
aS'O'
aS'O'
aS'O'
aS'O'
aS'O'
aS'O'
aS'O'
aS'O'
aS'O'
aS'O'
aS'O'
aS'O'
aS'O'
aS'O'
assb.