ccopy_reg
_reconstructor
p1
(c__main__
KBproperty
p2
c__builtin__
object
p3
NtRp4
(dp5
S'comment'
p6
S'area of catchment m2'
p7
sS'domain'
p8
S'Lake '
p9
sS'instances_count'
p10
I1045
sS'phrases'
p11
NsS'syn_hypo'
p12
S''
sS'label'
p13
g7
sS'range'
p14
S'double '
p15
sS'uniq_subjs'
p16
S'1045'
p17
sS'uniq_objs'
p18
I0
sS'prop_uri'
p19
S'http://dbpedia.org/ontology/areaOfCatchment'
p20
sS'annotations'
p21
(dp22
S'bag_of_words'
p23
(lp24
S'Lake'
p25
aS'area'
p26
aS'Of'
p27
aS'Catchment'
p28
aS'double'
p29
aS'area'
p30
aS'of'
p31
aS'catchment'
p32
aS'm2'
p33
asS'chunk_seq'
p34
(lp35
S'B-NP'
p36
aS'E-NP'
p37
aS'S-PP'
p38
aS'B-NP'
p39
aS'I-NP'
p40
aS'E-NP'
p41
aS'S-PP'
p42
aS'B-NP'
p43
aS'E-NP'
p44
asS'dep_seq'
p45
(lp46
(lp47
S'nn'
p48
aS'2'
aS'1'
aa(lp49
S'root'
p50
aS'0'
aS'2'
aa(lp51
S'nn'
p52
aS'6'
aS'4'
aa(lp53
S'amod'
p54
aS'6'
aS'5'
aa(lp55
S'prep_of'
p56
aS'2'
aS'6'
aa(lp57
S'prep_of'
p58
aS'6'
aS'8'
aa(lp59
S'punct'
p60
aS'8'
aS'9'
aasS'srls'
p61
(lp62
sS'pos_seq'
p63
(lp64
S'NNP'
p65
aS'NN'
p66
aS'IN'
p67
aS'NNP'
p68
aS'JJ'
p69
aS'NN'
p70
aS'IN'
p71
aS'NN'
p72
aS'.'
asS'ner_seq'
p73
(lp74
S'O'
aS'O'
aS'B-LOC'
p75
aS'E-LOC'
p76
aS'O'
aS'O'
aS'O'
aS'O'
aS'O'
assb.