ccopy_reg
_reconstructor
p1
(c__main__
KBproperty
p2
c__builtin__
object
p3
NtRp4
(dp5
S'comment'
p6
S'population metro density /sqkm'
p7
sS'domain'
p8
S'Populated Place '
p9
sS'instances_count'
p10
I219
sS'phrases'
p11
NsS'syn_hypo'
p12
S''
sS'label'
p13
g7
sS'range'
p14
S'double '
p15
sS'uniq_subjs'
p16
S'219'
p17
sS'uniq_objs'
p18
I0
sS'prop_uri'
p19
S'http://dbpedia.org/ontology/populationMetroDensity'
p20
sS'annotations'
p21
(dp22
S'bag_of_words'
p23
(lp24
S'Populated'
p25
aS'Place'
p26
aS'population'
p27
aS'Metro'
p28
aS'Density'
p29
aS'double'
p30
aS'population'
p31
aS'metro'
p32
aS'density'
p33
aS'/s'
p34
aS'qkm'
p35
asS'chunk_seq'
p36
(lp37
S'B-NP'
p38
aS'I-NP'
p39
aS'I-NP'
p40
aS'I-NP'
p41
aS'I-NP'
p42
aS'I-NP'
p43
aS'I-NP'
p44
aS'I-NP'
p45
aS'E-NP'
p46
aS'O'
aS'O'
asS'dep_seq'
p47
(lp48
(lp49
S'amod'
p50
aS'9'
aS'1'
aa(lp51
S'nn'
p52
aS'9'
aS'2'
aa(lp53
S'nn'
p54
aS'9'
aS'3'
aa(lp55
S'nn'
p56
aS'9'
aS'4'
aa(lp57
S'nn'
p58
aS'9'
aS'5'
aa(lp59
S'amod'
p60
aS'9'
aS'6'
aa(lp61
S'nn'
p62
aS'9'
aS'7'
aa(lp63
S'nn'
p64
aS'9'
aS'8'
aa(lp65
S'root'
p66
aS'0'
aS'9'
aa(lp67
S'nn'
p68
aS'9'
aS'10'
p69
aa(lp70
S'dep'
p71
aS'9'
aS'11'
p72
aasS'srls'
p73
(lp74
sS'pos_seq'
p75
(lp76
S'JJ'
p77
aS'NN'
p78
aS'NN'
p79
aS'NNP'
p80
aS'NNP'
p81
aS'JJ'
p82
aS'NN'
p83
aS'NN'
p84
aS'NN'
p85
aS'FW'
p86
aS'FW'
p87
asS'ner_seq'
p88
(lp89
S'O'
aS'O'
aS'O'
aS'B-MISC'
p90
aS'E-MISC'
p91
aS'O'
aS'O'
aS'O'
aS'O'
aS'O'
aS'O'
assb.