ccopy_reg
_reconstructor
p1
(c__main__
KBproperty
p2
c__builtin__
object
p3
NtRp4
(dp5
S'comment'
p6
S'00'
p7
sS'domain'
p8
S'Place '
p9
sS'instances_count'
p10
I0
sS'phrases'
p11
NsS'syn_hypo'
p12
S''
sS'label'
p13
S'gross domestic product per people'
p14
sS'range'
p15
S'string '
p16
sS'uniq_subjs'
p17
S'0'
sS'uniq_objs'
p18
I0
sS'prop_uri'
p19
S'http://dbpedia.org/ontology/grossDomesticProductPerPeople'
p20
sS'annotations'
p21
(dp22
S'bag_of_words'
p23
(lp24
S'Place'
p25
aS'gross'
p26
aS'domestic'
p27
aS'product'
p28
aS'per'
p29
aS'people'
p30
aS'string'
p31
aS'00'
p32
asS'chunk_seq'
p33
(lp34
S'B-NP'
p35
aS'I-NP'
p36
aS'I-NP'
p37
aS'E-NP'
p38
aS'S-PP'
p39
aS'S-NP'
p40
aS'B-NP'
p41
aS'E-NP'
p42
asS'dep_seq'
p43
(lp44
(lp45
S'nn'
p46
aS'4'
aS'1'
aa(lp47
S'amod'
p48
aS'4'
aS'2'
aa(lp49
S'amod'
p50
aS'4'
aS'3'
aa(lp51
S'root'
p52
aS'0'
aS'4'
aa(lp53
S'nn'
p54
aS'7'
aS'6'
aa(lp55
S'prep_per'
p56
aS'4'
aS'7'
aa(lp57
S'advmod'
p58
aS'4'
aS'8'
aasS'srls'
p59
(lp60
sS'pos_seq'
p61
(lp62
S'NN'
p63
aS'JJ'
p64
aS'JJ'
p65
aS'NN'
p66
aS'IN'
p67
aS'NNS'
p68
aS'NN'
p69
aS'CD'
p70
asS'ner_seq'
p71
(lp72
S'O'
aS'O'
aS'O'
aS'O'
aS'O'
aS'O'
aS'O'
aS'O'
assb.