ccopy_reg
_reconstructor
p1
(c__main__
KBproperty
p2
c__builtin__
object
p3
NtRp4
(dp5
S'comment'
p6
S'Identification of the registry a document is in00'
p7
sS'domain'
p8
S'Document '
p9
sS'instances_count'
p10
I0
sS'phrases'
p11
NsS'syn_hypo'
p12
S''
sS'label'
p13
S'registry number'
p14
sS'range'
p15
S'string '
p16
sS'uniq_subjs'
p17
S'0'
sS'uniq_objs'
p18
I0
sS'prop_uri'
p19
S'http://dbpedia.org/ontology/registryNumber'
p20
sS'annotations'
p21
(dp22
S'bag_of_words'
p23
(lp24
S'Document'
p25
aS'registry'
p26
aS'number'
p27
aS'string'
p28
aS'Identification'
p29
aS'of'
p30
aS'the'
p31
aS'registry'
p32
aS'a'
aS'document'
p33
aS'is'
p34
aS'in00'
p35
asS'chunk_seq'
p36
(lp37
S'B-NP'
p38
aS'I-NP'
p39
aS'I-NP'
p40
aS'I-NP'
p41
aS'E-NP'
p42
aS'S-PP'
p43
aS'B-NP'
p44
aS'E-NP'
p45
aS'B-NP'
p46
aS'E-NP'
p47
aS'S-VP'
p48
aS'S-ADJP'
p49
asS'dep_seq'
p50
(lp51
(lp52
S'nn'
p53
aS'5'
aS'1'
aa(lp54
S'nn'
p55
aS'5'
aS'2'
aa(lp56
S'nn'
p57
aS'5'
aS'3'
aa(lp58
S'nn'
p59
aS'5'
aS'4'
aa(lp60
S'nsubj'
p61
aS'12'
p62
aS'5'
aa(lp63
S'det'
p64
aS'8'
aS'7'
aa(lp65
S'prep_of'
p66
aS'5'
aS'8'
aa(lp67
S'det'
p68
aS'10'
p69
aS'9'
aa(lp70
S'dep'
p71
aS'5'
aS'10'
p72
aa(lp73
S'cop'
p74
aS'12'
p75
aS'11'
p76
aa(lp77
S'root'
p78
aS'0'
aS'12'
p79
aasS'srls'
p80
(lp81
sS'pos_seq'
p82
(lp83
S'NN'
p84
aS'NN'
p85
aS'NN'
p86
aS'NN'
p87
aS'NN'
p88
aS'IN'
p89
aS'DT'
p90
aS'NN'
p91
aS'DT'
p92
aS'NN'
p93
aS'VBZ'
p94
aS'JJ'
p95
asS'ner_seq'
p96
(lp97
S'O'
aS'O'
aS'O'
aS'O'
aS'O'
aS'O'
aS'O'
aS'O'
aS'O'
aS'O'
aS'O'
aS'O'
assb.