ccopy_reg
_reconstructor
p1
(c__main__
KBproperty
p2
c__builtin__
object
p3
NtRp4
(dp5
S'comment'
p6
S'Source of the  value.11'
p7
sS'domain'
p8
S'Place '
p9
sS'instances_count'
p10
I1
sS'phrases'
p11
NsS'syn_hypo'
p12
S''
sS'label'
p13
S'maximum depth quote'
p14
sS'range'
p15
S'string '
p16
sS'uniq_subjs'
p17
S'1'
sS'uniq_objs'
p18
I0
sS'prop_uri'
p19
S'http://dbpedia.org/ontology/maximumDepthQuote'
p20
sS'annotations'
p21
(dp22
S'bag_of_words'
p23
(lp24
S'Place'
p25
aS'maximum'
p26
aS'depth'
p27
aS'quote'
p28
aS'string'
p29
aS'Source'
p30
aS'of'
p31
aS'the'
p32
aS'value.11'
p33
asS'chunk_seq'
p34
(lp35
S'B-NP'
p36
aS'I-NP'
p37
aS'I-NP'
p38
aS'I-NP'
p39
aS'I-NP'
p40
aS'E-NP'
p41
aS'S-PP'
p42
aS'B-NP'
p43
aS'E-NP'
p44
asS'dep_seq'
p45
(lp46
(lp47
S'dep'
p48
aS'6'
aS'1'
aa(lp49
S'amod'
p50
aS'6'
aS'2'
aa(lp51
S'nn'
p52
aS'6'
aS'3'
aa(lp53
S'nn'
p54
aS'6'
aS'4'
aa(lp55
S'nn'
p56
aS'6'
aS'5'
aa(lp57
S'root'
p58
aS'0'
aS'6'
aa(lp59
S'det'
p60
aS'9'
aS'8'
aa(lp61
S'prep_of'
p62
aS'6'
aS'9'
aasS'srls'
p63
(lp64
sS'pos_seq'
p65
(lp66
S'NN'
p67
aS'JJ'
p68
aS'NN'
p69
aS'NN'
p70
aS'NN'
p71
aS'NN'
p72
aS'IN'
p73
aS'DT'
p74
aS'NN'
p75
asS'ner_seq'
p76
(lp77
S'O'
aS'O'
aS'O'
aS'O'
aS'O'
aS'O'
aS'O'
aS'O'
aS'O'
assb.