ccopy_reg
_reconstructor
p1
(c__main__
KBproperty
p2
c__builtin__
object
p3
NtRp4
(dp5
S'comment'
p6
S'Text used to link from a Wikipage to another Wikipage'
p7
sS'domain'
p8
S''
sS'instances_count'
p9
I0
sS'phrases'
p10
NsS'syn_hypo'
p11
S''
sS'label'
p12
g7
sS'range'
p13
S''
sS'uniq_subjs'
p14
S'0'
sS'uniq_objs'
p15
I0
sS'prop_uri'
p16
S'http://dbpedia.org/ontology/wikiPageWikiLinkText'
p17
sS'annotations'
p18
(dp19
S'bag_of_words'
p20
(lp21
S'wiki'
p22
aS'Page'
p23
aS'Wiki'
p24
aS'Link'
p25
aS'Text'
p26
aS'Text'
p27
aS'used'
p28
aS'to'
p29
aS'link'
p30
aS'from'
p31
aS'a'
aS'Wikipage'
p32
aS'to'
p33
aS'another'
p34
aS'Wikipage'
p35
asS'chunk_seq'
p36
(lp37
S'B-NP'
p38
aS'I-NP'
p39
aS'I-NP'
p40
aS'I-NP'
p41
aS'I-NP'
p42
aS'E-NP'
p43
aS'S-VP'
p44
aS'S-PP'
p45
aS'S-NP'
p46
aS'S-PP'
p47
aS'B-NP'
p48
aS'E-NP'
p49
aS'S-PP'
p50
aS'B-NP'
p51
aS'E-NP'
p52
asS'dep_seq'
p53
(lp54
(lp55
S'nn'
p56
aS'6'
aS'1'
aa(lp57
S'nn'
p58
aS'6'
aS'2'
aa(lp59
S'nn'
p60
aS'6'
aS'3'
aa(lp61
S'nn'
p62
aS'6'
aS'4'
aa(lp63
S'nn'
p64
aS'6'
aS'5'
aa(lp65
S'nsubj'
p66
aS'7'
aS'6'
aa(lp67
S'xsubj'
p68
aS'9'
aS'6'
aa(lp69
S'root'
p70
aS'0'
aS'7'
aa(lp71
S'aux'
p72
aS'9'
aS'8'
aa(lp73
S'xcomp'
p74
aS'7'
aS'9'
aa(lp75
S'det'
p76
aS'12'
p77
aS'11'
p78
aa(lp79
S'prep_from'
p80
aS'9'
aS'12'
p81
aa(lp82
S'det'
p83
aS'15'
p84
aS'14'
p85
aa(lp86
S'prep_to'
p87
aS'9'
aS'15'
p88
aasS'srls'
p89
(lp90
(dp91
S'A1'
p92
S'wiki Page Wiki Link Text Text'
p93
sS'AM-PNC'
p94
S'to link from a Wikipage to another Wikipage'
p95
sS'V'
g28
sa(dp96
S'A1'
p97
S'from a Wikipage'
p98
sS'A0'
p99
S'wiki Page Wiki Link Text Text'
p100
sS'A2'
p101
S'to another Wikipage'
p102
sS'V'
g30
sasS'pos_seq'
p103
(lp104
S'NN'
p105
aS'NNP'
p106
aS'NNP'
p107
aS'NNP'
p108
aS'NNP'
p109
aS'NNP'
p110
aS'VBN'
p111
aS'TO'
p112
aS'VB'
p113
aS'IN'
p114
aS'DT'
p115
aS'NNP'
p116
aS'TO'
p117
aS'DT'
p118
aS'NNP'
p119
asS'ner_seq'
p120
(lp121
S'O'
aS'B-ORG'
p122
aS'I-ORG'
p123
aS'I-ORG'
p124
aS'I-ORG'
p125
aS'E-ORG'
p126
aS'O'
aS'O'
aS'O'
aS'O'
aS'O'
aS'S-MISC'
p127
aS'O'
aS'O'
aS'S-ORG'
p128
assb.