ccopy_reg
_reconstructor
p1
(c__main__
KBproperty
p2
c__builtin__
object
p3
NtRp4
(dp5
S'comment'
p6
S'00'
p7
sS'domain'
p8
S'Populated Place '
p9
sS'instances_count'
p10
I0
sS'phrases'
p11
NsS'syn_hypo'
p12
S''
sS'label'
p13
S'per capital income rank'
p14
sS'range'
p15
S'string '
p16
sS'uniq_subjs'
p17
S'0'
sS'uniq_objs'
p18
I0
sS'prop_uri'
p19
S'http://dbpedia.org/ontology/perCapitaIncomeRank'
p20
sS'annotations'
p21
(dp22
S'bag_of_words'
p23
(lp24
S'Populated'
p25
aS'Place'
p26
aS'per'
p27
aS'capital'
p28
aS'income'
p29
aS'rank'
p30
aS'string'
p31
aS'00'
p32
asS'chunk_seq'
p33
(lp34
S'B-NP'
p35
aS'E-NP'
p36
aS'S-PP'
p37
aS'B-NP'
p38
aS'I-NP'
p39
aS'I-NP'
p40
aS'E-NP'
p41
aS'S-ADVP'
p42
asS'dep_seq'
p43
(lp44
(lp45
S'amod'
p46
aS'2'
aS'1'
aa(lp47
S'root'
p48
aS'0'
aS'2'
aa(lp49
S'nn'
p50
aS'7'
aS'4'
aa(lp51
S'nn'
p52
aS'7'
aS'5'
aa(lp53
S'nn'
p54
aS'7'
aS'6'
aa(lp55
S'prep_per'
p56
aS'2'
aS'7'
aa(lp57
S'dep'
p58
aS'2'
aS'8'
aasS'srls'
p59
(lp60
sS'pos_seq'
p61
(lp62
S'JJ'
p63
aS'NN'
p64
aS'IN'
p65
aS'NN'
p66
aS'NN'
p67
aS'NN'
p68
aS'NN'
p69
aS'CD'
p70
asS'ner_seq'
p71
(lp72
S'O'
aS'O'
aS'O'
aS'O'
aS'O'
aS'O'
aS'O'
aS'O'
assb.