ccopy_reg
_reconstructor
p1
(c__main__
KBproperty
p2
c__builtin__
object
p3
NtRp4
(dp5
S'comment'
p6
S'The frequency of periodical publication eg. Weekly Bimonthly.60826054'
p7
sS'domain'
p8
S'Periodical Literature '
p9
sS'instances_count'
p10
I6082
sS'phrases'
p11
NsS'syn_hypo'
p12
S''
sS'label'
p13
S'frequency of publication'
p14
sS'range'
p15
S'string '
p16
sS'uniq_subjs'
p17
S'370'
p18
sS'uniq_objs'
p19
I0
sS'prop_uri'
p20
S'http://dbpedia.org/ontology/frequencyOfPublication'
p21
sS'annotations'
p22
(dp23
S'bag_of_words'
p24
(lp25
S'Periodical'
p26
aS'Literature'
p27
aS'frequency'
p28
aS'of'
p29
aS'publication'
p30
aS'string'
p31
aS'The'
p32
aS'frequency'
p33
aS'of'
p34
aS'periodical'
p35
aS'publication'
p36
aS'eg.'
p37
aS'Weekly'
p38
aS'Bimonthly.60826054'
p39
asS'chunk_seq'
p40
(lp41
S'B-NP'
p42
aS'I-NP'
p43
aS'E-NP'
p44
aS'S-PP'
p45
aS'B-NP'
p46
aS'E-NP'
p47
aS'B-NP'
p48
aS'E-NP'
p49
aS'S-PP'
p50
aS'B-NP'
p51
aS'E-NP'
p52
aS'S-PP'
p53
aS'B-NP'
p54
aS'E-NP'
p55
asS'dep_seq'
p56
(lp57
(lp58
S'nn'
p59
aS'3'
aS'1'
aa(lp60
S'nn'
p61
aS'3'
aS'2'
aa(lp62
S'dep'
p63
aS'8'
aS'3'
aa(lp64
S'nn'
p65
aS'6'
aS'5'
aa(lp66
S'prep_of'
p67
aS'3'
aS'6'
aa(lp68
S'det'
p69
aS'8'
aS'7'
aa(lp70
S'root'
p71
aS'0'
aS'8'
aa(lp72
S'nn'
p73
aS'11'
p74
aS'10'
p75
aa(lp76
S'prep_of'
p77
aS'8'
aS'11'
p78
aa(lp79
S'nn'
p80
aS'14'
p81
aS'13'
p82
aa(lp83
S'prep_eg.'
p84
aS'8'
aS'14'
p85
aasS'srls'
p86
(lp87
sS'pos_seq'
p88
(lp89
S'NNP'
p90
aS'NNP'
p91
aS'NN'
p92
aS'IN'
p93
aS'NN'
p94
aS'NN'
p95
aS'DT'
p96
aS'NN'
p97
aS'IN'
p98
aS'NN'
p99
aS'NN'
p100
aS'IN'
p101
aS'NNP'
p102
aS'NNP'
p103
asS'ner_seq'
p104
(lp105
S'B-MISC'
p106
aS'E-MISC'
p107
aS'O'
aS'O'
aS'O'
aS'O'
aS'O'
aS'O'
aS'O'
aS'O'
aS'O'
aS'O'
aS'B-MISC'
p108
aS'E-MISC'
p109
assb.