ccopy_reg
_reconstructor
p1
(c__main__
KBproperty
p2
c__builtin__
object
p3
NtRp4
(dp5
S'comment'
p6
S'00'
p7
sS'domain'
p8
S''
sS'instances_count'
p9
I0
sS'phrases'
p10
NsS'syn_hypo'
p11
S''
sS'label'
p12
S'current city'
p13
sS'range'
p14
S'City '
p15
sS'uniq_subjs'
p16
S'0'
sS'uniq_objs'
p17
I0
sS'prop_uri'
p18
S'http://dbpedia.org/ontology/currentCity'
p19
sS'annotations'
p20
(dp21
S'bag_of_words'
p22
(lp23
S'current'
p24
aS'city'
p25
aS'City'
p26
aS'00'
p27
asS'chunk_seq'
p28
(lp29
S'B-NP'
p30
aS'I-NP'
p31
aS'E-NP'
p32
aS'S-ADVP'
p33
asS'dep_seq'
p34
(lp35
(lp36
S'amod'
p37
aS'3'
aS'1'
aa(lp38
S'nn'
p39
aS'3'
aS'2'
aa(lp40
S'root'
p41
aS'0'
aS'3'
aa(lp42
S'num'
p43
aS'3'
aS'4'
aasS'srls'
p44
(lp45
sS'pos_seq'
p46
(lp47
S'JJ'
p48
aS'NN'
p49
aS'NNP'
p50
aS'CD'
p51
asS'ner_seq'
p52
(lp53
S'O'
aS'O'
aS'O'
aS'O'
assb.