ccopy_reg
_reconstructor
p1
(c__main__
KBproperty
p2
c__builtin__
object
p3
NtRp4
(dp5
S'comment'
p6
S'00'
p7
sS'domain'
p8
S'Populated Place '
p9
sS'instances_count'
p10
I0
sS'phrases'
p11
NsS'syn_hypo'
p12
S''
sS'label'
p13
S'Number Of Cantons'
p14
sS'range'
p15
S'non Negative Integer '
p16
sS'uniq_subjs'
p17
S'0'
sS'uniq_objs'
p18
I0
sS'prop_uri'
p19
S'http://dbpedia.org/ontology/numberOfCantons'
p20
sS'annotations'
p21
(dp22
S'bag_of_words'
p23
(lp24
S'Populated'
p25
aS'Place'
p26
aS'Number'
p27
aS'Of'
p28
aS'Cantons'
p29
aS'non'
p30
aS'Negative'
p31
aS'Integer'
p32
aS'00'
p33
asS'chunk_seq'
p34
(lp35
S'B-NP'
p36
aS'I-NP'
p37
aS'E-NP'
p38
aS'S-PP'
p39
aS'S-NP'
p40
aS'B-NP'
p41
aS'I-NP'
p42
aS'E-NP'
p43
aS'O'
asS'dep_seq'
p44
(lp45
(lp46
S'amod'
p47
aS'3'
aS'1'
aa(lp48
S'nn'
p49
aS'3'
aS'2'
aa(lp50
S'dep'
p51
aS'8'
aS'3'
aa(lp52
S'prep_of'
p53
aS'3'
aS'5'
aa(lp54
S'possessive'
p55
aS'8'
aS'6'
aa(lp56
S'nn'
p57
aS'8'
aS'7'
aa(lp58
S'root'
p59
aS'0'
aS'8'
aa(lp60
S'num'
p61
aS'8'
aS'9'
aasS'srls'
p62
(lp63
sS'pos_seq'
p64
(lp65
S'JJ'
p66
aS'NN'
p67
aS'NN'
p68
aS'IN'
p69
aS'NNPS'
p70
aS'POS'
p71
aS'NNP'
p72
aS'NNP'
p73
aS'CD'
p74
asS'ner_seq'
p75
(lp76
S'O'
aS'O'
aS'O'
aS'B-MISC'
p77
aS'E-MISC'
p78
aS'O'
aS'O'
aS'O'
aS'O'
assb.