ccopy_reg
_reconstructor
p1
(c__main__
KBproperty
p2
c__builtin__
object
p3
NtRp4
(dp5
S'comment'
p6
S'Number of piers standing in a river or other water in normal conditions.219212'
p7
sS'domain'
p8
S'Bridge '
p9
sS'instances_count'
p10
I28
sS'phrases'
p11
NsS'syn_hypo'
p12
S''
sS'label'
p13
S'number of piers in water'
p14
sS'range'
p15
S'non Negative Integer '
p16
sS'uniq_subjs'
p17
S'28'
p18
sS'uniq_objs'
p19
I0
sS'prop_uri'
p20
S'http://dbpedia.org/ontology/numberOfPiersInWater'
p21
sS'annotations'
p22
(dp23
S'bag_of_words'
p24
(lp25
S'Bridge'
p26
aS'number'
p27
aS'of'
p28
aS'piers'
p29
aS'in'
p30
aS'water'
p31
aS'non'
p32
aS'Negative'
p33
aS'Integer'
p34
aS'Number'
p35
aS'of'
p36
aS'piers'
p37
aS'standing'
p38
aS'in'
p39
aS'a'
aS'river'
p40
aS'or'
p41
aS'other'
p42
aS'water'
p43
aS'in'
p44
aS'normal'
p45
aS'conditions.219212'
p46
asS'chunk_seq'
p47
(lp48
S'B-NP'
p49
aS'E-NP'
p50
aS'S-PP'
p51
aS'S-NP'
p52
aS'S-PP'
p53
aS'B-NP'
p54
aS'I-NP'
p55
aS'I-NP'
p56
aS'I-NP'
p57
aS'E-NP'
p58
aS'S-PP'
p59
aS'S-NP'
p60
aS'S-VP'
p61
aS'S-PP'
p62
aS'B-NP'
p63
aS'E-NP'
p64
aS'O'
aS'B-NP'
p65
aS'E-NP'
p66
aS'S-PP'
p67
aS'B-NP'
p68
aS'E-NP'
p69
asS'dep_seq'
p70
(lp71
(lp72
S'nn'
p73
aS'2'
aS'1'
aa(lp74
S'nsubj'
p75
aS'13'
p76
aS'2'
aa(lp77
S'prep_of'
p78
aS'2'
aS'4'
aa(lp79
S'prep_in'
p80
aS'13'
p81
aS'6'
aa(lp82
S'amod'
p83
aS'10'
p84
aS'7'
aa(lp85
S'amod'
p86
aS'10'
p87
aS'8'
aa(lp88
S'nn'
p89
aS'10'
p90
aS'9'
aa(lp91
S'nsubj'
p92
aS'13'
p93
aS'10'
p94
aa(lp95
S'prep_of'
p96
aS'10'
p97
aS'12'
p98
aa(lp99
S'root'
p100
aS'0'
aS'13'
p101
aa(lp102
S'det'
p103
aS'16'
p104
aS'15'
p105
aa(lp106
S'prep_in'
p107
aS'13'
p108
aS'16'
p109
aa(lp110
S'amod'
p111
aS'19'
p112
aS'18'
p113
aa(lp114
S'conj_or'
p115
aS'16'
p116
aS'19'
p117
aa(lp118
S'amod'
p119
aS'22'
p120
aS'21'
p121
aa(lp122
S'prep_in'
p123
aS'13'
p124
aS'22'
p125
aasS'srls'
p126
(lp127
(dp128
S'A1'
p129
S'Bridge number of piers in water non Negative Integer Number of piers'
p130
sS'AM-LOC'
p131
S'in normal conditions.219212'
p132
sS'A2'
p133
S'in a river or other water'
p134
sS'V'
g38
sasS'pos_seq'
p135
(lp136
S'NN'
p137
aS'NN'
p138
aS'IN'
p139
aS'NNS'
p140
aS'IN'
p141
aS'NN'
p142
aS'JJ'
p143
aS'JJ'
p144
aS'NNP'
p145
aS'NNP'
p146
aS'IN'
p147
aS'NNS'
p148
aS'VBG'
p149
aS'IN'
p150
aS'DT'
p151
aS'NN'
p152
aS'CC'
p153
aS'JJ'
p154
aS'NN'
p155
aS'IN'
p156
aS'JJ'
p157
aS'NN'
p158
asS'ner_seq'
p159
(lp160
S'O'
aS'O'
aS'O'
aS'O'
aS'O'
aS'O'
aS'O'
aS'O'
aS'O'
aS'O'
aS'O'
aS'O'
aS'O'
aS'O'
aS'O'
aS'O'
aS'O'
aS'O'
aS'O'
aS'O'
aS'O'
aS'O'
assb.