ccopy_reg
_reconstructor
p1
(c__main__
KBproperty
p2
c__builtin__
object
p3
NtRp4
(dp5
S'comment'
p6
S'7727767268'
p7
sS'domain'
p8
S''
sS'instances_count'
p9
I26673
sS'phrases'
p10
NsS'syn_hypo'
p11
S''
sS'label'
p12
S'active years end date'
p13
sS'range'
p14
S'date '
p15
sS'uniq_subjs'
p16
S'26673'
p17
sS'uniq_objs'
p18
I0
sS'prop_uri'
p19
S'http://dbpedia.org/ontology/activeYearsEndDate'
p20
sS'annotations'
p21
(dp22
S'bag_of_words'
p23
(lp24
S'active'
p25
aS'years'
p26
aS'end'
p27
aS'date'
p28
aS'date'
p29
aS'7727767268'
p30
asS'chunk_seq'
p31
(lp32
S'B-NP'
p33
aS'E-NP'
p34
aS'S-VP'
p35
aS'B-NP'
p36
aS'E-NP'
p37
aS'S-NP'
p38
asS'dep_seq'
p39
(lp40
(lp41
S'amod'
p42
aS'2'
aS'1'
aa(lp43
S'nsubj'
p44
aS'3'
aS'2'
aa(lp45
S'root'
p46
aS'0'
aS'3'
aa(lp47
S'nn'
p48
aS'6'
aS'4'
aa(lp49
S'nn'
p50
aS'6'
aS'5'
aa(lp51
S'dobj'
p52
aS'3'
aS'6'
aasS'srls'
p53
(lp54
(dp55
S'A2'
p56
S'date date 7727767268'
p57
sS'V'
g27
sasS'pos_seq'
p58
(lp59
S'JJ'
p60
aS'NNS'
p61
aS'VB'
p62
aS'NN'
p63
aS'NN'
p64
aS'NN'
p65
asS'ner_seq'
p66
(lp67
S'O'
aS'O'
aS'O'
aS'O'
aS'O'
aS'O'
assb.