ccopy_reg
_reconstructor
p1
(c__main__
KBproperty
p2
c__builtin__
object
p3
NtRp4
(dp5
S'comment'
p6
S'4848'
p7
sS'domain'
p8
S'Year In Spaceflight '
p9
sS'instances_count'
p10
I11
sS'phrases'
p11
NsS'syn_hypo'
p12
S''
sS'label'
p13
S'orbital flights'
p14
sS'range'
p15
S'non Negative Integer '
p16
sS'uniq_subjs'
p17
S'11'
p18
sS'uniq_objs'
p19
I0
sS'prop_uri'
p20
S'http://dbpedia.org/ontology/orbitalFlights'
p21
sS'annotations'
p22
(dp23
S'bag_of_words'
p24
(lp25
S'Year'
p26
aS'In'
p27
aS'Spaceflight'
p28
aS'orbital'
p29
aS'flights'
p30
aS'non'
p31
aS'Negative'
p32
aS'Integer'
p33
aS'4848'
p34
asS'chunk_seq'
p35
(lp36
S'S-NP'
p37
aS'S-PP'
p38
aS'B-NP'
p39
aS'I-NP'
p40
aS'E-NP'
p41
aS'B-NP'
p42
aS'I-NP'
p43
aS'I-NP'
p44
aS'E-NP'
p45
asS'dep_seq'
p46
(lp47
(lp48
S'root'
p49
aS'0'
aS'1'
aa(lp50
S'nn'
p51
aS'5'
aS'3'
aa(lp52
S'amod'
p53
aS'5'
aS'4'
aa(lp54
S'prep_in'
p55
aS'1'
aS'5'
aa(lp56
S'amod'
p57
aS'9'
aS'6'
aa(lp58
S'amod'
p59
aS'9'
aS'7'
aa(lp60
S'nn'
p61
aS'9'
aS'8'
aa(lp62
S'dep'
p63
aS'1'
aS'9'
aasS'srls'
p64
(lp65
sS'pos_seq'
p66
(lp67
S'NN'
p68
aS'IN'
p69
aS'NNP'
p70
aS'JJ'
p71
aS'NNS'
p72
aS'JJ'
p73
aS'JJ'
p74
aS'NN'
p75
aS'NN'
p76
asS'ner_seq'
p77
(lp78
S'O'
aS'O'
aS'O'
aS'O'
aS'O'
aS'O'
aS'O'
aS'O'
aS'O'
assb.