ccopy_reg
_reconstructor
p1
(c__main__
KBproperty
p2
c__builtin__
object
p3
NtRp4
(dp5
S'comment'
p6
S'Number of tracks of a railway or railway station.1076610623'
p7
sS'domain'
p8
S'Infrastructure '
p9
sS'instances_count'
p10
I35
sS'phrases'
p11
NsS'syn_hypo'
p12
S''
sS'label'
p13
S'number of tracks'
p14
sS'range'
p15
S'non Negative Integer '
p16
sS'uniq_subjs'
p17
S'35'
p18
sS'uniq_objs'
p19
I0
sS'prop_uri'
p20
S'http://dbpedia.org/ontology/numberOfTracks'
p21
sS'annotations'
p22
(dp23
S'bag_of_words'
p24
(lp25
S'Infrastructure'
p26
aS'number'
p27
aS'of'
p28
aS'tracks'
p29
aS'non'
p30
aS'Negative'
p31
aS'Integer'
p32
aS'Number'
p33
aS'of'
p34
aS'tracks'
p35
aS'of'
p36
aS'a'
aS'railway'
p37
aS'or'
p38
aS'railway'
p39
aS'station.1076610623'
p40
asS'chunk_seq'
p41
(lp42
S'B-NP'
p43
aS'E-NP'
p44
aS'S-PP'
p45
aS'S-NP'
p46
aS'B-NP'
p47
aS'I-NP'
p48
aS'I-NP'
p49
aS'E-NP'
p50
aS'S-PP'
p51
aS'S-NP'
p52
aS'S-PP'
p53
aS'B-NP'
p54
aS'I-NP'
p55
aS'I-NP'
p56
aS'I-NP'
p57
aS'E-NP'
p58
asS'dep_seq'
p59
(lp60
(lp61
S'nn'
p62
aS'2'
aS'1'
aa(lp63
S'root'
p64
aS'0'
aS'2'
aa(lp65
S'prep_of'
p66
aS'2'
aS'4'
aa(lp67
S'amod'
p68
aS'8'
aS'5'
aa(lp69
S'nn'
p70
aS'8'
aS'6'
aa(lp71
S'nn'
p72
aS'8'
aS'7'
aa(lp73
S'dep'
p74
aS'2'
aS'8'
aa(lp75
S'prep_of'
p76
aS'8'
aS'10'
p77
aa(lp78
S'det'
p79
aS'16'
p80
aS'12'
p81
aa(lp82
S'nn'
p83
aS'16'
p84
aS'13'
p85
aa(lp86
S'conj_or'
p87
aS'13'
p88
aS'15'
p89
aa(lp90
S'prep_of'
p91
aS'10'
p92
aS'16'
p93
aasS'srls'
p94
(lp95
sS'pos_seq'
p96
(lp97
S'NN'
p98
aS'NN'
p99
aS'IN'
p100
aS'NNS'
p101
aS'JJ'
p102
aS'NNP'
p103
aS'NNP'
p104
aS'NNP'
p105
aS'IN'
p106
aS'NNS'
p107
aS'IN'
p108
aS'DT'
p109
aS'NN'
p110
aS'CC'
p111
aS'NN'
p112
aS'NN'
p113
asS'ner_seq'
p114
(lp115
S'O'
aS'O'
aS'O'
aS'O'
aS'O'
aS'O'
aS'O'
aS'O'
aS'O'
aS'O'
aS'O'
aS'O'
aS'O'
aS'O'
aS'O'
aS'O'
assb.