ccopy_reg
_reconstructor
p1
(c__main__
KBproperty
p2
c__builtin__
object
p3
NtRp4
(dp5
S'comment'
p6
S'In academia peer review is often used to determine an academic papers suitability for publication.1717'
p7
sS'domain'
p8
S'Academic Journal '
p9
sS'instances_count'
p10
I2
sS'phrases'
p11
NsS'syn_hypo'
p12
S''
sS'label'
p13
S'is peer reviewed'
p14
sS'range'
p15
S'boolean '
p16
sS'uniq_subjs'
p17
S'2'
sS'uniq_objs'
p18
I0
sS'prop_uri'
p19
S'http://dbpedia.org/ontology/isPeerReviewed'
p20
sS'annotations'
p21
(dp22
S'bag_of_words'
p23
(lp24
S'Academic'
p25
aS'Journal'
p26
aS'is'
p27
aS'peer'
p28
aS'reviewed'
p29
aS'boolean'
p30
aS'In'
p31
aS'academia'
p32
aS'peer'
p33
aS'review'
p34
aS'is'
p35
aS'often'
p36
aS'used'
p37
aS'to'
p38
aS'determine'
p39
aS'an'
p40
aS'academic'
p41
aS'papers'
p42
aS'suitability'
p43
aS'for'
p44
aS'publication.1717'
p45
asS'chunk_seq'
p46
(lp47
S'B-NP'
p48
aS'E-NP'
p49
aS'S-VP'
p50
aS'B-NP'
p51
aS'I-NP'
p52
aS'E-NP'
p53
aS'S-PP'
p54
aS'B-NP'
p55
aS'I-NP'
p56
aS'E-NP'
p57
aS'B-VP'
p58
aS'I-VP'
p59
aS'E-VP'
p60
aS'B-VP'
p61
aS'E-VP'
p62
aS'B-NP'
p63
aS'I-NP'
p64
aS'I-NP'
p65
aS'E-NP'
p66
aS'S-PP'
p67
aS'S-NP'
p68
asS'dep_seq'
p69
(lp70
(lp71
S'nn'
p72
aS'2'
aS'1'
aa(lp73
S'nsubj'
p74
aS'3'
aS'2'
aa(lp75
S'root'
p76
aS'0'
aS'3'
aa(lp77
S'nn'
p78
aS'6'
aS'4'
aa(lp79
S'amod'
p80
aS'6'
aS'5'
aa(lp81
S'nsubjpass'
p82
aS'13'
p83
aS'6'
aa(lp84
S'xsubj'
p85
aS'15'
p86
aS'6'
aa(lp87
S'nn'
p88
aS'10'
p89
aS'8'
aa(lp90
S'nn'
p91
aS'10'
p92
aS'9'
aa(lp93
S'prep_in'
p94
aS'6'
aS'10'
p95
aa(lp96
S'auxpass'
p97
aS'13'
p98
aS'11'
p99
aa(lp100
S'advmod'
p101
aS'13'
p102
aS'12'
p103
aa(lp104
S'ccomp'
p105
aS'3'
aS'13'
p106
aa(lp107
S'aux'
p108
aS'15'
p109
aS'14'
p110
aa(lp111
S'xcomp'
p112
aS'13'
p113
aS'15'
p114
aa(lp115
S'det'
p116
aS'19'
p117
aS'16'
p118
aa(lp119
S'amod'
p120
aS'19'
p121
aS'17'
p122
aa(lp123
S'nn'
p124
aS'19'
p125
aS'18'
p126
aa(lp127
S'dobj'
p128
aS'15'
p129
aS'19'
p130
aa(lp131
S'prep_for'
p132
aS'19'
p133
aS'21'
p134
aasS'srls'
p135
(lp136
(dp137
S'A1'
p138
g30
sS'AM-LOC'
p139
S'In academia peer review'
p140
sS'V'
g29
sa(dp141
S'A1'
p142
S'peer reviewed boolean In academia peer review'
p143
sS'A2'
p144
S'to determine an academic papers suitability for publication.1717'
p145
sS'AM-TMP'
p146
g36
sS'V'
g37
sa(dp147
S'A1'
p148
S'an academic papers suitability'
p149
sS'A0'
p150
S'peer reviewed boolean In academia peer review'
p151
sS'AM-PNC'
p152
S'for publication.1717'
p153
sS'V'
g39
sasS'pos_seq'
p154
(lp155
S'NNP'
p156
aS'NNP'
p157
aS'VBZ'
p158
aS'NN'
p159
aS'VBN'
p160
aS'NN'
p161
aS'IN'
p162
aS'NN'
p163
aS'NN'
p164
aS'NN'
p165
aS'VBZ'
p166
aS'RB'
p167
aS'VBN'
p168
aS'TO'
p169
aS'VB'
p170
aS'DT'
p171
aS'JJ'
p172
aS'NNS'
p173
aS'NN'
p174
aS'IN'
p175
aS'NN'
p176
asS'ner_seq'
p177
(lp178
S'B-ORG'
p179
aS'E-ORG'
p180
aS'O'
aS'O'
aS'O'
aS'O'
aS'O'
aS'O'
aS'O'
aS'O'
aS'O'
aS'O'
aS'O'
aS'O'
aS'O'
aS'O'
aS'O'
aS'O'
aS'O'
aS'O'
aS'O'
assb.