ccopy_reg
_reconstructor
p1
(c__main__
KBproperty
p2
c__builtin__
object
p3
NtRp4
(dp5
S'comment'
p6
S'The date the building was demolished.168164'
p7
sS'domain'
p8
S'Architectural Structure '
p9
sS'instances_count'
p10
I165
sS'phrases'
p11
NsS'syn_hypo'
p12
S''
sS'label'
p13
S'demolition date'
p14
sS'range'
p15
S'date '
p16
sS'uniq_subjs'
p17
S'165'
p18
sS'uniq_objs'
p19
I0
sS'prop_uri'
p20
S'http://dbpedia.org/ontology/demolitionDate'
p21
sS'annotations'
p22
(dp23
S'bag_of_words'
p24
(lp25
S'Architectural'
p26
aS'Structure'
p27
aS'demolition'
p28
aS'date'
p29
aS'date'
p30
aS'The'
p31
aS'date'
p32
aS'the'
p33
aS'building'
p34
aS'was'
p35
aS'demolished.168164'
p36
asS'chunk_seq'
p37
(lp38
S'B-NP'
p39
aS'I-NP'
p40
aS'I-NP'
p41
aS'I-NP'
p42
aS'E-NP'
p43
aS'B-NP'
p44
aS'E-NP'
p45
aS'B-NP'
p46
aS'E-NP'
p47
aS'S-VP'
p48
aS'S-ADJP'
p49
asS'dep_seq'
p50
(lp51
(lp52
S'amod'
p53
aS'5'
aS'1'
aa(lp54
S'nn'
p55
aS'5'
aS'2'
aa(lp56
S'nn'
p57
aS'5'
aS'3'
aa(lp58
S'nn'
p59
aS'5'
aS'4'
aa(lp60
S'nsubj'
p61
aS'11'
p62
aS'5'
aa(lp63
S'det'
p64
aS'7'
aS'6'
aa(lp65
S'nsubj'
p66
aS'11'
p67
aS'7'
aa(lp68
S'det'
p69
aS'9'
aS'8'
aa(lp70
S'dep'
p71
aS'7'
aS'9'
aa(lp72
S'cop'
p73
aS'11'
p74
aS'10'
p75
aa(lp76
S'root'
p77
aS'0'
aS'11'
p78
aasS'srls'
p79
(lp80
sS'pos_seq'
p81
(lp82
S'JJ'
p83
aS'NN'
p84
aS'NN'
p85
aS'NN'
p86
aS'NN'
p87
aS'DT'
p88
aS'NN'
p89
aS'DT'
p90
aS'NN'
p91
aS'VBD'
p92
aS'JJ'
p93
asS'ner_seq'
p94
(lp95
S'O'
aS'O'
aS'O'
aS'O'
aS'O'
aS'O'
aS'O'
aS'O'
aS'O'
aS'O'
aS'O'
assb.