ccopy_reg
_reconstructor
p1
(c__main__
KBproperty
p2
c__builtin__
object
p3
NtRp4
(dp5
S'comment'
p6
S'First work of a person may be notableWork or not00'
p7
sS'domain'
p8
S'Person '
p9
sS'instances_count'
p10
I0
sS'phrases'
p11
NsS'syn_hypo'
p12
S''
sS'label'
p13
S'debutWork'
p14
sS'range'
p15
S'Work '
p16
sS'uniq_subjs'
p17
S'0'
sS'uniq_objs'
p18
I0
sS'prop_uri'
p19
S'http://dbpedia.org/ontology/debutWork'
p20
sS'annotations'
p21
(dp22
S'bag_of_words'
p23
(lp24
S'Person'
p25
aS'debutWork'
p26
aS'Work'
p27
aS'First'
p28
aS'work'
p29
aS'of'
p30
aS'a'
aS'person'
p31
aS'may'
p32
aS'be'
p33
aS'notableWork'
p34
aS'or'
p35
aS'not00'
p36
asS'chunk_seq'
p37
(lp38
S'B-NP'
p39
aS'I-NP'
p40
aS'I-NP'
p41
aS'I-NP'
p42
aS'E-NP'
p43
aS'S-PP'
p44
aS'B-NP'
p45
aS'E-NP'
p46
aS'B-VP'
p47
aS'E-VP'
p48
aS'B-NP'
p49
aS'I-NP'
p50
aS'E-NP'
p51
asS'dep_seq'
p52
(lp53
(lp54
S'nn'
p55
aS'5'
aS'1'
aa(lp56
S'nn'
p57
aS'5'
aS'2'
aa(lp58
S'nn'
p59
aS'5'
aS'3'
aa(lp60
S'nn'
p61
aS'5'
aS'4'
aa(lp62
S'nsubj'
p63
aS'11'
p64
aS'5'
aa(lp65
S'det'
p66
aS'8'
aS'7'
aa(lp67
S'prep_of'
p68
aS'5'
aS'8'
aa(lp69
S'aux'
p70
aS'11'
p71
aS'9'
aa(lp72
S'cop'
p73
aS'11'
p74
aS'10'
p75
aa(lp76
S'root'
p77
aS'0'
aS'11'
p78
aa(lp79
S'conj_or'
p80
aS'11'
p81
aS'13'
p82
aasS'srls'
p83
(lp84
sS'pos_seq'
p85
(lp86
S'NN'
p87
aS'NNP'
p88
aS'NNP'
p89
aS'NNP'
p90
aS'NN'
p91
aS'IN'
p92
aS'DT'
p93
aS'NN'
p94
aS'MD'
p95
aS'VB'
p96
aS'JJ'
p97
aS'CC'
p98
aS'NN'
p99
asS'ner_seq'
p100
(lp101
S'O'
aS'O'
aS'O'
aS'O'
aS'O'
aS'O'
aS'O'
aS'O'
aS'O'
aS'O'
aS'O'
aS'O'
aS'O'
assb.