ccopy_reg
_reconstructor
p1
(c__main__
KBproperty
p2
c__builtin__
object
p3
NtRp4
(dp5
S'comment'
p6
S'922919'
p7
sS'domain'
p8
S''
sS'instances_count'
p9
I518
sS'phrases'
p10
NsS'syn_hypo'
p11
Valcaldemayorcity_managerburgomastermayorcity_managerex-mayormayorcity_managermayoress
p12
sS'label'
p13
S'mayor'
p14
sS'range'
p15
S'Mayor '
p16
sS'uniq_subjs'
p17
S'518'
p18
sS'uniq_objs'
p19
I0
sS'prop_uri'
p20
S'http://dbpedia.org/ontology/mayor'
p21
sS'annotations'
p22
(dp23
S'bag_of_words'
p24
(lp25
S'mayor'
p26
aS'Mayor'
p27
aS'922919'
p28
asS'chunk_seq'
p29
(lp30
S'B-NP'
p31
aS'E-NP'
p32
aS'O'
asS'dep_seq'
p33
(lp34
(lp35
S'nn'
p36
aS'2'
aS'1'
aa(lp37
S'root'
p38
aS'0'
aS'2'
aa(lp39
S'punct'
p40
aS'2'
aS'3'
aasS'srls'
p41
(lp42
sS'pos_seq'
p43
(lp44
S'NN'
p45
aS'NNP'
p46
aS'.'
asS'ner_seq'
p47
(lp48
S'O'
aS'O'
aS'O'
assb.