ccopy_reg
_reconstructor
p1
(c__main__
KBproperty
p2
c__builtin__
object
p3
NtRp4
(dp5
S'comment'
p6
S'the number corresponding to the chromosome on which the gene is located8282'
p7
sS'domain'
p8
S'Gene Location '
p9
sS'instances_count'
p10
I19
sS'phrases'
p11
NsS'syn_hypo'
p12
S''
sS'label'
p13
S'on chromosome'
p14
sS'range'
p15
S'integer '
p16
sS'uniq_subjs'
p17
S'19'
p18
sS'uniq_objs'
p19
I0
sS'prop_uri'
p20
S'http://dbpedia.org/ontology/onChromosome'
p21
sS'annotations'
p22
(dp23
S'bag_of_words'
p24
(lp25
S'Gene'
p26
aS'Location'
p27
aS'on'
p28
aS'chromosome'
p29
aS'integer'
p30
aS'the'
p31
aS'number'
p32
aS'corresponding'
p33
aS'to'
p34
aS'the'
p35
aS'chromosome'
p36
aS'on'
p37
aS'which'
p38
aS'the'
p39
aS'gene'
p40
aS'is'
p41
aS'located8282'
p42
asS'chunk_seq'
p43
(lp44
S'B-NP'
p45
aS'E-NP'
p46
aS'S-PP'
p47
aS'B-NP'
p48
aS'E-NP'
p49
aS'B-NP'
p50
aS'E-NP'
p51
aS'S-VP'
p52
aS'S-PP'
p53
aS'B-NP'
p54
aS'E-NP'
p55
aS'S-PP'
p56
aS'S-NP'
p57
aS'B-NP'
p58
aS'E-NP'
p59
aS'S-VP'
p60
aS'S-ADJP'
p61
asS'dep_seq'
p62
(lp63
(lp64
S'nn'
p65
aS'2'
aS'1'
aa(lp66
S'root'
p67
aS'0'
aS'2'
aa(lp68
S'nn'
p69
aS'5'
aS'4'
aa(lp70
S'prep_on'
p71
aS'2'
aS'5'
aa(lp72
S'det'
p73
aS'7'
aS'6'
aa(lp74
S'dep'
p75
aS'2'
aS'7'
aa(lp76
S'partmod'
p77
aS'2'
aS'8'
aa(lp78
S'det'
p79
aS'11'
p80
aS'10'
p81
aa(lp82
S'prep_to'
p83
aS'8'
aS'11'
p84
aa(lp85
S'prep_on'
p86
aS'17'
p87
aS'13'
p88
aa(lp89
S'det'
p90
aS'15'
p91
aS'14'
p92
aa(lp93
S'nsubj'
p94
aS'17'
p95
aS'15'
p96
aa(lp97
S'aux'
p98
aS'17'
p99
aS'16'
p100
aa(lp101
S'ccomp'
p102
aS'8'
aS'17'
p103
aasS'srls'
p104
(lp105
sS'pos_seq'
p106
(lp107
S'NNP'
p108
aS'NNP'
p109
aS'IN'
p110
aS'NN'
p111
aS'NN'
p112
aS'DT'
p113
aS'NN'
p114
aS'VBG'
p115
aS'TO'
p116
aS'DT'
p117
aS'NN'
p118
aS'IN'
p119
aS'WDT'
p120
aS'DT'
p121
aS'NN'
p122
aS'VBZ'
p123
aS'.'
asS'ner_seq'
p124
(lp125
S'O'
aS'O'
aS'O'
aS'O'
aS'O'
aS'O'
aS'O'
aS'O'
aS'O'
aS'O'
aS'O'
aS'O'
aS'O'
aS'O'
aS'O'
aS'O'
aS'O'
assb.