ccopy_reg
_reconstructor
p1
(c__main__
KBproperty
p2
c__builtin__
object
p3
NtRp4
(dp5
S'comment'
p6
S'00'
p7
sS'domain'
p8
S'Place '
p9
sS'instances_count'
p10
I0
sS'phrases'
p11
NsS'syn_hypo'
p12
S''
sS'label'
p13
S'endangered since'
p14
sS'range'
p15
S'date '
p16
sS'uniq_subjs'
p17
S'0'
sS'uniq_objs'
p18
I0
sS'prop_uri'
p19
S'http://dbpedia.org/ontology/endangeredSince'
p20
sS'annotations'
p21
(dp22
S'bag_of_words'
p23
(lp24
S'Place'
p25
aS'endangered'
p26
aS'since'
p27
aS'date'
p28
aS'00'
p29
asS'chunk_seq'
p30
(lp31
S'S-NP'
p32
aS'S-VP'
p33
aS'S-PP'
p34
aS'S-NP'
p35
aS'S-NP'
p36
asS'dep_seq'
p37
(lp38
(lp39
S'dep'
p40
aS'2'
aS'1'
aa(lp41
S'root'
p42
aS'0'
aS'2'
aa(lp43
S'dep'
p44
aS'2'
aS'3'
aa(lp45
S'pobj'
p46
aS'3'
aS'4'
aa(lp47
S'num'
p48
aS'4'
aS'5'
aasS'srls'
p49
(lp50
(dp51
S'A1'
p52
g25
sS'AM-TMP'
p53
S'since date 00'
p54
sS'V'
g26
sasS'pos_seq'
p55
(lp56
S'NN'
p57
aS'VBN'
p58
aS'IN'
p59
aS'NN'
p60
aS'CD'
p61
asS'ner_seq'
p62
(lp63
S'O'
aS'O'
aS'O'
aS'O'
aS'O'
assb.