ccopy_reg
_reconstructor
p1
(c__main__
KBproperty
p2
c__builtin__
object
p3
NtRp4
(dp5
S'comment'
p6
S'207183'
p7
sS'domain'
p8
S'Building '
p9
sS'instances_count'
p10
I89
sS'phrases'
p11
NsS'syn_hypo'
p12
S''
sS'label'
p13
S'structural system'
p14
sS'range'
p15
S''
sS'uniq_subjs'
p16
S'89'
p17
sS'uniq_objs'
p18
I0
sS'prop_uri'
p19
S'http://dbpedia.org/ontology/structuralSystem'
p20
sS'annotations'
p21
(dp22
S'bag_of_words'
p23
(lp24
S'Building'
p25
aS'structural'
p26
aS'system'
p27
aS'207183'
p28
asS'chunk_seq'
p29
(lp30
S'B-NP'
p31
aS'I-NP'
p32
aS'E-NP'
p33
aS'S-ADJP'
p34
asS'dep_seq'
p35
(lp36
(lp37
S'amod'
p38
aS'3'
aS'1'
aa(lp39
S'amod'
p40
aS'3'
aS'2'
aa(lp41
S'root'
p42
aS'0'
aS'3'
aa(lp43
S'punct'
p44
aS'3'
aS'4'
aasS'srls'
p45
(lp46
(dp47
S'A1'
p48
S'structural system 207183'
p49
sS'V'
g25
sasS'pos_seq'
p50
(lp51
S'VBG'
p52
aS'JJ'
p53
aS'NN'
p54
aS'.'
asS'ner_seq'
p55
(lp56
S'O'
aS'O'
aS'O'
aS'O'
assb.