ccopy_reg
_reconstructor
p1
(c__main__
KBproperty
p2
c__builtin__
object
p3
NtRp4
(dp5
S'comment'
p6
S'links a country to the continent it belongs00'
p7
sS'domain'
p8
S'Country '
p9
sS'instances_count'
p10
I0
sS'phrases'
p11
NsS'syn_hypo'
p12
V
sS'label'
p13
S'continent'
p14
sS'range'
p15
S'Continent '
p16
sS'uniq_subjs'
p17
S'0'
sS'uniq_objs'
p18
I0
sS'prop_uri'
p19
S'http://dbpedia.org/ontology/continent'
p20
sS'annotations'
p21
(dp22
S'bag_of_words'
p23
(lp24
S'Country'
p25
aS'continent'
p26
aS'Continent'
p27
aS'links'
p28
aS'a'
aS'country'
p29
aS'to'
p30
aS'the'
p31
aS'continent'
p32
aS'it'
p33
aS'belongs00'
p34
asS'chunk_seq'
p35
(lp36
S'B-NP'
p37
aS'I-NP'
p38
aS'E-NP'
p39
aS'S-VP'
p40
aS'B-NP'
p41
aS'E-NP'
p42
aS'S-PP'
p43
aS'B-NP'
p44
aS'E-NP'
p45
aS'S-NP'
p46
aS'S-ADJP'
p47
asS'dep_seq'
p48
(lp49
(lp50
S'nn'
p51
aS'3'
aS'1'
aa(lp52
S'nn'
p53
aS'3'
aS'2'
aa(lp54
S'nsubj'
p55
aS'4'
aS'3'
aa(lp56
S'root'
p57
aS'0'
aS'4'
aa(lp58
S'det'
p59
aS'6'
aS'5'
aa(lp60
S'iobj'
p61
aS'4'
aS'6'
aa(lp62
S'det'
p63
aS'9'
aS'8'
aa(lp64
S'prep_to'
p65
aS'6'
aS'9'
aa(lp66
S'dobj'
p67
aS'4'
aS'10'
p68
aa(lp69
S'dep'
p70
aS'4'
aS'11'
p71
aasS'srls'
p72
(lp73
(dp74
S'A1'
p75
S'a country  it belongs00'
p76
sS'A0'
p77
S'Country continent Continent'
p78
sS'A2'
p79
S'to the continent'
p80
sS'V'
g28
sasS'pos_seq'
p81
(lp82
S'NN'
p83
aS'NN'
p84
aS'NNP'
p85
aS'VBZ'
p86
aS'DT'
p87
aS'NN'
p88
aS'TO'
p89
aS'DT'
p90
aS'NN'
p91
aS'PRP'
p92
aS'.'
asS'ner_seq'
p93
(lp94
S'O'
aS'O'
aS'O'
aS'O'
aS'O'
aS'O'
aS'O'
aS'O'
aS'O'
aS'O'
aS'O'
assb.