ccopy_reg
_reconstructor
p1
(c__main__
KBproperty
p2
c__builtin__
object
p3
NtRp4
(dp5
S'comment'
p6
S'00'
p7
sS'domain'
p8
S'Site Of Special Scientific Interest '
p9
sS'instances_count'
p10
I0
sS'phrases'
p11
NsS'syn_hypo'
p12
S''
sS'label'
p13
S'notify date'
p14
sS'range'
p15
S'date '
p16
sS'uniq_subjs'
p17
S'0'
sS'uniq_objs'
p18
I0
sS'prop_uri'
p19
S'http://dbpedia.org/ontology/notifyDate'
p20
sS'annotations'
p21
(dp22
S'bag_of_words'
p23
(lp24
S'Site'
p25
aS'Of'
p26
aS'Special'
p27
aS'Scientific'
p28
aS'Interest'
p29
aS'notify'
p30
aS'date'
p31
aS'date'
p32
aS'00'
p33
asS'chunk_seq'
p34
(lp35
S'S-NP'
p36
aS'S-PP'
p37
aS'B-NP'
p38
aS'I-NP'
p39
aS'E-NP'
p40
aS'S-VP'
p41
aS'B-NP'
p42
aS'E-NP'
p43
aS'S-NP'
p44
asS'dep_seq'
p45
(lp46
(lp47
S'nsubj'
p48
aS'6'
aS'1'
aa(lp49
S'nn'
p50
aS'5'
aS'3'
aa(lp51
S'nn'
p52
aS'5'
aS'4'
aa(lp53
S'prep_of'
p54
aS'1'
aS'5'
aa(lp55
S'root'
p56
aS'0'
aS'6'
aa(lp57
S'nn'
p58
aS'8'
aS'7'
aa(lp59
S'dobj'
p60
aS'6'
aS'8'
aa(lp61
S'iobj'
p62
aS'6'
aS'8'
aa(lp63
S'dobj'
p64
aS'6'
aS'9'
aa(lp65
S'dep'
p66
aS'8'
aS'9'
aasS'srls'
p67
(lp68
(dp69
S'A0'
p70
S'Site Of Special Scientific Interest'
p71
sS'AM-TMP'
p72
S'date date 00'
p73
sS'V'
g30
sasS'pos_seq'
p74
(lp75
S'NN'
p76
aS'IN'
p77
aS'NNP'
p78
aS'NNP'
p79
aS'NNP'
p80
aS'VBP'
p81
aS'NN'
p82
aS'NN'
p83
aS'CD'
p84
asS'ner_seq'
p85
(lp86
S'O'
aS'O'
aS'O'
aS'O'
aS'O'
aS'O'
aS'O'
aS'O'
aS'O'
assb.