ccopy_reg
_reconstructor
p1
(c__main__
KBproperty
p2
c__builtin__
object
p3
NtRp4
(dp5
S'comment'
p6
S'Number of abstentions from the vote00'
p7
sS'domain'
p8
S'Stated Resolution '
p9
sS'instances_count'
p10
I0
sS'phrases'
p11
NsS'syn_hypo'
p12
S''
sS'label'
p13
S'abstentions'
p14
sS'range'
p15
S'non Negative Integer '
p16
sS'uniq_subjs'
p17
S'0'
sS'uniq_objs'
p18
I0
sS'prop_uri'
p19
S'http://dbpedia.org/ontology/abstentions'
p20
sS'annotations'
p21
(dp22
S'bag_of_words'
p23
(lp24
S'Stated'
p25
aS'Resolution'
p26
aS'abstentions'
p27
aS'non'
p28
aS'Negative'
p29
aS'Integer'
p30
aS'Number'
p31
aS'of'
p32
aS'abstentions'
p33
aS'from'
p34
aS'the'
p35
aS'vote00'
p36
asS'chunk_seq'
p37
(lp38
S'B-NP'
p39
aS'I-NP'
p40
aS'E-NP'
p41
aS'B-NP'
p42
aS'I-NP'
p43
aS'I-NP'
p44
aS'E-NP'
p45
aS'S-PP'
p46
aS'S-NP'
p47
aS'S-PP'
p48
aS'B-NP'
p49
aS'E-NP'
p50
asS'dep_seq'
p51
(lp52
(lp53
S'amod'
p54
aS'3'
aS'1'
aa(lp55
S'nn'
p56
aS'3'
aS'2'
aa(lp57
S'nn'
p58
aS'7'
aS'3'
aa(lp59
S'dep'
p60
aS'5'
aS'4'
aa(lp61
S'amod'
p62
aS'7'
aS'5'
aa(lp63
S'nn'
p64
aS'7'
aS'6'
aa(lp65
S'root'
p66
aS'0'
aS'7'
aa(lp67
S'prep_of'
p68
aS'7'
aS'9'
aa(lp69
S'det'
p70
aS'12'
p71
aS'11'
p72
aa(lp73
S'prep_from'
p74
aS'9'
aS'12'
p75
aasS'srls'
p76
(lp77
sS'pos_seq'
p78
(lp79
S'VBN'
p80
aS'NN'
p81
aS'NNS'
p82
aS'VBP'
p83
aS'JJ'
p84
aS'NNP'
p85
aS'NNP'
p86
aS'IN'
p87
aS'NNS'
p88
aS'IN'
p89
aS'DT'
p90
aS'NN'
p91
asS'ner_seq'
p92
(lp93
S'O'
aS'O'
aS'O'
aS'O'
aS'O'
aS'O'
aS'O'
aS'O'
aS'O'
aS'O'
aS'O'
aS'O'
assb.