ccopy_reg
_reconstructor
p1
(c__main__
KBproperty
p2
c__builtin__
object
p3
NtRp4
(dp5
S'comment'
p6
S'1141311406'
p7
sS'domain'
p8
S'Ship '
p9
sS'instances_count'
p10
I6851
sS'phrases'
p11
NsS'syn_hypo'
p12
S''
sS'label'
p13
S'laying down'
p14
sS'range'
p15
S'date '
p16
sS'uniq_subjs'
p17
S'6851'
p18
sS'uniq_objs'
p19
I0
sS'prop_uri'
p20
S'http://dbpedia.org/ontology/layingDown'
p21
sS'annotations'
p22
(dp23
S'bag_of_words'
p24
(lp25
S'Ship'
p26
aS'laying'
p27
aS'down'
p28
aS'date'
p29
aS'1141311406'
p30
asS'chunk_seq'
p31
(lp32
S'S-NP'
p33
aS'S-VP'
p34
aS'S-PRT'
p35
aS'S-NP'
p36
aS'S-ADJP'
p37
asS'dep_seq'
p38
(lp39
(lp40
S'nsubj'
p41
aS'2'
aS'1'
aa(lp42
S'root'
p43
aS'0'
aS'2'
aa(lp44
S'advmod'
p45
aS'2'
aS'3'
aa(lp46
S'dobj'
p47
aS'2'
aS'4'
aa(lp48
S'punct'
p49
aS'4'
aS'5'
aasS'srls'
p50
(lp51
(dp52
S'A1'
p53
S'date 1141311406'
p54
sS'A0'
p55
g26
sS'V'
S'laying down'
p56
sasS'pos_seq'
p57
(lp58
S'NN'
p59
aS'VBG'
p60
aS'RP'
p61
aS'NN'
p62
aS'.'
asS'ner_seq'
p63
(lp64
S'O'
aS'O'
aS'O'
aS'O'
aS'O'
assb.