ccopy_reg
_reconstructor
p1
(c__main__
KBproperty
p2
c__builtin__
object
p3
NtRp4
(dp5
S'comment'
p6
S'the person who is responsible for the actors makeup00'
p7
sS'domain'
p8
S'Film '
p9
sS'instances_count'
p10
I0
sS'phrases'
p11
NsS'syn_hypo'
p12
S''
sS'label'
p13
S'makeup artist'
p14
sS'range'
p15
S'Person '
p16
sS'uniq_subjs'
p17
S'0'
sS'uniq_objs'
p18
I0
sS'prop_uri'
p19
S'http://dbpedia.org/ontology/makeupArtist'
p20
sS'annotations'
p21
(dp22
S'bag_of_words'
p23
(lp24
S'Film'
p25
aS'makeup'
p26
aS'artist'
p27
aS'Person'
p28
aS'the'
p29
aS'person'
p30
aS'who'
p31
aS'is'
p32
aS'responsible'
p33
aS'for'
p34
aS'the'
p35
aS'actors'
p36
aS'makeup00'
p37
asS'chunk_seq'
p38
(lp39
S'B-NP'
p40
aS'I-NP'
p41
aS'I-NP'
p42
aS'E-NP'
p43
aS'B-NP'
p44
aS'E-NP'
p45
aS'S-NP'
p46
aS'S-VP'
p47
aS'S-ADJP'
p48
aS'S-PP'
p49
aS'B-NP'
p50
aS'E-NP'
p51
aS'S-ADJP'
p52
asS'dep_seq'
p53
(lp54
(lp55
S'nn'
p56
aS'4'
aS'1'
aa(lp57
S'nn'
p58
aS'4'
aS'2'
aa(lp59
S'nn'
p60
aS'4'
aS'3'
aa(lp61
S'dep'
p62
aS'6'
aS'4'
aa(lp63
S'det'
p64
aS'6'
aS'5'
aa(lp65
S'root'
p66
aS'0'
aS'6'
aa(lp67
S'nsubj'
p68
aS'9'
aS'6'
aa(lp69
S'cop'
p70
aS'9'
aS'8'
aa(lp71
S'rcmod'
p72
aS'6'
aS'9'
aa(lp73
S'det'
p74
aS'12'
p75
aS'11'
p76
aa(lp77
S'prep_for'
p78
aS'9'
aS'12'
p79
aa(lp80
S'punct'
p81
aS'6'
aS'13'
p82
aasS'srls'
p83
(lp84
sS'pos_seq'
p85
(lp86
S'NN'
p87
aS'NN'
p88
aS'NN'
p89
aS'NN'
p90
aS'DT'
p91
aS'NN'
p92
aS'WP'
p93
aS'VBZ'
p94
aS'JJ'
p95
aS'IN'
p96
aS'DT'
p97
aS'NNS'
p98
aS'.'
asS'ner_seq'
p99
(lp100
S'O'
aS'O'
aS'O'
aS'O'
aS'O'
aS'O'
aS'O'
aS'O'
aS'O'
aS'O'
aS'O'
aS'O'
aS'O'
assb.