ccopy_reg
_reconstructor
p1
(c__main__
KBproperty
p2
c__builtin__
object
p3
NtRp4
(dp5
S'comment'
p6
S'00'
p7
sS'domain'
p8
S'Document '
p9
sS'instances_count'
p10
I0
sS'phrases'
p11
NsS'syn_hypo'
p12
S''
sS'label'
p13
S'Date Last Updated'
p14
sS'range'
p15
S'date '
p16
sS'uniq_subjs'
p17
S'0'
sS'uniq_objs'
p18
I0
sS'prop_uri'
p19
S'http://dbpedia.org/ontology/dateLastUpdated'
p20
sS'annotations'
p21
(dp22
S'bag_of_words'
p23
(lp24
S'Document'
p25
aS'Date'
p26
aS'Last'
p27
aS'Updated'
p28
aS'date'
p29
aS'00'
p30
asS'chunk_seq'
p31
(lp32
S'B-NP'
p33
aS'E-NP'
p34
aS'B-NP'
p35
aS'I-NP'
p36
aS'E-NP'
p37
aS'O'
asS'dep_seq'
p38
(lp39
(lp40
S'nn'
p41
aS'2'
aS'1'
aa(lp42
S'root'
p43
aS'0'
aS'2'
aa(lp44
S'amod'
p45
aS'5'
aS'3'
aa(lp46
S'amod'
p47
aS'5'
aS'4'
aa(lp48
S'dep'
p49
aS'2'
aS'5'
aa(lp50
S'dep'
p51
aS'2'
aS'6'
aasS'srls'
p52
(lp53
(dp54
S'A1'
p55
g29
sS'V'
g28
sasS'pos_seq'
p56
(lp57
S'NN'
p58
aS'NN'
p59
aS'JJ'
p60
aS'VBN'
p61
aS'NN'
p62
aS'CD'
p63
asS'ner_seq'
p64
(lp65
S'O'
aS'O'
aS'O'
aS'O'
aS'O'
aS'O'
assb.