ccopy_reg
_reconstructor
p1
(c__main__
KBproperty
p2
c__builtin__
object
p3
NtRp4
(dp5
S'comment'
p6
S'Dutch PPN code is a library cataloguing code for collection items books journals and the like.00'
p7
sS'domain'
p8
S'Written Work '
p9
sS'instances_count'
p10
I0
sS'phrases'
p11
NsS'syn_hypo'
p12
S''
sS'label'
p13
S'Dutch PPN code'
p14
sS'range'
p15
S'string '
p16
sS'uniq_subjs'
p17
S'0'
sS'uniq_objs'
p18
I0
sS'prop_uri'
p19
S'http://dbpedia.org/ontology/dutchPPNCode'
p20
sS'annotations'
p21
(dp22
S'bag_of_words'
p23
(lp24
S'Written'
p25
aS'Work'
p26
aS'Dutch'
p27
aS'PPN'
p28
aS'code'
p29
aS'string'
p30
aS'Dutch'
p31
aS'PPN'
p32
aS'code'
p33
aS'is'
p34
aS'a'
aS'library'
p35
aS'cataloguing'
p36
aS'code'
p37
aS'for'
p38
aS'collection'
p39
aS'items'
p40
aS'books'
p41
aS'journals'
p42
aS'and'
p43
aS'the'
p44
aS'like.00'
p45
asS'chunk_seq'
p46
(lp47
S'B-NP'
p48
aS'I-NP'
p49
aS'I-NP'
p50
aS'I-NP'
p51
aS'I-NP'
p52
aS'I-NP'
p53
aS'I-NP'
p54
aS'I-NP'
p55
aS'E-NP'
p56
aS'S-VP'
p57
aS'B-NP'
p58
aS'I-NP'
p59
aS'I-NP'
p60
aS'E-NP'
p61
aS'S-PP'
p62
aS'B-NP'
p63
aS'I-NP'
p64
aS'I-NP'
p65
aS'E-NP'
p66
aS'O'
aS'B-NP'
p67
aS'E-NP'
p68
asS'dep_seq'
p69
(lp70
(lp71
S'nn'
p72
aS'9'
aS'1'
aa(lp73
S'nn'
p74
aS'9'
aS'2'
aa(lp75
S'nn'
p76
aS'9'
aS'3'
aa(lp77
S'nn'
p78
aS'9'
aS'4'
aa(lp79
S'nn'
p80
aS'9'
aS'5'
aa(lp81
S'nn'
p82
aS'9'
aS'6'
aa(lp83
S'nn'
p84
aS'9'
aS'7'
aa(lp85
S'nn'
p86
aS'9'
aS'8'
aa(lp87
S'nsubj'
p88
aS'14'
p89
aS'9'
aa(lp90
S'cop'
p91
aS'14'
p92
aS'10'
p93
aa(lp94
S'det'
p95
aS'14'
p96
aS'11'
p97
aa(lp98
S'nn'
p99
aS'14'
p100
aS'12'
p101
aa(lp102
S'amod'
p103
aS'14'
p104
aS'13'
p105
aa(lp106
S'root'
p107
aS'0'
aS'14'
p108
aa(lp109
S'nn'
p110
aS'19'
p111
aS'16'
p112
aa(lp113
S'nn'
p114
aS'19'
p115
aS'17'
p116
aa(lp117
S'nn'
p118
aS'19'
p119
aS'18'
p120
aa(lp121
S'prep_for'
p122
aS'14'
p123
aS'19'
p124
aa(lp125
S'det'
p126
aS'22'
p127
aS'21'
p128
aa(lp129
S'conj_and'
p130
aS'14'
p131
aS'22'
p132
aasS'srls'
p133
(lp134
(dp135
S'A1'
p136
g37
sS'A2'
p137
S'for collection items books journals and the like.00'
p138
sS'V'
g36
sasS'pos_seq'
p139
(lp140
S'NNP'
p141
aS'NNP'
p142
aS'NNP'
p143
aS'NNP'
p144
aS'NN'
p145
aS'NN'
p146
aS'NNP'
p147
aS'NNP'
p148
aS'NN'
p149
aS'VBZ'
p150
aS'DT'
p151
aS'NN'
p152
aS'VBG'
p153
aS'NN'
p154
aS'IN'
p155
aS'NN'
p156
aS'NNS'
p157
aS'NNS'
p158
aS'NNS'
p159
aS'CC'
p160
aS'DT'
p161
aS'NN'
p162
asS'ner_seq'
p163
(lp164
S'O'
aS'O'
aS'S-MISC'
p165
aS'S-ORG'
p166
aS'O'
aS'O'
aS'S-MISC'
p167
aS'S-ORG'
p168
aS'O'
aS'O'
aS'O'
aS'O'
aS'O'
aS'O'
aS'O'
aS'O'
aS'O'
aS'O'
aS'O'
aS'O'
aS'O'
aS'O'
assb.