ccopy_reg
_reconstructor
p1
(c__main__
KBproperty
p2
c__builtin__
object
p3
NtRp4
(dp5
S'comment'
p6
S'1037710021'
p7
sS'domain'
p8
S'Gridiron Football Player '
p9
sS'instances_count'
p10
I500
sS'phrases'
p11
NsS'syn_hypo'
p12
S''
sS'label'
p13
S'draft pick'
p14
sS'range'
p15
S'string '
p16
sS'uniq_subjs'
p17
S'500'
p18
sS'uniq_objs'
p19
I0
sS'prop_uri'
p20
S'http://dbpedia.org/ontology/draftPick'
p21
sS'annotations'
p22
(dp23
S'bag_of_words'
p24
(lp25
S'Gridiron'
p26
aS'Football'
p27
aS'Player'
p28
aS'draft'
p29
aS'pick'
p30
aS'string'
p31
aS'1037710021'
p32
asS'chunk_seq'
p33
(lp34
S'B-NP'
p35
aS'I-NP'
p36
aS'I-NP'
p37
aS'E-NP'
p38
aS'S-VP'
p39
aS'B-NP'
p40
aS'E-NP'
p41
asS'dep_seq'
p42
(lp43
(lp44
S'nn'
p45
aS'4'
aS'1'
aa(lp46
S'nn'
p47
aS'4'
aS'2'
aa(lp48
S'nn'
p49
aS'4'
aS'3'
aa(lp50
S'nsubj'
p51
aS'5'
aS'4'
aa(lp52
S'root'
p53
aS'0'
aS'5'
aa(lp54
S'nn'
p55
aS'7'
aS'6'
aa(lp56
S'dobj'
p57
aS'5'
aS'7'
aasS'srls'
p58
(lp59
(dp60
S'A1'
p61
S'string 1037710021'
p62
sS'A0'
p63
S'Gridiron Football Player draft'
p64
sS'V'
g30
sasS'pos_seq'
p65
(lp66
S'NNP'
p67
aS'NNP'
p68
aS'NNP'
p69
aS'NN'
p70
aS'VB'
p71
aS'NN'
p72
aS'NN'
p73
asS'ner_seq'
p74
(lp75
S'B-ORG'
p76
aS'I-ORG'
p77
aS'E-ORG'
p78
aS'O'
aS'O'
aS'O'
aS'O'
assb.