ccopy_reg
_reconstructor
p1
(c__main__
KBproperty
p2
c__builtin__
object
p3
NtRp4
(dp5
S'comment'
p6
S'A defined objective of the project.99'
p7
sS'domain'
p8
S'Project '
p9
sS'instances_count'
p10
I9
sS'phrases'
p11
NsS'syn_hypo'
p12
S''
sS'label'
p13
S'project objective'
p14
sS'range'
p15
S'string '
p16
sS'uniq_subjs'
p17
S'9'
sS'uniq_objs'
p18
I0
sS'prop_uri'
p19
S'http://dbpedia.org/ontology/projectObjective'
p20
sS'annotations'
p21
(dp22
S'bag_of_words'
p23
(lp24
S'Project'
p25
aS'project'
p26
aS'objective'
p27
aS'string'
p28
aS'A'
aS'defined'
p29
aS'objective'
p30
aS'of'
p31
aS'the'
p32
aS'project.99'
p33
asS'chunk_seq'
p34
(lp35
S'B-NP'
p36
aS'I-NP'
p37
aS'I-NP'
p38
aS'E-NP'
p39
aS'B-NP'
p40
aS'I-NP'
p41
aS'E-NP'
p42
aS'S-PP'
p43
aS'B-NP'
p44
aS'E-NP'
p45
asS'dep_seq'
p46
(lp47
(lp48
S'nn'
p49
aS'4'
aS'1'
aa(lp50
S'nn'
p51
aS'4'
aS'2'
aa(lp52
S'amod'
p53
aS'4'
aS'3'
aa(lp54
S'dep'
p55
aS'7'
aS'4'
aa(lp56
S'det'
p57
aS'7'
aS'5'
aa(lp58
S'amod'
p59
aS'7'
aS'6'
aa(lp60
S'root'
p61
aS'0'
aS'7'
aa(lp62
S'det'
p63
aS'10'
p64
aS'9'
aa(lp65
S'prep_of'
p66
aS'7'
aS'10'
p67
aasS'srls'
p68
(lp69
(dp70
S'A1'
p71
g30
sS'V'
g29
sasS'pos_seq'
p72
(lp73
S'NN'
p74
aS'NN'
p75
aS'JJ'
p76
aS'NN'
p77
aS'DT'
p78
aS'VBN'
p79
aS'NN'
p80
aS'IN'
p81
aS'DT'
p82
aS'NN'
p83
asS'ner_seq'
p84
(lp85
S'O'
aS'O'
aS'O'
aS'O'
aS'O'
aS'O'
aS'O'
aS'O'
aS'O'
aS'O'
assb.