ccopy_reg
_reconstructor
p1
(c__main__
KBproperty
p2
c__builtin__
object
p3
NtRp4
(dp5
S'comment'
p6
S'author of preface'
p7
sS'domain'
p8
S'Written Work '
p9
sS'instances_count'
p10
I0
sS'phrases'
p11
NsS'syn_hypo'
p12
S''
sS'label'
p13
g7
sS'range'
p14
S'Person '
p15
sS'uniq_subjs'
p16
S'0'
sS'uniq_objs'
p17
I0
sS'prop_uri'
p18
S'http://dbpedia.org/ontology/prefaceBy'
p19
sS'annotations'
p20
(dp21
S'bag_of_words'
p22
(lp23
S'Written'
p24
aS'Work'
p25
aS'preface'
p26
aS'By'
p27
aS'Person'
p28
aS'author'
p29
aS'of'
p30
aS'preface'
p31
asS'chunk_seq'
p32
(lp33
S'B-NP'
p34
aS'I-NP'
p35
aS'E-NP'
p36
aS'S-PP'
p37
aS'B-NP'
p38
aS'E-NP'
p39
aS'S-PP'
p40
aS'S-NP'
p41
asS'dep_seq'
p42
(lp43
(lp44
S'nn'
p45
aS'3'
aS'1'
aa(lp46
S'nn'
p47
aS'3'
aS'2'
aa(lp48
S'root'
p49
aS'0'
aS'3'
aa(lp50
S'nn'
p51
aS'6'
aS'5'
aa(lp52
S'prep_by'
p53
aS'3'
aS'6'
aa(lp54
S'prep_of'
p55
aS'6'
aS'8'
aasS'srls'
p56
(lp57
sS'pos_seq'
p58
(lp59
S'NNP'
p60
aS'NNP'
p61
aS'NN'
p62
aS'IN'
p63
aS'NN'
p64
aS'NN'
p65
aS'IN'
p66
aS'NN'
p67
asS'ner_seq'
p68
(lp69
S'O'
aS'O'
aS'O'
aS'O'
aS'O'
aS'O'
aS'O'
aS'O'
assb.