ccopy_reg
_reconstructor
p1
(c__main__
KBproperty
p2
c__builtin__
object
p3
NtRp4
(dp5
S'comment'
p6
S'4675720476'
p7
sS'domain'
p8
S'Organisation '
p9
sS'instances_count'
p10
I13581
sS'phrases'
p11
NsS'syn_hypo'
p12
Vcargomerchandisewareproductladingmerchandisewareproductfreightmerchandisewareproductloadmerchandisewareproductloadingmerchandisewareproductpayloadmerchandisewareproductshipmentmerchandisewareproductconsignmentmerchandisewareproductcontrabandmerchandisewareproductfeaturemerchandisewareproductgenericmerchandisewareproductironmongerymerchandisewareproductirregularmerchandisewareproductsecondmerchandisewareproductlinemerchandisewareproductproduct_linemerchandisewareproductline_of_productsmerchandisewareproductline_of_merchandisemerchandisewareproductbusiness_linemerchandisewareproductline_of_businessmerchandisewareproductnumbermerchandisewareproductrefillmerchandisewareproductreleasemerchandisewareproductschlockmerchandisewareproductshlockmerchandisewareproductdreckmerchandisewareproductsoftware_packagemerchandisewareproductsoftware_productmerchandisewareproductstockmerchandisewareproductinventorymerchandisewareproducttop_of_the_linemerchandisewareproductyard_goodsmerchandisewareproductpiece_goods
p13
sS'label'
p14
S'product'
p15
sS'range'
p16
S''
sS'uniq_subjs'
p17
S'13581'
p18
sS'uniq_objs'
p19
I0
sS'prop_uri'
p20
S'http://dbpedia.org/ontology/product'
p21
sS'annotations'
p22
(dp23
S'bag_of_words'
p24
(lp25
S'Organisation'
p26
aS'product'
p27
aS'4675720476'
p28
asS'chunk_seq'
p29
(lp30
S'B-NP'
p31
aS'E-NP'
p32
aS'O'
asS'dep_seq'
p33
(lp34
(lp35
S'nn'
p36
aS'2'
aS'1'
aa(lp37
S'root'
p38
aS'0'
aS'2'
aa(lp39
S'punct'
p40
aS'2'
aS'3'
aasS'srls'
p41
(lp42
sS'pos_seq'
p43
(lp44
S'NN'
p45
aS'NN'
p46
aS'.'
asS'ner_seq'
p47
(lp48
S'O'
aS'O'
aS'O'
assb.