ccopy_reg
_reconstructor
p1
(c__main__
KBproperty
p2
c__builtin__
object
p3
NtRp4
(dp5
S'comment'
p6
S'Illustrator where used throughout and a major feature30142707'
p7
sS'domain'
p8
S'Written Work '
p9
sS'instances_count'
p10
I1650
sS'phrases'
p11
NsS'syn_hypo'
p12
Vcommercial_artist
p13
sS'label'
p14
S'illustrator'
p15
sS'range'
p16
S'Person '
p17
sS'uniq_subjs'
p18
S'1650'
p19
sS'uniq_objs'
p20
I0
sS'prop_uri'
p21
S'http://dbpedia.org/ontology/illustrator'
p22
sS'annotations'
p23
(dp24
S'bag_of_words'
p25
(lp26
S'Written'
p27
aS'Work'
p28
aS'illustrator'
p29
aS'Person'
p30
aS'Illustrator'
p31
aS'where'
p32
aS'used'
p33
aS'throughout'
p34
aS'and'
p35
aS'a'
aS'major'
p36
aS'feature30142707'
p37
asS'chunk_seq'
p38
(lp39
S'B-NP'
p40
aS'I-NP'
p41
aS'I-NP'
p42
aS'I-NP'
p43
aS'E-NP'
p44
aS'S-ADVP'
p45
aS'S-VP'
p46
aS'S-PP'
p47
aS'O'
aS'B-NP'
p48
aS'I-NP'
p49
aS'E-NP'
p50
asS'dep_seq'
p51
(lp52
(lp53
S'nn'
p54
aS'5'
aS'1'
aa(lp55
S'nn'
p56
aS'5'
aS'2'
aa(lp57
S'nn'
p58
aS'5'
aS'3'
aa(lp59
S'nn'
p60
aS'5'
aS'4'
aa(lp61
S'root'
p62
aS'0'
aS'5'
aa(lp63
S'advmod'
p64
aS'7'
aS'6'
aa(lp65
S'rcmod'
p66
aS'5'
aS'7'
aa(lp67
S'prep'
p68
aS'7'
aS'8'
aa(lp69
S'det'
p70
aS'12'
p71
aS'10'
p72
aa(lp73
S'amod'
p74
aS'12'
p75
aS'11'
p76
aa(lp77
S'conj_and'
p78
aS'5'
aS'12'
p79
aasS'srls'
p80
(lp81
(dp82
S'A1'
p83
S'Written Work illustrator Person Illustrator'
p84
sS'AM-LOC'
p85
S'throughout and a major feature30142707'
p86
sS'R-A1'
p87
g32
sS'V'
g33
sasS'pos_seq'
p88
(lp89
S'NNP'
p90
aS'NNP'
p91
aS'NN'
p92
aS'NNP'
p93
aS'NNP'
p94
aS'WRB'
p95
aS'VBN'
p96
aS'IN'
p97
aS'CC'
p98
aS'DT'
p99
aS'JJ'
p100
aS'NN'
p101
asS'ner_seq'
p102
(lp103
S'O'
aS'O'
aS'O'
aS'O'
aS'O'
aS'O'
aS'O'
aS'O'
aS'O'
aS'O'
aS'O'
aS'O'
assb.