ccopy_reg
_reconstructor
p1
(c__main__
KBproperty
p2
c__builtin__
object
p3
NtRp4
(dp5
S'comment'
p6
S'track width \\xce\\xbc'
p7
sS'domain'
p8
S'Route Of Transportation '
p9
sS'instances_count'
p10
I0
sS'phrases'
p11
NsS'syn_hypo'
p12
S''
sS'label'
p13
g7
sS'range'
p14
S'double '
p15
sS'uniq_subjs'
p16
S'0'
sS'uniq_objs'
p17
I0
sS'prop_uri'
p18
S'http://dbpedia.org/ontology/trackWidth'
p19
sS'annotations'
p20
(dp21
S'bag_of_words'
p22
(lp23
S'Route'
p24
aS'Of'
p25
aS'Transportation'
p26
aS'track'
p27
aS'Width'
p28
aS'double'
p29
aS'track'
p30
aS'width'
p31
aS'\\'
aS'xce'
p32
aS'\\'
aS'xbc'
p33
asS'chunk_seq'
p34
(lp35
S'S-NP'
p36
aS'S-PP'
p37
aS'B-NP'
p38
aS'I-NP'
p39
aS'I-NP'
p40
aS'I-NP'
p41
aS'E-NP'
p42
aS'O'
aS'O'
aS'O'
aS'O'
aS'O'
asS'dep_seq'
p43
(lp44
(lp45
S'root'
p46
aS'0'
aS'1'
aa(lp47
S'nn'
p48
aS'4'
aS'3'
aa(lp49
S'prep_of'
p50
aS'1'
aS'4'
aa(lp51
S'discourse'
p52
aS'4'
aS'5'
aa(lp53
S'dep'
p54
aS'5'
aS'6'
aa(lp55
S'dep'
p56
aS'5'
aS'7'
aa(lp57
S'dep'
p58
aS'5'
aS'8'
aa(lp59
S'dep'
p60
aS'5'
aS'9'
aa(lp61
S'dep'
p62
aS'5'
aS'10'
p63
aa(lp64
S'dep'
p65
aS'5'
aS'11'
p66
aa(lp67
S'dep'
p68
aS'5'
aS'12'
p69
aasS'srls'
p70
(lp71
sS'pos_seq'
p72
(lp73
S'NNP'
p74
aS'IN'
p75
aS'NNP'
p76
aS'NN'
p77
aS'NNP'
p78
aS'JJ'
p79
aS'NN'
p80
aS'FW'
p81
aS'FW'
p82
aS'FW'
p83
aS'FW'
p84
aS'FW'
p85
asS'ner_seq'
p86
(lp87
S'B-ORG'
p88
aS'I-ORG'
p89
aS'E-ORG'
p90
aS'O'
aS'O'
aS'O'
aS'O'
aS'O'
aS'O'
aS'O'
aS'O'
aS'O'
assb.