ccopy_reg
_reconstructor
p1
(c__main__
KBproperty
p2
c__builtin__
object
p3
NtRp4
(dp5
S'comment'
p6
S'winner of a competition in the mixed double session as in tennis4221'
p7
sS'domain'
p8
S'Sports Event '
p9
sS'instances_count'
p10
I33
sS'phrases'
p11
NsS'syn_hypo'
p12
S''
sS'label'
p13
S'champion in mixed double'
p14
sS'range'
p15
S'Athlete '
p16
sS'uniq_subjs'
p17
S'33'
p18
sS'uniq_objs'
p19
I0
sS'prop_uri'
p20
S'http://dbpedia.org/ontology/championInMixedDouble'
p21
sS'annotations'
p22
(dp23
S'bag_of_words'
p24
(lp25
S'Sports'
p26
aS'Event'
p27
aS'champion'
p28
aS'in'
p29
aS'mixed'
p30
aS'double'
p31
aS'Athlete'
p32
aS'winner'
p33
aS'of'
p34
aS'a'
aS'competition'
p35
aS'in'
p36
aS'the'
p37
aS'mixed'
p38
aS'double'
p39
aS'session'
p40
aS'as'
p41
aS'in'
p42
aS'tennis4221'
p43
asS'chunk_seq'
p44
(lp45
S'B-NP'
p46
aS'I-NP'
p47
aS'E-NP'
p48
aS'S-PP'
p49
aS'B-NP'
p50
aS'I-NP'
p51
aS'I-NP'
p52
aS'E-NP'
p53
aS'S-PP'
p54
aS'B-NP'
p55
aS'E-NP'
p56
aS'S-PP'
p57
aS'B-NP'
p58
aS'I-NP'
p59
aS'I-NP'
p60
aS'E-NP'
p61
aS'S-PP'
p62
aS'S-PP'
p63
aS'S-NP'
p64
asS'dep_seq'
p65
(lp66
(lp67
S'nn'
p68
aS'3'
aS'1'
aa(lp69
S'nn'
p70
aS'3'
aS'2'
aa(lp71
S'root'
p72
aS'0'
aS'3'
aa(lp73
S'amod'
p74
aS'8'
aS'5'
aa(lp75
S'amod'
p76
aS'8'
aS'6'
aa(lp77
S'nn'
p78
aS'8'
aS'7'
aa(lp79
S'prep_in'
p80
aS'3'
aS'8'
aa(lp81
S'det'
p82
aS'11'
p83
aS'10'
p84
aa(lp85
S'prep_of'
p86
aS'8'
aS'11'
p87
aa(lp88
S'det'
p89
aS'16'
p90
aS'13'
p91
aa(lp92
S'amod'
p93
aS'16'
p94
aS'14'
p95
aa(lp96
S'amod'
p97
aS'16'
p98
aS'15'
p99
aa(lp100
S'prep_in'
p101
aS'11'
p102
aS'16'
p103
aa(lp104
S'prep'
p105
aS'11'
p106
aS'17'
p107
aa(lp108
S'pcomp'
p109
aS'17'
p110
aS'18'
p111
aa(lp112
S'pobj'
p113
aS'18'
p114
aS'19'
p115
aasS'srls'
p116
(lp117
sS'pos_seq'
p118
(lp119
S'NNS'
p120
aS'NN'
p121
aS'NN'
p122
aS'IN'
p123
aS'JJ'
p124
aS'JJ'
p125
aS'NN'
p126
aS'NN'
p127
aS'IN'
p128
aS'DT'
p129
aS'NN'
p130
aS'IN'
p131
aS'DT'
p132
aS'JJ'
p133
aS'JJ'
p134
aS'NN'
p135
aS'IN'
p136
aS'IN'
p137
aS'NN'
p138
asS'ner_seq'
p139
(lp140
S'O'
aS'O'
aS'O'
aS'O'
aS'O'
aS'O'
aS'O'
aS'O'
aS'O'
aS'O'
aS'O'
aS'O'
aS'O'
aS'O'
aS'O'
aS'O'
aS'O'
aS'O'
aS'O'
assb.