ccopy_reg
_reconstructor
p1
(c__main__
KBproperty
p2
c__builtin__
object
p3
NtRp4
(dp5
S'comment'
p6
S'12531737340'
p7
sS'domain'
p8
S''
sS'instances_count'
p9
I45911
sS'phrases'
p10
NsS'syn_hypo'
p11
S''
sS'label'
p12
S'associated band'
p13
sS'range'
p14
S'Band '
p15
sS'uniq_subjs'
p16
S'45911'
p17
sS'uniq_objs'
p18
I0
sS'prop_uri'
p19
S'http://dbpedia.org/ontology/associatedBand'
p20
sS'annotations'
p21
(dp22
S'bag_of_words'
p23
(lp24
S'associated'
p25
aS'band'
p26
aS'Band'
p27
aS'12531737340'
p28
asS'chunk_seq'
p29
(lp30
S'B-NP'
p31
aS'I-NP'
p32
aS'E-NP'
p33
aS'O'
asS'dep_seq'
p34
(lp35
(lp36
S'amod'
p37
aS'3'
aS'1'
aa(lp38
S'nn'
p39
aS'3'
aS'2'
aa(lp40
S'root'
p41
aS'0'
aS'3'
aa(lp42
S'num'
p43
aS'3'
aS'4'
aasS'srls'
p44
(lp45
(dp46
S'A2'
p47
S'band Band 12531737340'
p48
sS'V'
g25
sasS'pos_seq'
p49
(lp50
S'JJ'
p51
aS'NN'
p52
aS'NNP'
p53
aS'CD'
p54
asS'ner_seq'
p55
(lp56
S'O'
aS'O'
aS'O'
aS'O'
assb.