ccopy_reg
_reconstructor
p1
(c__main__
KBproperty
p2
c__builtin__
object
p3
NtRp4
(dp5
S'comment'
p6
S'monument protection status'
p7
sS'domain'
p8
S'Place '
p9
sS'instances_count'
p10
I0
sS'phrases'
p11
NsS'syn_hypo'
p12
S''
sS'label'
p13
g7
sS'range'
p14
S'string '
p15
sS'uniq_subjs'
p16
S'0'
sS'uniq_objs'
p17
I0
sS'prop_uri'
p18
S'http://dbpedia.org/ontology/protectionStatus'
p19
sS'annotations'
p20
(dp21
S'bag_of_words'
p22
(lp23
S'Place'
p24
aS'protection'
p25
aS'Status'
p26
aS'string'
p27
aS'monument'
p28
aS'protection'
p29
aS'status'
p30
asS'chunk_seq'
p31
(lp32
S'B-NP'
p33
aS'I-NP'
p34
aS'I-NP'
p35
aS'I-NP'
p36
aS'I-NP'
p37
aS'I-NP'
p38
aS'E-NP'
p39
asS'dep_seq'
p40
(lp41
(lp42
S'nn'
p43
aS'7'
aS'1'
aa(lp44
S'nn'
p45
aS'7'
aS'2'
aa(lp46
S'nn'
p47
aS'7'
aS'3'
aa(lp48
S'nn'
p49
aS'7'
aS'4'
aa(lp50
S'nn'
p51
aS'7'
aS'5'
aa(lp52
S'nn'
p53
aS'7'
aS'6'
aa(lp54
S'root'
p55
aS'0'
aS'7'
aasS'srls'
p56
(lp57
sS'pos_seq'
p58
(lp59
S'NN'
p60
aS'NN'
p61
aS'NNP'
p62
aS'NN'
p63
aS'NN'
p64
aS'NN'
p65
aS'NN'
p66
asS'ner_seq'
p67
(lp68
S'O'
aS'O'
aS'O'
aS'O'
aS'O'
aS'O'
aS'O'
assb.