ccopy_reg
_reconstructor
p1
(c__main__
KBproperty
p2
c__builtin__
object
p3
NtRp4
(dp5
S'comment'
p6
S'wars that were typical for the usage of a weapon46701823'
p7
sS'domain'
p8
S'Weapon '
p9
sS'instances_count'
p10
I468
sS'phrases'
p11
NsS'syn_hypo'
p12
S''
sS'label'
p13
S'used in war'
p14
sS'range'
p15
S'Military Conflict '
p16
sS'uniq_subjs'
p17
S'468'
p18
sS'uniq_objs'
p19
I0
sS'prop_uri'
p20
S'http://dbpedia.org/ontology/usedInWar'
p21
sS'annotations'
p22
(dp23
S'bag_of_words'
p24
(lp25
S'Weapon'
p26
aS'used'
p27
aS'in'
p28
aS'war'
p29
aS'Military'
p30
aS'Conflict'
p31
aS'wars'
p32
aS'that'
p33
aS'were'
p34
aS'typical'
p35
aS'for'
p36
aS'the'
p37
aS'usage'
p38
aS'of'
p39
aS'a'
aS'weapon46701823'
p40
asS'chunk_seq'
p41
(lp42
S'S-NP'
p43
aS'S-VP'
p44
aS'S-PP'
p45
aS'B-NP'
p46
aS'I-NP'
p47
aS'I-NP'
p48
aS'E-NP'
p49
aS'S-NP'
p50
aS'S-VP'
p51
aS'S-ADJP'
p52
aS'S-PP'
p53
aS'B-NP'
p54
aS'E-NP'
p55
aS'S-PP'
p56
aS'B-NP'
p57
aS'E-NP'
p58
asS'dep_seq'
p59
(lp60
(lp61
S'root'
p62
aS'0'
aS'1'
aa(lp63
S'nsubj'
p64
aS'10'
p65
aS'1'
aa(lp66
S'partmod'
p67
aS'1'
aS'2'
aa(lp68
S'nn'
p69
aS'7'
aS'4'
aa(lp70
S'nn'
p71
aS'7'
aS'5'
aa(lp72
S'nn'
p73
aS'7'
aS'6'
aa(lp74
S'prep_in'
p75
aS'2'
aS'7'
aa(lp76
S'cop'
p77
aS'10'
p78
aS'9'
aa(lp79
S'rcmod'
p80
aS'1'
aS'10'
p81
aa(lp82
S'det'
p83
aS'13'
p84
aS'12'
p85
aa(lp86
S'prep_for'
p87
aS'10'
p88
aS'13'
p89
aa(lp90
S'det'
p91
aS'16'
p92
aS'15'
p93
aa(lp94
S'prep_of'
p95
aS'13'
p96
aS'16'
p97
aasS'srls'
p98
(lp99
(dp100
S'A1'
p101
g26
sS'A2'
p102
S'in war Military Conflict wars that were typical for the usage of a weapon46701823'
p103
sS'V'
g27
sasS'pos_seq'
p104
(lp105
S'NN'
p106
aS'VBN'
p107
aS'IN'
p108
aS'NN'
p109
aS'NNP'
p110
aS'NNP'
p111
aS'NNS'
p112
aS'WDT'
p113
aS'VBD'
p114
aS'JJ'
p115
aS'IN'
p116
aS'DT'
p117
aS'NN'
p118
aS'IN'
p119
aS'DT'
p120
aS'NN'
p121
asS'ner_seq'
p122
(lp123
S'O'
aS'O'
aS'O'
aS'O'
aS'B-MISC'
p124
aS'E-MISC'
p125
aS'O'
aS'O'
aS'O'
aS'O'
aS'O'
aS'O'
aS'O'
aS'O'
aS'O'
aS'O'
assb.