ccopy_reg
_reconstructor
p1
(c__main__
KBproperty
p2
c__builtin__
object
p3
NtRp4
(dp5
S'comment'
p6
S'307201254481'
p7
sS'domain'
p8
S'Place '
p9
sS'instances_count'
p10
I220
sS'phrases'
p11
NsS'syn_hypo'
p12
S''
sS'label'
p13
S'time zone'
p14
sS'range'
p15
S''
sS'uniq_subjs'
p16
S'220'
p17
sS'uniq_objs'
p18
I0
sS'prop_uri'
p19
S'http://dbpedia.org/ontology/timeZone'
p20
sS'annotations'
p21
(dp22
S'bag_of_words'
p23
(lp24
S'Place'
p25
aS'time'
p26
aS'zone'
p27
aS'307201254481'
p28
asS'chunk_seq'
p29
(lp30
S'B-NP'
p31
aS'I-NP'
p32
aS'E-NP'
p33
aS'O'
asS'dep_seq'
p34
(lp35
(lp36
S'root'
p37
aS'0'
aS'1'
aa(lp38
S'nn'
p39
aS'3'
aS'2'
aa(lp40
S'dep'
p41
aS'1'
aS'3'
aa(lp42
S'punct'
p43
aS'3'
aS'4'
aasS'srls'
p44
(lp45
sS'pos_seq'
p46
(lp47
S'NN'
p48
aS'NN'
p49
aS'NN'
p50
aS'.'
asS'ner_seq'
p51
(lp52
S'O'
aS'O'
aS'O'
aS'O'
assb.