ccopy_reg
_reconstructor
p1
(c__main__
KBproperty
p2
c__builtin__
object
p3
NtRp4
(dp5
S'comment'
p6
S'504276'
p7
sS'domain'
p8
S'Wine Region '
p9
sS'instances_count'
p10
I109
sS'phrases'
p11
NsS'syn_hypo'
p12
S''
sS'label'
p13
S'is part of wine region'
p14
sS'range'
p15
S'Wine Region '
p16
sS'uniq_subjs'
p17
S'109'
p18
sS'uniq_objs'
p19
I0
sS'prop_uri'
p20
S'http://dbpedia.org/ontology/isPartOfWineRegion'
p21
sS'annotations'
p22
(dp23
S'bag_of_words'
p24
(lp25
S'Wine'
p26
aS'Region'
p27
aS'is'
p28
aS'part'
p29
aS'of'
p30
aS'wine'
p31
aS'region'
p32
aS'Wine'
p33
aS'Region'
p34
aS'504276'
p35
asS'chunk_seq'
p36
(lp37
S'B-NP'
p38
aS'E-NP'
p39
aS'S-VP'
p40
aS'S-NP'
p41
aS'S-PP'
p42
aS'B-NP'
p43
aS'I-NP'
p44
aS'I-NP'
p45
aS'E-NP'
p46
aS'S-ADJP'
p47
asS'dep_seq'
p48
(lp49
(lp50
S'nn'
p51
aS'2'
aS'1'
aa(lp52
S'nsubj'
p53
aS'4'
aS'2'
aa(lp54
S'cop'
p55
aS'4'
aS'3'
aa(lp56
S'root'
p57
aS'0'
aS'4'
aa(lp58
S'nn'
p59
aS'9'
aS'6'
aa(lp60
S'nn'
p61
aS'9'
aS'7'
aa(lp62
S'nn'
p63
aS'9'
aS'8'
aa(lp64
S'prep_of'
p65
aS'4'
aS'9'
aa(lp66
S'punct'
p67
aS'4'
aS'10'
p68
aasS'srls'
p69
(lp70
sS'pos_seq'
p71
(lp72
S'NNP'
p73
aS'NNP'
p74
aS'VBZ'
p75
aS'NN'
p76
aS'IN'
p77
aS'NN'
p78
aS'NN'
p79
aS'NNP'
p80
aS'NNP'
p81
aS'.'
asS'ner_seq'
p82
(lp83
S'O'
aS'O'
aS'O'
aS'O'
aS'O'
aS'O'
aS'O'
aS'B-MISC'
p84
aS'E-MISC'
p85
aS'O'
assb.