ccopy_reg
_reconstructor
p1
(c__main__
KBproperty
p2
c__builtin__
object
p3
NtRp4
(dp5
S'comment'
p6
S'International Standard Identifier for Libraries and Related Organizations ISIL'
p7
sS'domain'
p8
S'Library '
p9
sS'instances_count'
p10
I0
sS'phrases'
p11
NsS'syn_hypo'
p12
S''
sS'label'
p13
g7
sS'range'
p14
S'string '
p15
sS'uniq_subjs'
p16
S'0'
sS'uniq_objs'
p17
I0
sS'prop_uri'
p18
S'http://dbpedia.org/ontology/isil'
p19
sS'annotations'
p20
(dp21
S'bag_of_words'
p22
(lp23
S'Library'
p24
aS'isil'
p25
aS'string'
p26
aS'International'
p27
aS'Standard'
p28
aS'Identifier'
p29
aS'for'
p30
aS'Libraries'
p31
aS'and'
p32
aS'Related'
p33
aS'Organizations'
p34
aS'ISIL'
p35
asS'chunk_seq'
p36
(lp37
S'B-NP'
p38
aS'I-NP'
p39
aS'I-NP'
p40
aS'I-NP'
p41
aS'I-NP'
p42
aS'E-NP'
p43
aS'S-PP'
p44
aS'B-NP'
p45
aS'I-NP'
p46
aS'I-NP'
p47
aS'I-NP'
p48
aS'E-NP'
p49
asS'dep_seq'
p50
(lp51
(lp52
S'nn'
p53
aS'6'
aS'1'
aa(lp54
S'amod'
p55
aS'6'
aS'2'
aa(lp56
S'nn'
p57
aS'6'
aS'3'
aa(lp58
S'nn'
p59
aS'6'
aS'4'
aa(lp60
S'nn'
p61
aS'6'
aS'5'
aa(lp62
S'root'
p63
aS'0'
aS'6'
aa(lp64
S'prep_for'
p65
aS'6'
aS'8'
aa(lp66
S'nn'
p67
aS'12'
p68
aS'10'
p69
aa(lp70
S'nn'
p71
aS'12'
p72
aS'11'
p73
aa(lp74
S'conj_and'
p75
aS'6'
aS'12'
p76
aasS'srls'
p77
(lp78
sS'pos_seq'
p79
(lp80
S'NN'
p81
aS'JJ'
p82
aS'NN'
p83
aS'NNP'
p84
aS'NNP'
p85
aS'NNP'
p86
aS'IN'
p87
aS'NNPS'
p88
aS'CC'
p89
aS'NNP'
p90
aS'NNPS'
p91
aS'NNP'
p92
asS'ner_seq'
p93
(lp94
S'O'
aS'O'
aS'O'
aS'B-ORG'
p95
aS'I-ORG'
p96
aS'I-ORG'
p97
aS'I-ORG'
p98
aS'I-ORG'
p99
aS'I-ORG'
p100
aS'I-ORG'
p101
aS'I-ORG'
p102
aS'E-ORG'
p103
assb.