ccopy_reg
_reconstructor
p1
(c__main__
KBproperty
p2
c__builtin__
object
p3
NtRp4
(dp5
S'comment'
p6
S'00'
p7
sS'domain'
p8
S'Architectural Structure '
p9
sS'instances_count'
p10
I0
sS'phrases'
p11
NsS'syn_hypo'
p12
S''
sS'label'
p13
S'visitors total'
p14
sS'range'
p15
S'non Negative Integer '
p16
sS'uniq_subjs'
p17
S'0'
sS'uniq_objs'
p18
I0
sS'prop_uri'
p19
S'http://dbpedia.org/ontology/visitorsTotal'
p20
sS'annotations'
p21
(dp22
S'bag_of_words'
p23
(lp24
S'Architectural'
p25
aS'Structure'
p26
aS'visitors'
p27
aS'total'
p28
aS'non'
p29
aS'Negative'
p30
aS'Integer'
p31
aS'00'
p32
asS'chunk_seq'
p33
(lp34
S'B-NP'
p35
aS'E-NP'
p36
aS'S-NP'
p37
aS'S-VP'
p38
aS'B-NP'
p39
aS'I-NP'
p40
aS'E-NP'
p41
aS'O'
asS'dep_seq'
p42
(lp43
(lp44
S'amod'
p45
aS'3'
aS'1'
aa(lp46
S'nn'
p47
aS'3'
aS'2'
aa(lp48
S'nsubj'
p49
aS'4'
aS'3'
aa(lp50
S'root'
p51
aS'0'
aS'4'
aa(lp52
S'amod'
p53
aS'7'
aS'5'
aa(lp54
S'amod'
p55
aS'7'
aS'6'
aa(lp56
S'dobj'
p57
aS'4'
aS'7'
aa(lp58
S'num'
p59
aS'7'
aS'8'
aasS'srls'
p60
(lp61
(dp62
S'A1'
p63
S'Architectural Structure visitors'
p64
sS'A2'
p65
S'non Negative Integer 00'
p66
sS'V'
g28
sasS'pos_seq'
p67
(lp68
S'JJ'
p69
aS'NN'
p70
aS'NNS'
p71
aS'VBP'
p72
aS'JJ'
p73
aS'JJ'
p74
aS'NN'
p75
aS'CD'
p76
asS'ner_seq'
p77
(lp78
S'O'
aS'O'
aS'O'
aS'O'
aS'O'
aS'O'
aS'O'
aS'O'
assb.