ccopy_reg
_reconstructor
p1
(c__main__
KBproperty
p2
c__builtin__
object
p3
NtRp4
(dp5
S'comment'
p6
S'3531711690'
p7
sS'domain'
p8
S'Military Conflict '
p9
sS'instances_count'
p10
I15099
sS'phrases'
p11
NsS'syn_hypo'
p12
Vboxercombatantbattlerbelligerentfighterscrapperpugilistcombatantbattlerbelligerentfighterscrapperbrawlercombatantbattlerbelligerentfighterscrapperbuttercombatantbattlerbelligerentfighterscrapperdefendercombatantbattlerbelligerentfighterscrapperwithstandercombatantbattlerbelligerentfighterscrapperfencercombatantbattlerbelligerentfighterscrapperswordsmancombatantbattlerbelligerentfighterscrappergladiatorcombatantbattlerbelligerentfighterscrappergougercombatantbattlerbelligerentfighterscrapperhell-kitecombatantbattlerbelligerentfighterscrapperhell-roostercombatantbattlerbelligerentfighterscrappergamecockcombatantbattlerbelligerentfighterscrappermaulercombatantbattlerbelligerentfighterscrapperskirmishercombatantbattlerbelligerentfighterscrapperstreet_fightercombatantbattlerbelligerentfighterscrappertoughcombatantbattlerbelligerentfighterscrappervictorcombatantbattlerbelligerentfighterscrappermastercombatantbattlerbelligerentfighterscrappersuperiorcombatantbattlerbelligerentfighterscrapperwrestlercombatantbattlerbelligerentfighterscrappergrapplercombatantbattlerbelligerentfighterscrappermatman
p13
sS'label'
p14
S'combatant'
p15
sS'range'
p16
S'string '
p17
sS'uniq_subjs'
p18
S'15099'
p19
sS'uniq_objs'
p20
I0
sS'prop_uri'
p21
S'http://dbpedia.org/ontology/combatant'
p22
sS'annotations'
p23
(dp24
S'bag_of_words'
p25
(lp26
S'Military'
p27
aS'Conflict'
p28
aS'combatant'
p29
aS'string'
p30
aS'3531711690'
p31
asS'chunk_seq'
p32
(lp33
S'B-NP'
p34
aS'I-NP'
p35
aS'I-NP'
p36
aS'E-NP'
p37
aS'O'
asS'dep_seq'
p38
(lp39
(lp40
S'amod'
p41
aS'4'
aS'1'
aa(lp42
S'nn'
p43
aS'4'
aS'2'
aa(lp44
S'nn'
p45
aS'4'
aS'3'
aa(lp46
S'root'
p47
aS'0'
aS'4'
aa(lp48
S'advmod'
p49
aS'4'
aS'5'
aasS'srls'
p50
(lp51
sS'pos_seq'
p52
(lp53
S'JJ'
p54
aS'NN'
p55
aS'NN'
p56
aS'NN'
p57
aS'CD'
p58
asS'ner_seq'
p59
(lp60
S'O'
aS'O'
aS'O'
aS'O'
aS'O'
assb.