ccopy_reg
_reconstructor
p1
(c__main__
KBproperty
p2
c__builtin__
object
p3
NtRp4
(dp5
S'comment'
p6
S'32002469'
p7
sS'domain'
p8
S'Person '
p9
sS'instances_count'
p10
I3165
sS'phrases'
p11
NsS'syn_hypo'
p12
Vpen_namepseudonymanonymnom_de_guerrenom_de_plumepseudonymanonymnom_de_guerrestage_name
p13
sS'label'
p14
S'pseudonym'
p15
sS'range'
p16
S'lang String '
p17
sS'uniq_subjs'
p18
S'3165'
p19
sS'uniq_objs'
p20
I0
sS'prop_uri'
p21
S'http://dbpedia.org/ontology/pseudonym'
p22
sS'annotations'
p23
(dp24
S'bag_of_words'
p25
(lp26
S'Person'
p27
aS'pseudonym'
p28
aS'lang'
p29
aS'String'
p30
aS'32002469'
p31
asS'chunk_seq'
p32
(lp33
S'B-NP'
p34
aS'I-NP'
p35
aS'I-NP'
p36
aS'I-NP'
p37
aS'E-NP'
p38
asS'dep_seq'
p39
(lp40
(lp41
S'nn'
p42
aS'5'
aS'1'
aa(lp43
S'nn'
p44
aS'5'
aS'2'
aa(lp45
S'amod'
p46
aS'5'
aS'3'
aa(lp47
S'nn'
p48
aS'5'
aS'4'
aa(lp49
S'root'
p50
aS'0'
aS'5'
aasS'srls'
p51
(lp52
(dp53
S'A1'
p54
S'String 32002469'
p55
sS'V'
g29
sasS'pos_seq'
p56
(lp57
S'NN'
p58
aS'NN'
p59
aS'VBG'
p60
aS'NN'
p61
aS'NN'
p62
asS'ner_seq'
p63
(lp64
S'O'
aS'O'
aS'B-PER'
p65
aS'E-PER'
p66
aS'O'
assb.