ccopy_reg
_reconstructor
p1
(c__main__
KBproperty
p2
c__builtin__
object
p3
NtRp4
(dp5
S'comment'
p6
S'330322181988'
p7
sS'domain'
p8
S''
sS'instances_count'
p9
I166158
sS'phrases'
p10
NsS'syn_hypo'
p11
Vaccountancyoccupationbusinessjobline_of_worklineaccountingoccupationbusinessjobline_of_worklineappointmentoccupationbusinessjobline_of_worklinecareeroccupationbusinessjobline_of_worklinecallingoccupationbusinessjobline_of_worklinevocationoccupationbusinessjobline_of_worklinecateringoccupationbusinessjobline_of_worklineconfectioneryoccupationbusinessjobline_of_worklineemploymentoccupationbusinessjobline_of_worklineworkoccupationbusinessjobline_of_worklinefarmingoccupationbusinessjobline_of_worklinelandoccupationbusinessjobline_of_worklinegameoccupationbusinessjobline_of_worklinebizoccupationbusinessjobline_of_worklinemetieroccupationbusinessjobline_of_worklinemediumoccupationbusinessjobline_of_worklinephotographyoccupationbusinessjobline_of_worklinepositionoccupationbusinessjobline_of_worklinepostoccupationbusinessjobline_of_worklineberthoccupationbusinessjobline_of_worklineofficeoccupationbusinessjobline_of_worklinespotoccupationbusinessjobline_of_worklinebilletoccupationbusinessjobline_of_worklineplaceoccupationbusinessjobline_of_worklinesituationoccupationbusinessjobline_of_worklineprofessionoccupationbusinessjobline_of_worklinesportoccupationbusinessjobline_of_worklinetradeoccupationbusinessjobline_of_worklinecraftoccupationbusinessjobline_of_worklinetreadmilloccupationbusinessjobline_of_worklinesalt_mine
p12
sS'label'
p13
S'occupation'
p14
sS'range'
p15
S'Person Function '
p16
sS'uniq_subjs'
p17
S'166158'
p18
sS'uniq_objs'
p19
I0
sS'prop_uri'
p20
S'http://dbpedia.org/ontology/occupation'
p21
sS'annotations'
p22
(dp23
S'bag_of_words'
p24
(lp25
S'occupation'
p26
aS'Person'
p27
aS'Function'
p28
aS'330322181988'
p29
asS'chunk_seq'
p30
(lp31
S'B-NP'
p32
aS'I-NP'
p33
aS'E-NP'
p34
aS'S-ADJP'
p35
asS'dep_seq'
p36
(lp37
(lp38
S'nn'
p39
aS'3'
aS'1'
aa(lp40
S'nn'
p41
aS'3'
aS'2'
aa(lp42
S'root'
p43
aS'0'
aS'3'
aa(lp44
S'punct'
p45
aS'3'
aS'4'
aasS'srls'
p46
(lp47
sS'pos_seq'
p48
(lp49
S'NN'
p50
aS'NN'
p51
aS'NN'
p52
aS'.'
asS'ner_seq'
p53
(lp54
S'O'
aS'O'
aS'O'
aS'O'
assb.