ccopy_reg
_reconstructor
p1
(c__main__
KBproperty
p2
c__builtin__
object
p3
NtRp4
(dp5
S'comment'
p6
S'00'
p7
sS'domain'
p8
S'Species '
p9
sS'instances_count'
p10
I0
sS'phrases'
p11
NsS'syn_hypo'
p12
S''
sS'label'
p13
S'sub-order'
p14
sS'range'
p15
S''
sS'uniq_subjs'
p16
S'0'
sS'uniq_objs'
p17
I0
sS'prop_uri'
p18
S'http://dbpedia.org/ontology/subOrder'
p19
sS'annotations'
p20
(dp21
S'bag_of_words'
p22
(lp23
S'Species'
p24
aS'sub'
p25
aS'-'
aS'order'
p26
aS'00'
p27
asS'chunk_seq'
p28
(lp29
S'S-NP'
p30
aS'S-VP'
p31
aS'O'
aS'O'
aS'S-NP'
p32
asS'dep_seq'
p33
(lp34
(lp35
S'nn'
p36
aS'4'
aS'1'
aa(lp37
S'dep'
p38
aS'1'
aS'2'
aa(lp39
S'root'
p40
aS'0'
aS'4'
aa(lp41
S'dep'
p42
aS'4'
aS'5'
aasS'srls'
p43
(lp44
sS'pos_seq'
p45
(lp46
S'NNS'
p47
aS'VBP'
p48
aS':'
aS'NN'
p49
aS'CD'
p50
asS'ner_seq'
p51
(lp52
S'O'
aS'O'
aS'O'
aS'O'
aS'O'
assb.