ccopy_reg
_reconstructor
p1
(c__main__
KBproperty
p2
c__builtin__
object
p3
NtRp4
(dp5
S'comment'
p6
S"percentage of a place's population that is literate"
p7
sS'domain'
p8
S'Populated Place '
p9
sS'instances_count'
p10
I0
sS'phrases'
p11
NsS'syn_hypo'
p12
S''
sS'label'
p13
S'"percentage of a place\'s population that is literate'
p14
sS'range'
p15
S'float '
p16
sS'uniq_subjs'
p17
S'0'
sS'uniq_objs'
p18
I0
sS'prop_uri'
p19
S'http://dbpedia.org/ontology/percentageLiterate'
p20
sS'annotations'
p21
(dp22
S'bag_of_words'
p23
(lp24
S'Populated'
p25
aS'Place'
p26
aS'percentage'
p27
aS'Literate'
p28
aS'float'
p29
aS'percentage'
p30
aS'of'
p31
aS'a'
aS'place'
p32
aS"'s"
p33
aS'population'
p34
aS'that'
p35
aS'is'
p36
aS'literate'
p37
asS'chunk_seq'
p38
(lp39
S'B-NP'
p40
aS'I-NP'
p41
aS'I-NP'
p42
aS'I-NP'
p43
aS'I-NP'
p44
aS'E-NP'
p45
aS'S-PP'
p46
aS'B-NP'
p47
aS'E-NP'
p48
aS'B-NP'
p49
aS'E-NP'
p50
aS'S-NP'
p51
aS'S-VP'
p52
aS'S-ADJP'
p53
asS'dep_seq'
p54
(lp55
(lp56
S'amod'
p57
aS'6'
aS'1'
aa(lp58
S'nn'
p59
aS'6'
aS'2'
aa(lp60
S'nn'
p61
aS'6'
aS'3'
aa(lp62
S'amod'
p63
aS'6'
aS'4'
aa(lp64
S'nn'
p65
aS'6'
aS'5'
aa(lp66
S'root'
p67
aS'0'
aS'6'
aa(lp68
S'nsubj'
p69
aS'14'
p70
aS'6'
aa(lp71
S'det'
p72
aS'9'
aS'8'
aa(lp73
S'poss'
p74
aS'11'
p75
aS'9'
aa(lp76
S'prep_of'
p77
aS'6'
aS'11'
p78
aa(lp79
S'cop'
p80
aS'14'
p81
aS'13'
p82
aa(lp83
S'rcmod'
p84
aS'6'
aS'14'
p85
aasS'srls'
p86
(lp87
sS'pos_seq'
p88
(lp89
S'JJ'
p90
aS'NN'
p91
aS'NN'
p92
aS'JJ'
p93
aS'NN'
p94
aS'NN'
p95
aS'IN'
p96
aS'DT'
p97
aS'NN'
p98
aS'POS'
p99
aS'NN'
p100
aS'WDT'
p101
aS'VBZ'
p102
aS'JJ'
p103
asS'ner_seq'
p104
(lp105
S'O'
aS'O'
aS'O'
aS'S-MISC'
p106
aS'O'
aS'O'
aS'O'
aS'O'
aS'O'
aS'O'
aS'O'
aS'O'
aS'O'
aS'O'
assb.