ccopy_reg
_reconstructor
p1
(c__main__
KBproperty
p2
c__builtin__
object
p3
NtRp4
(dp5
S'comment'
p6
S'This property is to accommodate the list field that contains a list of e.g. monuments in the same town00'
p7
sS'domain'
p8
S'Place '
p9
sS'instances_count'
p10
I0
sS'phrases'
p11
NsS'syn_hypo'
p12
S''
sS'label'
p13
S'related places'
p14
sS'range'
p15
S'List '
p16
sS'uniq_subjs'
p17
S'0'
sS'uniq_objs'
p18
I0
sS'prop_uri'
p19
S'http://dbpedia.org/ontology/relatedPlaces'
p20
sS'annotations'
p21
(dp22
S'bag_of_words'
p23
(lp24
S'Place'
p25
aS'related'
p26
aS'places'
p27
aS'List'
p28
aS'This'
p29
aS'property'
p30
aS'is'
p31
aS'to'
p32
aS'accommodate'
p33
aS'the'
p34
aS'list'
p35
aS'field'
p36
aS'that'
p37
aS'contains'
p38
aS'a'
aS'list'
p39
aS'of'
p40
aS'e.g.'
p41
aS'monuments'
p42
aS'in'
p43
aS'the'
p44
aS'same'
p45
aS'town00'
p46
asS'chunk_seq'
p47
(lp48
S'B-NP'
p49
aS'I-NP'
p50
aS'I-NP'
p51
aS'E-NP'
p52
aS'B-NP'
p53
aS'E-NP'
p54
aS'S-VP'
p55
aS'B-VP'
p56
aS'E-VP'
p57
aS'B-NP'
p58
aS'I-NP'
p59
aS'E-NP'
p60
aS'S-NP'
p61
aS'S-VP'
p62
aS'B-NP'
p63
aS'E-NP'
p64
aS'S-PP'
p65
aS'B-NP'
p66
aS'E-NP'
p67
aS'S-PP'
p68
aS'B-NP'
p69
aS'I-NP'
p70
aS'E-NP'
p71
asS'dep_seq'
p72
(lp73
(lp74
S'dep'
p75
aS'4'
aS'1'
aa(lp76
S'amod'
p77
aS'3'
aS'2'
aa(lp78
S'nn'
p79
aS'4'
aS'3'
aa(lp80
S'root'
p81
aS'0'
aS'4'
aa(lp82
S'det'
p83
aS'6'
aS'5'
aa(lp84
S'nsubj'
p85
aS'7'
aS'6'
aa(lp86
S'xsubj'
p87
aS'9'
aS'6'
aa(lp88
S'rcmod'
p89
aS'3'
aS'7'
aa(lp90
S'ccomp'
p91
aS'4'
aS'7'
aa(lp92
S'aux'
p93
aS'9'
aS'8'
aa(lp94
S'xcomp'
p95
aS'7'
aS'9'
aa(lp96
S'det'
p97
aS'12'
p98
aS'10'
p99
aa(lp100
S'nn'
p101
aS'12'
p102
aS'11'
p103
aa(lp104
S'dobj'
p105
aS'9'
aS'12'
p106
aa(lp107
S'nsubj'
p108
aS'14'
p109
aS'12'
p110
aa(lp111
S'rcmod'
p112
aS'12'
p113
aS'14'
p114
aa(lp115
S'det'
p116
aS'16'
p117
aS'15'
p118
aa(lp119
S'dobj'
p120
aS'14'
p121
aS'16'
p122
aa(lp123
S'amod'
p124
aS'19'
p125
aS'18'
p126
aa(lp127
S'prep_of'
p128
aS'16'
p129
aS'19'
p130
aa(lp131
S'det'
p132
aS'23'
p133
aS'21'
p134
aa(lp135
S'amod'
p136
aS'23'
p137
aS'22'
p138
aa(lp139
S'prep_in'
p140
aS'14'
p141
aS'23'
p142
aasS'srls'
p143
(lp144
(dp145
S'A1'
p146
g27
sS'V'
g26
sa(dp147
S'A1'
p148
S'the list field that contains a list of e.g. monuments in the same town00'
p149
sS'V'
g33
sa(dp150
S'A1'
p151
S'a list of e.g. monuments in the same town00'
p152
sS'A0'
p153
S'the list field'
p154
sS'R-A0'
p155
g37
sS'V'
g38
sasS'pos_seq'
p156
(lp157
S'NN'
p158
aS'JJ'
p159
aS'NNS'
p160
aS'NN'
p161
aS'DT'
p162
aS'NN'
p163
aS'VBZ'
p164
aS'TO'
p165
aS'VB'
p166
aS'DT'
p167
aS'NN'
p168
aS'NN'
p169
aS'WDT'
p170
aS'VBZ'
p171
aS'DT'
p172
aS'NN'
p173
aS'IN'
p174
aS'JJ'
p175
aS'NNS'
p176
aS'IN'
p177
aS'DT'
p178
aS'JJ'
p179
aS'NN'
p180
asS'ner_seq'
p181
(lp182
S'O'
aS'O'
aS'O'
aS'O'
aS'O'
aS'O'
aS'O'
aS'O'
aS'O'
aS'O'
aS'O'
aS'O'
aS'O'
aS'O'
aS'O'
aS'O'
aS'O'
aS'O'
aS'O'
aS'O'
aS'O'
aS'O'
aS'O'
assb.