ccopy_reg
_reconstructor
p1
(c__main__
KBproperty
p2
c__builtin__
object
p3
NtRp4
(dp5
S'comment'
p6
S'Reserved for DBpedia.00'
p7
sS'domain'
p8
S''
sS'instances_count'
p9
I0
sS'phrases'
p10
NsS'syn_hypo'
p11
S''
sS'label'
p12
S''
sS'range'
p13
S'string '
p14
sS'uniq_subjs'
p15
S'0'
sS'uniq_objs'
p16
I0
sS'prop_uri'
p17
S'http://dbpedia.org/ontology/hasSurfaceForm'
p18
sS'annotations'
p19
(dp20
S'bag_of_words'
p21
(lp22
S'string'
p23
aS'Reserved'
p24
aS'for'
p25
aS'DBpedia.00'
p26
asS'chunk_seq'
p27
(lp28
S'S-NP'
p29
aS'S-VP'
p30
aS'S-PP'
p31
aS'S-NP'
p32
asS'dep_seq'
p33
(lp34
(lp35
S'root'
p36
aS'0'
aS'1'
aa(lp37
S'amod'
p38
aS'1'
aS'2'
aa(lp39
S'prep_for'
p40
aS'2'
aS'4'
aasS'srls'
p41
(lp42
(dp43
S'A2'
p44
S'for DBpedia.00'
p45
sS'V'
g24
sasS'pos_seq'
p46
(lp47
S'NN'
p48
aS'VBN'
p49
aS'IN'
p50
aS'NNP'
p51
asS'ner_seq'
p52
(lp53
S'O'
aS'O'
aS'O'
aS'S-PER'
p54
assb.