ccopy_reg
_reconstructor
p1
(c__main__
KBproperty
p2
c__builtin__
object
p3
NtRp4
(dp5
S'comment'
p6
S'National Diet Library of Japan identificator. http://id.ndl.go.jp/auth/ndlna/$12424'
p7
sS'domain'
p8
S''
sS'instances_count'
p9
I24
sS'phrases'
p10
NsS'syn_hypo'
p11
S''
sS'label'
p12
S'NDL id'
p13
sS'range'
p14
S'string '
p15
sS'uniq_subjs'
p16
S'24'
p17
sS'uniq_objs'
p18
I0
sS'prop_uri'
p19
S'http://dbpedia.org/ontology/ndlId'
p20
sS'annotations'
p21
(dp22
S'bag_of_words'
p23
(lp24
S'NDL'
p25
aS'id'
p26
aS'string'
p27
aS'National'
p28
aS'Diet'
p29
aS'Library'
p30
aS'of'
p31
aS'Japan'
p32
aS'identificator'
p33
aS'.'
aS'http'
p34
aS':'
aS'//'
p35
aS'id.'
p36
aS'ndl'
p37
aS'.'
aS'go'
p38
aS'.'
aS'jp'
p39
aS'/'
aS'auth'
p40
aS'/'
aS'ndlna'
p41
aS'/'
aS'$'
aS'12424'
p42
asS'chunk_seq'
p43
(lp44
S'B-NP'
p45
aS'I-NP'
p46
aS'I-NP'
p47
aS'I-NP'
p48
aS'I-NP'
p49
aS'E-NP'
p50
aS'S-PP'
p51
aS'B-NP'
p52
aS'I-NP'
p53
aS'I-NP'
p54
aS'E-NP'
p55
aS'O'
aS'B-NP'
p56
aS'I-NP'
p57
aS'E-NP'
p58
aS'O'
aS'S-VP'
p59
aS'O'
aS'O'
aS'O'
aS'O'
aS'O'
aS'O'
aS'O'
aS'O'
aS'O'
asS'dep_seq'
p60
(lp61
(lp62
S'nn'
p63
aS'6'
aS'1'
aa(lp64
S'nn'
p65
aS'6'
aS'2'
aa(lp66
S'nn'
p67
aS'6'
aS'3'
aa(lp68
S'nn'
p69
aS'6'
aS'4'
aa(lp70
S'nn'
p71
aS'6'
aS'5'
aa(lp72
S'dep'
p73
aS'26'
p74
aS'6'
aa(lp75
S'dep'
p76
aS'26'
p77
aS'7'
aa(lp78
S'pobj'
p79
aS'7'
aS'8'
aa(lp80
S'dep'
p81
aS'26'
p82
aS'9'
aa(lp83
S'dep'
p84
aS'26'
p85
aS'11'
p86
aa(lp87
S'nn'
p88
aS'26'
p89
aS'13'
p90
aa(lp91
S'nn'
p92
aS'26'
p93
aS'14'
p94
aa(lp95
S'nn'
p96
aS'26'
p97
aS'15'
p98
aa(lp99
S'dep'
p100
aS'26'
p101
aS'17'
p102
aa(lp103
S'nn'
p104
aS'26'
p105
aS'19'
p106
aa(lp107
S'nn'
p108
aS'26'
p109
aS'20'
p110
aa(lp111
S'nn'
p112
aS'26'
p113
aS'21'
p114
aa(lp115
S'nn'
p116
aS'26'
p117
aS'22'
p118
aa(lp119
S'nn'
p120
aS'26'
p121
aS'23'
p122
aa(lp123
S'nn'
p124
aS'26'
p125
aS'24'
p126
aa(lp127
S'nn'
p128
aS'26'
p129
aS'25'
p130
aa(lp131
S'root'
p132
aS'0'
aS'26'
p133
aasS'srls'
p134
(lp135
(dp136
S'A1'
p137
S'jp / auth / ndlna / $ 12424'
p138
sS'V'
g38
sasS'pos_seq'
p139
(lp140
S'NNP'
p141
aS'NN'
p142
aS'NN'
p143
aS'NNP'
p144
aS'NNP'
p145
aS'NNP'
p146
aS'IN'
p147
aS'NNP'
p148
aS'NN'
p149
aS'.'
aS'NN'
p150
aS':'
aS'FW'
p151
aS'FW'
p152
aS'FW'
p153
aS'.'
aS'VB'
p154
aS'.'
aS'FW'
p155
aS'FW'
p156
aS'FW'
p157
aS'FW'
p158
aS'FW'
p159
aS'FW'
p160
aS'FW'
p161
aS'FW'
p162
asS'ner_seq'
p163
(lp164
S'S-MISC'
p165
aS'O'
aS'O'
aS'B-ORG'
p166
aS'I-ORG'
p167
aS'I-ORG'
p168
aS'I-ORG'
p169
aS'E-ORG'
p170
aS'O'
aS'O'
aS'O'
aS'O'
aS'O'
aS'O'
aS'O'
aS'O'
aS'O'
aS'O'
aS'O'
aS'O'
aS'O'
aS'O'
aS'O'
aS'O'
aS'O'
aS'O'
assb.