ccopy_reg
_reconstructor
p1
(c__main__
KBproperty
p2
c__builtin__
object
p3
NtRp4
(dp5
S'comment'
p6
S'Committee in the legislature eg.: Committee on Economic and Monetary Affairs of the European Parliament.219'
p7
sS'domain'
p8
S'Legislature '
p9
sS'instances_count'
p10
I21
sS'phrases'
p11
NsS'syn_hypo'
p12
S''
sS'label'
p13
S'committee in legislature'
p14
sS'range'
p15
S''
sS'uniq_subjs'
p16
S'21'
p17
sS'uniq_objs'
p18
I0
sS'prop_uri'
p19
S'http://dbpedia.org/ontology/committeeInLegislature'
p20
sS'annotations'
p21
(dp22
S'bag_of_words'
p23
(lp24
S'Legislature'
p25
aS'committee'
p26
aS'in'
p27
aS'legislature'
p28
aS'Committee'
p29
aS'in'
p30
aS'the'
p31
aS'legislature'
p32
aS'eg.'
p33
aS':'
aS'Committee'
p34
aS'on'
p35
aS'Economic'
p36
aS'and'
p37
aS'Monetary'
p38
aS'Affairs'
p39
aS'of'
p40
aS'the'
p41
aS'European'
p42
aS'Parliament.219'
p43
asS'chunk_seq'
p44
(lp45
S'B-NP'
p46
aS'E-NP'
p47
aS'S-PP'
p48
aS'B-NP'
p49
aS'E-NP'
p50
aS'S-PP'
p51
aS'B-NP'
p52
aS'E-NP'
p53
aS'S-ADVP'
p54
aS'O'
aS'S-NP'
p55
aS'S-PP'
p56
aS'B-NP'
p57
aS'I-NP'
p58
aS'I-NP'
p59
aS'E-NP'
p60
aS'S-PP'
p61
aS'B-NP'
p62
aS'I-NP'
p63
aS'E-NP'
p64
asS'dep_seq'
p65
(lp66
(lp67
S'nn'
p68
aS'2'
aS'1'
aa(lp69
S'root'
p70
aS'0'
aS'2'
aa(lp71
S'nn'
p72
aS'5'
aS'4'
aa(lp73
S'prep_in'
p74
aS'2'
aS'5'
aa(lp75
S'det'
p76
aS'8'
aS'7'
aa(lp77
S'prep_in'
p78
aS'2'
aS'8'
aa(lp79
S'advmod'
p80
aS'2'
aS'9'
aa(lp81
S'dep'
p82
aS'2'
aS'11'
p83
aa(lp84
S'amod'
p85
aS'16'
p86
aS'13'
p87
aa(lp88
S'conj_and'
p89
aS'13'
p90
aS'15'
p91
aa(lp92
S'prep_on'
p93
aS'11'
p94
aS'16'
p95
aa(lp96
S'det'
p97
aS'20'
p98
aS'18'
p99
aa(lp100
S'nn'
p101
aS'20'
p102
aS'19'
p103
aa(lp104
S'prep_of'
p105
aS'16'
p106
aS'20'
p107
aasS'srls'
p108
(lp109
sS'pos_seq'
p110
(lp111
S'NN'
p112
aS'NN'
p113
aS'IN'
p114
aS'NN'
p115
aS'NNP'
p116
aS'IN'
p117
aS'DT'
p118
aS'NN'
p119
aS'RB'
p120
aS':'
aS'NN'
p121
aS'IN'
p122
aS'NNP'
p123
aS'CC'
p124
aS'NNP'
p125
aS'NNP'
p126
aS'IN'
p127
aS'DT'
p128
aS'NNP'
p129
aS'NNP'
p130
asS'ner_seq'
p131
(lp132
S'O'
aS'O'
aS'O'
aS'O'
aS'O'
aS'O'
aS'O'
aS'O'
aS'O'
aS'O'
aS'O'
aS'O'
aS'O'
aS'O'
aS'B-ORG'
p133
aS'I-ORG'
p134
aS'I-ORG'
p135
aS'I-ORG'
p136
aS'I-ORG'
p137
aS'E-ORG'
p138
assb.