ccopy_reg
_reconstructor
p1
(c__main__
KBproperty
p2
c__builtin__
object
p3
NtRp4
(dp5
S'comment'
p6
S'Coat of arms heraldic image or emblem00'
p7
sS'domain'
p8
S''
sS'instances_count'
p9
I0
sS'phrases'
p10
NsS'syn_hypo'
p11
Vquartering
p12
sS'label'
p13
S'blazon'
p14
sS'range'
p15
S'string '
p16
sS'uniq_subjs'
p17
S'0'
sS'uniq_objs'
p18
I0
sS'prop_uri'
p19
S'http://dbpedia.org/ontology/blazon'
p20
sS'annotations'
p21
(dp22
S'bag_of_words'
p23
(lp24
S'blazon'
p25
aS'string'
p26
aS'Coat'
p27
aS'of'
p28
aS'arms'
p29
aS'heraldic'
p30
aS'image'
p31
aS'or'
p32
aS'emblem00'
p33
asS'chunk_seq'
p34
(lp35
S'B-NP'
p36
aS'I-NP'
p37
aS'E-NP'
p38
aS'S-PP'
p39
aS'B-NP'
p40
aS'I-NP'
p41
aS'I-NP'
p42
aS'I-NP'
p43
aS'E-NP'
p44
asS'dep_seq'
p45
(lp46
(lp47
S'nn'
p48
aS'3'
aS'1'
aa(lp49
S'nn'
p50
aS'3'
aS'2'
aa(lp51
S'root'
p52
aS'0'
aS'3'
aa(lp53
S'nn'
p54
aS'7'
aS'5'
aa(lp55
S'amod'
p56
aS'7'
aS'6'
aa(lp57
S'prep_of'
p58
aS'3'
aS'7'
aa(lp59
S'conj_or'
p60
aS'7'
aS'9'
aasS'srls'
p61
(lp62
sS'pos_seq'
p63
(lp64
S'NN'
p65
aS'NN'
p66
aS'NN'
p67
aS'IN'
p68
aS'NNS'
p69
aS'JJ'
p70
aS'NN'
p71
aS'CC'
p72
aS'NN'
p73
asS'ner_seq'
p74
(lp75
S'O'
aS'O'
aS'O'
aS'O'
aS'O'
aS'O'
aS'O'
aS'O'
aS'O'
assb.