ccopy_reg
_reconstructor
p1
(c__main__
KBproperty
p2
c__builtin__
object
p3
NtRp4
(dp5
S'comment'
p6
S'A call sign is not the name of a broadcaster! In broadcasting and radio communications a call sign also known as a call name or call letters or abbreviated as a call is a unique designation for a transmitting station.36853498'
p7
sS'domain'
p8
S''
sS'instances_count'
p9
I3685
sS'phrases'
p10
NsS'syn_hypo'
p11
S''
sS'label'
p12
S'call sign'
p13
sS'range'
p14
S'string '
p15
sS'uniq_subjs'
p16
S'3623'
p17
sS'uniq_objs'
p18
I0
sS'prop_uri'
p19
S'http://dbpedia.org/ontology/callSign'
p20
sS'annotations'
p21
(dp22
S'bag_of_words'
p23
(lp24
S'call'
p25
aS'sign'
p26
aS'string'
p27
aS'A'
aS'call'
p28
aS'sign'
p29
aS'is'
p30
aS'not'
p31
aS'the'
p32
aS'name'
p33
aS'of'
p34
aS'a'
aS'broadcaster'
p35
aS'!'
aS'In'
p36
aS'broadcasting'
p37
aS'and'
p38
aS'radio'
p39
aS'communications'
p40
aS'a'
aS'call'
p41
aS'sign'
p42
aS'also'
p43
aS'known'
p44
aS'as'
p45
aS'a'
aS'call'
p46
aS'name'
p47
aS'or'
p48
aS'call'
p49
aS'letters'
p50
aS'or'
p51
aS'abbreviated'
p52
aS'as'
p53
aS'a'
aS'call'
p54
aS'is'
p55
aS'a'
aS'unique'
p56
aS'designation'
p57
aS'for'
p58
aS'a'
aS'transmitting'
p59
aS'station.36853498'
p60
asS'chunk_seq'
p61
(lp62
S'B-NP'
p63
aS'I-NP'
p64
aS'E-NP'
p65
aS'B-NP'
p66
aS'I-NP'
p67
aS'E-NP'
p68
aS'S-VP'
p69
aS'O'
aS'B-NP'
p70
aS'E-NP'
p71
aS'S-PP'
p72
aS'B-NP'
p73
aS'E-NP'
p74
aS'O'
aS'S-PP'
p75
aS'S-NP'
p76
aS'O'
aS'B-NP'
p77
aS'E-NP'
p78
aS'B-NP'
p79
aS'I-NP'
p80
aS'E-NP'
p81
aS'S-ADVP'
p82
aS'S-VP'
p83
aS'S-PP'
p84
aS'B-NP'
p85
aS'I-NP'
p86
aS'E-NP'
p87
aS'O'
aS'S-VP'
p88
aS'S-NP'
p89
aS'O'
aS'S-VP'
p90
aS'S-PP'
p91
aS'B-NP'
p92
aS'E-NP'
p93
aS'S-VP'
p94
aS'B-NP'
p95
aS'I-NP'
p96
aS'E-NP'
p97
aS'S-PP'
p98
aS'B-NP'
p99
aS'I-NP'
p100
aS'E-NP'
p101
asS'dep_seq'
p102
(lp103
(lp104
S'amod'
p105
aS'6'
aS'1'
aa(lp106
S'nn'
p107
aS'6'
aS'2'
aa(lp108
S'nn'
p109
aS'6'
aS'3'
aa(lp110
S'det'
p111
aS'6'
aS'4'
aa(lp112
S'nn'
p113
aS'6'
aS'5'
aa(lp114
S'csubj'
p115
aS'7'
aS'6'
aa(lp116
S'root'
p117
aS'0'
aS'7'
aa(lp118
S'neg'
p119
aS'7'
aS'8'
aa(lp120
S'det'
p121
aS'10'
p122
aS'9'
aa(lp123
S'nsubj'
p124
aS'40'
p125
aS'10'
p126
aa(lp127
S'det'
p128
aS'13'
p129
aS'12'
p130
aa(lp131
S'prep_of'
p132
aS'10'
p133
aS'13'
p134
aa(lp135
S'prep_in'
p136
aS'10'
p137
aS'16'
p138
aa(lp139
S'nn'
p140
aS'19'
p141
aS'18'
p142
aa(lp143
S'conj_and'
p144
aS'16'
p145
aS'19'
p146
aa(lp147
S'det'
p148
aS'22'
p149
aS'20'
p150
aa(lp151
S'nn'
p152
aS'22'
p153
aS'21'
p154
aa(lp155
S'dep'
p156
aS'10'
p157
aS'22'
p158
aa(lp159
S'advmod'
p160
aS'24'
p161
aS'23'
p162
aa(lp163
S'dep'
p164
aS'22'
p165
aS'24'
p166
aa(lp167
S'det'
p168
aS'28'
p169
aS'26'
p170
aa(lp171
S'nn'
p172
aS'28'
p173
aS'27'
p174
aa(lp175
S'prep_as'
p176
aS'24'
p177
aS'28'
p178
aa(lp179
S'conj_or'
p180
aS'24'
p181
aS'30'
p182
aa(lp183
S'dobj'
p184
aS'30'
p185
aS'31'
p186
aa(lp187
S'conj_or'
p188
aS'24'
p189
aS'33'
p190
aa(lp191
S'det'
p192
aS'36'
p193
aS'35'
p194
aa(lp195
S'prep_as'
p196
aS'33'
p197
aS'36'
p198
aa(lp199
S'cop'
p200
aS'40'
p201
aS'37'
p202
aa(lp203
S'det'
p204
aS'40'
p205
aS'38'
p206
aa(lp207
S'amod'
p208
aS'40'
p209
aS'39'
p210
aa(lp211
S'ccomp'
p212
aS'7'
aS'40'
p213
aa(lp214
S'det'
p215
aS'44'
p216
aS'42'
p217
aa(lp218
S'amod'
p219
aS'44'
p220
aS'43'
p221
aa(lp222
S'prep_for'
p223
aS'40'
p224
aS'44'
p225
aasS'srls'
p226
(lp227
(dp228
S'A1'
p229
S'a call sign'
p230
sS'AM-DIS'
p231
g43
sS'A2'
p232
S'as a call name'
p233
sS'V'
g44
sa(dp234
S'A1'
p235
g50
sS'V'
g49
sa(dp236
S'A2'
p237
S'as a call'
p238
sS'V'
g52
sa(dp239
S'A0'
p240
g60
sS'V'
g59
sasS'pos_seq'
p241
(lp242
S'JJ'
p243
aS'NN'
p244
aS'NN'
p245
aS'DT'
p246
aS'NN'
p247
aS'NN'
p248
aS'VBZ'
p249
aS'RB'
p250
aS'DT'
p251
aS'NN'
p252
aS'IN'
p253
aS'DT'
p254
aS'NN'
p255
aS'.'
aS'IN'
p256
aS'NN'
p257
aS'CC'
p258
aS'NN'
p259
aS'NNS'
p260
aS'DT'
p261
aS'NN'
p262
aS'NN'
p263
aS'RB'
p264
aS'VBN'
p265
aS'IN'
p266
aS'DT'
p267
aS'NN'
p268
aS'NN'
p269
aS'CC'
p270
aS'VB'
p271
aS'NNS'
p272
aS'CC'
p273
aS'VBN'
p274
aS'IN'
p275
aS'DT'
p276
aS'NN'
p277
aS'VBZ'
p278
aS'DT'
p279
aS'JJ'
p280
aS'NN'
p281
aS'IN'
p282
aS'DT'
p283
aS'VBG'
p284
aS'NN'
p285
asS'ner_seq'
p286
(lp287
S'O'
aS'O'
aS'O'
aS'O'
aS'O'
aS'O'
aS'O'
aS'O'
aS'O'
aS'O'
aS'O'
aS'O'
aS'O'
aS'O'
aS'O'
aS'O'
aS'O'
aS'O'
aS'O'
aS'O'
aS'O'
aS'O'
aS'O'
aS'O'
aS'O'
aS'O'
aS'O'
aS'O'
aS'O'
aS'O'
aS'O'
aS'O'
aS'O'
aS'O'
aS'O'
aS'O'
aS'O'
aS'O'
aS'O'
aS'O'
aS'O'
aS'O'
aS'O'
aS'O'
assb.