ccopy_reg
_reconstructor
p1
(c__main__
KBproperty
p2
c__builtin__
object
p3
NtRp4
(dp5
S'comment'
p6
S'Colleague of a Person or OfficeHolder not PersonFunction nor CareerStation. Sub-properties include: president vicePresident chancellor viceChancellor governor lieutenant. Points to a Person who may have a general "position" resource or "title" literal.00'
p7
sS'domain'
p8
S'Person '
p9
sS'instances_count'
p10
I0
sS'phrases'
p11
NsS'syn_hypo'
p12
V
sS'label'
p13
S'colleague'
p14
sS'range'
p15
S'Person '
p16
sS'uniq_subjs'
p17
S'0'
sS'uniq_objs'
p18
I0
sS'prop_uri'
p19
S'http://dbpedia.org/ontology/colleague'
p20
sS'annotations'
p21
(dp22
S'bag_of_words'
p23
(lp24
S'Person'
p25
aS'colleague'
p26
aS'Person'
p27
aS'Colleague'
p28
aS'of'
p29
aS'a'
aS'Person'
p30
aS'or'
p31
aS'OfficeHolder'
p32
aS'not'
p33
aS'PersonFunction'
p34
aS'nor'
p35
aS'CareerStation'
p36
aS'.'
aS'Sub'
p37
aS'-'
aS'properties'
p38
aS'include'
p39
aS':'
aS'president'
p40
aS'vicePresident'
p41
aS'chancellor'
p42
aS'viceChancellor'
p43
aS'governor'
p44
aS'lieutenant'
p45
aS'.'
aS'Points'
p46
aS'to'
p47
aS'a'
aS'Person'
p48
aS'who'
p49
aS'may'
p50
aS'have'
p51
aS'a'
aS'general'
p52
aS'"'
aS'position'
p53
aS'"'
aS'resource'
p54
aS'or'
p55
aS'"'
aS'title'
p56
aS'"'
aS'literal.00'
p57
asS'chunk_seq'
p58
(lp59
S'B-NP'
p60
aS'I-NP'
p61
aS'I-NP'
p62
aS'E-NP'
p63
aS'S-PP'
p64
aS'B-NP'
p65
aS'E-NP'
p66
aS'O'
aS'B-NP'
p67
aS'I-NP'
p68
aS'I-NP'
p69
aS'I-NP'
p70
aS'I-NP'
p71
aS'I-NP'
p72
aS'I-NP'
p73
aS'I-NP'
p74
aS'E-NP'
p75
aS'S-VP'
p76
aS'O'
aS'B-NP'
p77
aS'I-NP'
p78
aS'I-NP'
p79
aS'I-NP'
p80
aS'I-NP'
p81
aS'E-NP'
p82
aS'O'
aS'S-VP'
p83
aS'S-PP'
p84
aS'B-NP'
p85
aS'E-NP'
p86
aS'S-NP'
p87
aS'B-VP'
p88
aS'E-VP'
p89
aS'B-NP'
p90
aS'I-NP'
p91
aS'I-NP'
p92
aS'I-NP'
p93
aS'I-NP'
p94
aS'I-NP'
p95
aS'I-NP'
p96
aS'I-NP'
p97
aS'I-NP'
p98
aS'I-NP'
p99
aS'E-NP'
p100
asS'dep_seq'
p101
(lp102
(lp103
S'nn'
p104
aS'4'
aS'1'
aa(lp105
S'nn'
p106
aS'4'
aS'2'
aa(lp107
S'nn'
p108
aS'4'
aS'3'
aa(lp109
S'dep'
p110
aS'28'
p111
aS'4'
aa(lp112
S'prep_of'
p113
aS'4'
aS'6'
aa(lp114
S'nn'
p115
aS'11'
p116
aS'7'
aa(lp117
S'conj_or'
p118
aS'7'
aS'9'
aa(lp119
S'neg'
p120
aS'11'
p121
aS'10'
p122
aa(lp123
S'dep'
p124
aS'6'
aS'11'
p125
aa(lp126
S'nn'
p127
aS'15'
p128
aS'13'
p129
aa(lp130
S'conj_nor'
p131
aS'11'
p132
aS'15'
p133
aa(lp134
S'dep'
p135
aS'4'
aS'17'
p136
aa(lp137
S'dep'
p138
aS'28'
p139
aS'18'
p140
aa(lp141
S'nn'
p142
aS'27'
p143
aS'20'
p144
aa(lp145
S'amod'
p146
aS'27'
p147
aS'21'
p148
aa(lp149
S'nn'
p150
aS'27'
p151
aS'22'
p152
aa(lp153
S'amod'
p154
aS'27'
p155
aS'23'
p156
aa(lp157
S'nn'
p158
aS'27'
p159
aS'24'
p160
aa(lp161
S'nn'
p162
aS'27'
p163
aS'25'
p164
aa(lp165
S'dep'
p166
aS'28'
p167
aS'27'
p168
aa(lp169
S'root'
p170
aS'0'
aS'28'
p171
aa(lp172
S'det'
p173
aS'30'
p174
aS'29'
p175
aa(lp176
S'dep'
p177
aS'28'
p178
aS'30'
p179
aa(lp180
S'dep'
p181
aS'28'
p182
aS'31'
p183
aa(lp184
S'dep'
p185
aS'28'
p186
aS'32'
p187
aa(lp188
S'dep'
p189
aS'28'
p190
aS'33'
p191
aa(lp192
S'det'
p193
aS'37'
p194
aS'34'
p195
aa(lp196
S'amod'
p197
aS'36'
p198
aS'35'
p199
aa(lp200
S'amod'
p201
aS'37'
p202
aS'36'
p203
aa(lp204
S'dep'
p205
aS'28'
p206
aS'37'
p207
aa(lp208
S'amod'
p209
aS'39'
p210
aS'38'
p211
aa(lp212
S'dep'
p213
aS'28'
p214
aS'39'
p215
aa(lp216
S'amod'
p217
aS'42'
p218
aS'41'
p219
aa(lp220
S'nn'
p221
aS'44'
p222
aS'42'
p223
aa(lp224
S'amod'
p225
aS'44'
p226
aS'43'
p227
aa(lp228
S'conj_or'
p229
aS'28'
p230
aS'44'
p231
aasS'srls'
p232
(lp233
(dp234
S'A1'
p235
S'president vicePresident chancellor viceChancellor governor lieutenant . Points to a Person who may have a general " position " resource or " title " literal.00'
p236
sS'A2'
p237
S'Person colleague Person Colleague of a Person or OfficeHolder not PersonFunction nor CareerStation . Sub - properties'
p238
sS'V'
g39
sa(dp239
S'A1'
p240
S'a general " position " resource or " title " literal.00'
p241
sS'V'
g51
sS'R-A0'
p242
g49
sS'AM-MOD'
p243
g50
sasS'pos_seq'
p244
(lp245
S'NN'
p246
aS'NN'
p247
aS'NNP'
p248
aS'NNP'
p249
aS'IN'
p250
aS'DT'
p251
aS'NN'
p252
aS'CC'
p253
aS'NNP'
p254
aS'RB'
p255
aS'NNP'
p256
aS'CC'
p257
aS'NNP'
p258
aS'.'
aS'NNP'
p259
aS':'
aS'NNS'
p260
aS'VBP'
p261
aS':'
aS'NN'
p262
aS'JJ'
p263
aS'NN'
p264
aS'JJ'
p265
aS'NN'
p266
aS'NN'
p267
aS'.'
aS'NNS'
p268
aS'TO'
p269
aS'DT'
p270
aS'NN'
p271
aS'WP'
p272
aS'MD'
p273
aS'VB'
p274
aS'DT'
p275
aS'JJ'
p276
aS'JJ'
p277
aS'NN'
p278
aS'JJ'
p279
aS'NN'
p280
aS'CC'
p281
aS'JJ'
p282
aS'NN'
p283
aS'JJ'
p284
aS'NN'
p285
asS'ner_seq'
p286
(lp287
S'O'
aS'O'
aS'O'
aS'O'
aS'O'
aS'O'
aS'O'
aS'O'
aS'S-PER'
p288
aS'O'
aS'S-LOC'
p289
aS'O'
aS'B-ORG'
p290
aS'I-ORG'
p291
aS'E-ORG'
p292
aS'O'
aS'O'
aS'O'
aS'O'
aS'O'
aS'S-PER'
p293
aS'O'
aS'O'
aS'O'
aS'O'
aS'O'
aS'O'
aS'O'
aS'O'
aS'O'
aS'O'
aS'O'
aS'O'
aS'O'
aS'O'
aS'O'
aS'O'
aS'O'
aS'O'
aS'O'
aS'O'
aS'O'
aS'O'
aS'O'
assb.