ccopy_reg
_reconstructor
p1
(c__main__
KBproperty
p2
c__builtin__
object
p3
NtRp4
(dp5
S'comment'
p6
S'664638'
p7
sS'domain'
p8
S'Baseball Player '
p9
sS'instances_count'
p10
I8
sS'phrases'
p11
NsS'syn_hypo'
p12
S''
sS'label'
p13
S'batting side'
p14
sS'range'
p15
S'string '
p16
sS'uniq_subjs'
p17
S'8'
sS'uniq_objs'
p18
I0
sS'prop_uri'
p19
S'http://dbpedia.org/ontology/battingSide'
p20
sS'annotations'
p21
(dp22
S'bag_of_words'
p23
(lp24
S'Baseball'
p25
aS'Player'
p26
aS'batting'
p27
aS'side'
p28
aS'string'
p29
aS'664638'
p30
asS'chunk_seq'
p31
(lp32
S'B-NP'
p33
aS'E-NP'
p34
aS'S-VP'
p35
aS'B-NP'
p36
aS'I-NP'
p37
aS'E-NP'
p38
asS'dep_seq'
p39
(lp40
(lp41
S'nn'
p42
aS'2'
aS'1'
aa(lp43
S'nsubj'
p44
aS'3'
aS'2'
aa(lp45
S'root'
p46
aS'0'
aS'3'
aa(lp47
S'nn'
p48
aS'6'
aS'4'
aa(lp49
S'nn'
p50
aS'6'
aS'5'
aa(lp51
S'dobj'
p52
aS'3'
aS'6'
aasS'srls'
p53
(lp54
(dp55
S'A1'
p56
S'side string 664638'
p57
sS'A0'
p58
S'Baseball Player'
p59
sS'V'
g27
sasS'pos_seq'
p60
(lp61
S'NNP'
p62
aS'NNP'
p63
aS'VBG'
p64
aS'NN'
p65
aS'NN'
p66
aS'NN'
p67
asS'ner_seq'
p68
(lp69
S'O'
aS'O'
aS'O'
aS'O'
aS'O'
aS'O'
assb.