ccopy_reg
_reconstructor
p1
(c__main__
KBproperty
p2
c__builtin__
object
p3
NtRp4
(dp5
S'comment'
p6
S'number of matches or caps'
p7
sS'domain'
p8
S'Career Station '
p9
sS'instances_count'
p10
I648
sS'phrases'
p11
NsS'syn_hypo'
p12
S''
sS'label'
p13
g7
sS'range'
p14
S'integer '
p15
sS'uniq_subjs'
p16
S'648'
p17
sS'uniq_objs'
p18
I0
sS'prop_uri'
p19
S'http://dbpedia.org/ontology/numberOfMatches'
p20
sS'annotations'
p21
(dp22
S'bag_of_words'
p23
(lp24
S'Career'
p25
aS'Station'
p26
aS'number'
p27
aS'Of'
p28
aS'Matches'
p29
aS'integer'
p30
aS'number'
p31
aS'of'
p32
aS'matches'
p33
aS'or'
p34
aS'caps'
p35
asS'chunk_seq'
p36
(lp37
S'B-NP'
p38
aS'I-NP'
p39
aS'E-NP'
p40
aS'S-PP'
p41
aS'B-NP'
p42
aS'I-NP'
p43
aS'E-NP'
p44
aS'S-PP'
p45
aS'B-NP'
p46
aS'I-NP'
p47
aS'E-NP'
p48
asS'dep_seq'
p49
(lp50
(lp51
S'nn'
p52
aS'3'
aS'1'
aa(lp53
S'nn'
p54
aS'3'
aS'2'
aa(lp55
S'dep'
p56
aS'7'
aS'3'
aa(lp57
S'prep_of'
p58
aS'3'
aS'5'
aa(lp59
S'nn'
p60
aS'7'
aS'6'
aa(lp61
S'root'
p62
aS'0'
aS'7'
aa(lp63
S'prep_of'
p64
aS'7'
aS'9'
aa(lp65
S'conj_or'
p66
aS'9'
aS'11'
p67
aasS'srls'
p68
(lp69
sS'pos_seq'
p70
(lp71
S'NNP'
p72
aS'NNP'
p73
aS'NN'
p74
aS'IN'
p75
aS'NNPS'
p76
aS'NN'
p77
aS'NN'
p78
aS'IN'
p79
aS'NNS'
p80
aS'CC'
p81
aS'NNS'
p82
asS'ner_seq'
p83
(lp84
S'O'
aS'O'
aS'O'
aS'O'
aS'O'
aS'O'
aS'O'
aS'O'
aS'O'
aS'O'
aS'O'
assb.