ccopy_reg
_reconstructor
p1
(c__main__
KBproperty
p2
c__builtin__
object
p3
NtRp4
(dp5
S'comment'
p6
S'Short description of a person1315113094'
p7
sS'domain'
p8
S''
sS'instances_count'
p9
I10407
sS'phrases'
p10
NsS'syn_hypo'
p11
Vjob_descriptiondescriptionverbal_descriptionspecificationdescriptionverbal_descriptionspecdescriptionverbal_descriptionword_picturedescriptionverbal_descriptionword-paintingdescriptionverbal_descriptiondelineationdescriptionverbal_descriptiondepictiondescriptionverbal_descriptionpicturedescriptionverbal_descriptioncharacterizationdescriptionverbal_descriptioncharacterisation
p12
sS'label'
p13
S'description'
p14
sS'range'
p15
S'lang String '
p16
sS'uniq_subjs'
p17
S'10407'
p18
sS'uniq_objs'
p19
I0
sS'prop_uri'
p20
S'http://dbpedia.org/ontology/description'
p21
sS'annotations'
p22
(dp23
S'bag_of_words'
p24
(lp25
S'description'
p26
aS'lang'
p27
aS'String'
p28
aS'Short'
p29
aS'description'
p30
aS'of'
p31
aS'a'
aS'person1315113094'
p32
asS'chunk_seq'
p33
(lp34
S'B-NP'
p35
aS'I-NP'
p36
aS'I-NP'
p37
aS'I-NP'
p38
aS'E-NP'
p39
aS'S-PP'
p40
aS'B-NP'
p41
aS'E-NP'
p42
asS'dep_seq'
p43
(lp44
(lp45
S'nn'
p46
aS'5'
aS'1'
aa(lp47
S'amod'
p48
aS'5'
aS'2'
aa(lp49
S'nn'
p50
aS'5'
aS'3'
aa(lp51
S'amod'
p52
aS'5'
aS'4'
aa(lp53
S'root'
p54
aS'0'
aS'5'
aa(lp55
S'det'
p56
aS'8'
aS'7'
aa(lp57
S'prep_of'
p58
aS'5'
aS'8'
aasS'srls'
p59
(lp60
(dp61
S'A1'
p62
g28
sS'V'
g27
sasS'pos_seq'
p63
(lp64
S'NN'
p65
aS'VBG'
p66
aS'NN'
p67
aS'JJ'
p68
aS'NN'
p69
aS'IN'
p70
aS'DT'
p71
aS'NN'
p72
asS'ner_seq'
p73
(lp74
S'O'
aS'B-PER'
p75
aS'E-PER'
p76
aS'O'
aS'O'
aS'O'
aS'O'
aS'O'
assb.