ccopy_reg
_reconstructor
p1
(c__main__
KBproperty
p2
c__builtin__
object
p3
NtRp4
(dp5
S'comment'
p6
S'00'
p7
sS'domain'
p8
S'Person '
p9
sS'instances_count'
p10
I0
sS'phrases'
p11
NsS'syn_hypo'
p12
Vbowweaponarmweapon_systembow_and_arrowweaponarmweapon_systembrass_knucksweaponarmweapon_systemknucksweaponarmweapon_systembrass_knucklesweaponarmweapon_systemknucklesweaponarmweapon_systemknuckle_dusterweaponarmweapon_systemfire_shipweaponarmweapon_systemflamethrowerweaponarmweapon_systemGreek_fireweaponarmweapon_systemgunweaponarmweapon_systemknifeweaponarmweapon_systemlight_armweaponarmweapon_systemmissileweaponarmweapon_systempikeweaponarmweapon_systemprojectileweaponarmweapon_systemmissileweaponarmweapon_systemslasherweaponarmweapon_systemslingweaponarmweapon_systemspearweaponarmweapon_systemlanceweaponarmweapon_systemshaftweaponarmweapon_systemstun_gunweaponarmweapon_systemstun_batonweaponarmweapon_systemswordweaponarmweapon_systembladeweaponarmweapon_systembrandweaponarmweapon_systemsteelweaponarmweapon_systemtomahawkweaponarmweapon_systemhatchetweaponarmweapon_systemweapon_of_mass_destructionweaponarmweapon_systemWMDweaponarmweapon_systemW.M.D.
p13
sS'label'
p14
S'weapon'
p15
sS'range'
p16
S''
sS'uniq_subjs'
p17
S'0'
sS'uniq_objs'
p18
I0
sS'prop_uri'
p19
S'http://dbpedia.org/ontology/weapon'
p20
sS'annotations'
p21
(dp22
S'bag_of_words'
p23
(lp24
S'Person'
p25
aS'weapon'
p26
aS'00'
p27
asS'chunk_seq'
p28
(lp29
S'B-NP'
p30
aS'E-NP'
p31
aS'S-NP'
p32
asS'dep_seq'
p33
(lp34
(lp35
S'nn'
p36
aS'2'
aS'1'
aa(lp37
S'root'
p38
aS'0'
aS'2'
aa(lp39
S'advmod'
p40
aS'2'
aS'3'
aasS'srls'
p41
(lp42
sS'pos_seq'
p43
(lp44
S'NN'
p45
aS'NN'
p46
aS'CD'
p47
asS'ner_seq'
p48
(lp49
S'O'
aS'O'
aS'O'
assb.