ccopy_reg
_reconstructor
p1
(c__main__
KBproperty
p2
c__builtin__
object
p3
NtRp4
(dp5
S'comment'
p6
S'00'
p7
sS'domain'
p8
S'Boxer '
p9
sS'instances_count'
p10
I0
sS'phrases'
p11
NsS'syn_hypo'
p12
S''
sS'label'
p13
S'amateur defeat'
p14
sS'range'
p15
S'non Negative Integer '
p16
sS'uniq_subjs'
p17
S'0'
sS'uniq_objs'
p18
I0
sS'prop_uri'
p19
S'http://dbpedia.org/ontology/amateurDefeat'
p20
sS'annotations'
p21
(dp22
S'bag_of_words'
p23
(lp24
S'Boxer'
p25
aS'amateur'
p26
aS'defeat'
p27
aS'non'
p28
aS'Negative'
p29
aS'Integer'
p30
aS'00'
p31
asS'chunk_seq'
p32
(lp33
S'B-NP'
p34
aS'I-NP'
p35
aS'I-NP'
p36
aS'I-NP'
p37
aS'I-NP'
p38
aS'E-NP'
p39
aS'O'
asS'dep_seq'
p40
(lp41
(lp42
S'root'
p43
aS'0'
aS'1'
aa(lp44
S'amod'
p45
aS'3'
aS'2'
aa(lp46
S'dobj'
p47
aS'1'
aS'3'
aa(lp48
S'iobj'
p49
aS'1'
aS'3'
aa(lp50
S'amod'
p51
aS'6'
aS'4'
aa(lp52
S'amod'
p53
aS'6'
aS'5'
aa(lp54
S'dobj'
p55
aS'1'
aS'6'
aa(lp56
S'dep'
p57
aS'3'
aS'6'
aa(lp58
S'num'
p59
aS'6'
aS'7'
aasS'srls'
p60
(lp61
(dp62
S'A1'
p63
S'amateur defeat non Negative Integer 00'
p64
sS'V'
g25
sasS'pos_seq'
p65
(lp66
S'VB'
p67
aS'JJ'
p68
aS'NN'
p69
aS'JJ'
p70
aS'JJ'
p71
aS'NN'
p72
aS'CD'
p73
asS'ner_seq'
p74
(lp75
S'O'
aS'O'
aS'O'
aS'O'
aS'O'
aS'O'
aS'O'
assb.