ccopy_reg
_reconstructor
p1
(c__main__
KBproperty
p2
c__builtin__
object
p3
NtRp4
(dp5
S'comment'
p6
S'UN/LOCODE the United Nations Code for Trade and Transport Locations is a geographic coding scheme developed and maintained by United Nations Economic Commission for Europe UNECE a unit of the United Nations. UN/LOCODE assigns codes to locations used in trade and transport  with functions such as seaports rail and road terminals airports post offices and border crossing points.00'
p7
sS'domain'
p8
S'Place '
p9
sS'instances_count'
p10
I0
sS'phrases'
p11
NsS'syn_hypo'
p12
S''
sS'label'
p13
S'UN/LOCODE'
p14
sS'range'
p15
S'string '
p16
sS'uniq_subjs'
p17
S'0'
sS'uniq_objs'
p18
I0
sS'prop_uri'
p19
S'http://dbpedia.org/ontology/unloCode'
p20
sS'annotations'
p21
(dp22
S'bag_of_words'
p23
(lp24
S'Place'
p25
aS'UN'
p26
aS'/'
aS'LOCODE'
p27
aS'string'
p28
aS'UN'
p29
aS'/'
aS'LOCODE'
p30
aS'the'
p31
aS'United'
p32
aS'Nations'
p33
aS'Code'
p34
aS'for'
p35
aS'Trade'
p36
aS'and'
p37
aS'Transport'
p38
aS'Locations'
p39
aS'is'
p40
aS'a'
aS'geographic'
p41
aS'coding'
p42
aS'scheme'
p43
aS'developed'
p44
aS'and'
p45
aS'maintained'
p46
aS'by'
p47
aS'United'
p48
aS'Nations'
p49
aS'Economic'
p50
aS'Commission'
p51
aS'for'
p52
aS'Europe'
p53
aS'UNECE'
p54
aS'a'
aS'unit'
p55
aS'of'
p56
aS'the'
p57
aS'United'
p58
aS'Nations'
p59
aS'.'
aS'UN'
p60
aS'/'
aS'LOCODE'
p61
aS'assigns'
p62
aS'codes'
p63
aS'to'
p64
aS'locations'
p65
aS'used'
p66
aS'in'
p67
aS'trade'
p68
aS'and'
p69
aS'transport'
p70
aS'with'
p71
aS'functions'
p72
aS'such'
p73
aS'as'
p74
aS'seaports'
p75
aS'rail'
p76
aS'and'
p77
aS'road'
p78
aS'terminals'
p79
aS'airports'
p80
aS'post'
p81
aS'offices'
p82
aS'and'
p83
aS'border'
p84
aS'crossing'
p85
aS'points.00'
p86
asS'chunk_seq'
p87
(lp88
S'S-NP'
p89
aS'B-NP'
p90
aS'I-NP'
p91
aS'I-NP'
p92
aS'I-NP'
p93
aS'E-NP'
p94
aS'O'
aS'S-NP'
p95
aS'B-NP'
p96
aS'I-NP'
p97
aS'I-NP'
p98
aS'E-NP'
p99
aS'S-PP'
p100
aS'B-NP'
p101
aS'I-NP'
p102
aS'I-NP'
p103
aS'E-NP'
p104
aS'S-VP'
p105
aS'B-NP'
p106
aS'I-NP'
p107
aS'I-NP'
p108
aS'E-NP'
p109
aS'B-VP'
p110
aS'I-VP'
p111
aS'E-VP'
p112
aS'S-PP'
p113
aS'B-NP'
p114
aS'I-NP'
p115
aS'I-NP'
p116
aS'E-NP'
p117
aS'S-PP'
p118
aS'S-NP'
p119
aS'B-NP'
p120
aS'I-NP'
p121
aS'E-NP'
p122
aS'S-PP'
p123
aS'B-NP'
p124
aS'I-NP'
p125
aS'E-NP'
p126
aS'O'
aS'S-NP'
p127
aS'O'
aS'S-NP'
p128
aS'S-VP'
p129
aS'S-NP'
p130
aS'S-PP'
p131
aS'S-NP'
p132
aS'S-VP'
p133
aS'S-PP'
p134
aS'B-NP'
p135
aS'I-NP'
p136
aS'E-NP'
p137
aS'S-PP'
p138
aS'S-NP'
p139
aS'B-PP'
p140
aS'E-PP'
p141
aS'B-NP'
p142
aS'E-NP'
p143
aS'O'
aS'B-NP'
p144
aS'E-NP'
p145
aS'S-NP'
p146
aS'S-VP'
p147
aS'B-NP'
p148
aS'I-NP'
p149
aS'E-NP'
p150
aS'S-VP'
p151
aS'S-NP'
p152
asS'dep_seq'
p153
(lp154
(lp155
S'nn'
p156
aS'6'
aS'1'
aa(lp157
S'nn'
p158
aS'6'
aS'2'
aa(lp159
S'punct'
p160
aS'6'
aS'3'
aa(lp161
S'amod'
p162
aS'6'
aS'4'
aa(lp163
S'nn'
p164
aS'6'
aS'5'
aa(lp165
S'nn'
p166
aS'8'
aS'6'
aa(lp167
S'punct'
p168
aS'8'
aS'7'
aa(lp169
S'nsubj'
p170
aS'22'
p171
aS'8'
aa(lp172
S'det'
p173
aS'12'
p174
aS'9'
aa(lp175
S'nn'
p176
aS'12'
p177
aS'10'
p178
aa(lp179
S'nn'
p180
aS'12'
p181
aS'11'
p182
aa(lp183
S'dep'
p184
aS'8'
aS'12'
p185
aa(lp186
S'prep_for'
p187
aS'8'
aS'14'
p188
aa(lp189
S'nn'
p190
aS'17'
p191
aS'16'
p192
aa(lp193
S'conj_and'
p194
aS'14'
p195
aS'17'
p196
aa(lp197
S'cop'
p198
aS'22'
p199
aS'18'
p200
aa(lp201
S'det'
p202
aS'22'
p203
aS'19'
p204
aa(lp205
S'amod'
p206
aS'22'
p207
aS'20'
p208
aa(lp209
S'nn'
p210
aS'22'
p211
aS'21'
p212
aa(lp213
S'csubj'
p214
aS'44'
p215
aS'22'
p216
aa(lp217
S'partmod'
p218
aS'22'
p219
aS'23'
p220
aa(lp221
S'conj_and'
p222
aS'23'
p223
aS'25'
p224
aa(lp225
S'nn'
p226
aS'30'
p227
aS'27'
p228
aa(lp229
S'nn'
p230
aS'30'
p231
aS'28'
p232
aa(lp233
S'nn'
p234
aS'30'
p235
aS'29'
p236
aa(lp237
S'agent'
p238
aS'23'
p239
aS'30'
p240
aa(lp241
S'nn'
p242
aS'33'
p243
aS'32'
p244
aa(lp245
S'prep_for'
p246
aS'22'
p247
aS'33'
p248
aa(lp249
S'det'
p250
aS'35'
p251
aS'34'
p252
aa(lp253
S'dep'
p254
aS'22'
p255
aS'35'
p256
aa(lp257
S'det'
p258
aS'43'
p259
aS'37'
p260
aa(lp261
S'nn'
p262
aS'43'
p263
aS'38'
p264
aa(lp265
S'nn'
p266
aS'43'
p267
aS'39'
p268
aa(lp269
S'nn'
p270
aS'43'
p271
aS'41'
p272
aa(lp273
S'punct'
p274
aS'43'
p275
aS'42'
p276
aa(lp277
S'prep_of'
p278
aS'35'
p279
aS'43'
p280
aa(lp281
S'root'
p282
aS'0'
aS'44'
p283
aa(lp284
S'dobj'
p285
aS'44'
p286
aS'45'
p287
aa(lp288
S'prep_to'
p289
aS'45'
p290
aS'47'
p291
aa(lp292
S'partmod'
p293
aS'47'
p294
aS'48'
p295
aa(lp296
S'prep_in'
p297
aS'48'
p298
aS'50'
p299
aa(lp300
S'conj_and'
p301
aS'50'
p302
aS'52'
p303
aa(lp304
S'prep_with'
p305
aS'50'
p306
aS'54'
p307
aa(lp308
S'nn'
p309
aS'58'
p310
aS'57'
p311
aa(lp312
S'prep_such_as'
p313
aS'54'
p314
aS'58'
p315
aa(lp316
S'nn'
p317
aS'62'
p318
aS'60'
p319
aa(lp320
S'nn'
p321
aS'62'
p322
aS'61'
p323
aa(lp324
S'conj_and'
p325
aS'58'
p326
aS'62'
p327
aa(lp328
S'dep'
p329
aS'44'
p330
aS'63'
p331
aa(lp332
S'dobj'
p333
aS'63'
p334
aS'64'
p335
aa(lp336
S'conj_and'
p337
aS'44'
p338
aS'66'
p339
aa(lp340
S'dep'
p341
aS'44'
p342
aS'67'
p343
aa(lp344
S'dep'
p345
aS'44'
p346
aS'68'
p347
aasS'srls'
p348
(lp349
(dp350
S'A1'
p351
S'a geographic coding scheme'
p352
sS'V'
g44
sa(dp353
S'A1'
p354
S'a geographic coding scheme'
p355
sS'A0'
p356
S'by United Nations Economic Commission for Europe UNECE a unit of the United Nations'
p357
sS'V'
g46
sa(dp358
S'A1'
p359
g63
sS'A0'
p360
S'UN / LOCODE'
p361
sS'A2'
p362
S'to locations used in trade and transport with functions such as seaports rail and road terminals airports post offices and border crossing points.00'
p363
sS'V'
g62
sa(dp364
S'A1'
p365
g65
sS'A2'
p366
S'in trade and transport'
p367
sS'V'
g66
sa(dp368
S'A1'
p369
g82
sS'A0'
p370
g80
sS'V'
g81
sa(dp371
S'A1'
p372
g86
sS'A0'
p373
S'seaports rail and road terminals airports post offices and border'
p374
sS'V'
g85
sasS'pos_seq'
p375
(lp376
S'NNP'
p377
aS'NNP'
p378
aS':'
aS'JJ'
p379
aS'NN'
p380
aS'NNP'
p381
aS':'
aS'NNP'
p382
aS'DT'
p383
aS'NNP'
p384
aS'NNPS'
p385
aS'NNP'
p386
aS'IN'
p387
aS'NNP'
p388
aS'CC'
p389
aS'NNP'
p390
aS'NNPS'
p391
aS'VBZ'
p392
aS'DT'
p393
aS'JJ'
p394
aS'NN'
p395
aS'NN'
p396
aS'VBN'
p397
aS'CC'
p398
aS'VBN'
p399
aS'IN'
p400
aS'NNP'
p401
aS'NNPS'
p402
aS'NNP'
p403
aS'NNP'
p404
aS'IN'
p405
aS'NNP'
p406
aS'NNP'
p407
aS'DT'
p408
aS'NN'
p409
aS'IN'
p410
aS'DT'
p411
aS'NNP'
p412
aS'NNPS'
p413
aS'.'
aS'NNP'
p414
aS':'
aS'NNP'
p415
aS'VBZ'
p416
aS'NNS'
p417
aS'TO'
p418
aS'NNS'
p419
aS'VBN'
p420
aS'IN'
p421
aS'NN'
p422
aS'CC'
p423
aS'NN'
p424
aS'IN'
p425
aS'NNS'
p426
aS'JJ'
p427
aS'IN'
p428
aS'NNS'
p429
aS'NN'
p430
aS'CC'
p431
aS'NN'
p432
aS'NNS'
p433
aS'NNS'
p434
aS'VBP'
p435
aS'NNS'
p436
aS'CC'
p437
aS'NN'
p438
aS'VBG'
p439
aS'NN'
p440
asS'ner_seq'
p441
(lp442
S'O'
aS'O'
aS'O'
aS'O'
aS'O'
aS'B-ORG'
p443
aS'I-ORG'
p444
aS'E-ORG'
p445
aS'O'
aS'B-ORG'
p446
aS'I-ORG'
p447
aS'I-ORG'
p448
aS'I-ORG'
p449
aS'I-ORG'
p450
aS'I-ORG'
p451
aS'I-ORG'
p452
aS'E-ORG'
p453
aS'O'
aS'O'
aS'O'
aS'O'
aS'O'
aS'O'
aS'O'
aS'O'
aS'O'
aS'B-ORG'
p454
aS'I-ORG'
p455
aS'I-ORG'
p456
aS'I-ORG'
p457
aS'I-ORG'
p458
aS'I-ORG'
p459
aS'E-ORG'
p460
aS'O'
aS'O'
aS'O'
aS'O'
aS'B-ORG'
p461
aS'E-ORG'
p462
aS'O'
aS'B-MISC'
p463
aS'I-MISC'
p464
aS'E-MISC'
p465
aS'O'
aS'O'
aS'O'
aS'O'
aS'O'
aS'O'
aS'O'
aS'O'
aS'O'
aS'O'
aS'O'
aS'O'
aS'O'
aS'O'
aS'O'
aS'O'
aS'O'
aS'O'
aS'O'
aS'O'
aS'O'
aS'O'
aS'O'
aS'O'
aS'O'
assb.