ccopy_reg
_reconstructor
p1
(c__main__
KBproperty
p2
c__builtin__
object
p3
NtRp4
(dp5
S'comment'
p6
S'165045208'
p7
sS'domain'
p8
S''
sS'instances_count'
p9
I16006
sS'phrases'
p10
NsS'syn_hypo'
p11
Vbasispartportioncomponent_partcomponentconstituentbasepartportioncomponent_partcomponentconstituentbuttpartportioncomponent_partcomponentconstituentdetailpartportioncomponent_partcomponentconstituentparticularpartportioncomponent_partcomponentconstituentitempartportioncomponent_partcomponentconstituentitempartportioncomponent_partcomponentconstituentpointpartportioncomponent_partcomponentconstituentlanguage_unitpartportioncomponent_partcomponentconstituentlinguistic_unitpartportioncomponent_partcomponentconstituentmemberpartportioncomponent_partcomponentconstituentremainderpartportioncomponent_partcomponentconstituentbalancepartportioncomponent_partcomponentconstituentresidualpartportioncomponent_partcomponentconstituentresiduepartportioncomponent_partcomponentconstituentresiduumpartportioncomponent_partcomponentconstituentrestpartportioncomponent_partcomponentconstituentsubpartpartportioncomponent_partcomponentconstituentsubstancepartportioncomponent_partcomponentconstituentunit
p12
sS'label'
p13
S'part'
p14
sS'range'
p15
S'Place '
p16
sS'uniq_subjs'
p17
S'16006'
p18
sS'uniq_objs'
p19
I0
sS'prop_uri'
p20
S'http://dbpedia.org/ontology/part'
p21
sS'annotations'
p22
(dp23
S'bag_of_words'
p24
(lp25
S'part'
p26
aS'Place'
p27
aS'165045208'
p28
asS'chunk_seq'
p29
(lp30
S'B-NP'
p31
aS'I-NP'
p32
aS'E-NP'
p33
asS'dep_seq'
p34
(lp35
(lp36
S'nn'
p37
aS'3'
aS'1'
aa(lp38
S'nn'
p39
aS'3'
aS'2'
aa(lp40
S'root'
p41
aS'0'
aS'3'
aasS'srls'
p42
(lp43
sS'pos_seq'
p44
(lp45
S'NN'
p46
aS'NN'
p47
aS'NN'
p48
asS'ner_seq'
p49
(lp50
S'O'
aS'O'
aS'O'
assb.