ccopy_reg
_reconstructor
p1
(c__main__
KBproperty
p2
c__builtin__
object
p3
NtRp4
(dp5
S'comment'
p6
S'A former parent broadcast network to which the broadcaster once belonged.47572091'
p7
sS'domain'
p8
S'Broadcaster '
p9
sS'instances_count'
p10
I400
sS'phrases'
p11
NsS'syn_hypo'
p12
S''
sS'label'
p13
S'former broadcast network'
p14
sS'range'
p15
S'Broadcast Network '
p16
sS'uniq_subjs'
p17
S'400'
p18
sS'uniq_objs'
p19
I0
sS'prop_uri'
p20
S'http://dbpedia.org/ontology/formerBroadcastNetwork'
p21
sS'annotations'
p22
(dp23
S'bag_of_words'
p24
(lp25
S'Broadcaster'
p26
aS'former'
p27
aS'broadcast'
p28
aS'network'
p29
aS'Broadcast'
p30
aS'Network'
p31
aS'A'
aS'former'
p32
aS'parent'
p33
aS'broadcast'
p34
aS'network'
p35
aS'to'
p36
aS'which'
p37
aS'the'
p38
aS'broadcaster'
p39
aS'once'
p40
aS'belonged.47572091'
p41
asS'chunk_seq'
p42
(lp43
S'B-NP'
p44
aS'I-NP'
p45
aS'I-NP'
p46
aS'I-NP'
p47
aS'I-NP'
p48
aS'E-NP'
p49
aS'B-NP'
p50
aS'I-NP'
p51
aS'I-NP'
p52
aS'I-NP'
p53
aS'E-NP'
p54
aS'S-PP'
p55
aS'S-NP'
p56
aS'B-NP'
p57
aS'E-NP'
p58
aS'B-ADJP'
p59
aS'E-ADJP'
p60
asS'dep_seq'
p61
(lp62
(lp63
S'nn'
p64
aS'11'
p65
aS'1'
aa(lp66
S'amod'
p67
aS'11'
p68
aS'2'
aa(lp69
S'nn'
p70
aS'11'
p71
aS'3'
aa(lp72
S'nn'
p73
aS'11'
p74
aS'4'
aa(lp75
S'nn'
p76
aS'11'
p77
aS'5'
aa(lp78
S'nn'
p79
aS'11'
p80
aS'6'
aa(lp81
S'nn'
p82
aS'11'
p83
aS'7'
aa(lp84
S'amod'
p85
aS'11'
p86
aS'8'
aa(lp87
S'nn'
p88
aS'11'
p89
aS'9'
aa(lp90
S'nn'
p91
aS'11'
p92
aS'10'
p93
aa(lp94
S'root'
p95
aS'0'
aS'11'
p96
aa(lp97
S'prep_to'
p98
aS'11'
p99
aS'13'
p100
aa(lp101
S'det'
p102
aS'15'
p103
aS'14'
p104
aa(lp105
S'dep'
p106
aS'11'
p107
aS'15'
p108
aa(lp109
S'advmod'
p110
aS'11'
p111
aS'16'
p112
aa(lp113
S'punct'
p114
aS'11'
p115
aS'17'
p116
aasS'srls'
p117
(lp118
sS'pos_seq'
p119
(lp120
S'NN'
p121
aS'JJ'
p122
aS'NN'
p123
aS'NN'
p124
aS'NNP'
p125
aS'NNP'
p126
aS'NNP'
p127
aS'JJ'
p128
aS'NN'
p129
aS'NN'
p130
aS'NN'
p131
aS'TO'
p132
aS'WDT'
p133
aS'DT'
p134
aS'NN'
p135
aS'RB'
p136
aS'.'
asS'ner_seq'
p137
(lp138
S'O'
aS'O'
aS'O'
aS'O'
aS'B-MISC'
p139
aS'I-MISC'
p140
aS'E-MISC'
p141
aS'O'
aS'O'
aS'O'
aS'O'
aS'O'
aS'O'
aS'O'
aS'O'
aS'O'
aS'O'
assb.