ccopy_reg
_reconstructor
p1
(c__main__
KBproperty
p2
c__builtin__
object
p3
NtRp4
(dp5
S'comment'
p6
S'Indicates an annotation associated with this document'
p7
sS'domain'
p8
S'Document '
p9
sS'instances_count'
p10
I0
sS'phrases'
p11
NsS'syn_hypo'
p12
S''
sS'label'
p13
g7
sS'range'
p14
S'Annotation '
p15
sS'uniq_subjs'
p16
S'0'
sS'uniq_objs'
p17
I0
sS'prop_uri'
p18
S'http://dbpedia.org/ontology/hasAnnotation'
p19
sS'annotations'
p20
(dp21
S'bag_of_words'
p22
(lp23
S'Document'
p24
aS'has'
p25
aS'Annotation'
p26
aS'Annotation'
p27
aS'Indicates'
p28
aS'an'
p29
aS'annotation'
p30
aS'associated'
p31
aS'with'
p32
aS'this'
p33
aS'document'
p34
asS'chunk_seq'
p35
(lp36
S'S-NP'
p37
aS'S-VP'
p38
aS'B-NP'
p39
aS'E-NP'
p40
aS'S-VP'
p41
aS'B-NP'
p42
aS'E-NP'
p43
aS'S-VP'
p44
aS'S-PP'
p45
aS'B-NP'
p46
aS'E-NP'
p47
asS'dep_seq'
p48
(lp49
(lp50
S'nsubj'
p51
aS'2'
aS'1'
aa(lp52
S'root'
p53
aS'0'
aS'2'
aa(lp54
S'nn'
p55
aS'4'
aS'3'
aa(lp56
S'nsubj'
p57
aS'5'
aS'4'
aa(lp58
S'ccomp'
p59
aS'2'
aS'5'
aa(lp60
S'det'
p61
aS'7'
aS'6'
aa(lp62
S'dobj'
p63
aS'5'
aS'7'
aa(lp64
S'partmod'
p65
aS'7'
aS'8'
aa(lp66
S'det'
p67
aS'11'
p68
aS'10'
p69
aa(lp70
S'prep_with'
p71
aS'8'
aS'11'
p72
aasS'srls'
p73
(lp74
(dp75
S'A1'
p76
S'Annotation Annotation Indicates an annotation associated with this document'
p77
sS'A0'
p78
g24
sS'V'
g25
sa(dp79
S'A1'
p80
S'an annotation associated with this document'
p81
sS'A0'
p82
S'Annotation Annotation'
p83
sS'V'
g28
sa(dp84
S'A1'
p85
S'an annotation'
p86
sS'A2'
p87
S'with this document'
p88
sS'V'
g31
sasS'pos_seq'
p89
(lp90
S'NN'
p91
aS'VBZ'
p92
aS'NNP'
p93
aS'NNP'
p94
aS'VBZ'
p95
aS'DT'
p96
aS'NN'
p97
aS'VBN'
p98
aS'IN'
p99
aS'DT'
p100
aS'NN'
p101
asS'ner_seq'
p102
(lp103
S'O'
aS'O'
aS'O'
aS'O'
aS'O'
aS'O'
aS'O'
aS'O'
aS'O'
aS'O'
aS'O'
assb.