ccopy_reg
_reconstructor
p1
(c__main__
KBproperty
p2
c__builtin__
object
p3
NtRp4
(dp5
S'comment'
p6
S'Different usage of an airport'
p7
sS'domain'
p8
S'Airport '
p9
sS'instances_count'
p10
I0
sS'phrases'
p11
NsS'syn_hypo'
p12
S''
sS'label'
p13
g7
sS'range'
p14
S'string '
p15
sS'uniq_subjs'
p16
S'0'
sS'uniq_objs'
p17
I0
sS'prop_uri'
p18
S'http://dbpedia.org/ontology/airportUsing'
p19
sS'annotations'
p20
(dp21
S'bag_of_words'
p22
(lp23
S'Airport'
p24
aS'airport'
p25
aS'Using'
p26
aS'string'
p27
aS'Different'
p28
aS'usage'
p29
aS'of'
p30
aS'an'
p31
aS'airport'
p32
asS'chunk_seq'
p33
(lp34
S'B-NP'
p35
aS'E-NP'
p36
aS'S-VP'
p37
aS'B-NP'
p38
aS'I-NP'
p39
aS'E-NP'
p40
aS'S-PP'
p41
aS'B-NP'
p42
aS'E-NP'
p43
asS'dep_seq'
p44
(lp45
(lp46
S'nn'
p47
aS'2'
aS'1'
aa(lp48
S'root'
p49
aS'0'
aS'2'
aa(lp50
S'dep'
p51
aS'2'
aS'3'
aa(lp52
S'nn'
p53
aS'6'
aS'4'
aa(lp54
S'amod'
p55
aS'6'
aS'5'
aa(lp56
S'dobj'
p57
aS'3'
aS'6'
aa(lp58
S'det'
p59
aS'9'
aS'8'
aa(lp60
S'prep_of'
p61
aS'6'
aS'9'
aasS'srls'
p62
(lp63
(dp64
S'A1'
p65
S'string Different usage of an airport'
p66
sS'A0'
p67
S'Airport airport'
p68
sS'V'
g26
sasS'pos_seq'
p69
(lp70
S'NNP'
p71
aS'NN'
p72
aS'VBG'
p73
aS'NN'
p74
aS'JJ'
p75
aS'NN'
p76
aS'IN'
p77
aS'DT'
p78
aS'NN'
p79
asS'ner_seq'
p80
(lp81
S'S-LOC'
p82
aS'O'
aS'O'
aS'O'
aS'O'
aS'O'
aS'O'
aS'O'
aS'O'
assb.