ccopy_reg
_reconstructor
p1
(c__main__
KBproperty
p2
c__builtin__
object
p3
NtRp4
(dp5
S'comment'
p6
S'the person they are married to3544530985'
p7
sS'domain'
p8
S'Person '
p9
sS'instances_count'
p10
I32591
sS'phrases'
p11
NsS'syn_hypo'
p12
Vbigamistspousepartnermarried_personmatebetter_halfconsortspousepartnermarried_personmatebetter_halfhelpmatespousepartnermarried_personmatebetter_halfhelpmeetspousepartnermarried_personmatebetter_halfhusbandspousepartnermarried_personmatebetter_halfhubbyspousepartnermarried_personmatebetter_halfmarried_manspousepartnermarried_personmatebetter_halfmonogamistspousepartnermarried_personmatebetter_halfmonogynistspousepartnermarried_personmatebetter_halfnewlywedspousepartnermarried_personmatebetter_halfhoneymoonerspousepartnermarried_personmatebetter_halfpolygamistspousepartnermarried_personmatebetter_halfwifespousepartnermarried_personmatebetter_halfmarried_woman
p13
sS'label'
p14
S'spouse'
p15
sS'range'
p16
S'Person '
p17
sS'uniq_subjs'
p18
S'32591'
p19
sS'uniq_objs'
p20
I0
sS'prop_uri'
p21
S'http://dbpedia.org/ontology/spouse'
p22
sS'annotations'
p23
(dp24
S'bag_of_words'
p25
(lp26
S'Person'
p27
aS'spouse'
p28
aS'Person'
p29
aS'the'
p30
aS'person'
p31
aS'they'
p32
aS'are'
p33
aS'married'
p34
aS'to3544530985'
p35
asS'chunk_seq'
p36
(lp37
S'B-NP'
p38
aS'I-NP'
p39
aS'E-NP'
p40
aS'B-NP'
p41
aS'E-NP'
p42
aS'S-NP'
p43
aS'S-VP'
p44
aS'B-NP'
p45
aS'E-NP'
p46
asS'dep_seq'
p47
(lp48
(lp49
S'nn'
p50
aS'3'
aS'1'
aa(lp51
S'nn'
p52
aS'3'
aS'2'
aa(lp53
S'dep'
p54
aS'5'
aS'3'
aa(lp55
S'det'
p56
aS'5'
aS'4'
aa(lp57
S'root'
p58
aS'0'
aS'5'
aa(lp59
S'nsubj'
p60
aS'9'
aS'6'
aa(lp61
S'cop'
p62
aS'9'
aS'7'
aa(lp63
S'amod'
p64
aS'9'
aS'8'
aa(lp65
S'rcmod'
p66
aS'5'
aS'9'
aasS'srls'
p67
(lp68
sS'pos_seq'
p69
(lp70
S'NN'
p71
aS'NN'
p72
aS'NN'
p73
aS'DT'
p74
aS'NN'
p75
aS'PRP'
p76
aS'VBP'
p77
aS'JJ'
p78
aS'NN'
p79
asS'ner_seq'
p80
(lp81
S'O'
aS'O'
aS'O'
aS'O'
aS'O'
aS'O'
aS'O'
aS'O'
aS'O'
assb.