ccopy_reg
_reconstructor
p1
(c__main__
KBproperty
p2
c__builtin__
object
p3
NtRp4
(dp5
S'comment'
p6
S'A block of the periodic table of elements is a set of adjacent groups.00'
p7
sS'domain'
p8
S'Chemical Element '
p9
sS'instances_count'
p10
I0
sS'phrases'
p11
NsS'syn_hypo'
p12
S''
sS'label'
p13
S'element block'
p14
sS'range'
p15
S'string '
p16
sS'uniq_subjs'
p17
S'0'
sS'uniq_objs'
p18
I0
sS'prop_uri'
p19
S'http://dbpedia.org/ontology/elementBlock'
p20
sS'annotations'
p21
(dp22
S'bag_of_words'
p23
(lp24
S'Chemical'
p25
aS'Element'
p26
aS'element'
p27
aS'block'
p28
aS'string'
p29
aS'A'
aS'block'
p30
aS'of'
p31
aS'the'
p32
aS'periodic'
p33
aS'table'
p34
aS'of'
p35
aS'elements'
p36
aS'is'
p37
aS'a'
aS'set'
p38
aS'of'
p39
aS'adjacent'
p40
aS'groups.00'
p41
asS'chunk_seq'
p42
(lp43
S'B-NP'
p44
aS'I-NP'
p45
aS'I-NP'
p46
aS'I-NP'
p47
aS'E-NP'
p48
aS'B-NP'
p49
aS'E-NP'
p50
aS'S-PP'
p51
aS'B-NP'
p52
aS'I-NP'
p53
aS'E-NP'
p54
aS'S-PP'
p55
aS'S-NP'
p56
aS'S-VP'
p57
aS'B-NP'
p58
aS'E-NP'
p59
aS'S-PP'
p60
aS'B-NP'
p61
aS'E-NP'
p62
asS'dep_seq'
p63
(lp64
(lp65
S'nn'
p66
aS'5'
aS'1'
aa(lp67
S'nn'
p68
aS'5'
aS'2'
aa(lp69
S'nn'
p70
aS'5'
aS'3'
aa(lp71
S'nn'
p72
aS'5'
aS'4'
aa(lp73
S'nsubj'
p74
aS'16'
p75
aS'5'
aa(lp76
S'det'
p77
aS'7'
aS'6'
aa(lp78
S'nsubj'
p79
aS'16'
p80
aS'7'
aa(lp81
S'det'
p82
aS'11'
p83
aS'9'
aa(lp84
S'amod'
p85
aS'11'
p86
aS'10'
p87
aa(lp88
S'prep_of'
p89
aS'7'
aS'11'
p90
aa(lp91
S'prep_of'
p92
aS'11'
p93
aS'13'
p94
aa(lp95
S'cop'
p96
aS'16'
p97
aS'14'
p98
aa(lp99
S'det'
p100
aS'16'
p101
aS'15'
p102
aa(lp103
S'root'
p104
aS'0'
aS'16'
p105
aa(lp106
S'amod'
p107
aS'19'
p108
aS'18'
p109
aa(lp110
S'prep_of'
p111
aS'16'
p112
aS'19'
p113
aasS'srls'
p114
(lp115
sS'pos_seq'
p116
(lp117
S'NNP'
p118
aS'NNP'
p119
aS'NN'
p120
aS'NN'
p121
aS'NN'
p122
aS'DT'
p123
aS'NN'
p124
aS'IN'
p125
aS'DT'
p126
aS'JJ'
p127
aS'NN'
p128
aS'IN'
p129
aS'NNS'
p130
aS'VBZ'
p131
aS'DT'
p132
aS'NN'
p133
aS'IN'
p134
aS'JJ'
p135
aS'NN'
p136
asS'ner_seq'
p137
(lp138
S'O'
aS'O'
aS'O'
aS'O'
aS'O'
aS'O'
aS'O'
aS'O'
aS'O'
aS'O'
aS'O'
aS'O'
aS'O'
aS'O'
aS'O'
aS'O'
aS'O'
aS'O'
aS'O'
assb.