ccopy_reg
_reconstructor
p1
(c__main__
KBproperty
p2
c__builtin__
object
p3
NtRp4
(dp5
S'comment'
p6
S'describes in what way this site is accessible for public389379'
p7
sS'domain'
p8
S''
sS'instances_count'
p9
I55
sS'phrases'
p10
NsS'syn_hypo'
p11
S''
sS'label'
p12
S'publicly accessible'
p13
sS'range'
p14
S'string '
p15
sS'uniq_subjs'
p16
S'55'
p17
sS'uniq_objs'
p18
I0
sS'prop_uri'
p19
S'http://dbpedia.org/ontology/publiclyAccessible'
p20
sS'annotations'
p21
(dp22
S'bag_of_words'
p23
(lp24
S'publicly'
p25
aS'accessible'
p26
aS'string'
p27
aS'describes'
p28
aS'in'
p29
aS'what'
p30
aS'way'
p31
aS'this'
p32
aS'site'
p33
aS'is'
p34
aS'accessible'
p35
aS'for'
p36
aS'public389379'
p37
asS'chunk_seq'
p38
(lp39
S'B-NP'
p40
aS'I-NP'
p41
aS'E-NP'
p42
aS'S-VP'
p43
aS'S-PP'
p44
aS'B-NP'
p45
aS'E-NP'
p46
aS'B-NP'
p47
aS'E-NP'
p48
aS'S-VP'
p49
aS'S-ADJP'
p50
aS'S-PP'
p51
aS'S-NP'
p52
asS'dep_seq'
p53
(lp54
(lp55
S'advmod'
p56
aS'2'
aS'1'
aa(lp57
S'amod'
p58
aS'3'
aS'2'
aa(lp59
S'nsubj'
p60
aS'4'
aS'3'
aa(lp61
S'root'
p62
aS'0'
aS'4'
aa(lp63
S'det'
p64
aS'7'
aS'6'
aa(lp65
S'prep_in'
p66
aS'11'
p67
aS'7'
aa(lp68
S'det'
p69
aS'9'
aS'8'
aa(lp70
S'nsubj'
p71
aS'11'
p72
aS'9'
aa(lp73
S'cop'
p74
aS'11'
p75
aS'10'
p76
aa(lp77
S'ccomp'
p78
aS'4'
aS'11'
p79
aa(lp80
S'prep_for'
p81
aS'11'
p82
aS'13'
p83
aasS'srls'
p84
(lp85
(dp86
S'A0'
p87
S'publicly accessible string'
p88
sS'A2'
p89
S'in what way this site is accessible for public389379'
p90
sS'V'
g28
sasS'pos_seq'
p91
(lp92
S'RB'
p93
aS'JJ'
p94
aS'NN'
p95
aS'VBZ'
p96
aS'IN'
p97
aS'WP'
p98
aS'NN'
p99
aS'DT'
p100
aS'NN'
p101
aS'VBZ'
p102
aS'JJ'
p103
aS'IN'
p104
aS'NN'
p105
asS'ner_seq'
p106
(lp107
S'O'
aS'O'
aS'O'
aS'O'
aS'O'
aS'O'
aS'O'
aS'O'
aS'O'
aS'O'
aS'O'
aS'O'
aS'O'
assb.