ccopy_reg
_reconstructor
p1
(c__main__
KBproperty
p2
c__builtin__
object
p3
NtRp4
(dp5
S'comment'
p6
S'This property is to accommodate the list field that contains a list of related personFunctions a person holds or has held00'
p7
sS'domain'
p8
S'Person '
p9
sS'instances_count'
p10
I0
sS'phrases'
p11
NsS'syn_hypo'
p12
S''
sS'label'
p13
S'related functions'
p14
sS'range'
p15
S'List '
p16
sS'uniq_subjs'
p17
S'0'
sS'uniq_objs'
p18
I0
sS'prop_uri'
p19
S'http://dbpedia.org/ontology/relatedFunctions'
p20
sS'annotations'
p21
(dp22
S'bag_of_words'
p23
(lp24
S'Person'
p25
aS'related'
p26
aS'functions'
p27
aS'List'
p28
aS'This'
p29
aS'property'
p30
aS'is'
p31
aS'to'
p32
aS'accommodate'
p33
aS'the'
p34
aS'list'
p35
aS'field'
p36
aS'that'
p37
aS'contains'
p38
aS'a'
aS'list'
p39
aS'of'
p40
aS'related'
p41
aS'personFunctions'
p42
aS'a'
aS'person'
p43
aS'holds'
p44
aS'or'
p45
aS'has'
p46
aS'held00'
p47
asS'chunk_seq'
p48
(lp49
S'B-NP'
p50
aS'I-NP'
p51
aS'I-NP'
p52
aS'E-NP'
p53
aS'B-NP'
p54
aS'E-NP'
p55
aS'S-VP'
p56
aS'B-VP'
p57
aS'E-VP'
p58
aS'B-NP'
p59
aS'I-NP'
p60
aS'E-NP'
p61
aS'S-NP'
p62
aS'S-VP'
p63
aS'B-NP'
p64
aS'E-NP'
p65
aS'S-PP'
p66
aS'B-NP'
p67
aS'E-NP'
p68
aS'B-NP'
p69
aS'E-NP'
p70
aS'S-VP'
p71
aS'O'
aS'B-VP'
p72
aS'E-VP'
p73
asS'dep_seq'
p74
(lp75
(lp76
S'nn'
p77
aS'4'
aS'1'
aa(lp78
S'amod'
p79
aS'4'
aS'2'
aa(lp80
S'nn'
p81
aS'4'
aS'3'
aa(lp82
S'nsubj'
p83
aS'7'
aS'4'
aa(lp84
S'xsubj'
p85
aS'9'
aS'4'
aa(lp86
S'det'
p87
aS'6'
aS'5'
aa(lp88
S'nsubj'
p89
aS'7'
aS'6'
aa(lp90
S'xsubj'
p91
aS'9'
aS'6'
aa(lp92
S'root'
p93
aS'0'
aS'7'
aa(lp94
S'aux'
p95
aS'9'
aS'8'
aa(lp96
S'xcomp'
p97
aS'7'
aS'9'
aa(lp98
S'det'
p99
aS'12'
p100
aS'10'
p101
aa(lp102
S'nn'
p103
aS'12'
p104
aS'11'
p105
aa(lp106
S'dobj'
p107
aS'9'
aS'12'
p108
aa(lp109
S'nsubj'
p110
aS'14'
p111
aS'12'
p112
aa(lp113
S'rcmod'
p114
aS'12'
p115
aS'14'
p116
aa(lp117
S'det'
p118
aS'16'
p119
aS'15'
p120
aa(lp121
S'nsubj'
p122
aS'22'
p123
aS'16'
p124
aa(lp125
S'amod'
p126
aS'19'
p127
aS'18'
p128
aa(lp129
S'prep_of'
p130
aS'16'
p131
aS'19'
p132
aa(lp133
S'det'
p134
aS'21'
p135
aS'20'
p136
aa(lp137
S'dep'
p138
aS'16'
p139
aS'21'
p140
aa(lp141
S'ccomp'
p142
aS'14'
p143
aS'22'
p144
aa(lp145
S'aux'
p146
aS'25'
p147
aS'24'
p148
aa(lp149
S'conj_or'
p150
aS'22'
p151
aS'25'
p152
aasS'srls'
p153
(lp154
(dp155
S'A1'
p156
S'Person functions'
p157
sS'V'
g26
sa(dp158
S'A1'
p159
S'the list field that contains a list of related personFunctions a person holds or has held00'
p160
sS'A0'
p161
S'Person related functions List This property'
p162
sS'V'
g33
sa(dp163
S'A1'
p164
S'a list of related personFunctions a person holds'
p165
sS'A0'
p166
S'the list field'
p167
sS'R-A0'
p168
g37
sS'V'
g38
sa(dp169
S'A1'
p170
g42
sS'V'
g41
sasS'pos_seq'
p171
(lp172
S'NN'
p173
aS'VBN'
p174
aS'NNS'
p175
aS'NN'
p176
aS'DT'
p177
aS'NN'
p178
aS'VBZ'
p179
aS'TO'
p180
aS'VB'
p181
aS'DT'
p182
aS'NN'
p183
aS'NN'
p184
aS'WDT'
p185
aS'VBZ'
p186
aS'DT'
p187
aS'NN'
p188
aS'IN'
p189
aS'JJ'
p190
aS'NNS'
p191
aS'DT'
p192
aS'NN'
p193
aS'VBZ'
p194
aS'CC'
p195
aS'VBZ'
p196
aS'VBN'
p197
asS'ner_seq'
p198
(lp199
S'O'
aS'O'
aS'O'
aS'O'
aS'O'
aS'O'
aS'O'
aS'O'
aS'O'
aS'O'
aS'O'
aS'O'
aS'O'
aS'O'
aS'O'
aS'O'
aS'O'
aS'O'
aS'S-PER'
p200
aS'O'
aS'O'
aS'O'
aS'O'
aS'O'
aS'O'
assb.