ccopy_reg
_reconstructor
p1
(c__main__
KBproperty
p2
c__builtin__
object
p3
NtRp4
(dp5
S'comment'
p6
S'Number of spans or arches.761733'
p7
sS'domain'
p8
S'Bridge '
p9
sS'instances_count'
p10
I72
sS'phrases'
p11
NsS'syn_hypo'
p12
S''
sS'label'
p13
S'number of spans'
p14
sS'range'
p15
S'non Negative Integer '
p16
sS'uniq_subjs'
p17
S'72'
p18
sS'uniq_objs'
p19
I0
sS'prop_uri'
p20
S'http://dbpedia.org/ontology/numberOfSpans'
p21
sS'annotations'
p22
(dp23
S'bag_of_words'
p24
(lp25
S'Bridge'
p26
aS'number'
p27
aS'of'
p28
aS'spans'
p29
aS'non'
p30
aS'Negative'
p31
aS'Integer'
p32
aS'Number'
p33
aS'of'
p34
aS'spans'
p35
aS'or'
p36
aS'arches.761733'
p37
asS'chunk_seq'
p38
(lp39
S'B-NP'
p40
aS'E-NP'
p41
aS'S-PP'
p42
aS'S-VP'
p43
aS'B-NP'
p44
aS'I-NP'
p45
aS'I-NP'
p46
aS'E-NP'
p47
aS'S-PP'
p48
aS'B-NP'
p49
aS'I-NP'
p50
aS'E-NP'
p51
asS'dep_seq'
p52
(lp53
(lp54
S'nn'
p55
aS'2'
aS'1'
aa(lp56
S'root'
p57
aS'0'
aS'2'
aa(lp58
S'dep'
p59
aS'4'
aS'3'
aa(lp60
S'rcmod'
p61
aS'2'
aS'4'
aa(lp62
S'amod'
p63
aS'8'
aS'5'
aa(lp64
S'nn'
p65
aS'8'
aS'6'
aa(lp66
S'nn'
p67
aS'8'
aS'7'
aa(lp68
S'dobj'
p69
aS'4'
aS'8'
aa(lp70
S'prep_of'
p71
aS'8'
aS'10'
p72
aa(lp73
S'conj_or'
p74
aS'10'
p75
aS'12'
p76
aasS'srls'
p77
(lp78
(dp79
S'A1'
p80
S'non Negative Integer Number of spans or arches.761733'
p81
sS'V'
g29
sasS'pos_seq'
p82
(lp83
S'NN'
p84
aS'NN'
p85
aS'IN'
p86
aS'VBZ'
p87
aS'JJ'
p88
aS'NNP'
p89
aS'NNP'
p90
aS'NNP'
p91
aS'IN'
p92
aS'NNS'
p93
aS'CC'
p94
aS'NN'
p95
asS'ner_seq'
p96
(lp97
S'O'
aS'O'
aS'O'
aS'O'
aS'O'
aS'O'
aS'O'
aS'O'
aS'O'
aS'O'
aS'O'
aS'O'
assb.