ccopy_reg
_reconstructor
p1
(c__main__
KBproperty
p2
c__builtin__
object
p3
NtRp4
(dp5
S'comment'
p6
S'16921113'
p7
sS'domain'
p8
S'Record Label '
p9
sS'instances_count'
p10
I462
sS'phrases'
p11
NsS'syn_hypo'
p12
S''
sS'label'
p13
S'distributing company'
p14
sS'range'
p15
S'Company '
p16
sS'uniq_subjs'
p17
S'462'
p18
sS'uniq_objs'
p19
I0
sS'prop_uri'
p20
S'http://dbpedia.org/ontology/distributingCompany'
p21
sS'annotations'
p22
(dp23
S'bag_of_words'
p24
(lp25
S'Record'
p26
aS'Label'
p27
aS'distributing'
p28
aS'company'
p29
aS'Company'
p30
aS'16921113'
p31
asS'chunk_seq'
p32
(lp33
S'B-NP'
p34
aS'E-NP'
p35
aS'S-VP'
p36
aS'B-NP'
p37
aS'E-NP'
p38
aS'S-ADJP'
p39
asS'dep_seq'
p40
(lp41
(lp42
S'nn'
p43
aS'5'
aS'1'
aa(lp44
S'nn'
p45
aS'5'
aS'2'
aa(lp46
S'amod'
p47
aS'5'
aS'3'
aa(lp48
S'nn'
p49
aS'5'
aS'4'
aa(lp50
S'root'
p51
aS'0'
aS'5'
aa(lp52
S'punct'
p53
aS'5'
aS'6'
aasS'srls'
p54
(lp55
(dp56
S'A0'
p57
S'Record Label  company Company'
p58
sS'V'
g28
sasS'pos_seq'
p59
(lp60
S'NNP'
p61
aS'NNP'
p62
aS'VBG'
p63
aS'NN'
p64
aS'NN'
p65
aS'.'
asS'ner_seq'
p66
(lp67
S'O'
aS'O'
aS'O'
aS'O'
aS'O'
aS'O'
assb.