ccopy_reg
_reconstructor
p1
(c__main__
KBproperty
p2
c__builtin__
object
p3
NtRp4
(dp5
S'comment'
p6
S'00'
p7
sS'domain'
p8
S'Chemical Substance '
p9
sS'instances_count'
p10
I0
sS'phrases'
p11
NsS'syn_hypo'
p12
S''
sS'label'
p13
S'boiling point K'
p14
sS'range'
p15
S'double '
p16
sS'uniq_subjs'
p17
S'0'
sS'uniq_objs'
p18
I0
sS'prop_uri'
p19
S'http://dbpedia.org/ontology/boilingPoint'
p20
sS'annotations'
p21
(dp22
S'bag_of_words'
p23
(lp24
S'Chemical'
p25
aS'Substance'
p26
aS'boiling'
p27
aS'point'
p28
aS'K'
aS'double'
p29
aS'00'
p30
asS'chunk_seq'
p31
(lp32
S'B-NP'
p33
aS'E-NP'
p34
aS'S-VP'
p35
aS'B-NP'
p36
aS'E-NP'
p37
aS'B-NP'
p38
aS'E-NP'
p39
asS'dep_seq'
p40
(lp41
(lp42
S'nn'
p43
aS'2'
aS'1'
aa(lp44
S'nsubj'
p45
aS'3'
aS'2'
aa(lp46
S'root'
p47
aS'0'
aS'3'
aa(lp48
S'nn'
p49
aS'5'
aS'4'
aa(lp50
S'iobj'
p51
aS'3'
aS'5'
aa(lp52
S'advmod'
p53
aS'7'
aS'6'
aa(lp54
S'dobj'
p55
aS'3'
aS'7'
aasS'srls'
p56
(lp57
(dp58
S'A1'
p59
S'Chemical Substance  K double 00'
p60
sS'A3'
p61
g28
sS'V'
g27
sasS'pos_seq'
p62
(lp63
S'NNP'
p64
aS'NNP'
p65
aS'VBG'
p66
aS'NN'
p67
aS'NNP'
p68
aS'RB'
p69
aS'CD'
p70
asS'ner_seq'
p71
(lp72
S'O'
aS'O'
aS'O'
aS'O'
aS'O'
aS'O'
aS'O'
assb.