ccopy_reg
_reconstructor
p1
(c__main__
KBproperty
p2
c__builtin__
object
p3
NtRp4
(dp5
S'comment'
p6
S'The location of the thing.393564232144'
p7
sS'domain'
p8
S''
sS'instances_count'
p9
I67361
sS'phrases'
p10
NsS'syn_hypo'
p11
VbaselocationhomelocationbilocationlocationEarthlocationearthlocationeastlocationherelocationhomelocationjunglelocationlinelocationnorthlocationnortheastlocationnorthwestlocationouter_spacelocationspacelocationpasslocationmountain_passlocationnotchlocationpointlocationregionlocationpartlocationregionlocationseatlocationsodomlocationsomewherelocationsouthlocationsoutheastlocationsouthwestlocationspacelocationtherelocationwestlocationwhereabouts
p12
sS'label'
p13
S'location'
p14
sS'range'
p15
S'Place '
p16
sS'uniq_subjs'
p17
S'67361'
p18
sS'uniq_objs'
p19
I0
sS'prop_uri'
p20
S'http://dbpedia.org/ontology/location'
p21
sS'annotations'
p22
(dp23
S'bag_of_words'
p24
(lp25
S'location'
p26
aS'Place'
p27
aS'The'
p28
aS'location'
p29
aS'of'
p30
aS'the'
p31
aS'thing.393564232144'
p32
asS'chunk_seq'
p33
(lp34
S'B-NP'
p35
aS'E-NP'
p36
aS'B-NP'
p37
aS'E-NP'
p38
aS'S-PP'
p39
aS'B-NP'
p40
aS'E-NP'
p41
asS'dep_seq'
p42
(lp43
(lp44
S'nn'
p45
aS'2'
aS'1'
aa(lp46
S'dep'
p47
aS'4'
aS'2'
aa(lp48
S'det'
p49
aS'4'
aS'3'
aa(lp50
S'root'
p51
aS'0'
aS'4'
aa(lp52
S'det'
p53
aS'7'
aS'6'
aa(lp54
S'prep_of'
p55
aS'4'
aS'7'
aasS'srls'
p56
(lp57
sS'pos_seq'
p58
(lp59
S'NN'
p60
aS'NNP'
p61
aS'DT'
p62
aS'NN'
p63
aS'IN'
p64
aS'DT'
p65
aS'NN'
p66
asS'ner_seq'
p67
(lp68
S'O'
aS'O'
aS'O'
aS'O'
aS'O'
aS'O'
aS'O'
assb.