ccopy_reg
_reconstructor
p1
(c__main__
KBproperty
p2
c__builtin__
object
p3
NtRp4
(dp5
S'comment'
p6
S'65326367'
p7
sS'domain'
p8
S'Automobile Engine '
p9
sS'instances_count'
p10
I233
sS'phrases'
p11
NsS'syn_hypo'
p12
S''
sS'label'
p13
S'start year of insertion'
p14
sS'range'
p15
S'g Year '
p16
sS'uniq_subjs'
p17
S'233'
p18
sS'uniq_objs'
p19
I0
sS'prop_uri'
p20
S'http://dbpedia.org/ontology/startYearOfInsertion'
p21
sS'annotations'
p22
(dp23
S'bag_of_words'
p24
(lp25
S'Automobile'
p26
aS'Engine'
p27
aS'start'
p28
aS'year'
p29
aS'of'
p30
aS'insertion'
p31
aS'g'
aS'Year'
p32
aS'65326367'
p33
asS'chunk_seq'
p34
(lp35
S'B-NP'
p36
aS'I-NP'
p37
aS'I-NP'
p38
aS'E-NP'
p39
aS'S-PP'
p40
aS'B-NP'
p41
aS'I-NP'
p42
aS'I-NP'
p43
aS'E-NP'
p44
asS'dep_seq'
p45
(lp46
(lp47
S'nn'
p48
aS'4'
aS'1'
aa(lp49
S'nn'
p50
aS'4'
aS'2'
aa(lp51
S'nn'
p52
aS'4'
aS'3'
aa(lp53
S'root'
p54
aS'0'
aS'4'
aa(lp55
S'nn'
p56
aS'9'
aS'6'
aa(lp57
S'nn'
p58
aS'9'
aS'7'
aa(lp59
S'nn'
p60
aS'9'
aS'8'
aa(lp61
S'prep_of'
p62
aS'4'
aS'9'
aasS'srls'
p63
(lp64
sS'pos_seq'
p65
(lp66
S'NNP'
p67
aS'NNP'
p68
aS'NN'
p69
aS'NN'
p70
aS'IN'
p71
aS'NN'
p72
aS'NN'
p73
aS'NN'
p74
aS'NN'
p75
asS'ner_seq'
p76
(lp77
S'B-ORG'
p78
aS'E-ORG'
p79
aS'O'
aS'O'
aS'O'
aS'O'
aS'O'
aS'O'
aS'O'
assb.