ccopy_reg
_reconstructor
p1
(c__main__
KBproperty
p2
c__builtin__
object
p3
NtRp4
(dp5
S'comment'
p6
S'462410'
p7
sS'domain'
p8
S'Military Unit '
p9
sS'instances_count'
p10
I258
sS'phrases'
p11
NsS'syn_hypo'
p12
S''
sS'label'
p13
S'second commander'
p14
sS'range'
p15
S'Person '
p16
sS'uniq_subjs'
p17
S'258'
p18
sS'uniq_objs'
p19
I0
sS'prop_uri'
p20
S'http://dbpedia.org/ontology/secondCommander'
p21
sS'annotations'
p22
(dp23
S'bag_of_words'
p24
(lp25
S'Military'
p26
aS'Unit'
p27
aS'second'
p28
aS'commander'
p29
aS'Person'
p30
aS'462410'
p31
asS'chunk_seq'
p32
(lp33
S'B-NP'
p34
aS'I-NP'
p35
aS'I-NP'
p36
aS'I-NP'
p37
aS'E-NP'
p38
aS'O'
asS'dep_seq'
p39
(lp40
(lp41
S'nn'
p42
aS'2'
aS'1'
aa(lp43
S'root'
p44
aS'0'
aS'2'
aa(lp45
S'amod'
p46
aS'5'
aS'3'
aa(lp47
S'nn'
p48
aS'5'
aS'4'
aa(lp49
S'dep'
p50
aS'2'
aS'5'
aa(lp51
S'advmod'
p52
aS'2'
aS'6'
aasS'srls'
p53
(lp54
sS'pos_seq'
p55
(lp56
S'NNP'
p57
aS'NNP'
p58
aS'JJ'
p59
aS'NN'
p60
aS'NN'
p61
aS'CD'
p62
asS'ner_seq'
p63
(lp64
S'O'
aS'O'
aS'O'
aS'O'
aS'O'
aS'O'
assb.