ccopy_reg
_reconstructor
p1
(c__main__
KBproperty
p2
c__builtin__
object
p3
NtRp4
(dp5
S'comment'
p6
S'00'
p7
sS'domain'
p8
S''
sS'instances_count'
p9
I0
sS'phrases'
p10
NsS'syn_hypo'
p11
S''
sS'label'
p12
S'translated motto'
p13
sS'range'
p14
S'string '
p15
sS'uniq_subjs'
p16
S'0'
sS'uniq_objs'
p17
I0
sS'prop_uri'
p18
S'http://dbpedia.org/ontology/translatedMotto'
p19
sS'annotations'
p20
(dp21
S'bag_of_words'
p22
(lp23
S'translated'
p24
aS'motto'
p25
aS'string'
p26
aS'00'
p27
asS'chunk_seq'
p28
(lp29
S'B-NP'
p30
aS'I-NP'
p31
aS'E-NP'
p32
aS'O'
asS'dep_seq'
p33
(lp34
(lp35
S'amod'
p36
aS'3'
aS'1'
aa(lp37
S'nn'
p38
aS'3'
aS'2'
aa(lp39
S'root'
p40
aS'0'
aS'3'
aa(lp41
S'num'
p42
aS'3'
aS'4'
aasS'srls'
p43
(lp44
(dp45
S'V'
g24
sasS'pos_seq'
p46
(lp47
S'VBN'
p48
aS'NN'
p49
aS'NN'
p50
aS'CD'
p51
asS'ner_seq'
p52
(lp53
S'O'
aS'O'
aS'O'
aS'O'
assb.