ccopy_reg
_reconstructor
p1
(c__main__
KBproperty
p2
c__builtin__
object
p3
NtRp4
(dp5
S'comment'
p6
S'00'
p7
sS'domain'
p8
S'Populated Place '
p9
sS'instances_count'
p10
I0
sS'phrases'
p11
NsS'syn_hypo'
p12
S''
sS'label'
p13
S'sharing out population'
p14
sS'range'
p15
S'non Negative Integer '
p16
sS'uniq_subjs'
p17
S'0'
sS'uniq_objs'
p18
I0
sS'prop_uri'
p19
S'http://dbpedia.org/ontology/sharingOutPopulation'
p20
sS'annotations'
p21
(dp22
S'bag_of_words'
p23
(lp24
S'Populated'
p25
aS'Place'
p26
aS'sharing'
p27
aS'out'
p28
aS'population'
p29
aS'non'
p30
aS'Negative'
p31
aS'Integer'
p32
aS'00'
p33
asS'chunk_seq'
p34
(lp35
S'B-NP'
p36
aS'E-NP'
p37
aS'S-VP'
p38
aS'S-PP'
p39
aS'B-NP'
p40
aS'I-NP'
p41
aS'I-NP'
p42
aS'E-NP'
p43
aS'O'
asS'dep_seq'
p44
(lp45
(lp46
S'amod'
p47
aS'2'
aS'1'
aa(lp48
S'root'
p49
aS'0'
aS'2'
aa(lp50
S'partmod'
p51
aS'2'
aS'3'
aa(lp52
S'amod'
p53
aS'5'
aS'4'
aa(lp54
S'iobj'
p55
aS'3'
aS'5'
aa(lp56
S'advmod'
p57
aS'8'
aS'6'
aa(lp58
S'amod'
p59
aS'8'
aS'7'
aa(lp60
S'dobj'
p61
aS'3'
aS'8'
aa(lp62
S'num'
p63
aS'8'
aS'9'
aasS'srls'
p64
(lp65
(dp66
S'A1'
p67
S'population non Negative Integer 00'
p68
sS'A0'
p69
S'Populated Place'
p70
sS'V'
S'sharing out'
p71
sasS'pos_seq'
p72
(lp73
S'JJ'
p74
aS'NN'
p75
aS'VBG'
p76
aS'IN'
p77
aS'NN'
p78
aS'RB'
p79
aS'JJ'
p80
aS'NN'
p81
aS'CD'
p82
asS'ner_seq'
p83
(lp84
S'O'
aS'O'
aS'O'
aS'O'
aS'O'
aS'O'
aS'O'
aS'O'
aS'O'
assb.