ccopy_reg
_reconstructor
p1
(c__main__
KBproperty
p2
c__builtin__
object
p3
NtRp4
(dp5
S'comment'
p6
S'A siginificant artifact constructed by the person.1366726'
p7
sS'domain'
p8
S'Person '
p9
sS'instances_count'
p10
I1187
sS'phrases'
p11
NsS'syn_hypo'
p12
S''
sS'label'
p13
S'significant project'
p14
sS'range'
p15
S''
sS'uniq_subjs'
p16
S'1187'
p17
sS'uniq_objs'
p18
I0
sS'prop_uri'
p19
S'http://dbpedia.org/ontology/significantProject'
p20
sS'annotations'
p21
(dp22
S'bag_of_words'
p23
(lp24
S'Person'
p25
aS'significant'
p26
aS'project'
p27
aS'A'
aS'siginificant'
p28
aS'artifact'
p29
aS'constructed'
p30
aS'by'
p31
aS'the'
p32
aS'person.1366726'
p33
asS'chunk_seq'
p34
(lp35
S'O'
aS'B-NP'
p36
aS'E-NP'
p37
aS'B-NP'
p38
aS'I-NP'
p39
aS'E-NP'
p40
aS'S-VP'
p41
aS'S-PP'
p42
aS'B-NP'
p43
aS'E-NP'
p44
asS'dep_seq'
p45
(lp46
(lp47
S'nn'
p48
aS'3'
aS'1'
aa(lp49
S'amod'
p50
aS'3'
aS'2'
aa(lp51
S'root'
p52
aS'0'
aS'3'
aa(lp53
S'det'
p54
aS'6'
aS'4'
aa(lp55
S'amod'
p56
aS'6'
aS'5'
aa(lp57
S'dep'
p58
aS'3'
aS'6'
aa(lp59
S'partmod'
p60
aS'6'
aS'7'
aa(lp61
S'det'
p62
aS'10'
p63
aS'9'
aa(lp64
S'agent'
p65
aS'7'
aS'10'
p66
aasS'srls'
p67
(lp68
(dp69
S'A1'
p70
S'A siginificant artifact'
p71
sS'A0'
p72
S'by the person.1366726'
p73
sS'V'
g30
sasS'pos_seq'
p74
(lp75
S'NN'
p76
aS'JJ'
p77
aS'NN'
p78
aS'DT'
p79
aS'JJ'
p80
aS'NN'
p81
aS'VBN'
p82
aS'IN'
p83
aS'DT'
p84
aS'NN'
p85
asS'ner_seq'
p86
(lp87
S'O'
aS'O'
aS'O'
aS'O'
aS'O'
aS'O'
aS'O'
aS'O'
aS'O'
aS'O'
assb.