ccopy_reg
_reconstructor
p1
(c__main__
KBproperty
p2
c__builtin__
object
p3
NtRp4
(dp5
S'comment'
p6
S'highest point of the island'
p7
sS'domain'
p8
S'Island '
p9
sS'instances_count'
p10
I0
sS'phrases'
p11
NsS'syn_hypo'
p12
S''
sS'label'
p13
g7
sS'range'
p14
S'string '
p15
sS'uniq_subjs'
p16
S'0'
sS'uniq_objs'
p17
I0
sS'prop_uri'
p18
S'http://dbpedia.org/ontology/highestPointIsland'
p19
sS'annotations'
p20
(dp21
S'bag_of_words'
p22
(lp23
S'Island'
p24
aS'highest'
p25
aS'Point'
p26
aS'Island'
p27
aS'string'
p28
aS'highest'
p29
aS'point'
p30
aS'of'
p31
aS'the'
p32
aS'island'
p33
asS'chunk_seq'
p34
(lp35
S'B-NP'
p36
aS'I-NP'
p37
aS'I-NP'
p38
aS'I-NP'
p39
aS'I-NP'
p40
aS'I-NP'
p41
aS'E-NP'
p42
aS'S-PP'
p43
aS'B-NP'
p44
aS'E-NP'
p45
asS'dep_seq'
p46
(lp47
(lp48
S'nn'
p49
aS'7'
aS'1'
aa(lp50
S'amod'
p51
aS'7'
aS'2'
aa(lp52
S'nn'
p53
aS'7'
aS'3'
aa(lp54
S'nn'
p55
aS'7'
aS'4'
aa(lp56
S'nn'
p57
aS'7'
aS'5'
aa(lp58
S'amod'
p59
aS'7'
aS'6'
aa(lp60
S'root'
p61
aS'0'
aS'7'
aa(lp62
S'det'
p63
aS'10'
p64
aS'9'
aa(lp65
S'prep_of'
p66
aS'7'
aS'10'
p67
aasS'srls'
p68
(lp69
sS'pos_seq'
p70
(lp71
S'NNP'
p72
aS'JJS'
p73
aS'NNP'
p74
aS'NNP'
p75
aS'NN'
p76
aS'JJS'
p77
aS'NN'
p78
aS'IN'
p79
aS'DT'
p80
aS'NN'
p81
asS'ner_seq'
p82
(lp83
S'O'
aS'O'
aS'B-LOC'
p84
aS'E-LOC'
p85
aS'O'
aS'O'
aS'O'
aS'O'
aS'O'
aS'O'
assb.