ccopy_reg
_reconstructor
p1
(c__main__
KBproperty
p2
c__builtin__
object
p3
NtRp4
(dp5
S'comment'
p6
S'A map of the place.11457'
p7
sS'domain'
p8
S'Place '
p9
sS'instances_count'
p10
I82
sS'phrases'
p11
NsS'syn_hypo'
p12
Vchartmapchoropleth_mapmapcontour_mapmaprelief_mapmapplatmaproad_mapmapsketch_mapmapweather_mapmapweather_chart
p13
sS'label'
p14
S'map'
p15
sS'range'
p16
S''
sS'uniq_subjs'
p17
S'82'
p18
sS'uniq_objs'
p19
I0
sS'prop_uri'
p20
S'http://dbpedia.org/ontology/map'
p21
sS'annotations'
p22
(dp23
S'bag_of_words'
p24
(lp25
S'Place'
p26
aS'map'
p27
aS'A'
aS'map'
p28
aS'of'
p29
aS'the'
p30
aS'place.11457'
p31
asS'chunk_seq'
p32
(lp33
S'B-NP'
p34
aS'E-NP'
p35
aS'B-NP'
p36
aS'E-NP'
p37
aS'S-PP'
p38
aS'B-NP'
p39
aS'E-NP'
p40
asS'dep_seq'
p41
(lp42
(lp43
S'nn'
p44
aS'2'
aS'1'
aa(lp45
S'root'
p46
aS'0'
aS'2'
aa(lp47
S'det'
p48
aS'4'
aS'3'
aa(lp49
S'dep'
p50
aS'2'
aS'4'
aa(lp51
S'det'
p52
aS'7'
aS'6'
aa(lp53
S'prep_of'
p54
aS'4'
aS'7'
aasS'srls'
p55
(lp56
sS'pos_seq'
p57
(lp58
S'NN'
p59
aS'NN'
p60
aS'DT'
p61
aS'NN'
p62
aS'IN'
p63
aS'DT'
p64
aS'NN'
p65
asS'ner_seq'
p66
(lp67
S'O'
aS'O'
aS'O'
aS'O'
aS'O'
aS'O'
aS'O'
assb.