ccopy_reg
_reconstructor
p1
(c__main__
KBproperty
p2
c__builtin__
object
p3
NtRp4
(dp5
S'comment'
p6
S'area of water m2'
p7
sS'domain'
p8
S'Place '
p9
sS'instances_count'
p10
I0
sS'phrases'
p11
NsS'syn_hypo'
p12
S''
sS'label'
p13
g7
sS'range'
p14
S'double '
p15
sS'uniq_subjs'
p16
S'0'
sS'uniq_objs'
p17
I0
sS'prop_uri'
p18
S'http://dbpedia.org/ontology/waterArea'
p19
sS'annotations'
p20
(dp21
S'bag_of_words'
p22
(lp23
S'Place'
p24
aS'water'
p25
aS'Area'
p26
aS'double'
p27
aS'area'
p28
aS'of'
p29
aS'water'
p30
aS'm2'
p31
asS'chunk_seq'
p32
(lp33
S'B-NP'
p34
aS'I-NP'
p35
aS'I-NP'
p36
aS'I-NP'
p37
aS'E-NP'
p38
aS'S-PP'
p39
aS'S-NP'
p40
aS'S-ADJP'
p41
asS'dep_seq'
p42
(lp43
(lp44
S'nn'
p45
aS'5'
aS'1'
aa(lp46
S'nn'
p47
aS'5'
aS'2'
aa(lp48
S'nn'
p49
aS'5'
aS'3'
aa(lp50
S'amod'
p51
aS'5'
aS'4'
aa(lp52
S'dep'
p53
aS'8'
aS'5'
aa(lp54
S'prep_of'
p55
aS'5'
aS'7'
aa(lp56
S'root'
p57
aS'0'
aS'8'
aasS'srls'
p58
(lp59
sS'pos_seq'
p60
(lp61
S'NN'
p62
aS'NN'
p63
aS'NN'
p64
aS'JJ'
p65
aS'NN'
p66
aS'IN'
p67
aS'NN'
p68
aS'.'
asS'ner_seq'
p69
(lp70
S'O'
aS'O'
aS'O'
aS'O'
aS'O'
aS'O'
aS'O'
aS'O'
assb.