ccopy_reg
_reconstructor
p1
(c__main__
KBproperty
p2
c__builtin__
object
p3
NtRp4
(dp5
S'comment'
p6
S'140140'
p7
sS'domain'
p8
S'Educational Institution '
p9
sS'instances_count'
p10
I107
sS'phrases'
p11
NsS'syn_hypo'
p12
S''
sS'label'
p13
S'number of graduate students'
p14
sS'range'
p15
S'non Negative Integer '
p16
sS'uniq_subjs'
p17
S'107'
p18
sS'uniq_objs'
p19
I0
sS'prop_uri'
p20
S'http://dbpedia.org/ontology/numberOfGraduateStudents'
p21
sS'annotations'
p22
(dp23
S'bag_of_words'
p24
(lp25
S'Educational'
p26
aS'Institution'
p27
aS'number'
p28
aS'of'
p29
aS'graduate'
p30
aS'students'
p31
aS'non'
p32
aS'Negative'
p33
aS'Integer'
p34
aS'140140'
p35
asS'chunk_seq'
p36
(lp37
S'B-NP'
p38
aS'I-NP'
p39
aS'E-NP'
p40
aS'S-PP'
p41
aS'B-NP'
p42
aS'E-NP'
p43
aS'B-NP'
p44
aS'I-NP'
p45
aS'E-NP'
p46
aS'O'
asS'dep_seq'
p47
(lp48
(lp49
S'amod'
p50
aS'3'
aS'1'
aa(lp51
S'nn'
p52
aS'3'
aS'2'
aa(lp53
S'root'
p54
aS'0'
aS'3'
aa(lp55
S'nn'
p56
aS'6'
aS'5'
aa(lp57
S'prep_of'
p58
aS'3'
aS'6'
aa(lp59
S'nn'
p60
aS'9'
aS'8'
aa(lp61
S'poss'
p62
aS'3'
aS'9'
aa(lp63
S'num'
p64
aS'9'
aS'10'
p65
aasS'srls'
p66
(lp67
sS'pos_seq'
p68
(lp69
S'JJ'
p70
aS'NN'
p71
aS'NN'
p72
aS'IN'
p73
aS'NN'
p74
aS'NNS'
p75
aS'POS'
p76
aS'NNP'
p77
aS'NNP'
p78
aS'CD'
p79
asS'ner_seq'
p80
(lp81
S'O'
aS'O'
aS'O'
aS'O'
aS'O'
aS'O'
aS'O'
aS'O'
aS'O'
aS'O'
assb.