ccopy_reg
_reconstructor
p1
(c__main__
KBproperty
p2
c__builtin__
object
p3
NtRp4
(dp5
S'comment'
p6
S'A key word of the project.1111'
p7
sS'domain'
p8
S'Project '
p9
sS'instances_count'
p10
I10
sS'phrases'
p11
NsS'syn_hypo'
p12
S''
sS'label'
p13
S'project keyword'
p14
sS'range'
p15
S'string '
p16
sS'uniq_subjs'
p17
S'10'
p18
sS'uniq_objs'
p19
I0
sS'prop_uri'
p20
S'http://dbpedia.org/ontology/projectKeyword'
p21
sS'annotations'
p22
(dp23
S'bag_of_words'
p24
(lp25
S'Project'
p26
aS'project'
p27
aS'keyword'
p28
aS'string'
p29
aS'A'
aS'key'
p30
aS'word'
p31
aS'of'
p32
aS'the'
p33
aS'project.1111'
p34
asS'chunk_seq'
p35
(lp36
S'B-NP'
p37
aS'I-NP'
p38
aS'I-NP'
p39
aS'E-NP'
p40
aS'B-NP'
p41
aS'I-NP'
p42
aS'E-NP'
p43
aS'S-PP'
p44
aS'B-NP'
p45
aS'E-NP'
p46
asS'dep_seq'
p47
(lp48
(lp49
S'nn'
p50
aS'4'
aS'1'
aa(lp51
S'nn'
p52
aS'4'
aS'2'
aa(lp53
S'nn'
p54
aS'4'
aS'3'
aa(lp55
S'root'
p56
aS'0'
aS'4'
aa(lp57
S'det'
p58
aS'7'
aS'5'
aa(lp59
S'amod'
p60
aS'7'
aS'6'
aa(lp61
S'dep'
p62
aS'4'
aS'7'
aa(lp63
S'det'
p64
aS'10'
p65
aS'9'
aa(lp66
S'prep_of'
p67
aS'7'
aS'10'
p68
aasS'srls'
p69
(lp70
sS'pos_seq'
p71
(lp72
S'NN'
p73
aS'NN'
p74
aS'NN'
p75
aS'NN'
p76
aS'DT'
p77
aS'JJ'
p78
aS'NN'
p79
aS'IN'
p80
aS'DT'
p81
aS'NN'
p82
asS'ner_seq'
p83
(lp84
S'O'
aS'O'
aS'O'
aS'O'
aS'O'
aS'O'
aS'O'
aS'O'
aS'O'
aS'O'
assb.