ccopy_reg
_reconstructor
p1
(c__main__
KBproperty
p2
c__builtin__
object
p3
NtRp4
(dp5
S'comment'
p6
S'00'
p7
sS'domain'
p8
S'Former Municipality '
p9
sS'instances_count'
p10
I0
sS'phrases'
p11
NsS'syn_hypo'
p12
S''
sS'label'
p13
S'absorbed by'
p14
sS'range'
p15
S'Municipality '
p16
sS'uniq_subjs'
p17
S'0'
sS'uniq_objs'
p18
I0
sS'prop_uri'
p19
S'http://dbpedia.org/ontology/municipalityAbsorbedBy'
p20
sS'annotations'
p21
(dp22
S'bag_of_words'
p23
(lp24
S'Former'
p25
aS'Municipality'
p26
aS'absorbed'
p27
aS'by'
p28
aS'Municipality'
p29
aS'00'
p30
asS'chunk_seq'
p31
(lp32
S'B-NP'
p33
aS'E-NP'
p34
aS'S-VP'
p35
aS'S-PP'
p36
aS'B-NP'
p37
aS'E-NP'
p38
asS'dep_seq'
p39
(lp40
(lp41
S'nn'
p42
aS'2'
aS'1'
aa(lp43
S'nsubj'
p44
aS'3'
aS'2'
aa(lp45
S'root'
p46
aS'0'
aS'3'
aa(lp47
S'prep_by'
p48
aS'3'
aS'5'
aa(lp49
S'advmod'
p50
aS'3'
aS'6'
aasS'srls'
p51
(lp52
(dp53
S'A1'
p54
S'Former Municipality'
p55
sS'A0'
p56
S'by Municipality'
p57
sS'AM-TMP'
p58
g30
sS'V'
g27
sasS'pos_seq'
p59
(lp60
S'NNP'
p61
aS'NNP'
p62
aS'VBN'
p63
aS'IN'
p64
aS'NNP'
p65
aS'CD'
p66
asS'ner_seq'
p67
(lp68
S'O'
aS'O'
aS'O'
aS'O'
aS'O'
aS'O'
assb.