ccopy_reg
_reconstructor
p1
(c__main__
KBproperty
p2
c__builtin__
object
p3
NtRp4
(dp5
S'comment'
p6
S'166287825'
p7
sS'domain'
p8
S'Language '
p9
sS'instances_count'
p10
I3075
sS'phrases'
p11
NsS'syn_hypo'
p12
S''
sS'label'
p13
S'spoken in'
p14
sS'range'
p15
S'Populated Place '
p16
sS'uniq_subjs'
p17
S'3075'
p18
sS'uniq_objs'
p19
I0
sS'prop_uri'
p20
S'http://dbpedia.org/ontology/spokenIn'
p21
sS'annotations'
p22
(dp23
S'bag_of_words'
p24
(lp25
S'Language'
p26
aS'spoken'
p27
aS'in'
p28
aS'Populated'
p29
aS'Place'
p30
aS'166287825'
p31
asS'chunk_seq'
p32
(lp33
S'S-NP'
p34
aS'S-VP'
p35
aS'S-PP'
p36
aS'B-NP'
p37
aS'I-NP'
p38
aS'E-NP'
p39
asS'dep_seq'
p40
(lp41
(lp42
S'root'
p43
aS'0'
aS'1'
aa(lp44
S'partmod'
p45
aS'1'
aS'2'
aa(lp46
S'amod'
p47
aS'6'
aS'4'
aa(lp48
S'nn'
p49
aS'6'
aS'5'
aa(lp50
S'prep_in'
p51
aS'2'
aS'6'
aasS'srls'
p52
(lp53
(dp54
S'A0'
p55
g26
sS'AM-LOC'
p56
S'in Populated Place 166287825'
p57
sS'V'
g27
sasS'pos_seq'
p58
(lp59
S'NN'
p60
aS'VBN'
p61
aS'IN'
p62
aS'JJ'
p63
aS'NN'
p64
aS'NN'
p65
asS'ner_seq'
p66
(lp67
S'O'
aS'O'
aS'O'
aS'O'
aS'O'
aS'O'
assb.