ccopy_reg
_reconstructor
p1
(c__main__
KBproperty
p2
c__builtin__
object
p3
NtRp4
(dp5
S'comment'
p6
S'Census year of the imapct factor.35683564'
p7
sS'domain'
p8
S'Academic Journal '
p9
sS'instances_count'
p10
I15
sS'phrases'
p11
NsS'syn_hypo'
p12
S''
sS'label'
p13
S'impact factor as of'
p14
sS'range'
p15
S'g Year '
p16
sS'uniq_subjs'
p17
S'15'
p18
sS'uniq_objs'
p19
I0
sS'prop_uri'
p20
S'http://dbpedia.org/ontology/impactFactorAsOf'
p21
sS'annotations'
p22
(dp23
S'bag_of_words'
p24
(lp25
S'Academic'
p26
aS'Journal'
p27
aS'impact'
p28
aS'factor'
p29
aS'as'
p30
aS'of'
p31
aS'g'
aS'Year'
p32
aS'Census'
p33
aS'year'
p34
aS'of'
p35
aS'the'
p36
aS'imapct'
p37
aS'factor.35683564'
p38
asS'chunk_seq'
p39
(lp40
S'B-NP'
p41
aS'I-NP'
p42
aS'I-NP'
p43
aS'E-NP'
p44
aS'S-PP'
p45
aS'S-PP'
p46
aS'B-NP'
p47
aS'I-NP'
p48
aS'I-NP'
p49
aS'E-NP'
p50
aS'S-PP'
p51
aS'B-NP'
p52
aS'I-NP'
p53
aS'E-NP'
p54
asS'dep_seq'
p55
(lp56
(lp57
S'nn'
p58
aS'4'
aS'1'
aa(lp59
S'nn'
p60
aS'4'
aS'2'
aa(lp61
S'nn'
p62
aS'4'
aS'3'
aa(lp63
S'root'
p64
aS'0'
aS'4'
aa(lp65
S'num'
p66
aS'10'
p67
aS'7'
aa(lp68
S'nn'
p69
aS'10'
p70
aS'8'
aa(lp71
S'nn'
p72
aS'10'
p73
aS'9'
aa(lp74
S'prep_as_of'
p75
aS'4'
aS'10'
p76
aa(lp77
S'det'
p78
aS'14'
p79
aS'12'
p80
aa(lp81
S'nn'
p82
aS'14'
p83
aS'13'
p84
aa(lp85
S'prep_of'
p86
aS'4'
aS'14'
p87
aasS'srls'
p88
(lp89
sS'pos_seq'
p90
(lp91
S'NNP'
p92
aS'NNP'
p93
aS'NN'
p94
aS'NN'
p95
aS'IN'
p96
aS'IN'
p97
aS'CD'
p98
aS'NNP'
p99
aS'NNP'
p100
aS'NN'
p101
aS'IN'
p102
aS'DT'
p103
aS'NN'
p104
aS'NN'
p105
asS'ner_seq'
p106
(lp107
S'B-ORG'
p108
aS'E-ORG'
p109
aS'O'
aS'O'
aS'O'
aS'O'
aS'O'
aS'O'
aS'O'
aS'O'
aS'O'
aS'O'
aS'O'
aS'O'
assb.