ccopy_reg
_reconstructor
p1
(c__main__
KBproperty
p2
c__builtin__
object
p3
NtRp4
(dp5
S'comment'
p6
S'Digital Library code NL'
p7
sS'domain'
p8
S'Writer '
p9
sS'instances_count'
p10
I0
sS'phrases'
p11
NsS'syn_hypo'
p12
S''
sS'label'
p13
g7
sS'range'
p14
S'string '
p15
sS'uniq_subjs'
p16
S'0'
sS'uniq_objs'
p17
I0
sS'prop_uri'
p18
S'http://dbpedia.org/ontology/dbnlCodeDutch'
p19
sS'annotations'
p20
(dp21
S'bag_of_words'
p22
(lp23
S'Writer'
p24
aS'dbnl'
p25
aS'Code'
p26
aS'Dutch'
p27
aS'string'
p28
aS'Digital'
p29
aS'Library'
p30
aS'code'
p31
aS'NL'
p32
asS'chunk_seq'
p33
(lp34
S'B-NP'
p35
aS'I-NP'
p36
aS'I-NP'
p37
aS'I-NP'
p38
aS'I-NP'
p39
aS'I-NP'
p40
aS'I-NP'
p41
aS'I-NP'
p42
aS'E-NP'
p43
asS'dep_seq'
p44
(lp45
(lp46
S'nn'
p47
aS'9'
aS'1'
aa(lp48
S'amod'
p49
aS'9'
aS'2'
aa(lp50
S'nn'
p51
aS'9'
aS'3'
aa(lp52
S'amod'
p53
aS'9'
aS'4'
aa(lp54
S'nn'
p55
aS'9'
aS'5'
aa(lp56
S'nn'
p57
aS'9'
aS'6'
aa(lp58
S'nn'
p59
aS'9'
aS'7'
aa(lp60
S'nn'
p61
aS'9'
aS'8'
aa(lp62
S'root'
p63
aS'0'
aS'9'
aasS'srls'
p64
(lp65
sS'pos_seq'
p66
(lp67
S'NN'
p68
aS'JJ'
p69
aS'NN'
p70
aS'JJ'
p71
aS'NN'
p72
aS'NNP'
p73
aS'NNP'
p74
aS'NN'
p75
aS'NNP'
p76
asS'ner_seq'
p77
(lp78
S'O'
aS'O'
aS'O'
aS'S-MISC'
p79
aS'O'
aS'B-ORG'
p80
aS'E-ORG'
p81
aS'O'
aS'S-ORG'
p82
assb.