ccopy_reg
_reconstructor
p1
(c__main__
KBproperty
p2
c__builtin__
object
p3
NtRp4
(dp5
S'comment'
p6
S'Temporary Placement in the Music Charts'
p7
sS'domain'
p8
S'Charts Placements '
p9
sS'instances_count'
p10
I0
sS'phrases'
p11
NsS'syn_hypo'
p12
S''
sS'label'
p13
g7
sS'range'
p14
S'string '
p15
sS'uniq_subjs'
p16
S'0'
sS'uniq_objs'
p17
I0
sS'prop_uri'
p18
S'http://dbpedia.org/ontology/tempPlace'
p19
sS'annotations'
p20
(dp21
S'bag_of_words'
p22
(lp23
S'Charts'
p24
aS'Placements'
p25
aS'temp'
p26
aS'Place'
p27
aS'string'
p28
aS'Temporary'
p29
aS'Placement'
p30
aS'in'
p31
aS'the'
p32
aS'Music'
p33
aS'Charts'
p34
asS'chunk_seq'
p35
(lp36
S'B-NP'
p37
aS'I-NP'
p38
aS'I-NP'
p39
aS'I-NP'
p40
aS'I-NP'
p41
aS'I-NP'
p42
aS'E-NP'
p43
aS'S-PP'
p44
aS'B-NP'
p45
aS'I-NP'
p46
aS'E-NP'
p47
asS'dep_seq'
p48
(lp49
(lp50
S'nn'
p51
aS'7'
aS'1'
aa(lp52
S'nn'
p53
aS'7'
aS'2'
aa(lp54
S'nn'
p55
aS'7'
aS'3'
aa(lp56
S'nn'
p57
aS'7'
aS'4'
aa(lp58
S'nn'
p59
aS'7'
aS'5'
aa(lp60
S'amod'
p61
aS'7'
aS'6'
aa(lp62
S'root'
p63
aS'0'
aS'7'
aa(lp64
S'det'
p65
aS'11'
p66
aS'9'
aa(lp67
S'nn'
p68
aS'11'
p69
aS'10'
p70
aa(lp71
S'prep_in'
p72
aS'7'
aS'11'
p73
aasS'srls'
p74
(lp75
sS'pos_seq'
p76
(lp77
S'NNPS'
p78
aS'NNPS'
p79
aS'NN'
p80
aS'NNP'
p81
aS'NN'
p82
aS'JJ'
p83
aS'NN'
p84
aS'IN'
p85
aS'DT'
p86
aS'NNP'
p87
aS'NNPS'
p88
asS'ner_seq'
p89
(lp90
S'O'
aS'O'
aS'O'
aS'O'
aS'O'
aS'O'
aS'O'
aS'O'
aS'O'
aS'B-MISC'
p91
aS'E-MISC'
p92
assb.