ccopy_reg
_reconstructor
p1
(c__main__
KBproperty
p2
c__builtin__
object
p3
NtRp4
(dp5
S'comment'
p6
S'source elevation \\xce\\xbc'
p7
sS'domain'
p8
S''
sS'instances_count'
p9
I2561
sS'phrases'
p10
NsS'syn_hypo'
p11
S''
sS'label'
p12
g7
sS'range'
p13
S'double '
p14
sS'uniq_subjs'
p15
S'2561'
p16
sS'uniq_objs'
p17
I0
sS'prop_uri'
p18
S'http://dbpedia.org/ontology/sourceElevation'
p19
sS'annotations'
p20
(dp21
S'bag_of_words'
p22
(lp23
S'source'
p24
aS'Elevation'
p25
aS'double'
p26
aS'source'
p27
aS'elevation'
p28
aS'\\'
aS'xce'
p29
aS'\\'
aS'xbc'
p30
asS'chunk_seq'
p31
(lp32
S'B-NP'
p33
aS'I-NP'
p34
aS'I-NP'
p35
aS'E-NP'
p36
aS'S-NP'
p37
aS'O'
aS'O'
aS'O'
aS'O'
asS'dep_seq'
p38
(lp39
(lp40
S'root'
p41
aS'0'
aS'1'
aa(lp42
S'dep'
p43
aS'1'
aS'2'
aa(lp44
S'dep'
p45
aS'1'
aS'3'
aa(lp46
S'dep'
p47
aS'1'
aS'4'
aa(lp48
S'dep'
p49
aS'1'
aS'5'
aa(lp50
S'dep'
p51
aS'1'
aS'6'
aa(lp52
S'dep'
p53
aS'1'
aS'7'
aa(lp54
S'dep'
p55
aS'1'
aS'8'
aa(lp56
S'dep'
p57
aS'1'
aS'9'
aasS'srls'
p58
(lp59
sS'pos_seq'
p60
(lp61
S'NN'
p62
aS'NN'
p63
aS'JJ'
p64
aS'NN'
p65
aS'NN'
p66
aS'FW'
p67
aS'FW'
p68
aS'FW'
p69
aS'FW'
p70
asS'ner_seq'
p71
(lp72
S'O'
aS'O'
aS'O'
aS'O'
aS'O'
aS'O'
aS'O'
aS'O'
aS'O'
assb.