ccopy_reg
_reconstructor
p1
(c__main__
KBproperty
p2
c__builtin__
object
p3
NtRp4
(dp5
S'comment'
p6
S'distance to Cardiff \\xce\\xbc'
p7
sS'domain'
p8
S'Settlement '
p9
sS'instances_count'
p10
I476
sS'phrases'
p11
NsS'syn_hypo'
p12
S''
sS'label'
p13
g7
sS'range'
p14
S'double '
p15
sS'uniq_subjs'
p16
S'476'
p17
sS'uniq_objs'
p18
I0
sS'prop_uri'
p19
S'http://dbpedia.org/ontology/distanceToCardiff'
p20
sS'annotations'
p21
(dp22
S'bag_of_words'
p23
(lp24
S'Settlement'
p25
aS'distance'
p26
aS'To'
p27
aS'Cardiff'
p28
aS'double'
p29
aS'distance'
p30
aS'to'
p31
aS'Cardiff'
p32
aS'\\'
aS'xce'
p33
aS'\\'
aS'xbc'
p34
asS'chunk_seq'
p35
(lp36
S'B-NP'
p37
aS'E-NP'
p38
aS'S-PP'
p39
aS'B-NP'
p40
aS'I-NP'
p41
aS'E-NP'
p42
aS'S-PP'
p43
aS'S-NP'
p44
aS'O'
aS'O'
aS'O'
aS'O'
asS'dep_seq'
p45
(lp46
(lp47
S'nn'
p48
aS'2'
aS'1'
aa(lp49
S'root'
p50
aS'0'
aS'2'
aa(lp51
S'nn'
p52
aS'6'
aS'4'
aa(lp53
S'amod'
p54
aS'6'
aS'5'
aa(lp55
S'prep_to'
p56
aS'2'
aS'6'
aa(lp57
S'prep_to'
p58
aS'2'
aS'8'
aa(lp59
S'nn'
p60
aS'12'
p61
aS'9'
aa(lp62
S'nn'
p63
aS'12'
p64
aS'10'
p65
aa(lp66
S'nn'
p67
aS'12'
p68
aS'11'
p69
aa(lp70
S'dep'
p71
aS'2'
aS'12'
p72
aasS'srls'
p73
(lp74
sS'pos_seq'
p75
(lp76
S'NN'
p77
aS'NN'
p78
aS'TO'
p79
aS'NNP'
p80
aS'JJ'
p81
aS'NN'
p82
aS'TO'
p83
aS'NNP'
p84
aS'FW'
p85
aS'FW'
p86
aS'FW'
p87
aS'FW'
p88
asS'ner_seq'
p89
(lp90
S'O'
aS'O'
aS'O'
aS'S-LOC'
p91
aS'O'
aS'O'
aS'O'
aS'S-ORG'
p92
aS'O'
aS'O'
aS'O'
aS'O'
assb.