ccopy_reg
_reconstructor
p1
(c__main__
KBproperty
p2
c__builtin__
object
p3
NtRp4
(dp5
S'comment'
p6
S'00'
p7
sS'domain'
p8
S'Christian Doctrine '
p9
sS'instances_count'
p10
I0
sS'phrases'
p11
NsS'syn_hypo'
p12
Vcollectivizationconstitutionestablishmentformationorganizationorganisationcollectivisationconstitutionestablishmentformationorganizationorganisationcolonizationconstitutionestablishmentformationorganizationorganisationcolonisationconstitutionestablishmentformationorganizationorganisationsettlementconstitutionestablishmentformationorganizationorganisationcommunizationconstitutionestablishmentformationorganizationorganisationcommunisationconstitutionestablishmentformationorganizationorganisationfederationconstitutionestablishmentformationorganizationorganisationunionizationconstitutionestablishmentformationorganizationorganisationunionisation
p13
sS'label'
p14
S'Establishment'
p15
sS'range'
p16
S'integer '
p17
sS'uniq_subjs'
p18
S'0'
sS'uniq_objs'
p19
I0
sS'prop_uri'
p20
S'http://dbpedia.org/ontology/establishment'
p21
sS'annotations'
p22
(dp23
S'bag_of_words'
p24
(lp25
S'Christian'
p26
aS'Doctrine'
p27
aS'Establishment'
p28
aS'integer'
p29
aS'00'
p30
asS'chunk_seq'
p31
(lp32
S'B-NP'
p33
aS'I-NP'
p34
aS'I-NP'
p35
aS'E-NP'
p36
aS'O'
asS'dep_seq'
p37
(lp38
(lp39
S'nn'
p40
aS'3'
aS'1'
aa(lp41
S'nn'
p42
aS'3'
aS'2'
aa(lp43
S'nsubj'
p44
aS'4'
aS'3'
aa(lp45
S'root'
p46
aS'0'
aS'4'
aa(lp47
S'advmod'
p48
aS'4'
aS'5'
aasS'srls'
p49
(lp50
sS'pos_seq'
p51
(lp52
S'NNP'
p53
aS'NNP'
p54
aS'NNP'
p55
aS'NN'
p56
aS'CD'
p57
asS'ner_seq'
p58
(lp59
S'O'
aS'O'
aS'O'
aS'O'
aS'O'
assb.