ccopy_reg
_reconstructor
p1
(c__main__
KBproperty
p2
c__builtin__
object
p3
NtRp4
(dp5
S'comment'
p6
S'00'
p7
sS'domain'
p8
S'Soccer League Season '
p9
sS'instances_count'
p10
I0
sS'phrases'
p11
NsS'syn_hypo'
p12
Vbaseball_seasonseasonbasketball_seasonseasonexhibition_seasonseasonfishing_seasonseasonfootball_seasonseasongrowing_seasonseasonhigh_seasonseasonpeak_seasonseasonhockey_seasonseasonholiday_seasonseasonhunting_seasonseasonoff-seasonseasonpreseasonseasonseedtimeseasonsheepshearingseasonsocial_seasonseasontheatrical_seasonseasonWhitsunseasonWhitsuntideseasonWhitweek
p13
sS'label'
p14
S'season'
p15
sS'range'
p16
S'Soccer League Season '
p17
sS'uniq_subjs'
p18
S'0'
sS'uniq_objs'
p19
I0
sS'prop_uri'
p20
S'http://dbpedia.org/ontology/soccerLeagueSeason'
p21
sS'annotations'
p22
(dp23
S'bag_of_words'
p24
(lp25
S'Soccer'
p26
aS'League'
p27
aS'Season'
p28
aS'season'
p29
aS'Soccer'
p30
aS'League'
p31
aS'Season'
p32
aS'00'
p33
asS'chunk_seq'
p34
(lp35
S'B-NP'
p36
aS'I-NP'
p37
aS'I-NP'
p38
aS'I-NP'
p39
aS'I-NP'
p40
aS'I-NP'
p41
aS'E-NP'
p42
aS'O'
asS'dep_seq'
p43
(lp44
(lp45
S'nn'
p46
aS'4'
aS'1'
aa(lp47
S'nn'
p48
aS'4'
aS'2'
aa(lp49
S'nn'
p50
aS'4'
aS'3'
aa(lp51
S'dep'
p52
aS'7'
aS'4'
aa(lp53
S'nn'
p54
aS'7'
aS'5'
aa(lp55
S'nn'
p56
aS'7'
aS'6'
aa(lp57
S'root'
p58
aS'0'
aS'7'
aa(lp59
S'num'
p60
aS'7'
aS'8'
aasS'srls'
p61
(lp62
sS'pos_seq'
p63
(lp64
S'NNP'
p65
aS'NNP'
p66
aS'NNP'
p67
aS'NN'
p68
aS'NNP'
p69
aS'NNP'
p70
aS'NNP'
p71
aS'CD'
p72
asS'ner_seq'
p73
(lp74
S'O'
aS'B-MISC'
p75
aS'E-MISC'
p76
aS'O'
aS'O'
aS'O'
aS'O'
aS'O'
assb.