ccopy_reg
_reconstructor
p1
(c__main__
KBproperty
p2
c__builtin__
object
p3
NtRp4
(dp5
S'comment'
p6
S'00'
p7
sS'domain'
p8
S'Space Mission '
p9
sS'instances_count'
p10
I0
sS'phrases'
p11
NsS'syn_hypo'
p12
S''
sS'label'
p13
S'station visit duration s'
p14
sS'range'
p15
S'double '
p16
sS'uniq_subjs'
p17
S'0'
sS'uniq_objs'
p18
I0
sS'prop_uri'
p19
S'http://dbpedia.org/ontology/stationVisitDuration'
p20
sS'annotations'
p21
(dp22
S'bag_of_words'
p23
(lp24
S'Space'
p25
aS'Mission'
p26
aS'station'
p27
aS'visit'
p28
aS'duration'
p29
aS's'
aS'double'
p30
aS'00'
p31
asS'chunk_seq'
p32
(lp33
S'B-NP'
p34
aS'I-NP'
p35
aS'I-NP'
p36
aS'I-NP'
p37
aS'E-NP'
p38
aS'B-NP'
p39
aS'E-NP'
p40
aS'O'
asS'dep_seq'
p41
(lp42
(lp43
S'nn'
p44
aS'5'
aS'1'
aa(lp45
S'nn'
p46
aS'5'
aS'2'
aa(lp47
S'nn'
p48
aS'5'
aS'3'
aa(lp49
S'nn'
p50
aS'5'
aS'4'
aa(lp51
S'dep'
p52
aS'8'
aS'5'
aa(lp53
S'advmod'
p54
aS'8'
aS'6'
aa(lp55
S'advmod'
p56
aS'8'
aS'7'
aa(lp57
S'root'
p58
aS'0'
aS'8'
aasS'srls'
p59
(lp60
sS'pos_seq'
p61
(lp62
S'NNP'
p63
aS'NNP'
p64
aS'NN'
p65
aS'NN'
p66
aS'NN'
p67
aS'RB'
p68
aS'RB'
p69
aS'CD'
p70
asS'ner_seq'
p71
(lp72
S'B-ORG'
p73
aS'E-ORG'
p74
aS'O'
aS'O'
aS'O'
aS'O'
aS'O'
aS'O'
assb.