ccopy_reg
_reconstructor
p1
(c__main__
KBproperty
p2
c__builtin__
object
p3
NtRp4
(dp5
S'comment'
p6
S'length of runway \\xce\\xbc'
p7
sS'domain'
p8
S'Airport '
p9
sS'instances_count'
p10
I6810
sS'phrases'
p11
NsS'syn_hypo'
p12
S''
sS'label'
p13
g7
sS'range'
p14
S'double '
p15
sS'uniq_subjs'
p16
S'6810'
p17
sS'uniq_objs'
p18
I0
sS'prop_uri'
p19
S'http://dbpedia.org/ontology/runwayLength'
p20
sS'annotations'
p21
(dp22
S'bag_of_words'
p23
(lp24
S'Airport'
p25
aS'runway'
p26
aS'Length'
p27
aS'double'
p28
aS'length'
p29
aS'of'
p30
aS'runway'
p31
aS'\\'
aS'xce'
p32
aS'\\'
aS'xbc'
p33
asS'chunk_seq'
p34
(lp35
S'B-NP'
p36
aS'I-NP'
p37
aS'I-NP'
p38
aS'I-NP'
p39
aS'E-NP'
p40
aS'S-PP'
p41
aS'S-NP'
p42
aS'O'
aS'O'
aS'O'
aS'O'
asS'dep_seq'
p43
(lp44
(lp45
S'nn'
p46
aS'3'
aS'1'
aa(lp47
S'nn'
p48
aS'3'
aS'2'
aa(lp49
S'dep'
p50
aS'5'
aS'3'
aa(lp51
S'amod'
p52
aS'5'
aS'4'
aa(lp53
S'root'
p54
aS'0'
aS'5'
aa(lp55
S'prep_of'
p56
aS'5'
aS'7'
aa(lp57
S'dep'
p58
aS'5'
aS'8'
aa(lp59
S'discourse'
p60
aS'8'
aS'9'
aa(lp61
S'dep'
p62
aS'9'
aS'10'
p63
aa(lp64
S'dep'
p65
aS'9'
aS'11'
p66
aasS'srls'
p67
(lp68
sS'pos_seq'
p69
(lp70
S'NN'
p71
aS'NN'
p72
aS'NN'
p73
aS'JJ'
p74
aS'NN'
p75
aS'IN'
p76
aS'NN'
p77
aS'FW'
p78
aS'FW'
p79
aS'FW'
p80
aS'FW'
p81
asS'ner_seq'
p82
(lp83
S'O'
aS'O'
aS'O'
aS'O'
aS'O'
aS'O'
aS'O'
aS'O'
aS'O'
aS'O'
aS'O'
assb.