ccopy_reg
_reconstructor
p1
(c__main__
KBproperty
p2
c__builtin__
object
p3
NtRp4
(dp5
S'comment'
p6
S'Date when an Organization eg PoliticalParty Company or Species ceased to exist19701952'
p7
sS'domain'
p8
S''
sS'instances_count'
p9
I1970
sS'phrases'
p10
NsS'syn_hypo'
p11
S''
sS'label'
p12
S'extinction date'
p13
sS'range'
p14
S'date '
p15
sS'uniq_subjs'
p16
S'1477'
p17
sS'uniq_objs'
p18
I0
sS'prop_uri'
p19
S'http://dbpedia.org/ontology/extinctionDate'
p20
sS'annotations'
p21
(dp22
S'bag_of_words'
p23
(lp24
S'extinction'
p25
aS'date'
p26
aS'date'
p27
aS'Date'
p28
aS'when'
p29
aS'an'
p30
aS'Organization'
p31
aS'eg'
p32
aS'PoliticalParty'
p33
aS'Company'
p34
aS'or'
p35
aS'Species'
p36
aS'ceased'
p37
aS'to'
p38
aS'exist19701952'
p39
asS'chunk_seq'
p40
(lp41
S'B-NP'
p42
aS'E-NP'
p43
aS'B-NP'
p44
aS'E-NP'
p45
aS'S-ADVP'
p46
aS'B-NP'
p47
aS'I-NP'
p48
aS'I-NP'
p49
aS'I-NP'
p50
aS'I-NP'
p51
aS'I-NP'
p52
aS'E-NP'
p53
aS'B-VP'
p54
aS'I-VP'
p55
aS'E-VP'
p56
asS'dep_seq'
p57
(lp58
(lp59
S'nn'
p60
aS'4'
aS'1'
aa(lp61
S'nn'
p62
aS'4'
aS'2'
aa(lp63
S'nn'
p64
aS'4'
aS'3'
aa(lp65
S'root'
p66
aS'0'
aS'4'
aa(lp67
S'advmod'
p68
aS'10'
p69
aS'5'
aa(lp70
S'det'
p71
aS'10'
p72
aS'6'
aa(lp73
S'nn'
p74
aS'10'
p75
aS'7'
aa(lp76
S'nn'
p77
aS'10'
p78
aS'8'
aa(lp79
S'nn'
p80
aS'10'
p81
aS'9'
aa(lp82
S'rcmod'
p83
aS'4'
aS'10'
p84
aa(lp85
S'nsubj'
p86
aS'13'
p87
aS'12'
p88
aa(lp89
S'xsubj'
p90
aS'15'
p91
aS'12'
p92
aa(lp93
S'conj_or'
p94
aS'10'
p95
aS'13'
p96
aa(lp97
S'aux'
p98
aS'15'
p99
aS'14'
p100
aa(lp101
S'xcomp'
p102
aS'13'
p103
aS'15'
p104
aasS'srls'
p105
(lp106
(dp107
S'A1'
p108
S'to exist19701952'
p109
sS'A0'
p110
S'an Organization eg PoliticalParty Company or Species'
p111
sS'V'
g37
sasS'pos_seq'
p112
(lp113
S'NN'
p114
aS'NN'
p115
aS'NN'
p116
aS'NN'
p117
aS'WRB'
p118
aS'DT'
p119
aS'NNP'
p120
aS'NNP'
p121
aS'NNP'
p122
aS'NNP'
p123
aS'CC'
p124
aS'NNP'
p125
aS'VBD'
p126
aS'TO'
p127
aS'VB'
p128
asS'ner_seq'
p129
(lp130
S'O'
aS'O'
aS'O'
aS'O'
aS'O'
aS'O'
aS'O'
aS'O'
aS'B-ORG'
p131
aS'E-ORG'
p132
aS'O'
aS'O'
aS'O'
aS'O'
aS'O'
assb.