ccopy_reg
_reconstructor
p1
(c__main__
KBproperty
p2
c__builtin__
object
p3
NtRp4
(dp5
S'comment'
p6
S'cyclist genre 00'
p7
sS'domain'
p8
S'Athlete '
p9
sS'instances_count'
p10
I0
sS'phrases'
p11
NsS'syn_hypo'
p12
S''
sS'label'
p13
S''
sS'range'
p14
S'Career Station '
p15
sS'uniq_subjs'
p16
S'0'
sS'uniq_objs'
p17
I0
sS'prop_uri'
p18
S'http://dbpedia.org/ontology/cyclistGenre'
p19
sS'annotations'
p20
(dp21
S'bag_of_words'
p22
(lp23
S'Athlete'
p24
aS'Career'
p25
aS'Station'
p26
aS'cyclist'
p27
aS'genre'
p28
aS'00'
p29
asS'chunk_seq'
p30
(lp31
S'B-NP'
p32
aS'I-NP'
p33
aS'I-NP'
p34
aS'I-NP'
p35
aS'E-NP'
p36
aS'O'
asS'dep_seq'
p37
(lp38
(lp39
S'nn'
p40
aS'5'
aS'1'
aa(lp41
S'nn'
p42
aS'5'
aS'2'
aa(lp43
S'nn'
p44
aS'5'
aS'3'
aa(lp45
S'nn'
p46
aS'5'
aS'4'
aa(lp47
S'root'
p48
aS'0'
aS'5'
aa(lp49
S'num'
p50
aS'5'
aS'6'
aasS'srls'
p51
(lp52
sS'pos_seq'
p53
(lp54
S'NNP'
p55
aS'NNP'
p56
aS'NNP'
p57
aS'NN'
p58
aS'NN'
p59
aS'CD'
p60
asS'ner_seq'
p61
(lp62
S'O'
aS'O'
aS'O'
aS'O'
aS'O'
aS'O'
assb.