ccopy_reg
_reconstructor
p1
(c__main__
KBproperty
p2
c__builtin__
object
p3
NtRp4
(dp5
S'comment'
p6
S'00'
p7
sS'domain'
p8
S'Person '
p9
sS'instances_count'
p10
I0
sS'phrases'
p11
NsS'syn_hypo'
p12
S''
sS'label'
p13
S'pole position'
p14
sS'range'
p15
S'non Negative Integer '
p16
sS'uniq_subjs'
p17
S'0'
sS'uniq_objs'
p18
I0
sS'prop_uri'
p19
S'http://dbpedia.org/ontology/polePosition'
p20
sS'annotations'
p21
(dp22
S'bag_of_words'
p23
(lp24
S'Person'
p25
aS'pole'
p26
aS'position'
p27
aS'non'
p28
aS'Negative'
p29
aS'Integer'
p30
aS'00'
p31
asS'chunk_seq'
p32
(lp33
S'O'
aS'B-NP'
p34
aS'E-NP'
p35
aS'B-NP'
p36
aS'I-NP'
p37
aS'E-NP'
p38
aS'O'
asS'dep_seq'
p39
(lp40
(lp41
S'nn'
p42
aS'2'
aS'1'
aa(lp43
S'nsubj'
p44
aS'3'
aS'2'
aa(lp45
S'root'
p46
aS'0'
aS'3'
aa(lp47
S'amod'
p48
aS'6'
aS'4'
aa(lp49
S'nn'
p50
aS'6'
aS'5'
aa(lp51
S'dobj'
p52
aS'3'
aS'6'
aa(lp53
S'num'
p54
aS'6'
aS'7'
aasS'srls'
p55
(lp56
sS'pos_seq'
p57
(lp58
S'NN'
p59
aS'NN'
p60
aS'NN'
p61
aS'JJ'
p62
aS'NNP'
p63
aS'NNP'
p64
aS'CD'
p65
asS'ner_seq'
p66
(lp67
S'O'
aS'O'
aS'O'
aS'O'
aS'O'
aS'O'
aS'O'
assb.