ccopy_reg
_reconstructor
p1
(c__main__
KBproperty
p2
c__builtin__
object
p3
NtRp4
(dp5
S'comment'
p6
S'00'
p7
sS'domain'
p8
S''
sS'instances_count'
p9
I0
sS'phrases'
p10
NsS'syn_hypo'
p11
S''
sS'label'
p12
S'agglomeration population total'
p13
sS'range'
p14
S'non Negative Integer '
p15
sS'uniq_subjs'
p16
S'0'
sS'uniq_objs'
p17
I0
sS'prop_uri'
p18
S'http://dbpedia.org/ontology/agglomerationPopulationTotal'
p19
sS'annotations'
p20
(dp21
S'bag_of_words'
p22
(lp23
S'agglomeration'
p24
aS'population'
p25
aS'total'
p26
aS'non'
p27
aS'Negative'
p28
aS'Integer'
p29
aS'00'
p30
asS'chunk_seq'
p31
(lp32
S'B-NP'
p33
aS'I-NP'
p34
aS'I-NP'
p35
aS'I-NP'
p36
aS'I-NP'
p37
aS'E-NP'
p38
aS'O'
asS'dep_seq'
p39
(lp40
(lp41
S'nn'
p42
aS'2'
aS'1'
aa(lp43
S'root'
p44
aS'0'
aS'2'
aa(lp45
S'amod'
p46
aS'6'
aS'3'
aa(lp47
S'amod'
p48
aS'6'
aS'4'
aa(lp49
S'amod'
p50
aS'6'
aS'5'
aa(lp51
S'dep'
p52
aS'2'
aS'6'
aa(lp53
S'num'
p54
aS'6'
aS'7'
aasS'srls'
p55
(lp56
sS'pos_seq'
p57
(lp58
S'NN'
p59
aS'NN'
p60
aS'JJ'
p61
aS'JJ'
p62
aS'JJ'
p63
aS'NN'
p64
aS'CD'
p65
asS'ner_seq'
p66
(lp67
S'O'
aS'O'
aS'O'
aS'O'
aS'O'
aS'O'
aS'O'
assb.