ccopy_reg
_reconstructor
p1
(c__main__
KBproperty
p2
c__builtin__
object
p3
NtRp4
(dp5
S'comment'
p6
S'1005970'
p7
sS'domain'
p8
S'River '
p9
sS'instances_count'
p10
I570
sS'phrases'
p11
NsS'syn_hypo'
p12
S''
sS'label'
p13
S'mouth region'
p14
sS'range'
p15
S'Populated Place '
p16
sS'uniq_subjs'
p17
S'570'
p18
sS'uniq_objs'
p19
I0
sS'prop_uri'
p20
S'http://dbpedia.org/ontology/mouthRegion'
p21
sS'annotations'
p22
(dp23
S'bag_of_words'
p24
(lp25
S'River'
p26
aS'mouth'
p27
aS'region'
p28
aS'Populated'
p29
aS'Place'
p30
aS'1005970'
p31
asS'chunk_seq'
p32
(lp33
S'B-NP'
p34
aS'I-NP'
p35
aS'I-NP'
p36
aS'I-NP'
p37
aS'E-NP'
p38
aS'O'
asS'dep_seq'
p39
(lp40
(lp41
S'nn'
p42
aS'5'
aS'1'
aa(lp43
S'nn'
p44
aS'5'
aS'2'
aa(lp45
S'nn'
p46
aS'5'
aS'3'
aa(lp47
S'amod'
p48
aS'5'
aS'4'
aa(lp49
S'root'
p50
aS'0'
aS'5'
aa(lp51
S'num'
p52
aS'5'
aS'6'
aasS'srls'
p53
(lp54
(dp55
S'A1'
p56
S'River mouth region'
p57
sS'A2'
p58
S'Place 1005970'
p59
sS'V'
g29
sasS'pos_seq'
p60
(lp61
S'NN'
p62
aS'NN'
p63
aS'NN'
p64
aS'VBN'
p65
aS'NN'
p66
aS'CD'
p67
asS'ner_seq'
p68
(lp69
S'S-LOC'
p70
aS'O'
aS'O'
aS'O'
aS'O'
aS'O'
assb.