ccopy_reg
_reconstructor
p1
(c__main__
KBproperty
p2
c__builtin__
object
p3
NtRp4
(dp5
S'comment'
p6
S'The county where the thing is located.90618609'
p7
sS'domain'
p8
S''
sS'instances_count'
p9
I1274
sS'phrases'
p10
NsS'syn_hypo'
p11
VWightcountyIsle_of_Wight
p12
sS'label'
p13
S'county'
p14
sS'range'
p15
S'Populated Place '
p16
sS'uniq_subjs'
p17
S'1274'
p18
sS'uniq_objs'
p19
I0
sS'prop_uri'
p20
S'http://dbpedia.org/ontology/county'
p21
sS'annotations'
p22
(dp23
S'bag_of_words'
p24
(lp25
S'county'
p26
aS'Populated'
p27
aS'Place'
p28
aS'The'
p29
aS'county'
p30
aS'where'
p31
aS'the'
p32
aS'thing'
p33
aS'is'
p34
aS'located.90618609'
p35
asS'chunk_seq'
p36
(lp37
S'B-NP'
p38
aS'I-NP'
p39
aS'E-NP'
p40
aS'B-NP'
p41
aS'E-NP'
p42
aS'S-ADVP'
p43
aS'B-NP'
p44
aS'E-NP'
p45
aS'S-VP'
p46
aS'S-ADJP'
p47
asS'dep_seq'
p48
(lp49
(lp50
S'nn'
p51
aS'3'
aS'1'
aa(lp52
S'amod'
p53
aS'3'
aS'2'
aa(lp54
S'dep'
p55
aS'5'
aS'3'
aa(lp56
S'det'
p57
aS'5'
aS'4'
aa(lp58
S'root'
p59
aS'0'
aS'5'
aa(lp60
S'advmod'
p61
aS'10'
p62
aS'6'
aa(lp63
S'det'
p64
aS'8'
aS'7'
aa(lp65
S'nsubj'
p66
aS'10'
p67
aS'8'
aa(lp68
S'cop'
p69
aS'10'
p70
aS'9'
aa(lp71
S'rcmod'
p72
aS'5'
aS'10'
p73
aasS'srls'
p74
(lp75
sS'pos_seq'
p76
(lp77
S'NN'
p78
aS'VBN'
p79
aS'NN'
p80
aS'DT'
p81
aS'NN'
p82
aS'WRB'
p83
aS'DT'
p84
aS'NN'
p85
aS'VBZ'
p86
aS'.'
asS'ner_seq'
p87
(lp88
S'O'
aS'O'
aS'O'
aS'O'
aS'O'
aS'O'
aS'O'
aS'O'
aS'O'
aS'O'
assb.