ccopy_reg
_reconstructor
p1
(c__main__
KBproperty
p2
c__builtin__
object
p3
NtRp4
(dp5
S'comment'
p6
S'Name of a mute character in play.5524'
p7
sS'domain'
p8
S'Play '
p9
sS'instances_count'
p10
I52
sS'phrases'
p11
NsS'syn_hypo'
p12
S''
sS'label'
p13
S'mute character in play'
p14
sS'range'
p15
S'string '
p16
sS'uniq_subjs'
p17
S'52'
p18
sS'uniq_objs'
p19
I0
sS'prop_uri'
p20
S'http://dbpedia.org/ontology/muteCharacterInPlay'
p21
sS'annotations'
p22
(dp23
S'bag_of_words'
p24
(lp25
S'Play'
p26
aS'mute'
p27
aS'character'
p28
aS'in'
p29
aS'play'
p30
aS'string'
p31
aS'Name'
p32
aS'of'
p33
aS'a'
aS'mute'
p34
aS'character'
p35
aS'in'
p36
aS'play.5524'
p37
asS'chunk_seq'
p38
(lp39
S'S-VP'
p40
aS'B-NP'
p41
aS'E-NP'
p42
aS'S-PP'
p43
aS'B-NP'
p44
aS'I-NP'
p45
aS'E-NP'
p46
aS'S-PP'
p47
aS'B-NP'
p48
aS'I-NP'
p49
aS'E-NP'
p50
aS'S-PP'
p51
aS'S-NP'
p52
asS'dep_seq'
p53
(lp54
(lp55
S'root'
p56
aS'0'
aS'1'
aa(lp57
S'amod'
p58
aS'3'
aS'2'
aa(lp59
S'dobj'
p60
aS'1'
aS'3'
aa(lp61
S'nn'
p62
aS'7'
aS'5'
aa(lp63
S'nn'
p64
aS'7'
aS'6'
aa(lp65
S'prep_in'
p66
aS'3'
aS'7'
aa(lp67
S'det'
p68
aS'11'
p69
aS'9'
aa(lp70
S'amod'
p71
aS'11'
p72
aS'10'
p73
aa(lp74
S'prep_of'
p75
aS'3'
aS'11'
p76
aa(lp77
S'prep_in'
p78
aS'1'
aS'13'
p79
aasS'srls'
p80
(lp81
(dp82
S'A1'
p83
S'mute character'
p84
sS'AM-MNR'
p85
S'in play string Name of a mute character in play.5524'
p86
sS'V'
g26
sasS'pos_seq'
p87
(lp88
S'VB'
p89
aS'JJ'
p90
aS'NN'
p91
aS'IN'
p92
aS'NN'
p93
aS'NN'
p94
aS'NN'
p95
aS'IN'
p96
aS'DT'
p97
aS'JJ'
p98
aS'NN'
p99
aS'IN'
p100
aS'NN'
p101
asS'ner_seq'
p102
(lp103
S'O'
aS'O'
aS'O'
aS'O'
aS'O'
aS'O'
aS'O'
aS'O'
aS'O'
aS'O'
aS'O'
aS'O'
aS'O'
assb.