ccopy_reg
_reconstructor
p1
(c__main__
KBproperty
p2
c__builtin__
object
p3
NtRp4
(dp5
S'comment'
p6
S'00'
p7
sS'domain'
p8
S'Sports Event '
p9
sS'instances_count'
p10
I0
sS'phrases'
p11
NsS'syn_hypo'
p12
V
sS'label'
p13
S'medalist'
p14
sS'range'
p15
S'Person '
p16
sS'uniq_subjs'
p17
S'0'
sS'uniq_objs'
p18
I0
sS'prop_uri'
p19
S'http://dbpedia.org/ontology/medalist'
p20
sS'annotations'
p21
(dp22
S'bag_of_words'
p23
(lp24
S'Sports'
p25
aS'Event'
p26
aS'medalist'
p27
aS'Person'
p28
aS'00'
p29
asS'chunk_seq'
p30
(lp31
S'B-NP'
p32
aS'E-NP'
p33
aS'S-VP'
p34
aS'O'
aS'O'
asS'dep_seq'
p35
(lp36
(lp37
S'nn'
p38
aS'2'
aS'1'
aa(lp39
S'nsubj'
p40
aS'3'
aS'2'
aa(lp41
S'root'
p42
aS'0'
aS'3'
aa(lp43
S'dobj'
p44
aS'3'
aS'4'
aa(lp45
S'num'
p46
aS'4'
aS'5'
aasS'srls'
p47
(lp48
(dp49
S'A0'
p50
S'Sports Event'
p51
sS'A2'
p52
S'Person 00'
p53
sS'V'
g27
sasS'pos_seq'
p54
(lp55
S'NNS'
p56
aS'NN'
p57
aS'VBD'
p58
aS'NN'
p59
aS'CD'
p60
asS'ner_seq'
p61
(lp62
S'O'
aS'O'
aS'O'
aS'O'
aS'O'
assb.