ccopy_reg
_reconstructor
p1
(c__main__
KBproperty
p2
c__builtin__
object
p3
NtRp4
(dp5
S'comment'
p6
S'The producer of the creative work.249714171369'
p7
sS'domain'
p8
S'Work '
p9
sS'instances_count'
p10
I55082
sS'phrases'
p11
NsS'syn_hypo'
p12
Varms_manufacturermanufacturerproducerbrewermanufacturerproducerdistillermanufacturerproducerfood_manufacturermanufacturerproducersericulturist
p13
sS'label'
p14
S'producer'
p15
sS'range'
p16
S'Agent '
p17
sS'uniq_subjs'
p18
S'55082'
p19
sS'uniq_objs'
p20
I0
sS'prop_uri'
p21
S'http://dbpedia.org/ontology/producer'
p22
sS'annotations'
p23
(dp24
S'bag_of_words'
p25
(lp26
S'Work'
p27
aS'producer'
p28
aS'Agent'
p29
aS'The'
p30
aS'producer'
p31
aS'of'
p32
aS'the'
p33
aS'creative'
p34
aS'work.249714171369'
p35
asS'chunk_seq'
p36
(lp37
S'B-NP'
p38
aS'I-NP'
p39
aS'E-NP'
p40
aS'B-NP'
p41
aS'E-NP'
p42
aS'S-PP'
p43
aS'B-NP'
p44
aS'I-NP'
p45
aS'E-NP'
p46
asS'dep_seq'
p47
(lp48
(lp49
S'nn'
p50
aS'3'
aS'1'
aa(lp51
S'nn'
p52
aS'3'
aS'2'
aa(lp53
S'dep'
p54
aS'5'
aS'3'
aa(lp55
S'det'
p56
aS'5'
aS'4'
aa(lp57
S'root'
p58
aS'0'
aS'5'
aa(lp59
S'det'
p60
aS'9'
aS'7'
aa(lp61
S'amod'
p62
aS'9'
aS'8'
aa(lp63
S'prep_of'
p64
aS'5'
aS'9'
aasS'srls'
p65
(lp66
sS'pos_seq'
p67
(lp68
S'NN'
p69
aS'NN'
p70
aS'NN'
p71
aS'DT'
p72
aS'NN'
p73
aS'IN'
p74
aS'DT'
p75
aS'JJ'
p76
aS'NN'
p77
asS'ner_seq'
p78
(lp79
S'O'
aS'O'
aS'O'
aS'O'
aS'O'
aS'O'
aS'O'
aS'O'
aS'O'
assb.