ccopy_reg
_reconstructor
p1
(c__main__
KBproperty
p2
c__builtin__
object
p3
NtRp4
(dp5
S'comment'
p6
S'the Alps group to which the mountain belongs according to the SOIUSA classification00'
p7
sS'domain'
p8
S'Mountain '
p9
sS'instances_count'
p10
I0
sS'phrases'
p11
NsS'syn_hypo'
p12
S''
sS'label'
p13
S'Alps group'
p14
sS'range'
p15
S'Mountain Range '
p16
sS'uniq_subjs'
p17
S'0'
sS'uniq_objs'
p18
I0
sS'prop_uri'
p19
S'http://dbpedia.org/ontology/alpsGroup'
p20
sS'annotations'
p21
(dp22
S'bag_of_words'
p23
(lp24
S'Mountain'
p25
aS'Alps'
p26
aS'group'
p27
aS'Mountain'
p28
aS'Range'
p29
aS'the'
p30
aS'Alps'
p31
aS'group'
p32
aS'to'
p33
aS'which'
p34
aS'the'
p35
aS'mountain'
p36
aS'belongs'
p37
aS'according'
p38
aS'to'
p39
aS'the'
p40
aS'SOIUSA'
p41
aS'classification00'
p42
asS'chunk_seq'
p43
(lp44
S'B-NP'
p45
aS'I-NP'
p46
aS'I-NP'
p47
aS'I-NP'
p48
aS'E-NP'
p49
aS'B-NP'
p50
aS'I-NP'
p51
aS'E-NP'
p52
aS'S-PP'
p53
aS'S-NP'
p54
aS'B-NP'
p55
aS'E-NP'
p56
aS'S-VP'
p57
aS'S-PP'
p58
aS'S-PP'
p59
aS'B-NP'
p60
aS'I-NP'
p61
aS'E-NP'
p62
asS'dep_seq'
p63
(lp64
(lp65
S'nn'
p66
aS'5'
aS'1'
aa(lp67
S'nn'
p68
aS'5'
aS'2'
aa(lp69
S'nn'
p70
aS'5'
aS'3'
aa(lp71
S'nn'
p72
aS'5'
aS'4'
aa(lp73
S'dep'
p74
aS'8'
aS'5'
aa(lp75
S'det'
p76
aS'8'
aS'6'
aa(lp77
S'nn'
p78
aS'8'
aS'7'
aa(lp79
S'root'
p80
aS'0'
aS'8'
aa(lp81
S'prep_to'
p82
aS'13'
p83
aS'8'
aa(lp84
S'rel'
p85
aS'13'
p86
aS'9'
aa(lp87
S'det'
p88
aS'12'
p89
aS'11'
p90
aa(lp91
S'nsubj'
p92
aS'13'
p93
aS'12'
p94
aa(lp95
S'rcmod'
p96
aS'8'
aS'13'
p97
aa(lp98
S'prepc_according_to'
p99
aS'13'
p100
aS'15'
p101
aa(lp102
S'det'
p103
aS'18'
p104
aS'16'
p105
aa(lp106
S'nn'
p107
aS'18'
p108
aS'17'
p109
aa(lp110
S'pobj'
p111
aS'13'
p112
aS'18'
p113
aasS'srls'
p114
(lp115
(dp116
S'A0'
p117
S'the Alps group to which the mountain'
p118
sS'AM-MNR'
p119
S'according to the SOIUSA classification00'
p120
sS'V'
g37
sasS'pos_seq'
p121
(lp122
S'NNP'
p123
aS'NNP'
p124
aS'NN'
p125
aS'NNP'
p126
aS'NNP'
p127
aS'DT'
p128
aS'NNP'
p129
aS'NN'
p130
aS'TO'
p131
aS'WDT'
p132
aS'DT'
p133
aS'NN'
p134
aS'VBZ'
p135
aS'VBG'
p136
aS'TO'
p137
aS'DT'
p138
aS'NN'
p139
aS'NN'
p140
asS'ner_seq'
p141
(lp142
S'B-LOC'
p143
aS'E-LOC'
p144
aS'O'
aS'B-LOC'
p145
aS'E-LOC'
p146
aS'O'
aS'S-MISC'
p147
aS'O'
aS'O'
aS'O'
aS'O'
aS'O'
aS'O'
aS'O'
aS'O'
aS'O'
aS'S-ORG'
p148
aS'O'
assb.