ccopy_reg
_reconstructor
p1
(c__main__
KBproperty
p2
c__builtin__
object
p3
NtRp4
(dp5
S'comment'
p6
S'Designates the unveiling date00'
p7
sS'domain'
p8
S'Monument '
p9
sS'instances_count'
p10
I0
sS'phrases'
p11
NsS'syn_hypo'
p12
S''
sS'label'
p13
S'date unveiled'
p14
sS'range'
p15
S'date '
p16
sS'uniq_subjs'
p17
S'0'
sS'uniq_objs'
p18
I0
sS'prop_uri'
p19
S'http://dbpedia.org/ontology/dateUnveiled'
p20
sS'annotations'
p21
(dp22
S'bag_of_words'
p23
(lp24
S'Monument'
p25
aS'date'
p26
aS'unveiled'
p27
aS'date'
p28
aS'Designates'
p29
aS'the'
p30
aS'unveiling'
p31
aS'date00'
p32
asS'chunk_seq'
p33
(lp34
S'B-NP'
p35
aS'E-NP'
p36
aS'S-VP'
p37
aS'S-NP'
p38
aS'S-VP'
p39
aS'B-NP'
p40
aS'I-NP'
p41
aS'E-NP'
p42
asS'dep_seq'
p43
(lp44
(lp45
S'nn'
p46
aS'2'
aS'1'
aa(lp47
S'root'
p48
aS'0'
aS'2'
aa(lp49
S'partmod'
p50
aS'2'
aS'3'
aa(lp51
S'dobj'
p52
aS'3'
aS'4'
aa(lp53
S'dep'
p54
aS'2'
aS'5'
aa(lp55
S'det'
p56
aS'8'
aS'6'
aa(lp57
S'nn'
p58
aS'8'
aS'7'
aa(lp59
S'dobj'
p60
aS'5'
aS'8'
aasS'srls'
p61
(lp62
(dp63
S'A1'
p64
S'Monument date  date Designates the unveiling date00'
p65
sS'V'
g27
sa(dp66
S'A1'
p67
S'the unveiling date00'
p68
sS'A0'
p69
S'Monument date unveiled date'
p70
sS'V'
g29
sasS'pos_seq'
p71
(lp72
S'NN'
p73
aS'NN'
p74
aS'VBN'
p75
aS'NN'
p76
aS'VBZ'
p77
aS'DT'
p78
aS'NN'
p79
aS'NN'
p80
asS'ner_seq'
p81
(lp82
S'O'
aS'O'
aS'O'
aS'O'
aS'O'
aS'O'
aS'O'
aS'O'
assb.