ccopy_reg
_reconstructor
p1
(c__main__
KBproperty
p2
c__builtin__
object
p3
NtRp4
(dp5
S'comment'
p6
S'Name and/or description of the organ00'
p7
sS'domain'
p8
S'Religious Building '
p9
sS'instances_count'
p10
I0
sS'phrases'
p11
NsS'syn_hypo'
p12
Vcontractile_organorgancontractororgancteneorgancomb-plateorganeffectororganend_organorganerectile_organorganexternal_organorganfootorganinvertebrate_footorganglandorgansecretory_organorgansecretororgansecreterorganinternal_organorganviscusorganlensorgancrystalline_lensorganlens_of_the_eyeorganorganelleorgancell_organelleorgancell_organorganovipositororganprimordiumorgananlageorganreproductive_organorgansex_organorgansense_organorgansensory_receptororganreceptororgansiphonorgansyphonorganspeech_organorganvocal_organorganorgan_of_speechorganstingerorgansuckerorgantaret_organorgantarget_organorgantongueorganlinguaorganglossaorganclapperorganvital_organorganvitalsorganwing
p13
sS'label'
p14
S'organ'
p15
sS'range'
p16
S'Organ '
p17
sS'uniq_subjs'
p18
S'0'
sS'uniq_objs'
p19
I0
sS'prop_uri'
p20
S'http://dbpedia.org/ontology/organ'
p21
sS'annotations'
p22
(dp23
S'bag_of_words'
p24
(lp25
S'Religious'
p26
aS'Building'
p27
aS'organ'
p28
aS'Organ'
p29
aS'Name'
p30
aS'and/or'
p31
aS'description'
p32
aS'of'
p33
aS'the'
p34
aS'organ00'
p35
asS'chunk_seq'
p36
(lp37
S'B-NP'
p38
aS'I-NP'
p39
aS'I-NP'
p40
aS'I-NP'
p41
aS'E-NP'
p42
aS'S-PP'
p43
aS'S-NP'
p44
aS'S-PP'
p45
aS'B-NP'
p46
aS'E-NP'
p47
asS'dep_seq'
p48
(lp49
(lp50
S'nn'
p51
aS'5'
aS'1'
aa(lp52
S'nn'
p53
aS'5'
aS'2'
aa(lp54
S'nn'
p55
aS'5'
aS'3'
aa(lp56
S'nn'
p57
aS'5'
aS'4'
aa(lp58
S'root'
p59
aS'0'
aS'5'
aa(lp60
S'prep_and/or'
p61
aS'5'
aS'7'
aa(lp62
S'det'
p63
aS'10'
p64
aS'9'
aa(lp65
S'prep_of'
p66
aS'7'
aS'10'
p67
aasS'srls'
p68
(lp69
sS'pos_seq'
p70
(lp71
S'NNP'
p72
aS'NNP'
p73
aS'NN'
p74
aS'NNP'
p75
aS'NNP'
p76
aS'IN'
p77
aS'NN'
p78
aS'IN'
p79
aS'DT'
p80
aS'NN'
p81
asS'ner_seq'
p82
(lp83
S'O'
aS'O'
aS'O'
aS'O'
aS'O'
aS'O'
aS'O'
aS'O'
aS'O'
aS'O'
assb.