ccopy_reg
_reconstructor
p1
(c__main__
KBproperty
p2
c__builtin__
object
p3
NtRp4
(dp5
S'comment'
p6
S'article in code book or statute book referred to in this legal case00'
p7
sS'domain'
p8
S'Legal Case '
p9
sS'instances_count'
p10
I0
sS'phrases'
p11
NsS'syn_hypo'
p12
S''
sS'label'
p13
S'legal article'
p14
sS'range'
p15
S'string '
p16
sS'uniq_subjs'
p17
S'0'
sS'uniq_objs'
p18
I0
sS'prop_uri'
p19
S'http://dbpedia.org/ontology/legalArticle'
p20
sS'annotations'
p21
(dp22
S'bag_of_words'
p23
(lp24
S'Legal'
p25
aS'Case'
p26
aS'legal'
p27
aS'article'
p28
aS'string'
p29
aS'article'
p30
aS'in'
p31
aS'code'
p32
aS'book'
p33
aS'or'
p34
aS'statute'
p35
aS'book'
p36
aS'referred'
p37
aS'to'
p38
aS'in'
p39
aS'this'
p40
aS'legal'
p41
aS'case00'
p42
asS'chunk_seq'
p43
(lp44
S'B-NP'
p45
aS'I-NP'
p46
aS'I-NP'
p47
aS'I-NP'
p48
aS'I-NP'
p49
aS'E-NP'
p50
aS'S-PP'
p51
aS'B-NP'
p52
aS'E-NP'
p53
aS'O'
aS'B-NP'
p54
aS'E-NP'
p55
aS'S-VP'
p56
aS'S-PP'
p57
aS'S-PP'
p58
aS'B-NP'
p59
aS'I-NP'
p60
aS'E-NP'
p61
asS'dep_seq'
p62
(lp63
(lp64
S'nn'
p65
aS'6'
aS'1'
aa(lp66
S'nn'
p67
aS'6'
aS'2'
aa(lp68
S'amod'
p69
aS'6'
aS'3'
aa(lp70
S'nn'
p71
aS'6'
aS'4'
aa(lp72
S'nn'
p73
aS'6'
aS'5'
aa(lp74
S'nsubj'
p75
aS'13'
p76
aS'6'
aa(lp77
S'nn'
p78
aS'9'
aS'8'
aa(lp79
S'prep_in'
p80
aS'6'
aS'9'
aa(lp81
S'nn'
p82
aS'12'
p83
aS'11'
p84
aa(lp85
S'conj_or'
p86
aS'9'
aS'12'
p87
aa(lp88
S'root'
p89
aS'0'
aS'13'
p90
aa(lp91
S'prep'
p92
aS'13'
p93
aS'14'
p94
aa(lp95
S'pcomp'
p96
aS'14'
p97
aS'15'
p98
aa(lp99
S'det'
p100
aS'18'
p101
aS'16'
p102
aa(lp103
S'amod'
p104
aS'18'
p105
aS'17'
p106
aa(lp107
S'pobj'
p108
aS'15'
p109
aS'18'
p110
aasS'srls'
p111
(lp112
(dp113
S'A1'
p114
S'to in this legal case00'
p115
sS'A0'
p116
S'Legal Case legal article string article in code book or statute book'
p117
sS'V'
g37
sasS'pos_seq'
p118
(lp119
S'NNP'
p120
aS'NNP'
p121
aS'JJ'
p122
aS'NN'
p123
aS'NN'
p124
aS'NN'
p125
aS'IN'
p126
aS'NN'
p127
aS'NN'
p128
aS'CC'
p129
aS'NN'
p130
aS'NN'
p131
aS'VBD'
p132
aS'TO'
p133
aS'IN'
p134
aS'DT'
p135
aS'JJ'
p136
aS'NN'
p137
asS'ner_seq'
p138
(lp139
S'O'
aS'O'
aS'O'
aS'O'
aS'O'
aS'O'
aS'O'
aS'O'
aS'O'
aS'O'
aS'O'
aS'O'
aS'O'
aS'O'
aS'O'
aS'O'
aS'O'
aS'O'
assb.