ccopy_reg
_reconstructor
p1
(c__main__
KBproperty
p2
c__builtin__
object
p3
NtRp4
(dp5
S'comment'
p6
S'00'
p7
sS'domain'
p8
S'Space Mission '
p9
sS'instances_count'
p10
I0
sS'phrases'
p11
NsS'syn_hypo'
p12
S''
sS'label'
p13
S'spacewalk begin'
p14
sS'range'
p15
S'date '
p16
sS'uniq_subjs'
p17
S'0'
sS'uniq_objs'
p18
I0
sS'prop_uri'
p19
S'http://dbpedia.org/ontology/spacewalkBegin'
p20
sS'annotations'
p21
(dp22
S'bag_of_words'
p23
(lp24
S'Space'
p25
aS'Mission'
p26
aS'spacewalk'
p27
aS'begin'
p28
aS'date'
p29
aS'00'
p30
asS'chunk_seq'
p31
(lp32
S'B-NP'
p33
aS'I-NP'
p34
aS'E-NP'
p35
aS'S-VP'
p36
aS'S-NP'
p37
aS'S-ADVP'
p38
asS'dep_seq'
p39
(lp40
(lp41
S'nn'
p42
aS'2'
aS'1'
aa(lp43
S'nsubj'
p44
aS'4'
aS'2'
aa(lp45
S'dep'
p46
aS'4'
aS'3'
aa(lp47
S'root'
p48
aS'0'
aS'4'
aa(lp49
S'dobj'
p50
aS'4'
aS'5'
aa(lp51
S'advmod'
p52
aS'5'
aS'6'
aasS'srls'
p53
(lp54
(dp55
S'A1'
p56
S'Space Mission'
p57
sS'AM-TMP'
p58
S'date 00'
p59
sS'V'
g28
sasS'pos_seq'
p60
(lp61
S'NNP'
p62
aS'NNP'
p63
aS'NN'
p64
aS'VB'
p65
aS'NN'
p66
aS'CD'
p67
asS'ner_seq'
p68
(lp69
S'B-ORG'
p70
aS'E-ORG'
p71
aS'O'
aS'O'
aS'O'
aS'O'
assb.