ccopy_reg
_reconstructor
p1
(c__main__
KBproperty
p2
c__builtin__
object
p3
NtRp4
(dp5
S'comment'
p6
S'Physical remains or personal effects of a saint or venerated person preserved in a religious building00'
p7
sS'domain'
p8
S'Religious Building '
p9
sS'instances_count'
p10
I0
sS'phrases'
p11
NsS'syn_hypo'
p12
S''
sS'label'
p13
S'relics'
p14
sS'range'
p15
S'string '
p16
sS'uniq_subjs'
p17
S'0'
sS'uniq_objs'
p18
I0
sS'prop_uri'
p19
S'http://dbpedia.org/ontology/relics'
p20
sS'annotations'
p21
(dp22
S'bag_of_words'
p23
(lp24
S'Religious'
p25
aS'Building'
p26
aS'relics'
p27
aS'string'
p28
aS'Physical'
p29
aS'remains'
p30
aS'or'
p31
aS'personal'
p32
aS'effects'
p33
aS'of'
p34
aS'a'
aS'saint'
p35
aS'or'
p36
aS'venerated'
p37
aS'person'
p38
aS'preserved'
p39
aS'in'
p40
aS'a'
aS'religious'
p41
aS'building00'
p42
asS'chunk_seq'
p43
(lp44
S'B-NP'
p45
aS'I-NP'
p46
aS'I-NP'
p47
aS'I-NP'
p48
aS'I-NP'
p49
aS'E-NP'
p50
aS'O'
aS'B-NP'
p51
aS'E-NP'
p52
aS'S-PP'
p53
aS'B-NP'
p54
aS'I-NP'
p55
aS'I-NP'
p56
aS'I-NP'
p57
aS'E-NP'
p58
aS'S-VP'
p59
aS'S-PP'
p60
aS'B-NP'
p61
aS'I-NP'
p62
aS'E-NP'
p63
asS'dep_seq'
p64
(lp65
(lp66
S'dep'
p67
aS'2'
aS'1'
aa(lp68
S'dep'
p69
aS'16'
p70
aS'2'
aa(lp71
S'dep'
p72
aS'16'
p73
aS'3'
aa(lp74
S'dep'
p75
aS'16'
p76
aS'4'
aa(lp77
S'amod'
p78
aS'6'
aS'5'
aa(lp79
S'dep'
p80
aS'16'
p81
aS'6'
aa(lp82
S'amod'
p83
aS'9'
aS'8'
aa(lp84
S'conj_or'
p85
aS'16'
p86
aS'9'
aa(lp87
S'nsubj'
p88
aS'16'
p89
aS'9'
aa(lp90
S'det'
p91
aS'15'
p92
aS'11'
p93
aa(lp94
S'nn'
p95
aS'15'
p96
aS'12'
p97
aa(lp98
S'conj_or'
p99
aS'12'
p100
aS'14'
p101
aa(lp102
S'prep_of'
p103
aS'9'
aS'15'
p104
aa(lp105
S'root'
p106
aS'0'
aS'16'
p107
aa(lp108
S'det'
p109
aS'20'
p110
aS'18'
p111
aa(lp112
S'amod'
p113
aS'20'
p114
aS'19'
p115
aa(lp116
S'prep_in'
p117
aS'16'
p118
aS'20'
p119
aasS'srls'
p120
(lp121
(dp122
S'A1'
p123
g38
sS'V'
g37
sa(dp124
S'A1'
p125
S'Religious Building relics string Physical remains or personal effects of a saint or venerated person'
p126
sS'AM-LOC'
p127
S'in a religious building00'
p128
sS'V'
g39
sasS'pos_seq'
p129
(lp130
S'JJ'
p131
aS'NN'
p132
aS'NNS'
p133
aS'NN'
p134
aS'JJ'
p135
aS'NNS'
p136
aS'CC'
p137
aS'JJ'
p138
aS'NNS'
p139
aS'IN'
p140
aS'DT'
p141
aS'NN'
p142
aS'CC'
p143
aS'VBN'
p144
aS'NN'
p145
aS'VBN'
p146
aS'IN'
p147
aS'DT'
p148
aS'JJ'
p149
aS'NN'
p150
asS'ner_seq'
p151
(lp152
S'O'
aS'O'
aS'O'
aS'O'
aS'O'
aS'O'
aS'O'
aS'O'
aS'O'
aS'O'
aS'O'
aS'O'
aS'O'
aS'O'
aS'O'
aS'O'
aS'O'
aS'O'
aS'O'
aS'O'
assb.