ccopy_reg
_reconstructor
p1
(c__main__
KBproperty
p2
c__builtin__
object
p3
NtRp4
(dp5
S'comment'
p6
S"Indicates a Food's effect on a person's blood glucose blood sugar level. Typically ranges between 50 and 100 where 100 represents the standard an equivalent amount of pure glucose32"
p7
sS'domain'
p8
S'Food '
p9
sS'instances_count'
p10
I3
sS'phrases'
p11
NsS'syn_hypo'
p12
S''
sS'label'
p13
S'glycemic index'
p14
sS'range'
p15
S'integer '
p16
sS'uniq_subjs'
p17
S'2'
sS'uniq_objs'
p18
I0
sS'prop_uri'
p19
S'http://dbpedia.org/ontology/glycemicIndex'
p20
sS'annotations'
p21
(dp22
S'bag_of_words'
p23
(lp24
S'Food'
p25
aS'glycemic'
p26
aS'index'
p27
aS'integer'
p28
aS'Indicates'
p29
aS'a'
aS'Food'
p30
aS"'s"
p31
aS'effect'
p32
aS'on'
p33
aS'a'
aS'person'
p34
aS"'s"
p35
aS'blood'
p36
aS'glucose'
p37
aS'blood'
p38
aS'sugar'
p39
aS'level'
p40
aS'.'
aS'Typically'
p41
aS'ranges'
p42
aS'between'
p43
aS'50'
p44
aS'and'
p45
aS'100'
p46
aS'where'
p47
aS'100'
p48
aS'represents'
p49
aS'the'
p50
aS'standard'
p51
aS'an'
p52
aS'equivalent'
p53
aS'amount'
p54
aS'of'
p55
aS'pure'
p56
aS'glucose32'
p57
asS'chunk_seq'
p58
(lp59
S'B-NP'
p60
aS'I-NP'
p61
aS'E-NP'
p62
aS'S-NP'
p63
aS'S-VP'
p64
aS'B-NP'
p65
aS'E-NP'
p66
aS'B-NP'
p67
aS'E-NP'
p68
aS'S-PP'
p69
aS'B-NP'
p70
aS'E-NP'
p71
aS'B-NP'
p72
aS'I-NP'
p73
aS'I-NP'
p74
aS'I-NP'
p75
aS'I-NP'
p76
aS'E-NP'
p77
aS'O'
aS'S-ADVP'
p78
aS'S-VP'
p79
aS'S-PP'
p80
aS'B-NP'
p81
aS'I-NP'
p82
aS'E-NP'
p83
aS'S-ADVP'
p84
aS'S-NP'
p85
aS'S-VP'
p86
aS'B-NP'
p87
aS'E-NP'
p88
aS'B-NP'
p89
aS'I-NP'
p90
aS'E-NP'
p91
aS'S-PP'
p92
aS'B-NP'
p93
aS'E-NP'
p94
asS'dep_seq'
p95
(lp96
(lp97
S'nn'
p98
aS'4'
aS'1'
aa(lp99
S'nn'
p100
aS'4'
aS'2'
aa(lp101
S'nn'
p102
aS'4'
aS'3'
aa(lp103
S'dep'
p104
aS'33'
p105
aS'4'
aa(lp106
S'dep'
p107
aS'33'
p108
aS'5'
aa(lp109
S'det'
p110
aS'7'
aS'6'
aa(lp111
S'poss'
p112
aS'9'
aS'7'
aa(lp113
S'dep'
p114
aS'33'
p115
aS'9'
aa(lp116
S'det'
p117
aS'12'
p118
aS'11'
p119
aa(lp120
S'poss'
p121
aS'18'
p122
aS'12'
p123
aa(lp124
S'nn'
p125
aS'18'
p126
aS'14'
p127
aa(lp128
S'nn'
p129
aS'18'
p130
aS'15'
p131
aa(lp132
S'nn'
p133
aS'18'
p134
aS'16'
p135
aa(lp136
S'nn'
p137
aS'18'
p138
aS'17'
p139
aa(lp140
S'prep_on'
p141
aS'9'
aS'18'
p142
aa(lp143
S'advmod'
p144
aS'33'
p145
aS'20'
p146
aa(lp147
S'dep'
p148
aS'33'
p149
aS'21'
p150
aa(lp151
S'dep'
p152
aS'33'
p153
aS'22'
p154
aa(lp155
S'dep'
p156
aS'33'
p157
aS'23'
p158
aa(lp159
S'conj_and'
p160
aS'23'
p161
aS'25'
p162
aa(lp163
S'advmod'
p164
aS'33'
p165
aS'26'
p166
aa(lp167
S'dep'
p168
aS'33'
p169
aS'27'
p170
aa(lp171
S'dep'
p172
aS'33'
p173
aS'28'
p174
aa(lp175
S'det'
p176
aS'30'
p177
aS'29'
p178
aa(lp179
S'dep'
p180
aS'33'
p181
aS'30'
p182
aa(lp183
S'det'
p184
aS'33'
p185
aS'31'
p186
aa(lp187
S'amod'
p188
aS'33'
p189
aS'32'
p190
aa(lp191
S'root'
p192
aS'0'
aS'33'
p193
aa(lp194
S'amod'
p195
aS'36'
p196
aS'35'
p197
aa(lp198
S'prep_of'
p199
aS'33'
p200
aS'36'
p201
aasS'srls'
p202
(lp203
(dp204
S'A1'
p205
S"a Food 's effect on a person 's blood glucose blood sugar level . Typically ranges between 50 and 100 where 100 represents the standard an equivalent amount of pure glucose32"
p206
sS'A0'
p207
S'Food glycemic index integer'
p208
sS'V'
g29
sa(dp209
S'A1'
p210
S"a Food 's effect on a person 's blood glucose blood sugar level"
p211
sS'AM-TMP'
p212
S'Typically  between 50 and 100 where 100 represents the standard an equivalent amount of pure glucose32'
p213
sS'V'
g42
sa(dp214
S'A1'
p215
S'the standard an equivalent amount of pure glucose32'
p216
sS'AM-LOC'
p217
S'Typically ranges between 50 and 100'
p218
sS'V'
g49
sS'A0'
p219
g48
sasS'pos_seq'
p220
(lp221
S'NN'
p222
aS'NN'
p223
aS'NN'
p224
aS'NN'
p225
aS'VBZ'
p226
aS'DT'
p227
aS'NNP'
p228
aS'POS'
p229
aS'NN'
p230
aS'IN'
p231
aS'DT'
p232
aS'NN'
p233
aS'POS'
p234
aS'NN'
p235
aS'NN'
p236
aS'NN'
p237
aS'NN'
p238
aS'NN'
p239
aS'.'
aS'RB'
p240
aS'VBZ'
p241
aS'IN'
p242
aS'CD'
p243
aS'CC'
p244
aS'CD'
p245
aS'WRB'
p246
aS'CD'
p247
aS'VBZ'
p248
aS'DT'
p249
aS'NN'
p250
aS'DT'
p251
aS'JJ'
p252
aS'NN'
p253
aS'IN'
p254
aS'JJ'
p255
aS'NN'
p256
asS'ner_seq'
p257
(lp258
S'O'
aS'O'
aS'O'
aS'O'
aS'O'
aS'O'
aS'O'
aS'O'
aS'O'
aS'O'
aS'O'
aS'O'
aS'O'
aS'O'
aS'O'
aS'O'
aS'O'
aS'O'
aS'O'
aS'O'
aS'O'
aS'O'
aS'O'
aS'O'
aS'O'
aS'O'
aS'O'
aS'O'
aS'O'
aS'O'
aS'O'
aS'O'
aS'O'
aS'O'
aS'O'
aS'O'
assb.