ccopy_reg
_reconstructor
p1
(c__main__
KBproperty
p2
c__builtin__
object
p3
NtRp4
(dp5
S'comment'
p6
S'grounds for termination of activities'
p7
sS'domain'
p8
S'Company '
p9
sS'instances_count'
p10
I0
sS'phrases'
p11
NsS'syn_hypo'
p12
S''
sS'label'
p13
g7
sS'range'
p14
S'lang String '
p15
sS'uniq_subjs'
p16
S'0'
sS'uniq_objs'
p17
I0
sS'prop_uri'
p18
S'http://dbpedia.org/ontology/groundsForLiquidation'
p19
sS'annotations'
p20
(dp21
S'bag_of_words'
p22
(lp23
S'Company'
p24
aS'grounds'
p25
aS'For'
p26
aS'Liquidation'
p27
aS'lang'
p28
aS'String'
p29
aS'grounds'
p30
aS'for'
p31
aS'termination'
p32
aS'of'
p33
aS'activities'
p34
asS'chunk_seq'
p35
(lp36
S'S-NP'
p37
aS'S-VP'
p38
aS'S-PP'
p39
aS'B-NP'
p40
aS'I-NP'
p41
aS'I-NP'
p42
aS'E-NP'
p43
aS'S-PP'
p44
aS'S-NP'
p45
aS'S-PP'
p46
aS'S-NP'
p47
asS'dep_seq'
p48
(lp49
(lp50
S'nsubj'
p51
aS'2'
aS'1'
aa(lp52
S'root'
p53
aS'0'
aS'2'
aa(lp54
S'nn'
p55
aS'7'
aS'4'
aa(lp56
S'amod'
p57
aS'7'
aS'5'
aa(lp58
S'nn'
p59
aS'7'
aS'6'
aa(lp60
S'prep_for'
p61
aS'2'
aS'7'
aa(lp62
S'prep_for'
p63
aS'2'
aS'9'
aa(lp64
S'prep_of'
p65
aS'9'
aS'11'
p66
aasS'srls'
p67
(lp68
sS'pos_seq'
p69
(lp70
S'NN'
p71
aS'VBZ'
p72
aS'IN'
p73
aS'NN'
p74
aS'VBG'
p75
aS'NN'
p76
aS'NNS'
p77
aS'IN'
p78
aS'NN'
p79
aS'IN'
p80
aS'NNS'
p81
asS'ner_seq'
p82
(lp83
S'O'
aS'O'
aS'O'
aS'B-MISC'
p84
aS'I-MISC'
p85
aS'E-MISC'
p86
aS'O'
aS'O'
aS'O'
aS'O'
aS'O'
assb.