ccopy_reg
_reconstructor
p1
(c__main__
KBproperty
p2
c__builtin__
object
p3
NtRp4
(dp5
S'comment'
p6
S'An influential wealthy person who supported an artist craftsman a scholar or a noble.. See also00'
p7
sS'domain'
p8
S'Agent '
p9
sS'instances_count'
p10
I0
sS'phrases'
p11
NsS'syn_hypo'
p12
S''
sS'label'
p13
S'patron art'
p14
sS'range'
p15
S'Artist '
p16
sS'uniq_subjs'
p17
S'0'
sS'uniq_objs'
p18
I0
sS'prop_uri'
p19
S'http://dbpedia.org/ontology/artPatron'
p20
sS'annotations'
p21
(dp22
S'bag_of_words'
p23
(lp24
S'Agent'
p25
aS'patron'
p26
aS'art'
p27
aS'Artist'
p28
aS'An'
p29
aS'influential'
p30
aS'wealthy'
p31
aS'person'
p32
aS'who'
p33
aS'supported'
p34
aS'an'
p35
aS'artist'
p36
aS'craftsman'
p37
aS'a'
aS'scholar'
p38
aS'or'
p39
aS'a'
aS'noble'
p40
aS'..'
p41
aS'See'
p42
aS'also00'
p43
asS'chunk_seq'
p44
(lp45
S'B-NP'
p46
aS'I-NP'
p47
aS'I-NP'
p48
aS'E-NP'
p49
aS'B-NP'
p50
aS'I-NP'
p51
aS'I-NP'
p52
aS'E-NP'
p53
aS'S-NP'
p54
aS'S-VP'
p55
aS'B-NP'
p56
aS'I-NP'
p57
aS'E-NP'
p58
aS'B-NP'
p59
aS'E-NP'
p60
aS'O'
aS'O'
aS'O'
aS'O'
aS'S-VP'
p61
aS'S-NP'
p62
asS'dep_seq'
p63
(lp64
(lp65
S'nn'
p66
aS'4'
aS'1'
aa(lp67
S'nn'
p68
aS'4'
aS'2'
aa(lp69
S'nn'
p70
aS'4'
aS'3'
aa(lp71
S'root'
p72
aS'0'
aS'4'
aa(lp73
S'det'
p74
aS'8'
aS'5'
aa(lp75
S'amod'
p76
aS'8'
aS'6'
aa(lp77
S'amod'
p78
aS'8'
aS'7'
aa(lp79
S'nsubj'
p80
aS'10'
p81
aS'8'
aa(lp82
S'dep'
p83
aS'20'
p84
aS'8'
aa(lp85
S'rcmod'
p86
aS'8'
aS'10'
p87
aa(lp88
S'det'
p89
aS'13'
p90
aS'11'
p91
aa(lp92
S'nn'
p93
aS'13'
p94
aS'12'
p95
aa(lp96
S'iobj'
p97
aS'10'
p98
aS'13'
p99
aa(lp100
S'det'
p101
aS'15'
p102
aS'14'
p103
aa(lp104
S'dobj'
p105
aS'10'
p106
aS'15'
p107
aa(lp108
S'det'
p109
aS'18'
p110
aS'17'
p111
aa(lp112
S'conj_or'
p113
aS'15'
p114
aS'18'
p115
aa(lp116
S'punct'
p117
aS'20'
p118
aS'19'
p119
aa(lp120
S'dep'
p121
aS'4'
aS'20'
p122
aa(lp123
S'dobj'
p124
aS'20'
p125
aS'21'
p126
aasS'srls'
p127
(lp128
(dp129
S'A1'
p130
S'an artist craftsman a scholar or a noble'
p131
sS'A0'
p132
S'An influential wealthy person'
p133
sS'R-A0'
p134
g33
sS'V'
g34
sa(dp135
S'A1'
p136
g43
sS'A0'
p137
S'Agent patron art Artist An influential wealthy person who supported an artist craftsman a scholar or a noble ..'
p138
sS'V'
g42
sasS'pos_seq'
p139
(lp140
S'NN'
p141
aS'NN'
p142
aS'NN'
p143
aS'NNP'
p144
aS'DT'
p145
aS'JJ'
p146
aS'JJ'
p147
aS'NN'
p148
aS'WP'
p149
aS'VBD'
p150
aS'DT'
p151
aS'NN'
p152
aS'NN'
p153
aS'DT'
p154
aS'NN'
p155
aS'CC'
p156
aS'DT'
p157
aS'JJ'
p158
aS':'
aS'VB'
p159
aS'NN'
p160
asS'ner_seq'
p161
(lp162
S'O'
aS'O'
aS'O'
aS'O'
aS'O'
aS'O'
aS'O'
aS'O'
aS'O'
aS'O'
aS'O'
aS'O'
aS'O'
aS'O'
aS'O'
aS'O'
aS'O'
aS'O'
aS'O'
aS'O'
aS'O'
assb.