ccopy_reg
_reconstructor
p1
(c__main__
KBproperty
p2
c__builtin__
object
p3
NtRp4
(dp5
S'comment'
p6
S'Usually used with releaseDate particularly for Films. Often there can be several pairs so our modeling is not precise here...44'
p7
sS'domain'
p8
S'Work '
p9
sS'instances_count'
p10
I4
sS'phrases'
p11
NsS'syn_hypo'
p12
S''
sS'label'
p13
S'release location'
p14
sS'range'
p15
S'Place '
p16
sS'uniq_subjs'
p17
S'4'
sS'uniq_objs'
p18
I0
sS'prop_uri'
p19
S'http://dbpedia.org/ontology/releaseLocation'
p20
sS'annotations'
p21
(dp22
S'bag_of_words'
p23
(lp24
S'Work'
p25
aS'release'
p26
aS'location'
p27
aS'Place'
p28
aS'Usually'
p29
aS'used'
p30
aS'with'
p31
aS'releaseDate'
p32
aS'particularly'
p33
aS'for'
p34
aS'Films'
p35
aS'.'
aS'Often'
p36
aS'there'
p37
aS'can'
p38
aS'be'
p39
aS'several'
p40
aS'pairs'
p41
aS'so'
p42
aS'our'
p43
aS'modeling'
p44
aS'is'
p45
aS'not'
p46
aS'precise'
p47
aS'here'
p48
aS'..'
p49
aS'.44'
p50
asS'chunk_seq'
p51
(lp52
S'B-NP'
p53
aS'I-NP'
p54
aS'I-NP'
p55
aS'E-NP'
p56
aS'B-VP'
p57
aS'E-VP'
p58
aS'S-PP'
p59
aS'S-NP'
p60
aS'S-ADVP'
p61
aS'S-PP'
p62
aS'S-NP'
p63
aS'O'
aS'S-ADVP'
p64
aS'S-NP'
p65
aS'B-VP'
p66
aS'E-VP'
p67
aS'B-NP'
p68
aS'E-NP'
p69
aS'O'
aS'B-NP'
p70
aS'E-NP'
p71
aS'S-VP'
p72
aS'O'
aS'S-ADJP'
p73
aS'S-ADVP'
p74
aS'O'
aS'O'
asS'dep_seq'
p75
(lp76
(lp77
S'nn'
p78
aS'4'
aS'1'
aa(lp79
S'nn'
p80
aS'4'
aS'2'
aa(lp81
S'nn'
p82
aS'4'
aS'3'
aa(lp83
S'nsubj'
p84
aS'6'
aS'4'
aa(lp85
S'advmod'
p86
aS'6'
aS'5'
aa(lp87
S'root'
p88
aS'0'
aS'6'
aa(lp89
S'prep_with'
p90
aS'6'
aS'8'
aa(lp91
S'advmod'
p92
aS'6'
aS'9'
aa(lp93
S'prep_for'
p94
aS'6'
aS'11'
p95
aa(lp96
S'advmod'
p97
aS'18'
p98
aS'13'
p99
aa(lp100
S'expl'
p101
aS'18'
p102
aS'14'
p103
aa(lp104
S'aux'
p105
aS'18'
p106
aS'15'
p107
aa(lp108
S'cop'
p109
aS'18'
p110
aS'16'
p111
aa(lp112
S'amod'
p113
aS'18'
p114
aS'17'
p115
aa(lp116
S'parataxis'
p117
aS'6'
aS'18'
p118
aa(lp119
S'mark'
p120
aS'24'
p121
aS'19'
p122
aa(lp123
S'poss'
p124
aS'21'
p125
aS'20'
p126
aa(lp127
S'nsubj'
p128
aS'24'
p129
aS'21'
p130
aa(lp131
S'cop'
p132
aS'24'
p133
aS'22'
p134
aa(lp135
S'neg'
p136
aS'24'
p137
aS'23'
p138
aa(lp139
S'dep'
p140
aS'18'
p141
aS'24'
p142
aa(lp143
S'advmod'
p144
aS'24'
p145
aS'25'
p146
aa(lp147
S'advmod'
p148
aS'6'
aS'26'
p149
aa(lp150
S'punct'
p151
aS'6'
aS'27'
p152
aasS'srls'
p153
(lp154
(dp155
S'A1'
p156
S'Work release location Place'
p157
sS'A2'
p158
S'with releaseDate particularly for Films'
p159
sS'AM-TMP'
p160
g29
sS'V'
g30
sasS'pos_seq'
p161
(lp162
S'NN'
p163
aS'NN'
p164
aS'NN'
p165
aS'NN'
p166
aS'RB'
p167
aS'VBN'
p168
aS'IN'
p169
aS'JJ'
p170
aS'RB'
p171
aS'IN'
p172
aS'NNS'
p173
aS'.'
aS'RB'
p174
aS'EX'
p175
aS'MD'
p176
aS'VB'
p177
aS'JJ'
p178
aS'NNS'
p179
aS'IN'
p180
aS'PRP$'
p181
aS'NN'
p182
aS'VBZ'
p183
aS'RB'
p184
aS'JJ'
p185
aS'RB'
p186
aS'RB'
p187
aS'.'
asS'ner_seq'
p188
(lp189
S'O'
aS'O'
aS'O'
aS'O'
aS'O'
aS'O'
aS'O'
aS'S-PER'
p190
aS'O'
aS'O'
aS'S-MISC'
p191
aS'O'
aS'O'
aS'O'
aS'O'
aS'O'
aS'O'
aS'O'
aS'O'
aS'O'
aS'O'
aS'O'
aS'O'
aS'O'
aS'O'
aS'O'
aS'O'
assb.