ccopy_reg
_reconstructor
p1
(c__main__
KBproperty
p2
c__builtin__
object
p3
NtRp4
(dp5
S'comment'
p6
S'22365'
p7
sS'domain'
p8
S'College Coach '
p9
sS'instances_count'
p10
I207
sS'phrases'
p11
NsS'syn_hypo'
p12
S''
sS'label'
p13
S'coached team'
p14
sS'range'
p15
S'Sports Team '
p16
sS'uniq_subjs'
p17
S'207'
p18
sS'uniq_objs'
p19
I0
sS'prop_uri'
p20
S'http://dbpedia.org/ontology/coachedTeam'
p21
sS'annotations'
p22
(dp23
S'bag_of_words'
p24
(lp25
S'College'
p26
aS'Coach'
p27
aS'coached'
p28
aS'team'
p29
aS'Sports'
p30
aS'Team'
p31
aS'22365'
p32
asS'chunk_seq'
p33
(lp34
S'B-NP'
p35
aS'E-NP'
p36
aS'S-VP'
p37
aS'B-NP'
p38
aS'I-NP'
p39
aS'E-NP'
p40
aS'S-ADJP'
p41
asS'dep_seq'
p42
(lp43
(lp44
S'nn'
p45
aS'2'
aS'1'
aa(lp46
S'nsubj'
p47
aS'3'
aS'2'
aa(lp48
S'root'
p49
aS'0'
aS'3'
aa(lp50
S'nn'
p51
aS'6'
aS'4'
aa(lp52
S'nn'
p53
aS'6'
aS'5'
aa(lp54
S'dobj'
p55
aS'3'
aS'6'
aa(lp56
S'punct'
p57
aS'6'
aS'7'
aasS'srls'
p58
(lp59
(dp60
S'A1'
p61
S'team Sports Team 22365'
p62
sS'A0'
p63
S'College Coach'
p64
sS'V'
g28
sasS'pos_seq'
p65
(lp66
S'NNP'
p67
aS'NNP'
p68
aS'VBD'
p69
aS'NN'
p70
aS'NNP'
p71
aS'NNP'
p72
aS'.'
asS'ner_seq'
p73
(lp74
S'B-ORG'
p75
aS'E-ORG'
p76
aS'O'
aS'O'
aS'B-ORG'
p77
aS'E-ORG'
p78
aS'O'
assb.