ccopy_reg
_reconstructor
p1
(c__main__
KBproperty
p2
c__builtin__
object
p3
NtRp4
(dp5
S'comment'
p6
S'The fare zone in which station is located.45824562'
p7
sS'domain'
p8
S'Station '
p9
sS'instances_count'
p10
I450
sS'phrases'
p11
NsS'syn_hypo'
p12
S''
sS'label'
p13
S'fare zone'
p14
sS'range'
p15
S'string '
p16
sS'uniq_subjs'
p17
S'450'
p18
sS'uniq_objs'
p19
I0
sS'prop_uri'
p20
S'http://dbpedia.org/ontology/fareZone'
p21
sS'annotations'
p22
(dp23
S'bag_of_words'
p24
(lp25
S'Station'
p26
aS'fare'
p27
aS'zone'
p28
aS'string'
p29
aS'The'
p30
aS'fare'
p31
aS'zone'
p32
aS'in'
p33
aS'which'
p34
aS'station'
p35
aS'is'
p36
aS'located.45824562'
p37
asS'chunk_seq'
p38
(lp39
S'B-NP'
p40
aS'I-NP'
p41
aS'I-NP'
p42
aS'E-NP'
p43
aS'B-NP'
p44
aS'I-NP'
p45
aS'E-NP'
p46
aS'S-PP'
p47
aS'S-NP'
p48
aS'S-NP'
p49
aS'S-VP'
p50
aS'S-ADJP'
p51
asS'dep_seq'
p52
(lp53
(lp54
S'nn'
p55
aS'4'
aS'1'
aa(lp56
S'nn'
p57
aS'4'
aS'2'
aa(lp58
S'nn'
p59
aS'4'
aS'3'
aa(lp60
S'nsubj'
p61
aS'12'
p62
aS'4'
aa(lp63
S'det'
p64
aS'7'
aS'5'
aa(lp65
S'nn'
p66
aS'7'
aS'6'
aa(lp67
S'nsubj'
p68
aS'12'
p69
aS'7'
aa(lp70
S'dep'
p71
aS'10'
p72
aS'9'
aa(lp73
S'prep_in'
p74
aS'7'
aS'10'
p75
aa(lp76
S'cop'
p77
aS'12'
p78
aS'11'
p79
aa(lp80
S'root'
p81
aS'0'
aS'12'
p82
aasS'srls'
p83
(lp84
sS'pos_seq'
p85
(lp86
S'NN'
p87
aS'NN'
p88
aS'NN'
p89
aS'NN'
p90
aS'DT'
p91
aS'NN'
p92
aS'NN'
p93
aS'IN'
p94
aS'WDT'
p95
aS'NN'
p96
aS'VBZ'
p97
aS'JJ'
p98
asS'ner_seq'
p99
(lp100
S'O'
aS'O'
aS'O'
aS'O'
aS'O'
aS'O'
aS'O'
aS'O'
aS'O'
aS'O'
aS'O'
aS'O'
assb.