ccopy_reg
_reconstructor
p1
(c__main__
KBproperty
p2
c__builtin__
object
p3
NtRp4
(dp5
S'comment'
p6
S'436264'
p7
sS'domain'
p8
S'Legislature '
p9
sS'instances_count'
p10
I322
sS'phrases'
p11
NsS'syn_hypo'
p12
Vbeach_househouseboarding_househouseboardinghousehousebungalowhousecottagehousecabinhousechalethousechapterhousehousefraternity_househousefrat_househousecountry_househousedetached_househousesingle_dwellinghousedollhousehousedoll's_househouseduplex_househouseduplexhousesemidetached_househousefarmhousehousegatehousehouseguesthousehousehaciendahouselodgehousehunting_lodgehouselodging_househouserooming_househousemaisonettehousemaisonnettehousemansionhousemansion_househousemansehousehallhouseresidencehouseranch_househouseresidencehouserow_househousetown_househousesafe_househousesaltboxhousesod_househousesoddyhouseadobe_househousesolar_househousetract_househousevilla
p13
sS'label'
p14
S'house'
p15
sS'range'
p16
S'Legislature '
p17
sS'uniq_subjs'
p18
S'322'
p19
sS'uniq_objs'
p20
I0
sS'prop_uri'
p21
S'http://dbpedia.org/ontology/house'
p22
sS'annotations'
p23
(dp24
S'bag_of_words'
p25
(lp26
S'Legislature'
p27
aS'house'
p28
aS'Legislature'
p29
aS'436264'
p30
asS'chunk_seq'
p31
(lp32
S'B-NP'
p33
aS'I-NP'
p34
aS'E-NP'
p35
aS'O'
asS'dep_seq'
p36
(lp37
(lp38
S'nn'
p39
aS'3'
aS'1'
aa(lp40
S'nn'
p41
aS'3'
aS'2'
aa(lp42
S'root'
p43
aS'0'
aS'3'
aa(lp44
S'punct'
p45
aS'3'
aS'4'
aasS'srls'
p46
(lp47
sS'pos_seq'
p48
(lp49
S'NNP'
p50
aS'NN'
p51
aS'NNP'
p52
aS'.'
asS'ner_seq'
p53
(lp54
S'O'
aS'O'
aS'O'
aS'O'
assb.