ccopy_reg
_reconstructor
p1
(c__main__
KBproperty
p2
c__builtin__
object
p3
NtRp4
(dp5
S'comment'
p6
S'00'
p7
sS'domain'
p8
S'Place '
p9
sS'instances_count'
p10
I0
sS'phrases'
p11
NsS'syn_hypo'
p12
VaaliitreeacaciatreeAfrican_walnuttreeLovoa_klaineanatreealbizziatreealbiziatreealdertreealder_treetreeangelimtreeandelmintreeangiospermous_treetreeflowering_treetreeanise_treetreearbortreearoeira_blancatreeSchinus_chichitatreeashtreeash_treetreeAustralian_nettletreeAustralian_nettle_treetreebalatatreebalata_treetreebeefwoodtreebully_treetreeManilkara_bidentatatreebayberrytreebay-rum_treetreeJamaica_bayberrytreewild_cinnamontreePimenta_acristreebean_treetreebeechtreebeech_treetreebirchtreebirch_treetreebitterwood_treetreeblack_mangrovetreeAegiceras_majustreeblackwoodtreeblackwood_treetreebloodwood_treetreekiaattreePterocarpus_angolensistreebonductreebonduc_treetreeCaesalpinia_bonductreeCaesalpinia_bonducellatreebonsaitreebottle-treetreebottle_treetreebrazilian_ironwoodtreeCaesalpinia_ferreatreeBrazilian_pepper_treetreeSchinus_terebinthifoliustreebrazilwoodtreepeachwoodtreepeach-woodtreepernambuco_woodtreeCaesalpinia_echinatatreebreakaxtreebreakaxetreebreak-axetreeSloanea_jamaicensistreeBurma_padauktreeBurmese_rosewoodtreePterocarpus_macrocarpustreebutton_treetreebutton_mangrovetreeConocarpus_erectustreecabbage_treetreegrass_treetreeCordyline_australistreecalabatreeSanta_Maria_treetreeCalophyllum_calabatreecalabashtreecalabash_treetreeCrescentia_cujetetreecamwoodtreeAfrican_sandalwoodtreeBaphia_nitidatreecaracolitotreeRuptiliocarpon_caracolitotreecarib_woodtreeSabinea_carinalistreecassiatreecasuarinatreechaulmoogratreechaulmoogra_treetreechaulmugratreeHydnocarpus_kurziitreeTaraktagenos_kurziitreeTaraktogenos_kurziitreechestnuttreechestnut_treetreechinaberrytreechinaberry_treetreeChina_treetreePersian_lilactreepride-of-IndiatreeazederachtreeazedarachtreeMelia_azederachtreeMelia_azedarachtreeChinese_parasol_treetreeChinese_parasoltreeJapanese_varnish_treetreephoenix_treetreeFirmiana_simplextreeChristmas_bushtreeChristmas_treetreeCeratopetalum_gummiferumtreecinchonatreechinchonatreeclusiatreecockspurtreePisonia_aculeatatreecocobolotreeDalbergia_retusatreecoffeetreecoffee_treetreeconacastetreeelephant's_eartreeEnterolobium_cyclocarpatreecoral_treetreeerythrinatreecoralwoodtreecoral-woodtreered_sandalwoodtreeBarbados_pridetreepeacock_flower_fencetreeAdenanthera_pavoninatreecork_treetreePhellodendron_amurensetreedagametreelemonwood_treetreeCalycophyllum_candidissimumtreedevilwoodtreeAmerican_olivetreeOsmanthus_americanustreedhaktreedaktreepalastreeButea_frondosatreeButea_monospermatreedhawatreedhavatreedipterocarptreeditatreedita_barktreedevil_treetreeAlstonia_scholaristreedivi-divitreeCaesalpinia_coriariatreeebonytreeebony_treetreeDiospyros_ebenumtreeelmtreeelm_treetreefever_treetreefig_treetreefringe_treetreegiant_chinkapintreegolden_chinkapintreeChrysolepis_chrysophyllatreeCastanea_chrysophyllatreeCastanopsis_chrysophyllatreegliricidiatreegranadilla_treetreegranadillotreeBrya_ebenustreeguamatreeInga_laurinatreeGuinea_peppertreenegro_peppertreeXylopia_aethiopicatreegum_treetreegumtreegutta-percha_treetreegutta-percha_treetreePalaquium_guttatreegymnospermous_treetreehackberrytreenettle_treetreehazeltreehazel_treetreePomaderris_apetalatreehop_hornbeamtreehornbeamtreeHydnocarpus_laurifoliatreeHydnocarpus_wightianatreeice-cream_beantreeInga_edulistreeidesiatreeIdesia_polycarpatreeincense_treetreeIndian_beechtreePongamia_glabratreeingatreeivory_treetreeconessitreekurchitreekurcheetreeHolarrhena_pubescenstreeHolarrhena_antidysentericatreeJamaica_dogwoodtreefish_fuddletreePiscidia_piscipulatreePiscidia_erythrinatreeJamaican_cherrytreecalabur_treetreecalaburatreesilk_woodtreesilkwoodtreeMuntingia_calaburatreeJapanese_pagoda_treetreeChinese_scholartreetreeChinese_scholar_treetreeSophora_japonicatreeSophora_sinensistreeKentucky_coffee_treetreebonductreechicottreeGymnocladus_dioicatreeketembillatreekitembillatreekitambillatreeketembilla_treetreeCeylon_gooseberrytreeDovyalis_hebecarpatreekeurboomtreeVirgilia_divaricatatreekeurboomtreeVirgilia_capensistreeVirgilia_oroboidestreekingwoodtreekingwood_treetreeDalbergia_cearensistreekinotreePterocarpus_marsupiumtreekowhaitreeSophora_tetrapteratreelacebarktreeribbonwoodtreehouheretreeHoheria_populneatreelancewoodtreelancewood_treetreeOxandra_lanceolatatreelanseh_treetreelangsattreelangsettreeLansium_domesticumtreelaurelwoodtreelancewood_treetreeCalophyllum_candidissimumtreelead_treetreewhite_popinactreeLeucaena_glaucatreeLeucaena_leucocephalatreelemonwoodtreelemon-woodtreelemonwood_treetreelemon-wood_treetreePsychotria_capensistreelepidobotrystreelindentreelinden_treetreebasswoodtreelimetreelime_treetreelocust_treetreelocusttreemahoganytreemahogany_treetreemanila_tamarindtreecamachiletreehuamachiltreewild_tamarindtreePithecellobium_dulcetreemarblewoodtreemarble-woodtreeAndaman_marbletreeDiospyros_kurziitreeMariatreeCalophyllum_longifoliumtreemarmalade_treetreemammeetreesapotetreePouteria_zapotatreeCalocarpum_zapotatreemayengtreemaple-leaved_bayurtreePterospermum_acerifoliumtreemescal_beantreecoral_beantreefrijolitotreefrijolillotreeSophora_secundifloratreemillettiatreeMontezumatreemsasatreeBrachystegia_speciformistreenakedwoodtreenecklace_treetreeneemtreeneem_treetreenim_treetreemargosatreearishthtreeAzadirachta_indicatreeMelia_Azadirachtatreenitta_treetreeoaktreeoak_treetreeoak_chestnuttreeobechetreeobechitreeareretreesambatreeTriplochiton_scleroxcylontreeopepetreeNauclea_diderrichiitreeSarcocephalus_diderrichiitreepadauktreepadouktreeamboynatreePterocarpus_indicustreepalmtreepalm_treetreepalo_verdetreeParkinsonia_floridatreeCercidium_floridumtreepandanustreescrew_pinetreepepper_treetreemolletreePeruvian_mastic_treetreeSchinus_molletreepepper_treetreeKirkia_wilmsiitreePeruvian_balsamtreeMyroxylon_pereiraetreeMyroxylon_balsamum_pereiraetreeplane_treetreesycamoretreeplatantreepollardtreepoontreeprickly_ashtreeprickly_ashtreeOrites_excelsatreeprincewoodtreeSpanish_elmtreeCordia_gerascanthustreepukatreeMeryta_sinclairiitreequandongtreequandangtreequandong_treetreeEucarya_acuminatatreeFusanus_acuminatustreequandongtreequandong_treetreeBrisbane_quandongtreesilver_quandong_treetreeblue_figtreeElaeocarpus_grandistreequiratreered_sandalwoodtreered_sanderstreered_sanderswoodtreered_saunderstreePterocarpus_santalinustreered_silk-cotton_treetreesimaltreeBombax_ceibatreeBombax_malabaricatreeribbon_treetreeribbonwoodtreePlagianthus_regiustreePlagianthus_betulinustreerose_chestnuttreeironwoodtreeironwood_treetreeMesua_ferreatreerosewoodtreerosewood_treetreesandalwood_treetreetrue_sandalwoodtreeSantalum_albumtreesaplingtreesatinwoodtreesatinwood_treetreeChloroxylon_swieteniatreescarlet_wisteria_treetreevegetable_hummingbirdtreeSesbania_grandifloratreescrub_beefwoodtreebeefwoodtreeStenocarpus_salignustreeshade_treetreeshaving-brush_treetreePseudobombax_ellipticumtreeshingle_treetreeAcrocarpus_fraxinifoliustreesilver_ashtreesilver_treetreeLeucadendron_argenteumtreesilver_treetreeTarrietia_argyrodendrontreesissootreesissutreesishamtreeDalbergia_sissootreesnagtreesoapberrytreesoapberry_treetreesouaritreesouari_nuttreesouari_treetreeCaryocar_nuciferumtreesouthern_beechtreeevergreen_beechtreeSpanish_tamarindtreeVangueria_madagascariensistreetanbark_oaktreeLithocarpus_densiflorustreeteaktreeTectona_grandistreetimber_treetreetiputreetipu_treetreeyellow_jacarandatreepride_of_Boliviatreetolu_treetreetolu_balsam_treetreeMyroxylon_balsamumtreeMyroxylon_toluiferumtreetree_of_knowledgetreetreelettreetrifoliate_orangetreetrifoliatatreewild_orangetreePoncirus_trifoliatatreetulipwood_treetreeturreaetreewheel_treetreefirewheel_treetreeStenocarpus_sinuatustreewhite_mangrovetreeAvicennia_officinalistreewhite_mangrovetreeLaguncularia_racemosatreewild_figtreeClusia_flavatreewild_medlartreewild_medlar_treetreemedlartreeVangueria_infaustatreewild_tamarindtreeLysiloma_latisiliquatreeLysiloma_bahamensistreewillowtreewillow_treetreewinter's_barktreewinter's_bark_treetreeDrimys_winteritreeyellowwoodtreeyellowwood_treetreezebrawoodtreezebrawood_tree
p13
sS'label'
p14
S'tree'
p15
sS'range'
p16
S'Species '
p17
sS'uniq_subjs'
p18
S'0'
sS'uniq_objs'
p19
I0
sS'prop_uri'
p20
S'http://dbpedia.org/ontology/tree'
p21
sS'annotations'
p22
(dp23
S'bag_of_words'
p24
(lp25
S'Place'
p26
aS'tree'
p27
aS'Species'
p28
aS'00'
p29
asS'chunk_seq'
p30
(lp31
S'B-NP'
p32
aS'I-NP'
p33
aS'E-NP'
p34
aS'O'
asS'dep_seq'
p35
(lp36
(lp37
S'root'
p38
aS'0'
aS'1'
aa(lp39
S'nn'
p40
aS'3'
aS'2'
aa(lp41
S'dep'
p42
aS'1'
aS'3'
aa(lp43
S'advmod'
p44
aS'1'
aS'4'
aasS'srls'
p45
(lp46
sS'pos_seq'
p47
(lp48
S'NN'
p49
aS'NN'
p50
aS'NNS'
p51
aS'CD'
p52
asS'ner_seq'
p53
(lp54
S'O'
aS'O'
aS'O'
aS'O'
assb.