ccopy_reg
_reconstructor
p1
(c__main__
KBproperty
p2
c__builtin__
object
p3
NtRp4
(dp5
S'comment'
p6
S'management elevation \\xce\\xbc'
p7
sS'domain'
p8
S''
sS'instances_count'
p9
I7
sS'phrases'
p10
NsS'syn_hypo'
p11
S''
sS'label'
p12
g7
sS'range'
p13
S'double '
p14
sS'uniq_subjs'
p15
S'7'
sS'uniq_objs'
p16
I0
sS'prop_uri'
p17
S'http://dbpedia.org/ontology/managementElevation'
p18
sS'annotations'
p19
(dp20
S'bag_of_words'
p21
(lp22
S'management'
p23
aS'Elevation'
p24
aS'double'
p25
aS'management'
p26
aS'elevation'
p27
aS'\\'
aS'xce'
p28
aS'\\'
aS'xbc'
p29
asS'chunk_seq'
p30
(lp31
S'B-NP'
p32
aS'I-NP'
p33
aS'I-NP'
p34
aS'I-NP'
p35
aS'E-NP'
p36
aS'O'
aS'O'
aS'O'
aS'O'
asS'dep_seq'
p37
(lp38
(lp39
S'nn'
p40
aS'5'
aS'1'
aa(lp41
S'nn'
p42
aS'5'
aS'2'
aa(lp43
S'amod'
p44
aS'5'
aS'3'
aa(lp45
S'nn'
p46
aS'5'
aS'4'
aa(lp47
S'root'
p48
aS'0'
aS'5'
aa(lp49
S'dep'
p50
aS'5'
aS'6'
aa(lp51
S'discourse'
p52
aS'5'
aS'7'
aa(lp53
S'dep'
p54
aS'7'
aS'8'
aa(lp55
S'dep'
p56
aS'7'
aS'9'
aasS'srls'
p57
(lp58
sS'pos_seq'
p59
(lp60
S'NN'
p61
aS'NN'
p62
aS'JJ'
p63
aS'NN'
p64
aS'NN'
p65
aS'FW'
p66
aS'FW'
p67
aS'FW'
p68
aS'FW'
p69
asS'ner_seq'
p70
(lp71
S'O'
aS'O'
aS'O'
aS'O'
aS'O'
aS'O'
aS'O'
aS'O'
aS'O'
assb.