ccopy_reg
_reconstructor
p1
(c__main__
KBproperty
p2
c__builtin__
object
p3
NtRp4
(dp5
S'comment'
p6
S'109'
p7
sS'domain'
p8
S'Locomotive '
p9
sS'instances_count'
p10
I8
sS'phrases'
p11
NsS'syn_hypo'
p12
Vauxiliary_boilerboilersteam_boilerdonkey_boiler
p13
sS'label'
p14
S'boiler'
p15
sS'range'
p16
S''
sS'uniq_subjs'
p17
S'8'
sS'uniq_objs'
p18
I0
sS'prop_uri'
p19
S'http://dbpedia.org/ontology/boiler'
p20
sS'annotations'
p21
(dp22
S'bag_of_words'
p23
(lp24
S'Locomotive'
p25
aS'boiler'
p26
aS'109'
p27
asS'chunk_seq'
p28
(lp29
S'B-NP'
p30
aS'E-NP'
p31
aS'S-ADJP'
p32
asS'dep_seq'
p33
(lp34
(lp35
S'nn'
p36
aS'2'
aS'1'
aa(lp37
S'root'
p38
aS'0'
aS'2'
aa(lp39
S'punct'
p40
aS'2'
aS'3'
aasS'srls'
p41
(lp42
sS'pos_seq'
p43
(lp44
S'NN'
p45
aS'NN'
p46
aS'.'
asS'ner_seq'
p47
(lp48
S'O'
aS'O'
aS'O'
assb.