ccopy_reg
_reconstructor
p1
(c__main__
KBproperty
p2
c__builtin__
object
p3
NtRp4
(dp5
S'comment'
p6
S'Current use of the architectural structure if it is currently being used as anything other than its original purpose.150144'
p7
sS'domain'
p8
S'Architectural Structure '
p9
sS'instances_count'
p10
I150
sS'phrases'
p11
NsS'syn_hypo'
p12
S''
sS'label'
p13
S'currently used for'
p14
sS'range'
p15
S'string '
p16
sS'uniq_subjs'
p17
S'101'
p18
sS'uniq_objs'
p19
I0
sS'prop_uri'
p20
S'http://dbpedia.org/ontology/currentlyUsedFor'
p21
sS'annotations'
p22
(dp23
S'bag_of_words'
p24
(lp25
S'Architectural'
p26
aS'Structure'
p27
aS'currently'
p28
aS'used'
p29
aS'for'
p30
aS'string'
p31
aS'Current'
p32
aS'use'
p33
aS'of'
p34
aS'the'
p35
aS'architectural'
p36
aS'structure'
p37
aS'if'
p38
aS'it'
p39
aS'is'
p40
aS'currently'
p41
aS'being'
p42
aS'used'
p43
aS'as'
p44
aS'anything'
p45
aS'other'
p46
aS'than'
p47
aS'its'
p48
aS'original'
p49
aS'purpose.150144'
p50
asS'chunk_seq'
p51
(lp52
S'B-NP'
p53
aS'E-NP'
p54
aS'B-VP'
p55
aS'E-VP'
p56
aS'S-PP'
p57
aS'B-NP'
p58
aS'I-NP'
p59
aS'E-NP'
p60
aS'S-PP'
p61
aS'B-NP'
p62
aS'I-NP'
p63
aS'E-NP'
p64
aS'S-SBAR'
p65
aS'S-NP'
p66
aS'B-VP'
p67
aS'I-VP'
p68
aS'I-VP'
p69
aS'E-VP'
p70
aS'S-PP'
p71
aS'S-NP'
p72
aS'S-ADJP'
p73
aS'S-PP'
p74
aS'B-NP'
p75
aS'I-NP'
p76
aS'E-NP'
p77
asS'dep_seq'
p78
(lp79
(lp80
S'nn'
p81
aS'2'
aS'1'
aa(lp82
S'root'
p83
aS'0'
aS'2'
aa(lp84
S'advmod'
p85
aS'4'
aS'3'
aa(lp86
S'partmod'
p87
aS'2'
aS'4'
aa(lp88
S'nn'
p89
aS'8'
aS'6'
aa(lp90
S'amod'
p91
aS'8'
aS'7'
aa(lp92
S'prep_for'
p93
aS'4'
aS'8'
aa(lp94
S'det'
p95
aS'12'
p96
aS'10'
p97
aa(lp98
S'amod'
p99
aS'12'
p100
aS'11'
p101
aa(lp102
S'prep_of'
p103
aS'8'
aS'12'
p104
aa(lp105
S'mark'
p106
aS'18'
p107
aS'13'
p108
aa(lp109
S'nsubjpass'
p110
aS'18'
p111
aS'14'
p112
aa(lp113
S'aux'
p114
aS'18'
p115
aS'15'
p116
aa(lp117
S'advmod'
p118
aS'18'
p119
aS'16'
p120
aa(lp121
S'auxpass'
p122
aS'18'
p123
aS'17'
p124
aa(lp125
S'dep'
p126
aS'2'
aS'18'
p127
aa(lp128
S'acomp'
p129
aS'18'
p130
aS'19'
p131
aa(lp132
S'pobj'
p133
aS'19'
p134
aS'20'
p135
aa(lp136
S'amod'
p137
aS'20'
p138
aS'21'
p139
aa(lp140
S'poss'
p141
aS'25'
p142
aS'23'
p143
aa(lp144
S'amod'
p145
aS'25'
p146
aS'24'
p147
aa(lp148
S'prep_than'
p149
aS'19'
p150
aS'25'
p151
aasS'srls'
p152
(lp153
(dp154
S'A1'
p155
S'Architectural Structure'
p156
sS'A2'
p157
S'for string Current use of the architectural structure'
p158
sS'AM-TMP'
p159
S'currently  if it is currently being used as anything other than its original purpose.150144'
p160
sS'V'
g29
sa(dp161
S'A1'
p162
g39
sS'A2'
p163
S'as anything other than its original purpose.150144'
p164
sS'AM-TMP'
p165
g41
sS'V'
g43
sasS'pos_seq'
p166
(lp167
S'NNP'
p168
aS'NNP'
p169
aS'RB'
p170
aS'VBN'
p171
aS'IN'
p172
aS'NN'
p173
aS'JJ'
p174
aS'NN'
p175
aS'IN'
p176
aS'DT'
p177
aS'JJ'
p178
aS'NN'
p179
aS'IN'
p180
aS'PRP'
p181
aS'VBZ'
p182
aS'RB'
p183
aS'VBG'
p184
aS'VBN'
p185
aS'IN'
p186
aS'NN'
p187
aS'JJ'
p188
aS'IN'
p189
aS'PRP$'
p190
aS'JJ'
p191
aS'NN'
p192
asS'ner_seq'
p193
(lp194
S'O'
aS'O'
aS'O'
aS'O'
aS'O'
aS'O'
aS'O'
aS'O'
aS'O'
aS'O'
aS'O'
aS'O'
aS'O'
aS'O'
aS'O'
aS'O'
aS'O'
aS'O'
aS'O'
aS'O'
aS'O'
aS'O'
aS'O'
aS'O'
aS'O'
assb.