ccopy_reg
_reconstructor
p1
(c__main__
KBproperty
p2
c__builtin__
object
p3
NtRp4
(dp5
S'comment'
p6
S'depiction description caption'
p7
sS'domain'
p8
S''
sS'instances_count'
p9
I2497
sS'phrases'
p10
NsS'syn_hypo'
p11
S''
sS'label'
p12
g7
sS'range'
p13
S'lang String '
p14
sS'uniq_subjs'
p15
S'2497'
p16
sS'uniq_objs'
p17
I0
sS'prop_uri'
p18
S'http://dbpedia.org/ontology/depictionDescription'
p19
sS'annotations'
p20
(dp21
S'bag_of_words'
p22
(lp23
S'depiction'
p24
aS'Description'
p25
aS'lang'
p26
aS'String'
p27
aS'depiction'
p28
aS'description'
p29
aS'caption'
p30
asS'chunk_seq'
p31
(lp32
S'B-NP'
p33
aS'I-NP'
p34
aS'I-NP'
p35
aS'I-NP'
p36
aS'I-NP'
p37
aS'I-NP'
p38
aS'E-NP'
p39
asS'dep_seq'
p40
(lp41
(lp42
S'nn'
p43
aS'7'
aS'1'
aa(lp44
S'nn'
p45
aS'7'
aS'2'
aa(lp46
S'amod'
p47
aS'7'
aS'3'
aa(lp48
S'nn'
p49
aS'7'
aS'4'
aa(lp50
S'nn'
p51
aS'7'
aS'5'
aa(lp52
S'nn'
p53
aS'7'
aS'6'
aa(lp54
S'root'
p55
aS'0'
aS'7'
aasS'srls'
p56
(lp57
(dp58
S'A1'
p59
S'String depiction description caption'
p60
sS'V'
g26
sasS'pos_seq'
p61
(lp62
S'NN'
p63
aS'NN'
p64
aS'VBG'
p65
aS'NN'
p66
aS'NN'
p67
aS'NN'
p68
aS'NN'
p69
asS'ner_seq'
p70
(lp71
S'O'
aS'O'
aS'B-PER'
p72
aS'E-PER'
p73
aS'O'
aS'O'
aS'O'
assb.