ccopy_reg
_reconstructor
p1
(c__main__
KBproperty
p2
c__builtin__
object
p3
NtRp4
(dp5
S'comment'
p6
S'1611111343'
p7
sS'domain'
p8
S''
sS'instances_count'
p9
I3268
sS'phrases'
p10
NsS'syn_hypo'
p11
Vbroadcasting_companycompanybureau_de_changecompanycar_companycompanyauto_companycompanyclosed_shopcompanycorporate_investorcompanydistributorcompanydot-comcompanydot_comcompanydot_com_companycompanydrug_companycompanypharmaceutical_companycompanypharmacompanyEast_India_Companycompanyelectronics_companycompanyfilm_companycompanyfood_companycompanyfurniture_companycompanyholding_companycompanyjoint-stock_companycompanylimited_companycompanyLtd.companyLd.companylivery_companycompanymining_companycompanymovercompanypublic_movercompanymoving_companycompanyremoval_firmcompanyremoval_companycompanyoil_companycompanyopen_shopcompanypackaging_companycompanypackaging_concerncompanypipeline_companycompanyprinting_concerncompanyprinting_businesscompanyprinting_companycompanyrecord_companycompanyservicecompanyshippercompanyshipping_companycompanysteel_companycompanystock_companycompanysubsidiary_companycompanysubsidiarycompanytarget_companycompanytakeover_targetcompanythink_tankcompanythink_factorycompanytransportation_companycompanyunion_shopcompanywhite_knight
p12
sS'label'
p13
S'company'
p14
sS'range'
p15
S'Organisation '
p16
sS'uniq_subjs'
p17
S'3268'
p18
sS'uniq_objs'
p19
I0
sS'prop_uri'
p20
S'http://dbpedia.org/ontology/company'
p21
sS'annotations'
p22
(dp23
S'bag_of_words'
p24
(lp25
S'company'
p26
aS'Organisation'
p27
aS'1611111343'
p28
asS'chunk_seq'
p29
(lp30
S'B-NP'
p31
aS'E-NP'
p32
aS'S-ADJP'
p33
asS'dep_seq'
p34
(lp35
(lp36
S'nn'
p37
aS'2'
aS'1'
aa(lp38
S'root'
p39
aS'0'
aS'2'
aa(lp40
S'punct'
p41
aS'2'
aS'3'
aasS'srls'
p42
(lp43
sS'pos_seq'
p44
(lp45
S'NN'
p46
aS'NN'
p47
aS'.'
asS'ner_seq'
p48
(lp49
S'O'
aS'O'
aS'O'
assb.