ccopy_reg
_reconstructor
p1
(c__main__
KBproperty
p2
c__builtin__
object
p3
NtRp4
(dp5
S'comment'
p6
S'displacement \\xce\\xbc\\xc2\\xb3'
p7
sS'domain'
p8
S'Automobile Engine '
p9
sS'instances_count'
p10
I1786
sS'phrases'
p11
NsS'syn_hypo'
p12
S''
sS'label'
p13
g7
sS'range'
p14
S'double '
p15
sS'uniq_subjs'
p16
S'1786'
p17
sS'uniq_objs'
p18
I0
sS'prop_uri'
p19
S'http://dbpedia.org/ontology/displacement'
p20
sS'annotations'
p21
(dp22
S'bag_of_words'
p23
(lp24
S'Automobile'
p25
aS'Engine'
p26
aS'displacement'
p27
aS'double'
p28
aS'displacement'
p29
aS'\\'
aS'xce'
p30
aS'\\'
aS'xbc'
p31
aS'\\'
aS'xc2'
p32
aS'\\'
aS'xb3'
p33
asS'chunk_seq'
p34
(lp35
S'B-NP'
p36
aS'I-NP'
p37
aS'I-NP'
p38
aS'I-NP'
p39
aS'E-NP'
p40
aS'O'
aS'O'
aS'O'
aS'O'
aS'O'
aS'O'
aS'O'
aS'O'
asS'dep_seq'
p41
(lp42
(lp43
S'nn'
p44
aS'3'
aS'1'
aa(lp45
S'nn'
p46
aS'3'
aS'2'
aa(lp47
S'root'
p48
aS'0'
aS'3'
aa(lp49
S'amod'
p50
aS'5'
aS'4'
aa(lp51
S'nn'
p52
aS'3'
aS'5'
aa(lp53
S'dep'
p54
aS'3'
aS'6'
aa(lp55
S'discourse'
p56
aS'3'
aS'7'
aa(lp57
S'dep'
p58
aS'7'
aS'8'
aa(lp59
S'dep'
p60
aS'7'
aS'9'
aa(lp61
S'dep'
p62
aS'7'
aS'10'
p63
aa(lp64
S'dep'
p65
aS'7'
aS'11'
p66
aa(lp67
S'dep'
p68
aS'7'
aS'12'
p69
aa(lp70
S'dep'
p71
aS'7'
aS'13'
p72
aasS'srls'
p73
(lp74
sS'pos_seq'
p75
(lp76
S'NN'
p77
aS'NN'
p78
aS'NN'
p79
aS'JJ'
p80
aS'NN'
p81
aS'FW'
p82
aS'FW'
p83
aS'FW'
p84
aS'FW'
p85
aS'FW'
p86
aS'FW'
p87
aS'FW'
p88
aS'FW'
p89
asS'ner_seq'
p90
(lp91
S'O'
aS'O'
aS'O'
aS'O'
aS'O'
aS'O'
aS'O'
aS'O'
aS'O'
aS'O'
aS'O'
aS'O'
aS'O'
assb.