ccopy_reg
_reconstructor
p1
(c__main__
KBproperty
p2
c__builtin__
object
p3
NtRp4
(dp5
S'comment'
p6
S'The date on which the broadcaster made its last broadcast.931859'
p7
sS'domain'
p8
S'Broadcaster '
p9
sS'instances_count'
p10
I695
sS'phrases'
p11
NsS'syn_hypo'
p12
S''
sS'label'
p13
S'last air date'
p14
sS'range'
p15
S'date '
p16
sS'uniq_subjs'
p17
S'695'
p18
sS'uniq_objs'
p19
I0
sS'prop_uri'
p20
S'http://dbpedia.org/ontology/lastAirDate'
p21
sS'annotations'
p22
(dp23
S'bag_of_words'
p24
(lp25
S'Broadcaster'
p26
aS'last'
p27
aS'air'
p28
aS'date'
p29
aS'date'
p30
aS'The'
p31
aS'date'
p32
aS'on'
p33
aS'which'
p34
aS'the'
p35
aS'broadcaster'
p36
aS'made'
p37
aS'its'
p38
aS'last'
p39
aS'broadcast.931859'
p40
asS'chunk_seq'
p41
(lp42
S'S-NP'
p43
aS'B-NP'
p44
aS'I-NP'
p45
aS'I-NP'
p46
aS'E-NP'
p47
aS'B-NP'
p48
aS'E-NP'
p49
aS'S-PP'
p50
aS'S-NP'
p51
aS'B-NP'
p52
aS'E-NP'
p53
aS'S-VP'
p54
aS'B-NP'
p55
aS'I-NP'
p56
aS'E-NP'
p57
asS'dep_seq'
p58
(lp59
(lp60
S'nn'
p61
aS'5'
aS'1'
aa(lp62
S'amod'
p63
aS'5'
aS'2'
aa(lp64
S'nn'
p65
aS'5'
aS'3'
aa(lp66
S'nn'
p67
aS'5'
aS'4'
aa(lp68
S'dep'
p69
aS'7'
aS'5'
aa(lp70
S'det'
p71
aS'7'
aS'6'
aa(lp72
S'root'
p73
aS'0'
aS'7'
aa(lp74
S'prep_on'
p75
aS'12'
p76
aS'7'
aa(lp77
S'rel'
p78
aS'12'
p79
aS'8'
aa(lp80
S'det'
p81
aS'11'
p82
aS'10'
p83
aa(lp84
S'nsubj'
p85
aS'12'
p86
aS'11'
p87
aa(lp88
S'rcmod'
p89
aS'7'
aS'12'
p90
aa(lp91
S'poss'
p92
aS'15'
p93
aS'13'
p94
aa(lp95
S'amod'
p96
aS'15'
p97
aS'14'
p98
aa(lp99
S'dobj'
p100
aS'12'
p101
aS'15'
p102
aasS'srls'
p103
(lp104
(dp105
S'A1'
p106
S'its last broadcast.931859'
p107
sS'A0'
p108
S'the broadcaster'
p109
sS'AM-TMP'
p110
S'last air date date  The date'
p111
sS'V'
g37
sasS'pos_seq'
p112
(lp113
S'NN'
p114
aS'JJ'
p115
aS'NN'
p116
aS'NN'
p117
aS'NN'
p118
aS'DT'
p119
aS'NN'
p120
aS'IN'
p121
aS'WDT'
p122
aS'DT'
p123
aS'NN'
p124
aS'VBD'
p125
aS'PRP$'
p126
aS'JJ'
p127
aS'NN'
p128
asS'ner_seq'
p129
(lp130
S'O'
aS'O'
aS'O'
aS'O'
aS'O'
aS'O'
aS'O'
aS'O'
aS'O'
aS'O'
aS'O'
aS'O'
aS'O'
aS'O'
aS'O'
assb.