ccopy_reg
_reconstructor
p1
(c__main__
KBproperty
p2
c__builtin__
object
p3
NtRp4
(dp5
S'comment'
p6
S'00'
p7
sS'domain'
p8
S'Person '
p9
sS'instances_count'
p10
I0
sS'phrases'
p11
NsS'syn_hypo'
p12
S''
sS'label'
p13
S'dead in fight place'
p14
sS'range'
p15
S'string '
p16
sS'uniq_subjs'
p17
S'0'
sS'uniq_objs'
p18
I0
sS'prop_uri'
p19
S'http://dbpedia.org/ontology/deadInFightPlace'
p20
sS'annotations'
p21
(dp22
S'bag_of_words'
p23
(lp24
S'Person'
p25
aS'dead'
p26
aS'in'
p27
aS'fight'
p28
aS'place'
p29
aS'string'
p30
aS'00'
p31
asS'chunk_seq'
p32
(lp33
S'S-NP'
p34
aS'S-ADJP'
p35
aS'S-PP'
p36
aS'B-NP'
p37
aS'I-NP'
p38
aS'E-NP'
p39
aS'O'
asS'dep_seq'
p40
(lp41
(lp42
S'root'
p43
aS'0'
aS'1'
aa(lp44
S'amod'
p45
aS'1'
aS'2'
aa(lp46
S'nn'
p47
aS'6'
aS'4'
aa(lp48
S'nn'
p49
aS'6'
aS'5'
aa(lp50
S'prep_in'
p51
aS'2'
aS'6'
aa(lp52
S'dep'
p53
aS'1'
aS'7'
aasS'srls'
p54
(lp55
sS'pos_seq'
p56
(lp57
S'NN'
p58
aS'JJ'
p59
aS'IN'
p60
aS'NN'
p61
aS'NN'
p62
aS'NN'
p63
aS'CD'
p64
asS'ner_seq'
p65
(lp66
S'O'
aS'O'
aS'O'
aS'O'
aS'O'
aS'O'
aS'O'
assb.