ccopy_reg
_reconstructor
p1
(c__main__
KBproperty
p2
c__builtin__
object
p3
NtRp4
(dp5
S'comment'
p6
S'125125'
p7
sS'domain'
p8
S'Automobile Engine '
p9
sS'instances_count'
p10
I7
sS'phrases'
p11
NsS'syn_hypo'
p12
S''
sS'label'
p13
S'cooling system'
p14
sS'range'
p15
S''
sS'uniq_subjs'
p16
S'7'
sS'uniq_objs'
p17
I0
sS'prop_uri'
p18
S'http://dbpedia.org/ontology/coolingSystem'
p19
sS'annotations'
p20
(dp21
S'bag_of_words'
p22
(lp23
S'Automobile'
p24
aS'Engine'
p25
aS'cooling'
p26
aS'system'
p27
aS'125125'
p28
asS'chunk_seq'
p29
(lp30
S'B-NP'
p31
aS'I-NP'
p32
aS'I-NP'
p33
aS'E-NP'
p34
aS'S-ADJP'
p35
asS'dep_seq'
p36
(lp37
(lp38
S'nn'
p39
aS'4'
aS'1'
aa(lp40
S'nn'
p41
aS'4'
aS'2'
aa(lp42
S'amod'
p43
aS'4'
aS'3'
aa(lp44
S'root'
p45
aS'0'
aS'4'
aa(lp46
S'punct'
p47
aS'4'
aS'5'
aasS'srls'
p48
(lp49
(dp50
S'A0'
p51
S'Automobile Engine system'
p52
sS'V'
g26
sasS'pos_seq'
p53
(lp54
S'NNP'
p55
aS'NNP'
p56
aS'VBG'
p57
aS'NN'
p58
aS'.'
asS'ner_seq'
p59
(lp60
S'O'
aS'O'
aS'O'
aS'O'
aS'O'
assb.