ccopy_reg
_reconstructor
p1
(c__main__
KBproperty
p2
c__builtin__
object
p3
NtRp4
(dp5
S'comment'
p6
S'is a measure of the inequality of a distribution. It is commonly used as a measure of inequality of income or wealth.00'
p7
sS'domain'
p8
S'Populated Place '
p9
sS'instances_count'
p10
I0
sS'phrases'
p11
NsS'syn_hypo'
p12
S''
sS'label'
p13
S'gini coefficient'
p14
sS'range'
p15
S'float '
p16
sS'uniq_subjs'
p17
S'0'
sS'uniq_objs'
p18
I0
sS'prop_uri'
p19
S'http://dbpedia.org/ontology/giniCoefficient'
p20
sS'annotations'
p21
(dp22
S'bag_of_words'
p23
(lp24
S'Populated'
p25
aS'Place'
p26
aS'gini'
p27
aS'coefficient'
p28
aS'float'
p29
aS'is'
p30
aS'a'
aS'measure'
p31
aS'of'
p32
aS'the'
p33
aS'inequality'
p34
aS'of'
p35
aS'a'
aS'distribution'
p36
aS'.'
aS'It'
p37
aS'is'
p38
aS'commonly'
p39
aS'used'
p40
aS'as'
p41
aS'a'
aS'measure'
p42
aS'of'
p43
aS'inequality'
p44
aS'of'
p45
aS'income'
p46
aS'or'
p47
aS'wealth.00'
p48
asS'chunk_seq'
p49
(lp50
S'B-NP'
p51
aS'I-NP'
p52
aS'I-NP'
p53
aS'E-NP'
p54
aS'S-NP'
p55
aS'S-VP'
p56
aS'B-NP'
p57
aS'E-NP'
p58
aS'S-PP'
p59
aS'B-NP'
p60
aS'E-NP'
p61
aS'S-PP'
p62
aS'B-NP'
p63
aS'E-NP'
p64
aS'O'
aS'S-NP'
p65
aS'B-VP'
p66
aS'I-VP'
p67
aS'E-VP'
p68
aS'S-PP'
p69
aS'B-NP'
p70
aS'E-NP'
p71
aS'S-PP'
p72
aS'S-NP'
p73
aS'S-PP'
p74
aS'B-NP'
p75
aS'I-NP'
p76
aS'E-NP'
p77
asS'dep_seq'
p78
(lp79
(lp80
S'amod'
p81
aS'4'
aS'1'
aa(lp82
S'nn'
p83
aS'4'
aS'2'
aa(lp84
S'nn'
p85
aS'4'
aS'3'
aa(lp86
S'nsubj'
p87
aS'8'
aS'4'
aa(lp88
S'dep'
p89
aS'8'
aS'5'
aa(lp90
S'cop'
p91
aS'8'
aS'6'
aa(lp92
S'det'
p93
aS'8'
aS'7'
aa(lp94
S'ccomp'
p95
aS'19'
p96
aS'8'
aa(lp97
S'det'
p98
aS'11'
p99
aS'10'
p100
aa(lp101
S'prep_of'
p102
aS'8'
aS'11'
p103
aa(lp104
S'det'
p105
aS'14'
p106
aS'13'
p107
aa(lp108
S'prep_of'
p109
aS'11'
p110
aS'14'
p111
aa(lp112
S'nsubjpass'
p113
aS'19'
p114
aS'16'
p115
aa(lp116
S'auxpass'
p117
aS'19'
p118
aS'17'
p119
aa(lp120
S'advmod'
p121
aS'19'
p122
aS'18'
p123
aa(lp124
S'root'
p125
aS'0'
aS'19'
p126
aa(lp127
S'det'
p128
aS'22'
p129
aS'21'
p130
aa(lp131
S'prep_as'
p132
aS'19'
p133
aS'22'
p134
aa(lp135
S'prep_of'
p136
aS'22'
p137
aS'24'
p138
aa(lp139
S'prep_of'
p140
aS'24'
p141
aS'26'
p142
aa(lp143
S'conj_or'
p144
aS'26'
p145
aS'28'
p146
aasS'srls'
p147
(lp148
(dp149
S'A1'
p150
g37
sS'AM-ADV'
p151
g39
sS'A2'
p152
S'as a measure of inequality of income or wealth.00'
p153
sS'V'
g40
sasS'pos_seq'
p154
(lp155
S'JJ'
p156
aS'NN'
p157
aS'NN'
p158
aS'NN'
p159
aS'NN'
p160
aS'VBZ'
p161
aS'DT'
p162
aS'NN'
p163
aS'IN'
p164
aS'DT'
p165
aS'NN'
p166
aS'IN'
p167
aS'DT'
p168
aS'NN'
p169
aS'.'
aS'PRP'
p170
aS'VBZ'
p171
aS'RB'
p172
aS'VBN'
p173
aS'IN'
p174
aS'DT'
p175
aS'NN'
p176
aS'IN'
p177
aS'NN'
p178
aS'IN'
p179
aS'NN'
p180
aS'CC'
p181
aS'NN'
p182
asS'ner_seq'
p183
(lp184
S'O'
aS'O'
aS'O'
aS'O'
aS'O'
aS'O'
aS'O'
aS'O'
aS'O'
aS'O'
aS'O'
aS'O'
aS'O'
aS'O'
aS'O'
aS'O'
aS'O'
aS'O'
aS'O'
aS'O'
aS'O'
aS'O'
aS'O'
aS'O'
aS'O'
aS'O'
aS'O'
aS'O'
assb.