ccopy_reg
_reconstructor
p1
(c__main__
KBproperty
p2
c__builtin__
object
p3
NtRp4
(dp5
S'comment'
p6
S'Place of residence of a person.6517043730'
p7
sS'domain'
p8
S'Person '
p9
sS'instances_count'
p10
I13457
sS'phrases'
p11
NsS'syn_hypo'
p12
Vdomicileresidenceabodelegal_residenceresidenceabodehomeresidenceabodeplace
p13
sS'label'
p14
S'residence'
p15
sS'range'
p16
S'Place '
p17
sS'uniq_subjs'
p18
S'13457'
p19
sS'uniq_objs'
p20
I0
sS'prop_uri'
p21
S'http://dbpedia.org/ontology/residence'
p22
sS'annotations'
p23
(dp24
S'bag_of_words'
p25
(lp26
S'Person'
p27
aS'residence'
p28
aS'Place'
p29
aS'Place'
p30
aS'of'
p31
aS'residence'
p32
aS'of'
p33
aS'a'
aS'person.6517043730'
p34
asS'chunk_seq'
p35
(lp36
S'B-NP'
p37
aS'I-NP'
p38
aS'I-NP'
p39
aS'E-NP'
p40
aS'S-PP'
p41
aS'S-NP'
p42
aS'S-PP'
p43
aS'B-NP'
p44
aS'E-NP'
p45
asS'dep_seq'
p46
(lp47
(lp48
S'nn'
p49
aS'4'
aS'1'
aa(lp50
S'nn'
p51
aS'4'
aS'2'
aa(lp52
S'nn'
p53
aS'4'
aS'3'
aa(lp54
S'root'
p55
aS'0'
aS'4'
aa(lp56
S'prep_of'
p57
aS'4'
aS'6'
aa(lp58
S'det'
p59
aS'9'
aS'8'
aa(lp60
S'prep_of'
p61
aS'4'
aS'9'
aasS'srls'
p62
(lp63
sS'pos_seq'
p64
(lp65
S'NN'
p66
aS'NN'
p67
aS'NNP'
p68
aS'NNP'
p69
aS'IN'
p70
aS'NN'
p71
aS'IN'
p72
aS'DT'
p73
aS'NN'
p74
asS'ner_seq'
p75
(lp76
S'O'
aS'O'
aS'O'
aS'O'
aS'O'
aS'O'
aS'O'
aS'O'
aS'O'
assb.