ccopy_reg
_reconstructor
p1
(c__main__
KBproperty
p2
c__builtin__
object
p3
NtRp4
(dp5
S'comment'
p6
S'International Standard Serial Number ISSN127398660'
p7
sS'domain'
p8
S'Periodical Literature '
p9
sS'instances_count'
p10
I12707
sS'phrases'
p11
NsS'syn_hypo'
p12
S''
sS'label'
p13
S'issn'
p14
sS'range'
p15
S'string '
p16
sS'uniq_subjs'
p17
S'12707'
p18
sS'uniq_objs'
p19
I0
sS'prop_uri'
p20
S'http://dbpedia.org/ontology/issn'
p21
sS'annotations'
p22
(dp23
S'bag_of_words'
p24
(lp25
S'Periodical'
p26
aS'Literature'
p27
aS'issn'
p28
aS'string'
p29
aS'International'
p30
aS'Standard'
p31
aS'Serial'
p32
aS'Number'
p33
aS'ISSN127398660'
p34
asS'chunk_seq'
p35
(lp36
S'B-NP'
p37
aS'I-NP'
p38
aS'I-NP'
p39
aS'I-NP'
p40
aS'I-NP'
p41
aS'I-NP'
p42
aS'I-NP'
p43
aS'I-NP'
p44
aS'E-NP'
p45
asS'dep_seq'
p46
(lp47
(lp48
S'nn'
p49
aS'2'
aS'1'
aa(lp50
S'root'
p51
aS'0'
aS'2'
aa(lp52
S'nn'
p53
aS'9'
aS'3'
aa(lp54
S'nn'
p55
aS'9'
aS'4'
aa(lp56
S'nn'
p57
aS'9'
aS'5'
aa(lp58
S'nn'
p59
aS'9'
aS'6'
aa(lp60
S'nn'
p61
aS'9'
aS'7'
aa(lp62
S'nn'
p63
aS'9'
aS'8'
aa(lp64
S'dep'
p65
aS'2'
aS'9'
aasS'srls'
p66
(lp67
sS'pos_seq'
p68
(lp69
S'NNP'
p70
aS'NNP'
p71
aS'NN'
p72
aS'NN'
p73
aS'NNP'
p74
aS'NNP'
p75
aS'NNP'
p76
aS'NNP'
p77
aS'NNP'
p78
asS'ner_seq'
p79
(lp80
S'B-MISC'
p81
aS'E-MISC'
p82
aS'O'
aS'O'
aS'B-MISC'
p83
aS'I-MISC'
p84
aS'I-MISC'
p85
aS'I-MISC'
p86
aS'E-MISC'
p87
assb.