ccopy_reg
_reconstructor
p1
(c__main__
KBproperty
p2
c__builtin__
object
p3
NtRp4
(dp5
S'comment'
p6
S'11571152'
p7
sS'domain'
p8
S'Athlete '
p9
sS'instances_count'
p10
I357
sS'phrases'
p11
NsS'syn_hypo'
p12
S''
sS'label'
p13
S'wins'
p14
sS'range'
p15
S'non Negative Integer '
p16
sS'uniq_subjs'
p17
S'357'
p18
sS'uniq_objs'
p19
I0
sS'prop_uri'
p20
S'http://dbpedia.org/ontology/wins'
p21
sS'annotations'
p22
(dp23
S'bag_of_words'
p24
(lp25
S'Athlete'
p26
aS'wins'
p27
aS'non'
p28
aS'Negative'
p29
aS'Integer'
p30
aS'11571152'
p31
asS'chunk_seq'
p32
(lp33
S'S-NP'
p34
aS'S-VP'
p35
aS'B-NP'
p36
aS'I-NP'
p37
aS'I-NP'
p38
aS'E-NP'
p39
asS'dep_seq'
p40
(lp41
(lp42
S'nsubj'
p43
aS'2'
aS'1'
aa(lp44
S'root'
p45
aS'0'
aS'2'
aa(lp46
S'amod'
p47
aS'6'
aS'3'
aa(lp48
S'amod'
p49
aS'6'
aS'4'
aa(lp50
S'nn'
p51
aS'6'
aS'5'
aa(lp52
S'dobj'
p53
aS'2'
aS'6'
aasS'srls'
p54
(lp55
(dp56
S'A1'
p57
S'non Negative Integer 11571152'
p58
sS'A0'
p59
g26
sS'V'
g27
sasS'pos_seq'
p60
(lp61
S'NN'
p62
aS'VBZ'
p63
aS'JJ'
p64
aS'JJ'
p65
aS'NN'
p66
aS'NN'
p67
asS'ner_seq'
p68
(lp69
S'O'
aS'O'
aS'O'
aS'O'
aS'O'
aS'O'
assb.