ccopy_reg
_reconstructor
p1
(c__main__
KBproperty
p2
c__builtin__
object
p3
NtRp4
(dp5
S'comment'
p6
S'22'
p7
sS'domain'
p8
S'Olympic Result '
p9
sS'instances_count'
p10
I2
sS'phrases'
p11
NsS'syn_hypo'
p12
S''
sS'label'
p13
S'number of officials'
p14
sS'range'
p15
S'non Negative Integer '
p16
sS'uniq_subjs'
p17
S'2'
sS'uniq_objs'
p18
I0
sS'prop_uri'
p19
S'http://dbpedia.org/ontology/numberOfOfficials'
p20
sS'annotations'
p21
(dp22
S'bag_of_words'
p23
(lp24
S'Olympic'
p25
aS'Result'
p26
aS'number'
p27
aS'of'
p28
aS'officials'
p29
aS'non'
p30
aS'Negative'
p31
aS'Integer'
p32
aS'22'
p33
asS'chunk_seq'
p34
(lp35
S'B-NP'
p36
aS'I-NP'
p37
aS'E-NP'
p38
aS'S-PP'
p39
aS'S-NP'
p40
aS'B-NP'
p41
aS'I-NP'
p42
aS'I-NP'
p43
aS'E-NP'
p44
asS'dep_seq'
p45
(lp46
(lp47
S'nn'
p48
aS'3'
aS'1'
aa(lp49
S'nn'
p50
aS'3'
aS'2'
aa(lp51
S'root'
p52
aS'0'
aS'3'
aa(lp53
S'prep_of'
p54
aS'3'
aS'5'
aa(lp55
S'dep'
p56
aS'9'
aS'6'
aa(lp57
S'amod'
p58
aS'9'
aS'7'
aa(lp59
S'nn'
p60
aS'9'
aS'8'
aa(lp61
S'dep'
p62
aS'3'
aS'9'
aasS'srls'
p63
(lp64
sS'pos_seq'
p65
(lp66
S'NNP'
p67
aS'NNP'
p68
aS'NN'
p69
aS'IN'
p70
aS'NNS'
p71
aS'VBP'
p72
aS'JJ'
p73
aS'NN'
p74
aS'NN'
p75
asS'ner_seq'
p76
(lp77
S'S-MISC'
p78
aS'O'
aS'O'
aS'O'
aS'O'
aS'O'
aS'O'
aS'O'
aS'O'
assb.