ccopy_reg
_reconstructor
p1
(c__main__
KBproperty
p2
c__builtin__
object
p3
NtRp4
(dp5
S'comment'
p6
S'green coordinate in the RGB space'
p7
sS'domain'
p8
S'Colour '
p9
sS'instances_count'
p10
I233
sS'phrases'
p11
NsS'syn_hypo'
p12
S''
sS'label'
p13
g7
sS'range'
p14
S'non Negative Integer '
p15
sS'uniq_subjs'
p16
S'233'
p17
sS'uniq_objs'
p18
I0
sS'prop_uri'
p19
S'http://dbpedia.org/ontology/rgbCoordinateGreen'
p20
sS'annotations'
p21
(dp22
S'bag_of_words'
p23
(lp24
S'Colour'
p25
aS'rgb'
p26
aS'Coordinate'
p27
aS'Green'
p28
aS'non'
p29
aS'Negative'
p30
aS'Integer'
p31
aS'green'
p32
aS'coordinate'
p33
aS'in'
p34
aS'the'
p35
aS'RGB'
p36
aS'space'
p37
asS'chunk_seq'
p38
(lp39
S'B-NP'
p40
aS'I-NP'
p41
aS'I-NP'
p42
aS'I-NP'
p43
aS'I-NP'
p44
aS'I-NP'
p45
aS'I-NP'
p46
aS'I-NP'
p47
aS'E-NP'
p48
aS'S-PP'
p49
aS'B-NP'
p50
aS'I-NP'
p51
aS'E-NP'
p52
asS'dep_seq'
p53
(lp54
(lp55
S'nn'
p56
aS'2'
aS'1'
aa(lp57
S'dep'
p58
aS'9'
aS'2'
aa(lp59
S'nn'
p60
aS'9'
aS'3'
aa(lp61
S'amod'
p62
aS'5'
aS'4'
aa(lp63
S'amod'
p64
aS'9'
aS'5'
aa(lp65
S'nn'
p66
aS'9'
aS'6'
aa(lp67
S'nn'
p68
aS'9'
aS'7'
aa(lp69
S'amod'
p70
aS'9'
aS'8'
aa(lp71
S'root'
p72
aS'0'
aS'9'
aa(lp73
S'det'
p74
aS'13'
p75
aS'11'
p76
aa(lp77
S'nn'
p78
aS'13'
p79
aS'12'
p80
aa(lp81
S'prep_in'
p82
aS'9'
aS'13'
p83
aasS'srls'
p84
(lp85
sS'pos_seq'
p86
(lp87
S'NN'
p88
aS'NN'
p89
aS'NNP'
p90
aS'NNP'
p91
aS'JJ'
p92
aS'NNP'
p93
aS'NNP'
p94
aS'JJ'
p95
aS'NN'
p96
aS'IN'
p97
aS'DT'
p98
aS'NNP'
p99
aS'NN'
p100
asS'ner_seq'
p101
(lp102
S'O'
aS'O'
aS'B-MISC'
p103
aS'I-MISC'
p104
aS'I-MISC'
p105
aS'I-MISC'
p106
aS'E-MISC'
p107
aS'O'
aS'O'
aS'O'
aS'O'
aS'O'
aS'O'
assb.