ccopy_reg
_reconstructor
p1
(c__main__
KBproperty
p2
c__builtin__
object
p3
NtRp4
(dp5
S'comment'
p6
S'Rank of something among other things of the same kind eg Constellations by Area; MusicalAlbums by popularity etc00'
p7
sS'domain'
p8
S''
sS'instances_count'
p9
I0
sS'phrases'
p10
NsS'syn_hypo'
p11
V
sS'label'
p12
S'rank'
p13
sS'range'
p14
S'string '
p15
sS'uniq_subjs'
p16
S'0'
sS'uniq_objs'
p17
I0
sS'prop_uri'
p18
S'http://dbpedia.org/ontology/rank'
p19
sS'annotations'
p20
(dp21
S'bag_of_words'
p22
(lp23
S'rank'
p24
aS'string'
p25
aS'Rank'
p26
aS'of'
p27
aS'something'
p28
aS'among'
p29
aS'other'
p30
aS'things'
p31
aS'of'
p32
aS'the'
p33
aS'same'
p34
aS'kind'
p35
aS'eg'
p36
aS'Constellations'
p37
aS'by'
p38
aS'Area'
p39
aS';'
aS'MusicalAlbums'
p40
aS'by'
p41
aS'popularity'
p42
aS'etc00'
p43
asS'chunk_seq'
p44
(lp45
S'B-NP'
p46
aS'I-NP'
p47
aS'E-NP'
p48
aS'S-PP'
p49
aS'S-NP'
p50
aS'S-PP'
p51
aS'B-NP'
p52
aS'E-NP'
p53
aS'S-PP'
p54
aS'B-NP'
p55
aS'I-NP'
p56
aS'I-NP'
p57
aS'I-NP'
p58
aS'E-NP'
p59
aS'S-PP'
p60
aS'S-NP'
p61
aS'O'
aS'S-NP'
p62
aS'S-PP'
p63
aS'S-NP'
p64
aS'S-ADJP'
p65
asS'dep_seq'
p66
(lp67
(lp68
S'nn'
p69
aS'3'
aS'1'
aa(lp70
S'nn'
p71
aS'3'
aS'2'
aa(lp72
S'root'
p73
aS'0'
aS'3'
aa(lp74
S'prep_of'
p75
aS'3'
aS'5'
aa(lp76
S'amod'
p77
aS'8'
aS'7'
aa(lp78
S'prep_among'
p79
aS'3'
aS'8'
aa(lp80
S'det'
p81
aS'12'
p82
aS'10'
p83
aa(lp84
S'amod'
p85
aS'12'
p86
aS'11'
p87
aa(lp88
S'nn'
p89
aS'13'
p90
aS'12'
p91
aa(lp92
S'prep_of'
p93
aS'8'
aS'13'
p94
aa(lp95
S'dep'
p96
aS'13'
p97
aS'14'
p98
aa(lp99
S'prep_by'
p100
aS'13'
p101
aS'16'
p102
aa(lp103
S'dep'
p104
aS'3'
aS'18'
p105
aa(lp106
S'prep_by'
p107
aS'18'
p108
aS'20'
p109
aa(lp110
S'punct'
p111
aS'20'
p112
aS'21'
p113
aasS'srls'
p114
(lp115
sS'pos_seq'
p116
(lp117
S'NN'
p118
aS'NN'
p119
aS'NN'
p120
aS'IN'
p121
aS'NN'
p122
aS'IN'
p123
aS'JJ'
p124
aS'NNS'
p125
aS'IN'
p126
aS'DT'
p127
aS'JJ'
p128
aS'NN'
p129
aS'NN'
p130
aS'NNS'
p131
aS'IN'
p132
aS'NNP'
p133
aS':'
aS'NNS'
p134
aS'IN'
p135
aS'NN'
p136
aS'.'
asS'ner_seq'
p137
(lp138
S'O'
aS'O'
aS'O'
aS'O'
aS'O'
aS'O'
aS'O'
aS'O'
aS'O'
aS'O'
aS'O'
aS'O'
aS'O'
aS'O'
aS'O'
aS'O'
aS'O'
aS'S-ORG'
p139
aS'O'
aS'O'
aS'O'
assb.