ccopy_reg
_reconstructor
p1
(c__main__
KBproperty
p2
c__builtin__
object
p3
NtRp4
(dp5
S'comment'
p6
S'71266323'
p7
sS'domain'
p8
S'School '
p9
sS'instances_count'
p10
I4216
sS'phrases'
p11
NsS'syn_hypo'
p12
S''
sS'label'
p13
S'team name'
p14
sS'range'
p15
S'lang String '
p16
sS'uniq_subjs'
p17
S'4216'
p18
sS'uniq_objs'
p19
I0
sS'prop_uri'
p20
S'http://dbpedia.org/ontology/teamName'
p21
sS'annotations'
p22
(dp23
S'bag_of_words'
p24
(lp25
S'School'
p26
aS'team'
p27
aS'name'
p28
aS'lang'
p29
aS'String'
p30
aS'71266323'
p31
asS'chunk_seq'
p32
(lp33
S'B-NP'
p34
aS'E-NP'
p35
aS'S-VP'
p36
aS'B-NP'
p37
aS'I-NP'
p38
aS'E-NP'
p39
asS'dep_seq'
p40
(lp41
(lp42
S'nn'
p43
aS'2'
aS'1'
aa(lp44
S'nsubj'
p45
aS'3'
aS'2'
aa(lp46
S'root'
p47
aS'0'
aS'3'
aa(lp48
S'amod'
p49
aS'6'
aS'4'
aa(lp50
S'nn'
p51
aS'6'
aS'5'
aa(lp52
S'dobj'
p53
aS'3'
aS'6'
aasS'srls'
p54
(lp55
(dp56
S'A0'
p57
S'School team'
p58
sS'A2'
p59
S'lang String 71266323'
p60
sS'V'
g28
sasS'pos_seq'
p61
(lp62
S'NN'
p63
aS'NN'
p64
aS'VBP'
p65
aS'VBG'
p66
aS'NN'
p67
aS'NN'
p68
asS'ner_seq'
p69
(lp70
S'O'
aS'O'
aS'O'
aS'B-PER'
p71
aS'E-PER'
p72
aS'O'
assb.