ccopy_reg
_reconstructor
p1
(c__main__
KBproperty
p2
c__builtin__
object
p3
NtRp4
(dp5
S'comment'
p6
S'The start date of the event.94449184'
p7
sS'domain'
p8
S'Event '
p9
sS'instances_count'
p10
I4382
sS'phrases'
p11
NsS'syn_hypo'
p12
S''
sS'label'
p13
S'start date'
p14
sS'range'
p15
S'date '
p16
sS'uniq_subjs'
p17
S'4382'
p18
sS'uniq_objs'
p19
I0
sS'prop_uri'
p20
S'http://dbpedia.org/ontology/startDate'
p21
sS'annotations'
p22
(dp23
S'bag_of_words'
p24
(lp25
S'Event'
p26
aS'start'
p27
aS'date'
p28
aS'date'
p29
aS'The'
p30
aS'start'
p31
aS'date'
p32
aS'of'
p33
aS'the'
p34
aS'event.94449184'
p35
asS'chunk_seq'
p36
(lp37
S'S-NP'
p38
aS'S-VP'
p39
aS'B-NP'
p40
aS'E-NP'
p41
aS'B-NP'
p42
aS'I-NP'
p43
aS'E-NP'
p44
aS'S-PP'
p45
aS'B-NP'
p46
aS'E-NP'
p47
asS'dep_seq'
p48
(lp49
(lp50
S'nn'
p51
aS'4'
aS'1'
aa(lp52
S'dep'
p53
aS'4'
aS'2'
aa(lp54
S'nn'
p55
aS'4'
aS'3'
aa(lp56
S'dep'
p57
aS'7'
aS'4'
aa(lp58
S'det'
p59
aS'7'
aS'5'
aa(lp60
S'nn'
p61
aS'7'
aS'6'
aa(lp62
S'root'
p63
aS'0'
aS'7'
aa(lp64
S'det'
p65
aS'10'
p66
aS'9'
aa(lp67
S'prep_of'
p68
aS'7'
aS'10'
p69
aasS'srls'
p70
(lp71
(dp72
S'A1'
p73
g26
sS'AM-TMP'
p74
S'date date The start date of the event.94449184'
p75
sS'V'
g27
sasS'pos_seq'
p76
(lp77
S'NN'
p78
aS'VBP'
p79
aS'NN'
p80
aS'NN'
p81
aS'DT'
p82
aS'NN'
p83
aS'NN'
p84
aS'IN'
p85
aS'DT'
p86
aS'NN'
p87
asS'ner_seq'
p88
(lp89
S'O'
aS'O'
aS'O'
aS'O'
aS'O'
aS'O'
aS'O'
aS'O'
aS'O'
aS'O'
assb.