ccopy_reg
_reconstructor
p1
(c__main__
KBproperty
p2
c__builtin__
object
p3
NtRp4
(dp5
S'comment'
p6
S'00'
p7
sS'domain'
p8
S'Place '
p9
sS'instances_count'
p10
I0
sS'phrases'
p11
NsS'syn_hypo'
p12
S''
sS'label'
p13
S'sovereign country'
p14
sS'range'
p15
S'Populated Place '
p16
sS'uniq_subjs'
p17
S'0'
sS'uniq_objs'
p18
I0
sS'prop_uri'
p19
S'http://dbpedia.org/ontology/sovereignCountry'
p20
sS'annotations'
p21
(dp22
S'bag_of_words'
p23
(lp24
S'Place'
p25
aS'sovereign'
p26
aS'country'
p27
aS'Populated'
p28
aS'Place'
p29
aS'00'
p30
asS'chunk_seq'
p31
(lp32
S'B-NP'
p33
aS'I-NP'
p34
aS'I-NP'
p35
aS'I-NP'
p36
aS'E-NP'
p37
aS'O'
asS'dep_seq'
p38
(lp39
(lp40
S'nn'
p41
aS'5'
aS'1'
aa(lp42
S'amod'
p43
aS'5'
aS'2'
aa(lp44
S'nn'
p45
aS'5'
aS'3'
aa(lp46
S'amod'
p47
aS'5'
aS'4'
aa(lp48
S'root'
p49
aS'0'
aS'5'
aa(lp50
S'num'
p51
aS'5'
aS'6'
aasS'srls'
p52
(lp53
(dp54
S'A1'
p55
S'Place sovereign country'
p56
sS'A2'
p57
S'Place 00'
p58
sS'V'
g28
sasS'pos_seq'
p59
(lp60
S'NN'
p61
aS'JJ'
p62
aS'NN'
p63
aS'VBN'
p64
aS'NN'
p65
aS'CD'
p66
asS'ner_seq'
p67
(lp68
S'O'
aS'O'
aS'O'
aS'O'
aS'O'
aS'O'
assb.