ccopy_reg
_reconstructor
p1
(c__main__
KBproperty
p2
c__builtin__
object
p3
NtRp4
(dp5
S'comment'
p6
S'A road that crosses another road at the junction.13263'
p7
sS'domain'
p8
S'Road Junction '
p9
sS'instances_count'
p10
I115
sS'phrases'
p11
NsS'syn_hypo'
p12
S''
sS'label'
p13
S'meeting road'
p14
sS'range'
p15
S'Road '
p16
sS'uniq_subjs'
p17
S'115'
p18
sS'uniq_objs'
p19
I0
sS'prop_uri'
p20
S'http://dbpedia.org/ontology/meetingRoad'
p21
sS'annotations'
p22
(dp23
S'bag_of_words'
p24
(lp25
S'Road'
p26
aS'Junction'
p27
aS'meeting'
p28
aS'road'
p29
aS'Road'
p30
aS'A'
aS'road'
p31
aS'that'
p32
aS'crosses'
p33
aS'another'
p34
aS'road'
p35
aS'at'
p36
aS'the'
p37
aS'junction.13263'
p38
asS'chunk_seq'
p39
(lp40
S'B-NP'
p41
aS'I-NP'
p42
aS'I-NP'
p43
aS'I-NP'
p44
aS'E-NP'
p45
aS'B-NP'
p46
aS'E-NP'
p47
aS'S-NP'
p48
aS'S-VP'
p49
aS'B-NP'
p50
aS'E-NP'
p51
aS'S-PP'
p52
aS'B-NP'
p53
aS'E-NP'
p54
asS'dep_seq'
p55
(lp56
(lp57
S'nn'
p58
aS'5'
aS'1'
aa(lp59
S'nn'
p60
aS'5'
aS'2'
aa(lp61
S'nn'
p62
aS'5'
aS'3'
aa(lp63
S'nn'
p64
aS'5'
aS'4'
aa(lp65
S'dep'
p66
aS'7'
aS'5'
aa(lp67
S'det'
p68
aS'7'
aS'6'
aa(lp69
S'root'
p70
aS'0'
aS'7'
aa(lp71
S'nsubj'
p72
aS'9'
aS'7'
aa(lp73
S'rcmod'
p74
aS'7'
aS'9'
aa(lp75
S'det'
p76
aS'11'
p77
aS'10'
p78
aa(lp79
S'dobj'
p80
aS'9'
aS'11'
p81
aa(lp82
S'det'
p83
aS'14'
p84
aS'13'
p85
aa(lp86
S'prep_at'
p87
aS'11'
p88
aS'14'
p89
aasS'srls'
p90
(lp91
(dp92
S'A1'
p93
S'another road'
p94
sS'A0'
p95
S'Road Junction meeting road Road A road'
p96
sS'R-A0'
p97
g32
sS'AM-LOC'
p98
S'at the junction.13263'
p99
sS'V'
g33
sasS'pos_seq'
p100
(lp101
S'NNP'
p102
aS'NNP'
p103
aS'NN'
p104
aS'NN'
p105
aS'NN'
p106
aS'DT'
p107
aS'NN'
p108
aS'WDT'
p109
aS'VBZ'
p110
aS'DT'
p111
aS'NN'
p112
aS'IN'
p113
aS'DT'
p114
aS'NN'
p115
asS'ner_seq'
p116
(lp117
S'B-ORG'
p118
aS'E-ORG'
p119
aS'O'
aS'O'
aS'O'
aS'O'
aS'O'
aS'O'
aS'O'
aS'O'
aS'O'
aS'O'
aS'O'
aS'O'
assb.