ccopy_reg
_reconstructor
p1
(c__main__
KBproperty
p2
c__builtin__
object
p3
NtRp4
(dp5
S'comment'
p6
S'A religious administrative body needs to know which places of worship it00'
p7
sS'domain'
p8
S'Clerical Administrative Region '
p9
sS'instances_count'
p10
I0
sS'phrases'
p11
NsS'syn_hypo'
p12
S''
sS'label'
p13
S'place of worship'
p14
sS'range'
p15
S'Church '
p16
sS'uniq_subjs'
p17
S'0'
sS'uniq_objs'
p18
I0
sS'prop_uri'
p19
S'http://dbpedia.org/ontology/placeOfWorship'
p20
sS'annotations'
p21
(dp22
S'bag_of_words'
p23
(lp24
S'Clerical'
p25
aS'Administrative'
p26
aS'Region'
p27
aS'place'
p28
aS'of'
p29
aS'worship'
p30
aS'Church'
p31
aS'A'
aS'religious'
p32
aS'administrative'
p33
aS'body'
p34
aS'needs'
p35
aS'to'
p36
aS'know'
p37
aS'which'
p38
aS'places'
p39
aS'of'
p40
aS'worship'
p41
aS'it00'
p42
asS'chunk_seq'
p43
(lp44
S'B-NP'
p45
aS'I-NP'
p46
aS'I-NP'
p47
aS'E-NP'
p48
aS'S-PP'
p49
aS'B-NP'
p50
aS'E-NP'
p51
aS'B-NP'
p52
aS'I-NP'
p53
aS'I-NP'
p54
aS'E-NP'
p55
aS'S-VP'
p56
aS'B-VP'
p57
aS'E-VP'
p58
aS'S-NP'
p59
aS'S-NP'
p60
aS'S-PP'
p61
aS'B-NP'
p62
aS'E-NP'
p63
asS'dep_seq'
p64
(lp65
(lp66
S'nn'
p67
aS'4'
aS'1'
aa(lp68
S'nn'
p69
aS'4'
aS'2'
aa(lp70
S'nn'
p71
aS'4'
aS'3'
aa(lp72
S'dep'
p73
aS'13'
p74
aS'4'
aa(lp75
S'nn'
p76
aS'7'
aS'6'
aa(lp77
S'prep_of'
p78
aS'4'
aS'7'
aa(lp79
S'det'
p80
aS'11'
p81
aS'8'
aa(lp82
S'amod'
p83
aS'11'
p84
aS'9'
aa(lp85
S'amod'
p86
aS'11'
p87
aS'10'
p88
aa(lp89
S'dep'
p90
aS'13'
p91
aS'11'
p92
aa(lp93
S'dep'
p94
aS'13'
p95
aS'12'
p96
aa(lp97
S'root'
p98
aS'0'
aS'13'
p99
aa(lp100
S'dep'
p101
aS'13'
p102
aS'14'
p103
aa(lp104
S'dep'
p105
aS'13'
p106
aS'15'
p107
aa(lp108
S'dep'
p109
aS'15'
p110
aS'16'
p111
aa(lp112
S'nn'
p113
aS'19'
p114
aS'18'
p115
aa(lp116
S'prep_of'
p117
aS'16'
p118
aS'19'
p119
aasS'srls'
p120
(lp121
(dp122
S'A0'
p123
S'Clerical Administrative Region place of worship Church A religious administrative body'
p124
sS'AM-PNC'
p125
S'to know which places of worship it00'
p126
sS'V'
g35
sa(dp127
S'A1'
p128
S'which places of worship it00'
p129
sS'A0'
p130
S'A religious administrative body'
p131
sS'V'
g37
sasS'pos_seq'
p132
(lp133
S'NNP'
p134
aS'NNP'
p135
aS'NNP'
p136
aS'NN'
p137
aS'IN'
p138
aS'NN'
p139
aS'NN'
p140
aS'DT'
p141
aS'JJ'
p142
aS'JJ'
p143
aS'NN'
p144
aS'VBZ'
p145
aS'TO'
p146
aS'VB'
p147
aS'WDT'
p148
aS'NNS'
p149
aS'IN'
p150
aS'NN'
p151
aS'NN'
p152
asS'ner_seq'
p153
(lp154
S'O'
aS'B-MISC'
p155
aS'E-MISC'
p156
aS'O'
aS'O'
aS'O'
aS'O'
aS'O'
aS'O'
aS'O'
aS'O'
aS'O'
aS'O'
aS'O'
aS'O'
aS'O'
aS'O'
aS'O'
aS'O'
assb.