ccopy_reg
_reconstructor
p1
(c__main__
KBproperty
p2
c__builtin__
object
p3
NtRp4
(dp5
S'comment'
p6
S'A member of the band.2837310830'
p7
sS'domain'
p8
S'Band '
p9
sS'instances_count'
p10
I23198
sS'phrases'
p11
NsS'syn_hypo'
p12
S''
sS'label'
p13
S'band member'
p14
sS'range'
p15
S'Person '
p16
sS'uniq_subjs'
p17
S'23198'
p18
sS'uniq_objs'
p19
I0
sS'prop_uri'
p20
S'http://dbpedia.org/ontology/bandMember'
p21
sS'annotations'
p22
(dp23
S'bag_of_words'
p24
(lp25
S'Band'
p26
aS'band'
p27
aS'member'
p28
aS'Person'
p29
aS'A'
aS'member'
p30
aS'of'
p31
aS'the'
p32
aS'band.2837310830'
p33
asS'chunk_seq'
p34
(lp35
S'B-NP'
p36
aS'I-NP'
p37
aS'I-NP'
p38
aS'E-NP'
p39
aS'B-NP'
p40
aS'E-NP'
p41
aS'S-PP'
p42
aS'B-NP'
p43
aS'E-NP'
p44
asS'dep_seq'
p45
(lp46
(lp47
S'nn'
p48
aS'4'
aS'1'
aa(lp49
S'nn'
p50
aS'4'
aS'2'
aa(lp51
S'nn'
p52
aS'4'
aS'3'
aa(lp53
S'dep'
p54
aS'6'
aS'4'
aa(lp55
S'det'
p56
aS'6'
aS'5'
aa(lp57
S'root'
p58
aS'0'
aS'6'
aa(lp59
S'det'
p60
aS'9'
aS'8'
aa(lp61
S'prep_of'
p62
aS'6'
aS'9'
aasS'srls'
p63
(lp64
sS'pos_seq'
p65
(lp66
S'NN'
p67
aS'NN'
p68
aS'NN'
p69
aS'NN'
p70
aS'DT'
p71
aS'NN'
p72
aS'IN'
p73
aS'DT'
p74
aS'NN'
p75
asS'ner_seq'
p76
(lp77
S'O'
aS'O'
aS'O'
aS'O'
aS'O'
aS'O'
aS'O'
aS'O'
aS'O'
assb.