ccopy_reg
_reconstructor
p1
(c__main__
KBproperty
p2
c__builtin__
object
p3
NtRp4
(dp5
S'comment'
p6
S'00'
p7
sS'domain'
p8
S'Military Unit '
p9
sS'instances_count'
p10
I0
sS'phrases'
p11
NsS'syn_hypo'
p12
S''
sS'label'
p13
S'flying hours s'
p14
sS'range'
p15
S'double '
p16
sS'uniq_subjs'
p17
S'0'
sS'uniq_objs'
p18
I0
sS'prop_uri'
p19
S'http://dbpedia.org/ontology/flyingHours'
p20
sS'annotations'
p21
(dp22
S'bag_of_words'
p23
(lp24
S'Military'
p25
aS'Unit'
p26
aS'flying'
p27
aS'hours'
p28
aS's'
aS'double'
p29
aS'00'
p30
asS'chunk_seq'
p31
(lp32
S'B-NP'
p33
aS'E-NP'
p34
aS'S-VP'
p35
aS'S-NP'
p36
aS'B-NP'
p37
aS'E-NP'
p38
aS'O'
asS'dep_seq'
p39
(lp40
(lp41
S'nn'
p42
aS'2'
aS'1'
aa(lp43
S'nsubj'
p44
aS'3'
aS'2'
aa(lp45
S'root'
p46
aS'0'
aS'3'
aa(lp47
S'iobj'
p48
aS'3'
aS'4'
aa(lp49
S'advmod'
p50
aS'7'
aS'5'
aa(lp51
S'advmod'
p52
aS'7'
aS'6'
aa(lp53
S'dobj'
p54
aS'3'
aS'7'
aasS'srls'
p55
(lp56
(dp57
S'A1'
p58
S'hours s double 00'
p59
sS'A0'
p60
S'Military Unit'
p61
sS'V'
g27
sasS'pos_seq'
p62
(lp63
S'NNP'
p64
aS'NNP'
p65
aS'VBG'
p66
aS'NNS'
p67
aS'RB'
p68
aS'RB'
p69
aS'CD'
p70
asS'ner_seq'
p71
(lp72
S'O'
aS'O'
aS'O'
aS'O'
aS'O'
aS'O'
aS'O'
assb.