ccopy_reg
_reconstructor
p1
(c__main__
KBproperty
p2
c__builtin__
object
p3
NtRp4
(dp5
S'comment'
p6
S'00'
p7
sS'domain'
p8
S'Space Mission '
p9
sS'instances_count'
p10
I0
sS'phrases'
p11
NsS'syn_hypo'
p12
S''
sS'label'
p13
S'lunar rover'
p14
sS'range'
p15
S'Mean Of Transportation '
p16
sS'uniq_subjs'
p17
S'0'
sS'uniq_objs'
p18
I0
sS'prop_uri'
p19
S'http://dbpedia.org/ontology/lunarRover'
p20
sS'annotations'
p21
(dp22
S'bag_of_words'
p23
(lp24
S'Space'
p25
aS'Mission'
p26
aS'lunar'
p27
aS'rover'
p28
aS'Mean'
p29
aS'Of'
p30
aS'Transportation'
p31
aS'00'
p32
asS'chunk_seq'
p33
(lp34
S'B-NP'
p35
aS'I-NP'
p36
aS'I-NP'
p37
aS'I-NP'
p38
aS'E-NP'
p39
aS'S-PP'
p40
aS'S-NP'
p41
aS'S-NP'
p42
asS'dep_seq'
p43
(lp44
(lp45
S'nn'
p46
aS'5'
aS'1'
aa(lp47
S'nn'
p48
aS'5'
aS'2'
aa(lp49
S'amod'
p50
aS'5'
aS'3'
aa(lp51
S'nn'
p52
aS'5'
aS'4'
aa(lp53
S'dep'
p54
aS'8'
aS'5'
aa(lp55
S'prep_of'
p56
aS'5'
aS'7'
aa(lp57
S'root'
p58
aS'0'
aS'8'
aasS'srls'
p59
(lp60
sS'pos_seq'
p61
(lp62
S'NNP'
p63
aS'NNP'
p64
aS'JJ'
p65
aS'NN'
p66
aS'NNP'
p67
aS'IN'
p68
aS'NNP'
p69
aS'CD'
p70
asS'ner_seq'
p71
(lp72
S'O'
aS'O'
aS'O'
aS'O'
aS'B-ORG'
p73
aS'I-ORG'
p74
aS'E-ORG'
p75
aS'O'
assb.