ccopy_reg
_reconstructor
p1
(c__main__
KBproperty
p2
c__builtin__
object
p3
NtRp4
(dp5
S'comment'
p6
S'814812'
p7
sS'domain'
p8
S'Site Of Special Scientific Interest '
p9
sS'instances_count'
p10
I18
sS'phrases'
p11
NsS'syn_hypo'
p12
Vconcerninterestinvolvemententhusiasm
p13
sS'label'
p14
S'interest'
p15
sS'range'
p16
S'string '
p17
sS'uniq_subjs'
p18
S'18'
p19
sS'uniq_objs'
p20
I0
sS'prop_uri'
p21
S'http://dbpedia.org/ontology/interest'
p22
sS'annotations'
p23
(dp24
S'bag_of_words'
p25
(lp26
S'Site'
p27
aS'Of'
p28
aS'Special'
p29
aS'Scientific'
p30
aS'Interest'
p31
aS'interest'
p32
aS'string'
p33
aS'814812'
p34
asS'chunk_seq'
p35
(lp36
S'S-NP'
p37
aS'S-PP'
p38
aS'B-NP'
p39
aS'I-NP'
p40
aS'I-NP'
p41
aS'I-NP'
p42
aS'I-NP'
p43
aS'E-NP'
p44
asS'dep_seq'
p45
(lp46
(lp47
S'root'
p48
aS'0'
aS'1'
aa(lp49
S'nn'
p50
aS'8'
aS'3'
aa(lp51
S'nn'
p52
aS'8'
aS'4'
aa(lp53
S'nn'
p54
aS'8'
aS'5'
aa(lp55
S'nn'
p56
aS'8'
aS'6'
aa(lp57
S'nn'
p58
aS'8'
aS'7'
aa(lp59
S'prep_of'
p60
aS'1'
aS'8'
aasS'srls'
p61
(lp62
sS'pos_seq'
p63
(lp64
S'NN'
p65
aS'IN'
p66
aS'NNP'
p67
aS'NNP'
p68
aS'NNP'
p69
aS'NN'
p70
aS'NN'
p71
aS'NN'
p72
asS'ner_seq'
p73
(lp74
S'O'
aS'O'
aS'O'
aS'O'
aS'O'
aS'O'
aS'O'
aS'O'
assb.