ccopy_reg
_reconstructor
p1
(c__main__
KBproperty
p2
c__builtin__
object
p3
NtRp4
(dp5
S'comment'
p6
S'Gaud\\xc3\\xad Award'
p7
sS'domain'
p8
S'Artist '
p9
sS'instances_count'
p10
I0
sS'phrases'
p11
NsS'syn_hypo'
p12
S''
sS'label'
p13
g7
sS'range'
p14
S'Award '
p15
sS'uniq_subjs'
p16
S'0'
sS'uniq_objs'
p17
I0
sS'prop_uri'
p18
S'http://dbpedia.org/ontology/gaudiAward'
p19
sS'annotations'
p20
(dp21
S'bag_of_words'
p22
(lp23
S'Artist'
p24
aS'gaudi'
p25
aS'Award'
p26
aS'Award'
p27
aS'Gaud'
p28
aS'\\'
aS'xc3'
p29
aS'\\'
aS'xad'
p30
aS'Award'
p31
asS'chunk_seq'
p32
(lp33
S'B-NP'
p34
aS'I-NP'
p35
aS'I-NP'
p36
aS'I-NP'
p37
aS'E-NP'
p38
aS'O'
aS'O'
aS'O'
aS'O'
aS'O'
asS'dep_seq'
p39
(lp40
(lp41
S'nn'
p42
aS'10'
p43
aS'1'
aa(lp44
S'nn'
p45
aS'10'
p46
aS'2'
aa(lp47
S'nn'
p48
aS'10'
p49
aS'3'
aa(lp50
S'nn'
p51
aS'10'
p52
aS'4'
aa(lp53
S'nn'
p54
aS'10'
p55
aS'5'
aa(lp56
S'nn'
p57
aS'10'
p58
aS'6'
aa(lp59
S'nn'
p60
aS'10'
p61
aS'7'
aa(lp62
S'nn'
p63
aS'10'
p64
aS'8'
aa(lp65
S'nn'
p66
aS'10'
p67
aS'9'
aa(lp68
S'root'
p69
aS'0'
aS'10'
p70
aasS'srls'
p71
(lp72
sS'pos_seq'
p73
(lp74
S'NNP'
p75
aS'NNP'
p76
aS'NNP'
p77
aS'NNP'
p78
aS'NNP'
p79
aS'FW'
p80
aS'FW'
p81
aS'FW'
p82
aS'FW'
p83
aS'NNP'
p84
asS'ner_seq'
p85
(lp86
S'O'
aS'O'
aS'O'
aS'O'
aS'S-PER'
p87
aS'O'
aS'O'
aS'O'
aS'O'
aS'O'
assb.