ccopy_reg
_reconstructor
p1
(c__main__
KBproperty
p2
c__builtin__
object
p3
NtRp4
(dp5
S'comment'
p6
S'NLA Trove\\xe2\\x80\\x99s People and Organisation view allows the discovery of biographical and other contextual information about people and organisations. Search also available via VIAF.2424'
p7
sS'domain'
p8
S''
sS'instances_count'
p9
I24
sS'phrases'
p10
NsS'syn_hypo'
p11
S''
sS'label'
p12
S'NLA Id'
p13
sS'range'
p14
S'string '
p15
sS'uniq_subjs'
p16
S'24'
p17
sS'uniq_objs'
p18
I0
sS'prop_uri'
p19
S'http://dbpedia.org/ontology/nlaId'
p20
sS'annotations'
p21
(dp22
S'bag_of_words'
p23
(lp24
S'NLA'
p25
aS'Id'
p26
aS'string'
p27
aS'NLA'
p28
aS'Trove'
p29
aS'\\'
aS'xe2'
p30
aS'\\'
aS'x80'
p31
aS'\\'
aS'x99s'
p32
aS'People'
p33
aS'and'
p34
aS'Organisation'
p35
aS'view'
p36
aS'allows'
p37
aS'the'
p38
aS'discovery'
p39
aS'of'
p40
aS'biographical'
p41
aS'and'
p42
aS'other'
p43
aS'contextual'
p44
aS'information'
p45
aS'about'
p46
aS'people'
p47
aS'and'
p48
aS'organisations'
p49
aS'.'
aS'Search'
p50
aS'also'
p51
aS'available'
p52
aS'via'
p53
aS'VIAF.2424'
p54
asS'chunk_seq'
p55
(lp56
S'B-NP'
p57
aS'I-NP'
p58
aS'I-NP'
p59
aS'I-NP'
p60
aS'E-NP'
p61
aS'O'
aS'O'
aS'O'
aS'O'
aS'O'
aS'O'
aS'S-NP'
p62
aS'O'
aS'B-NP'
p63
aS'E-NP'
p64
aS'S-VP'
p65
aS'B-NP'
p66
aS'E-NP'
p67
aS'S-PP'
p68
aS'B-NP'
p69
aS'I-NP'
p70
aS'I-NP'
p71
aS'I-NP'
p72
aS'E-NP'
p73
aS'S-PP'
p74
aS'B-NP'
p75
aS'I-NP'
p76
aS'E-NP'
p77
aS'O'
aS'S-NP'
p78
aS'S-ADVP'
p79
aS'S-ADJP'
p80
aS'S-PP'
p81
aS'S-NP'
p82
asS'dep_seq'
p83
(lp84
(lp85
S'nn'
p86
aS'12'
p87
aS'1'
aa(lp88
S'nn'
p89
aS'12'
p90
aS'2'
aa(lp91
S'nn'
p92
aS'12'
p93
aS'3'
aa(lp94
S'nn'
p95
aS'12'
p96
aS'4'
aa(lp97
S'nn'
p98
aS'12'
p99
aS'5'
aa(lp100
S'nn'
p101
aS'12'
p102
aS'6'
aa(lp103
S'nn'
p104
aS'12'
p105
aS'7'
aa(lp106
S'nn'
p107
aS'12'
p108
aS'8'
aa(lp109
S'nn'
p110
aS'12'
p111
aS'9'
aa(lp112
S'nn'
p113
aS'12'
p114
aS'10'
p115
aa(lp116
S'amod'
p117
aS'12'
p118
aS'11'
p119
aa(lp120
S'root'
p121
aS'0'
aS'12'
p122
aa(lp123
S'nn'
p124
aS'15'
p125
aS'14'
p126
aa(lp127
S'conj_and'
p128
aS'12'
p129
aS'15'
p130
aa(lp131
S'dep'
p132
aS'12'
p133
aS'16'
p134
aa(lp135
S'det'
p136
aS'18'
p137
aS'17'
p138
aa(lp139
S'dep'
p140
aS'12'
p141
aS'18'
p142
aa(lp143
S'prep_of'
p144
aS'12'
p145
aS'20'
p146
aa(lp147
S'amod'
p148
aS'24'
p149
aS'22'
p150
aa(lp151
S'amod'
p152
aS'24'
p153
aS'23'
p154
aa(lp155
S'conj_and'
p156
aS'12'
p157
aS'24'
p158
aa(lp159
S'prep_about'
p160
aS'24'
p161
aS'26'
p162
aa(lp163
S'conj_and'
p164
aS'26'
p165
aS'28'
p166
aa(lp167
S'dep'
p168
aS'32'
p169
aS'30'
p170
aa(lp171
S'advmod'
p172
aS'32'
p173
aS'31'
p174
aa(lp175
S'dep'
p176
aS'12'
p177
aS'32'
p178
aa(lp179
S'prep_via'
p180
aS'32'
p181
aS'34'
p182
aasS'srls'
p183
(lp184
(dp185
S'A1'
p186
S'the discovery of biographical and other contextual information about people and organisations'
p187
sS'A0'
p188
S'NLA Id string NLA Trove \\ xe2 \\ x80 \\ x99s People and Organisation view'
p189
sS'V'
g37
sasS'pos_seq'
p190
(lp191
S'NNP'
p192
aS'NNP'
p193
aS'NN'
p194
aS'NNP'
p195
aS'NNP'
p196
aS'FW'
p197
aS'FW'
p198
aS'FW'
p199
aS'FW'
p200
aS'FW'
p201
aS'JJ'
p202
aS'NNS'
p203
aS'CC'
p204
aS'NNP'
p205
aS'NN'
p206
aS'VBZ'
p207
aS'DT'
p208
aS'NN'
p209
aS'IN'
p210
aS'JJ'
p211
aS'CC'
p212
aS'JJ'
p213
aS'JJ'
p214
aS'NN'
p215
aS'IN'
p216
aS'NNS'
p217
aS'CC'
p218
aS'NNS'
p219
aS'.'
aS'NNP'
p220
aS'RB'
p221
aS'JJ'
p222
aS'IN'
p223
aS'NN'
p224
asS'ner_seq'
p225
(lp226
S'S-MISC'
p227
aS'O'
aS'O'
aS'B-ORG'
p228
aS'E-ORG'
p229
aS'O'
aS'O'
aS'O'
aS'O'
aS'O'
aS'O'
aS'O'
aS'O'
aS'S-ORG'
p230
aS'O'
aS'O'
aS'O'
aS'O'
aS'O'
aS'O'
aS'O'
aS'O'
aS'O'
aS'O'
aS'O'
aS'O'
aS'O'
aS'O'
aS'O'
aS'O'
aS'O'
aS'O'
aS'O'
aS'S-ORG'
p231
assb.