ccopy_reg
_reconstructor
p1
(c__main__
KBproperty
p2
c__builtin__
object
p3
NtRp4
(dp5
S'comment'
p6
S'34203420'
p7
sS'domain'
p8
S'Tennis Player '
p9
sS'instances_count'
p10
I3400
sS'phrases'
p11
NsS'syn_hypo'
p12
S''
sS'label'
p13
S'career prize money $'
p14
sS'range'
p15
S'double '
p16
sS'uniq_subjs'
p17
S'3400'
p18
sS'uniq_objs'
p19
I0
sS'prop_uri'
p20
S'http://dbpedia.org/ontology/careerPrizeMoney'
p21
sS'annotations'
p22
(dp23
S'bag_of_words'
p24
(lp25
S'Tennis'
p26
aS'Player'
p27
aS'career'
p28
aS'prize'
p29
aS'money'
p30
aS'$'
aS'double'
p31
aS'34203420'
p32
asS'chunk_seq'
p33
(lp34
S'B-NP'
p35
aS'I-NP'
p36
aS'I-NP'
p37
aS'I-NP'
p38
aS'I-NP'
p39
aS'I-NP'
p40
aS'I-NP'
p41
aS'E-NP'
p42
asS'dep_seq'
p43
(lp44
(lp45
S'nn'
p46
aS'5'
aS'1'
aa(lp47
S'nn'
p48
aS'5'
aS'2'
aa(lp49
S'nn'
p50
aS'5'
aS'3'
aa(lp51
S'nn'
p52
aS'5'
aS'4'
aa(lp53
S'dep'
p54
aS'6'
aS'5'
aa(lp55
S'root'
p56
aS'0'
aS'6'
aa(lp57
S'amod'
p58
aS'6'
aS'7'
aa(lp59
S'num'
p60
aS'6'
aS'8'
aasS'srls'
p61
(lp62
sS'pos_seq'
p63
(lp64
S'NNP'
p65
aS'NNP'
p66
aS'NN'
p67
aS'NN'
p68
aS'NN'
p69
aS'$'
aS'JJ'
p70
aS'CD'
p71
asS'ner_seq'
p72
(lp73
S'O'
aS'O'
aS'O'
aS'O'
aS'O'
aS'O'
aS'O'
aS'O'
assb.