ccopy_reg
_reconstructor
p1
(c__main__
KBproperty
p2
c__builtin__
object
p3
NtRp4
(dp5
S'comment'
p6
S'target space station station'
p7
sS'domain'
p8
S'Spacecraft '
p9
sS'instances_count'
p10
I0
sS'phrases'
p11
NsS'syn_hypo'
p12
S''
sS'label'
p13
g7
sS'range'
p14
S'Space Station '
p15
sS'uniq_subjs'
p16
S'0'
sS'uniq_objs'
p17
I0
sS'prop_uri'
p18
S'http://dbpedia.org/ontology/targetSpaceStation'
p19
sS'annotations'
p20
(dp21
S'bag_of_words'
p22
(lp23
S'Spacecraft'
p24
aS'target'
p25
aS'Space'
p26
aS'Station'
p27
aS'Space'
p28
aS'Station'
p29
aS'target'
p30
aS'space'
p31
aS'station'
p32
aS'station'
p33
asS'chunk_seq'
p34
(lp35
S'B-NP'
p36
aS'I-NP'
p37
aS'I-NP'
p38
aS'I-NP'
p39
aS'I-NP'
p40
aS'I-NP'
p41
aS'I-NP'
p42
aS'I-NP'
p43
aS'I-NP'
p44
aS'E-NP'
p45
asS'dep_seq'
p46
(lp47
(lp48
S'nn'
p49
aS'10'
p50
aS'1'
aa(lp51
S'nn'
p52
aS'10'
p53
aS'2'
aa(lp54
S'nn'
p55
aS'10'
p56
aS'3'
aa(lp57
S'nn'
p58
aS'10'
p59
aS'4'
aa(lp60
S'nn'
p61
aS'10'
p62
aS'5'
aa(lp63
S'nn'
p64
aS'10'
p65
aS'6'
aa(lp66
S'nn'
p67
aS'10'
p68
aS'7'
aa(lp69
S'nn'
p70
aS'10'
p71
aS'8'
aa(lp72
S'nn'
p73
aS'10'
p74
aS'9'
aa(lp75
S'root'
p76
aS'0'
aS'10'
p77
aasS'srls'
p78
(lp79
sS'pos_seq'
p80
(lp81
S'NN'
p82
aS'NN'
p83
aS'NNP'
p84
aS'NNP'
p85
aS'NNP'
p86
aS'NNP'
p87
aS'NN'
p88
aS'NN'
p89
aS'NN'
p90
aS'NN'
p91
asS'ner_seq'
p92
(lp93
S'O'
aS'O'
aS'B-ORG'
p94
aS'I-ORG'
p95
aS'I-ORG'
p96
aS'E-ORG'
p97
aS'O'
aS'O'
aS'O'
aS'O'
assb.