ccopy_reg
_reconstructor
p1
(c__main__
KBproperty
p2
c__builtin__
object
p3
NtRp4
(dp5
S'comment'
p6
S'4291725759'
p7
sS'domain'
p8
S'Organisation '
p9
sS'instances_count'
p10
I7830
sS'phrases'
p11
NsS'syn_hypo'
p12
S''
sS'label'
p13
S'headquarter'
p14
sS'range'
p15
S'Populated Place '
p16
sS'uniq_subjs'
p17
S'7830'
p18
sS'uniq_objs'
p19
I0
sS'prop_uri'
p20
S'http://dbpedia.org/ontology/headquarter'
p21
sS'annotations'
p22
(dp23
S'bag_of_words'
p24
(lp25
S'Organisation'
p26
aS'headquarter'
p27
aS'Populated'
p28
aS'Place'
p29
aS'4291725759'
p30
asS'chunk_seq'
p31
(lp32
S'S-NP'
p33
aS'S-VP'
p34
aS'B-NP'
p35
aS'I-NP'
p36
aS'E-NP'
p37
asS'dep_seq'
p38
(lp39
(lp40
S'nsubj'
p41
aS'2'
aS'1'
aa(lp42
S'root'
p43
aS'0'
aS'2'
aa(lp44
S'amod'
p45
aS'5'
aS'3'
aa(lp46
S'nn'
p47
aS'5'
aS'4'
aa(lp48
S'dobj'
p49
aS'2'
aS'5'
aasS'srls'
p50
(lp51
(dp52
S'A1'
p53
S'Populated Place 4291725759'
p54
sS'A0'
p55
g26
sS'V'
g27
sasS'pos_seq'
p56
(lp57
S'NN'
p58
aS'VBP'
p59
aS'JJ'
p60
aS'NN'
p61
aS'NN'
p62
asS'ner_seq'
p63
(lp64
S'O'
aS'O'
aS'O'
aS'O'
aS'O'
assb.