ccopy_reg
_reconstructor
p1
(c__main__
KBproperty
p2
c__builtin__
object
p3
NtRp4
(dp5
S'comment'
p6
S'Reserved for DBpedia.1476266260712'
p7
sS'domain'
p8
S''
sS'instances_count'
p9
I1334582
sS'phrases'
p10
NsS'syn_hypo'
p11
S''
sS'label'
p12
S'Wikipage disambiguates'
p13
sS'range'
p14
S''
sS'uniq_subjs'
p15
S'1334582'
p16
sS'uniq_objs'
p17
I0
sS'prop_uri'
p18
S'http://dbpedia.org/ontology/wikiPageDisambiguates'
p19
sS'annotations'
p20
(dp21
S'bag_of_words'
p22
(lp23
S'Wikipage'
p24
aS'disambiguates'
p25
aS'Reserved'
p26
aS'for'
p27
aS'DBpedia.1476266260712'
p28
asS'chunk_seq'
p29
(lp30
S'B-NP'
p31
aS'E-NP'
p32
aS'S-VP'
p33
aS'S-PP'
p34
aS'S-NP'
p35
asS'dep_seq'
p36
(lp37
(lp38
S'nn'
p39
aS'2'
aS'1'
aa(lp40
S'nsubj'
p41
aS'3'
aS'2'
aa(lp42
S'root'
p43
aS'0'
aS'3'
aa(lp44
S'prep_for'
p45
aS'3'
aS'5'
aasS'srls'
p46
(lp47
(dp48
S'A2'
p49
S'Wikipage disambiguates  for DBpedia.1476266260712'
p50
sS'V'
g26
sasS'pos_seq'
p51
(lp52
S'NNP'
p53
aS'NNS'
p54
aS'VBN'
p55
aS'IN'
p56
aS'NNP'
p57
asS'ner_seq'
p58
(lp59
S'O'
aS'O'
aS'O'
aS'O'
aS'S-PER'
p60
assb.