ccopy_reg
_reconstructor
p1
(c__main__
KBproperty
p2
c__builtin__
object
p3
NtRp4
(dp5
S'comment'
p6
S'The Simplified Molecular-Input Line-Entry System or SMILES is a specification in form of a line notation for describing the structure of chemical molecules using short ASCII strings.11'
p7
sS'domain'
p8
S'Chemical Compound '
p9
sS'instances_count'
p10
I1
sS'phrases'
p11
NsS'syn_hypo'
p12
S''
sS'label'
p13
S'SMILES'
p14
sS'range'
p15
S'string '
p16
sS'uniq_subjs'
p17
S'1'
sS'uniq_objs'
p18
I0
sS'prop_uri'
p19
S'http://dbpedia.org/ontology/smiles'
p20
sS'annotations'
p21
(dp22
S'bag_of_words'
p23
(lp24
S'Chemical'
p25
aS'Compound'
p26
aS'SMILES'
p27
aS'string'
p28
aS'The'
p29
aS'Simplified'
p30
aS'Molecular'
p31
aS'-'
aS'Input'
p32
aS'Line'
p33
aS'-'
aS'Entry'
p34
aS'System'
p35
aS'or'
p36
aS'SMILES'
p37
aS'is'
p38
aS'a'
aS'specification'
p39
aS'in'
p40
aS'form'
p41
aS'of'
p42
aS'a'
aS'line'
p43
aS'notation'
p44
aS'for'
p45
aS'describing'
p46
aS'the'
p47
aS'structure'
p48
aS'of'
p49
aS'chemical'
p50
aS'molecules'
p51
aS'using'
p52
aS'short'
p53
aS'ASCII'
p54
aS'strings.11'
p55
asS'chunk_seq'
p56
(lp57
S'B-NP'
p58
aS'E-NP'
p59
aS'S-VP'
p60
aS'S-NP'
p61
aS'B-NP'
p62
aS'I-NP'
p63
aS'I-NP'
p64
aS'I-NP'
p65
aS'I-NP'
p66
aS'E-NP'
p67
aS'O'
aS'B-NP'
p68
aS'E-NP'
p69
aS'O'
aS'S-NP'
p70
aS'S-VP'
p71
aS'B-NP'
p72
aS'E-NP'
p73
aS'S-PP'
p74
aS'S-NP'
p75
aS'S-PP'
p76
aS'B-NP'
p77
aS'I-NP'
p78
aS'E-NP'
p79
aS'S-PP'
p80
aS'S-VP'
p81
aS'B-NP'
p82
aS'E-NP'
p83
aS'S-PP'
p84
aS'B-NP'
p85
aS'E-NP'
p86
aS'S-VP'
p87
aS'B-NP'
p88
aS'I-NP'
p89
aS'E-NP'
p90
asS'dep_seq'
p91
(lp92
(lp93
S'nn'
p94
aS'4'
aS'1'
aa(lp95
S'nn'
p96
aS'4'
aS'2'
aa(lp97
S'dep'
p98
aS'4'
aS'3'
aa(lp99
S'nsubj'
p100
aS'18'
p101
aS'4'
aa(lp102
S'det'
p103
aS'10'
p104
aS'5'
aa(lp105
S'amod'
p106
aS'10'
p107
aS'6'
aa(lp108
S'nn'
p109
aS'10'
p110
aS'7'
aa(lp111
S'nn'
p112
aS'10'
p113
aS'9'
aa(lp114
S'nsubj'
p115
aS'18'
p116
aS'10'
p117
aa(lp118
S'nn'
p119
aS'13'
p120
aS'12'
p121
aa(lp122
S'conj_or'
p123
aS'10'
p124
aS'13'
p125
aa(lp126
S'conj_or'
p127
aS'10'
p128
aS'15'
p129
aa(lp130
S'cop'
p131
aS'18'
p132
aS'16'
p133
aa(lp134
S'det'
p135
aS'18'
p136
aS'17'
p137
aa(lp138
S'root'
p139
aS'0'
aS'18'
p140
aa(lp141
S'prep_in'
p142
aS'18'
p143
aS'20'
p144
aa(lp145
S'det'
p146
aS'24'
p147
aS'22'
p148
aa(lp149
S'nn'
p150
aS'24'
p151
aS'23'
p152
aa(lp153
S'prep_of'
p154
aS'20'
p155
aS'24'
p156
aa(lp157
S'prepc_for'
p158
aS'24'
p159
aS'26'
p160
aa(lp161
S'det'
p162
aS'28'
p163
aS'27'
p164
aa(lp165
S'dobj'
p166
aS'26'
p167
aS'28'
p168
aa(lp169
S'nn'
p170
aS'31'
p171
aS'30'
p172
aa(lp173
S'prep_of'
p174
aS'28'
p175
aS'31'
p176
aa(lp177
S'xcomp'
p178
aS'26'
p179
aS'32'
p180
aa(lp181
S'amod'
p182
aS'35'
p183
aS'33'
p184
aa(lp185
S'nn'
p186
aS'35'
p187
aS'34'
p188
aa(lp189
S'dobj'
p190
aS'32'
p191
aS'35'
p192
aasS'srls'
p193
(lp194
(dp195
S'A1'
p196
S'string The Simplified Molecular - Input Line - Entry System or SMILES is a specification in form of a line notation for describing the structure of chemical molecules using short ASCII strings.11'
p197
sS'A0'
p198
S'Chemical Compound'
p199
sS'V'
g27
sa(dp200
S'A1'
p201
S'the structure of chemical molecules using short ASCII strings.11'
p202
sS'V'
g46
sa(dp203
S'A1'
p204
S'short ASCII strings.11'
p205
sS'A0'
p206
S'the structure  chemical molecules'
p207
sS'V'
g52
sasS'pos_seq'
p208
(lp209
S'NNP'
p210
aS'NNP'
p211
aS'VBZ'
p212
aS'NN'
p213
aS'DT'
p214
aS'JJ'
p215
aS'NNP'
p216
aS':'
aS'NNP'
p217
aS'NNP'
p218
aS':'
aS'NNP'
p219
aS'NNP'
p220
aS'CC'
p221
aS'NNP'
p222
aS'VBZ'
p223
aS'DT'
p224
aS'NN'
p225
aS'IN'
p226
aS'NN'
p227
aS'IN'
p228
aS'DT'
p229
aS'NN'
p230
aS'NN'
p231
aS'IN'
p232
aS'VBG'
p233
aS'DT'
p234
aS'NN'
p235
aS'IN'
p236
aS'NN'
p237
aS'NNS'
p238
aS'VBG'
p239
aS'JJ'
p240
aS'NN'
p241
aS'NN'
p242
asS'ner_seq'
p243
(lp244
S'O'
aS'O'
aS'O'
aS'O'
aS'O'
aS'O'
aS'O'
aS'O'
aS'O'
aS'O'
aS'O'
aS'O'
aS'O'
aS'O'
aS'S-PER'
p245
aS'O'
aS'O'
aS'O'
aS'O'
aS'O'
aS'O'
aS'O'
aS'O'
aS'O'
aS'O'
aS'O'
aS'O'
aS'O'
aS'O'
aS'O'
aS'O'
aS'O'
aS'O'
aS'S-MISC'
p246
aS'O'
assb.