ccopy_reg
_reconstructor
p1
(c__main__
KBproperty
p2
c__builtin__
object
p3
NtRp4
(dp5
S'comment'
p6
S'A picture of a thing.33543133'
p7
sS'domain'
p8
S''
sS'instances_count'
p9
I2110
sS'phrases'
p10
NsS'syn_hypo'
p11
Vbitmappictureimageiconikonelectronic_imagepictureimageiconikonchiaroscuropictureimageiconikoncollagepictureimageiconikonmontagepictureimageiconikonfoilpictureimageiconikontransparencypictureimageiconikongraphicpictureimageiconikoncomputer_graphicpictureimageiconikoniconographypictureimageiconikoninsetpictureimageiconikonlikenesspictureimageiconikonsemblancepictureimageiconikonpanoramapictureimageiconikoncycloramapictureimageiconikondioramapictureimageiconikonreflectionpictureimageiconikonreflexionpictureimageiconikonscanpictureimageiconikonCAT_scanpictureimageiconikonsonogrampictureimageiconikonechogram
p12
sS'label'
p13
S'picture'
p14
sS'range'
p15
S''
sS'uniq_subjs'
p16
S'2110'
p17
sS'uniq_objs'
p18
I0
sS'prop_uri'
p19
S'http://dbpedia.org/ontology/picture'
p20
sS'annotations'
p21
(dp22
S'bag_of_words'
p23
(lp24
S'picture'
p25
aS'A'
aS'picture'
p26
aS'of'
p27
aS'a'
aS'thing.33543133'
p28
asS'chunk_seq'
p29
(lp30
S'B-NP'
p31
aS'I-NP'
p32
aS'E-NP'
p33
aS'S-PP'
p34
aS'B-NP'
p35
aS'E-NP'
p36
asS'dep_seq'
p37
(lp38
(lp39
S'root'
p40
aS'0'
aS'1'
aa(lp41
S'det'
p42
aS'3'
aS'2'
aa(lp43
S'dobj'
p44
aS'1'
aS'3'
aa(lp45
S'det'
p46
aS'6'
aS'5'
aa(lp47
S'prep_of'
p48
aS'3'
aS'6'
aasS'srls'
p49
(lp50
sS'pos_seq'
p51
(lp52
S'NN'
p53
aS'DT'
p54
aS'NN'
p55
aS'IN'
p56
aS'DT'
p57
aS'NN'
p58
asS'ner_seq'
p59
(lp60
S'O'
aS'O'
aS'O'
aS'O'
aS'O'
aS'O'
assb.