ccopy_reg
_reconstructor
p1
(c__main__
KBproperty
p2
c__builtin__
object
p3
NtRp4
(dp5
S'comment'
p6
S'37972719'
p7
sS'domain'
p8
S'Body Of Water '
p9
sS'instances_count'
p10
I2899
sS'phrases'
p11
NsS'syn_hypo'
p12
Vinpouringinflowinfluxinpourinflowinfluxinrush
p13
sS'label'
p14
S'inflow'
p15
sS'range'
p16
S'River '
p17
sS'uniq_subjs'
p18
S'2899'
p19
sS'uniq_objs'
p20
I0
sS'prop_uri'
p21
S'http://dbpedia.org/ontology/inflow'
p22
sS'annotations'
p23
(dp24
S'bag_of_words'
p25
(lp26
S'Body'
p27
aS'Of'
p28
aS'Water'
p29
aS'inflow'
p30
aS'River'
p31
aS'37972719'
p32
asS'chunk_seq'
p33
(lp34
S'S-NP'
p35
aS'S-PP'
p36
aS'B-NP'
p37
aS'I-NP'
p38
aS'I-NP'
p39
aS'E-NP'
p40
asS'dep_seq'
p41
(lp42
(lp43
S'root'
p44
aS'0'
aS'1'
aa(lp45
S'prep_of'
p46
aS'1'
aS'3'
aa(lp47
S'nn'
p48
aS'6'
aS'4'
aa(lp49
S'nn'
p50
aS'6'
aS'5'
aa(lp51
S'dep'
p52
aS'1'
aS'6'
aasS'srls'
p53
(lp54
sS'pos_seq'
p55
(lp56
S'NN'
p57
aS'IN'
p58
aS'NNP'
p59
aS'NN'
p60
aS'NN'
p61
aS'NN'
p62
asS'ner_seq'
p63
(lp64
S'B-ORG'
p65
aS'I-ORG'
p66
aS'E-ORG'
p67
aS'O'
aS'S-LOC'
p68
aS'O'
assb.