ccopy_reg
_reconstructor
p1
(c__main__
KBproperty
p2
c__builtin__
object
p3
NtRp4
(dp5
S'comment'
p6
S'year of creation'
p7
sS'domain'
p8
S''
sS'instances_count'
p9
I0
sS'phrases'
p10
NsS'syn_hypo'
p11
S''
sS'label'
p12
g7
sS'range'
p13
S'g Year '
p14
sS'uniq_subjs'
p15
S'0'
sS'uniq_objs'
p16
I0
sS'prop_uri'
p17
S'http://dbpedia.org/ontology/creationYear'
p18
sS'annotations'
p19
(dp20
S'bag_of_words'
p21
(lp22
S'creation'
p23
aS'Year'
p24
aS'g'
aS'Year'
p25
aS'year'
p26
aS'of'
p27
aS'creation'
p28
asS'chunk_seq'
p29
(lp30
S'B-NP'
p31
aS'I-NP'
p32
aS'I-NP'
p33
aS'I-NP'
p34
aS'E-NP'
p35
aS'S-PP'
p36
aS'S-NP'
p37
asS'dep_seq'
p38
(lp39
(lp40
S'nn'
p41
aS'5'
aS'1'
aa(lp42
S'nn'
p43
aS'5'
aS'2'
aa(lp44
S'nn'
p45
aS'5'
aS'3'
aa(lp46
S'nn'
p47
aS'5'
aS'4'
aa(lp48
S'root'
p49
aS'0'
aS'5'
aa(lp50
S'prep_of'
p51
aS'5'
aS'7'
aasS'srls'
p52
(lp53
sS'pos_seq'
p54
(lp55
S'NN'
p56
aS'NN'
p57
aS'NN'
p58
aS'NN'
p59
aS'NN'
p60
aS'IN'
p61
aS'NN'
p62
asS'ner_seq'
p63
(lp64
S'O'
aS'O'
aS'O'
aS'O'
aS'O'
aS'O'
aS'O'
assb.