ccopy_reg
_reconstructor
p1
(c__main__
KBproperty
p2
c__builtin__
object
p3
NtRp4
(dp5
S'comment'
p6
S'An academic discipline or field of study is a branch of knowledge that is taught and researched at the college or university level. Disciplines are defined in part and recognized by the academic journals in which research is published and the learned societies and academic departments or faculties to which their practitioners belong.79416256'
p7
sS'domain'
p8
S'Academic Journal '
p9
sS'instances_count'
p10
I7941
sS'phrases'
p11
NsS'syn_hypo'
p12
S''
sS'label'
p13
S'academic discipline'
p14
sS'range'
p15
S''
sS'uniq_subjs'
p16
S'1647'
p17
sS'uniq_objs'
p18
I0
sS'prop_uri'
p19
S'http://dbpedia.org/ontology/academicDiscipline'
p20
sS'annotations'
p21
(dp22
S'bag_of_words'
p23
(lp24
S'Academic'
p25
aS'Journal'
p26
aS'academic'
p27
aS'discipline'
p28
aS'An'
p29
aS'academic'
p30
aS'discipline'
p31
aS'or'
p32
aS'field'
p33
aS'of'
p34
aS'study'
p35
aS'is'
p36
aS'a'
aS'branch'
p37
aS'of'
p38
aS'knowledge'
p39
aS'that'
p40
aS'is'
p41
aS'taught'
p42
aS'and'
p43
aS'researched'
p44
aS'at'
p45
aS'the'
p46
aS'college'
p47
aS'or'
p48
aS'university'
p49
aS'level'
p50
aS'.'
aS'Disciplines'
p51
aS'are'
p52
aS'defined'
p53
aS'in'
p54
aS'part'
p55
aS'and'
p56
aS'recognized'
p57
aS'by'
p58
aS'the'
p59
aS'academic'
p60
aS'journals'
p61
aS'in'
p62
aS'which'
p63
aS'research'
p64
aS'is'
p65
aS'published'
p66
aS'and'
p67
aS'the'
p68
aS'learned'
p69
aS'societies'
p70
aS'and'
p71
aS'academic'
p72
aS'departments'
p73
aS'or'
p74
aS'faculties'
p75
aS'to'
p76
aS'which'
p77
aS'their'
p78
aS'practitioners'
p79
aS'belong.79416256'
p80
asS'chunk_seq'
p81
(lp82
S'B-NP'
p83
aS'I-NP'
p84
aS'I-NP'
p85
aS'E-NP'
p86
aS'B-NP'
p87
aS'I-NP'
p88
aS'I-NP'
p89
aS'I-NP'
p90
aS'E-NP'
p91
aS'S-PP'
p92
aS'S-NP'
p93
aS'S-VP'
p94
aS'B-NP'
p95
aS'E-NP'
p96
aS'S-PP'
p97
aS'S-NP'
p98
aS'S-NP'
p99
aS'B-VP'
p100
aS'I-VP'
p101
aS'I-VP'
p102
aS'E-VP'
p103
aS'S-PP'
p104
aS'B-NP'
p105
aS'I-NP'
p106
aS'I-NP'
p107
aS'I-NP'
p108
aS'I-NP'
p109
aS'I-NP'
p110
aS'E-NP'
p111
aS'B-VP'
p112
aS'E-VP'
p113
aS'S-PP'
p114
aS'S-NP'
p115
aS'O'
aS'S-VP'
p116
aS'S-PP'
p117
aS'B-NP'
p118
aS'I-NP'
p119
aS'E-NP'
p120
aS'S-PP'
p121
aS'S-NP'
p122
aS'S-NP'
p123
aS'B-VP'
p124
aS'E-VP'
p125
aS'O'
aS'B-NP'
p126
aS'I-NP'
p127
aS'I-NP'
p128
aS'I-NP'
p129
aS'I-NP'
p130
aS'I-NP'
p131
aS'I-NP'
p132
aS'E-NP'
p133
aS'S-PP'
p134
aS'S-NP'
p135
aS'B-NP'
p136
aS'E-NP'
p137
aS'S-ADJP'
p138
asS'dep_seq'
p139
(lp140
(lp141
S'nn'
p142
aS'4'
aS'1'
aa(lp143
S'nn'
p144
aS'4'
aS'2'
aa(lp145
S'amod'
p146
aS'4'
aS'3'
aa(lp147
S'nsubj'
p148
aS'14'
p149
aS'4'
aa(lp150
S'det'
p151
aS'7'
aS'5'
aa(lp152
S'amod'
p153
aS'7'
aS'6'
aa(lp154
S'dep'
p155
aS'4'
aS'7'
aa(lp156
S'conj_or'
p157
aS'7'
aS'9'
aa(lp158
S'prep_of'
p159
aS'7'
aS'11'
p160
aa(lp161
S'cop'
p162
aS'14'
p163
aS'12'
p164
aa(lp165
S'det'
p166
aS'14'
p167
aS'13'
p168
aa(lp169
S'nsubjpass'
p170
aS'19'
p171
aS'14'
p172
aa(lp173
S'ccomp'
p174
aS'31'
p175
aS'14'
p176
aa(lp177
S'prep_of'
p178
aS'14'
p179
aS'16'
p180
aa(lp181
S'auxpass'
p182
aS'19'
p183
aS'18'
p184
aa(lp185
S'rcmod'
p186
aS'14'
p187
aS'19'
p188
aa(lp189
S'conj_and'
p190
aS'19'
p191
aS'21'
p192
aa(lp193
S'det'
p194
aS'27'
p195
aS'23'
p196
aa(lp197
S'nn'
p198
aS'27'
p199
aS'24'
p200
aa(lp201
S'conj_or'
p202
aS'24'
p203
aS'26'
p204
aa(lp205
S'prep_at'
p206
aS'19'
p207
aS'27'
p208
aa(lp209
S'nsubjpass'
p210
aS'31'
p211
aS'29'
p212
aa(lp213
S'auxpass'
p214
aS'31'
p215
aS'30'
p216
aa(lp217
S'root'
p218
aS'0'
aS'31'
p219
aa(lp220
S'prep_in'
p221
aS'31'
p222
aS'33'
p223
aa(lp224
S'conj_and'
p225
aS'31'
p226
aS'35'
p227
aa(lp228
S'dep'
p229
aS'31'
p230
aS'36'
p231
aa(lp232
S'det'
p233
aS'39'
p234
aS'37'
p235
aa(lp236
S'amod'
p237
aS'39'
p238
aS'38'
p239
aa(lp240
S'nsubjpass'
p241
aS'31'
p242
aS'39'
p243
aa(lp244
S'dep'
p245
aS'31'
p246
aS'40'
p247
aa(lp248
S'pobj'
p249
aS'40'
p250
aS'41'
p251
aa(lp252
S'nsubjpass'
p253
aS'44'
p254
aS'42'
p255
aa(lp256
S'auxpass'
p257
aS'44'
p258
aS'43'
p259
aa(lp260
S'dep'
p261
aS'31'
p262
aS'44'
p263
aa(lp264
S'det'
p265
aS'48'
p266
aS'46'
p267
aa(lp268
S'amod'
p269
aS'48'
p270
aS'47'
p271
aa(lp272
S'conj_and'
p273
aS'31'
p274
aS'48'
p275
aa(lp276
S'nsubjpass'
p277
aS'31'
p278
aS'48'
p279
aa(lp280
S'amod'
p281
aS'51'
p282
aS'50'
p283
aa(lp284
S'conj_and'
p285
aS'31'
p286
aS'51'
p287
aa(lp288
S'conj_or'
p289
aS'31'
p290
aS'53'
p291
aa(lp292
S'dep'
p293
aS'31'
p294
aS'54'
p295
aa(lp296
S'pobj'
p297
aS'54'
p298
aS'55'
p299
aa(lp300
S'poss'
p301
aS'57'
p302
aS'56'
p303
aa(lp304
S'nsubjpass'
p305
aS'31'
p306
aS'57'
p307
aa(lp308
S'punct'
p309
aS'57'
p310
aS'58'
p311
aasS'srls'
p312
(lp313
(dp314
S'A1'
p315
S'a branch knowledge'
p316
sS'AM-LOC'
p317
S'at the college or university level'
p318
sS'R-A1'
p319
g40
sS'V'
g42
sa(dp320
S'A1'
p321
S'a branch knowledge'
p322
sS'AM-LOC'
p323
S'at the college or university level'
p324
sS'R-A1'
p325
g40
sS'V'
g44
sa(dp326
S'A1'
p327
g51
sS'A2'
p328
S'in part  by the academic journals in which research is published and the learned societies and academic departments or faculties to which their practitioners belong.79416256'
p329
sS'V'
g53
sa(dp330
S'A1'
p331
S'a branch of knowledge Disciplines'
p332
sS'A0'
p333
S'by the academic journals in which research is published and the learned societies and academic departments or faculties to which their practitioners belong.79416256'
p334
sS'R-A1'
p335
g40
sS'V'
g57
sa(dp336
S'A1'
p337
g64
sS'AM-LOC'
p338
S'the academic journals'
p339
sS'V'
g66
sa(dp340
S'A1'
p341
g70
sS'V'
g69
sasS'pos_seq'
p342
(lp343
S'NNP'
p344
aS'NNP'
p345
aS'JJ'
p346
aS'NN'
p347
aS'DT'
p348
aS'JJ'
p349
aS'NN'
p350
aS'CC'
p351
aS'NN'
p352
aS'IN'
p353
aS'NN'
p354
aS'VBZ'
p355
aS'DT'
p356
aS'NN'
p357
aS'IN'
p358
aS'NN'
p359
aS'WDT'
p360
aS'VBZ'
p361
aS'VBN'
p362
aS'CC'
p363
aS'VBN'
p364
aS'IN'
p365
aS'DT'
p366
aS'NN'
p367
aS'CC'
p368
aS'NN'
p369
aS'NN'
p370
aS'.'
aS'NNS'
p371
aS'VBP'
p372
aS'VBN'
p373
aS'IN'
p374
aS'NN'
p375
aS'CC'
p376
aS'VBN'
p377
aS'IN'
p378
aS'DT'
p379
aS'JJ'
p380
aS'NNS'
p381
aS'IN'
p382
aS'WDT'
p383
aS'NN'
p384
aS'VBZ'
p385
aS'VBN'
p386
aS'CC'
p387
aS'DT'
p388
aS'VBN'
p389
aS'NNS'
p390
aS'CC'
p391
aS'JJ'
p392
aS'NNS'
p393
aS'CC'
p394
aS'NNS'
p395
aS'TO'
p396
aS'WDT'
p397
aS'PRP$'
p398
aS'NNS'
p399
aS'.'
asS'ner_seq'
p400
(lp401
S'B-ORG'
p402
aS'E-ORG'
p403
aS'O'
aS'O'
aS'O'
aS'O'
aS'O'
aS'O'
aS'O'
aS'O'
aS'O'
aS'O'
aS'O'
aS'O'
aS'O'
aS'O'
aS'O'
aS'O'
aS'O'
aS'O'
aS'O'
aS'O'
aS'O'
aS'O'
aS'O'
aS'O'
aS'O'
aS'O'
aS'S-ORG'
p404
aS'O'
aS'O'
aS'O'
aS'O'
aS'O'
aS'O'
aS'O'
aS'O'
aS'O'
aS'O'
aS'O'
aS'O'
aS'O'
aS'O'
aS'O'
aS'O'
aS'O'
aS'O'
aS'O'
aS'O'
aS'O'
aS'O'
aS'O'
aS'O'
aS'O'
aS'O'
aS'O'
aS'O'
aS'O'
assb.