ccopy_reg
_reconstructor
p1
(c__main__
KBproperty
p2
c__builtin__
object
p3
NtRp4
(dp5
S'comment'
p6
S'this property links to a step in the career of a person e.g. a soccer player holding information on the time span matches and goals he or she achieved at a club.920428128220'
p7
sS'domain'
p8
S'Person '
p9
sS'instances_count'
p10
I920428
sS'phrases'
p11
NsS'syn_hypo'
p12
S''
sS'label'
p13
S'career station'
p14
sS'range'
p15
S'Career Station '
p16
sS'uniq_subjs'
p17
S'920428'
p18
sS'uniq_objs'
p19
I0
sS'prop_uri'
p20
S'http://dbpedia.org/ontology/careerStation'
p21
sS'annotations'
p22
(dp23
S'bag_of_words'
p24
(lp25
S'Person'
p26
aS'career'
p27
aS'station'
p28
aS'Career'
p29
aS'Station'
p30
aS'this'
p31
aS'property'
p32
aS'links'
p33
aS'to'
p34
aS'a'
aS'step'
p35
aS'in'
p36
aS'the'
p37
aS'career'
p38
aS'of'
p39
aS'a'
aS'person'
p40
aS'e.g.'
p41
aS'a'
aS'soccer'
p42
aS'player'
p43
aS'holding'
p44
aS'information'
p45
aS'on'
p46
aS'the'
p47
aS'time'
p48
aS'span'
p49
aS'matches'
p50
aS'and'
p51
aS'goals'
p52
aS'he'
p53
aS'or'
p54
aS'she'
p55
aS'achieved'
p56
aS'at'
p57
aS'a'
aS'club.920428128220'
p58
asS'chunk_seq'
p59
(lp60
S'B-NP'
p61
aS'I-NP'
p62
aS'I-NP'
p63
aS'I-NP'
p64
aS'E-NP'
p65
aS'B-NP'
p66
aS'I-NP'
p67
aS'E-NP'
p68
aS'S-PP'
p69
aS'B-NP'
p70
aS'E-NP'
p71
aS'S-PP'
p72
aS'B-NP'
p73
aS'E-NP'
p74
aS'S-PP'
p75
aS'B-NP'
p76
aS'E-NP'
p77
aS'S-PP'
p78
aS'B-NP'
p79
aS'I-NP'
p80
aS'E-NP'
p81
aS'S-VP'
p82
aS'S-NP'
p83
aS'S-PP'
p84
aS'B-NP'
p85
aS'I-NP'
p86
aS'E-NP'
p87
aS'B-NP'
p88
aS'I-NP'
p89
aS'E-NP'
p90
aS'S-NP'
p91
aS'O'
aS'S-NP'
p92
aS'S-VP'
p93
aS'S-PP'
p94
aS'B-NP'
p95
aS'E-NP'
p96
asS'dep_seq'
p97
(lp98
(lp99
S'nn'
p100
aS'5'
aS'1'
aa(lp101
S'nn'
p102
aS'5'
aS'2'
aa(lp103
S'nn'
p104
aS'5'
aS'3'
aa(lp105
S'nn'
p106
aS'5'
aS'4'
aa(lp107
S'dep'
p108
aS'8'
aS'5'
aa(lp109
S'det'
p110
aS'8'
aS'6'
aa(lp111
S'nn'
p112
aS'8'
aS'7'
aa(lp113
S'root'
p114
aS'0'
aS'8'
aa(lp115
S'det'
p116
aS'11'
p117
aS'10'
p118
aa(lp119
S'prep_to'
p120
aS'8'
aS'11'
p121
aa(lp122
S'det'
p123
aS'14'
p124
aS'13'
p125
aa(lp126
S'prep_in'
p127
aS'11'
p128
aS'14'
p129
aa(lp130
S'det'
p131
aS'17'
p132
aS'16'
p133
aa(lp134
S'prep_of'
p135
aS'14'
p136
aS'17'
p137
aa(lp138
S'det'
p139
aS'23'
p140
aS'19'
p141
aa(lp142
S'nn'
p143
aS'23'
p144
aS'20'
p145
aa(lp146
S'nn'
p147
aS'23'
p148
aS'21'
p149
aa(lp150
S'amod'
p151
aS'23'
p152
aS'22'
p153
aa(lp154
S'prep_e.g.'
p155
aS'11'
p156
aS'23'
p157
aa(lp158
S'det'
p159
aS'27'
p160
aS'25'
p161
aa(lp162
S'nn'
p163
aS'27'
p164
aS'26'
p165
aa(lp166
S'prep_on'
p167
aS'23'
p168
aS'27'
p169
aa(lp170
S'dep'
p171
aS'8'
aS'28'
p172
aa(lp173
S'conj_and'
p174
aS'28'
p175
aS'30'
p176
aa(lp177
S'dep'
p178
aS'8'
aS'31'
p179
aa(lp180
S'nsubj'
p181
aS'34'
p182
aS'33'
p183
aa(lp184
S'conj_or'
p185
aS'8'
aS'34'
p186
aa(lp187
S'det'
p188
aS'37'
p189
aS'36'
p190
aa(lp191
S'prep_at'
p192
aS'34'
p193
aS'37'
p194
aasS'srls'
p195
(lp196
(dp197
S'A0'
p198
g45
sS'V'
g44
sa(dp199
S'A1'
p200
S'a soccer player holding information on the time span matches and goals'
p201
sS'A0'
p202
S'he or she'
p203
sS'AM-LOC'
p204
S'at a club.920428128220'
p205
sS'V'
g56
sasS'pos_seq'
p206
(lp207
S'NN'
p208
aS'NN'
p209
aS'NN'
p210
aS'NNP'
p211
aS'NNP'
p212
aS'DT'
p213
aS'NN'
p214
aS'NNS'
p215
aS'TO'
p216
aS'DT'
p217
aS'NN'
p218
aS'IN'
p219
aS'DT'
p220
aS'NN'
p221
aS'IN'
p222
aS'DT'
p223
aS'NN'
p224
aS'IN'
p225
aS'DT'
p226
aS'NN'
p227
aS'NN'
p228
aS'VBG'
p229
aS'NN'
p230
aS'IN'
p231
aS'DT'
p232
aS'NN'
p233
aS'NN'
p234
aS'NNS'
p235
aS'CC'
p236
aS'NNS'
p237
aS'PRP'
p238
aS'CC'
p239
aS'PRP'
p240
aS'VBD'
p241
aS'IN'
p242
aS'DT'
p243
aS'NN'
p244
asS'ner_seq'
p245
(lp246
S'O'
aS'O'
aS'O'
aS'B-ORG'
p247
aS'E-ORG'
p248
aS'O'
aS'O'
aS'O'
aS'O'
aS'O'
aS'O'
aS'O'
aS'O'
aS'O'
aS'O'
aS'O'
aS'O'
aS'O'
aS'O'
aS'O'
aS'O'
aS'O'
aS'O'
aS'O'
aS'O'
aS'O'
aS'O'
aS'O'
aS'O'
aS'O'
aS'O'
aS'O'
aS'O'
aS'O'
aS'O'
aS'O'
aS'O'
assb.