ccopy_reg
_reconstructor
p1
(c__main__
KBproperty
p2
c__builtin__
object
p3
NtRp4
(dp5
S'comment'
p6
S'Ascent of a celestial body aircraft etc. For person who ascended a mountain use firstAscent00'
p7
sS'domain'
p8
S''
sS'instances_count'
p9
I0
sS'phrases'
p10
NsS'syn_hypo'
p11
Vuphill
p12
sS'label'
p13
S'ascent'
p14
sS'range'
p15
S'string '
p16
sS'uniq_subjs'
p17
S'0'
sS'uniq_objs'
p18
I0
sS'prop_uri'
p19
S'http://dbpedia.org/ontology/ascent'
p20
sS'annotations'
p21
(dp22
S'bag_of_words'
p23
(lp24
S'ascent'
p25
aS'string'
p26
aS'Ascent'
p27
aS'of'
p28
aS'a'
aS'celestial'
p29
aS'body'
p30
aS'aircraft'
p31
aS'etc.'
p32
aS'For'
p33
aS'person'
p34
aS'who'
p35
aS'ascended'
p36
aS'a'
aS'mountain'
p37
aS'use'
p38
aS'firstAscent00'
p39
asS'chunk_seq'
p40
(lp41
S'B-NP'
p42
aS'I-NP'
p43
aS'E-NP'
p44
aS'S-PP'
p45
aS'B-NP'
p46
aS'I-NP'
p47
aS'I-NP'
p48
aS'I-NP'
p49
aS'E-NP'
p50
aS'S-PP'
p51
aS'S-NP'
p52
aS'S-NP'
p53
aS'S-VP'
p54
aS'B-NP'
p55
aS'I-NP'
p56
aS'I-NP'
p57
aS'E-NP'
p58
asS'dep_seq'
p59
(lp60
(lp61
S'nn'
p62
aS'3'
aS'1'
aa(lp63
S'nn'
p64
aS'3'
aS'2'
aa(lp65
S'root'
p66
aS'0'
aS'3'
aa(lp67
S'det'
p68
aS'8'
aS'5'
aa(lp69
S'amod'
p70
aS'8'
aS'6'
aa(lp71
S'nn'
p72
aS'8'
aS'7'
aa(lp73
S'prep_of'
p74
aS'3'
aS'8'
aa(lp75
S'dep'
p76
aS'10'
p77
aS'9'
aa(lp78
S'dep'
p79
aS'3'
aS'10'
p80
aa(lp81
S'pobj'
p82
aS'10'
p83
aS'11'
p84
aa(lp85
S'nsubj'
p86
aS'13'
p87
aS'11'
p88
aa(lp89
S'rcmod'
p90
aS'11'
p91
aS'13'
p92
aa(lp93
S'det'
p94
aS'17'
p95
aS'14'
p96
aa(lp97
S'nn'
p98
aS'17'
p99
aS'15'
p100
aa(lp101
S'nn'
p102
aS'17'
p103
aS'16'
p104
aa(lp105
S'dobj'
p106
aS'13'
p107
aS'17'
p108
aasS'srls'
p109
(lp110
(dp111
S'A1'
p112
S'a mountain use'
p113
sS'A0'
p114
g34
sS'R-A0'
p115
g35
sS'V'
g36
sasS'pos_seq'
p116
(lp117
S'NN'
p118
aS'NN'
p119
aS'NN'
p120
aS'IN'
p121
aS'DT'
p122
aS'JJ'
p123
aS'NN'
p124
aS'NN'
p125
aS'NN'
p126
aS'IN'
p127
aS'NN'
p128
aS'WP'
p129
aS'VBD'
p130
aS'DT'
p131
aS'NN'
p132
aS'NN'
p133
aS'NN'
p134
asS'ner_seq'
p135
(lp136
S'O'
aS'O'
aS'O'
aS'O'
aS'O'
aS'O'
aS'O'
aS'O'
aS'O'
aS'O'
aS'O'
aS'O'
aS'O'
aS'O'
aS'O'
aS'O'
aS'S-LOC'
p137
assb.