ccopy_reg
_reconstructor
p1
(c__main__
KBproperty
p2
c__builtin__
object
p3
NtRp4
(dp5
S'comment'
p6
S'String designation of the WrittenWork describing the resource'
p7
sS'domain'
p8
S''
sS'instances_count'
p9
I0
sS'phrases'
p10
NsS'syn_hypo'
p11
S''
sS'label'
p12
g7
sS'range'
p13
S'string '
p14
sS'uniq_subjs'
p15
S'0'
sS'uniq_objs'
p16
I0
sS'prop_uri'
p17
S'http://dbpedia.org/ontology/documentDesignation'
p18
sS'annotations'
p19
(dp20
S'bag_of_words'
p21
(lp22
S'document'
p23
aS'Designation'
p24
aS'string'
p25
aS'String'
p26
aS'designation'
p27
aS'of'
p28
aS'the'
p29
aS'WrittenWork'
p30
aS'describing'
p31
aS'the'
p32
aS'resource'
p33
asS'chunk_seq'
p34
(lp35
S'B-NP'
p36
aS'I-NP'
p37
aS'I-NP'
p38
aS'I-NP'
p39
aS'E-NP'
p40
aS'S-PP'
p41
aS'B-NP'
p42
aS'E-NP'
p43
aS'S-VP'
p44
aS'B-NP'
p45
aS'E-NP'
p46
asS'dep_seq'
p47
(lp48
(lp49
S'nn'
p50
aS'5'
aS'1'
aa(lp51
S'nn'
p52
aS'5'
aS'2'
aa(lp53
S'nn'
p54
aS'5'
aS'3'
aa(lp55
S'nn'
p56
aS'5'
aS'4'
aa(lp57
S'root'
p58
aS'0'
aS'5'
aa(lp59
S'det'
p60
aS'8'
aS'7'
aa(lp61
S'prep_of'
p62
aS'5'
aS'8'
aa(lp63
S'partmod'
p64
aS'5'
aS'9'
aa(lp65
S'det'
p66
aS'11'
p67
aS'10'
p68
aa(lp69
S'dobj'
p70
aS'9'
aS'11'
p71
aasS'srls'
p72
(lp73
(dp74
S'A0'
p75
S'document Designation string String designation of the WrittenWork  the resource'
p76
sS'V'
g31
sasS'pos_seq'
p77
(lp78
S'NN'
p79
aS'NN'
p80
aS'NN'
p81
aS'NN'
p82
aS'NN'
p83
aS'IN'
p84
aS'DT'
p85
aS'NNP'
p86
aS'VBG'
p87
aS'DT'
p88
aS'NN'
p89
asS'ner_seq'
p90
(lp91
S'O'
aS'O'
aS'O'
aS'O'
aS'O'
aS'O'
aS'O'
aS'S-MISC'
p92
aS'O'
aS'O'
aS'O'
assb.