ccopy_reg
_reconstructor
p1
(c__main__
KBproperty
p2
c__builtin__
object
p3
NtRp4
(dp5
S'comment'
p6
S'gross domestic product GDP $'
p7
sS'domain'
p8
S'Populated Place '
p9
sS'instances_count'
p10
I19
sS'phrases'
p11
NsS'syn_hypo'
p12
S''
sS'label'
p13
g7
sS'range'
p14
S'double '
p15
sS'uniq_subjs'
p16
S'19'
p17
sS'uniq_objs'
p18
I0
sS'prop_uri'
p19
S'http://dbpedia.org/ontology/grossDomesticProduct'
p20
sS'annotations'
p21
(dp22
S'bag_of_words'
p23
(lp24
S'Populated'
p25
aS'Place'
p26
aS'gross'
p27
aS'Domestic'
p28
aS'Product'
p29
aS'double'
p30
aS'gross'
p31
aS'domestic'
p32
aS'product'
p33
aS'GDP'
p34
aS'$'
asS'chunk_seq'
p35
(lp36
S'B-NP'
p37
aS'I-NP'
p38
aS'I-NP'
p39
aS'I-NP'
p40
aS'I-NP'
p41
aS'I-NP'
p42
aS'I-NP'
p43
aS'I-NP'
p44
aS'I-NP'
p45
aS'E-NP'
p46
aS'S-ADJP'
p47
asS'dep_seq'
p48
(lp49
(lp50
S'amod'
p51
aS'2'
aS'1'
aa(lp52
S'dep'
p53
aS'10'
p54
aS'2'
aa(lp55
S'amod'
p56
aS'5'
aS'3'
aa(lp57
S'nn'
p58
aS'5'
aS'4'
aa(lp59
S'dep'
p60
aS'2'
aS'5'
aa(lp61
S'amod'
p62
aS'10'
p63
aS'6'
aa(lp64
S'amod'
p65
aS'10'
p66
aS'7'
aa(lp67
S'amod'
p68
aS'10'
p69
aS'8'
aa(lp70
S'nn'
p71
aS'10'
p72
aS'9'
aa(lp73
S'root'
p74
aS'0'
aS'10'
p75
aa(lp76
S'advmod'
p77
aS'10'
p78
aS'11'
p79
aasS'srls'
p80
(lp81
sS'pos_seq'
p82
(lp83
S'VBN'
p84
aS'NNP'
p85
aS'JJ'
p86
aS'NNP'
p87
aS'NNP'
p88
aS'JJ'
p89
aS'JJ'
p90
aS'JJ'
p91
aS'NN'
p92
aS'NNP'
p93
aS'$'
asS'ner_seq'
p94
(lp95
S'O'
aS'O'
aS'O'
aS'O'
aS'O'
aS'O'
aS'O'
aS'O'
aS'O'
aS'O'
aS'O'
assb.