ccopy_reg
_reconstructor
p1
(c__main__
KBproperty
p2
c__builtin__
object
p3
NtRp4
(dp5
S'comment'
p6
S'Structured reference providing info about the subject00'
p7
sS'domain'
p8
S'Reference '
p9
sS'instances_count'
p10
I0
sS'phrases'
p11
NsS'syn_hypo'
p12
Vallusionmentionreferencename-droppingmentionreferenceretrospection
p13
sS'label'
p14
S'reference'
p15
sS'range'
p16
S'string '
p17
sS'uniq_subjs'
p18
S'0'
sS'uniq_objs'
p19
I0
sS'prop_uri'
p20
S'http://dbpedia.org/ontology/reference'
p21
sS'annotations'
p22
(dp23
S'bag_of_words'
p24
(lp25
S'Reference'
p26
aS'reference'
p27
aS'string'
p28
aS'Structured'
p29
aS'reference'
p30
aS'providing'
p31
aS'info'
p32
aS'about'
p33
aS'the'
p34
aS'subject00'
p35
asS'chunk_seq'
p36
(lp37
S'B-NP'
p38
aS'I-NP'
p39
aS'I-NP'
p40
aS'I-NP'
p41
aS'E-NP'
p42
aS'S-VP'
p43
aS'S-NP'
p44
aS'S-PP'
p45
aS'B-NP'
p46
aS'E-NP'
p47
asS'dep_seq'
p48
(lp49
(lp50
S'nn'
p51
aS'5'
aS'1'
aa(lp52
S'nn'
p53
aS'5'
aS'2'
aa(lp54
S'nn'
p55
aS'5'
aS'3'
aa(lp56
S'amod'
p57
aS'5'
aS'4'
aa(lp58
S'root'
p59
aS'0'
aS'5'
aa(lp60
S'partmod'
p61
aS'5'
aS'6'
aa(lp62
S'dobj'
p63
aS'6'
aS'7'
aa(lp64
S'det'
p65
aS'10'
p66
aS'9'
aa(lp67
S'prep_about'
p68
aS'7'
aS'10'
p69
aasS'srls'
p70
(lp71
(dp72
S'A1'
p73
S'info about the subject00'
p74
sS'A0'
p75
S'Reference reference string Structured reference'
p76
sS'V'
g31
sasS'pos_seq'
p77
(lp78
S'NN'
p79
aS'NN'
p80
aS'NN'
p81
aS'JJ'
p82
aS'NN'
p83
aS'VBG'
p84
aS'NNS'
p85
aS'IN'
p86
aS'DT'
p87
aS'NN'
p88
asS'ner_seq'
p89
(lp90
S'O'
aS'O'
aS'O'
aS'O'
aS'O'
aS'O'
aS'O'
aS'O'
aS'O'
aS'O'
assb.