ccopy_reg
_reconstructor
p1
(c__main__
KBproperty
p2
c__builtin__
object
p3
NtRp4
(dp5
S'comment'
p6
S'00'
p7
sS'domain'
p8
S''
sS'instances_count'
p9
I0
sS'phrases'
p10
NsS'syn_hypo'
p11
S''
sS'label'
p12
S'setup time s'
p13
sS'range'
p14
S'double '
p15
sS'uniq_subjs'
p16
S'0'
sS'uniq_objs'
p17
I0
sS'prop_uri'
p18
S'http://dbpedia.org/ontology/setupTime'
p19
sS'annotations'
p20
(dp21
S'bag_of_words'
p22
(lp23
S'setup'
p24
aS'time'
p25
aS's'
aS'double'
p26
aS'00'
p27
asS'chunk_seq'
p28
(lp29
S'B-NP'
p30
aS'E-NP'
p31
aS'B-NP'
p32
aS'E-NP'
p33
aS'O'
asS'dep_seq'
p34
(lp35
(lp36
S'nn'
p37
aS'2'
aS'1'
aa(lp38
S'root'
p39
aS'0'
aS'2'
aa(lp40
S'advmod'
p41
aS'5'
aS'3'
aa(lp42
S'advmod'
p43
aS'5'
aS'4'
aa(lp44
S'dep'
p45
aS'2'
aS'5'
aasS'srls'
p46
(lp47
sS'pos_seq'
p48
(lp49
S'NN'
p50
aS'NN'
p51
aS'RB'
p52
aS'RB'
p53
aS'CD'
p54
asS'ner_seq'
p55
(lp56
S'O'
aS'O'
aS'O'
aS'O'
aS'O'
assb.