ccopy_reg
_reconstructor
p1
(c__main__
KBproperty
p2
c__builtin__
object
p3
NtRp4
(dp5
S'comment'
p6
S'JSTOR number short for Journal Storage is a United States-based online system number for archiving academic journals.451451'
p7
sS'domain'
p8
S'Academic Journal '
p9
sS'instances_count'
p10
I451
sS'phrases'
p11
NsS'syn_hypo'
p12
S''
sS'label'
p13
S'JSTOR'
p14
sS'range'
p15
S'string '
p16
sS'uniq_subjs'
p17
S'451'
p18
sS'uniq_objs'
p19
I0
sS'prop_uri'
p20
S'http://dbpedia.org/ontology/jstor'
p21
sS'annotations'
p22
(dp23
S'bag_of_words'
p24
(lp25
S'Academic'
p26
aS'Journal'
p27
aS'JSTOR'
p28
aS'string'
p29
aS'JSTOR'
p30
aS'number'
p31
aS'short'
p32
aS'for'
p33
aS'Journal'
p34
aS'Storage'
p35
aS'is'
p36
aS'a'
aS'United'
p37
aS'States-based'
p38
aS'online'
p39
aS'system'
p40
aS'number'
p41
aS'for'
p42
aS'archiving'
p43
aS'academic'
p44
aS'journals.451451'
p45
asS'chunk_seq'
p46
(lp47
S'B-NP'
p48
aS'I-NP'
p49
aS'I-NP'
p50
aS'I-NP'
p51
aS'I-NP'
p52
aS'E-NP'
p53
aS'S-ADJP'
p54
aS'S-PP'
p55
aS'B-NP'
p56
aS'E-NP'
p57
aS'S-VP'
p58
aS'B-NP'
p59
aS'I-NP'
p60
aS'I-NP'
p61
aS'I-NP'
p62
aS'I-NP'
p63
aS'E-NP'
p64
aS'S-PP'
p65
aS'S-VP'
p66
aS'B-NP'
p67
aS'E-NP'
p68
asS'dep_seq'
p69
(lp70
(lp71
S'nn'
p72
aS'6'
aS'1'
aa(lp73
S'nn'
p74
aS'6'
aS'2'
aa(lp75
S'nn'
p76
aS'6'
aS'3'
aa(lp77
S'nn'
p78
aS'6'
aS'4'
aa(lp79
S'nn'
p80
aS'6'
aS'5'
aa(lp81
S'nsubj'
p82
aS'17'
p83
aS'6'
aa(lp84
S'amod'
p85
aS'6'
aS'7'
aa(lp86
S'nn'
p87
aS'10'
p88
aS'9'
aa(lp89
S'prep_for'
p90
aS'7'
aS'10'
p91
aa(lp92
S'cop'
p93
aS'17'
p94
aS'11'
p95
aa(lp96
S'det'
p97
aS'17'
p98
aS'12'
p99
aa(lp100
S'nn'
p101
aS'17'
p102
aS'13'
p103
aa(lp104
S'nn'
p105
aS'17'
p106
aS'based'
p107
aa(lp108
S'nn'
p109
aS'17'
p110
aS'15'
p111
aa(lp112
S'nn'
p113
aS'17'
p114
aS'16'
p115
aa(lp116
S'root'
p117
aS'0'
aS'17'
p118
aa(lp119
S'prepc_for'
p120
aS'17'
p121
aS'19'
p122
aa(lp123
S'amod'
p124
aS'21'
p125
aS'20'
p126
aa(lp127
S'dobj'
p128
aS'19'
p129
aS'21'
p130
aasS'srls'
p131
(lp132
sS'pos_seq'
p133
(lp134
S'NNP'
p135
aS'NNP'
p136
aS'NNP'
p137
aS'NN'
p138
aS'NNP'
p139
aS'NN'
p140
aS'JJ'
p141
aS'IN'
p142
aS'NNP'
p143
aS'NNP'
p144
aS'VBZ'
p145
aS'DT'
p146
aS'NNP'
p147
aS'NNP'
p148
aS'NN'
p149
aS'NN'
p150
aS'NN'
p151
aS'IN'
p152
aS'VBG'
p153
aS'JJ'
p154
aS'NN'
p155
asS'ner_seq'
p156
(lp157
S'B-ORG'
p158
aS'I-ORG'
p159
aS'E-ORG'
p160
aS'O'
aS'O'
aS'O'
aS'O'
aS'O'
aS'B-ORG'
p161
aS'E-ORG'
p162
aS'O'
aS'O'
aS'B-ORG'
p163
aS'E-ORG'
p164
aS'O'
aS'O'
aS'O'
aS'O'
aS'O'
aS'O'
aS'O'
assb.