ccopy_reg
_reconstructor
p1
(c__main__
KBproperty
p2
c__builtin__
object
p3
NtRp4
(dp5
S'comment'
p6
S'Start of the route. This is where the route begins and for U.S. roads is either at the southern terminus or western terminus.2142118520'
p7
sS'domain'
p8
S'Route Of Transportation '
p9
sS'instances_count'
p10
I21421
sS'phrases'
p11
NsS'syn_hypo'
p12
S''
sS'label'
p13
S'route start'
p14
sS'range'
p15
S'Route Of Transportation '
p16
sS'uniq_subjs'
p17
S'14945'
p18
sS'uniq_objs'
p19
I0
sS'prop_uri'
p20
S'http://dbpedia.org/ontology/routeStart'
p21
sS'annotations'
p22
(dp23
S'bag_of_words'
p24
(lp25
S'Route'
p26
aS'Of'
p27
aS'Transportation'
p28
aS'route'
p29
aS'start'
p30
aS'Route'
p31
aS'Of'
p32
aS'Transportation'
p33
aS'Start'
p34
aS'of'
p35
aS'the'
p36
aS'route'
p37
aS'.'
aS'This'
p38
aS'is'
p39
aS'where'
p40
aS'the'
p41
aS'route'
p42
aS'begins'
p43
aS'and'
p44
aS'for'
p45
aS'U.S.'
p46
aS'roads'
p47
aS'is'
p48
aS'either'
p49
aS'at'
p50
aS'the'
p51
aS'southern'
p52
aS'terminus'
p53
aS'or'
p54
aS'western'
p55
aS'terminus.2142118520'
p56
asS'chunk_seq'
p57
(lp58
S'S-NP'
p59
aS'S-PP'
p60
aS'B-NP'
p61
aS'E-NP'
p62
aS'S-VP'
p63
aS'S-NP'
p64
aS'S-PP'
p65
aS'B-NP'
p66
aS'E-NP'
p67
aS'S-PP'
p68
aS'B-NP'
p69
aS'E-NP'
p70
aS'O'
aS'S-NP'
p71
aS'S-VP'
p72
aS'S-ADVP'
p73
aS'B-NP'
p74
aS'E-NP'
p75
aS'S-VP'
p76
aS'O'
aS'S-PP'
p77
aS'B-NP'
p78
aS'E-NP'
p79
aS'S-VP'
p80
aS'S-ADVP'
p81
aS'S-PP'
p82
aS'B-NP'
p83
aS'I-NP'
p84
aS'E-NP'
p85
aS'O'
aS'B-NP'
p86
aS'E-NP'
p87
asS'dep_seq'
p88
(lp89
(lp90
S'nn'
p91
aS'4'
aS'1'
aa(lp92
S'prep_of'
p93
aS'4'
aS'3'
aa(lp94
S'nsubj'
p95
aS'5'
aS'4'
aa(lp96
S'ccomp'
p97
aS'15'
p98
aS'5'
aa(lp99
S'nn'
p100
aS'9'
aS'6'
aa(lp101
S'prep_of'
p102
aS'9'
aS'8'
aa(lp103
S'dobj'
p104
aS'5'
aS'9'
aa(lp105
S'det'
p106
aS'12'
p107
aS'11'
p108
aa(lp109
S'prep_of'
p110
aS'9'
aS'12'
p111
aa(lp112
S'nsubj'
p113
aS'15'
p114
aS'14'
p115
aa(lp116
S'root'
p117
aS'0'
aS'15'
p118
aa(lp119
S'advmod'
p120
aS'19'
p121
aS'16'
p122
aa(lp123
S'det'
p124
aS'18'
p125
aS'17'
p126
aa(lp127
S'nsubj'
p128
aS'19'
p129
aS'18'
p130
aa(lp131
S'advcl'
p132
aS'15'
p133
aS'19'
p134
aa(lp135
S'mark'
p136
aS'24'
p137
aS'21'
p138
aa(lp139
S'nn'
p140
aS'23'
p141
aS'22'
p142
aa(lp143
S'nsubj'
p144
aS'24'
p145
aS'23'
p146
aa(lp147
S'conj_and'
p148
aS'19'
p149
aS'24'
p150
aa(lp151
S'advmod'
p152
aS'24'
p153
aS'25'
p154
aa(lp155
S'det'
p156
aS'29'
p157
aS'27'
p158
aa(lp159
S'amod'
p160
aS'29'
p161
aS'28'
p162
aa(lp163
S'prep_at'
p164
aS'24'
p165
aS'29'
p166
aa(lp167
S'amod'
p168
aS'32'
p169
aS'31'
p170
aa(lp171
S'conj_or'
p172
aS'29'
p173
aS'32'
p174
aasS'srls'
p175
(lp176
(dp177
S'A1'
p178
S'Route Of Transportation route  Route Of Transportation Start of the route'
p179
sS'V'
g30
sa(dp180
S'A0'
p181
S'the route'
p182
sS'V'
g43
sasS'pos_seq'
p183
(lp184
S'NNP'
p185
aS'IN'
p186
aS'NNP'
p187
aS'NN'
p188
aS'VBP'
p189
aS'NNP'
p190
aS'IN'
p191
aS'NNP'
p192
aS'NNP'
p193
aS'IN'
p194
aS'DT'
p195
aS'NN'
p196
aS'.'
aS'DT'
p197
aS'VBZ'
p198
aS'WRB'
p199
aS'DT'
p200
aS'NN'
p201
aS'VBZ'
p202
aS'CC'
p203
aS'IN'
p204
aS'NNP'
p205
aS'NNS'
p206
aS'VBZ'
p207
aS'RB'
p208
aS'IN'
p209
aS'DT'
p210
aS'JJ'
p211
aS'NN'
p212
aS'CC'
p213
aS'JJ'
p214
aS'NN'
p215
asS'ner_seq'
p216
(lp217
S'B-ORG'
p218
aS'I-ORG'
p219
aS'E-ORG'
p220
aS'O'
aS'O'
aS'O'
aS'B-ORG'
p221
aS'I-ORG'
p222
aS'E-ORG'
p223
aS'O'
aS'O'
aS'O'
aS'O'
aS'O'
aS'O'
aS'O'
aS'O'
aS'O'
aS'O'
aS'O'
aS'O'
aS'S-LOC'
p224
aS'O'
aS'O'
aS'O'
aS'O'
aS'O'
aS'O'
aS'O'
aS'O'
aS'O'
aS'O'
assb.