ccopy_reg
_reconstructor
p1
(c__main__
KBproperty
p2
c__builtin__
object
p3
NtRp4
(dp5
S'comment'
p6
S'The format of the album: EP Single etc.00'
p7
sS'domain'
p8
S'Album '
p9
sS'instances_count'
p10
I0
sS'phrases'
p11
NsS'syn_hypo'
p12
S''
sS'label'
p13
S'musicFormat'
p14
sS'range'
p15
S'string '
p16
sS'uniq_subjs'
p17
S'0'
sS'uniq_objs'
p18
I0
sS'prop_uri'
p19
S'http://dbpedia.org/ontology/musicFormat'
p20
sS'annotations'
p21
(dp22
S'bag_of_words'
p23
(lp24
S'Album'
p25
aS'musicFormat'
p26
aS'string'
p27
aS'The'
p28
aS'format'
p29
aS'of'
p30
aS'the'
p31
aS'album'
p32
aS':'
aS'EP'
p33
aS'Single'
p34
aS'etc.00'
p35
asS'chunk_seq'
p36
(lp37
S'B-NP'
p38
aS'I-NP'
p39
aS'E-NP'
p40
aS'B-NP'
p41
aS'E-NP'
p42
aS'S-PP'
p43
aS'B-NP'
p44
aS'E-NP'
p45
aS'O'
aS'B-NP'
p46
aS'I-NP'
p47
aS'E-NP'
p48
asS'dep_seq'
p49
(lp50
(lp51
S'nn'
p52
aS'3'
aS'1'
aa(lp53
S'amod'
p54
aS'3'
aS'2'
aa(lp55
S'root'
p56
aS'0'
aS'3'
aa(lp57
S'det'
p58
aS'5'
aS'4'
aa(lp59
S'dep'
p60
aS'3'
aS'5'
aa(lp61
S'det'
p62
aS'8'
aS'7'
aa(lp63
S'prep_of'
p64
aS'5'
aS'8'
aa(lp65
S'nn'
p66
aS'12'
p67
aS'10'
p68
aa(lp69
S'amod'
p70
aS'12'
p71
aS'11'
p72
aa(lp73
S'dep'
p74
aS'3'
aS'12'
p75
aasS'srls'
p76
(lp77
sS'pos_seq'
p78
(lp79
S'NN'
p80
aS'JJ'
p81
aS'NN'
p82
aS'DT'
p83
aS'NN'
p84
aS'IN'
p85
aS'DT'
p86
aS'NN'
p87
aS':'
aS'NN'
p88
aS'JJ'
p89
aS'NN'
p90
asS'ner_seq'
p91
(lp92
S'O'
aS'O'
aS'O'
aS'O'
aS'O'
aS'O'
aS'O'
aS'O'
aS'O'
aS'O'
aS'O'
aS'O'
assb.