ccopy_reg
_reconstructor
p1
(c__main__
KBproperty
p2
c__builtin__
object
p3
NtRp4
(dp5
S'comment'
p6
S'426420'
p7
sS'domain'
p8
S''
sS'instances_count'
p9
I388
sS'phrases'
p10
NsS'syn_hypo'
p11
S''
sS'label'
p12
S'time in space s'
p13
sS'range'
p14
S'double '
p15
sS'uniq_subjs'
p16
S'388'
p17
sS'uniq_objs'
p18
I0
sS'prop_uri'
p19
S'http://dbpedia.org/ontology/timeInSpace'
p20
sS'annotations'
p21
(dp22
S'bag_of_words'
p23
(lp24
S'time'
p25
aS'in'
p26
aS'space'
p27
aS's'
aS'double'
p28
aS'426420'
p29
asS'chunk_seq'
p30
(lp31
S'S-NP'
p32
aS'S-PP'
p33
aS'S-NP'
p34
aS'B-NP'
p35
aS'E-NP'
p36
aS'O'
asS'dep_seq'
p37
(lp38
(lp39
S'dep'
p40
aS'6'
aS'1'
aa(lp41
S'prep_in'
p42
aS'1'
aS'3'
aa(lp43
S'advmod'
p44
aS'6'
aS'4'
aa(lp45
S'advmod'
p46
aS'6'
aS'5'
aa(lp47
S'root'
p48
aS'0'
aS'6'
aasS'srls'
p49
(lp50
sS'pos_seq'
p51
(lp52
S'NN'
p53
aS'IN'
p54
aS'NN'
p55
aS'RB'
p56
aS'RB'
p57
aS'CD'
p58
asS'ner_seq'
p59
(lp60
S'O'
aS'O'
aS'O'
aS'O'
aS'O'
aS'O'
assb.