ccopy_reg
_reconstructor
p1
(c__main__
KBproperty
p2
c__builtin__
object
p3
NtRp4
(dp5
S'comment'
p6
S'00'
p7
sS'domain'
p8
S'Person '
p9
sS'instances_count'
p10
I0
sS'phrases'
p11
NsS'syn_hypo'
p12
VAreopagitememberfellow_memberboard_membermemberfellow_memberbrothermemberfellow_membercabalistmemberfellow_membercharter_membermemberfellow_memberclansmanmemberfellow_memberclanswomanmemberfellow_memberclan_membermemberfellow_memberclub_membermemberfellow_membercommissionermemberfellow_membercommittee_membermemberfellow_memberConservativememberfellow_membercouncil_membermemberfellow_membercouncillormemberfellow_memberfellowmemberfellow_memberhomeboymemberfellow_memberhomegirlmemberfellow_memberhuddlermemberfellow_memberinducteememberfellow_memberjoinermemberfellow_memberkibbutznikmemberfellow_memberkolkhoznikmemberfellow_memberpledgememberfellow_memberRosicrucianmemberfellow_memberRosicrucianmemberfellow_memberRotarianmemberfellow_membersistermemberfellow_membersodalistmemberfellow_membertribesman
p13
sS'label'
p14
S'member'
p15
sS'range'
p16
S'string '
p17
sS'uniq_subjs'
p18
S'0'
sS'uniq_objs'
p19
I0
sS'prop_uri'
p20
S'http://dbpedia.org/ontology/member'
p21
sS'annotations'
p22
(dp23
S'bag_of_words'
p24
(lp25
S'Person'
p26
aS'member'
p27
aS'string'
p28
aS'00'
p29
asS'chunk_seq'
p30
(lp31
S'O'
aS'B-NP'
p32
aS'E-NP'
p33
aS'O'
asS'dep_seq'
p34
(lp35
(lp36
S'nn'
p37
aS'3'
aS'1'
aa(lp38
S'nn'
p39
aS'3'
aS'2'
aa(lp40
S'root'
p41
aS'0'
aS'3'
aa(lp42
S'num'
p43
aS'3'
aS'4'
aasS'srls'
p44
(lp45
sS'pos_seq'
p46
(lp47
S'NN'
p48
aS'NN'
p49
aS'NN'
p50
aS'CD'
p51
asS'ner_seq'
p52
(lp53
S'O'
aS'O'
aS'O'
aS'O'
assb.