ccopy_reg
_reconstructor
p1
(c__main__
KBproperty
p2
c__builtin__
object
p3
NtRp4
(dp5
S'comment'
p6
S'End of the route. The opposite of OntologyProperty:routeStartDirection.1558215544'
p7
sS'domain'
p8
S'Route Of Transportation '
p9
sS'instances_count'
p10
I79
sS'phrases'
p11
NsS'syn_hypo'
p12
S''
sS'label'
p13
S'road end direction'
p14
sS'range'
p15
S'string '
p16
sS'uniq_subjs'
p17
S'79'
p18
sS'uniq_objs'
p19
I0
sS'prop_uri'
p20
S'http://dbpedia.org/ontology/routeEndDirection'
p21
sS'annotations'
p22
(dp23
S'bag_of_words'
p24
(lp25
S'Route'
p26
aS'Of'
p27
aS'Transportation'
p28
aS'road'
p29
aS'end'
p30
aS'direction'
p31
aS'string'
p32
aS'End'
p33
aS'of'
p34
aS'the'
p35
aS'route'
p36
aS'.'
aS'The'
p37
aS'opposite'
p38
aS'of'
p39
aS'OntologyProperty'
p40
aS':'
aS'routeStartDirection.1558215544'
p41
asS'chunk_seq'
p42
(lp43
S'S-NP'
p44
aS'S-PP'
p45
aS'B-NP'
p46
aS'I-NP'
p47
aS'I-NP'
p48
aS'I-NP'
p49
aS'I-NP'
p50
aS'E-NP'
p51
aS'S-PP'
p52
aS'B-NP'
p53
aS'E-NP'
p54
aS'O'
aS'B-NP'
p55
aS'E-NP'
p56
aS'S-PP'
p57
aS'S-NP'
p58
aS'O'
aS'S-NP'
p59
asS'dep_seq'
p60
(lp61
(lp62
S'dep'
p63
aS'18'
p64
aS'1'
aa(lp65
S'nn'
p66
aS'8'
aS'3'
aa(lp67
S'nn'
p68
aS'8'
aS'4'
aa(lp69
S'nn'
p70
aS'8'
aS'5'
aa(lp71
S'nn'
p72
aS'8'
aS'6'
aa(lp73
S'nn'
p74
aS'8'
aS'7'
aa(lp75
S'prep_of'
p76
aS'1'
aS'8'
aa(lp77
S'det'
p78
aS'11'
p79
aS'10'
p80
aa(lp81
S'prep_of'
p82
aS'8'
aS'11'
p83
aa(lp84
S'det'
p85
aS'14'
p86
aS'13'
p87
aa(lp88
S'dep'
p89
aS'1'
aS'14'
p90
aa(lp91
S'prep_of'
p92
aS'14'
p93
aS'16'
p94
aa(lp95
S'root'
p96
aS'0'
aS'18'
p97
aasS'srls'
p98
(lp99
sS'pos_seq'
p100
(lp101
S'NNP'
p102
aS'IN'
p103
aS'NNP'
p104
aS'NN'
p105
aS'NN'
p106
aS'NN'
p107
aS'NN'
p108
aS'NN'
p109
aS'IN'
p110
aS'DT'
p111
aS'NN'
p112
aS'.'
aS'DT'
p113
aS'NN'
p114
aS'IN'
p115
aS'NNP'
p116
aS':'
aS'NN'
p117
asS'ner_seq'
p118
(lp119
S'B-ORG'
p120
aS'I-ORG'
p121
aS'E-ORG'
p122
aS'O'
aS'O'
aS'O'
aS'O'
aS'O'
aS'O'
aS'O'
aS'O'
aS'O'
aS'O'
aS'O'
aS'O'
aS'S-LOC'
p123
aS'O'
aS'S-LOC'
p124
assb.