ccopy_reg
_reconstructor
p1
(c__main__
KBproperty
p2
c__builtin__
object
p3
NtRp4
(dp5
S'comment'
p6
S'Complexity of preparing a Food recipe33'
p7
sS'domain'
p8
S'Food '
p9
sS'instances_count'
p10
I3
sS'phrases'
p11
NsS'syn_hypo'
p12
Vcomplicatednesscomplexitycomplexnesscomplicationcomplexitycomplexnessknottinesscomplexitycomplexnesstortuousnesscomplexitycomplexnesselaboratenesscomplexitycomplexnesselaborationcomplexitycomplexnessintricacycomplexitycomplexnessinvolutioncomplexitycomplexnesstapestrycomplexitycomplexnesstrickiness
p13
sS'label'
p14
S'complexity'
p15
sS'range'
p16
S'string '
p17
sS'uniq_subjs'
p18
S'3'
sS'uniq_objs'
p19
I0
sS'prop_uri'
p20
S'http://dbpedia.org/ontology/complexity'
p21
sS'annotations'
p22
(dp23
S'bag_of_words'
p24
(lp25
S'Food'
p26
aS'complexity'
p27
aS'string'
p28
aS'Complexity'
p29
aS'of'
p30
aS'preparing'
p31
aS'a'
aS'Food'
p32
aS'recipe33'
p33
asS'chunk_seq'
p34
(lp35
S'B-NP'
p36
aS'I-NP'
p37
aS'I-NP'
p38
aS'E-NP'
p39
aS'S-PP'
p40
aS'S-VP'
p41
aS'B-NP'
p42
aS'I-NP'
p43
aS'E-NP'
p44
asS'dep_seq'
p45
(lp46
(lp47
S'nn'
p48
aS'4'
aS'1'
aa(lp49
S'nn'
p50
aS'4'
aS'2'
aa(lp51
S'nn'
p52
aS'4'
aS'3'
aa(lp53
S'root'
p54
aS'0'
aS'4'
aa(lp55
S'prepc_of'
p56
aS'4'
aS'6'
aa(lp57
S'det'
p58
aS'9'
aS'7'
aa(lp59
S'nn'
p60
aS'9'
aS'8'
aa(lp61
S'dobj'
p62
aS'6'
aS'9'
aasS'srls'
p63
(lp64
(dp65
S'A1'
p66
S'a Food recipe33'
p67
sS'V'
g31
sasS'pos_seq'
p68
(lp69
S'NN'
p70
aS'NN'
p71
aS'NN'
p72
aS'NN'
p73
aS'IN'
p74
aS'VBG'
p75
aS'DT'
p76
aS'NN'
p77
aS'NN'
p78
asS'ner_seq'
p79
(lp80
S'O'
aS'O'
aS'O'
aS'O'
aS'O'
aS'O'
aS'O'
aS'O'
aS'O'
assb.