ccopy_reg
_reconstructor
p1
(c__main__
KBproperty
p2
c__builtin__
object
p3
NtRp4
(dp5
S'comment'
p6
S'Reserved for DBpedia.73390927339092'
p7
sS'domain'
p8
S''
sS'instances_count'
p9
I2668954
sS'phrases'
p10
NsS'syn_hypo'
p11
S''
sS'label'
p12
S'Wikipage redirect'
p13
sS'range'
p14
S''
sS'uniq_subjs'
p15
S'2668954'
p16
sS'uniq_objs'
p17
I0
sS'prop_uri'
p18
S'http://dbpedia.org/ontology/wikiPageRedirects'
p19
sS'annotations'
p20
(dp21
S'bag_of_words'
p22
(lp23
S'Wikipage'
p24
aS'redirect'
p25
aS'Reserved'
p26
aS'for'
p27
aS'DBpedia.73390927339092'
p28
asS'chunk_seq'
p29
(lp30
S'S-NP'
p31
aS'B-VP'
p32
aS'E-VP'
p33
aS'S-PP'
p34
aS'S-NP'
p35
asS'dep_seq'
p36
(lp37
(lp38
S'nsubj'
p39
aS'2'
aS'1'
aa(lp40
S'root'
p41
aS'0'
aS'2'
aa(lp42
S'dep'
p43
aS'2'
aS'3'
aa(lp44
S'prep_for'
p45
aS'3'
aS'5'
aasS'srls'
p46
(lp47
(dp48
S'A1'
p49
S'Reserved for DBpedia.73390927339092'
p50
sS'A0'
p51
g24
sS'V'
g25
sa(dp52
S'A2'
p53
S'Wikipage  for DBpedia.73390927339092'
p54
sS'V'
g26
sasS'pos_seq'
p55
(lp56
S'NNP'
p57
aS'VBP'
p58
aS'VBN'
p59
aS'IN'
p60
aS'NNP'
p61
asS'ner_seq'
p62
(lp63
S'O'
aS'O'
aS'O'
aS'O'
aS'S-PER'
p64
assb.