ccopy_reg
_reconstructor
p1
(c__main__
KBproperty
p2
c__builtin__
object
p3
NtRp4
(dp5
S'comment'
p6
S'nombre de personnes ayant une license pour pratiquer cette activit\\xc3\\xa900'
p7
sS'domain'
p8
S'Activity '
p9
sS'instances_count'
p10
I0
sS'phrases'
p11
NsS'syn_hypo'
p12
S''
sS'label'
p13
S'number of licensed'
p14
sS'range'
p15
S'non Negative Integer '
p16
sS'uniq_subjs'
p17
S'0'
sS'uniq_objs'
p18
I0
sS'prop_uri'
p19
S'http://dbpedia.org/ontology/numberOfPeopleLicensed'
p20
sS'annotations'
p21
(dp22
S'bag_of_words'
p23
(lp24
S'Activity'
p25
aS'number'
p26
aS'of'
p27
aS'licensed'
p28
aS'non'
p29
aS'Negative'
p30
aS'Integer'
p31
aS'nombre'
p32
aS'de'
p33
aS'personnes'
p34
aS'ayant'
p35
aS'une'
p36
aS'license'
p37
aS'pour'
p38
aS'pratiquer'
p39
aS'cette'
p40
aS'activit'
p41
aS'\\'
aS'xc3'
p42
aS'\\'
aS'xa900'
p43
asS'chunk_seq'
p44
(lp45
S'B-NP'
p46
aS'E-NP'
p47
aS'S-PP'
p48
aS'B-NP'
p49
aS'I-NP'
p50
aS'I-NP'
p51
aS'I-NP'
p52
aS'I-NP'
p53
aS'I-NP'
p54
aS'I-NP'
p55
aS'I-NP'
p56
aS'I-NP'
p57
aS'I-NP'
p58
aS'I-NP'
p59
aS'I-NP'
p60
aS'I-NP'
p61
aS'E-NP'
p62
aS'O'
aS'O'
aS'O'
aS'O'
asS'dep_seq'
p63
(lp64
(lp65
S'nn'
p66
aS'2'
aS'1'
aa(lp67
S'root'
p68
aS'0'
aS'2'
aa(lp69
S'dep'
p70
aS'8'
aS'3'
aa(lp71
S'amod'
p72
aS'8'
aS'4'
aa(lp73
S'amod'
p74
aS'8'
aS'5'
aa(lp75
S'amod'
p76
aS'8'
aS'6'
aa(lp77
S'nn'
p78
aS'8'
aS'7'
aa(lp79
S'dep'
p80
aS'2'
aS'8'
aa(lp81
S'nn'
p82
aS'8'
aS'9'
aa(lp83
S'nn'
p84
aS'8'
aS'10'
p85
aa(lp86
S'nn'
p87
aS'8'
aS'11'
p88
aa(lp89
S'nn'
p90
aS'8'
aS'12'
p91
aa(lp92
S'nn'
p93
aS'8'
aS'13'
p94
aa(lp95
S'nn'
p96
aS'8'
aS'14'
p97
aa(lp98
S'nn'
p99
aS'8'
aS'15'
p100
aa(lp101
S'nn'
p102
aS'8'
aS'16'
p103
aa(lp104
S'nn'
p105
aS'8'
aS'17'
p106
aa(lp107
S'nn'
p108
aS'8'
aS'18'
p109
aa(lp110
S'nn'
p111
aS'8'
aS'19'
p112
aa(lp113
S'nn'
p114
aS'8'
aS'20'
p115
aa(lp116
S'dep'
p117
aS'8'
aS'21'
p118
aasS'srls'
p119
(lp120
sS'pos_seq'
p121
(lp122
S'NN'
p123
aS'NN'
p124
aS'IN'
p125
aS'JJ'
p126
aS'JJ'
p127
aS'JJ'
p128
aS'NN'
p129
aS'NN'
p130
aS'FW'
p131
aS'FW'
p132
aS'FW'
p133
aS'FW'
p134
aS'FW'
p135
aS'FW'
p136
aS'FW'
p137
aS'FW'
p138
aS'FW'
p139
aS'FW'
p140
aS'FW'
p141
aS'FW'
p142
aS'FW'
p143
asS'ner_seq'
p144
(lp145
S'O'
aS'O'
aS'O'
aS'O'
aS'O'
aS'B-MISC'
p146
aS'E-MISC'
p147
aS'O'
aS'O'
aS'O'
aS'O'
aS'O'
aS'O'
aS'O'
aS'O'
aS'O'
aS'O'
aS'O'
aS'O'
aS'O'
aS'O'
assb.