ccopy_reg
_reconstructor
p1
(c__main__
KBproperty
p2
c__builtin__
object
p3
NtRp4
(dp5
S'comment'
p6
S'00'
p7
sS'domain'
p8
S''
sS'instances_count'
p9
I0
sS'phrases'
p10
NsS'syn_hypo'
p11
S''
sS'label'
p12
S'manager years start year'
p13
sS'range'
p14
S'g Year '
p15
sS'uniq_subjs'
p16
S'0'
sS'uniq_objs'
p17
I0
sS'prop_uri'
p18
S'http://dbpedia.org/ontology/managerYearsStartYear'
p19
sS'annotations'
p20
(dp21
S'bag_of_words'
p22
(lp23
S'manager'
p24
aS'years'
p25
aS'start'
p26
aS'year'
p27
aS'g'
aS'Year'
p28
aS'00'
p29
asS'chunk_seq'
p30
(lp31
S'B-NP'
p32
aS'E-NP'
p33
aS'S-VP'
p34
aS'B-NP'
p35
aS'I-NP'
p36
aS'E-NP'
p37
aS'O'
asS'dep_seq'
p38
(lp39
(lp40
S'nn'
p41
aS'2'
aS'1'
aa(lp42
S'nsubj'
p43
aS'3'
aS'2'
aa(lp44
S'root'
p45
aS'0'
aS'3'
aa(lp46
S'nn'
p47
aS'6'
aS'4'
aa(lp48
S'nn'
p49
aS'6'
aS'5'
aa(lp50
S'tmod'
p51
aS'3'
aS'6'
aa(lp52
S'num'
p53
aS'6'
aS'7'
aasS'srls'
p54
(lp55
(dp56
S'A1'
p57
S'manager years'
p58
sS'AM-TMP'
p59
S'year g Year 00'
p60
sS'V'
g26
sasS'pos_seq'
p61
(lp62
S'NN'
p63
aS'NNS'
p64
aS'VBP'
p65
aS'NN'
p66
aS'NN'
p67
aS'NN'
p68
aS'CD'
p69
asS'ner_seq'
p70
(lp71
S'O'
aS'O'
aS'O'
aS'O'
aS'O'
aS'O'
aS'O'
assb.