ccopy_reg
_reconstructor
p1
(c__main__
KBproperty
p2
c__builtin__
object
p3
NtRp4
(dp5
S'comment'
p6
S'473332'
p7
sS'domain'
p8
S'Anatomical Structure '
p9
sS'instances_count'
p10
I195
sS'phrases'
p11
NsS'syn_hypo'
p12
Valveolar_arteryarteryarteriaarterial_blood_vesselarteria_alveolarisarteryarteriaarterial_blood_vesselangular_arteryarteryarteriaarterial_blood_vesselarteria_angularisarteryarteriaarterial_blood_vesselaortaarteryarteriaarterial_blood_vesselappendicular_arteryarteryarteriaarterial_blood_vesselarteria_appendicularisarteryarteriaarterial_blood_vesselarcuate_arteryarteryarteriaarterial_blood_vesselarteria_arcuataarteryarteriaarterial_blood_vesselarcuate_artery_of_the_kidneyarteryarteriaarterial_blood_vesselarteriolearteryarteriaarterial_blood_vesselarteriolaarteryarteriaarterial_blood_vesselcapillary_arteryarteryarteriaarterial_blood_vesselartery_of_the_penis_bulbarteryarteriaarterial_blood_vesselarteria_bulbi_penisarteryarteriaarterial_blood_vesselartery_of_the_vestibule_bulbarteryarteriaarterial_blood_vesselarteria_bulbi_vestibuliarteryarteriaarterial_blood_vesselascending_arteryarteryarteriaarterial_blood_vesselarteria_ascendensarteryarteriaarterial_blood_vesselauricular_arteryarteryarteriaarterial_blood_vesselarteria_auricularisarteryarteriaarterial_blood_vesselaxillary_arteryarteryarteriaarterial_blood_vesselarteria_axillarisarteryarteriaarterial_blood_vesselbasilar_arteryarteryarteriaarterial_blood_vesselarteria_basilarisarteryarteriaarterial_blood_vesselbrachial_arteryarteryarteriaarterial_blood_vesselarteria_brachialisarteryarteriaarterial_blood_vesselbronchial_arteryarteryarteriaarterial_blood_vesselbuccal_arteryarteryarteriaarterial_blood_vesselarteria_buccalisarteryarteriaarterial_blood_vesselcarotid_arteryarteryarteriaarterial_blood_vesselarteria_carotisarteryarteriaarterial_blood_vesselceliac_trunkarteryarteriaarterial_blood_vesselceliac_arteryarteryarteriaarterial_blood_vesseltruncus_celiacusarteryarteriaarterial_blood_vesselarteria_celiacaarteryarteriaarterial_blood_vesselcentral_artery_of_the_retinaarteryarteriaarterial_blood_vesselarteria_centralis_retinaearteryarteriaarterial_blood_vesselcerebellar_arteryarteryarteriaarterial_blood_vesselarteria_cerebelliarteryarteriaarterial_blood_vesselcerebral_arteryarteryarteriaarterial_blood_vesselarteria_cerebriarteryarteriaarterial_blood_vesselcervical_arteryarteryarteriaarterial_blood_vesselareteria_cervicalisarteryarteriaarterial_blood_vesselchoroidal_arteryarteryarteriaarterial_blood_vesselarteria_choroideaarteryarteriaarterial_blood_vesselciliary_arteryarteryarteriaarterial_blood_vesselarteria_ciliarisarteryarteriaarterial_blood_vesselcircle_of_Willisarteryarteriaarterial_blood_vesselcircumflex_arteryarteryarteriaarterial_blood_vesselcolic_arteryarteryarteriaarterial_blood_vesselarteria_colicaarteryarteriaarterial_blood_vesselcommunicating_arteryarteryarteriaarterial_blood_vesselarteria_communicansarteryarteriaarterial_blood_vesselcoronary_arteryarteryarteriaarterial_blood_vesselarteria_coronariaarteryarteriaarterial_blood_vesselcystic_arteryarteryarteriaarterial_blood_vesselarteria_cysticaarteryarteriaarterial_blood_vesseldigital_arteriesarteryarteriaarterial_blood_vesselarteria_digitalisarteryarteriaarterial_blood_vesselepigastric_arteryarteryarteriaarterial_blood_vesselarteria_epigastricaarteryarteriaarterial_blood_vesselethmoidal_arteryarteryarteriaarterial_blood_vesselarteria_ethmoidalisarteryarteriaarterial_blood_vesselfemoral_arteryarteryarteriaarterial_blood_vesselarteria_femoralisarteryarteriaarterial_blood_vesselgastric_arteryarteryarteriaarterial_blood_vesselarteria_gastricaarteryarteriaarterial_blood_vesselgluteal_arteryarteryarteriaarterial_blood_vesselarteria_glutesarteryarteriaarterial_blood_vesselhepatic_arteryarteryarteriaarterial_blood_vesselarteria_hepaticaarteryarteriaarterial_blood_vesselileal_arteryarteryarteriaarterial_blood_vesselintestinal_arteryarteryarteriaarterial_blood_vesselarteria_ileumarteryarteriaarterial_blood_vesselileocolic_arteryarteryarteriaarterial_blood_vesselarteria_ileocolicaarteryarteriaarterial_blood_vesseliliac_arteryarteryarteriaarterial_blood_vesselarteria_iliacaarteryarteriaarterial_blood_vesseliliolumbar_arteryarteryarteriaarterial_blood_vesselarteria_iliolumbalisarteryarteriaarterial_blood_vesselinfraorbital_arteryarteryarteriaarterial_blood_vesselarteria_infraorbitalisarteryarteriaarterial_blood_vesselinnominate_arteryarteryarteriaarterial_blood_vesselintercostal_arteryarteryarteriaarterial_blood_vesselarteria_intercostalisarteryarteriaarterial_blood_vesseljejunal_arteryarteryarteriaarterial_blood_vesselintestinal_arteryarteryarteriaarterial_blood_vessellabial_arteryarteryarteriaarterial_blood_vesselarteria_labialisarteryarteriaarterial_blood_vessellabyrinthine_arteryarteryarteriaarterial_blood_vesselartery_of_the_labyrintharteryarteriaarterial_blood_vesselinternal_auditory_arteryarteryarteriaarterial_blood_vessellacrimal_arteryarteryarteriaarterial_blood_vesselarteria_lacrimalisarteryarteriaarterial_blood_vessellaryngeal_arteryarteryarteriaarterial_blood_vesselarteria_laryngeaarteryarteriaarterial_blood_vessellienal_arteryarteryarteriaarterial_blood_vesselsplenic_arteryarteryarteriaarterial_blood_vesselarteria_lienalisarteryarteriaarterial_blood_vessellingual_arteryarteryarteriaarterial_blood_vesselarteria_lingualisarteryarteriaarterial_blood_vessellumbar_arteryarteryarteriaarterial_blood_vesselarteria_lumbalisarteryarteriaarterial_blood_vesselmaxillary_arteryarteryarteriaarterial_blood_vesselarteria_maxillarisarteryarteriaarterial_blood_vesselmeningeal_arteryarteryarteriaarterial_blood_vesselarteria_meningeaarteryarteriaarterial_blood_vesselmesenteric_arteryarteryarteriaarterial_blood_vesselarteria_mesentericaarteryarteriaarterial_blood_vesselmetacarpal_arteryarteryarteriaarterial_blood_vesselarteria_metacarpeaarteryarteriaarterial_blood_vesselmetatarsal_arteryarteryarteriaarterial_blood_vesselarteria_metatarseaarteryarteriaarterial_blood_vesselmusculophrenic_arteryarteryarteriaarterial_blood_vesselarteria_musculophrenicaarteryarteriaarterial_blood_vesselnutrient_arteryarteryarteriaarterial_blood_vesselarteria_nutriciaarteryarteriaarterial_blood_vesselophthalmic_arteryarteryarteriaarterial_blood_vesselarteria_ophthalmicaarteryarteriaarterial_blood_vesselovarian_arteryarteryarteriaarterial_blood_vesselarteria_ovaricaarteryarteriaarterial_blood_vesselpalatine_arteryarteryarteriaarterial_blood_vesselarteria_palatinaarteryarteriaarterial_blood_vesselpancreatic_arteryarteryarteriaarterial_blood_vesselarteria_pancreaticaarteryarteriaarterial_blood_vesselperineal_arteryarteryarteriaarterial_blood_vesselarteria_perinealisarteryarteriaarterial_blood_vesselpopliteal_arteryarteryarteriaarterial_blood_vesselarteria_popliteaarteryarteriaarterial_blood_vesselpudendal_arteryarteryarteriaarterial_blood_vesselarteria_pudendaarteryarteriaarterial_blood_vesselpulmonary_arteryarteryarteriaarterial_blood_vesselarteria_pulmonalisarteryarteriaarterial_blood_vesselradial_arteryarteryarteriaarterial_blood_vesselarteria_radialisarteryarteriaarterial_blood_vesselrectal_arteryarteryarteriaarterial_blood_vesselarteria_rectalisarteryarteriaarterial_blood_vesselrenal_arteryarteryarteriaarterial_blood_vesselarteria_renalisarteryarteriaarterial_blood_vesselsubclavian_arteryarteryarteriaarterial_blood_vesselarteria_subclaviaarteryarteriaarterial_blood_vesseltesticular_arteryarteryarteriaarterial_blood_vesselinternal_spermatic_arteryarteryarteriaarterial_blood_vesselarteria_testicularisarteryarteriaarterial_blood_vesselulnar_arteryarteryarteriaarterial_blood_vesselarteria_ulnarisarteryarteriaarterial_blood_vesseluterine_arteryarteryarteriaarterial_blood_vesselarteria_uterinaarteryarteriaarterial_blood_vesselvaginal_arteryarteryarteriaarterial_blood_vesselarteria_vaginalisarteryarteriaarterial_blood_vesselvertebral_arteryarteryarteriaarterial_blood_vesselarteria_vertebralis
p13
sS'label'
p14
S'artery'
p15
sS'range'
p16
S'Artery '
p17
sS'uniq_subjs'
p18
S'195'
p19
sS'uniq_objs'
p20
I0
sS'prop_uri'
p21
S'http://dbpedia.org/ontology/artery'
p22
sS'annotations'
p23
(dp24
S'bag_of_words'
p25
(lp26
S'Anatomical'
p27
aS'Structure'
p28
aS'artery'
p29
aS'Artery'
p30
aS'473332'
p31
asS'chunk_seq'
p32
(lp33
S'B-NP'
p34
aS'I-NP'
p35
aS'I-NP'
p36
aS'I-NP'
p37
aS'E-NP'
p38
asS'dep_seq'
p39
(lp40
(lp41
S'amod'
p42
aS'5'
aS'1'
aa(lp43
S'nn'
p44
aS'5'
aS'2'
aa(lp45
S'nn'
p46
aS'5'
aS'3'
aa(lp47
S'nn'
p48
aS'5'
aS'4'
aa(lp49
S'root'
p50
aS'0'
aS'5'
aasS'srls'
p51
(lp52
sS'pos_seq'
p53
(lp54
S'JJ'
p55
aS'NN'
p56
aS'NN'
p57
aS'NN'
p58
aS'NN'
p59
asS'ner_seq'
p60
(lp61
S'O'
aS'O'
aS'O'
aS'O'
aS'O'
assb.