ccopy_reg
_reconstructor
p1
(c__main__
KBproperty
p2
c__builtin__
object
p3
NtRp4
(dp5
S'comment'
p6
S'width of runway \\xce\\xbc'
p7
sS'domain'
p8
S'Airport '
p9
sS'instances_count'
p10
I0
sS'phrases'
p11
NsS'syn_hypo'
p12
S''
sS'label'
p13
g7
sS'range'
p14
S'double '
p15
sS'uniq_subjs'
p16
S'0'
sS'uniq_objs'
p17
I0
sS'prop_uri'
p18
S'http://dbpedia.org/ontology/runwayWidth'
p19
sS'annotations'
p20
(dp21
S'bag_of_words'
p22
(lp23
S'Airport'
p24
aS'runway'
p25
aS'Width'
p26
aS'double'
p27
aS'width'
p28
aS'of'
p29
aS'runway'
p30
aS'\\'
aS'xce'
p31
aS'\\'
aS'xbc'
p32
asS'chunk_seq'
p33
(lp34
S'B-NP'
p35
aS'I-NP'
p36
aS'I-NP'
p37
aS'I-NP'
p38
aS'E-NP'
p39
aS'S-PP'
p40
aS'S-NP'
p41
aS'O'
aS'O'
aS'O'
aS'O'
asS'dep_seq'
p42
(lp43
(lp44
S'nn'
p45
aS'3'
aS'1'
aa(lp46
S'nn'
p47
aS'3'
aS'2'
aa(lp48
S'dep'
p49
aS'5'
aS'3'
aa(lp50
S'amod'
p51
aS'5'
aS'4'
aa(lp52
S'root'
p53
aS'0'
aS'5'
aa(lp54
S'prep_of'
p55
aS'5'
aS'7'
aa(lp56
S'dep'
p57
aS'5'
aS'8'
aa(lp58
S'discourse'
p59
aS'8'
aS'9'
aa(lp60
S'dep'
p61
aS'9'
aS'10'
p62
aa(lp63
S'dep'
p64
aS'9'
aS'11'
p65
aasS'srls'
p66
(lp67
sS'pos_seq'
p68
(lp69
S'NN'
p70
aS'NN'
p71
aS'NNP'
p72
aS'JJ'
p73
aS'NN'
p74
aS'IN'
p75
aS'NN'
p76
aS'FW'
p77
aS'FW'
p78
aS'FW'
p79
aS'FW'
p80
asS'ner_seq'
p81
(lp82
S'O'
aS'O'
aS'O'
aS'O'
aS'O'
aS'O'
aS'O'
aS'O'
aS'O'
aS'O'
aS'O'
assb.