ccopy_reg
_reconstructor
p1
(c__main__
KBproperty
p2
c__builtin__
object
p3
NtRp4
(dp5
S'comment'
p6
S'A person playing for a sports team. inverseOf team00'
p7
sS'domain'
p8
S'Sports Team '
p9
sS'instances_count'
p10
I0
sS'phrases'
p11
NsS'syn_hypo'
p12
S''
sS'label'
p13
S'player in team'
p14
sS'range'
p15
S'Person '
p16
sS'uniq_subjs'
p17
S'0'
sS'uniq_objs'
p18
I0
sS'prop_uri'
p19
S'http://dbpedia.org/ontology/playerInTeam'
p20
sS'annotations'
p21
(dp22
S'bag_of_words'
p23
(lp24
S'Sports'
p25
aS'Team'
p26
aS'player'
p27
aS'in'
p28
aS'team'
p29
aS'Person'
p30
aS'A'
aS'person'
p31
aS'playing'
p32
aS'for'
p33
aS'a'
aS'sports'
p34
aS'team.'
p35
aS'inverseOf'
p36
aS'team00'
p37
asS'chunk_seq'
p38
(lp39
S'B-NP'
p40
aS'I-NP'
p41
aS'E-NP'
p42
aS'S-PP'
p43
aS'B-NP'
p44
aS'E-NP'
p45
aS'B-NP'
p46
aS'E-NP'
p47
aS'S-VP'
p48
aS'S-PP'
p49
aS'B-NP'
p50
aS'I-NP'
p51
aS'I-NP'
p52
aS'I-NP'
p53
aS'E-NP'
p54
asS'dep_seq'
p55
(lp56
(lp57
S'nn'
p58
aS'3'
aS'1'
aa(lp59
S'nn'
p60
aS'3'
aS'2'
aa(lp61
S'dep'
p62
aS'8'
aS'3'
aa(lp63
S'nn'
p64
aS'6'
aS'5'
aa(lp65
S'prep_in'
p66
aS'3'
aS'6'
aa(lp67
S'det'
p68
aS'8'
aS'7'
aa(lp69
S'root'
p70
aS'0'
aS'8'
aa(lp71
S'dep'
p72
aS'8'
aS'9'
aa(lp73
S'det'
p74
aS'12'
p75
aS'11'
p76
aa(lp77
S'prep_for'
p78
aS'9'
aS'12'
p79
aa(lp80
S'nn'
p81
aS'12'
p82
aS'13'
p83
aa(lp84
S'nn'
p85
aS'12'
p86
aS'14'
p87
aa(lp88
S'dep'
p89
aS'12'
p90
aS'15'
p91
aasS'srls'
p92
(lp93
(dp94
S'A1'
p95
S'for a sports team. inverseOf team00'
p96
sS'A0'
p97
S'A person'
p98
sS'V'
g32
sasS'pos_seq'
p99
(lp100
S'NNP'
p101
aS'NNP'
p102
aS'NN'
p103
aS'IN'
p104
aS'NN'
p105
aS'NN'
p106
aS'DT'
p107
aS'NN'
p108
aS'VBG'
p109
aS'IN'
p110
aS'DT'
p111
aS'NNS'
p112
aS'FW'
p113
aS'FW'
p114
aS'FW'
p115
asS'ner_seq'
p116
(lp117
S'B-ORG'
p118
aS'E-ORG'
p119
aS'O'
aS'O'
aS'O'
aS'O'
aS'O'
aS'O'
aS'O'
aS'O'
aS'O'
aS'O'
aS'O'
aS'O'
aS'O'
assb.