ccopy_reg
_reconstructor
p1
(c__main__
KBproperty
p2
c__builtin__
object
p3
NtRp4
(dp5
S'comment'
p6
S'205205'
p7
sS'domain'
p8
S'Sales '
p9
sS'instances_count'
p10
I82
sS'phrases'
p11
NsS'syn_hypo'
p12
S''
sS'label'
p13
S'start year of sales'
p14
sS'range'
p15
S'g Year '
p16
sS'uniq_subjs'
p17
S'82'
p18
sS'uniq_objs'
p19
I0
sS'prop_uri'
p20
S'http://dbpedia.org/ontology/startYearOfSales'
p21
sS'annotations'
p22
(dp23
S'bag_of_words'
p24
(lp25
S'Sales'
p26
aS'start'
p27
aS'year'
p28
aS'of'
p29
aS'sales'
p30
aS'g'
aS'Year'
p31
aS'205205'
p32
asS'chunk_seq'
p33
(lp34
S'S-NP'
p35
aS'S-VP'
p36
aS'S-NP'
p37
aS'S-PP'
p38
aS'S-NP'
p39
aS'B-NP'
p40
aS'E-NP'
p41
aS'O'
asS'dep_seq'
p42
(lp43
(lp44
S'nsubj'
p45
aS'2'
aS'1'
aa(lp46
S'root'
p47
aS'0'
aS'2'
aa(lp48
S'dobj'
p49
aS'2'
aS'3'
aa(lp50
S'nn'
p51
aS'8'
aS'5'
aa(lp52
S'possessive'
p53
aS'8'
aS'6'
aa(lp54
S'nn'
p55
aS'8'
aS'7'
aa(lp56
S'prep_of'
p57
aS'3'
aS'8'
aasS'srls'
p58
(lp59
(dp60
S'A1'
p61
g26
sS'AM-TMP'
p62
S'year of sales g Year 205205'
p63
sS'V'
g27
sasS'pos_seq'
p64
(lp65
S'NNS'
p66
aS'VBP'
p67
aS'NN'
p68
aS'IN'
p69
aS'NNS'
p70
aS'POS'
p71
aS'NN'
p72
aS'NN'
p73
asS'ner_seq'
p74
(lp75
S'O'
aS'O'
aS'O'
aS'O'
aS'O'
aS'O'
aS'O'
aS'O'
assb.