ccopy_reg
_reconstructor
p1
(c__main__
KBproperty
p2
c__builtin__
object
p3
NtRp4
(dp5
S'comment'
p6
S'space station that has been visited during a space mission00'
p7
sS'domain'
p8
S'Space Mission '
p9
sS'instances_count'
p10
I0
sS'phrases'
p11
NsS'syn_hypo'
p12
S''
sS'label'
p13
S'spacestation'
p14
sS'range'
p15
S'Space Station '
p16
sS'uniq_subjs'
p17
S'0'
sS'uniq_objs'
p18
I0
sS'prop_uri'
p19
S'http://dbpedia.org/ontology/spacestation'
p20
sS'annotations'
p21
(dp22
S'bag_of_words'
p23
(lp24
S'Space'
p25
aS'Mission'
p26
aS'spacestation'
p27
aS'Space'
p28
aS'Station'
p29
aS'space'
p30
aS'station'
p31
aS'that'
p32
aS'has'
p33
aS'been'
p34
aS'visited'
p35
aS'during'
p36
aS'a'
aS'space'
p37
aS'mission00'
p38
asS'chunk_seq'
p39
(lp40
S'B-NP'
p41
aS'I-NP'
p42
aS'I-NP'
p43
aS'I-NP'
p44
aS'I-NP'
p45
aS'I-NP'
p46
aS'E-NP'
p47
aS'S-NP'
p48
aS'B-VP'
p49
aS'I-VP'
p50
aS'E-VP'
p51
aS'S-PP'
p52
aS'B-NP'
p53
aS'I-NP'
p54
aS'E-NP'
p55
asS'dep_seq'
p56
(lp57
(lp58
S'nn'
p59
aS'7'
aS'1'
aa(lp60
S'nn'
p61
aS'7'
aS'2'
aa(lp62
S'nn'
p63
aS'7'
aS'3'
aa(lp64
S'nn'
p65
aS'7'
aS'4'
aa(lp66
S'nn'
p67
aS'7'
aS'5'
aa(lp68
S'nn'
p69
aS'7'
aS'6'
aa(lp70
S'root'
p71
aS'0'
aS'7'
aa(lp72
S'nsubjpass'
p73
aS'11'
p74
aS'7'
aa(lp75
S'aux'
p76
aS'11'
p77
aS'9'
aa(lp78
S'auxpass'
p79
aS'11'
p80
aS'10'
p81
aa(lp82
S'rcmod'
p83
aS'7'
aS'11'
p84
aa(lp85
S'det'
p86
aS'15'
p87
aS'13'
p88
aa(lp89
S'nn'
p90
aS'15'
p91
aS'14'
p92
aa(lp93
S'prep_during'
p94
aS'11'
p95
aS'15'
p96
aasS'srls'
p97
(lp98
(dp99
S'A1'
p100
S'Space Mission spacestation Space Station space station'
p101
sS'AM-TMP'
p102
S'during a space mission00'
p103
sS'R-A1'
p104
g32
sS'V'
g35
sasS'pos_seq'
p105
(lp106
S'NNP'
p107
aS'NNP'
p108
aS'NN'
p109
aS'NNP'
p110
aS'NNP'
p111
aS'NN'
p112
aS'NN'
p113
aS'WDT'
p114
aS'VBZ'
p115
aS'VBN'
p116
aS'VBN'
p117
aS'IN'
p118
aS'DT'
p119
aS'NN'
p120
aS'NN'
p121
asS'ner_seq'
p122
(lp123
S'B-ORG'
p124
aS'I-ORG'
p125
aS'I-ORG'
p126
aS'I-ORG'
p127
aS'E-ORG'
p128
aS'O'
aS'O'
aS'O'
aS'O'
aS'O'
aS'O'
aS'O'
aS'O'
aS'O'
aS'O'
assb.