ccopy_reg
_reconstructor
p1
(c__main__
KBproperty
p2
c__builtin__
object
p3
NtRp4
(dp5
S'comment'
p6
S'9486282643'
p7
sS'domain'
p8
S''
sS'instances_count'
p9
I27603
sS'phrases'
p10
NsS'syn_hypo'
p11
S''
sS'label'
p12
S'active years start date'
p13
sS'range'
p14
S'date '
p15
sS'uniq_subjs'
p16
S'27603'
p17
sS'uniq_objs'
p18
I0
sS'prop_uri'
p19
S'http://dbpedia.org/ontology/activeYearsStartDate'
p20
sS'annotations'
p21
(dp22
S'bag_of_words'
p23
(lp24
S'active'
p25
aS'years'
p26
aS'start'
p27
aS'date'
p28
aS'date'
p29
aS'9486282643'
p30
asS'chunk_seq'
p31
(lp32
S'B-NP'
p33
aS'E-NP'
p34
aS'S-VP'
p35
aS'B-NP'
p36
aS'E-NP'
p37
aS'S-NP'
p38
asS'dep_seq'
p39
(lp40
(lp41
S'amod'
p42
aS'2'
aS'1'
aa(lp43
S'nsubj'
p44
aS'3'
aS'2'
aa(lp45
S'root'
p46
aS'0'
aS'3'
aa(lp47
S'nn'
p48
aS'5'
aS'4'
aa(lp49
S'dobj'
p50
aS'3'
aS'5'
aa(lp51
S'iobj'
p52
aS'3'
aS'5'
aa(lp53
S'dobj'
p54
aS'3'
aS'6'
aa(lp55
S'dep'
p56
aS'5'
aS'6'
aasS'srls'
p57
(lp58
(dp59
S'AM-TMP'
p60
S'date date'
p61
sS'V'
g27
sasS'pos_seq'
p62
(lp63
S'JJ'
p64
aS'NNS'
p65
aS'VBP'
p66
aS'NN'
p67
aS'NN'
p68
aS'NN'
p69
asS'ner_seq'
p70
(lp71
S'O'
aS'O'
aS'O'
aS'O'
aS'O'
aS'O'
assb.