ccopy_reg
_reconstructor
p1
(c__main__
KBproperty
p2
c__builtin__
object
p3
NtRp4
(dp5
S'comment'
p6
S'continental tournament'
p7
sS'domain'
p8
S'Person '
p9
sS'instances_count'
p10
I0
sS'phrases'
p11
NsS'syn_hypo'
p12
S''
sS'label'
p13
g7
sS'range'
p14
S'Tournament '
p15
sS'uniq_subjs'
p16
S'0'
sS'uniq_objs'
p17
I0
sS'prop_uri'
p18
S'http://dbpedia.org/ontology/nationalTournament'
p19
sS'annotations'
p20
(dp21
S'bag_of_words'
p22
(lp23
S'Person'
p24
aS'national'
p25
aS'Tournament'
p26
aS'Tournament'
p27
aS'continental'
p28
aS'tournament'
p29
asS'chunk_seq'
p30
(lp31
S'B-NP'
p32
aS'I-NP'
p33
aS'I-NP'
p34
aS'I-NP'
p35
aS'I-NP'
p36
aS'E-NP'
p37
asS'dep_seq'
p38
(lp39
(lp40
S'nn'
p41
aS'6'
aS'1'
aa(lp42
S'amod'
p43
aS'6'
aS'2'
aa(lp44
S'nn'
p45
aS'6'
aS'3'
aa(lp46
S'nn'
p47
aS'6'
aS'4'
aa(lp48
S'amod'
p49
aS'6'
aS'5'
aa(lp50
S'root'
p51
aS'0'
aS'6'
aasS'srls'
p52
(lp53
sS'pos_seq'
p54
(lp55
S'NN'
p56
aS'JJ'
p57
aS'NNP'
p58
aS'NNP'
p59
aS'JJ'
p60
aS'NN'
p61
asS'ner_seq'
p62
(lp63
S'O'
aS'O'
aS'B-MISC'
p64
aS'I-MISC'
p65
aS'E-MISC'
p66
aS'O'
assb.