ccopy_reg
_reconstructor
p1
(c__main__
KBproperty
p2
c__builtin__
object
p3
NtRp4
(dp5
S'comment'
p6
S"a municipality's new name"
p7
sS'domain'
p8
S'Municipality '
p9
sS'instances_count'
p10
I0
sS'phrases'
p11
NsS'syn_hypo'
p12
S''
sS'label'
p13
S'"a municipality\'s new name'
p14
sS'range'
p15
S'string '
p16
sS'uniq_subjs'
p17
S'0'
sS'uniq_objs'
p18
I0
sS'prop_uri'
p19
S'http://dbpedia.org/ontology/municipalityRenamedTo'
p20
sS'annotations'
p21
(dp22
S'bag_of_words'
p23
(lp24
S'Municipality'
p25
aS'municipality'
p26
aS'Renamed'
p27
aS'To'
p28
aS'string'
p29
aS'a'
aS'municipality'
p30
aS"'s"
p31
aS'new'
p32
aS'name'
p33
asS'chunk_seq'
p34
(lp35
S'B-NP'
p36
aS'E-NP'
p37
aS'S-VP'
p38
aS'B-VP'
p39
aS'E-VP'
p40
aS'B-NP'
p41
aS'E-NP'
p42
aS'B-NP'
p43
aS'I-NP'
p44
aS'E-NP'
p45
asS'dep_seq'
p46
(lp47
(lp48
S'nn'
p49
aS'2'
aS'1'
aa(lp50
S'root'
p51
aS'0'
aS'2'
aa(lp52
S'partmod'
p53
aS'2'
aS'3'
aa(lp54
S'aux'
p55
aS'5'
aS'4'
aa(lp56
S'xcomp'
p57
aS'3'
aS'5'
aa(lp58
S'det'
p59
aS'7'
aS'6'
aa(lp60
S'poss'
p61
aS'10'
p62
aS'7'
aa(lp63
S'amod'
p64
aS'10'
p65
aS'9'
aa(lp66
S'dobj'
p67
aS'5'
aS'10'
p68
aasS'srls'
p69
(lp70
(dp71
S'A1'
p72
S'Municipality municipality'
p73
sS'AM-PNC'
p74
S"To string a municipality 's new name"
p75
sS'V'
g27
sa(dp76
S'A1'
p77
S"a municipality 's new name"
p78
sS'A0'
p79
S'Municipality municipality'
p80
sS'V'
g29
sasS'pos_seq'
p81
(lp82
S'NN'
p83
aS'NN'
p84
aS'VBN'
p85
aS'TO'
p86
aS'VB'
p87
aS'DT'
p88
aS'NN'
p89
aS'POS'
p90
aS'JJ'
p91
aS'NN'
p92
asS'ner_seq'
p93
(lp94
S'O'
aS'O'
aS'O'
aS'O'
aS'O'
aS'O'
aS'O'
aS'O'
aS'O'
aS'O'
assb.