ccopy_reg
_reconstructor
p1
(c__main__
KBproperty
p2
c__builtin__
object
p3
NtRp4
(dp5
S'comment'
p6
S'92069169'
p7
sS'domain'
p8
S'Person Function '
p9
sS'instances_count'
p10
I8994
sS'phrases'
p11
NsS'syn_hypo'
p12
S''
sS'label'
p13
S'personName'
p14
sS'range'
p15
S'string '
p16
sS'uniq_subjs'
p17
S'8994'
p18
sS'uniq_objs'
p19
I0
sS'prop_uri'
p20
S'http://dbpedia.org/ontology/personName'
p21
sS'annotations'
p22
(dp23
S'bag_of_words'
p24
(lp25
S'Person'
p26
aS'Function'
p27
aS'personName'
p28
aS'string'
p29
aS'92069169'
p30
asS'chunk_seq'
p31
(lp32
S'B-NP'
p33
aS'I-NP'
p34
aS'I-NP'
p35
aS'E-NP'
p36
aS'O'
asS'dep_seq'
p37
(lp38
(lp39
S'nn'
p40
aS'4'
aS'1'
aa(lp41
S'nn'
p42
aS'4'
aS'2'
aa(lp43
S'amod'
p44
aS'4'
aS'3'
aa(lp45
S'root'
p46
aS'0'
aS'4'
aa(lp47
S'punct'
p48
aS'4'
aS'5'
aasS'srls'
p49
(lp50
sS'pos_seq'
p51
(lp52
S'NN'
p53
aS'NN'
p54
aS'JJ'
p55
aS'NN'
p56
aS'.'
asS'ner_seq'
p57
(lp58
S'O'
aS'O'
aS'O'
aS'O'
aS'O'
assb.