ccopy_reg
_reconstructor
p1
(c__main__
KBproperty
p2
c__builtin__
object
p3
NtRp4
(dp5
S'comment'
p6
S'Human Development Index HDI'
p7
sS'domain'
p8
S'Populated Place '
p9
sS'instances_count'
p10
I0
sS'phrases'
p11
NsS'syn_hypo'
p12
S''
sS'label'
p13
g7
sS'range'
p14
S'float '
p15
sS'uniq_subjs'
p16
S'0'
sS'uniq_objs'
p17
I0
sS'prop_uri'
p18
S'http://dbpedia.org/ontology/humanDevelopmentIndex'
p19
sS'annotations'
p20
(dp21
S'bag_of_words'
p22
(lp23
S'Populated'
p24
aS'Place'
p25
aS'human'
p26
aS'Development'
p27
aS'Index'
p28
aS'float'
p29
aS'Human'
p30
aS'Development'
p31
aS'Index'
p32
aS'HDI'
p33
asS'chunk_seq'
p34
(lp35
S'B-NP'
p36
aS'I-NP'
p37
aS'I-NP'
p38
aS'I-NP'
p39
aS'E-NP'
p40
aS'S-VP'
p41
aS'B-NP'
p42
aS'I-NP'
p43
aS'I-NP'
p44
aS'E-NP'
p45
asS'dep_seq'
p46
(lp47
(lp48
S'amod'
p49
aS'5'
aS'1'
aa(lp50
S'nn'
p51
aS'5'
aS'2'
aa(lp52
S'amod'
p53
aS'5'
aS'3'
aa(lp54
S'nn'
p55
aS'5'
aS'4'
aa(lp56
S'dep'
p57
aS'10'
p58
aS'5'
aa(lp59
S'nn'
p60
aS'8'
aS'6'
aa(lp61
S'nn'
p62
aS'8'
aS'7'
aa(lp63
S'dep'
p64
aS'10'
p65
aS'8'
aa(lp66
S'nn'
p67
aS'10'
p68
aS'9'
aa(lp69
S'root'
p70
aS'0'
aS'10'
p71
aasS'srls'
p72
(lp73
(dp74
S'A1'
p75
S'Populated Place human Development Index  Human Development Index HDI'
p76
sS'V'
g29
sasS'pos_seq'
p77
(lp78
S'VBN'
p79
aS'NNP'
p80
aS'JJ'
p81
aS'NNP'
p82
aS'NNP'
p83
aS'NN'
p84
aS'NNP'
p85
aS'NNP'
p86
aS'NNP'
p87
aS'NNP'
p88
asS'ner_seq'
p89
(lp90
S'O'
aS'O'
aS'O'
aS'B-MISC'
p91
aS'E-MISC'
p92
aS'O'
aS'B-MISC'
p93
aS'I-MISC'
p94
aS'I-MISC'
p95
aS'E-MISC'
p96
assb.