ccopy_reg
_reconstructor
p1
(c__main__
KBproperty
p2
c__builtin__
object
p3
NtRp4
(dp5
S'comment'
p6
S'743722'
p7
sS'domain'
p8
S''
sS'instances_count'
p9
I267
sS'phrases'
p10
NsS'syn_hypo'
p11
Vacteventdeedeventhuman_actioneventhuman_activityeventgroup_actioneventhappeningeventoccurrenceeventoccurrenteventnatural_eventeventmakeupeventmake-upeventmight-have-beeneventmigrationeventmiracleeventnoneventeventsocial_eventeventzap
p12
sS'label'
p13
S'event'
p14
sS'range'
p15
S'Event '
p16
sS'uniq_subjs'
p17
S'267'
p18
sS'uniq_objs'
p19
I0
sS'prop_uri'
p20
S'http://dbpedia.org/ontology/event'
p21
sS'annotations'
p22
(dp23
S'bag_of_words'
p24
(lp25
S'event'
p26
aS'Event'
p27
aS'743722'
p28
asS'chunk_seq'
p29
(lp30
S'B-NP'
p31
aS'I-NP'
p32
aS'E-NP'
p33
asS'dep_seq'
p34
(lp35
(lp36
S'nn'
p37
aS'3'
aS'1'
aa(lp38
S'nn'
p39
aS'3'
aS'2'
aa(lp40
S'root'
p41
aS'0'
aS'3'
aasS'srls'
p42
(lp43
sS'pos_seq'
p44
(lp45
S'NN'
p46
aS'NN'
p47
aS'NN'
p48
asS'ner_seq'
p49
(lp50
S'O'
aS'O'
aS'O'
assb.