ccopy_reg
_reconstructor
p1
(c__main__
KBproperty
p2
c__builtin__
object
p3
NtRp4
(dp5
S'comment'
p6
S'number of launches with unknown outcomes or in progress00'
p7
sS'domain'
p8
S'Rocket '
p9
sS'instances_count'
p10
I0
sS'phrases'
p11
NsS'syn_hypo'
p12
S''
sS'label'
p13
S'unknown outcomes'
p14
sS'range'
p15
S'non Negative Integer '
p16
sS'uniq_subjs'
p17
S'0'
sS'uniq_objs'
p18
I0
sS'prop_uri'
p19
S'http://dbpedia.org/ontology/unknownOutcomes'
p20
sS'annotations'
p21
(dp22
S'bag_of_words'
p23
(lp24
S'Rocket'
p25
aS'unknown'
p26
aS'outcomes'
p27
aS'non'
p28
aS'Negative'
p29
aS'Integer'
p30
aS'number'
p31
aS'of'
p32
aS'launches'
p33
aS'with'
p34
aS'unknown'
p35
aS'outcomes'
p36
aS'or'
p37
aS'in'
p38
aS'progress00'
p39
asS'chunk_seq'
p40
(lp41
S'B-NP'
p42
aS'I-NP'
p43
aS'E-NP'
p44
aS'B-NP'
p45
aS'I-NP'
p46
aS'I-NP'
p47
aS'E-NP'
p48
aS'S-PP'
p49
aS'S-NP'
p50
aS'S-PP'
p51
aS'B-NP'
p52
aS'E-NP'
p53
aS'O'
aS'S-PP'
p54
aS'S-NP'
p55
asS'dep_seq'
p56
(lp57
(lp58
S'nn'
p59
aS'3'
aS'1'
aa(lp60
S'amod'
p61
aS'3'
aS'2'
aa(lp62
S'dep'
p63
aS'7'
aS'3'
aa(lp64
S'dep'
p65
aS'7'
aS'4'
aa(lp66
S'amod'
p67
aS'7'
aS'5'
aa(lp68
S'nn'
p69
aS'7'
aS'6'
aa(lp70
S'root'
p71
aS'0'
aS'7'
aa(lp72
S'prep_of'
p73
aS'7'
aS'9'
aa(lp74
S'conj_or'
p75
aS'9'
aS"9'"
p76
aa(lp77
S'amod'
p78
aS'12'
p79
aS'11'
p80
aa(lp81
S'prep_with'
p82
aS'9'
aS'12'
p83
aa(lp84
S'prep_in'
p85
aS"9'"
p86
aS'15'
p87
aasS'srls'
p88
(lp89
sS'pos_seq'
p90
(lp91
S'NNP'
p92
aS'JJ'
p93
aS'NNS'
p94
aS'VBP'
p95
aS'JJ'
p96
aS'NN'
p97
aS'NN'
p98
aS'IN'
p99
aS'NNS'
p100
aS'IN'
p101
aS'JJ'
p102
aS'NNS'
p103
aS'CC'
p104
aS'IN'
p105
aS'NN'
p106
asS'ner_seq'
p107
(lp108
S'O'
aS'O'
aS'O'
aS'O'
aS'O'
aS'O'
aS'O'
aS'O'
aS'O'
aS'O'
aS'O'
aS'O'
aS'O'
aS'O'
aS'O'
assb.