ccopy_reg
_reconstructor
p1
(c__main__
KBproperty
p2
c__builtin__
object
p3
NtRp4
(dp5
S'comment'
p6
S'Area code for telephone numbers. Use this not phonePrefix127268114291'
p7
sS'domain'
p8
S'Place '
p9
sS'instances_count'
p10
I17330
sS'phrases'
p11
NsS'syn_hypo'
p12
S''
sS'label'
p13
S'area code'
p14
sS'range'
p15
S'string '
p16
sS'uniq_subjs'
p17
S'17330'
p18
sS'uniq_objs'
p19
I0
sS'prop_uri'
p20
S'http://dbpedia.org/ontology/areaCode'
p21
sS'annotations'
p22
(dp23
S'bag_of_words'
p24
(lp25
S'Place'
p26
aS'area'
p27
aS'code'
p28
aS'string'
p29
aS'Area'
p30
aS'code'
p31
aS'for'
p32
aS'telephone'
p33
aS'numbers'
p34
aS'.'
aS'Use'
p35
aS'this'
p36
aS'not'
p37
aS'phonePrefix127268114291'
p38
asS'chunk_seq'
p39
(lp40
S'B-NP'
p41
aS'I-NP'
p42
aS'I-NP'
p43
aS'I-NP'
p44
aS'I-NP'
p45
aS'E-NP'
p46
aS'S-PP'
p47
aS'B-NP'
p48
aS'E-NP'
p49
aS'O'
aS'S-VP'
p50
aS'B-NP'
p51
aS'E-NP'
p52
aS'S-ADJP'
p53
asS'dep_seq'
p54
(lp55
(lp56
S'nn'
p57
aS'6'
aS'1'
aa(lp58
S'nn'
p59
aS'6'
aS'2'
aa(lp60
S'nn'
p61
aS'6'
aS'3'
aa(lp62
S'nn'
p63
aS'6'
aS'4'
aa(lp64
S'nn'
p65
aS'6'
aS'5'
aa(lp66
S'root'
p67
aS'0'
aS'6'
aa(lp68
S'nn'
p69
aS'9'
aS'8'
aa(lp70
S'prep_for'
p71
aS'6'
aS'9'
aa(lp72
S'dep'
p73
aS'14'
p74
aS'11'
p75
aa(lp76
S'dep'
p77
aS'11'
p78
aS'12'
p79
aa(lp80
S'neg'
p81
aS'14'
p82
aS'13'
p83
aa(lp84
S'dep'
p85
aS'6'
aS'14'
p86
aasS'srls'
p87
(lp88
sS'pos_seq'
p89
(lp90
S'NN'
p91
aS'NN'
p92
aS'NN'
p93
aS'NN'
p94
aS'NN'
p95
aS'NN'
p96
aS'IN'
p97
aS'NN'
p98
aS'NNS'
p99
aS'.'
aS'NNP'
p100
aS'DT'
p101
aS'RB'
p102
aS'JJ'
p103
asS'ner_seq'
p104
(lp105
S'O'
aS'O'
aS'O'
aS'O'
aS'O'
aS'O'
aS'O'
aS'O'
aS'O'
aS'O'
aS'O'
aS'O'
aS'O'
aS'S-PER'
p106
assb.