ccopy_reg
_reconstructor
p1
(c__main__
KBproperty
p2
c__builtin__
object
p3
NtRp4
(dp5
S'comment'
p6
S'1279610617'
p7
sS'domain'
p8
S''
sS'instances_count'
p9
I4660
sS'phrases'
p10
NsS'syn_hypo'
p11
S''
sS'label'
p12
S'owning company'
p13
sS'range'
p14
S'Company '
p15
sS'uniq_subjs'
p16
S'4660'
p17
sS'uniq_objs'
p18
I0
sS'prop_uri'
p19
S'http://dbpedia.org/ontology/owningCompany'
p20
sS'annotations'
p21
(dp22
S'bag_of_words'
p23
(lp24
S'owning'
p25
aS'company'
p26
aS'Company'
p27
aS'1279610617'
p28
asS'chunk_seq'
p29
(lp30
S'S-VP'
p31
aS'B-NP'
p32
aS'E-NP'
p33
aS'S-ADJP'
p34
asS'dep_seq'
p35
(lp36
(lp37
S'amod'
p38
aS'3'
aS'1'
aa(lp39
S'nn'
p40
aS'3'
aS'2'
aa(lp41
S'root'
p42
aS'0'
aS'3'
aa(lp43
S'punct'
p44
aS'3'
aS'4'
aasS'srls'
p45
(lp46
(dp47
S'A0'
p48
S'company Company'
p49
sS'V'
g25
sasS'pos_seq'
p50
(lp51
S'VBG'
p52
aS'NN'
p53
aS'NN'
p54
aS'.'
asS'ner_seq'
p55
(lp56
S'O'
aS'O'
aS'O'
aS'O'
assb.