ccopy_reg
_reconstructor
p1
(c__main__
KBproperty
p2
c__builtin__
object
p3
NtRp4
(dp5
S'comment'
p6
S'ship draft \\xce\\xbc'
p7
sS'domain'
p8
S'Ship '
p9
sS'instances_count'
p10
I11908
sS'phrases'
p11
NsS'syn_hypo'
p12
S''
sS'label'
p13
g7
sS'range'
p14
S'double '
p15
sS'uniq_subjs'
p16
S'799'
p17
sS'uniq_objs'
p18
I0
sS'prop_uri'
p19
S'http://dbpedia.org/ontology/shipDraft'
p20
sS'annotations'
p21
(dp22
S'bag_of_words'
p23
(lp24
S'Ship'
p25
aS'ship'
p26
aS'Draft'
p27
aS'double'
p28
aS'ship'
p29
aS'draft'
p30
aS'\\'
aS'xce'
p31
aS'\\'
aS'xbc'
p32
asS'chunk_seq'
p33
(lp34
S'B-NP'
p35
aS'I-NP'
p36
aS'I-NP'
p37
aS'I-NP'
p38
aS'I-NP'
p39
aS'E-NP'
p40
aS'O'
aS'O'
aS'O'
aS'O'
asS'dep_seq'
p41
(lp42
(lp43
S'nn'
p44
aS'3'
aS'1'
aa(lp45
S'nn'
p46
aS'3'
aS'2'
aa(lp47
S'nsubj'
p48
aS'6'
aS'3'
aa(lp49
S'amod'
p50
aS'6'
aS'4'
aa(lp51
S'nn'
p52
aS'6'
aS'5'
aa(lp53
S'root'
p54
aS'0'
aS'6'
aa(lp55
S'nn'
p56
aS'10'
p57
aS'7'
aa(lp58
S'nn'
p59
aS'10'
p60
aS'8'
aa(lp61
S'nn'
p62
aS'10'
p63
aS'9'
aa(lp64
S'dobj'
p65
aS'6'
aS'10'
p66
aasS'srls'
p67
(lp68
sS'pos_seq'
p69
(lp70
S'NN'
p71
aS'NN'
p72
aS'NNP'
p73
aS'JJ'
p74
aS'NN'
p75
aS'NN'
p76
aS'FW'
p77
aS'FW'
p78
aS'FW'
p79
aS'FW'
p80
asS'ner_seq'
p81
(lp82
S'O'
aS'O'
aS'O'
aS'O'
aS'O'
aS'O'
aS'O'
aS'O'
aS'O'
aS'O'
assb.