ccopy_reg
_reconstructor
p1
(c__main__
KBproperty
p2
c__builtin__
object
p3
NtRp4
(dp5
S'comment'
p6
S'position in which a surface occurs in a text'
p7
sS'domain'
p8
S''
sS'instances_count'
p9
I0
sS'phrases'
p10
NsS'syn_hypo'
p11
S''
sS'label'
p12
g7
sS'range'
p13
S'string '
p14
sS'uniq_subjs'
p15
S'0'
sS'uniq_objs'
p16
I0
sS'prop_uri'
p17
S'http://dbpedia.org/ontology/surfaceFormOccurrenceOffset'
p18
sS'annotations'
p19
(dp20
S'bag_of_words'
p21
(lp22
S'surface'
p23
aS'Form'
p24
aS'Occurrence'
p25
aS'Offset'
p26
aS'string'
p27
aS'position'
p28
aS'in'
p29
aS'which'
p30
aS'a'
aS'surface'
p31
aS'occurs'
p32
aS'in'
p33
aS'a'
aS'text'
p34
asS'chunk_seq'
p35
(lp36
S'B-NP'
p37
aS'I-NP'
p38
aS'I-NP'
p39
aS'I-NP'
p40
aS'I-NP'
p41
aS'E-NP'
p42
aS'S-PP'
p43
aS'S-NP'
p44
aS'B-NP'
p45
aS'E-NP'
p46
aS'S-VP'
p47
aS'S-PP'
p48
aS'B-NP'
p49
aS'E-NP'
p50
asS'dep_seq'
p51
(lp52
(lp53
S'nn'
p54
aS'3'
aS'1'
aa(lp55
S'nn'
p56
aS'3'
aS'2'
aa(lp57
S'nsubj'
p58
aS'4'
aS'3'
aa(lp59
S'root'
p60
aS'0'
aS'4'
aa(lp61
S'nn'
p62
aS'6'
aS'5'
aa(lp63
S'dobj'
p64
aS'4'
aS'6'
aa(lp65
S'prep_in'
p66
aS'11'
p67
aS'6'
aa(lp68
S'rel'
p69
aS'11'
p70
aS'7'
aa(lp71
S'det'
p72
aS'10'
p73
aS'9'
aa(lp74
S'nsubj'
p75
aS'11'
p76
aS'10'
p77
aa(lp78
S'rcmod'
p79
aS'6'
aS'11'
p80
aa(lp81
S'det'
p82
aS'14'
p83
aS'13'
p84
aa(lp85
S'prep_in'
p86
aS'11'
p87
aS'14'
p88
aasS'srls'
p89
(lp90
(dp91
S'A1'
p92
S'string position in which a surface occurs in a text'
p93
sS'A2'
p94
S'surface Form Occurrence'
p95
sS'V'
g26
sa(dp96
S'A1'
p97
S'a surface'
p98
sS'AM-LOC'
p99
S'in a text'
p100
sS'V'
g32
sasS'pos_seq'
p101
(lp102
S'NN'
p103
aS'NN'
p104
aS'NN'
p105
aS'VBN'
p106
aS'NN'
p107
aS'NN'
p108
aS'IN'
p109
aS'WDT'
p110
aS'DT'
p111
aS'NN'
p112
aS'VBZ'
p113
aS'IN'
p114
aS'DT'
p115
aS'NN'
p116
asS'ner_seq'
p117
(lp118
S'O'
aS'O'
aS'O'
aS'O'
aS'O'
aS'O'
aS'O'
aS'O'
aS'O'
aS'O'
aS'O'
aS'O'
aS'O'
aS'O'
assb.