ccopy_reg
_reconstructor
p1
(c__main__
KBproperty
p2
c__builtin__
object
p3
NtRp4
(dp5
S'comment'
p6
S'the person who is responsible for the film set design00'
p7
sS'domain'
p8
S'Film '
p9
sS'instances_count'
p10
I0
sS'phrases'
p11
NsS'syn_hypo'
p12
S''
sS'label'
p13
S'set designer'
p14
sS'range'
p15
S'Person '
p16
sS'uniq_subjs'
p17
S'0'
sS'uniq_objs'
p18
I0
sS'prop_uri'
p19
S'http://dbpedia.org/ontology/setDesigner'
p20
sS'annotations'
p21
(dp22
S'bag_of_words'
p23
(lp24
S'Film'
p25
aS'set'
p26
aS'designer'
p27
aS'Person'
p28
aS'the'
p29
aS'person'
p30
aS'who'
p31
aS'is'
p32
aS'responsible'
p33
aS'for'
p34
aS'the'
p35
aS'film'
p36
aS'set'
p37
aS'design00'
p38
asS'chunk_seq'
p39
(lp40
S'S-NP'
p41
aS'S-VP'
p42
aS'B-NP'
p43
aS'E-NP'
p44
aS'B-NP'
p45
aS'E-NP'
p46
aS'S-NP'
p47
aS'S-VP'
p48
aS'S-ADJP'
p49
aS'S-PP'
p50
aS'B-NP'
p51
aS'E-NP'
p52
aS'S-VP'
p53
aS'S-NP'
p54
asS'dep_seq'
p55
(lp56
(lp57
S'nn'
p58
aS'4'
aS'1'
aa(lp59
S'amod'
p60
aS'4'
aS'2'
aa(lp61
S'nn'
p62
aS'4'
aS'3'
aa(lp63
S'dep'
p64
aS'6'
aS'4'
aa(lp65
S'det'
p66
aS'6'
aS'5'
aa(lp67
S'root'
p68
aS'0'
aS'6'
aa(lp69
S'nsubj'
p70
aS'9'
aS'6'
aa(lp71
S'cop'
p72
aS'9'
aS'8'
aa(lp73
S'rcmod'
p74
aS'6'
aS'9'
aa(lp75
S'det'
p76
aS'12'
p77
aS'11'
p78
aa(lp79
S'prep_for'
p80
aS'9'
aS'12'
p81
aa(lp82
S'partmod'
p83
aS'12'
p84
aS'13'
p85
aa(lp86
S'dobj'
p87
aS'13'
p88
aS'14'
p89
aasS'srls'
p90
(lp91
(dp92
S'A1'
p93
S'the person who is responsible for the film set design00'
p94
sS'A0'
p95
g25
sS'A2'
p96
S'designer Person'
p97
sS'V'
g26
sa(dp98
S'A1'
p99
g38
sS'A0'
p100
S'the film'
p101
sS'V'
g37
sasS'pos_seq'
p102
(lp103
S'NN'
p104
aS'VBN'
p105
aS'NN'
p106
aS'NN'
p107
aS'DT'
p108
aS'NN'
p109
aS'WP'
p110
aS'VBZ'
p111
aS'JJ'
p112
aS'IN'
p113
aS'DT'
p114
aS'NN'
p115
aS'VBN'
p116
aS'NN'
p117
asS'ner_seq'
p118
(lp119
S'O'
aS'O'
aS'O'
aS'O'
aS'O'
aS'O'
aS'O'
aS'O'
aS'O'
aS'O'
aS'O'
aS'O'
aS'O'
aS'O'
assb.