ccopy_reg
_reconstructor
p1
(c__main__
KBproperty
p2
c__builtin__
object
p3
NtRp4
(dp5
S'comment'
p6
S'population density rural /sqkm'
p7
sS'domain'
p8
S'Populated Place '
p9
sS'instances_count'
p10
I0
sS'phrases'
p11
NsS'syn_hypo'
p12
S''
sS'label'
p13
g7
sS'range'
p14
S'double '
p15
sS'uniq_subjs'
p16
S'0'
sS'uniq_objs'
p17
I0
sS'prop_uri'
p18
S'http://dbpedia.org/ontology/populationRuralDensity'
p19
sS'annotations'
p20
(dp21
S'bag_of_words'
p22
(lp23
S'Populated'
p24
aS'Place'
p25
aS'population'
p26
aS'Rural'
p27
aS'Density'
p28
aS'double'
p29
aS'population'
p30
aS'density'
p31
aS'rural'
p32
aS'/s'
p33
aS'qkm'
p34
asS'chunk_seq'
p35
(lp36
S'B-NP'
p37
aS'I-NP'
p38
aS'I-NP'
p39
aS'I-NP'
p40
aS'I-NP'
p41
aS'I-NP'
p42
aS'I-NP'
p43
aS'E-NP'
p44
aS'S-ADJP'
p45
aS'O'
aS'O'
asS'dep_seq'
p46
(lp47
(lp48
S'amod'
p49
aS'3'
aS'1'
aa(lp50
S'nn'
p51
aS'3'
aS'2'
aa(lp52
S'dep'
p53
aS'11'
p54
aS'3'
aa(lp55
S'nn'
p56
aS'8'
aS'4'
aa(lp57
S'nn'
p58
aS'8'
aS'5'
aa(lp59
S'amod'
p60
aS'8'
aS'6'
aa(lp61
S'nn'
p62
aS'8'
aS'7'
aa(lp63
S'dep'
p64
aS'11'
p65
aS'8'
aa(lp66
S'amod'
p67
aS'11'
p68
aS'9'
aa(lp69
S'nn'
p70
aS'11'
p71
aS'10'
p72
aa(lp73
S'root'
p74
aS'0'
aS'11'
p75
aasS'srls'
p76
(lp77
sS'pos_seq'
p78
(lp79
S'JJ'
p80
aS'NN'
p81
aS'NN'
p82
aS'NNP'
p83
aS'NNP'
p84
aS'JJ'
p85
aS'NN'
p86
aS'NN'
p87
aS'JJ'
p88
aS'FW'
p89
aS'FW'
p90
asS'ner_seq'
p91
(lp92
S'O'
aS'O'
aS'O'
aS'O'
aS'O'
aS'O'
aS'O'
aS'O'
aS'O'
aS'O'
aS'O'
assb.