ccopy_reg
_reconstructor
p1
(c__main__
KBproperty
p2
c__builtin__
object
p3
NtRp4
(dp5
S'comment'
p6
S'00'
p7
sS'domain'
p8
S'Person '
p9
sS'instances_count'
p10
I0
sS'phrases'
p11
NsS'syn_hypo'
p12
Vcinema_veritemoviefilmpicturemoving_picturemoving-picture_showmotion_picturemotion-picture_showpicture_showpicflickcollage_filmmoviefilmpicturemoving_picturemoving-picture_showmotion_picturemotion-picture_showpicture_showpicflickcoming_attractionmoviefilmpicturemoving_picturemoving-picture_showmotion_picturemotion-picture_showpicture_showpicflickdocumentarymoviefilmpicturemoving_picturemoving-picture_showmotion_picturemotion-picture_showpicture_showpicflickdocudramamoviefilmpicturemoving_picturemoving-picture_showmotion_picturemotion-picture_showpicture_showpicflickdocumentary_filmmoviefilmpicturemoving_picturemoving-picture_showmotion_picturemotion-picture_showpicture_showpicflickinfotainmentmoviefilmpicturemoving_picturemoving-picture_showmotion_picturemotion-picture_showpicture_showpicflickfeaturemoviefilmpicturemoving_picturemoving-picture_showmotion_picturemotion-picture_showpicture_showpicflickfeature_filmmoviefilmpicturemoving_picturemoving-picture_showmotion_picturemotion-picture_showpicture_showpicflickfilm_noirmoviefilmpicturemoving_picturemoving-picture_showmotion_picturemotion-picture_showpicture_showpicflickfinal_cutmoviefilmpicturemoving_picturemoving-picture_showmotion_picturemotion-picture_showpicture_showpicflickhome_moviemoviefilmpicturemoving_picturemoving-picture_showmotion_picturemotion-picture_showpicture_showpicflickmusicalmoviefilmpicturemoving_picturemoving-picture_showmotion_picturemotion-picture_showpicture_showpicflickmusical_comedymoviefilmpicturemoving_picturemoving-picture_showmotion_picturemotion-picture_showpicture_showpicflickmusical_theatermoviefilmpicturemoving_picturemoving-picture_showmotion_picturemotion-picture_showpicture_showpicflickrough_cutmoviefilmpicturemoving_picturemoving-picture_showmotion_picturemotion-picture_showpicture_showpicflickshoot-'em-upmoviefilmpicturemoving_picturemoving-picture_showmotion_picturemotion-picture_showpicture_showpicflickshort_subjectmoviefilmpicturemoving_picturemoving-picture_showmotion_picturemotion-picture_showpicture_showpicflicksilent_moviemoviefilmpicturemoving_picturemoving-picture_showmotion_picturemotion-picture_showpicture_showpicflicksilent_picturemoviefilmpicturemoving_picturemoving-picture_showmotion_picturemotion-picture_showpicture_showpicflicksilentsmoviefilmpicturemoving_picturemoving-picture_showmotion_picturemotion-picture_showpicture_showpicflickskin_flickmoviefilmpicturemoving_picturemoving-picture_showmotion_picturemotion-picture_showpicture_showpicflickslow_motionmoviefilmpicturemoving_picturemoving-picture_showmotion_picturemotion-picture_showpicture_showpicflicktalking_picturemoviefilmpicturemoving_picturemoving-picture_showmotion_picturemotion-picture_showpicture_showpicflicktalkiemoviefilmpicturemoving_picturemoving-picture_showmotion_picturemotion-picture_showpicture_showpicflicktelefilmmoviefilmpicturemoving_picturemoving-picture_showmotion_picturemotion-picture_showpicture_showpicflickthree-Dmoviefilmpicturemoving_picturemoving-picture_showmotion_picturemotion-picture_showpicture_showpicflick3-Dmoviefilmpicturemoving_picturemoving-picture_showmotion_picturemotion-picture_showpicture_showpicflick3D
p13
sS'label'
p14
S'movie'
p15
sS'range'
p16
S'Film '
p17
sS'uniq_subjs'
p18
S'0'
sS'uniq_objs'
p19
I0
sS'prop_uri'
p20
S'http://dbpedia.org/ontology/movie'
p21
sS'annotations'
p22
(dp23
S'bag_of_words'
p24
(lp25
S'Person'
p26
aS'movie'
p27
aS'Film'
p28
aS'00'
p29
asS'chunk_seq'
p30
(lp31
S'B-NP'
p32
aS'I-NP'
p33
aS'E-NP'
p34
aS'S-ADVP'
p35
asS'dep_seq'
p36
(lp37
(lp38
S'nn'
p39
aS'3'
aS'1'
aa(lp40
S'nn'
p41
aS'3'
aS'2'
aa(lp42
S'root'
p43
aS'0'
aS'3'
aa(lp44
S'num'
p45
aS'3'
aS'4'
aasS'srls'
p46
(lp47
sS'pos_seq'
p48
(lp49
S'NN'
p50
aS'NN'
p51
aS'NNP'
p52
aS'CD'
p53
asS'ner_seq'
p54
(lp55
S'O'
aS'O'
aS'O'
aS'O'
assb.