ccopy_reg
_reconstructor
p1
(c__main__
KBproperty
p2
c__builtin__
object
p3
NtRp4
(dp5
S'comment'
p6
S'Number of votes given to candidate'
p7
sS'domain'
p8
S'Election '
p9
sS'instances_count'
p10
I0
sS'phrases'
p11
NsS'syn_hypo'
p12
S''
sS'label'
p13
g7
sS'range'
p14
S'non Negative Integer '
p15
sS'uniq_subjs'
p16
S'0'
sS'uniq_objs'
p17
I0
sS'prop_uri'
p18
S'http://dbpedia.org/ontology/popularVote'
p19
sS'annotations'
p20
(dp21
S'bag_of_words'
p22
(lp23
S'Election'
p24
aS'popular'
p25
aS'Vote'
p26
aS'non'
p27
aS'Negative'
p28
aS'Integer'
p29
aS'Number'
p30
aS'of'
p31
aS'votes'
p32
aS'given'
p33
aS'to'
p34
aS'candidate'
p35
asS'chunk_seq'
p36
(lp37
S'B-NP'
p38
aS'I-NP'
p39
aS'I-NP'
p40
aS'I-NP'
p41
aS'I-NP'
p42
aS'I-NP'
p43
aS'E-NP'
p44
aS'S-PP'
p45
aS'S-NP'
p46
aS'S-PP'
p47
aS'S-PP'
p48
aS'S-NP'
p49
asS'dep_seq'
p50
(lp51
(lp52
S'nn'
p53
aS'7'
aS'1'
aa(lp54
S'amod'
p55
aS'7'
aS'2'
aa(lp56
S'nn'
p57
aS'7'
aS'3'
aa(lp58
S'amod'
p59
aS'7'
aS'4'
aa(lp60
S'nn'
p61
aS'7'
aS'5'
aa(lp62
S'nn'
p63
aS'7'
aS'6'
aa(lp64
S'root'
p65
aS'0'
aS'7'
aa(lp66
S'prep_of'
p67
aS'7'
aS'9'
aa(lp68
S'prep'
p69
aS'7'
aS'10'
p70
aa(lp71
S'pcomp'
p72
aS'10'
p73
aS'11'
p74
aa(lp75
S'pobj'
p76
aS'11'
p77
aS'12'
p78
aasS'srls'
p79
(lp80
(dp81
S'A1'
p82
g32
sS'A2'
p83
S'to candidate'
p84
sS'V'
g33
sasS'pos_seq'
p85
(lp86
S'NN'
p87
aS'JJ'
p88
aS'NNP'
p89
aS'JJ'
p90
aS'NNP'
p91
aS'NNP'
p92
aS'NNP'
p93
aS'IN'
p94
aS'NNS'
p95
aS'VBN'
p96
aS'TO'
p97
aS'NN'
p98
asS'ner_seq'
p99
(lp100
S'O'
aS'O'
aS'O'
aS'O'
aS'O'
aS'O'
aS'O'
aS'O'
aS'O'
aS'O'
aS'O'
aS'O'
assb.