ccopy_reg
_reconstructor
p1
(c__main__
KBproperty
p2
c__builtin__
object
p3
NtRp4
(dp5
S'comment'
p6
S'1379557'
p7
sS'domain'
p8
S'Populated Place '
p9
sS'instances_count'
p10
I654
sS'phrases'
p11
NsS'syn_hypo'
p12
S''
sS'label'
p13
S'ethnic group'
p14
sS'range'
p15
S'Ethnic Group '
p16
sS'uniq_subjs'
p17
S'654'
p18
sS'uniq_objs'
p19
I0
sS'prop_uri'
p20
S'http://dbpedia.org/ontology/ethnicGroup'
p21
sS'annotations'
p22
(dp23
S'bag_of_words'
p24
(lp25
S'Populated'
p26
aS'Place'
p27
aS'ethnic'
p28
aS'group'
p29
aS'Ethnic'
p30
aS'Group'
p31
aS'1379557'
p32
asS'chunk_seq'
p33
(lp34
S'B-NP'
p35
aS'I-NP'
p36
aS'I-NP'
p37
aS'I-NP'
p38
aS'I-NP'
p39
aS'E-NP'
p40
aS'O'
asS'dep_seq'
p41
(lp42
(lp43
S'amod'
p44
aS'6'
aS'1'
aa(lp45
S'nn'
p46
aS'6'
aS'2'
aa(lp47
S'amod'
p48
aS'6'
aS'3'
aa(lp49
S'nn'
p50
aS'6'
aS'4'
aa(lp51
S'nn'
p52
aS'6'
aS'5'
aa(lp53
S'root'
p54
aS'0'
aS'6'
aa(lp55
S'punct'
p56
aS'6'
aS'7'
aasS'srls'
p57
(lp58
sS'pos_seq'
p59
(lp60
S'JJ'
p61
aS'NN'
p62
aS'JJ'
p63
aS'NN'
p64
aS'NNP'
p65
aS'NNP'
p66
aS'.'
asS'ner_seq'
p67
(lp68
S'O'
aS'O'
aS'O'
aS'O'
aS'B-ORG'
p69
aS'E-ORG'
p70
aS'O'
assb.