ccopy_reg
_reconstructor
p1
(c__main__
KBproperty
p2
c__builtin__
object
p3
NtRp4
(dp5
S'comment'
p6
S'maximum discharge m\\xc2\\xb3/s'
p7
sS'domain'
p8
S''
sS'instances_count'
p9
I828
sS'phrases'
p10
NsS'syn_hypo'
p11
S''
sS'label'
p12
g7
sS'range'
p13
S'double '
p14
sS'uniq_subjs'
p15
S'828'
p16
sS'uniq_objs'
p17
I0
sS'prop_uri'
p18
S'http://dbpedia.org/ontology/maximumDischarge'
p19
sS'annotations'
p20
(dp21
S'bag_of_words'
p22
(lp23
S'maximum'
p24
aS'Discharge'
p25
aS'double'
p26
aS'maximum'
p27
aS'discharge'
p28
aS'm'
aS'\\'
aS'xc2'
p29
aS'\\'
aS'xb3'
p30
aS'/s'
p31
asS'chunk_seq'
p32
(lp33
S'B-NP'
p34
aS'I-NP'
p35
aS'I-NP'
p36
aS'I-NP'
p37
aS'E-NP'
p38
aS'S-NP'
p39
aS'O'
aS'O'
aS'O'
aS'O'
aS'O'
asS'dep_seq'
p40
(lp41
(lp42
S'amod'
p43
aS'2'
aS'1'
aa(lp44
S'root'
p45
aS'0'
aS'2'
aa(lp46
S'amod'
p47
aS'5'
aS'3'
aa(lp48
S'nn'
p49
aS'5'
aS'4'
aa(lp50
S'dep'
p51
aS'2'
aS'5'
aa(lp52
S'nn'
p53
aS'10'
p54
aS'6'
aa(lp55
S'nn'
p56
aS'10'
p57
aS'7'
aa(lp58
S'nn'
p59
aS'10'
p60
aS'8'
aa(lp61
S'nn'
p62
aS'10'
p63
aS'9'
aa(lp64
S'dep'
p65
aS'2'
aS'10'
p66
aa(lp67
S'punct'
p68
aS'10'
p69
aS'11'
p70
aasS'srls'
p71
(lp72
sS'pos_seq'
p73
(lp74
S'JJ'
p75
aS'NN'
p76
aS'JJ'
p77
aS'NN'
p78
aS'NN'
p79
aS'FW'
p80
aS'FW'
p81
aS'FW'
p82
aS'FW'
p83
aS'FW'
p84
aS'.'
asS'ner_seq'
p85
(lp86
S'O'
aS'O'
aS'O'
aS'O'
aS'O'
aS'O'
aS'O'
aS'O'
aS'O'
aS'O'
aS'O'
assb.