ccopy_reg
_reconstructor
p1
(c__main__
KBproperty
p2
c__builtin__
object
p3
NtRp4
(dp5
S'comment'
p6
S'active years start year manager'
p7
sS'domain'
p8
S'Person '
p9
sS'instances_count'
p10
I0
sS'phrases'
p11
NsS'syn_hypo'
p12
S''
sS'label'
p13
g7
sS'range'
p14
S'g Year '
p15
sS'uniq_subjs'
p16
S'0'
sS'uniq_objs'
p17
I0
sS'prop_uri'
p18
S'http://dbpedia.org/ontology/activeYearsStartYearMgr'
p19
sS'annotations'
p20
(dp21
S'bag_of_words'
p22
(lp23
S'Person'
p24
aS'active'
p25
aS'Years'
p26
aS'Start'
p27
aS'Year'
p28
aS'Mgr'
p29
aS'g'
aS'Year'
p30
aS'active'
p31
aS'years'
p32
aS'start'
p33
aS'year'
p34
aS'manager'
p35
asS'chunk_seq'
p36
(lp37
S'B-NP'
p38
aS'I-NP'
p39
aS'E-NP'
p40
aS'S-VP'
p41
aS'B-NP'
p42
aS'I-NP'
p43
aS'I-NP'
p44
aS'E-NP'
p45
aS'B-NP'
p46
aS'E-NP'
p47
aS'S-VP'
p48
aS'B-NP'
p49
aS'E-NP'
p50
asS'dep_seq'
p51
(lp52
(lp53
S'nn'
p54
aS'3'
aS'1'
aa(lp55
S'amod'
p56
aS'3'
aS'2'
aa(lp57
S'nsubj'
p58
aS'4'
aS'3'
aa(lp59
S'root'
p60
aS'0'
aS'4'
aa(lp61
S'nn'
p62
aS'8'
aS'5'
aa(lp63
S'nn'
p64
aS'8'
aS'6'
aa(lp65
S'nn'
p66
aS'8'
aS'7'
aa(lp67
S'dobj'
p68
aS'4'
aS'8'
aa(lp69
S'tmod'
p70
aS'4'
aS'8'
aa(lp71
S'amod'
p72
aS'10'
p73
aS'9'
aa(lp74
S'tmod'
p75
aS'4'
aS'10'
p76
aa(lp77
S'dep'
p78
aS'4'
aS'11'
p79
aa(lp80
S'nn'
p81
aS'13'
p82
aS'12'
p83
aa(lp84
S'dobj'
p85
aS'11'
p86
aS'13'
p87
aasS'srls'
p88
(lp89
(dp90
S'A1'
p91
S'Person active Years Start Year Mgr g Year active years'
p92
sS'AM-TMP'
p93
S'year manager'
p94
sS'V'
g33
sasS'pos_seq'
p95
(lp96
S'NN'
p97
aS'JJ'
p98
aS'NNS'
p99
aS'VBP'
p100
aS'NN'
p101
aS'NNP'
p102
aS'NN'
p103
aS'NN'
p104
aS'JJ'
p105
aS'NNS'
p106
aS'VBP'
p107
aS'NN'
p108
aS'NN'
p109
asS'ner_seq'
p110
(lp111
S'O'
aS'O'
aS'O'
aS'O'
aS'O'
aS'O'
aS'O'
aS'O'
aS'O'
aS'O'
aS'O'
aS'O'
aS'O'
assb.