ccopy_reg
_reconstructor
p1
(c__main__
KBproperty
p2
c__builtin__
object
p3
NtRp4
(dp5
S'comment'
p6
S'Source of something eg an image as text. Use dct:source if the source is described using a resource00'
p7
sS'domain'
p8
S''
sS'instances_count'
p9
I0
sS'phrases'
p10
NsS'syn_hypo'
p11
S''
sS'label'
p12
S'sourceText'
p13
sS'range'
p14
S'lang String '
p15
sS'uniq_subjs'
p16
S'0'
sS'uniq_objs'
p17
I0
sS'prop_uri'
p18
S'http://dbpedia.org/ontology/sourceText'
p19
sS'annotations'
p20
(dp21
S'bag_of_words'
p22
(lp23
S'sourceText'
p24
aS'lang'
p25
aS'String'
p26
aS'Source'
p27
aS'of'
p28
aS'something'
p29
aS'eg'
p30
aS'an'
p31
aS'image'
p32
aS'as'
p33
aS'text'
p34
aS'.'
aS'Use'
p35
aS'dct'
p36
aS':'
aS'source'
p37
aS'if'
p38
aS'the'
p39
aS'source'
p40
aS'is'
p41
aS'described'
p42
aS'using'
p43
aS'a'
aS'resource00'
p44
asS'chunk_seq'
p45
(lp46
S'B-NP'
p47
aS'I-NP'
p48
aS'I-NP'
p49
aS'E-NP'
p50
aS'S-PP'
p51
aS'S-NP'
p52
aS'S-PP'
p53
aS'B-NP'
p54
aS'E-NP'
p55
aS'S-PP'
p56
aS'B-NP'
p57
aS'I-NP'
p58
aS'I-NP'
p59
aS'E-NP'
p60
aS'O'
aS'S-NP'
p61
aS'S-SBAR'
p62
aS'B-NP'
p63
aS'E-NP'
p64
aS'B-VP'
p65
aS'E-VP'
p66
aS'S-VP'
p67
aS'B-NP'
p68
aS'E-NP'
p69
asS'dep_seq'
p70
(lp71
(lp72
S'amod'
p73
aS'4'
aS'1'
aa(lp74
S'amod'
p75
aS'4'
aS'2'
aa(lp76
S'nn'
p77
aS'4'
aS'3'
aa(lp78
S'root'
p79
aS'0'
aS'4'
aa(lp80
S'prep_of'
p81
aS'4'
aS'6'
aa(lp82
S'det'
p83
aS'9'
aS'8'
aa(lp84
S'prep_eg'
p85
aS'6'
aS'9'
aa(lp86
S'nn'
p87
aS'14'
p88
aS'11'
p89
aa(lp90
S'nn'
p91
aS'14'
p92
aS'13'
p93
aa(lp94
S'prep_as'
p95
aS'9'
aS'14'
p96
aa(lp97
S'dep'
p98
aS'4'
aS'16'
p99
aa(lp100
S'mark'
p101
aS'21'
p102
aS'17'
p103
aa(lp104
S'det'
p105
aS'19'
p106
aS'18'
p107
aa(lp108
S'nsubjpass'
p109
aS'21'
p110
aS'19'
p111
aa(lp112
S'auxpass'
p113
aS'21'
p114
aS'20'
p115
aa(lp116
S'dep'
p117
aS'16'
p118
aS'21'
p119
aa(lp120
S'xcomp'
p121
aS'21'
p122
aS'22'
p123
aa(lp124
S'det'
p125
aS'24'
p126
aS'23'
p127
aa(lp128
S'dobj'
p129
aS'22'
p130
aS'24'
p131
aasS'srls'
p132
(lp133
(dp134
S'A1'
p135
S'the source'
p136
sS'AM-MNR'
p137
S'using a resource00'
p138
sS'V'
g42
sa(dp139
S'A1'
p140
S'a resource00'
p141
sS'V'
g43
sasS'pos_seq'
p142
(lp143
S'JJ'
p144
aS'VBG'
p145
aS'NN'
p146
aS'NN'
p147
aS'IN'
p148
aS'NN'
p149
aS'IN'
p150
aS'DT'
p151
aS'NN'
p152
aS'IN'
p153
aS'NN'
p154
aS'.'
aS'NNP'
p155
aS'NN'
p156
aS':'
aS'NN'
p157
aS'IN'
p158
aS'DT'
p159
aS'NN'
p160
aS'VBZ'
p161
aS'VBN'
p162
aS'VBG'
p163
aS'DT'
p164
aS'NN'
p165
asS'ner_seq'
p166
(lp167
S'B-PER'
p168
aS'I-PER'
p169
aS'E-PER'
p170
aS'O'
aS'O'
aS'O'
aS'O'
aS'O'
aS'O'
aS'O'
aS'O'
aS'O'
aS'O'
aS'O'
aS'O'
aS'O'
aS'O'
aS'O'
aS'O'
aS'O'
aS'O'
aS'O'
aS'O'
aS'O'
assb.