ccopy_reg
_reconstructor
p1
(c__main__
KBproperty
p2
c__builtin__
object
p3
NtRp4
(dp5
S'comment'
p6
S'165157'
p7
sS'domain'
p8
S''
sS'instances_count'
p9
I153
sS'phrases'
p10
NsS'syn_hypo'
p11
S''
sS'label'
p12
S'retired'
p13
sS'range'
p14
S'date '
p15
sS'uniq_subjs'
p16
S'153'
p17
sS'uniq_objs'
p18
I0
sS'prop_uri'
p19
S'http://dbpedia.org/ontology/retired'
p20
sS'annotations'
p21
(dp22
S'bag_of_words'
p23
(lp24
S'retired'
p25
aS'date'
p26
aS'165157'
p27
asS'chunk_seq'
p28
(lp29
S'B-NP'
p30
aS'E-NP'
p31
aS'S-NP'
p32
asS'dep_seq'
p33
(lp34
(lp35
S'amod'
p36
aS'3'
aS'1'
aa(lp37
S'nn'
p38
aS'3'
aS'2'
aa(lp39
S'root'
p40
aS'0'
aS'3'
aasS'srls'
p41
(lp42
(dp43
S'A1'
p44
g26
sS'V'
g25
sasS'pos_seq'
p45
(lp46
S'VBN'
p47
aS'NN'
p48
aS'NN'
p49
asS'ner_seq'
p50
(lp51
S'O'
aS'O'
aS'O'
assb.