ccopy_reg
_reconstructor
p1
(c__main__
KBproperty
p2
c__builtin__
object
p3
NtRp4
(dp5
S'comment'
p6
S'number of seats in House of Commons-like parliaments00'
p7
sS'domain'
p8
S'Political Party '
p9
sS'instances_count'
p10
I0
sS'phrases'
p11
NsS'syn_hypo'
p12
S''
sS'label'
p13
S'number of seats in parliament'
p14
sS'range'
p15
S'non Negative Integer '
p16
sS'uniq_subjs'
p17
S'0'
sS'uniq_objs'
p18
I0
sS'prop_uri'
p19
S'http://dbpedia.org/ontology/numberOfSeatsInParliament'
p20
sS'annotations'
p21
(dp22
S'bag_of_words'
p23
(lp24
S'Political'
p25
aS'Party'
p26
aS'number'
p27
aS'of'
p28
aS'seats'
p29
aS'in'
p30
aS'parliament'
p31
aS'non'
p32
aS'Negative'
p33
aS'Integer'
p34
aS'number'
p35
aS'of'
p36
aS'seats'
p37
aS'in'
p38
aS'House'
p39
aS'of'
p40
aS'Commons'
p41
aS'-'
aS'like'
p42
aS'parliaments00'
p43
asS'chunk_seq'
p44
(lp45
S'B-NP'
p46
aS'I-NP'
p47
aS'E-NP'
p48
aS'S-PP'
p49
aS'S-NP'
p50
aS'S-PP'
p51
aS'S-NP'
p52
aS'B-NP'
p53
aS'I-NP'
p54
aS'I-NP'
p55
aS'E-NP'
p56
aS'S-PP'
p57
aS'S-NP'
p58
aS'S-PP'
p59
aS'S-NP'
p60
aS'S-PP'
p61
aS'S-NP'
p62
aS'O'
aS'S-PP'
p63
aS'S-NP'
p64
asS'dep_seq'
p65
(lp66
(lp67
S'amod'
p68
aS'3'
aS'1'
aa(lp69
S'nn'
p70
aS'3'
aS'2'
aa(lp71
S'dep'
p72
aS'11'
p73
aS'3'
aa(lp74
S'prep_of'
p75
aS'3'
aS'5'
aa(lp76
S'prep_in'
p77
aS'5'
aS'7'
aa(lp78
S'amod'
p79
aS'11'
p80
aS'8'
aa(lp81
S'amod'
p82
aS'11'
p83
aS'9'
aa(lp84
S'nn'
p85
aS'11'
p86
aS'10'
p87
aa(lp88
S'root'
p89
aS'0'
aS'11'
p90
aa(lp91
S'prep_of'
p92
aS'11'
p93
aS'13'
p94
aa(lp95
S'prep_in'
p96
aS'13'
p97
aS'15'
p98
aa(lp99
S'prep_of'
p100
aS'15'
p101
aS'17'
p102
aa(lp103
S'dep'
p104
aS'11'
p105
aS'19'
p106
aa(lp107
S'pobj'
p108
aS'19'
p109
aS'20'
p110
aasS'srls'
p111
(lp112
sS'pos_seq'
p113
(lp114
S'JJ'
p115
aS'NNP'
p116
aS'NN'
p117
aS'IN'
p118
aS'NNS'
p119
aS'IN'
p120
aS'NN'
p121
aS'JJ'
p122
aS'JJ'
p123
aS'NN'
p124
aS'NN'
p125
aS'IN'
p126
aS'NNS'
p127
aS'IN'
p128
aS'NNP'
p129
aS'IN'
p130
aS'NNPS'
p131
aS':'
aS'IN'
p132
aS'NN'
p133
asS'ner_seq'
p134
(lp135
S'O'
aS'O'
aS'O'
aS'O'
aS'O'
aS'O'
aS'O'
aS'O'
aS'O'
aS'O'
aS'O'
aS'O'
aS'O'
aS'O'
aS'B-ORG'
p136
aS'I-ORG'
p137
aS'E-ORG'
p138
aS'O'
aS'O'
aS'O'
assb.