ccopy_reg
_reconstructor
p1
(c__main__
KBproperty
p2
c__builtin__
object
p3
NtRp4
(dp5
S'comment'
p6
S'mills code from the central Dutch database on mills00'
p7
sS'domain'
p8
S'Mill '
p9
sS'instances_count'
p10
I0
sS'phrases'
p11
NsS'syn_hypo'
p12
S''
sS'label'
p13
S'mill code NL'
p14
sS'range'
p15
S'string '
p16
sS'uniq_subjs'
p17
S'0'
sS'uniq_objs'
p18
I0
sS'prop_uri'
p19
S'http://dbpedia.org/ontology/millsCodeNL'
p20
sS'annotations'
p21
(dp22
S'bag_of_words'
p23
(lp24
S'Mill'
p25
aS'mill'
p26
aS'code'
p27
aS'NL'
p28
aS'string'
p29
aS'mills'
p30
aS'code'
p31
aS'from'
p32
aS'the'
p33
aS'central'
p34
aS'Dutch'
p35
aS'database'
p36
aS'on'
p37
aS'mills00'
p38
asS'chunk_seq'
p39
(lp40
S'B-NP'
p41
aS'I-NP'
p42
aS'I-NP'
p43
aS'I-NP'
p44
aS'I-NP'
p45
aS'I-NP'
p46
aS'E-NP'
p47
aS'S-PP'
p48
aS'B-NP'
p49
aS'I-NP'
p50
aS'I-NP'
p51
aS'E-NP'
p52
aS'S-PP'
p53
aS'S-NP'
p54
asS'dep_seq'
p55
(lp56
(lp57
S'nn'
p58
aS'7'
aS'1'
aa(lp59
S'nn'
p60
aS'7'
aS'2'
aa(lp61
S'nn'
p62
aS'7'
aS'3'
aa(lp63
S'nn'
p64
aS'7'
aS'4'
aa(lp65
S'nn'
p66
aS'7'
aS'5'
aa(lp67
S'nn'
p68
aS'7'
aS'6'
aa(lp69
S'root'
p70
aS'0'
aS'7'
aa(lp71
S'det'
p72
aS'12'
p73
aS'9'
aa(lp74
S'amod'
p75
aS'12'
p76
aS'10'
p77
aa(lp78
S'amod'
p79
aS'12'
p80
aS'11'
p81
aa(lp82
S'prep_from'
p83
aS'7'
aS'12'
p84
aa(lp85
S'prep_on'
p86
aS'7'
aS'14'
p87
aasS'srls'
p88
(lp89
sS'pos_seq'
p90
(lp91
S'NN'
p92
aS'NN'
p93
aS'NN'
p94
aS'NNP'
p95
aS'NN'
p96
aS'NNS'
p97
aS'NN'
p98
aS'IN'
p99
aS'DT'
p100
aS'JJ'
p101
aS'JJ'
p102
aS'NN'
p103
aS'IN'
p104
aS'NN'
p105
asS'ner_seq'
p106
(lp107
S'O'
aS'O'
aS'O'
aS'S-ORG'
p108
aS'O'
aS'O'
aS'O'
aS'O'
aS'O'
aS'O'
aS'S-MISC'
p109
aS'O'
aS'O'
aS'O'
assb.