ccopy_reg
_reconstructor
p1
(c__main__
KBproperty
p2
c__builtin__
object
p3
NtRp4
(dp5
S'comment'
p6
S'757757'
p7
sS'domain'
p8
S'Formula One Racer '
p9
sS'instances_count'
p10
I23
sS'phrases'
p11
NsS'syn_hypo'
p12
S''
sS'label'
p13
S'poles'
p14
sS'range'
p15
S'non Negative Integer '
p16
sS'uniq_subjs'
p17
S'23'
p18
sS'uniq_objs'
p19
I0
sS'prop_uri'
p20
S'http://dbpedia.org/ontology/poles'
p21
sS'annotations'
p22
(dp23
S'bag_of_words'
p24
(lp25
S'Formula'
p26
aS'One'
p27
aS'Racer'
p28
aS'poles'
p29
aS'non'
p30
aS'Negative'
p31
aS'Integer'
p32
aS'757757'
p33
asS'chunk_seq'
p34
(lp35
S'B-NP'
p36
aS'I-NP'
p37
aS'I-NP'
p38
aS'E-NP'
p39
aS'B-NP'
p40
aS'I-NP'
p41
aS'I-NP'
p42
aS'E-NP'
p43
asS'dep_seq'
p44
(lp45
(lp46
S'nn'
p47
aS'3'
aS'1'
aa(lp48
S'num'
p49
aS'3'
aS'2'
aa(lp50
S'nsubj'
p51
aS'4'
aS'3'
aa(lp52
S'root'
p53
aS'0'
aS'4'
aa(lp54
S'advmod'
p55
aS'8'
aS'5'
aa(lp56
S'amod'
p57
aS'8'
aS'6'
aa(lp58
S'nn'
p59
aS'8'
aS'7'
aa(lp60
S'dobj'
p61
aS'4'
aS'8'
aasS'srls'
p62
(lp63
(dp64
S'A1'
p65
S'non Negative Integer 757757'
p66
sS'A0'
p67
S'Formula One Racer'
p68
sS'V'
g29
sasS'pos_seq'
p69
(lp70
S'NN'
p71
aS'CD'
p72
aS'NN'
p73
aS'VBZ'
p74
aS'RB'
p75
aS'JJ'
p76
aS'NN'
p77
aS'NN'
p78
asS'ner_seq'
p79
(lp80
S'O'
aS'O'
aS'O'
aS'O'
aS'O'
aS'O'
aS'O'
aS'O'
assb.