ccopy_reg
_reconstructor
p1
(c__main__
KBproperty
p2
c__builtin__
object
p3
NtRp4
(dp5
S'comment'
p6
S'Library of Congress Control Number485468'
p7
sS'domain'
p8
S''
sS'instances_count'
p9
I482
sS'phrases'
p10
NsS'syn_hypo'
p11
S''
sS'label'
p12
S'LCCN Id'
p13
sS'range'
p14
S'string '
p15
sS'uniq_subjs'
p16
S'482'
p17
sS'uniq_objs'
p18
I0
sS'prop_uri'
p19
S'http://dbpedia.org/ontology/lccnId'
p20
sS'annotations'
p21
(dp22
S'bag_of_words'
p23
(lp24
S'LCCN'
p25
aS'Id'
p26
aS'string'
p27
aS'Library'
p28
aS'of'
p29
aS'Congress'
p30
aS'Control'
p31
aS'Number485468'
p32
asS'chunk_seq'
p33
(lp34
S'B-NP'
p35
aS'I-NP'
p36
aS'I-NP'
p37
aS'E-NP'
p38
aS'S-PP'
p39
aS'B-NP'
p40
aS'I-NP'
p41
aS'E-NP'
p42
asS'dep_seq'
p43
(lp44
(lp45
S'nn'
p46
aS'4'
aS'1'
aa(lp47
S'nn'
p48
aS'4'
aS'2'
aa(lp49
S'nn'
p50
aS'4'
aS'3'
aa(lp51
S'root'
p52
aS'0'
aS'4'
aa(lp53
S'prep_of'
p54
aS'4'
aS'6'
aa(lp55
S'nn'
p56
aS'8'
aS'7'
aa(lp57
S'dep'
p58
aS'4'
aS'8'
aasS'srls'
p59
(lp60
sS'pos_seq'
p61
(lp62
S'NNP'
p63
aS'NNP'
p64
aS'NN'
p65
aS'NN'
p66
aS'IN'
p67
aS'NNP'
p68
aS'NNP'
p69
aS'NNP'
p70
asS'ner_seq'
p71
(lp72
S'B-ORG'
p73
aS'I-ORG'
p74
aS'I-ORG'
p75
aS'I-ORG'
p76
aS'I-ORG'
p77
aS'I-ORG'
p78
aS'I-ORG'
p79
aS'E-ORG'
p80
assb.