ccopy_reg
_reconstructor
p1
(c__main__
KBproperty
p2
c__builtin__
object
p3
NtRp4
(dp5
S'comment'
p6
S'144569818'
p7
sS'domain'
p8
S'Person '
p9
sS'instances_count'
p10
I12669
sS'phrases'
p11
NsS'syn_hypo'
p12
Vbairnchildkidyoungsterminorshavernippersmall_frytiddlertiketykefrynestlingbusterchildkidyoungsterminorshavernippersmall_frytiddlertiketykefrynestlingchangelingchildkidyoungsterminorshavernippersmall_frytiddlertiketykefrynestlingchild_prodigychildkidyoungsterminorshavernippersmall_frytiddlertiketykefrynestlinginfant_prodigychildkidyoungsterminorshavernippersmall_frytiddlertiketykefrynestlingwonder_childchildkidyoungsterminorshavernippersmall_frytiddlertiketykefrynestlingfoster-childchildkidyoungsterminorshavernippersmall_frytiddlertiketykefrynestlingfoster_childchildkidyoungsterminorshavernippersmall_frytiddlertiketykefrynestlingfosterlingchildkidyoungsterminorshavernippersmall_frytiddlertiketykefrynestlingimpchildkidyoungsterminorshavernippersmall_frytiddlertiketykefrynestlingscampchildkidyoungsterminorshavernippersmall_frytiddlertiketykefrynestlingmonkeychildkidyoungsterminorshavernippersmall_frytiddlertiketykefrynestlingrascalchildkidyoungsterminorshavernippersmall_frytiddlertiketykefrynestlingrapscallionchildkidyoungsterminorshavernippersmall_frytiddlertiketykefrynestlingscalawagchildkidyoungsterminorshavernippersmall_frytiddlertiketykefrynestlingscallywagchildkidyoungsterminorshavernippersmall_frytiddlertiketykefrynestlingkiddychildkidyoungsterminorshavernippersmall_frytiddlertiketykefrynestlingorphanchildkidyoungsterminorshavernippersmall_frytiddlertiketykefrynestlingpeanutchildkidyoungsterminorshavernippersmall_frytiddlertiketykefrynestlingpickaninnychildkidyoungsterminorshavernippersmall_frytiddlertiketykefrynestlingpiccaninnychildkidyoungsterminorshavernippersmall_frytiddlertiketykefrynestlingpicaninnychildkidyoungsterminorshavernippersmall_frytiddlertiketykefrynestlingposter_childchildkidyoungsterminorshavernippersmall_frytiddlertiketykefrynestlingpreschoolerchildkidyoungsterminorshavernippersmall_frytiddlertiketykefrynestlingkindergartnerchildkidyoungsterminorshavernippersmall_frytiddlertiketykefrynestlingkindergartenerchildkidyoungsterminorshavernippersmall_frytiddlertiketykefrynestlingsillychildkidyoungsterminorshavernippersmall_frytiddlertiketykefrynestlingsprogchildkidyoungsterminorshavernippersmall_frytiddlertiketykefrynestlingtoddlerchildkidyoungsterminorshavernippersmall_frytiddlertiketykefrynestlingyearlingchildkidyoungsterminorshavernippersmall_frytiddlertiketykefrynestlingtotchildkidyoungsterminorshavernippersmall_frytiddlertiketykefrynestlingbambinochildkidyoungsterminorshavernippersmall_frytiddlertiketykefrynestlingurchinchildkidyoungsterminorshavernippersmall_frytiddlertiketykefrynestlingwaifchildkidyoungsterminorshavernippersmall_frytiddlertiketykefrynestlingstreet_child
p13
sS'label'
p14
S'child'
p15
sS'range'
p16
S'Person '
p17
sS'uniq_subjs'
p18
S'12669'
p19
sS'uniq_objs'
p20
I0
sS'prop_uri'
p21
S'http://dbpedia.org/ontology/child'
p22
sS'annotations'
p23
(dp24
S'bag_of_words'
p25
(lp26
S'Person'
p27
aS'child'
p28
aS'Person'
p29
aS'144569818'
p30
asS'chunk_seq'
p31
(lp32
S'B-NP'
p33
aS'I-NP'
p34
aS'E-NP'
p35
aS'S-ADJP'
p36
asS'dep_seq'
p37
(lp38
(lp39
S'nn'
p40
aS'3'
aS'1'
aa(lp41
S'nn'
p42
aS'3'
aS'2'
aa(lp43
S'root'
p44
aS'0'
aS'3'
aa(lp45
S'dep'
p46
aS'3'
aS'4'
aasS'srls'
p47
(lp48
sS'pos_seq'
p49
(lp50
S'NN'
p51
aS'NN'
p52
aS'NN'
p53
aS'.'
asS'ner_seq'
p54
(lp55
S'O'
aS'O'
aS'O'
aS'O'
assb.