ccopy_reg
_reconstructor
p1
(c__main__
KBproperty
p2
c__builtin__
object
p3
NtRp4
(dp5
S'comment'
p6
S'00'
p7
sS'domain'
p8
S'Golf Course '
p9
sS'instances_count'
p10
I0
sS'phrases'
p11
NsS'syn_hypo'
p12
S''
sS'label'
p13
S'number of holes'
p14
sS'range'
p15
S'integer '
p16
sS'uniq_subjs'
p17
S'0'
sS'uniq_objs'
p18
I0
sS'prop_uri'
p19
S'http://dbpedia.org/ontology/numberOfHoles'
p20
sS'annotations'
p21
(dp22
S'bag_of_words'
p23
(lp24
S'Golf'
p25
aS'Course'
p26
aS'number'
p27
aS'of'
p28
aS'holes'
p29
aS'integer'
p30
aS'00'
p31
asS'chunk_seq'
p32
(lp33
S'B-NP'
p34
aS'I-NP'
p35
aS'E-NP'
p36
aS'S-PP'
p37
aS'S-NP'
p38
aS'S-VP'
p39
aS'O'
asS'dep_seq'
p40
(lp41
(lp42
S'nn'
p43
aS'3'
aS'1'
aa(lp44
S'nn'
p45
aS'3'
aS'2'
aa(lp46
S'root'
p47
aS'0'
aS'3'
aa(lp48
S'prep_of'
p49
aS'3'
aS'5'
aa(lp50
S'dep'
p51
aS'3'
aS'6'
aa(lp52
S'dobj'
p53
aS'6'
aS'7'
aasS'srls'
p54
(lp55
(dp56
S'A0'
p57
S'Golf Course number of holes'
p58
sS'A2'
p59
g31
sS'V'
g30
sasS'pos_seq'
p60
(lp61
S'NNP'
p62
aS'NNP'
p63
aS'NN'
p64
aS'IN'
p65
aS'NNS'
p66
aS'VBP'
p67
aS'CD'
p68
asS'ner_seq'
p69
(lp70
S'O'
aS'O'
aS'O'
aS'O'
aS'O'
aS'O'
aS'O'
assb.