ccopy_reg
_reconstructor
p1
(c__main__
KBproperty
p2
c__builtin__
object
p3
NtRp4
(dp5
S'comment'
p6
S'Number of people who can be served by a Train or other service; or participate in a SoccerClub CricketTeam etc1477614347'
p7
sS'domain'
p8
S''
sS'instances_count'
p9
I14776
sS'phrases'
p10
NsS'syn_hypo'
p11
V
sS'label'
p12
S'capacity'
p13
sS'range'
p14
S'non Negative Integer '
p15
sS'uniq_subjs'
p16
S'2338'
p17
sS'uniq_objs'
p18
I0
sS'prop_uri'
p19
S'http://dbpedia.org/ontology/capacity'
p20
sS'annotations'
p21
(dp22
S'bag_of_words'
p23
(lp24
S'capacity'
p25
aS'non'
p26
aS'Negative'
p27
aS'Integer'
p28
aS'Number'
p29
aS'of'
p30
aS'people'
p31
aS'who'
p32
aS'can'
p33
aS'be'
p34
aS'served'
p35
aS'by'
p36
aS'a'
aS'Train'
p37
aS'or'
p38
aS'other'
p39
aS'service'
p40
aS';'
aS'or'
p41
aS'participate'
p42
aS'in'
p43
aS'a'
aS'SoccerClub'
p44
aS'CricketTeam'
p45
aS'etc1477614347'
p46
asS'chunk_seq'
p47
(lp48
S'S-NP'
p49
aS'B-NP'
p50
aS'I-NP'
p51
aS'I-NP'
p52
aS'E-NP'
p53
aS'S-PP'
p54
aS'S-NP'
p55
aS'S-NP'
p56
aS'B-VP'
p57
aS'I-VP'
p58
aS'E-VP'
p59
aS'S-PP'
p60
aS'B-NP'
p61
aS'E-NP'
p62
aS'O'
aS'B-NP'
p63
aS'E-NP'
p64
aS'O'
aS'O'
aS'S-VP'
p65
aS'S-PP'
p66
aS'B-NP'
p67
aS'I-NP'
p68
aS'I-NP'
p69
aS'E-NP'
p70
asS'dep_seq'
p71
(lp72
(lp73
S'nn'
p74
aS'5'
aS'1'
aa(lp75
S'advmod'
p76
aS'3'
aS'2'
aa(lp77
S'amod'
p78
aS'5'
aS'3'
aa(lp79
S'nn'
p80
aS'5'
aS'4'
aa(lp81
S'root'
p82
aS'0'
aS'5'
aa(lp83
S'prep_of'
p84
aS'5'
aS'7'
aa(lp85
S'nsubjpass'
p86
aS'11'
p87
aS'7'
aa(lp88
S'aux'
p89
aS'11'
p90
aS'9'
aa(lp91
S'auxpass'
p92
aS'11'
p93
aS'10'
p94
aa(lp95
S'rcmod'
p96
aS'7'
aS'11'
p97
aa(lp98
S'det'
p99
aS'17'
p100
aS'13'
p101
aa(lp102
S'nn'
p103
aS'17'
p104
aS'14'
p105
aa(lp106
S'conj_or'
p107
aS'14'
p108
aS'16'
p109
aa(lp110
S'agent'
p111
aS'11'
p112
aS'17'
p113
aa(lp114
S'conj_or'
p115
aS'11'
p116
aS'20'
p117
aa(lp118
S'det'
p119
aS'24'
p120
aS'22'
p121
aa(lp122
S'nn'
p123
aS'24'
p124
aS'23'
p125
aa(lp126
S'prep_in'
p127
aS'20'
p128
aS'24'
p129
aa(lp130
S'punct'
p131
aS'24'
p132
aS'25'
p133
aasS'srls'
p134
(lp135
(dp136
S'A1'
p137
S'people  by a Train or other service'
p138
sS'V'
g35
sS'R-A1'
p139
g32
sS'AM-MOD'
p140
g33
sa(dp141
S'A1'
p142
S'in a SoccerClub CricketTeam etc1477614347'
p143
sS'A0'
p144
g31
sS'V'
g42
sS'R-A0'
p145
g32
sS'AM-MOD'
p146
g33
sasS'pos_seq'
p147
(lp148
S'NN'
p149
aS'RB'
p150
aS'JJ'
p151
aS'NNP'
p152
aS'NNP'
p153
aS'IN'
p154
aS'NNS'
p155
aS'WP'
p156
aS'MD'
p157
aS'VB'
p158
aS'VBN'
p159
aS'IN'
p160
aS'DT'
p161
aS'NN'
p162
aS'CC'
p163
aS'JJ'
p164
aS'NN'
p165
aS':'
aS'CC'
p166
aS'VB'
p167
aS'IN'
p168
aS'DT'
p169
aS'NNP'
p170
aS'NNP'
p171
aS'.'
asS'ner_seq'
p172
(lp173
S'O'
aS'O'
aS'O'
aS'O'
aS'O'
aS'O'
aS'O'
aS'O'
aS'O'
aS'O'
aS'O'
aS'O'
aS'O'
aS'O'
aS'O'
aS'O'
aS'O'
aS'O'
aS'O'
aS'O'
aS'O'
aS'O'
aS'B-MISC'
p174
aS'E-MISC'
p175
aS'O'
assb.