ccopy_reg
_reconstructor
p1
(c__main__
KBproperty
p2
c__builtin__
object
p3
NtRp4
(dp5
S'comment'
p6
S'1709316185'
p7
sS'domain'
p8
S''
sS'instances_count'
p9
I4739
sS'phrases'
p10
NsS'syn_hypo'
p11
S''
sS'label'
p12
S'budget $'
p13
sS'range'
p14
S'double '
p15
sS'uniq_subjs'
p16
S'4739'
p17
sS'uniq_objs'
p18
I0
sS'prop_uri'
p19
S'http://dbpedia.org/ontology/budget'
p20
sS'annotations'
p21
(dp22
S'bag_of_words'
p23
(lp24
S'budget'
p25
aS'$'
aS'double'
p26
aS'1709316185'
p27
asS'chunk_seq'
p28
(lp29
S'B-NP'
p30
aS'I-NP'
p31
aS'I-NP'
p32
aS'E-NP'
p33
asS'dep_seq'
p34
(lp35
(lp36
S'nn'
p37
aS'4'
aS'1'
aa(lp38
S'dep'
p39
aS'4'
aS'2'
aa(lp40
S'amod'
p41
aS'4'
aS'3'
aa(lp42
S'root'
p43
aS'0'
aS'4'
aasS'srls'
p44
(lp45
sS'pos_seq'
p46
(lp47
S'NN'
p48
aS'$'
aS'JJ'
p49
aS'NN'
p50
asS'ner_seq'
p51
(lp52
S'O'
aS'O'
aS'O'
aS'O'
assb.