ccopy_reg
_reconstructor
p1
(c__main__
KBproperty
p2
c__builtin__
object
p3
NtRp4
(dp5
S'comment'
p6
S'Connecting services that serve the station such as bus etc.52033635'
p7
sS'domain'
p8
S'Station '
p9
sS'instances_count'
p10
I5203
sS'phrases'
p11
NsS'syn_hypo'
p12
S''
sS'label'
p13
S'other serving lines'
p14
sS'range'
p15
S'string '
p16
sS'uniq_subjs'
p17
S'3027'
p18
sS'uniq_objs'
p19
I0
sS'prop_uri'
p20
S'http://dbpedia.org/ontology/otherServingLines'
p21
sS'annotations'
p22
(dp23
S'bag_of_words'
p24
(lp25
S'Station'
p26
aS'other'
p27
aS'serving'
p28
aS'lines'
p29
aS'string'
p30
aS'Connecting'
p31
aS'services'
p32
aS'that'
p33
aS'serve'
p34
aS'the'
p35
aS'station'
p36
aS'such'
p37
aS'as'
p38
aS'bus'
p39
aS'etc.52033635'
p40
asS'chunk_seq'
p41
(lp42
S'B-NP'
p43
aS'I-NP'
p44
aS'I-NP'
p45
aS'I-NP'
p46
aS'I-NP'
p47
aS'I-NP'
p48
aS'E-NP'
p49
aS'S-NP'
p50
aS'S-VP'
p51
aS'B-NP'
p52
aS'E-NP'
p53
aS'B-PP'
p54
aS'E-PP'
p55
aS'B-NP'
p56
aS'E-NP'
p57
asS'dep_seq'
p58
(lp59
(lp60
S'nn'
p61
aS'7'
aS'1'
aa(lp62
S'amod'
p63
aS'7'
aS'2'
aa(lp64
S'amod'
p65
aS'7'
aS'3'
aa(lp66
S'nn'
p67
aS'7'
aS'4'
aa(lp68
S'nn'
p69
aS'7'
aS'5'
aa(lp70
S'amod'
p71
aS'7'
aS'6'
aa(lp72
S'root'
p73
aS'0'
aS'7'
aa(lp74
S'nsubj'
p75
aS'9'
aS'7'
aa(lp76
S'rcmod'
p77
aS'7'
aS'9'
aa(lp78
S'det'
p79
aS'11'
p80
aS'10'
p81
aa(lp82
S'dobj'
p83
aS'9'
aS'11'
p84
aa(lp85
S'nn'
p86
aS'15'
p87
aS'14'
p88
aa(lp89
S'prep_such_as'
p90
aS'11'
p91
aS'15'
p92
aasS'srls'
p93
(lp94
(dp95
S'A0'
p96
S'lines  bus etc.52033635'
p97
sS'V'
g28
sa(dp98
S'A1'
p99
g32
sS'V'
g31
sa(dp100
S'A0'
p101
S'Station other serving lines string Connecting services'
p102
sS'A2'
p103
S'the station such as bus etc.52033635'
p104
sS'R-A0'
p105
g33
sS'V'
g34
sasS'pos_seq'
p106
(lp107
S'NN'
p108
aS'JJ'
p109
aS'VBG'
p110
aS'NNS'
p111
aS'NN'
p112
aS'VBG'
p113
aS'NNS'
p114
aS'WDT'
p115
aS'VBP'
p116
aS'DT'
p117
aS'NN'
p118
aS'JJ'
p119
aS'IN'
p120
aS'NN'
p121
aS'NN'
p122
asS'ner_seq'
p123
(lp124
S'O'
aS'O'
aS'O'
aS'O'
aS'O'
aS'O'
aS'O'
aS'O'
aS'O'
aS'O'
aS'O'
aS'O'
aS'O'
aS'O'
aS'O'
assb.