ccopy_reg
_reconstructor
p1
(c__main__
KBproperty
p2
c__builtin__
object
p3
NtRp4
(dp5
S'comment'
p6
S'Organisation or city who is the operator of an ArchitecturalStructure PublicTransitSystem etc. Not to confuse with maintainer or the owner.73716487'
p7
sS'domain'
p8
S''
sS'instances_count'
p9
I7371
sS'phrases'
p10
NsS'syn_hypo'
p11
S''
sS'label'
p12
S'operated by'
p13
sS'range'
p14
S''
sS'uniq_subjs'
p15
S'1072'
p16
sS'uniq_objs'
p17
I0
sS'prop_uri'
p18
S'http://dbpedia.org/ontology/operatedBy'
p19
sS'annotations'
p20
(dp21
S'bag_of_words'
p22
(lp23
S'operated'
p24
aS'by'
p25
aS'Organisation'
p26
aS'or'
p27
aS'city'
p28
aS'who'
p29
aS'is'
p30
aS'the'
p31
aS'operator'
p32
aS'of'
p33
aS'an'
p34
aS'ArchitecturalStructure'
p35
aS'PublicTransitSystem'
p36
aS'etc.'
p37
aS'Not'
p38
aS'to'
p39
aS'confuse'
p40
aS'with'
p41
aS'maintainer'
p42
aS'or'
p43
aS'the'
p44
aS'owner.73716487'
p45
asS'chunk_seq'
p46
(lp47
S'S-VP'
p48
aS'S-PP'
p49
aS'B-NP'
p50
aS'I-NP'
p51
aS'E-NP'
p52
aS'S-NP'
p53
aS'S-VP'
p54
aS'B-NP'
p55
aS'E-NP'
p56
aS'S-PP'
p57
aS'B-NP'
p58
aS'I-NP'
p59
aS'E-NP'
p60
aS'B-VP'
p61
aS'I-VP'
p62
aS'I-VP'
p63
aS'E-VP'
p64
aS'S-PP'
p65
aS'S-NP'
p66
aS'O'
aS'B-NP'
p67
aS'E-NP'
p68
asS'dep_seq'
p69
(lp70
(lp71
S'csubj'
p72
aS'14'
p73
aS'1'
aa(lp74
S'prep_by'
p75
aS'1'
aS'3'
aa(lp76
S'nsubj'
p77
aS'9'
aS'3'
aa(lp78
S'conj_or'
p79
aS'3'
aS'5'
aa(lp80
S'cop'
p81
aS'9'
aS'7'
aa(lp82
S'det'
p83
aS'9'
aS'8'
aa(lp84
S'rcmod'
p85
aS'3'
aS'9'
aa(lp86
S'det'
p87
aS'13'
p88
aS'11'
p89
aa(lp90
S'nn'
p91
aS'13'
p92
aS'12'
p93
aa(lp94
S'prep_of'
p95
aS'9'
aS'13'
p96
aa(lp97
S'root'
p98
aS'0'
aS'14'
p99
aa(lp100
S'neg'
p101
aS'17'
p102
aS'15'
p103
aa(lp104
S'aux'
p105
aS'17'
p106
aS'16'
p107
aa(lp108
S'xcomp'
p109
aS'14'
p110
aS'17'
p111
aa(lp112
S'prep_with'
p113
aS'17'
p114
aS'19'
p115
aa(lp116
S'det'
p117
aS'22'
p118
aS'21'
p119
aa(lp120
S'conj_or'
p121
aS'19'
p122
aS'22'
p123
aasS'srls'
p124
(lp125
(dp126
S'A0'
p127
S'by Organisation or city who is the operator of an ArchitecturalStructure PublicTransitSystem'
p128
sS'V'
g24
sa(dp129
S'A1'
p130
S'the operator of an ArchitecturalStructure PublicTransitSystem'
p131
sS'A2'
p132
S'with maintainer or the owner.73716487'
p133
sS'AM-NEG'
p134
g38
sS'V'
g40
sasS'pos_seq'
p135
(lp136
S'VBN'
p137
aS'IN'
p138
aS'NNP'
p139
aS'CC'
p140
aS'NN'
p141
aS'WP'
p142
aS'VBZ'
p143
aS'DT'
p144
aS'NN'
p145
aS'IN'
p146
aS'DT'
p147
aS'NNP'
p148
aS'NNP'
p149
aS'MD'
p150
aS'RB'
p151
aS'TO'
p152
aS'VB'
p153
aS'IN'
p154
aS'NN'
p155
aS'CC'
p156
aS'DT'
p157
aS'NN'
p158
asS'ner_seq'
p159
(lp160
S'O'
aS'O'
aS'O'
aS'O'
aS'O'
aS'O'
aS'O'
aS'O'
aS'O'
aS'O'
aS'O'
aS'B-PER'
p161
aS'E-PER'
p162
aS'O'
aS'O'
aS'O'
aS'O'
aS'O'
aS'O'
aS'O'
aS'O'
aS'O'
assb.