ccopy_reg
_reconstructor
p1
(c__main__
KBproperty
p2
c__builtin__
object
p3
NtRp4
(dp5
S'comment'
p6
S'The subject was influenced by the object. inverseOf influenced. Subject and object can be Persons or Works eg ProgrammingLanguage229787249'
p7
sS'domain'
p8
S''
sS'instances_count'
p9
I9213
sS'phrases'
p10
NsS'syn_hypo'
p11
S''
sS'label'
p12
S'influenced by'
p13
sS'range'
p14
S''
sS'uniq_subjs'
p15
S'9213'
p16
sS'uniq_objs'
p17
I0
sS'prop_uri'
p18
S'http://dbpedia.org/ontology/influencedBy'
p19
sS'annotations'
p20
(dp21
S'bag_of_words'
p22
(lp23
S'influenced'
p24
aS'by'
p25
aS'The'
p26
aS'subject'
p27
aS'was'
p28
aS'influenced'
p29
aS'by'
p30
aS'the'
p31
aS'object'
p32
aS'.'
aS'inverseOf'
p33
aS'influenced'
p34
aS'.'
aS'Subject'
p35
aS'and'
p36
aS'object'
p37
aS'can'
p38
aS'be'
p39
aS'Persons'
p40
aS'or'
p41
aS'Works'
p42
aS'eg'
p43
aS'ProgrammingLanguage229787249'
p44
asS'chunk_seq'
p45
(lp46
S'S-VP'
p47
aS'S-PP'
p48
aS'B-NP'
p49
aS'E-NP'
p50
aS'B-VP'
p51
aS'E-VP'
p52
aS'S-PP'
p53
aS'B-NP'
p54
aS'E-NP'
p55
aS'O'
aS'S-NP'
p56
aS'S-VP'
p57
aS'O'
aS'B-NP'
p58
aS'I-NP'
p59
aS'E-NP'
p60
aS'B-VP'
p61
aS'E-VP'
p62
aS'B-NP'
p63
aS'I-NP'
p64
aS'E-NP'
p65
aS'S-PP'
p66
aS'S-NP'
p67
asS'dep_seq'
p68
(lp69
(lp70
S'root'
p71
aS'0'
aS'1'
aa(lp72
S'dep'
p73
aS'19'
p74
aS'2'
aa(lp75
S'det'
p76
aS'4'
aS'3'
aa(lp77
S'nsubjpass'
p78
aS'6'
aS'4'
aa(lp79
S'auxpass'
p80
aS'6'
aS'5'
aa(lp81
S'pcomp'
p82
aS'2'
aS'6'
aa(lp83
S'det'
p84
aS'12'
p85
aS'8'
aa(lp86
S'nn'
p87
aS'12'
p88
aS'9'
aa(lp89
S'conj_and'
p90
aS'12'
p91
aS'11'
p92
aa(lp93
S'nn'
p94
aS'12'
p95
aS'11'
p96
aa(lp97
S'agent'
p98
aS'6'
aS'12'
p99
aa(lp100
S'conj_and'
p101
aS'12'
p102
aS'14'
p103
aa(lp104
S'nn'
p105
aS'12'
p106
aS'14'
p107
aa(lp108
S'conj_and'
p109
aS'12'
p110
aS'16'
p111
aa(lp112
S'aux'
p113
aS'19'
p114
aS'17'
p115
aa(lp116
S'cop'
p117
aS'19'
p118
aS'18'
p119
aa(lp120
S'ccomp'
p121
aS'1'
aS'19'
p122
aa(lp123
S'conj_or'
p124
aS'19'
p125
aS'21'
p126
aa(lp127
S'prep_eg'
p128
aS'19'
p129
aS'23'
p130
aasS'srls'
p131
(lp132
(dp133
S'A0'
p134
S'by The subject'
p135
sS'V'
g24
sa(dp136
S'A1'
p137
S'The subject'
p138
sS'A0'
p139
S'by the object'
p140
sS'V'
g29
sa(dp141
S'A1'
p142
S'Subject and object can be Persons or Works eg ProgrammingLanguage229787249'
p143
sS'A0'
p144
g33
sS'V'
g34
sasS'pos_seq'
p145
(lp146
S'VBN'
p147
aS'IN'
p148
aS'DT'
p149
aS'NN'
p150
aS'VBD'
p151
aS'VBN'
p152
aS'IN'
p153
aS'DT'
p154
aS'NN'
p155
aS'.'
aS'NNP'
p156
aS'VBD'
p157
aS'.'
aS'NNP'
p158
aS'CC'
p159
aS'NN'
p160
aS'MD'
p161
aS'VB'
p162
aS'NNPS'
p163
aS'CC'
p164
aS'NNP'
p165
aS'IN'
p166
aS'NNP'
p167
asS'ner_seq'
p168
(lp169
S'O'
aS'O'
aS'O'
aS'O'
aS'O'
aS'O'
aS'O'
aS'O'
aS'O'
aS'O'
aS'S-ORG'
p170
aS'O'
aS'O'
aS'O'
aS'O'
aS'O'
aS'O'
aS'O'
aS'O'
aS'O'
aS'O'
aS'O'
aS'S-ORG'
p171
assb.