ccopy_reg
_reconstructor
p1
(c__main__
KBproperty
p2
c__builtin__
object
p3
NtRp4
(dp5
S'comment'
p6
S'Power to be expressed in Watts kiloWatt megaWatt00'
p7
sS'domain'
p8
S'Mean Of Transportation '
p9
sS'instances_count'
p10
I0
sS'phrases'
p11
NsS'syn_hypo'
p12
S''
sS'label'
p13
S'engine power'
p14
sS'range'
p15
S'positive Integer '
p16
sS'uniq_subjs'
p17
S'0'
sS'uniq_objs'
p18
I0
sS'prop_uri'
p19
S'http://dbpedia.org/ontology/enginePower'
p20
sS'annotations'
p21
(dp22
S'bag_of_words'
p23
(lp24
S'Mean'
p25
aS'Of'
p26
aS'Transportation'
p27
aS'engine'
p28
aS'power'
p29
aS'positive'
p30
aS'Integer'
p31
aS'Power'
p32
aS'to'
p33
aS'be'
p34
aS'expressed'
p35
aS'in'
p36
aS'Watts'
p37
aS'kiloWatt'
p38
aS'megaWatt00'
p39
asS'chunk_seq'
p40
(lp41
S'S-NP'
p42
aS'S-PP'
p43
aS'S-NP'
p44
aS'B-NP'
p45
aS'E-NP'
p46
aS'S-ADJP'
p47
aS'B-NP'
p48
aS'E-NP'
p49
aS'B-VP'
p50
aS'I-VP'
p51
aS'E-VP'
p52
aS'S-PP'
p53
aS'B-NP'
p54
aS'E-NP'
p55
aS'O'
asS'dep_seq'
p56
(lp57
(lp58
S'dep'
p59
aS'2'
aS'1'
aa(lp60
S'root'
p61
aS'0'
aS'2'
aa(lp62
S'nn'
p63
aS'5'
aS'3'
aa(lp64
S'nn'
p65
aS'5'
aS'4'
aa(lp66
S'nn'
p67
aS'8'
aS'5'
aa(lp68
S'amod'
p69
aS'8'
aS'6'
aa(lp70
S'nn'
p71
aS'8'
aS'7'
aa(lp72
S'pobj'
p73
aS'2'
aS'8'
aa(lp74
S'aux'
p75
aS'11'
p76
aS'9'
aa(lp77
S'auxpass'
p78
aS'11'
p79
aS'10'
p80
aa(lp81
S'infmod'
p82
aS'8'
aS'11'
p83
aa(lp84
S'nn'
p85
aS'14'
p86
aS'13'
p87
aa(lp88
S'prep_in'
p89
aS'11'
p90
aS'14'
p91
aa(lp92
S'punct'
p93
aS'14'
p94
aS'15'
p95
aasS'srls'
p96
(lp97
(dp98
S'A1'
p99
S'Transportation engine power positive Integer Power'
p100
sS'AM-LOC'
p101
S'in Watts kiloWatt megaWatt00'
p102
sS'V'
g35
sasS'pos_seq'
p103
(lp104
S'NNP'
p105
aS'IN'
p106
aS'NNP'
p107
aS'NN'
p108
aS'NN'
p109
aS'JJ'
p110
aS'NNP'
p111
aS'NNP'
p112
aS'TO'
p113
aS'VB'
p114
aS'VBN'
p115
aS'IN'
p116
aS'NNP'
p117
aS'NNP'
p118
aS'.'
asS'ner_seq'
p119
(lp120
S'O'
aS'B-ORG'
p121
aS'E-ORG'
p122
aS'O'
aS'O'
aS'O'
aS'B-ORG'
p123
aS'E-ORG'
p124
aS'O'
aS'O'
aS'O'
aS'O'
aS'O'
aS'O'
aS'O'
assb.