ccopy_reg
_reconstructor
p1
(c__main__
KBproperty
p2
c__builtin__
object
p3
NtRp4
(dp5
S'comment'
p6
S'Jersey number of an Athlete sports player eg "99" or sequential number of an Album eg "Third studio album"6785367817'
p7
sS'domain'
p8
S''
sS'instances_count'
p9
I67853
sS'phrases'
p10
NsS'syn_hypo'
p11
Vfewnessnumberfigureinnumerablenessnumberfigurecountlessnessnumberfiguremajoritynumberfigurebulknumberfigureminoritynumberfigurenumerousnessnumberfigurenumerositynumberfiguremultiplicitynumberfigurepreponderancenumberfigureprevalencenumberfigureroundness
p12
sS'label'
p13
S'number'
p14
sS'range'
p15
S'string '
p16
sS'uniq_subjs'
p17
S'4900'
p18
sS'uniq_objs'
p19
I0
sS'prop_uri'
p20
S'http://dbpedia.org/ontology/number'
p21
sS'annotations'
p22
(dp23
S'bag_of_words'
p24
(lp25
S'number'
p26
aS'string'
p27
aS'Jersey'
p28
aS'number'
p29
aS'of'
p30
aS'an'
p31
aS'Athlete'
p32
aS'sports'
p33
aS'player'
p34
aS'eg'
p35
aS'"'
aS'99'
p36
aS'"'
aS'or'
p37
aS'sequential'
p38
aS'number'
p39
aS'of'
p40
aS'an'
p41
aS'Album'
p42
aS'eg'
p43
aS'"'
aS'Third'
p44
aS'studio'
p45
aS'album'
p46
aS'"'
aS'6785367817'
p47
asS'chunk_seq'
p48
(lp49
S'B-NP'
p50
aS'I-NP'
p51
aS'I-NP'
p52
aS'E-NP'
p53
aS'S-PP'
p54
aS'B-NP'
p55
aS'I-NP'
p56
aS'I-NP'
p57
aS'E-NP'
p58
aS'S-VP'
p59
aS'B-NP'
p60
aS'I-NP'
p61
aS'I-NP'
p62
aS'I-NP'
p63
aS'I-NP'
p64
aS'E-NP'
p65
aS'S-PP'
p66
aS'B-NP'
p67
aS'E-NP'
p68
aS'S-VP'
p69
aS'S-PP'
p70
aS'B-NP'
p71
aS'I-NP'
p72
aS'E-NP'
p73
aS'S-SBAR'
p74
aS'O'
asS'dep_seq'
p75
(lp76
(lp77
S'nn'
p78
aS'4'
aS'1'
aa(lp79
S'nn'
p80
aS'4'
aS'2'
aa(lp81
S'nn'
p82
aS'4'
aS'3'
aa(lp83
S'nn'
p84
aS'20'
p85
aS'4'
aa(lp86
S'det'
p87
aS'7'
aS'6'
aa(lp88
S'prep_of'
p89
aS'4'
aS'7'
aa(lp90
S'nn'
p91
aS'7'
aS'8'
aa(lp92
S'nn'
p93
aS'7'
aS'9'
aa(lp94
S'nn'
p95
aS'7'
aS'10'
p96
aa(lp97
S'nn'
p98
aS'7'
aS'11'
p99
aa(lp100
S'nn'
p101
aS'7'
aS'12'
p102
aa(lp103
S'dep'
p104
aS'7'
aS'13'
p105
aa(lp106
S'amod'
p107
aS'16'
p108
aS'15'
p109
aa(lp110
S'conj_or'
p111
aS'7'
aS'16'
p112
aa(lp113
S'det'
p114
aS'19'
p115
aS'18'
p116
aa(lp117
S'prep_of'
p118
aS'4'
aS'19'
p119
aa(lp120
S'root'
p121
aS'0'
aS'20'
p122
aa(lp123
S'amod'
p124
aS'20'
p125
aS'21'
p126
aa(lp127
S'amod'
p128
aS'24'
p129
aS'22'
p130
aa(lp131
S'nn'
p132
aS'24'
p133
aS'23'
p134
aa(lp135
S'dep'
p136
aS'20'
p137
aS'24'
p138
aa(lp139
S'prep_"'
p140
aS'24'
p141
aS'26'
p142
aasS'srls'
p143
(lp144
sS'pos_seq'
p145
(lp146
S'NN'
p147
aS'NN'
p148
aS'NNP'
p149
aS'NN'
p150
aS'IN'
p151
aS'DT'
p152
aS'NNP'
p153
aS'FW'
p154
aS'FW'
p155
aS'FW'
p156
aS'FW'
p157
aS'FW'
p158
aS'FW'
p159
aS'CC'
p160
aS'JJ'
p161
aS'NN'
p162
aS'IN'
p163
aS'DT'
p164
aS'NN'
p165
aS'NN'
p166
aS'IN'
p167
aS'JJ'
p168
aS'NN'
p169
aS'NN'
p170
aS'IN'
p171
aS'NN'
p172
asS'ner_seq'
p173
(lp174
S'O'
aS'O'
aS'S-MISC'
p175
aS'O'
aS'O'
aS'O'
aS'O'
aS'O'
aS'O'
aS'O'
aS'O'
aS'O'
aS'O'
aS'O'
aS'O'
aS'O'
aS'O'
aS'O'
aS'O'
aS'O'
aS'O'
aS'O'
aS'O'
aS'O'
aS'O'
aS'O'
assb.