ccopy_reg
_reconstructor
p1
(c__main__
KBproperty
p2
c__builtin__
object
p3
NtRp4
(dp5
S'comment'
p6
S'Name of the cultivar cultivated variety1817'
p7
sS'domain'
p8
S'Plant '
p9
sS'instances_count'
p10
I8
sS'phrases'
p11
NsS'syn_hypo'
p12
V
sS'label'
p13
S'cultivar'
p14
sS'range'
p15
S'Cultivated Variety '
p16
sS'uniq_subjs'
p17
S'8'
sS'uniq_objs'
p18
I0
sS'prop_uri'
p19
S'http://dbpedia.org/ontology/cultivatedVariety'
p20
sS'annotations'
p21
(dp22
S'bag_of_words'
p23
(lp24
S'Plant'
p25
aS'cultivar'
p26
aS'Cultivated'
p27
aS'Variety'
p28
aS'Name'
p29
aS'of'
p30
aS'the'
p31
aS'cultivar'
p32
aS'cultivated'
p33
aS'variety1817'
p34
asS'chunk_seq'
p35
(lp36
S'B-NP'
p37
aS'I-NP'
p38
aS'I-NP'
p39
aS'I-NP'
p40
aS'E-NP'
p41
aS'S-PP'
p42
aS'B-NP'
p43
aS'E-NP'
p44
aS'S-VP'
p45
aS'O'
asS'dep_seq'
p46
(lp47
(lp48
S'nn'
p49
aS'5'
aS'1'
aa(lp50
S'nn'
p51
aS'5'
aS'2'
aa(lp52
S'nn'
p53
aS'5'
aS'3'
aa(lp54
S'nn'
p55
aS'5'
aS'4'
aa(lp56
S'nsubj'
p57
aS'9'
aS'5'
aa(lp58
S'det'
p59
aS'8'
aS'7'
aa(lp60
S'prep_of'
p61
aS'5'
aS'8'
aa(lp62
S'root'
p63
aS'0'
aS'9'
aa(lp64
S'dobj'
p65
aS'9'
aS'10'
p66
aasS'srls'
p67
(lp68
(dp69
S'A1'
p70
g34
sS'A2'
p71
S'Plant cultivar Cultivated Variety Name of the cultivar'
p72
sS'V'
g33
sasS'pos_seq'
p73
(lp74
S'NN'
p75
aS'NN'
p76
aS'NNP'
p77
aS'NNP'
p78
aS'NNP'
p79
aS'IN'
p80
aS'DT'
p81
aS'NN'
p82
aS'VBN'
p83
aS'NN'
p84
asS'ner_seq'
p85
(lp86
S'O'
aS'O'
aS'O'
aS'O'
aS'O'
aS'O'
aS'O'
aS'O'
aS'O'
aS'O'
assb.