ccopy_reg
_reconstructor
p1
(c__main__
KBproperty
p2
c__builtin__
object
p3
NtRp4
(dp5
S'comment'
p6
S'Default serving size eg "100 g" for the standard 100 g serving size. approximateCalories apply to this serving size5151'
p7
sS'domain'
p8
S'Food '
p9
sS'instances_count'
p10
I7
sS'phrases'
p11
NsS'syn_hypo'
p12
S''
sS'label'
p13
S'serving size g'
p14
sS'range'
p15
S'double '
p16
sS'uniq_subjs'
p17
S'7'
sS'uniq_objs'
p18
I0
sS'prop_uri'
p19
S'http://dbpedia.org/ontology/servingSize'
p20
sS'annotations'
p21
(dp22
S'bag_of_words'
p23
(lp24
S'Food'
p25
aS'serving'
p26
aS'size'
p27
aS'g'
aS'double'
p28
aS'Default'
p29
aS'serving'
p30
aS'size'
p31
aS'eg'
p32
aS'"'
aS'100'
p33
aS'g'
aS'"'
aS'for'
p34
aS'the'
p35
aS'standard'
p36
aS'100'
p37
aS'g'
aS'serving'
p38
aS'size'
p39
aS'.'
aS'approximateCalories'
p40
aS'apply'
p41
aS'to'
p42
aS'this'
p43
aS'serving'
p44
aS'size5151'
p45
asS'chunk_seq'
p46
(lp47
S'B-NP'
p48
aS'I-NP'
p49
aS'I-NP'
p50
aS'I-NP'
p51
aS'I-NP'
p52
aS'E-NP'
p53
aS'S-VP'
p54
aS'B-NP'
p55
aS'E-NP'
p56
aS'B-NP'
p57
aS'I-NP'
p58
aS'I-NP'
p59
aS'E-NP'
p60
aS'S-PP'
p61
aS'B-NP'
p62
aS'I-NP'
p63
aS'I-NP'
p64
aS'E-NP'
p65
aS'S-VP'
p66
aS'S-NP'
p67
aS'O'
aS'S-NP'
p68
aS'S-VP'
p69
aS'S-PP'
p70
aS'B-NP'
p71
aS'I-NP'
p72
aS'E-NP'
p73
asS'dep_seq'
p74
(lp75
(lp76
S'nn'
p77
aS'8'
aS'1'
aa(lp78
S'amod'
p79
aS'8'
aS'2'
aa(lp80
S'nn'
p81
aS'8'
aS'3'
aa(lp82
S'nn'
p83
aS'8'
aS'4'
aa(lp84
S'amod'
p85
aS'8'
aS'5'
aa(lp86
S'nn'
p87
aS'8'
aS'6'
aa(lp88
S'amod'
p89
aS'8'
aS'7'
aa(lp90
S'nsubj'
p91
aS'23'
p92
aS'8'
aa(lp93
S'nn'
p94
aS'8'
aS'9'
aa(lp95
S'nn'
p96
aS'8'
aS'10'
p97
aa(lp98
S'nn'
p99
aS'8'
aS'11'
p100
aa(lp101
S'nn'
p102
aS'8'
aS'12'
p103
aa(lp104
S'dep'
p105
aS'8'
aS'13'
p106
aa(lp107
S'det'
p108
aS'20'
p109
aS'15'
p110
aa(lp111
S'amod'
p112
aS'20'
p113
aS'16'
p114
aa(lp115
S'num'
p116
aS'20'
p117
aS'17'
p118
aa(lp119
S'nn'
p120
aS'20'
p121
aS'18'
p122
aa(lp123
S'amod'
p124
aS'20'
p125
aS'19'
p126
aa(lp127
S'prep_for'
p128
aS'8'
aS'20'
p129
aa(lp130
S'dep'
p131
aS'8'
aS'22'
p132
aa(lp133
S'root'
p134
aS'0'
aS'23'
p135
aa(lp136
S'nsubj'
p137
aS'26'
p138
aS'25'
p139
aa(lp140
S'prepc_to'
p141
aS'23'
p142
aS'26'
p143
aa(lp144
S'dobj'
p145
aS'26'
p146
aS'27'
p147
aasS'srls'
p148
(lp149
(dp150
S'A0'
p151
g25
sS'A2'
p152
S'size g double Default'
p153
sS'V'
g26
sa(dp154
S'A1'
p155
g31
sS'A0'
p156
S'Food serving size g double Default'
p157
sS'C-A0'
p158
S'eg " 100 g " for the standard 100 g serving size'
p159
sS'V'
g30
sa(dp160
S'A0'
p161
S'the standard 100 g'
p162
sS'A2'
p163
g39
sS'V'
g38
sa(dp164
S'A0'
p165
g40
sS'A2'
p166
S'to this serving size5151'
p167
sS'V'
g41
sa(dp168
S'A0'
p169
S'approximateCalories size5151'
p170
sS'V'
g44
sasS'pos_seq'
p171
(lp172
S'NN'
p173
aS'VBG'
p174
aS'NN'
p175
aS'NN'
p176
aS'JJ'
p177
aS'NN'
p178
aS'VBG'
p179
aS'NN'
p180
aS'FW'
p181
aS'FW'
p182
aS'FW'
p183
aS'FW'
p184
aS'FW'
p185
aS'IN'
p186
aS'DT'
p187
aS'JJ'
p188
aS'CD'
p189
aS'NN'
p190
aS'VBG'
p191
aS'NN'
p192
aS'.'
aS'NNS'
p193
aS'VBP'
p194
aS'TO'
p195
aS'DT'
p196
aS'VBG'
p197
aS'NN'
p198
asS'ner_seq'
p199
(lp200
S'O'
aS'O'
aS'O'
aS'O'
aS'O'
aS'O'
aS'O'
aS'O'
aS'O'
aS'O'
aS'O'
aS'O'
aS'O'
aS'O'
aS'O'
aS'O'
aS'O'
aS'O'
aS'O'
aS'O'
aS'O'
aS'O'
aS'O'
aS'O'
aS'O'
aS'O'
aS'O'
assb.