ccopy_reg
_reconstructor
p1
(c__main__
KBproperty
p2
c__builtin__
object
p3
NtRp4
(dp5
S'comment'
p6
S'area m2'
p7
sS'domain'
p8
S''
sS'instances_count'
p9
I10751
sS'phrases'
p10
NsS'syn_hypo'
p11
S''
sS'label'
p12
g7
sS'range'
p13
S'double '
p14
sS'uniq_subjs'
p15
S'10751'
p16
sS'uniq_objs'
p17
I0
sS'prop_uri'
p18
S'http://dbpedia.org/ontology/area'
p19
sS'annotations'
p20
(dp21
S'bag_of_words'
p22
(lp23
S'area'
p24
aS'double'
p25
aS'area'
p26
aS'm2'
p27
asS'chunk_seq'
p28
(lp29
S'B-NP'
p30
aS'I-NP'
p31
aS'E-NP'
p32
aS'S-ADJP'
p33
asS'dep_seq'
p34
(lp35
(lp36
S'nn'
p37
aS'3'
aS'1'
aa(lp38
S'amod'
p39
aS'3'
aS'2'
aa(lp40
S'root'
p41
aS'0'
aS'3'
aa(lp42
S'punct'
p43
aS'3'
aS'4'
aasS'srls'
p44
(lp45
sS'pos_seq'
p46
(lp47
S'NN'
p48
aS'JJ'
p49
aS'NN'
p50
aS'.'
asS'ner_seq'
p51
(lp52
S'O'
aS'O'
aS'O'
aS'O'
assb.