ccopy_reg
_reconstructor
p1
(c__main__
KBproperty
p2
c__builtin__
object
p3
NtRp4
(dp5
S'comment'
p6
S'An identifying system for scientific authors. The system was introduced in January 2008 by Thomson Reuters. The combined use of the Digital Object Identifier with the ResearcherID allows for a unique association of authors and scientific articles.00'
p7
sS'domain'
p8
S''
sS'instances_count'
p9
I0
sS'phrases'
p10
NsS'syn_hypo'
p11
S''
sS'label'
p12
S'RID Id'
p13
sS'range'
p14
S'string '
p15
sS'uniq_subjs'
p16
S'0'
sS'uniq_objs'
p17
I0
sS'prop_uri'
p18
S'http://dbpedia.org/ontology/ridId'
p19
sS'annotations'
p20
(dp21
S'bag_of_words'
p22
(lp23
S'RID'
p24
aS'Id'
p25
aS'string'
p26
aS'An'
p27
aS'identifying'
p28
aS'system'
p29
aS'for'
p30
aS'scientific'
p31
aS'authors'
p32
aS'.'
aS'The'
p33
aS'system'
p34
aS'was'
p35
aS'introduced'
p36
aS'in'
p37
aS'January'
p38
aS'2008'
p39
aS'by'
p40
aS'Thomson'
p41
aS'Reuters'
p42
aS'.'
aS'The'
p43
aS'combined'
p44
aS'use'
p45
aS'of'
p46
aS'the'
p47
aS'Digital'
p48
aS'Object'
p49
aS'Identifier'
p50
aS'with'
p51
aS'the'
p52
aS'ResearcherID'
p53
aS'allows'
p54
aS'for'
p55
aS'a'
aS'unique'
p56
aS'association'
p57
aS'of'
p58
aS'authors'
p59
aS'and'
p60
aS'scientific'
p61
aS'articles.00'
p62
asS'chunk_seq'
p63
(lp64
S'S-VP'
p65
aS'B-NP'
p66
aS'E-NP'
p67
aS'B-NP'
p68
aS'I-NP'
p69
aS'E-NP'
p70
aS'S-PP'
p71
aS'B-NP'
p72
aS'E-NP'
p73
aS'O'
aS'B-NP'
p74
aS'E-NP'
p75
aS'B-VP'
p76
aS'E-VP'
p77
aS'S-PP'
p78
aS'B-NP'
p79
aS'E-NP'
p80
aS'S-PP'
p81
aS'B-NP'
p82
aS'E-NP'
p83
aS'O'
aS'B-NP'
p84
aS'I-NP'
p85
aS'E-NP'
p86
aS'S-PP'
p87
aS'B-NP'
p88
aS'I-NP'
p89
aS'I-NP'
p90
aS'E-NP'
p91
aS'S-PP'
p92
aS'B-NP'
p93
aS'E-NP'
p94
aS'S-VP'
p95
aS'S-PP'
p96
aS'B-NP'
p97
aS'I-NP'
p98
aS'E-NP'
p99
aS'S-PP'
p100
aS'S-NP'
p101
aS'O'
aS'B-NP'
p102
aS'E-NP'
p103
asS'dep_seq'
p104
(lp105
(lp106
S'root'
p107
aS'0'
aS'1'
aa(lp108
S'nn'
p109
aS'3'
aS'2'
aa(lp110
S'iobj'
p111
aS'1'
aS'3'
aa(lp112
S'det'
p113
aS'6'
aS'4'
aa(lp114
S'amod'
p115
aS'6'
aS'5'
aa(lp116
S'dobj'
p117
aS'1'
aS'6'
aa(lp118
S'amod'
p119
aS'9'
aS'8'
aa(lp120
S'prep_for'
p121
aS'1'
aS'9'
aa(lp122
S'det'
p123
aS'12'
p124
aS'11'
p125
aa(lp126
S'nsubj'
p127
aS'1'
aS'12'
p128
aa(lp129
S'dep'
p130
aS'1'
aS'13'
p131
aa(lp132
S'dep'
p133
aS'1'
aS'14'
p134
aa(lp135
S'prep_in'
p136
aS'1'
aS'16'
p137
aa(lp138
S'num'
p139
aS'16'
p140
aS'17'
p141
aa(lp142
S'dep'
p143
aS'1'
aS'18'
p144
aa(lp145
S'nn'
p146
aS'20'
p147
aS'19'
p148
aa(lp149
S'nsubj'
p150
aS'1'
aS'20'
p151
aa(lp152
S'det'
p153
aS'24'
p154
aS'22'
p155
aa(lp156
S'amod'
p157
aS'24'
p158
aS'23'
p159
aa(lp160
S'nsubj'
p161
aS'1'
aS'24'
p162
aa(lp163
S'det'
p164
aS'29'
p165
aS'26'
p166
aa(lp167
S'nn'
p168
aS'29'
p169
aS'27'
p170
aa(lp171
S'nn'
p172
aS'29'
p173
aS'28'
p174
aa(lp175
S'prep_of'
p176
aS'24'
p177
aS'29'
p178
aa(lp179
S'det'
p180
aS'32'
p181
aS'31'
p182
aa(lp183
S'prep_with'
p184
aS'24'
p185
aS'32'
p186
aa(lp187
S'dep'
p188
aS'1'
aS'33'
p189
aa(lp190
S'det'
p191
aS'37'
p192
aS'35'
p193
aa(lp194
S'amod'
p195
aS'37'
p196
aS'36'
p197
aa(lp198
S'prep_for'
p199
aS'33'
p200
aS'37'
p201
aa(lp202
S'prep_of'
p203
aS'37'
p204
aS'39'
p205
aa(lp206
S'amod'
p207
aS'42'
p208
aS'41'
p209
aa(lp210
S'conj_and'
p211
aS'37'
p212
aS'42'
p213
aasS'srls'
p214
(lp215
(dp216
S'A1'
p217
S'Id string An identifying system for scientific authors'
p218
sS'V'
g24
sa(dp219
S'A0'
p220
g29
sS'V'
g28
sa(dp221
S'A1'
p222
S'The system'
p223
sS'A0'
p224
S'by Thomson Reuters'
p225
sS'AM-TMP'
p226
S'in January 2008'
p227
sS'V'
g36
sa(dp228
S'A3'
p229
g45
sS'V'
g44
sa(dp230
S'A1'
p231
S'for a unique association of authors and scientific articles.00'
p232
sS'A0'
p233
S'the ResearcherID'
p234
sS'V'
g54
sasS'pos_seq'
p235
(lp236
S'VB'
p237
aS'NN'
p238
aS'NN'
p239
aS'DT'
p240
aS'VBG'
p241
aS'NN'
p242
aS'IN'
p243
aS'JJ'
p244
aS'NNS'
p245
aS'.'
aS'DT'
p246
aS'NN'
p247
aS'VBD'
p248
aS'VBN'
p249
aS'IN'
p250
aS'NNP'
p251
aS'CD'
p252
aS'IN'
p253
aS'NNP'
p254
aS'NNP'
p255
aS'.'
aS'DT'
p256
aS'JJ'
p257
aS'NN'
p258
aS'IN'
p259
aS'DT'
p260
aS'NNP'
p261
aS'NNP'
p262
aS'NNP'
p263
aS'IN'
p264
aS'DT'
p265
aS'NNP'
p266
aS'VBZ'
p267
aS'IN'
p268
aS'DT'
p269
aS'JJ'
p270
aS'NN'
p271
aS'IN'
p272
aS'NNS'
p273
aS'CC'
p274
aS'JJ'
p275
aS'NN'
p276
asS'ner_seq'
p277
(lp278
S'O'
aS'O'
aS'O'
aS'O'
aS'O'
aS'O'
aS'O'
aS'O'
aS'O'
aS'O'
aS'O'
aS'O'
aS'O'
aS'O'
aS'O'
aS'O'
aS'O'
aS'O'
aS'B-ORG'
p279
aS'E-ORG'
p280
aS'O'
aS'O'
aS'O'
aS'O'
aS'O'
aS'O'
aS'B-MISC'
p281
aS'I-MISC'
p282
aS'E-MISC'
p283
aS'O'
aS'O'
aS'S-MISC'
p284
aS'O'
aS'O'
aS'O'
aS'O'
aS'O'
aS'O'
aS'O'
aS'O'
aS'O'
aS'O'
assb.