ccopy_reg
_reconstructor
p1
(c__main__
KBproperty
p2
c__builtin__
object
p3
NtRp4
(dp5
S'comment'
p6
S'161160'
p7
sS'domain'
p8
S'Volleyball Player '
p9
sS'instances_count'
p10
I102
sS'phrases'
p11
NsS'syn_hypo'
p12
Vanvilblockbriquetteblockbriquetblockcakeblockbarblockchockblockwedgeblockchopping_blockblockcrossheadblockcubeblocksquare_blockblockdominoblockingotblockmetal_barblockblock_of_metalblocknogblocknutblockpadblockinkpadblockinking_padblockstamp_padblockslabblockstarting_blockblockstepblockswage_blockblocktype
p13
sS'label'
p14
S'block'
p15
sS'range'
p16
S'string '
p17
sS'uniq_subjs'
p18
S'102'
p19
sS'uniq_objs'
p20
I0
sS'prop_uri'
p21
S'http://dbpedia.org/ontology/block'
p22
sS'annotations'
p23
(dp24
S'bag_of_words'
p25
(lp26
S'Volleyball'
p27
aS'Player'
p28
aS'block'
p29
aS'string'
p30
aS'161160'
p31
asS'chunk_seq'
p32
(lp33
S'B-NP'
p34
aS'E-NP'
p35
aS'S-VP'
p36
aS'B-NP'
p37
aS'E-NP'
p38
asS'dep_seq'
p39
(lp40
(lp41
S'nn'
p42
aS'4'
aS'1'
aa(lp43
S'nn'
p44
aS'4'
aS'2'
aa(lp45
S'dep'
p46
aS'4'
aS'3'
aa(lp47
S'root'
p48
aS'0'
aS'4'
aa(lp49
S'advmod'
p50
aS'4'
aS'5'
aasS'srls'
p51
(lp52
(dp53
S'A1'
p54
S'string 161160'
p55
sS'A0'
p56
S'Volleyball Player'
p57
sS'V'
g29
sasS'pos_seq'
p58
(lp59
S'NNP'
p60
aS'NNP'
p61
aS'VBP'
p62
aS'NN'
p63
aS'CD'
p64
asS'ner_seq'
p65
(lp66
S'O'
aS'O'
aS'O'
aS'O'
aS'O'
assb.