ccopy_reg
_reconstructor
p1
(c__main__
KBproperty
p2
c__builtin__
object
p3
NtRp4
(dp5
S'comment'
p6
S'This property holds an intermediate node of the type Sales.1904218'
p7
sS'domain'
p8
S''
sS'instances_count'
p9
I1904
sS'phrases'
p10
NsS'syn_hypo'
p11
V
sS'label'
p12
S'sales'
p13
sS'range'
p14
S'Sales '
p15
sS'uniq_subjs'
p16
S'1904'
p17
sS'uniq_objs'
p18
I0
sS'prop_uri'
p19
S'http://dbpedia.org/ontology/sales'
p20
sS'annotations'
p21
(dp22
S'bag_of_words'
p23
(lp24
S'sales'
p25
aS'Sales'
p26
aS'This'
p27
aS'property'
p28
aS'holds'
p29
aS'an'
p30
aS'intermediate'
p31
aS'node'
p32
aS'of'
p33
aS'the'
p34
aS'type'
p35
aS'Sales.1904218'
p36
asS'chunk_seq'
p37
(lp38
S'B-NP'
p39
aS'E-NP'
p40
aS'B-NP'
p41
aS'E-NP'
p42
aS'S-VP'
p43
aS'B-NP'
p44
aS'I-NP'
p45
aS'E-NP'
p46
aS'S-PP'
p47
aS'B-NP'
p48
aS'I-NP'
p49
aS'E-NP'
p50
asS'dep_seq'
p51
(lp52
(lp53
S'nn'
p54
aS'4'
aS'1'
aa(lp55
S'nn'
p56
aS'4'
aS'2'
aa(lp57
S'det'
p58
aS'4'
aS'3'
aa(lp59
S'nsubj'
p60
aS'5'
aS'4'
aa(lp61
S'root'
p62
aS'0'
aS'5'
aa(lp63
S'det'
p64
aS'8'
aS'6'
aa(lp65
S'amod'
p66
aS'8'
aS'7'
aa(lp67
S'dobj'
p68
aS'5'
aS'8'
aa(lp69
S'det'
p70
aS'11'
p71
aS'10'
p72
aa(lp73
S'prep_of'
p74
aS'8'
aS'11'
p75
aa(lp76
S'dep'
p77
aS'11'
p78
aS'12'
p79
aasS'srls'
p80
(lp81
(dp82
S'A1'
p83
S'an intermediate node of the type Sales.1904218'
p84
sS'A0'
p85
S'sales Sales This property'
p86
sS'V'
g29
sasS'pos_seq'
p87
(lp88
S'NNS'
p89
aS'NNS'
p90
aS'DT'
p91
aS'NN'
p92
aS'VBZ'
p93
aS'DT'
p94
aS'JJ'
p95
aS'NN'
p96
aS'IN'
p97
aS'DT'
p98
aS'NN'
p99
aS'NNP'
p100
asS'ner_seq'
p101
(lp102
S'O'
aS'O'
aS'O'
aS'O'
aS'O'
aS'O'
aS'O'
aS'O'
aS'O'
aS'O'
aS'O'
aS'S-PER'
p103
assb.