ccopy_reg
_reconstructor
p1
(c__main__
KBproperty
p2
c__builtin__
object
p3
NtRp4
(dp5
S'comment'
p6
S'A person who learns from another especially one who then teaches others..00'
p7
sS'domain'
p8
S'Artist '
p9
sS'instances_count'
p10
I0
sS'phrases'
p11
NsS'syn_hypo'
p12
VabsolutistdiscipleadherentamoralistdiscipleadherentanimistdiscipleadherentantinomiandiscipleadherentApostlediscipleadherentAristoteliandiscipleadherentAristoteleandiscipleadherentPeripateticdiscipleadherentArminiandiscipleadherentBahaidiscipleadherentclericalistdiscipleadherentDonatistdiscipleadherentDruzediscipleadherentDrusediscipleadherentdualistdiscipleadherentHinayanistdiscipleadherentHussitediscipleadherentIsmailidiscipleadherentIsmailiandiscipleadherentJainistdiscipleadherentLamaistdiscipleadherentLutherandiscipleadherentMahayanistdiscipleadherentMahdistdiscipleadherentManichaeandiscipleadherentManicheandiscipleadherentManicheediscipleadherentMithraistdiscipleadherentMonophysitediscipleadherentNeoplatonistdiscipleadherentRastafariandiscipleadherentRastadiscipleadherentSatanistdiscipleadherentdiabolistdiscipleadherentShintoistdiscipleadherentSikhdiscipleadherentSociniandiscipleadherentTantristdiscipleadherentTaoistdiscipleadherentTaodiscipleadherenttotalitariandiscipleadherentTrinitariandiscipleadherentUnitariandiscipleadherentvotarydiscipleadherentZen_BuddhistdiscipleadherentZoroastrian
p13
sS'label'
p14
S'disciple'
p15
sS'range'
p16
S'Artist '
p17
sS'uniq_subjs'
p18
S'0'
sS'uniq_objs'
p19
I0
sS'prop_uri'
p20
S'http://dbpedia.org/ontology/disciple'
p21
sS'annotations'
p22
(dp23
S'bag_of_words'
p24
(lp25
S'Artist'
p26
aS'disciple'
p27
aS'Artist'
p28
aS'A'
aS'person'
p29
aS'who'
p30
aS'learns'
p31
aS'from'
p32
aS'another'
p33
aS'especially'
p34
aS'one'
p35
aS'who'
p36
aS'then'
p37
aS'teaches'
p38
aS'others.'
p39
aS'.00'
p40
asS'chunk_seq'
p41
(lp42
S'B-NP'
p43
aS'I-NP'
p44
aS'E-NP'
p45
aS'B-NP'
p46
aS'E-NP'
p47
aS'S-NP'
p48
aS'S-VP'
p49
aS'S-PP'
p50
aS'B-NP'
p51
aS'I-NP'
p52
aS'E-NP'
p53
aS'S-NP'
p54
aS'S-ADVP'
p55
aS'S-VP'
p56
aS'S-NP'
p57
aS'O'
asS'dep_seq'
p58
(lp59
(lp60
S'nn'
p61
aS'3'
aS'1'
aa(lp62
S'nn'
p63
aS'3'
aS'2'
aa(lp64
S'dep'
p65
aS'5'
aS'3'
aa(lp66
S'nn'
p67
aS'5'
aS'4'
aa(lp68
S'root'
p69
aS'0'
aS'5'
aa(lp70
S'nsubj'
p71
aS'7'
aS'5'
aa(lp72
S'rcmod'
p73
aS'5'
aS'7'
aa(lp74
S'det'
p75
aS'11'
p76
aS'9'
aa(lp77
S'advmod'
p78
aS'11'
p79
aS'10'
p80
aa(lp81
S'prep_from'
p82
aS'7'
aS'11'
p83
aa(lp84
S'nsubj'
p85
aS'14'
p86
aS'11'
p87
aa(lp88
S'advmod'
p89
aS'14'
p90
aS'13'
p91
aa(lp92
S'rcmod'
p93
aS'11'
p94
aS'14'
p95
aa(lp96
S'dobj'
p97
aS'14'
p98
aS'15'
p99
aa(lp100
S'iobj'
p101
aS'14'
p102
aS'15'
p103
aa(lp104
S'dobj'
p105
aS'14'
p106
aS'16'
p107
aa(lp108
S'dep'
p109
aS'15'
p110
aS'16'
p111
aasS'srls'
p112
(lp113
(dp114
S'A1'
p115
S'from another especially one who then teaches others. .00'
p116
sS'A0'
p117
S'A person'
p118
sS'R-A0'
p119
g30
sS'V'
g31
sa(dp120
S'A1'
p121
g39
sS'A0'
p122
S'another especially one'
p123
sS'V'
g38
sS'R-A0'
p124
g36
sS'AM-TMP'
p125
S'then .00'
p126
sasS'pos_seq'
p127
(lp128
S'NN'
p129
aS'NN'
p130
aS'NNP'
p131
aS'NNP'
p132
aS'NN'
p133
aS'WP'
p134
aS'VBZ'
p135
aS'IN'
p136
aS'DT'
p137
aS'RB'
p138
aS'NN'
p139
aS'WP'
p140
aS'RB'
p141
aS'VBZ'
p142
aS'NNS'
p143
aS'CD'
p144
asS'ner_seq'
p145
(lp146
S'O'
aS'O'
aS'O'
aS'O'
aS'O'
aS'O'
aS'O'
aS'O'
aS'O'
aS'O'
aS'O'
aS'O'
aS'O'
aS'O'
aS'O'
aS'O'
assb.