ccopy_reg
_reconstructor
p1
(c__main__
KBproperty
p2
c__builtin__
object
p3
NtRp4
(dp5
S'comment'
p6
S'65'
p7
sS'domain'
p8
S'Locomotive '
p9
sS'instances_count'
p10
I5
sS'phrases'
p11
NsS'syn_hypo'
p12
S''
sS'label'
p13
S'boiler pressure'
p14
sS'range'
p15
S''
sS'uniq_subjs'
p16
S'5'
sS'uniq_objs'
p17
I0
sS'prop_uri'
p18
S'http://dbpedia.org/ontology/boilerPressure'
p19
sS'annotations'
p20
(dp21
S'bag_of_words'
p22
(lp23
S'Locomotive'
p24
aS'boiler'
p25
aS'pressure'
p26
aS'65'
p27
asS'chunk_seq'
p28
(lp29
S'B-NP'
p30
aS'I-NP'
p31
aS'E-NP'
p32
aS'S-ADJP'
p33
asS'dep_seq'
p34
(lp35
(lp36
S'nn'
p37
aS'3'
aS'1'
aa(lp38
S'nn'
p39
aS'3'
aS'2'
aa(lp40
S'root'
p41
aS'0'
aS'3'
aa(lp42
S'punct'
p43
aS'3'
aS'4'
aasS'srls'
p44
(lp45
sS'pos_seq'
p46
(lp47
S'NN'
p48
aS'NN'
p49
aS'NN'
p50
aS'.'
asS'ner_seq'
p51
(lp52
S'O'
aS'O'
aS'O'
aS'O'
assb.