ccopy_reg
_reconstructor
p1
(c__main__
KBproperty
p2
c__builtin__
object
p3
NtRp4
(dp5
S'comment'
p6
S'when or in which project the person was selected to train as an astronaut582578'
p7
sS'domain'
p8
S'Astronaut '
p9
sS'instances_count'
p10
I15
sS'phrases'
p11
NsS'syn_hypo'
p12
Vcastingchoiceselectionoptionpickcolorationchoiceselectionoptionpickcolourationchoiceselectionoptionpickdecisionchoiceselectionoptionpickdeterminationchoiceselectionoptionpickconclusionchoiceselectionoptionpickelectionchoiceselectionoptionpicksamplingchoiceselectionoptionpickvolitionchoiceselectionoptionpickwillingchoiceselectionoptionpickvotechoiceselectionoptionpickballotchoiceselectionoptionpickvotingchoiceselectionoptionpickballoting
p13
sS'label'
p14
S'selection'
p15
sS'range'
p16
S''
sS'uniq_subjs'
p17
S'15'
p18
sS'uniq_objs'
p19
I0
sS'prop_uri'
p20
S'http://dbpedia.org/ontology/selection'
p21
sS'annotations'
p22
(dp23
S'bag_of_words'
p24
(lp25
S'Astronaut'
p26
aS'selection'
p27
aS'when'
p28
aS'or'
p29
aS'in'
p30
aS'which'
p31
aS'project'
p32
aS'the'
p33
aS'person'
p34
aS'was'
p35
aS'selected'
p36
aS'to'
p37
aS'train'
p38
aS'as'
p39
aS'an'
p40
aS'astronaut582578'
p41
asS'chunk_seq'
p42
(lp43
S'B-NP'
p44
aS'E-NP'
p45
aS'S-ADVP'
p46
aS'O'
aS'S-PP'
p47
aS'B-NP'
p48
aS'E-NP'
p49
aS'B-NP'
p50
aS'E-NP'
p51
aS'B-VP'
p52
aS'I-VP'
p53
aS'I-VP'
p54
aS'E-VP'
p55
aS'S-PP'
p56
aS'B-NP'
p57
aS'E-NP'
p58
asS'dep_seq'
p59
(lp60
(lp61
S'nn'
p62
aS'2'
aS'1'
aa(lp63
S'dep'
p64
aS'12'
p65
aS'2'
aa(lp66
S'advmod'
p67
aS'12'
p68
aS'3'
aa(lp69
S'conj_or'
p70
aS'12'
p71
aS'5'
aa(lp72
S'det'
p73
aS'7'
aS'6'
aa(lp74
S'pobj'
p75
aS'5'
aS'7'
aa(lp76
S'det'
p77
aS'9'
aS'8'
aa(lp78
S'dep'
p79
aS'12'
p80
aS'9'
aa(lp81
S'dep'
p82
aS'12'
p83
aS'10'
p84
aa(lp85
S'dep'
p86
aS'12'
p87
aS'11'
p88
aa(lp89
S'root'
p90
aS'0'
aS'12'
p91
aa(lp92
S'dep'
p93
aS'12'
p94
aS'13'
p95
aa(lp96
S'dep'
p97
aS'12'
p98
aS'14'
p99
aa(lp100
S'det'
p101
aS'16'
p102
aS'15'
p103
aa(lp104
S'pobj'
p105
aS'14'
p106
aS'16'
p107
aasS'srls'
p108
(lp109
(dp110
S'A1'
p111
S'Astronaut selection when or in which project the person'
p112
sS'A3'
p113
S'to train as an astronaut582578'
p114
sS'V'
g36
sa(dp115
S'A1'
p116
S'Astronaut selection when or in which project the person'
p117
sS'A2'
p118
S'as an astronaut582578'
p119
sS'V'
g38
sasS'pos_seq'
p120
(lp121
S'NN'
p122
aS'NN'
p123
aS'WRB'
p124
aS'CC'
p125
aS'IN'
p126
aS'WDT'
p127
aS'NN'
p128
aS'DT'
p129
aS'NN'
p130
aS'VBD'
p131
aS'VBN'
p132
aS'TO'
p133
aS'VB'
p134
aS'IN'
p135
aS'DT'
p136
aS'NN'
p137
asS'ner_seq'
p138
(lp139
S'O'
aS'O'
aS'O'
aS'O'
aS'O'
aS'O'
aS'O'
aS'O'
aS'O'
aS'O'
aS'O'
aS'O'
aS'O'
aS'O'
aS'O'
aS'O'
assb.