ccopy_reg
_reconstructor
p1
(c__main__
KBproperty
p2
c__builtin__
object
p3
NtRp4
(dp5
S'comment'
p6
S'Syst\\xc3\\xa8me universitaire de documentation id French collaborative library catalog.\\nhttp://www.idref.fr/$15858'
p7
sS'domain'
p8
S''
sS'instances_count'
p9
I58
sS'phrases'
p10
NsS'syn_hypo'
p11
S''
sS'label'
p12
S'SUDOC id'
p13
sS'range'
p14
S'string '
p15
sS'uniq_subjs'
p16
S'58'
p17
sS'uniq_objs'
p18
I0
sS'prop_uri'
p19
S'http://dbpedia.org/ontology/sudocId'
p20
sS'annotations'
p21
(dp22
S'bag_of_words'
p23
(lp24
S'SUDOC'
p25
aS'id'
p26
aS'string'
p27
aS'Syst'
p28
aS'\\'
aS'xc3'
p29
aS'\\'
aS'xa8me'
p30
aS'universitaire'
p31
aS'de'
p32
aS'documentation'
p33
aS'id'
p34
aS'French'
p35
aS'collaborative'
p36
aS'library'
p37
aS'catalog'
p38
aS'.'
aS'\\'
aS'nhttp'
p39
aS':'
aS'//'
p40
aS'www'
p41
aS'.'
aS'idref'
p42
aS'.'
aS'fr'
p43
aS'/'
aS'$'
aS'15858'
p44
asS'chunk_seq'
p45
(lp46
S'B-NP'
p47
aS'I-NP'
p48
aS'E-NP'
p49
aS'O'
aS'O'
aS'O'
aS'O'
aS'O'
aS'B-NP'
p50
aS'I-NP'
p51
aS'I-NP'
p52
aS'I-NP'
p53
aS'I-NP'
p54
aS'I-NP'
p55
aS'I-NP'
p56
aS'E-NP'
p57
aS'O'
aS'O'
aS'O'
aS'O'
aS'B-NP'
p58
aS'I-NP'
p59
aS'I-NP'
p60
aS'I-NP'
p61
aS'I-NP'
p62
aS'E-NP'
p63
aS'O'
aS'B-NP'
p64
aS'E-NP'
p65
asS'dep_seq'
p66
(lp67
(lp68
S'nn'
p69
aS'3'
aS'1'
aa(lp70
S'nn'
p71
aS'3'
aS'2'
aa(lp72
S'root'
p73
aS'0'
aS'3'
aa(lp74
S'advmod'
p75
aS'3'
aS'4'
aa(lp76
S'dep'
p77
aS'3'
aS'5'
aa(lp78
S'nn'
p79
aS'19'
p80
aS'6'
aa(lp81
S'nn'
p82
aS'19'
p83
aS'7'
aa(lp84
S'nn'
p85
aS'19'
p86
aS'8'
aa(lp87
S'nn'
p88
aS'19'
p89
aS'9'
aa(lp90
S'nn'
p91
aS'19'
p92
aS'10'
p93
aa(lp94
S'nn'
p95
aS'19'
p96
aS'11'
p97
aa(lp98
S'nn'
p99
aS'19'
p100
aS'12'
p101
aa(lp102
S'amod'
p103
aS'19'
p104
aS'13'
p105
aa(lp106
S'amod'
p107
aS'19'
p108
aS'14'
p109
aa(lp110
S'nn'
p111
aS'19'
p112
aS'15'
p113
aa(lp114
S'nn'
p115
aS'19'
p116
aS'16'
p117
aa(lp118
S'punct'
p119
aS'19'
p120
aS'18'
p121
aa(lp122
S'dep'
p123
aS'3'
aS'19'
p124
aa(lp125
S'nn'
p126
aS'26'
p127
aS'21'
p128
aa(lp129
S'nn'
p130
aS'26'
p131
aS'22'
p132
aa(lp133
S'amod'
p134
aS'26'
p135
aS'24'
p136
aa(lp137
S'dep'
p138
aS'3'
aS'26'
p139
aa(lp140
S'punct'
p141
aS'3'
aS'27'
p142
aa(lp143
S'dep'
p144
aS'3'
aS'28'
p145
aa(lp146
S'num'
p147
aS'28'
p148
aS'29'
p149
aasS'srls'
p150
(lp151
sS'pos_seq'
p152
(lp153
S'NNP'
p154
aS'NN'
p155
aS'NN'
p156
aS'FW'
p157
aS'FW'
p158
aS'FW'
p159
aS'FW'
p160
aS'FW'
p161
aS'FW'
p162
aS'FW'
p163
aS'NN'
p164
aS'NN'
p165
aS'JJ'
p166
aS'JJ'
p167
aS'NN'
p168
aS'NN'
p169
aS'.'
aS'-RRB-'
p170
aS'NN'
p171
aS':'
aS'NN'
p172
aS'NN'
p173
aS'.'
aS'JJ'
p174
aS'.'
aS'NN'
p175
aS':'
aS'$'
aS'CD'
p176
asS'ner_seq'
p177
(lp178
S'S-MISC'
p179
aS'O'
aS'O'
aS'S-PER'
p180
aS'O'
aS'O'
aS'O'
aS'O'
aS'O'
aS'O'
aS'O'
aS'O'
aS'S-MISC'
p181
aS'O'
aS'O'
aS'O'
aS'O'
aS'O'
aS'O'
aS'O'
aS'O'
aS'O'
aS'O'
aS'O'
aS'O'
aS'O'
aS'O'
aS'O'
aS'O'
assb.