ccopy_reg
_reconstructor
p1
(c__main__
KBproperty
p2
c__builtin__
object
p3
NtRp4
(dp5
S'comment'
p6
S'Body that owns/operates the Place.31593111'
p7
sS'domain'
p8
S'Place '
p9
sS'instances_count'
p10
I744
sS'phrases'
p11
NsS'syn_hypo'
p12
S''
sS'label'
p13
S'governing body'
p14
sS'range'
p15
S'Organisation '
p16
sS'uniq_subjs'
p17
S'744'
p18
sS'uniq_objs'
p19
I0
sS'prop_uri'
p20
S'http://dbpedia.org/ontology/governingBody'
p21
sS'annotations'
p22
(dp23
S'bag_of_words'
p24
(lp25
S'Place'
p26
aS'governing'
p27
aS'body'
p28
aS'Organisation'
p29
aS'Body'
p30
aS'that'
p31
aS'owns'
p32
aS'/'
aS'operates'
p33
aS'the'
p34
aS'Place.31593111'
p35
asS'chunk_seq'
p36
(lp37
S'B-NP'
p38
aS'I-NP'
p39
aS'I-NP'
p40
aS'I-NP'
p41
aS'E-NP'
p42
aS'S-NP'
p43
aS'S-VP'
p44
aS'O'
aS'S-VP'
p45
aS'B-NP'
p46
aS'E-NP'
p47
asS'dep_seq'
p48
(lp49
(lp50
S'root'
p51
aS'0'
aS'1'
aa(lp52
S'partmod'
p53
aS'1'
aS'2'
aa(lp54
S'nn'
p55
aS'5'
aS'3'
aa(lp56
S'nn'
p57
aS'5'
aS'4'
aa(lp58
S'dobj'
p59
aS'2'
aS'5'
aa(lp60
S'nsubj'
p61
aS'7'
aS'6'
aa(lp62
S'dep'
p63
aS'2'
aS'7'
aa(lp64
S'punct'
p65
aS'1'
aS'8'
aa(lp66
S'dep'
p67
aS'1'
aS'9'
aa(lp68
S'det'
p69
aS'11'
p70
aS'10'
p71
aa(lp72
S'dobj'
p73
aS'9'
aS'11'
p74
aasS'srls'
p75
(lp76
(dp77
S'A1'
p78
S'body Organisation Body'
p79
sS'A0'
p80
g26
sS'V'
g27
sa(dp81
S'A0'
p82
S'body Organisation Body'
p83
sS'R-A0'
p84
g31
sS'V'
g32
sa(dp85
S'AM-ADV'
p86
S'Place governing body Organisation Body that owns /'
p87
sS'A1'
p88
S'the Place.31593111'
p89
sS'V'
g33
sasS'pos_seq'
p90
(lp91
S'NN'
p92
aS'VBG'
p93
aS'NN'
p94
aS'NNP'
p95
aS'NNP'
p96
aS'WDT'
p97
aS'VBZ'
p98
aS':'
aS'VBZ'
p99
aS'DT'
p100
aS'NNP'
p101
asS'ner_seq'
p102
(lp103
S'O'
aS'O'
aS'O'
aS'B-ORG'
p104
aS'E-ORG'
p105
aS'O'
aS'O'
aS'O'
aS'O'
aS'O'
aS'S-ORG'
p106
assb.