ccopy_reg
_reconstructor
p1
(c__main__
KBproperty
p2
c__builtin__
object
p3
NtRp4
(dp5
S'comment'
p6
S'minimum preparation time s'
p7
sS'domain'
p8
S'Food '
p9
sS'instances_count'
p10
I1
sS'phrases'
p11
NsS'syn_hypo'
p12
S''
sS'label'
p13
g7
sS'range'
p14
S'double '
p15
sS'uniq_subjs'
p16
S'1'
sS'uniq_objs'
p17
I0
sS'prop_uri'
p18
S'http://dbpedia.org/ontology/minTime'
p19
sS'annotations'
p20
(dp21
S'bag_of_words'
p22
(lp23
S'Food'
p24
aS'min'
p25
aS'Time'
p26
aS'double'
p27
aS'minimum'
p28
aS'preparation'
p29
aS'time'
p30
aS's'
asS'chunk_seq'
p31
(lp32
S'B-NP'
p33
aS'I-NP'
p34
aS'I-NP'
p35
aS'I-NP'
p36
aS'I-NP'
p37
aS'E-NP'
p38
aS'S-NP'
p39
aS'O'
asS'dep_seq'
p40
(lp41
(lp42
S'nn'
p43
aS'3'
aS'1'
aa(lp44
S'nn'
p45
aS'3'
aS'2'
aa(lp46
S'dep'
p47
aS'7'
aS'3'
aa(lp48
S'amod'
p49
aS'7'
aS'4'
aa(lp50
S'nn'
p51
aS'7'
aS'5'
aa(lp52
S'nn'
p53
aS'7'
aS'6'
aa(lp54
S'root'
p55
aS'0'
aS'7'
aa(lp56
S'punct'
p57
aS'7'
aS'8'
aasS'srls'
p58
(lp59
sS'pos_seq'
p60
(lp61
S'NN'
p62
aS'NN'
p63
aS'NNP'
p64
aS'JJ'
p65
aS'NN'
p66
aS'NN'
p67
aS'NN'
p68
aS'.'
asS'ner_seq'
p69
(lp70
S'O'
aS'O'
aS'O'
aS'O'
aS'O'
aS'O'
aS'O'
aS'O'
assb.