ccopy_reg
_reconstructor
p1
(c__main__
KBproperty
p2
c__builtin__
object
p3
NtRp4
(dp5
S'comment'
p6
S'Number of things eg vehicles sold in the US12761276'
p7
sS'domain'
p8
S'Sales '
p9
sS'instances_count'
p10
I1243
sS'phrases'
p11
NsS'syn_hypo'
p12
S''
sS'label'
p13
S'US sales'
p14
sS'range'
p15
S'non Negative Integer '
p16
sS'uniq_subjs'
p17
S'1243'
p18
sS'uniq_objs'
p19
I0
sS'prop_uri'
p20
S'http://dbpedia.org/ontology/usSales'
p21
sS'annotations'
p22
(dp23
S'bag_of_words'
p24
(lp25
S'Sales'
p26
aS'US'
p27
aS'sales'
p28
aS'non'
p29
aS'Negative'
p30
aS'Integer'
p31
aS'Number'
p32
aS'of'
p33
aS'things'
p34
aS'eg'
p35
aS'vehicles'
p36
aS'sold'
p37
aS'in'
p38
aS'the'
p39
aS'US12761276'
p40
asS'chunk_seq'
p41
(lp42
S'S-NP'
p43
aS'B-NP'
p44
aS'E-NP'
p45
aS'B-NP'
p46
aS'I-NP'
p47
aS'I-NP'
p48
aS'E-NP'
p49
aS'S-PP'
p50
aS'S-NP'
p51
aS'B-NP'
p52
aS'E-NP'
p53
aS'S-VP'
p54
aS'S-PP'
p55
aS'B-NP'
p56
aS'E-NP'
p57
asS'dep_seq'
p58
(lp59
(lp60
S'nsubj'
p61
aS'3'
aS'1'
aa(lp62
S'dep'
p63
aS'3'
aS'2'
aa(lp64
S'root'
p65
aS'0'
aS'3'
aa(lp66
S'advmod'
p67
aS'5'
aS'4'
aa(lp68
S'amod'
p69
aS'7'
aS'5'
aa(lp70
S'nn'
p71
aS'7'
aS'6'
aa(lp72
S'dobj'
p73
aS'3'
aS'7'
aa(lp74
S'prep_of'
p75
aS'7'
aS'9'
aa(lp76
S'dobj'
p77
aS'12'
p78
aS'9'
aa(lp79
S'amod'
p80
aS'11'
p81
aS'10'
p82
aa(lp83
S'nsubj'
p84
aS'12'
p85
aS'11'
p86
aa(lp87
S'rcmod'
p88
aS'9'
aS'12'
p89
aa(lp90
S'det'
p91
aS'15'
p92
aS'14'
p93
aa(lp94
S'prep_in'
p95
aS'12'
p96
aS'15'
p97
aasS'srls'
p98
(lp99
(dp100
S'A1'
p101
S'things eg vehicles'
p102
sS'AM-LOC'
p103
S'in the US12761276'
p104
sS'V'
g37
sasS'pos_seq'
p105
(lp106
S'NNS'
p107
aS'PRP'
p108
aS'NNS'
p109
aS'RB'
p110
aS'JJ'
p111
aS'NNP'
p112
aS'NNP'
p113
aS'IN'
p114
aS'NNS'
p115
aS'JJ'
p116
aS'NNS'
p117
aS'VBN'
p118
aS'IN'
p119
aS'DT'
p120
aS'NN'
p121
asS'ner_seq'
p122
(lp123
S'O'
aS'S-LOC'
p124
aS'O'
aS'O'
aS'O'
aS'O'
aS'O'
aS'O'
aS'O'
aS'O'
aS'O'
aS'O'
aS'O'
aS'O'
aS'S-LOC'
p125
assb.