ccopy_reg
_reconstructor
p1
(c__main__
KBproperty
p2
c__builtin__
object
p3
NtRp4
(dp5
S'comment'
p6
S'Link from a Wikipage to a Wikipage in a different language about the same or a related subject.'
p7
sS'domain'
p8
S''
sS'instances_count'
p9
I0
sS'phrases'
p10
NsS'syn_hypo'
p11
S''
sS'label'
p12
g7
sS'range'
p13
S''
sS'uniq_subjs'
p14
S'0'
sS'uniq_objs'
p15
I0
sS'prop_uri'
p16
S'http://dbpedia.org/ontology/wikiPageInterLanguageLink'
p17
sS'annotations'
p18
(dp19
S'bag_of_words'
p20
(lp21
S'wiki'
p22
aS'Page'
p23
aS'Inter'
p24
aS'Language'
p25
aS'Link'
p26
aS'Link'
p27
aS'from'
p28
aS'a'
aS'Wikipage'
p29
aS'to'
p30
aS'a'
aS'Wikipage'
p31
aS'in'
p32
aS'a'
aS'different'
p33
aS'language'
p34
aS'about'
p35
aS'the'
p36
aS'same'
p37
aS'or'
p38
aS'a'
aS'related'
p39
aS'subject'
p40
aS'.'
asS'chunk_seq'
p41
(lp42
S'B-NP'
p43
aS'I-NP'
p44
aS'I-NP'
p45
aS'I-NP'
p46
aS'I-NP'
p47
aS'E-NP'
p48
aS'S-PP'
p49
aS'B-NP'
p50
aS'E-NP'
p51
aS'S-PP'
p52
aS'B-NP'
p53
aS'E-NP'
p54
aS'S-PP'
p55
aS'B-NP'
p56
aS'I-NP'
p57
aS'E-NP'
p58
aS'S-PP'
p59
aS'B-NP'
p60
aS'E-NP'
p61
aS'O'
aS'B-NP'
p62
aS'I-NP'
p63
aS'E-NP'
p64
aS'O'
asS'dep_seq'
p65
(lp66
(lp67
S'nn'
p68
aS'6'
aS'1'
aa(lp69
S'nn'
p70
aS'6'
aS'2'
aa(lp71
S'nn'
p72
aS'6'
aS'3'
aa(lp73
S'nn'
p74
aS'6'
aS'4'
aa(lp75
S'nn'
p76
aS'6'
aS'5'
aa(lp77
S'root'
p78
aS'0'
aS'6'
aa(lp79
S'det'
p80
aS'9'
aS'8'
aa(lp81
S'prep_from'
p82
aS'6'
aS'9'
aa(lp83
S'det'
p84
aS'12'
p85
aS'11'
p86
aa(lp87
S'prep_to'
p88
aS'6'
aS'12'
p89
aa(lp90
S'det'
p91
aS'16'
p92
aS'14'
p93
aa(lp94
S'amod'
p95
aS'16'
p96
aS'15'
p97
aa(lp98
S'prep_in'
p99
aS'6'
aS'16'
p100
aa(lp101
S'det'
p102
aS'19'
p103
aS'18'
p104
aa(lp105
S'prep_about'
p106
aS'16'
p107
aS'19'
p108
aa(lp109
S'det'
p110
aS'23'
p111
aS'21'
p112
aa(lp113
S'amod'
p114
aS'23'
p115
aS'22'
p116
aa(lp117
S'conj_or'
p118
aS'19'
p119
aS'23'
p120
aasS'srls'
p121
(lp122
(dp123
S'A1'
p124
g40
sS'V'
g39
sasS'pos_seq'
p125
(lp126
S'NN'
p127
aS'NNP'
p128
aS'NNP'
p129
aS'NNP'
p130
aS'NNP'
p131
aS'NNP'
p132
aS'IN'
p133
aS'DT'
p134
aS'NNP'
p135
aS'TO'
p136
aS'DT'
p137
aS'NNP'
p138
aS'IN'
p139
aS'DT'
p140
aS'JJ'
p141
aS'NN'
p142
aS'IN'
p143
aS'DT'
p144
aS'JJ'
p145
aS'CC'
p146
aS'DT'
p147
aS'JJ'
p148
aS'NN'
p149
aS'.'
asS'ner_seq'
p150
(lp151
S'O'
aS'O'
aS'B-MISC'
p152
aS'E-MISC'
p153
aS'O'
aS'O'
aS'O'
aS'O'
aS'S-MISC'
p154
aS'O'
aS'O'
aS'S-MISC'
p155
aS'O'
aS'O'
aS'O'
aS'O'
aS'O'
aS'O'
aS'O'
aS'O'
aS'O'
aS'O'
aS'O'
aS'O'
assb.