ccopy_reg
_reconstructor
p1
(c__main__
KBproperty
p2
c__builtin__
object
p3
NtRp4
(dp5
S'comment'
p6
S'number of houses present'
p7
sS'domain'
p8
S'Protected Area '
p9
sS'instances_count'
p10
I0
sS'phrases'
p11
NsS'syn_hypo'
p12
S''
sS'label'
p13
g7
sS'range'
p14
S'string '
p15
sS'uniq_subjs'
p16
S'0'
sS'uniq_objs'
p17
I0
sS'prop_uri'
p18
S'http://dbpedia.org/ontology/numberOfHouses'
p19
sS'annotations'
p20
(dp21
S'bag_of_words'
p22
(lp23
S'Protected'
p24
aS'Area'
p25
aS'number'
p26
aS'Of'
p27
aS'Houses'
p28
aS'string'
p29
aS'number'
p30
aS'of'
p31
aS'houses'
p32
aS'present'
p33
asS'chunk_seq'
p34
(lp35
S'B-NP'
p36
aS'I-NP'
p37
aS'E-NP'
p38
aS'S-PP'
p39
aS'B-NP'
p40
aS'I-NP'
p41
aS'E-NP'
p42
aS'S-PP'
p43
aS'S-NP'
p44
aS'S-ADJP'
p45
asS'dep_seq'
p46
(lp47
(lp48
S'amod'
p49
aS'3'
aS'1'
aa(lp50
S'nn'
p51
aS'3'
aS'2'
aa(lp52
S'root'
p53
aS'0'
aS'3'
aa(lp54
S'nn'
p55
aS'7'
aS'5'
aa(lp56
S'nn'
p57
aS'7'
aS'6'
aa(lp58
S'prep_of'
p59
aS'3'
aS'7'
aa(lp60
S'prep_of'
p61
aS'7'
aS'9'
aa(lp62
S'amod'
p63
aS'9'
aS'10'
p64
aasS'srls'
p65
(lp66
sS'pos_seq'
p67
(lp68
S'JJ'
p69
aS'NN'
p70
aS'NN'
p71
aS'IN'
p72
aS'NNS'
p73
aS'NN'
p74
aS'NN'
p75
aS'IN'
p76
aS'NNS'
p77
aS'JJ'
p78
asS'ner_seq'
p79
(lp80
S'O'
aS'O'
aS'O'
aS'B-ORG'
p81
aS'E-ORG'
p82
aS'O'
aS'O'
aS'O'
aS'O'
aS'O'
assb.