ccopy_reg
_reconstructor
p1
(c__main__
KBproperty
p2
c__builtin__
object
p3
NtRp4
(dp5
S'comment'
p6
S'variant or variation'
p7
sS'domain'
p8
S''
sS'instances_count'
p9
I635
sS'phrases'
p10
NsS'syn_hypo'
p11
S''
sS'label'
p12
g7
sS'range'
p13
S''
sS'uniq_subjs'
p14
S'521'
p15
sS'uniq_objs'
p16
I0
sS'prop_uri'
p17
S'http://dbpedia.org/ontology/hasVariant'
p18
sS'annotations'
p19
(dp20
S'bag_of_words'
p21
(lp22
S'has'
p23
aS'Variant'
p24
aS'variant'
p25
aS'or'
p26
aS'variation'
p27
asS'chunk_seq'
p28
(lp29
S'S-VP'
p30
aS'B-NP'
p31
aS'I-NP'
p32
aS'I-NP'
p33
aS'E-NP'
p34
asS'dep_seq'
p35
(lp36
(lp37
S'root'
p38
aS'0'
aS'1'
aa(lp39
S'nn'
p40
aS'3'
aS'2'
aa(lp41
S'dobj'
p42
aS'1'
aS'3'
aa(lp43
S'conj_or'
p44
aS'3'
aS'5'
aasS'srls'
p45
(lp46
sS'pos_seq'
p47
(lp48
S'VBZ'
p49
aS'NN'
p50
aS'NN'
p51
aS'CC'
p52
aS'NN'
p53
asS'ner_seq'
p54
(lp55
S'O'
aS'O'
aS'O'
aS'O'
aS'O'
assb.