ccopy_reg
_reconstructor
p1
(c__main__
KBproperty
p2
c__builtin__
object
p3
NtRp4
(dp5
S'comment'
p6
S'Amount of fat per servingSize of a Food22'
p7
sS'domain'
p8
S'Food '
p9
sS'instances_count'
p10
I2
sS'phrases'
p11
NsS'syn_hypo'
p12
S''
sS'label'
p13
S'fat g'
p14
sS'range'
p15
S'double '
p16
sS'uniq_subjs'
p17
S'2'
sS'uniq_objs'
p18
I0
sS'prop_uri'
p19
S'http://dbpedia.org/ontology/fat'
p20
sS'annotations'
p21
(dp22
S'bag_of_words'
p23
(lp24
S'Food'
p25
aS'fat'
p26
aS'g'
aS'double'
p27
aS'Amount'
p28
aS'of'
p29
aS'fat'
p30
aS'per'
p31
aS'servingSize'
p32
aS'of'
p33
aS'a'
aS'Food22'
p34
asS'chunk_seq'
p35
(lp36
S'B-NP'
p37
aS'I-NP'
p38
aS'I-NP'
p39
aS'I-NP'
p40
aS'E-NP'
p41
aS'S-PP'
p42
aS'S-NP'
p43
aS'S-PP'
p44
aS'S-NP'
p45
aS'S-PP'
p46
aS'B-NP'
p47
aS'E-NP'
p48
asS'dep_seq'
p49
(lp50
(lp51
S'nn'
p52
aS'5'
aS'1'
aa(lp53
S'amod'
p54
aS'5'
aS'2'
aa(lp55
S'nn'
p56
aS'5'
aS'3'
aa(lp57
S'amod'
p58
aS'5'
aS'4'
aa(lp59
S'root'
p60
aS'0'
aS'5'
aa(lp61
S'prep_of'
p62
aS'5'
aS'7'
aa(lp63
S'prep_per'
p64
aS'5'
aS'9'
aa(lp65
S'det'
p66
aS'12'
p67
aS'11'
p68
aa(lp69
S'prep_of'
p70
aS'9'
aS'12'
p71
aasS'srls'
p72
(lp73
sS'pos_seq'
p74
(lp75
S'NN'
p76
aS'JJ'
p77
aS'NN'
p78
aS'JJ'
p79
aS'NN'
p80
aS'IN'
p81
aS'JJ'
p82
aS'IN'
p83
aS'NN'
p84
aS'IN'
p85
aS'DT'
p86
aS'NNP'
p87
asS'ner_seq'
p88
(lp89
S'O'
aS'O'
aS'O'
aS'O'
aS'O'
aS'O'
aS'O'
aS'O'
aS'O'
aS'O'
aS'O'
aS'S-MISC'
p90
assb.