ccopy_reg
_reconstructor
p1
(c__main__
KBproperty
p2
c__builtin__
object
p3
NtRp4
(dp5
S'comment'
p6
S'additional notes that better describe the entity.757482'
p7
sS'domain'
p8
S''
sS'instances_count'
p9
I708
sS'phrases'
p10
NsS'syn_hypo'
p11
S''
sS'label'
p12
S'notes'
p13
sS'range'
p14
S'string '
p15
sS'uniq_subjs'
p16
S'708'
p17
sS'uniq_objs'
p18
I0
sS'prop_uri'
p19
S'http://dbpedia.org/ontology/notes'
p20
sS'annotations'
p21
(dp22
S'bag_of_words'
p23
(lp24
S'notes'
p25
aS'string'
p26
aS'additional'
p27
aS'notes'
p28
aS'that'
p29
aS'better'
p30
aS'describe'
p31
aS'the'
p32
aS'entity.757482'
p33
asS'chunk_seq'
p34
(lp35
S'S-VP'
p36
aS'B-NP'
p37
aS'I-NP'
p38
aS'E-NP'
p39
aS'S-NP'
p40
aS'B-VP'
p41
aS'E-VP'
p42
aS'B-NP'
p43
aS'E-NP'
p44
asS'dep_seq'
p45
(lp46
(lp47
S'nn'
p48
aS'4'
aS'1'
aa(lp49
S'nn'
p50
aS'4'
aS'2'
aa(lp51
S'amod'
p52
aS'4'
aS'3'
aa(lp53
S'root'
p54
aS'0'
aS'4'
aa(lp55
S'nsubj'
p56
aS'7'
aS'4'
aa(lp57
S'advmod'
p58
aS'7'
aS'6'
aa(lp59
S'rcmod'
p60
aS'4'
aS'7'
aa(lp61
S'det'
p62
aS'9'
aS'8'
aa(lp63
S'dobj'
p64
aS'7'
aS'9'
aasS'srls'
p65
(lp66
(dp67
S'A1'
p68
S'the entity.757482'
p69
sS'A0'
p70
S'string additional notes'
p71
sS'R-A0'
p72
g29
sS'AM-MNR'
p73
g30
sS'V'
g31
sasS'pos_seq'
p74
(lp75
S'NNS'
p76
aS'NN'
p77
aS'JJ'
p78
aS'NNS'
p79
aS'IN'
p80
aS'RBR'
p81
aS'VB'
p82
aS'DT'
p83
aS'NN'
p84
asS'ner_seq'
p85
(lp86
S'O'
aS'O'
aS'O'
aS'O'
aS'O'
aS'O'
aS'O'
aS'O'
aS'O'
assb.