ccopy_reg
_reconstructor
p1
(c__main__
KBproperty
p2
c__builtin__
object
p3
NtRp4
(dp5
S'comment'
p6
S'254150'
p7
sS'domain'
p8
S'Artery '
p9
sS'instances_count'
p10
I176
sS'phrases'
p11
NsS'syn_hypo'
p12
S''
sS'label'
p13
S'supplies'
p14
sS'range'
p15
S'Anatomical Structure '
p16
sS'uniq_subjs'
p17
S'176'
p18
sS'uniq_objs'
p19
I0
sS'prop_uri'
p20
S'http://dbpedia.org/ontology/supplies'
p21
sS'annotations'
p22
(dp23
S'bag_of_words'
p24
(lp25
S'Artery'
p26
aS'supplies'
p27
aS'Anatomical'
p28
aS'Structure'
p29
aS'254150'
p30
asS'chunk_seq'
p31
(lp32
S'S-NP'
p33
aS'S-VP'
p34
aS'B-NP'
p35
aS'E-NP'
p36
aS'O'
asS'dep_seq'
p37
(lp38
(lp39
S'root'
p40
aS'0'
aS'1'
aa(lp41
S'dep'
p42
aS'1'
aS'2'
aa(lp43
S'amod'
p44
aS'4'
aS'3'
aa(lp45
S'dep'
p46
aS'1'
aS'4'
aa(lp47
S'dep'
p48
aS'4'
aS'5'
aasS'srls'
p49
(lp50
(dp51
S'A1'
p52
S'Anatomical Structure'
p53
sS'A0'
p54
g26
sS'V'
g30
sasS'pos_seq'
p55
(lp56
S'NN'
p57
aS'VBZ'
p58
aS'JJ'
p59
aS'NN'
p60
aS'CD'
p61
asS'ner_seq'
p62
(lp63
S'O'
aS'O'
aS'S-MISC'
p64
aS'O'
aS'O'
assb.