ccopy_reg
_reconstructor
p1
(c__main__
KBproperty
p2
c__builtin__
object
p3
NtRp4
(dp5
S'comment'
p6
S'49604310'
p7
sS'domain'
p8
S'Written Work '
p9
sS'instances_count'
p10
I3035
sS'phrases'
p11
NsS'syn_hypo'
p12
V
sS'label'
p13
S'circulation'
p14
sS'range'
p15
S'non Negative Integer '
p16
sS'uniq_subjs'
p17
S'3035'
p18
sS'uniq_objs'
p19
I0
sS'prop_uri'
p20
S'http://dbpedia.org/ontology/circulation'
p21
sS'annotations'
p22
(dp23
S'bag_of_words'
p24
(lp25
S'Written'
p26
aS'Work'
p27
aS'circulation'
p28
aS'non'
p29
aS'Negative'
p30
aS'Integer'
p31
aS'49604310'
p32
asS'chunk_seq'
p33
(lp34
S'B-NP'
p35
aS'I-NP'
p36
aS'I-NP'
p37
aS'I-NP'
p38
aS'I-NP'
p39
aS'E-NP'
p40
aS'O'
asS'dep_seq'
p41
(lp42
(lp43
S'amod'
p44
aS'3'
aS'1'
aa(lp45
S'nn'
p46
aS'3'
aS'2'
aa(lp47
S'dep'
p48
aS'6'
aS'3'
aa(lp49
S'amod'
p50
aS'6'
aS'4'
aa(lp51
S'amod'
p52
aS'6'
aS'5'
aa(lp53
S'root'
p54
aS'0'
aS'6'
aa(lp55
S'num'
p56
aS'6'
aS'7'
aasS'srls'
p57
(lp58
(dp59
S'A1'
p60
S'Work circulation'
p61
sS'A2'
p62
S'non Negative Integer 49604310'
p63
sS'V'
g26
sasS'pos_seq'
p64
(lp65
S'VBN'
p66
aS'NN'
p67
aS'NN'
p68
aS'JJ'
p69
aS'JJ'
p70
aS'NN'
p71
aS'CD'
p72
asS'ner_seq'
p73
(lp74
S'O'
aS'O'
aS'O'
aS'O'
aS'O'
aS'O'
aS'O'
assb.