ccopy_reg
_reconstructor
p1
(c__main__
KBproperty
p2
c__builtin__
object
p3
NtRp4
(dp5
S'comment'
p6
S'2816793'
p7
sS'domain'
p8
S'Military Unit '
p9
sS'instances_count'
p10
I2033
sS'phrases'
p11
NsS'syn_hypo'
p12
S''
sS'label'
p13
S'battle honours'
p14
sS'range'
p15
S'string '
p16
sS'uniq_subjs'
p17
S'2033'
p18
sS'uniq_objs'
p19
I0
sS'prop_uri'
p20
S'http://dbpedia.org/ontology/battleHonours'
p21
sS'annotations'
p22
(dp23
S'bag_of_words'
p24
(lp25
S'Military'
p26
aS'Unit'
p27
aS'battle'
p28
aS'honours'
p29
aS'string'
p30
aS'2816793'
p31
asS'chunk_seq'
p32
(lp33
S'B-NP'
p34
aS'I-NP'
p35
aS'E-NP'
p36
aS'S-VP'
p37
aS'B-NP'
p38
aS'E-NP'
p39
asS'dep_seq'
p40
(lp41
(lp42
S'nn'
p43
aS'3'
aS'1'
aa(lp44
S'nn'
p45
aS'3'
aS'2'
aa(lp46
S'nsubj'
p47
aS'4'
aS'3'
aa(lp48
S'root'
p49
aS'0'
aS'4'
aa(lp50
S'nn'
p51
aS'6'
aS'5'
aa(lp52
S'dobj'
p53
aS'4'
aS'6'
aasS'srls'
p54
(lp55
(dp56
S'A1'
p57
S'string 2816793'
p58
sS'A0'
p59
S'Military Unit battle'
p60
sS'V'
g29
sasS'pos_seq'
p61
(lp62
S'NNP'
p63
aS'NNP'
p64
aS'NN'
p65
aS'VBZ'
p66
aS'NN'
p67
aS'NN'
p68
asS'ner_seq'
p69
(lp70
S'B-ORG'
p71
aS'E-ORG'
p72
aS'O'
aS'O'
aS'O'
aS'O'
assb.