ccopy_reg
_reconstructor
p1
(c__main__
KBproperty
p2
c__builtin__
object
p3
NtRp4
(dp5
S'comment'
p6
S'height above average terrain \\xce\\xbc'
p7
sS'domain'
p8
S'Broadcaster '
p9
sS'instances_count'
p10
I1785
sS'phrases'
p11
NsS'syn_hypo'
p12
S''
sS'label'
p13
g7
sS'range'
p14
S'double '
p15
sS'uniq_subjs'
p16
S'1785'
p17
sS'uniq_objs'
p18
I0
sS'prop_uri'
p19
S'http://dbpedia.org/ontology/heightAboveAverageTerrain'
p20
sS'annotations'
p21
(dp22
S'bag_of_words'
p23
(lp24
S'Broadcaster'
p25
aS'height'
p26
aS'Above'
p27
aS'Average'
p28
aS'Terrain'
p29
aS'double'
p30
aS'height'
p31
aS'above'
p32
aS'average'
p33
aS'terrain'
p34
aS'\\'
aS'xce'
p35
aS'\\'
aS'xbc'
p36
asS'chunk_seq'
p37
(lp38
S'B-NP'
p39
aS'E-NP'
p40
aS'S-PP'
p41
aS'B-NP'
p42
aS'E-NP'
p43
aS'B-NP'
p44
aS'E-NP'
p45
aS'S-PP'
p46
aS'B-NP'
p47
aS'E-NP'
p48
aS'O'
aS'O'
aS'O'
aS'O'
asS'dep_seq'
p49
(lp50
(lp51
S'nn'
p52
aS'2'
aS'1'
aa(lp53
S'nsubj'
p54
aS'11'
p55
aS'2'
aa(lp56
S'amod'
p57
aS'7'
aS'4'
aa(lp58
S'nn'
p59
aS'7'
aS'5'
aa(lp60
S'amod'
p61
aS'7'
aS'6'
aa(lp62
S'prep_above'
p63
aS'2'
aS'7'
aa(lp64
S'amod'
p65
aS'10'
p66
aS'9'
aa(lp67
S'prep_above'
p68
aS'2'
aS'10'
p69
aa(lp70
S'root'
p71
aS'0'
aS'11'
p72
aa(lp73
S'dep'
p74
aS'14'
p75
aS'12'
p76
aa(lp77
S'dep'
p78
aS'14'
p79
aS'13'
p80
aa(lp81
S'dep'
p82
aS'11'
p83
aS'14'
p84
aasS'srls'
p85
(lp86
sS'pos_seq'
p87
(lp88
S'NN'
p89
aS'NN'
p90
aS'IN'
p91
aS'JJ'
p92
aS'NN'
p93
aS'JJ'
p94
aS'NN'
p95
aS'IN'
p96
aS'JJ'
p97
aS'NN'
p98
aS'FW'
p99
aS'FW'
p100
aS'FW'
p101
aS'FW'
p102
asS'ner_seq'
p103
(lp104
S'O'
aS'O'
aS'O'
aS'O'
aS'O'
aS'O'
aS'O'
aS'O'
aS'O'
aS'O'
aS'O'
aS'O'
aS'O'
aS'O'
assb.