ccopy_reg
_reconstructor
p1
(c__main__
KBproperty
p2
c__builtin__
object
p3
NtRp4
(dp5
S'comment'
p6
S'00'
p7
sS'domain'
p8
S'Rest Area '
p9
sS'instances_count'
p10
I0
sS'phrases'
p11
NsS'syn_hypo'
p12
S''
sS'label'
p13
S'filling station'
p14
sS'range'
p15
S'Filling Station '
p16
sS'uniq_subjs'
p17
S'0'
sS'uniq_objs'
p18
I0
sS'prop_uri'
p19
S'http://dbpedia.org/ontology/fillingStation'
p20
sS'annotations'
p21
(dp22
S'bag_of_words'
p23
(lp24
S'Rest'
p25
aS'Area'
p26
aS'filling'
p27
aS'station'
p28
aS'Filling'
p29
aS'Station'
p30
aS'00'
p31
asS'chunk_seq'
p32
(lp33
S'B-NP'
p34
aS'E-NP'
p35
aS'S-VP'
p36
aS'B-NP'
p37
aS'I-NP'
p38
aS'E-NP'
p39
aS'S-ADVP'
p40
asS'dep_seq'
p41
(lp42
(lp43
S'nn'
p44
aS'2'
aS'1'
aa(lp45
S'root'
p46
aS'0'
aS'2'
aa(lp47
S'partmod'
p48
aS'2'
aS'3'
aa(lp49
S'nn'
p50
aS'6'
aS'4'
aa(lp51
S'nn'
p52
aS'6'
aS'5'
aa(lp53
S'dobj'
p54
aS'3'
aS'6'
aa(lp55
S'num'
p56
aS'6'
aS'7'
aasS'srls'
p57
(lp58
(dp59
S'A1'
p60
S'station Filling Station 00'
p61
sS'A0'
p62
S'Rest Area'
p63
sS'V'
g27
sasS'pos_seq'
p64
(lp65
S'NNP'
p66
aS'NNP'
p67
aS'VBG'
p68
aS'NN'
p69
aS'NNP'
p70
aS'NNP'
p71
aS'CD'
p72
asS'ner_seq'
p73
(lp74
S'O'
aS'O'
aS'O'
aS'O'
aS'B-ORG'
p75
aS'E-ORG'
p76
aS'O'
assb.