ccopy_reg
_reconstructor
p1
(c__main__
KBproperty
p2
c__builtin__
object
p3
NtRp4
(dp5
S'comment'
p6
S'http://www.w3.org/2001/XMLSchema#date'
p7
sS'domain'
p8
S'Organisation '
p9
sS'instances_count'
p10
I0
sS'phrases'
p11
NsS'syn_hypo'
p12
S''
sS'label'
p13
g7
sS'range'
p14
S'Parish '
p15
sS'uniq_subjs'
p16
S'0'
sS'uniq_objs'
p17
I0
sS'prop_uri'
p18
S'http://dbpedia.org/ontology/membershipAsOf'
p19
sS'annotations'
p20
(dp21
S'bag_of_words'
p22
(lp23
S'Organisation'
p24
aS'membership'
p25
aS'As'
p26
aS'Of'
p27
aS'Parish'
p28
aS'http'
p29
aS':'
aS'//'
p30
aS'www'
p31
aS'.'
aS'w3'
p32
aS'.org'
p33
aS'/2001'
p34
aS'/'
aS'XMLSchema'
p35
aS'#'
aS'date'
p36
asS'chunk_seq'
p37
(lp38
S'B-NP'
p39
aS'E-NP'
p40
aS'S-PP'
p41
aS'S-PP'
p42
aS'B-NP'
p43
aS'E-NP'
p44
aS'O'
aS'B-NP'
p45
aS'E-NP'
p46
aS'O'
aS'O'
aS'O'
aS'O'
aS'O'
aS'O'
aS'B-NP'
p47
aS'E-NP'
p48
asS'dep_seq'
p49
(lp50
(lp51
S'nn'
p52
aS'2'
aS'1'
aa(lp53
S'root'
p54
aS'0'
aS'2'
aa(lp55
S'prepc_as_of'
p56
aS'2'
aS'4'
aa(lp57
S'nn'
p58
aS'6'
aS'5'
aa(lp59
S'pobj'
p60
aS'2'
aS'6'
aa(lp61
S'nn'
p62
aS'9'
aS'8'
aa(lp63
S'dep'
p64
aS'2'
aS'9'
aa(lp65
S'dep'
p66
aS'13'
p67
aS'11'
p68
aa(lp69
S'dep'
p70
aS'13'
p71
aS'12'
p72
aa(lp73
S'dep'
p74
aS'2'
aS'13'
p75
aa(lp76
S'dep'
p77
aS'13'
p78
aS'14'
p79
aa(lp80
S'dep'
p81
aS'17'
p82
aS'15'
p83
aa(lp84
S'nn'
p85
aS'17'
p86
aS'16'
p87
aa(lp88
S'ccomp'
p89
aS'13'
p90
aS'17'
p91
aasS'srls'
p92
(lp93
sS'pos_seq'
p94
(lp95
S'NN'
p96
aS'NN'
p97
aS'IN'
p98
aS'IN'
p99
aS'NNP'
p100
aS'NN'
p101
aS':'
aS'NN'
p102
aS'NN'
p103
aS'.'
aS'FW'
p104
aS'FW'
p105
aS'FW'
p106
aS'FW'
p107
aS'FW'
p108
aS'FW'
p109
aS'NN'
p110
asS'ner_seq'
p111
(lp112
S'O'
aS'O'
aS'B-ORG'
p113
aS'I-ORG'
p114
aS'E-ORG'
p115
aS'O'
aS'O'
aS'O'
aS'O'
aS'O'
aS'O'
aS'O'
aS'O'
aS'O'
aS'O'
aS'O'
aS'O'
assb.