ccopy_reg
_reconstructor
p1
(c__main__
KBproperty
p2
c__builtin__
object
p3
NtRp4
(dp5
S'comment'
p6
S'34243033'
p7
sS'domain'
p8
S'Building '
p9
sS'instances_count'
p10
I1292
sS'phrases'
p11
NsS'syn_hypo'
p12
S''
sS'label'
p13
S'seating capacity'
p14
sS'range'
p15
S'non Negative Integer '
p16
sS'uniq_subjs'
p17
S'1292'
p18
sS'uniq_objs'
p19
I0
sS'prop_uri'
p20
S'http://dbpedia.org/ontology/seatingCapacity'
p21
sS'annotations'
p22
(dp23
S'bag_of_words'
p24
(lp25
S'Building'
p26
aS'seating'
p27
aS'capacity'
p28
aS'non'
p29
aS'Negative'
p30
aS'Integer'
p31
aS'34243033'
p32
asS'chunk_seq'
p33
(lp34
S'B-NP'
p35
aS'I-NP'
p36
aS'E-NP'
p37
aS'B-NP'
p38
aS'I-NP'
p39
aS'I-NP'
p40
aS'E-NP'
p41
asS'dep_seq'
p42
(lp43
(lp44
S'amod'
p45
aS'3'
aS'1'
aa(lp46
S'nn'
p47
aS'3'
aS'2'
aa(lp48
S'root'
p49
aS'0'
aS'3'
aa(lp50
S'advmod'
p51
aS'7'
aS'4'
aa(lp52
S'amod'
p53
aS'7'
aS'5'
aa(lp54
S'nn'
p55
aS'7'
aS'6'
aa(lp56
S'dep'
p57
aS'3'
aS'7'
aasS'srls'
p58
(lp59
(dp60
S'A1'
p61
S'seating capacity'
p62
sS'A2'
p63
S'non Negative Integer 34243033'
p64
sS'V'
g26
sasS'pos_seq'
p65
(lp66
S'VBG'
p67
aS'NN'
p68
aS'NN'
p69
aS'RB'
p70
aS'JJ'
p71
aS'NN'
p72
aS'NN'
p73
asS'ner_seq'
p74
(lp75
S'O'
aS'O'
aS'O'
aS'O'
aS'O'
aS'O'
aS'O'
assb.