ccopy_reg
_reconstructor
p1
(c__main__
KBproperty
p2
c__builtin__
object
p3
NtRp4
(dp5
S'comment'
p6
S'The International Standard Book Number ISBN is a unique numeric commercial book identifier based upon the 9-digit Standard Book Numbering SBN code.2408623719'
p7
sS'domain'
p8
S'Written Work '
p9
sS'instances_count'
p10
I23953
sS'phrases'
p11
NsS'syn_hypo'
p12
S''
sS'label'
p13
S'ISBN'
p14
sS'range'
p15
S'string '
p16
sS'uniq_subjs'
p17
S'23953'
p18
sS'uniq_objs'
p19
I0
sS'prop_uri'
p20
S'http://dbpedia.org/ontology/isbn'
p21
sS'annotations'
p22
(dp23
S'bag_of_words'
p24
(lp25
S'Written'
p26
aS'Work'
p27
aS'ISBN'
p28
aS'string'
p29
aS'The'
p30
aS'International'
p31
aS'Standard'
p32
aS'Book'
p33
aS'Number'
p34
aS'ISBN'
p35
aS'is'
p36
aS'a'
aS'unique'
p37
aS'numeric'
p38
aS'commercial'
p39
aS'book'
p40
aS'identifier'
p41
aS'based'
p42
aS'upon'
p43
aS'the'
p44
aS'9-d'
p45
aS'igit'
p46
aS'Standard'
p47
aS'Book'
p48
aS'Numbering'
p49
aS'SBN'
p50
aS'code.2408623719'
p51
asS'chunk_seq'
p52
(lp53
S'B-NP'
p54
aS'I-NP'
p55
aS'I-NP'
p56
aS'E-NP'
p57
aS'B-NP'
p58
aS'I-NP'
p59
aS'I-NP'
p60
aS'I-NP'
p61
aS'I-NP'
p62
aS'E-NP'
p63
aS'S-VP'
p64
aS'B-NP'
p65
aS'I-NP'
p66
aS'I-NP'
p67
aS'I-NP'
p68
aS'I-NP'
p69
aS'E-NP'
p70
aS'S-VP'
p71
aS'S-PP'
p72
aS'B-NP'
p73
aS'I-NP'
p74
aS'I-NP'
p75
aS'I-NP'
p76
aS'I-NP'
p77
aS'I-NP'
p78
aS'I-NP'
p79
aS'E-NP'
p80
asS'dep_seq'
p81
(lp82
(lp83
S'nn'
p84
aS'4'
aS'1'
aa(lp85
S'nn'
p86
aS'4'
aS'2'
aa(lp87
S'nn'
p88
aS'4'
aS'3'
aa(lp89
S'root'
p90
aS'0'
aS'4'
aa(lp91
S'det'
p92
aS'10'
p93
aS'5'
aa(lp94
S'nn'
p95
aS'10'
p96
aS'6'
aa(lp97
S'nn'
p98
aS'10'
p99
aS'7'
aa(lp100
S'nn'
p101
aS'10'
p102
aS'8'
aa(lp103
S'nn'
p104
aS'10'
p105
aS'9'
aa(lp106
S'nsubj'
p107
aS'17'
p108
aS'10'
p109
aa(lp110
S'cop'
p111
aS'17'
p112
aS'11'
p113
aa(lp114
S'det'
p115
aS'17'
p116
aS'12'
p117
aa(lp118
S'amod'
p119
aS'17'
p120
aS'13'
p121
aa(lp122
S'amod'
p123
aS'17'
p124
aS'14'
p125
aa(lp126
S'amod'
p127
aS'17'
p128
aS'15'
p129
aa(lp130
S'nn'
p131
aS'17'
p132
aS'16'
p133
aa(lp134
S'rcmod'
p135
aS'4'
aS'17'
p136
aa(lp137
S'prep'
p138
aS'17'
p139
aS'18'
p140
aa(lp141
S'pcomp'
p142
aS'18'
p143
aS'19'
p144
aa(lp145
S'det'
p146
aS'27'
p147
aS'20'
p148
aa(lp149
S'amod'
p150
aS'27'
p151
aS'd'
aa(lp152
S'amod'
p153
aS'27'
p154
aS'22'
p155
aa(lp156
S'nn'
p157
aS'27'
p158
aS'23'
p159
aa(lp160
S'nn'
p161
aS'27'
p162
aS'24'
p163
aa(lp164
S'nn'
p165
aS'27'
p166
aS'25'
p167
aa(lp168
S'nn'
p169
aS'27'
p170
aS'26'
p171
aa(lp172
S'pobj'
p173
aS'19'
p174
aS'27'
p175
aasS'srls'
p176
(lp177
(dp178
S'A1'
p179
S'a unique numeric commercial book identifier'
p180
sS'A2'
p181
S'upon the 9-d igit Standard Book Numbering SBN code.2408623719'
p182
sS'V'
g42
sasS'pos_seq'
p183
(lp184
S'NNP'
p185
aS'NNP'
p186
aS'NNP'
p187
aS'NN'
p188
aS'DT'
p189
aS'NNP'
p190
aS'NNP'
p191
aS'NNP'
p192
aS'NNP'
p193
aS'NNP'
p194
aS'VBZ'
p195
aS'DT'
p196
aS'JJ'
p197
aS'JJ'
p198
aS'JJ'
p199
aS'NN'
p200
aS'NN'
p201
aS'VBN'
p202
aS'IN'
p203
aS'DT'
p204
aS'JJ'
p205
aS'JJ'
p206
aS'NNP'
p207
aS'NNP'
p208
aS'NNP'
p209
aS'NNP'
p210
aS'NN'
p211
asS'ner_seq'
p212
(lp213
S'O'
aS'O'
aS'O'
aS'O'
aS'O'
aS'B-MISC'
p214
aS'I-MISC'
p215
aS'E-MISC'
p216
aS'O'
aS'O'
aS'O'
aS'O'
aS'O'
aS'O'
aS'O'
aS'O'
aS'O'
aS'O'
aS'O'
aS'O'
aS'O'
aS'O'
aS'B-MISC'
p217
aS'I-MISC'
p218
aS'I-MISC'
p219
aS'E-MISC'
p220
aS'O'
assb.