ccopy_reg
_reconstructor
p1
(c__main__
KBproperty
p2
c__builtin__
object
p3
NtRp4
(dp5
S'comment'
p6
S'The overall subject matter dealt with by the play.583566'
p7
sS'domain'
p8
S'Play '
p9
sS'instances_count'
p10
I566
sS'phrases'
p11
NsS'syn_hypo'
p12
S''
sS'label'
p13
S'subject of play'
p14
sS'range'
p15
S'string '
p16
sS'uniq_subjs'
p17
S'566'
p18
sS'uniq_objs'
p19
I0
sS'prop_uri'
p20
S'http://dbpedia.org/ontology/subjectOfPlay'
p21
sS'annotations'
p22
(dp23
S'bag_of_words'
p24
(lp25
S'Play'
p26
aS'subject'
p27
aS'of'
p28
aS'play'
p29
aS'string'
p30
aS'The'
p31
aS'overall'
p32
aS'subject'
p33
aS'matter'
p34
aS'dealt'
p35
aS'with'
p36
aS'by'
p37
aS'the'
p38
aS'play.583566'
p39
asS'chunk_seq'
p40
(lp41
S'S-VP'
p42
aS'S-NP'
p43
aS'S-PP'
p44
aS'B-NP'
p45
aS'E-NP'
p46
aS'B-NP'
p47
aS'I-NP'
p48
aS'I-NP'
p49
aS'E-NP'
p50
aS'S-VP'
p51
aS'S-PP'
p52
aS'S-PP'
p53
aS'B-NP'
p54
aS'E-NP'
p55
asS'dep_seq'
p56
(lp57
(lp58
S'dep'
p59
aS'2'
aS'1'
aa(lp60
S'root'
p61
aS'0'
aS'2'
aa(lp62
S'nn'
p63
aS'5'
aS'4'
aa(lp64
S'prep_of'
p65
aS'2'
aS'5'
aa(lp66
S'det'
p67
aS'9'
aS'6'
aa(lp68
S'amod'
p69
aS'9'
aS'7'
aa(lp70
S'amod'
p71
aS'9'
aS'8'
aa(lp72
S'dep'
p73
aS'2'
aS'9'
aa(lp74
S'partmod'
p75
aS'2'
aS'10'
p76
aa(lp77
S'prep'
p78
aS'10'
p79
aS'11'
p80
aa(lp81
S'det'
p82
aS'14'
p83
aS'13'
p84
aa(lp85
S'agent'
p86
aS'10'
p87
aS'14'
p88
aasS'srls'
p89
(lp90
(dp91
S'A1'
p92
S'subject of play string The overall subject matter dealt with by the play.583566'
p93
sS'V'
g26
sa(dp94
S'A1'
p95
S'The overall subject matter'
p96
sS'A0'
p97
S'by the play.583566'
p98
sS'V'
g35
sasS'pos_seq'
p99
(lp100
S'VB'
p101
aS'NN'
p102
aS'IN'
p103
aS'NN'
p104
aS'NN'
p105
aS'DT'
p106
aS'JJ'
p107
aS'JJ'
p108
aS'NN'
p109
aS'VBN'
p110
aS'IN'
p111
aS'IN'
p112
aS'DT'
p113
aS'NN'
p114
asS'ner_seq'
p115
(lp116
S'O'
aS'O'
aS'O'
aS'O'
aS'O'
aS'O'
aS'O'
aS'O'
aS'O'
aS'O'
aS'O'
aS'O'
aS'O'
aS'O'
assb.