ccopy_reg
_reconstructor
p1
(c__main__
KBproperty
p2
c__builtin__
object
p3
NtRp4
(dp5
S'comment'
p6
S'155094152504'
p7
sS'domain'
p8
S'Work '
p9
sS'instances_count'
p10
I146331
sS'phrases'
p11
NsS'syn_hypo'
p12
S''
sS'label'
p13
S'subsequent work'
p14
sS'range'
p15
S'Work '
p16
sS'uniq_subjs'
p17
S'146331'
p18
sS'uniq_objs'
p19
I0
sS'prop_uri'
p20
S'http://dbpedia.org/ontology/subsequentWork'
p21
sS'annotations'
p22
(dp23
S'bag_of_words'
p24
(lp25
S'Work'
p26
aS'subsequent'
p27
aS'work'
p28
aS'Work'
p29
aS'155094152504'
p30
asS'chunk_seq'
p31
(lp32
S'S-VP'
p33
aS'B-NP'
p34
aS'I-NP'
p35
aS'I-NP'
p36
aS'E-NP'
p37
asS'dep_seq'
p38
(lp39
(lp40
S'root'
p41
aS'0'
aS'1'
aa(lp42
S'amod'
p43
aS'5'
aS'2'
aa(lp44
S'nn'
p45
aS'5'
aS'3'
aa(lp46
S'nn'
p47
aS'5'
aS'4'
aa(lp48
S'dobj'
p49
aS'1'
aS'5'
aasS'srls'
p50
(lp51
(dp52
S'A0'
p53
S'subsequent work Work 155094152504'
p54
sS'V'
g26
sasS'pos_seq'
p55
(lp56
S'VB'
p57
aS'JJ'
p58
aS'NN'
p59
aS'NN'
p60
aS'NN'
p61
asS'ner_seq'
p62
(lp63
S'O'
aS'O'
aS'O'
aS'O'
aS'O'
assb.