ccopy_reg
_reconstructor
p1
(c__main__
KBproperty
p2
c__builtin__
object
p3
NtRp4
(dp5
S'comment'
p6
S'Alternative naming of anything not being a Person for which case foaf:nick should be used.00'
p7
sS'domain'
p8
S''
sS'instances_count'
p9
I0
sS'phrases'
p10
NsS'syn_hypo'
p11
S''
sS'label'
p12
S'alternative name'
p13
sS'range'
p14
S'lang String '
p15
sS'uniq_subjs'
p16
S'0'
sS'uniq_objs'
p17
I0
sS'prop_uri'
p18
S'http://dbpedia.org/ontology/alternativeName'
p19
sS'annotations'
p20
(dp21
S'bag_of_words'
p22
(lp23
S'alternative'
p24
aS'name'
p25
aS'lang'
p26
aS'String'
p27
aS'Alternative'
p28
aS'naming'
p29
aS'of'
p30
aS'anything'
p31
aS'not'
p32
aS'being'
p33
aS'a'
aS'Person'
p34
aS'for'
p35
aS'which'
p36
aS'case'
p37
aS'foaf'
p38
aS':'
aS'nick'
p39
aS'should'
p40
aS'be'
p41
aS'used.00'
p42
asS'chunk_seq'
p43
(lp44
S'B-NP'
p45
aS'I-NP'
p46
aS'I-NP'
p47
aS'I-NP'
p48
aS'I-NP'
p49
aS'E-NP'
p50
aS'S-PP'
p51
aS'S-NP'
p52
aS'O'
aS'S-VP'
p53
aS'B-NP'
p54
aS'E-NP'
p55
aS'S-PP'
p56
aS'B-NP'
p57
aS'E-NP'
p58
aS'S-NP'
p59
aS'O'
aS'S-NP'
p60
aS'B-VP'
p61
aS'E-VP'
p62
aS'S-ADJP'
p63
asS'dep_seq'
p64
(lp65
(lp66
S'amod'
p67
aS'6'
aS'1'
aa(lp68
S'nn'
p69
aS'6'
aS'2'
aa(lp70
S'amod'
p71
aS'6'
aS'3'
aa(lp72
S'nn'
p73
aS'6'
aS'4'
aa(lp74
S'amod'
p75
aS'6'
aS'5'
aa(lp76
S'root'
p77
aS'0'
aS'6'
aa(lp78
S'prep_of'
p79
aS'6'
aS'8'
aa(lp80
S'neg'
p81
aS'8'
aS'9'
aa(lp82
S'cop'
p83
aS'12'
p84
aS'10'
p85
aa(lp86
S'det'
p87
aS'12'
p88
aS'11'
p89
aa(lp90
S'partmod'
p91
aS'8'
aS'12'
p92
aa(lp93
S'det'
p94
aS'16'
p95
aS'14'
p96
aa(lp97
S'nn'
p98
aS'16'
p99
aS'15'
p100
aa(lp101
S'prep_for'
p102
aS'12'
p103
aS'16'
p104
aa(lp105
S'nsubj'
p106
aS'21'
p107
aS'18'
p108
aa(lp109
S'aux'
p110
aS'21'
p111
aS'19'
p112
aa(lp113
S'cop'
p114
aS'21'
p115
aS'20'
p116
aa(lp117
S'dep'
p118
aS'6'
aS'21'
p119
aasS'srls'
p120
(lp121
sS'pos_seq'
p122
(lp123
S'JJ'
p124
aS'NN'
p125
aS'VBG'
p126
aS'NN'
p127
aS'JJ'
p128
aS'NN'
p129
aS'IN'
p130
aS'NN'
p131
aS'RB'
p132
aS'VBG'
p133
aS'DT'
p134
aS'NN'
p135
aS'IN'
p136
aS'WDT'
p137
aS'NN'
p138
aS'NN'
p139
aS':'
aS'NN'
p140
aS'MD'
p141
aS'VB'
p142
aS'JJ'
p143
asS'ner_seq'
p144
(lp145
S'O'
aS'O'
aS'O'
aS'B-MISC'
p146
aS'E-MISC'
p147
aS'O'
aS'O'
aS'O'
aS'O'
aS'O'
aS'O'
aS'O'
aS'O'
aS'O'
aS'O'
aS'O'
aS'O'
aS'O'
aS'O'
aS'O'
aS'O'
assb.