ccopy_reg
_reconstructor
p1
(c__main__
KBproperty
p2
c__builtin__
object
p3
NtRp4
(dp5
S'comment'
p6
S'Identifies the founder of the described entity. This can be a person or a organisation for instance.122749876'
p7
sS'domain'
p8
S''
sS'instances_count'
p9
I10850
sS'phrases'
p10
NsS'syn_hypo'
p11
S''
sS'label'
p12
S'founded by'
p13
sS'range'
p14
S'Agent '
p15
sS'uniq_subjs'
p16
S'10850'
p17
sS'uniq_objs'
p18
I0
sS'prop_uri'
p19
S'http://dbpedia.org/ontology/foundedBy'
p20
sS'annotations'
p21
(dp22
S'bag_of_words'
p23
(lp24
S'founded'
p25
aS'by'
p26
aS'Agent'
p27
aS'Identifies'
p28
aS'the'
p29
aS'founder'
p30
aS'of'
p31
aS'the'
p32
aS'described'
p33
aS'entity'
p34
aS'.'
aS'This'
p35
aS'can'
p36
aS'be'
p37
aS'a'
aS'person'
p38
aS'or'
p39
aS'a'
aS'organisation'
p40
aS'for'
p41
aS'instance.122749876'
p42
asS'chunk_seq'
p43
(lp44
S'S-VP'
p45
aS'S-PP'
p46
aS'S-NP'
p47
aS'S-VP'
p48
aS'B-NP'
p49
aS'E-NP'
p50
aS'S-PP'
p51
aS'B-NP'
p52
aS'I-NP'
p53
aS'E-NP'
p54
aS'O'
aS'S-NP'
p55
aS'B-VP'
p56
aS'E-VP'
p57
aS'B-NP'
p58
aS'E-NP'
p59
aS'O'
aS'B-NP'
p60
aS'E-NP'
p61
aS'S-PP'
p62
aS'S-NP'
p63
asS'dep_seq'
p64
(lp65
(lp66
S'dep'
p67
aS'16'
p68
aS'1'
aa(lp69
S'prep_by'
p70
aS'1'
aS'3'
aa(lp71
S'dep'
p72
aS'1'
aS'4'
aa(lp73
S'det'
p74
aS'6'
aS'5'
aa(lp75
S'dobj'
p76
aS'4'
aS'6'
aa(lp77
S'det'
p78
aS'10'
p79
aS'8'
aa(lp80
S'amod'
p81
aS'10'
p82
aS'9'
aa(lp83
S'prep_of'
p84
aS'6'
aS'10'
p85
aa(lp86
S'nsubj'
p87
aS'16'
p88
aS'12'
p89
aa(lp90
S'aux'
p91
aS'16'
p92
aS'13'
p93
aa(lp94
S'cop'
p95
aS'16'
p96
aS'14'
p97
aa(lp98
S'det'
p99
aS'16'
p100
aS'15'
p101
aa(lp102
S'root'
p103
aS'0'
aS'16'
p104
aa(lp105
S'det'
p106
aS'19'
p107
aS'18'
p108
aa(lp109
S'conj_or'
p110
aS'16'
p111
aS'19'
p112
aa(lp113
S'prep_for'
p114
aS'16'
p115
aS'21'
p116
aasS'srls'
p117
(lp118
(dp119
S'A1'
p120
S'the founder of the described entity . This can be a person or a organisation for instance.122749876'
p121
sS'A0'
p122
S'by Agent'
p123
sS'V'
g25
sa(dp124
S'A1'
p125
S'the founder of the described entity'
p126
sS'V'
g28
sa(dp127
S'A1'
p128
g34
sS'V'
g33
sasS'pos_seq'
p129
(lp130
S'VBN'
p131
aS'IN'
p132
aS'NN'
p133
aS'VBZ'
p134
aS'DT'
p135
aS'NN'
p136
aS'IN'
p137
aS'DT'
p138
aS'VBN'
p139
aS'NN'
p140
aS'.'
aS'DT'
p141
aS'MD'
p142
aS'VB'
p143
aS'DT'
p144
aS'NN'
p145
aS'CC'
p146
aS'DT'
p147
aS'NN'
p148
aS'IN'
p149
aS'NN'
p150
asS'ner_seq'
p151
(lp152
S'O'
aS'O'
aS'O'
aS'O'
aS'O'
aS'O'
aS'O'
aS'O'
aS'O'
aS'O'
aS'O'
aS'O'
aS'O'
aS'O'
aS'O'
aS'O'
aS'O'
aS'O'
aS'O'
aS'O'
aS'O'
assb.