ccopy_reg
_reconstructor
p1
(c__main__
KBproperty
p2
c__builtin__
object
p3
NtRp4
(dp5
S'comment'
p6
S'Authority data of people listed in the general catalogue of the National Library of France108108'
p7
sS'domain'
p8
S''
sS'instances_count'
p9
I108
sS'phrases'
p10
NsS'syn_hypo'
p11
S''
sS'label'
p12
S'BNF Id'
p13
sS'range'
p14
S'string '
p15
sS'uniq_subjs'
p16
S'108'
p17
sS'uniq_objs'
p18
I0
sS'prop_uri'
p19
S'http://dbpedia.org/ontology/bnfId'
p20
sS'annotations'
p21
(dp22
S'bag_of_words'
p23
(lp24
S'BNF'
p25
aS'Id'
p26
aS'string'
p27
aS'Authority'
p28
aS'data'
p29
aS'of'
p30
aS'people'
p31
aS'listed'
p32
aS'in'
p33
aS'the'
p34
aS'general'
p35
aS'catalogue'
p36
aS'of'
p37
aS'the'
p38
aS'National'
p39
aS'Library'
p40
aS'of'
p41
aS'France108108'
p42
asS'chunk_seq'
p43
(lp44
S'B-NP'
p45
aS'I-NP'
p46
aS'I-NP'
p47
aS'I-NP'
p48
aS'E-NP'
p49
aS'S-PP'
p50
aS'S-NP'
p51
aS'S-VP'
p52
aS'S-PP'
p53
aS'B-NP'
p54
aS'I-NP'
p55
aS'E-NP'
p56
aS'S-PP'
p57
aS'B-NP'
p58
aS'I-NP'
p59
aS'E-NP'
p60
aS'S-PP'
p61
aS'S-NP'
p62
asS'dep_seq'
p63
(lp64
(lp65
S'nn'
p66
aS'5'
aS'1'
aa(lp67
S'nn'
p68
aS'5'
aS'2'
aa(lp69
S'nn'
p70
aS'5'
aS'3'
aa(lp71
S'nn'
p72
aS'5'
aS'4'
aa(lp73
S'root'
p74
aS'0'
aS'5'
aa(lp75
S'prep_of'
p76
aS'5'
aS'7'
aa(lp77
S'partmod'
p78
aS'7'
aS'8'
aa(lp79
S'det'
p80
aS'12'
p81
aS'10'
p82
aa(lp83
S'amod'
p84
aS'12'
p85
aS'11'
p86
aa(lp87
S'prep_in'
p88
aS'8'
aS'12'
p89
aa(lp90
S'det'
p91
aS'16'
p92
aS'14'
p93
aa(lp94
S'nn'
p95
aS'16'
p96
aS'15'
p97
aa(lp98
S'prep_of'
p99
aS'12'
p100
aS'16'
p101
aa(lp102
S'prep_of'
p103
aS'16'
p104
aS'18'
p105
aasS'srls'
p106
(lp107
(dp108
S'A1'
p109
g31
sS'A2'
p110
S'in the general catalogue of the National Library of France108108'
p111
sS'V'
g32
sasS'pos_seq'
p112
(lp113
S'NNP'
p114
aS'NNP'
p115
aS'NN'
p116
aS'NN'
p117
aS'NNS'
p118
aS'IN'
p119
aS'NNS'
p120
aS'VBN'
p121
aS'IN'
p122
aS'DT'
p123
aS'JJ'
p124
aS'NN'
p125
aS'IN'
p126
aS'DT'
p127
aS'NNP'
p128
aS'NNP'
p129
aS'IN'
p130
aS'NNP'
p131
asS'ner_seq'
p132
(lp133
S'S-MISC'
p134
aS'O'
aS'O'
aS'O'
aS'O'
aS'O'
aS'O'
aS'O'
aS'O'
aS'O'
aS'O'
aS'O'
aS'O'
aS'O'
aS'B-ORG'
p135
aS'I-ORG'
p136
aS'I-ORG'
p137
aS'E-ORG'
p138
assb.