ccopy_reg
_reconstructor
p1
(c__main__
KBproperty
p2
c__builtin__
object
p3
NtRp4
(dp5
S'comment'
p6
S'29252908'
p7
sS'domain'
p8
S''
sS'instances_count'
p9
I1787
sS'phrases'
p10
NsS'syn_hypo'
p11
S''
sS'label'
p12
S'secondLeader'
p13
sS'range'
p14
S'Person '
p15
sS'uniq_subjs'
p16
S'1787'
p17
sS'uniq_objs'
p18
I0
sS'prop_uri'
p19
S'http://dbpedia.org/ontology/secondLeader'
p20
sS'annotations'
p21
(dp22
S'bag_of_words'
p23
(lp24
S'secondLeader'
p25
aS'Person'
p26
aS'29252908'
p27
asS'chunk_seq'
p28
(lp29
S'B-NP'
p30
aS'E-NP'
p31
aS'S-ADJP'
p32
asS'dep_seq'
p33
(lp34
(lp35
S'amod'
p36
aS'2'
aS'1'
aa(lp37
S'root'
p38
aS'0'
aS'2'
aa(lp39
S'punct'
p40
aS'2'
aS'3'
aasS'srls'
p41
(lp42
sS'pos_seq'
p43
(lp44
S'JJR'
p45
aS'NN'
p46
aS'.'
asS'ner_seq'
p47
(lp48
S'O'
aS'O'
aS'O'
assb.