ccopy_reg
_reconstructor
p1
(c__main__
KBproperty
p2
c__builtin__
object
p3
NtRp4
(dp5
S'comment'
p6
S'The Internet Broadway Database ID IBDB ID from ibdb.com.11'
p7
sS'domain'
p8
S'Play '
p9
sS'instances_count'
p10
I1
sS'phrases'
p11
NsS'syn_hypo'
p12
S''
sS'label'
p13
S'IBDB ID'
p14
sS'range'
p15
S'string '
p16
sS'uniq_subjs'
p17
S'1'
sS'uniq_objs'
p18
I0
sS'prop_uri'
p19
S'http://dbpedia.org/ontology/ibdbId'
p20
sS'annotations'
p21
(dp22
S'bag_of_words'
p23
(lp24
S'Play'
p25
aS'IBDB'
p26
aS'ID'
p27
aS'string'
p28
aS'The'
p29
aS'Internet'
p30
aS'Broadway'
p31
aS'Database'
p32
aS'ID'
p33
aS'IBDB'
p34
aS'ID'
p35
aS'from'
p36
aS'ibdb'
p37
aS'.com'
p38
aS'.11'
p39
asS'chunk_seq'
p40
(lp41
S'S-VP'
p42
aS'B-NP'
p43
aS'I-NP'
p44
aS'E-NP'
p45
aS'B-NP'
p46
aS'I-NP'
p47
aS'I-NP'
p48
aS'I-NP'
p49
aS'I-NP'
p50
aS'I-NP'
p51
aS'E-NP'
p52
aS'S-PP'
p53
aS'B-NP'
p54
aS'E-NP'
p55
aS'O'
asS'dep_seq'
p56
(lp57
(lp58
S'root'
p59
aS'0'
aS'1'
aa(lp60
S'nn'
p61
aS'4'
aS'2'
aa(lp62
S'nn'
p63
aS'4'
aS'3'
aa(lp64
S'iobj'
p65
aS'1'
aS'4'
aa(lp66
S'det'
p67
aS'11'
p68
aS'5'
aa(lp69
S'nn'
p70
aS'11'
p71
aS'6'
aa(lp72
S'nn'
p73
aS'11'
p74
aS'7'
aa(lp75
S'nn'
p76
aS'11'
p77
aS'8'
aa(lp78
S'nn'
p79
aS'11'
p80
aS'9'
aa(lp81
S'nn'
p82
aS'11'
p83
aS'10'
p84
aa(lp85
S'dobj'
p86
aS'1'
aS'11'
p87
aa(lp88
S'nn'
p89
aS'15'
p90
aS'13'
p91
aa(lp92
S'nn'
p93
aS'15'
p94
aS'14'
p95
aa(lp96
S'prep_from'
p97
aS'11'
p98
aS'15'
p99
aasS'srls'
p100
(lp101
(dp102
S'A1'
p103
S'IBDB ID string'
p104
sS'A0'
p105
S'The Internet Broadway Database ID IBDB ID'
p106
sS'A3'
p107
S'from ibdb .com .11'
p108
sS'V'
g25
sasS'pos_seq'
p109
(lp110
S'VB'
p111
aS'NNP'
p112
aS'NNP'
p113
aS'NN'
p114
aS'DT'
p115
aS'NNP'
p116
aS'NNP'
p117
aS'NNP'
p118
aS'NNP'
p119
aS'NNP'
p120
aS'NN'
p121
aS'IN'
p122
aS'FW'
p123
aS'FW'
p124
aS'FW'
p125
asS'ner_seq'
p126
(lp127
S'O'
aS'S-MISC'
p128
aS'O'
aS'O'
aS'O'
aS'B-ORG'
p129
aS'I-ORG'
p130
aS'E-ORG'
p131
aS'O'
aS'O'
aS'O'
aS'O'
aS'O'
aS'O'
aS'O'
assb.