ccopy_reg
_reconstructor
p1
(c__main__
KBproperty
p2
c__builtin__
object
p3
NtRp4
(dp5
S'comment'
p6
S'16051536'
p7
sS'domain'
p8
S'Aircraft '
p9
sS'instances_count'
p10
I1150
sS'phrases'
p11
NsS'syn_hypo'
p12
S''
sS'label'
p13
S'unit cost $'
p14
sS'range'
p15
S'double '
p16
sS'uniq_subjs'
p17
S'1150'
p18
sS'uniq_objs'
p19
I0
sS'prop_uri'
p20
S'http://dbpedia.org/ontology/unitCost'
p21
sS'annotations'
p22
(dp23
S'bag_of_words'
p24
(lp25
S'Aircraft'
p26
aS'unit'
p27
aS'cost'
p28
aS'$'
aS'double'
p29
aS'16051536'
p30
asS'chunk_seq'
p31
(lp32
S'B-NP'
p33
aS'E-NP'
p34
aS'S-VP'
p35
aS'B-NP'
p36
aS'I-NP'
p37
aS'E-NP'
p38
asS'dep_seq'
p39
(lp40
(lp41
S'nn'
p42
aS'2'
aS'1'
aa(lp43
S'nsubj'
p44
aS'3'
aS'2'
aa(lp45
S'root'
p46
aS'0'
aS'3'
aa(lp47
S'dep'
p48
aS'6'
aS'4'
aa(lp49
S'amod'
p50
aS'6'
aS'5'
aa(lp51
S'dobj'
p52
aS'3'
aS'6'
aasS'srls'
p53
(lp54
(dp55
S'A1'
p56
S'Aircraft unit'
p57
sS'A2'
p58
S'$ double 16051536'
p59
sS'V'
g28
sasS'pos_seq'
p60
(lp61
S'NNP'
p62
aS'NN'
p63
aS'VBD'
p64
aS'$'
aS'JJ'
p65
aS'NN'
p66
asS'ner_seq'
p67
(lp68
S'O'
aS'O'
aS'O'
aS'O'
aS'O'
aS'O'
assb.