ccopy_reg
_reconstructor
p1
(c__main__
KBproperty
p2
c__builtin__
object
p3
NtRp4
(dp5
S'comment'
p6
S'00'
p7
sS'domain'
p8
S'Canal '
p9
sS'instances_count'
p10
I0
sS'phrases'
p11
NsS'syn_hypo'
p12
S''
sS'label'
p13
S'date extended'
p14
sS'range'
p15
S'date '
p16
sS'uniq_subjs'
p17
S'0'
sS'uniq_objs'
p18
I0
sS'prop_uri'
p19
S'http://dbpedia.org/ontology/dateExtended'
p20
sS'annotations'
p21
(dp22
S'bag_of_words'
p23
(lp24
S'Canal'
p25
aS'date'
p26
aS'extended'
p27
aS'date'
p28
aS'00'
p29
asS'chunk_seq'
p30
(lp31
S'B-NP'
p32
aS'E-NP'
p33
aS'S-VP'
p34
aS'S-NP'
p35
aS'O'
asS'dep_seq'
p36
(lp37
(lp38
S'nn'
p39
aS'2'
aS'1'
aa(lp40
S'nsubj'
p41
aS'3'
aS'2'
aa(lp42
S'root'
p43
aS'0'
aS'3'
aa(lp44
S'dobj'
p45
aS'3'
aS'4'
aa(lp46
S'iobj'
p47
aS'3'
aS'4'
aa(lp48
S'dobj'
p49
aS'3'
aS'5'
aa(lp50
S'dep'
p51
aS'4'
aS'5'
aasS'srls'
p52
(lp53
(dp54
S'A1'
p55
S'Canal date'
p56
sS'A2'
p57
S'date 00'
p58
sS'V'
g27
sasS'pos_seq'
p59
(lp60
S'NN'
p61
aS'NN'
p62
aS'VBD'
p63
aS'NN'
p64
aS'CD'
p65
asS'ner_seq'
p66
(lp67
S'O'
aS'O'
aS'O'
aS'O'
aS'O'
assb.