ccopy_reg
_reconstructor
p1
(c__main__
KBproperty
p2
c__builtin__
object
p3
NtRp4
(dp5
S'comment'
p6
S'Award a person has received literal. Compare to award ObjectProperty00'
p7
sS'domain'
p8
S'Person '
p9
sS'instances_count'
p10
I0
sS'phrases'
p11
NsS'syn_hypo'
p12
S''
sS'label'
p13
S'awardName'
p14
sS'range'
p15
S'string '
p16
sS'uniq_subjs'
p17
S'0'
sS'uniq_objs'
p18
I0
sS'prop_uri'
p19
S'http://dbpedia.org/ontology/awardName'
p20
sS'annotations'
p21
(dp22
S'bag_of_words'
p23
(lp24
S'Person'
p25
aS'awardName'
p26
aS'string'
p27
aS'Award'
p28
aS'a'
aS'person'
p29
aS'has'
p30
aS'received'
p31
aS'literal'
p32
aS'.'
aS'Compare'
p33
aS'to'
p34
aS'award'
p35
aS'ObjectProperty00'
p36
asS'chunk_seq'
p37
(lp38
S'B-NP'
p39
aS'I-NP'
p40
aS'I-NP'
p41
aS'E-NP'
p42
aS'B-NP'
p43
aS'E-NP'
p44
aS'B-VP'
p45
aS'E-VP'
p46
aS'S-ADJP'
p47
aS'O'
aS'S-VP'
p48
aS'S-PP'
p49
aS'B-NP'
p50
aS'E-NP'
p51
asS'dep_seq'
p52
(lp53
(lp54
S'nn'
p55
aS'4'
aS'1'
aa(lp56
S'amod'
p57
aS'4'
aS'2'
aa(lp58
S'nn'
p59
aS'4'
aS'3'
aa(lp60
S'root'
p61
aS'0'
aS'4'
aa(lp62
S'dobj'
p63
aS'8'
aS'4'
aa(lp64
S'det'
p65
aS'6'
aS'5'
aa(lp66
S'nsubj'
p67
aS'8'
aS'6'
aa(lp68
S'aux'
p69
aS'8'
aS'7'
aa(lp70
S'rcmod'
p71
aS'4'
aS'8'
aa(lp72
S'acomp'
p73
aS'8'
aS'9'
aa(lp74
S'dep'
p75
aS'4'
aS'11'
p76
aa(lp77
S'aux'
p78
aS'13'
p79
aS'12'
p80
aa(lp81
S'xcomp'
p82
aS'11'
p83
aS'13'
p84
aa(lp85
S'dobj'
p86
aS'13'
p87
aS'14'
p88
aasS'srls'
p89
(lp90
(dp91
S'A0'
p92
S'Person awardName string Award a person'
p93
sS'AM-MNR'
p94
g32
sS'V'
g31
sa(dp95
S'A2'
p96
S'to award ObjectProperty00'
p97
sS'V'
g33
sa(dp98
S'A1'
p99
g36
sS'V'
g35
sasS'pos_seq'
p100
(lp101
S'NN'
p102
aS'JJ'
p103
aS'NN'
p104
aS'NNP'
p105
aS'DT'
p106
aS'NN'
p107
aS'VBZ'
p108
aS'VBN'
p109
aS'JJ'
p110
aS'.'
aS'VB'
p111
aS'TO'
p112
aS'VB'
p113
aS'NNP'
p114
asS'ner_seq'
p115
(lp116
S'O'
aS'O'
aS'O'
aS'O'
aS'O'
aS'O'
aS'O'
aS'O'
aS'O'
aS'O'
aS'O'
aS'O'
aS'O'
aS'S-PER'
p117
assb.