ccopy_reg
_reconstructor
p1
(c__main__
KBproperty
p2
c__builtin__
object
p3
NtRp4
(dp5
S'comment'
p6
S'00'
p7
sS'domain'
p8
S'Space Mission '
p9
sS'instances_count'
p10
I0
sS'phrases'
p11
NsS'syn_hypo'
p12
Vlanderspacecraftballistic_capsulespace_vehiclelunar_excursion_modulespacecraftballistic_capsulespace_vehiclelunar_modulespacecraftballistic_capsulespace_vehicleLEMspacecraftballistic_capsulespace_vehiclespace_capsulespacecraftballistic_capsulespace_vehiclecapsulespacecraftballistic_capsulespace_vehiclespace_shuttlespacecraftballistic_capsulespace_vehiclestarshipspacecraftballistic_capsulespace_vehiclespaceship
p13
sS'label'
p14
S'spacecraft'
p15
sS'range'
p16
S'Spacecraft '
p17
sS'uniq_subjs'
p18
S'0'
sS'uniq_objs'
p19
I0
sS'prop_uri'
p20
S'http://dbpedia.org/ontology/spacecraft'
p21
sS'annotations'
p22
(dp23
S'bag_of_words'
p24
(lp25
S'Space'
p26
aS'Mission'
p27
aS'spacecraft'
p28
aS'Spacecraft'
p29
aS'00'
p30
asS'chunk_seq'
p31
(lp32
S'B-NP'
p33
aS'I-NP'
p34
aS'I-NP'
p35
aS'E-NP'
p36
aS'S-ADVP'
p37
asS'dep_seq'
p38
(lp39
(lp40
S'nn'
p41
aS'4'
aS'1'
aa(lp42
S'nn'
p43
aS'4'
aS'2'
aa(lp44
S'nn'
p45
aS'4'
aS'3'
aa(lp46
S'root'
p47
aS'0'
aS'4'
aa(lp48
S'num'
p49
aS'4'
aS'5'
aasS'srls'
p50
(lp51
sS'pos_seq'
p52
(lp53
S'NNP'
p54
aS'NNP'
p55
aS'NN'
p56
aS'NN'
p57
aS'CD'
p58
asS'ner_seq'
p59
(lp60
S'B-ORG'
p61
aS'E-ORG'
p62
aS'O'
aS'O'
aS'O'
assb.