ccopy_reg
_reconstructor
p1
(c__main__
KBproperty
p2
c__builtin__
object
p3
NtRp4
(dp5
S'comment'
p6
S'Has KML data associated with it usually because of KML overlays'
p7
sS'domain'
p8
S'File '
p9
sS'instances_count'
p10
I0
sS'phrases'
p11
NsS'syn_hypo'
p12
S''
sS'label'
p13
g7
sS'range'
p14
S'string '
p15
sS'uniq_subjs'
p16
S'0'
sS'uniq_objs'
p17
I0
sS'prop_uri'
p18
S'http://dbpedia.org/ontology/hasKMLData'
p19
sS'annotations'
p20
(dp21
S'bag_of_words'
p22
(lp23
S'File'
p24
aS'has'
p25
aS'Data'
p26
aS'string'
p27
aS'Has'
p28
aS'KML'
p29
aS'data'
p30
aS'associated'
p31
aS'with'
p32
aS'it'
p33
aS'usually'
p34
aS'because'
p35
aS'of'
p36
aS'KML'
p37
aS'overlays'
p38
asS'chunk_seq'
p39
(lp40
S'S-NP'
p41
aS'S-VP'
p42
aS'B-NP'
p43
aS'E-NP'
p44
aS'S-VP'
p45
aS'B-NP'
p46
aS'E-NP'
p47
aS'S-VP'
p48
aS'S-PP'
p49
aS'S-NP'
p50
aS'S-ADVP'
p51
aS'B-PP'
p52
aS'E-PP'
p53
aS'B-NP'
p54
aS'E-NP'
p55
asS'dep_seq'
p56
(lp57
(lp58
S'nsubj'
p59
aS'2'
aS'1'
aa(lp60
S'root'
p61
aS'0'
aS'2'
aa(lp62
S'nn'
p63
aS'4'
aS'3'
aa(lp64
S'nsubj'
p65
aS'5'
aS'4'
aa(lp66
S'ccomp'
p67
aS'2'
aS'5'
aa(lp68
S'amod'
p69
aS'7'
aS'6'
aa(lp70
S'dobj'
p71
aS'5'
aS'7'
aa(lp72
S'partmod'
p73
aS'7'
aS'8'
aa(lp74
S'prep_with'
p75
aS'8'
aS'10'
p76
aa(lp77
S'advmod'
p78
aS'8'
aS'11'
p79
aa(lp80
S'nn'
p81
aS'15'
p82
aS'14'
p83
aa(lp84
S'prep_because_of'
p85
aS'8'
aS'15'
p86
aasS'srls'
p87
(lp88
(dp89
S'A1'
p90
S'KML data associated with it usually because of KML overlays'
p91
sS'A0'
p92
S'Data string'
p93
sS'V'
g28
sa(dp94
S'A1'
p95
S'KML data'
p96
sS'A2'
p97
S'with it'
p98
sS'V'
g31
sasS'pos_seq'
p99
(lp100
S'NN'
p101
aS'VBZ'
p102
aS'NNP'
p103
aS'NN'
p104
aS'VBZ'
p105
aS'JJ'
p106
aS'NNS'
p107
aS'VBN'
p108
aS'IN'
p109
aS'PRP'
p110
aS'RB'
p111
aS'IN'
p112
aS'IN'
p113
aS'NNP'
p114
aS'NNS'
p115
asS'ner_seq'
p116
(lp117
S'O'
aS'O'
aS'O'
aS'O'
aS'O'
aS'S-ORG'
p118
aS'O'
aS'O'
aS'O'
aS'O'
aS'O'
aS'O'
aS'O'
aS'S-LOC'
p119
aS'O'
assb.