ccopy_reg
_reconstructor
p1
(c__main__
KBproperty
p2
c__builtin__
object
p3
NtRp4
(dp5
S'comment'
p6
S'484450'
p7
sS'domain'
p8
S'Mean Of Transportation '
p9
sS'instances_count'
p10
I40
sS'phrases'
p11
NsS'syn_hypo'
p12
S''
sS'label'
p13
S'engine type'
p14
sS'range'
p15
S''
sS'uniq_subjs'
p16
S'40'
p17
sS'uniq_objs'
p18
I0
sS'prop_uri'
p19
S'http://dbpedia.org/ontology/engineType'
p20
sS'annotations'
p21
(dp22
S'bag_of_words'
p23
(lp24
S'Mean'
p25
aS'Of'
p26
aS'Transportation'
p27
aS'engine'
p28
aS'type'
p29
aS'484450'
p30
asS'chunk_seq'
p31
(lp32
S'S-NP'
p33
aS'S-PP'
p34
aS'S-NP'
p35
aS'B-NP'
p36
aS'E-NP'
p37
aS'O'
asS'dep_seq'
p38
(lp39
(lp40
S'dep'
p41
aS'5'
aS'1'
aa(lp42
S'prep_of'
p43
aS'1'
aS'3'
aa(lp44
S'nn'
p45
aS'5'
aS'4'
aa(lp46
S'root'
p47
aS'0'
aS'5'
aa(lp48
S'advmod'
p49
aS'5'
aS'6'
aasS'srls'
p50
(lp51
sS'pos_seq'
p52
(lp53
S'NNP'
p54
aS'IN'
p55
aS'NNP'
p56
aS'NN'
p57
aS'NN'
p58
aS'CD'
p59
asS'ner_seq'
p60
(lp61
S'O'
aS'O'
aS'O'
aS'O'
aS'O'
aS'O'
assb.