ccopy_reg
_reconstructor
p1
(c__main__
KBproperty
p2
c__builtin__
object
p3
NtRp4
(dp5
S'comment'
p6
S'Type of station structure underground at-grade or elevated.69546901'
p7
sS'domain'
p8
S'Station '
p9
sS'instances_count'
p10
I6954
sS'phrases'
p11
NsS'syn_hypo'
p12
S''
sS'label'
p13
S'station structure'
p14
sS'range'
p15
S'string '
p16
sS'uniq_subjs'
p17
S'478'
p18
sS'uniq_objs'
p19
I0
sS'prop_uri'
p20
S'http://dbpedia.org/ontology/stationStructure'
p21
sS'annotations'
p22
(dp23
S'bag_of_words'
p24
(lp25
S'Station'
p26
aS'station'
p27
aS'structure'
p28
aS'string'
p29
aS'Type'
p30
aS'of'
p31
aS'station'
p32
aS'structure'
p33
aS'underground'
p34
aS'at'
p35
aS'-'
aS'grade'
p36
aS'or'
p37
aS'elevated.69546901'
p38
asS'chunk_seq'
p39
(lp40
S'B-NP'
p41
aS'I-NP'
p42
aS'I-NP'
p43
aS'I-NP'
p44
aS'E-NP'
p45
aS'S-PP'
p46
aS'B-NP'
p47
aS'E-NP'
p48
aS'S-ADVP'
p49
aS'S-PP'
p50
aS'O'
aS'B-NP'
p51
aS'I-NP'
p52
aS'E-NP'
p53
asS'dep_seq'
p54
(lp55
(lp56
S'nn'
p57
aS'5'
aS'1'
aa(lp58
S'nn'
p59
aS'5'
aS'2'
aa(lp60
S'nn'
p61
aS'5'
aS'3'
aa(lp62
S'nn'
p63
aS'5'
aS'4'
aa(lp64
S'dep'
p65
aS'12'
p66
aS'5'
aa(lp67
S'nn'
p68
aS'8'
aS'7'
aa(lp69
S'prep_of'
p70
aS'5'
aS'8'
aa(lp71
S'advmod'
p72
aS'10'
p73
aS'9'
aa(lp74
S'dep'
p75
aS'12'
p76
aS'10'
p77
aa(lp78
S'root'
p79
aS'0'
aS'12'
p80
aa(lp81
S'conj_or'
p82
aS'12'
p83
aS'14'
p84
aasS'srls'
p85
(lp86
sS'pos_seq'
p87
(lp88
S'NN'
p89
aS'NN'
p90
aS'NN'
p91
aS'NN'
p92
aS'NN'
p93
aS'IN'
p94
aS'NN'
p95
aS'NN'
p96
aS'RB'
p97
aS'IN'
p98
aS':'
aS'NN'
p99
aS'CC'
p100
aS'NN'
p101
asS'ner_seq'
p102
(lp103
S'O'
aS'O'
aS'O'
aS'O'
aS'O'
aS'O'
aS'O'
aS'O'
aS'O'
aS'O'
aS'O'
aS'O'
aS'O'
aS'O'
assb.