ccopy_reg
_reconstructor
p1
(c__main__
KBproperty
p2
c__builtin__
object
p3
NtRp4
(dp5
S'comment'
p6
S'http://www.w3.org/2001/XMLSchema#positiveInteger'
p7
sS'domain'
p8
S'Mean Of Transportation '
p9
sS'instances_count'
p10
I0
sS'phrases'
p11
NsS'syn_hypo'
p12
S''
sS'label'
p13
g7
sS'range'
p14
S'Instrument '
p15
sS'uniq_subjs'
p16
S'0'
sS'uniq_objs'
p17
I0
sS'prop_uri'
p18
S'http://dbpedia.org/ontology/range'
p19
sS'annotations'
p20
(dp21
S'bag_of_words'
p22
(lp23
S'Mean'
p24
aS'Of'
p25
aS'Transportation'
p26
aS'range'
p27
aS'Instrument'
p28
aS'http'
p29
aS':'
aS'//'
p30
aS'www'
p31
aS'.'
aS'w3'
p32
aS'.org'
p33
aS'/2001'
p34
aS'/'
aS'XMLSchema'
p35
aS'#'
aS'positiveInteger'
p36
asS'chunk_seq'
p37
(lp38
S'S-NP'
p39
aS'S-PP'
p40
aS'B-NP'
p41
aS'I-NP'
p42
aS'I-NP'
p43
aS'E-NP'
p44
aS'O'
aS'B-NP'
p45
aS'E-NP'
p46
aS'O'
aS'O'
aS'O'
aS'O'
aS'O'
aS'O'
aS'O'
aS'O'
asS'dep_seq'
p47
(lp48
(lp49
S'root'
p50
aS'0'
aS'1'
aa(lp51
S'nn'
p52
aS'6'
aS'3'
aa(lp53
S'nn'
p54
aS'6'
aS'4'
aa(lp55
S'nn'
p56
aS'6'
aS'5'
aa(lp57
S'prep_of'
p58
aS'1'
aS'6'
aa(lp59
S'nn'
p60
aS'9'
aS'8'
aa(lp61
S'dep'
p62
aS'1'
aS'9'
aa(lp63
S'nn'
p64
aS'9'
aS'11'
p65
aa(lp66
S'nn'
p67
aS'9'
aS'12'
p68
aa(lp69
S'dep'
p70
aS'9'
aS'13'
p71
aa(lp72
S'dep'
p73
aS'9'
aS'14'
p74
aa(lp75
S'nn'
p76
aS'17'
p77
aS'15'
p78
aa(lp79
S'nn'
p80
aS'17'
p81
aS'16'
p82
aa(lp83
S'dep'
p84
aS'9'
aS'17'
p85
aasS'srls'
p86
(lp87
sS'pos_seq'
p88
(lp89
S'NNP'
p90
aS'IN'
p91
aS'NNP'
p92
aS'NN'
p93
aS'NN'
p94
aS'NN'
p95
aS':'
aS'NN'
p96
aS'NN'
p97
aS'.'
aS'FW'
p98
aS'FW'
p99
aS'FW'
p100
aS'FW'
p101
aS'FW'
p102
aS'FW'
p103
aS'FW'
p104
asS'ner_seq'
p105
(lp106
S'O'
aS'B-ORG'
p107
aS'E-ORG'
p108
aS'O'
aS'O'
aS'O'
aS'O'
aS'O'
aS'O'
aS'O'
aS'O'
aS'O'
aS'O'
aS'O'
aS'O'
aS'O'
aS'S-LOC'
p109
assb.