ccopy_reg
_reconstructor
p1
(c__main__
KBproperty
p2
c__builtin__
object
p3
NtRp4
(dp5
S'comment'
p6
S'254249'
p7
sS'domain'
p8
S''
sS'instances_count'
p9
I234
sS'phrases'
p10
NsS'syn_hypo'
p11
S''
sS'label'
p12
S'date of abandonment'
p13
sS'range'
p14
S'date '
p15
sS'uniq_subjs'
p16
S'234'
p17
sS'uniq_objs'
p18
I0
sS'prop_uri'
p19
S'http://dbpedia.org/ontology/dateOfAbandonment'
p20
sS'annotations'
p21
(dp22
S'bag_of_words'
p23
(lp24
S'date'
p25
aS'of'
p26
aS'abandonment'
p27
aS'date'
p28
aS'254249'
p29
asS'chunk_seq'
p30
(lp31
S'S-NP'
p32
aS'S-PP'
p33
aS'B-NP'
p34
aS'E-NP'
p35
aS'S-VP'
p36
asS'dep_seq'
p37
(lp38
(lp39
S'root'
p40
aS'0'
aS'1'
aa(lp41
S'nn'
p42
aS'5'
aS'3'
aa(lp43
S'nn'
p44
aS'5'
aS'4'
aa(lp45
S'prep_of'
p46
aS'1'
aS'5'
aasS'srls'
p47
(lp48
sS'pos_seq'
p49
(lp50
S'NN'
p51
aS'IN'
p52
aS'NN'
p53
aS'NN'
p54
aS'NN'
p55
asS'ner_seq'
p56
(lp57
S'O'
aS'O'
aS'O'
aS'O'
aS'O'
assb.