ccopy_reg
_reconstructor
p1
(c__main__
KBproperty
p2
c__builtin__
object
p3
NtRp4
(dp5
S'comment'
p6
S'Land Registry code designating a parcel of land00'
p7
sS'domain'
p8
S'Place '
p9
sS'instances_count'
p10
I0
sS'phrases'
p11
NsS'syn_hypo'
p12
S''
sS'label'
p13
S'code land registry'
p14
sS'range'
p15
S'string '
p16
sS'uniq_subjs'
p17
S'0'
sS'uniq_objs'
p18
I0
sS'prop_uri'
p19
S'http://dbpedia.org/ontology/codeLandRegistry'
p20
sS'annotations'
p21
(dp22
S'bag_of_words'
p23
(lp24
S'Place'
p25
aS'code'
p26
aS'land'
p27
aS'registry'
p28
aS'string'
p29
aS'Land'
p30
aS'Registry'
p31
aS'code'
p32
aS'designating'
p33
aS'a'
aS'parcel'
p34
aS'of'
p35
aS'land00'
p36
asS'chunk_seq'
p37
(lp38
S'B-NP'
p39
aS'I-NP'
p40
aS'I-NP'
p41
aS'I-NP'
p42
aS'I-NP'
p43
aS'I-NP'
p44
aS'I-NP'
p45
aS'E-NP'
p46
aS'S-VP'
p47
aS'B-NP'
p48
aS'E-NP'
p49
aS'S-PP'
p50
aS'S-NP'
p51
asS'dep_seq'
p52
(lp53
(lp54
S'nn'
p55
aS'8'
aS'1'
aa(lp56
S'nn'
p57
aS'8'
aS'2'
aa(lp58
S'nn'
p59
aS'8'
aS'3'
aa(lp60
S'nn'
p61
aS'8'
aS'4'
aa(lp62
S'nn'
p63
aS'8'
aS'5'
aa(lp64
S'nn'
p65
aS'8'
aS'6'
aa(lp66
S'nn'
p67
aS'8'
aS'7'
aa(lp68
S'root'
p69
aS'0'
aS'8'
aa(lp70
S'partmod'
p71
aS'8'
aS'9'
aa(lp72
S'det'
p73
aS'11'
p74
aS'10'
p75
aa(lp76
S'dobj'
p77
aS'9'
aS'11'
p78
aa(lp79
S'prep_of'
p80
aS'11'
p81
aS'13'
p82
aasS'srls'
p83
(lp84
(dp85
S'A1'
p86
S'a parcel of land00'
p87
sS'A0'
p88
S'Place code land registry string Land Registry code'
p89
sS'V'
g33
sasS'pos_seq'
p90
(lp91
S'NN'
p92
aS'NN'
p93
aS'NN'
p94
aS'NN'
p95
aS'NN'
p96
aS'NNP'
p97
aS'NNP'
p98
aS'NN'
p99
aS'VBG'
p100
aS'DT'
p101
aS'NN'
p102
aS'IN'
p103
aS'NN'
p104
asS'ner_seq'
p105
(lp106
S'O'
aS'O'
aS'O'
aS'O'
aS'O'
aS'B-ORG'
p107
aS'E-ORG'
p108
aS'O'
aS'O'
aS'O'
aS'O'
aS'O'
aS'O'
assb.