ccopy_reg
_reconstructor
p1
(c__main__
KBproperty
p2
c__builtin__
object
p3
NtRp4
(dp5
S'comment'
p6
S'apoapsis \\xce\\xbc'
p7
sS'domain'
p8
S'Celestial Body '
p9
sS'instances_count'
p10
I2856
sS'phrases'
p11
NsS'syn_hypo'
p12
S''
sS'label'
p13
g7
sS'range'
p14
S'double '
p15
sS'uniq_subjs'
p16
S'2856'
p17
sS'uniq_objs'
p18
I0
sS'prop_uri'
p19
S'http://dbpedia.org/ontology/apoapsis'
p20
sS'annotations'
p21
(dp22
S'bag_of_words'
p23
(lp24
S'Celestial'
p25
aS'Body'
p26
aS'apoapsis'
p27
aS'double'
p28
aS'apoapsis'
p29
aS'\\'
aS'xce'
p30
aS'\\'
aS'xbc'
p31
asS'chunk_seq'
p32
(lp33
S'B-NP'
p34
aS'E-NP'
p35
aS'S-NP'
p36
aS'S-VP'
p37
aS'O'
aS'O'
aS'O'
aS'O'
aS'O'
asS'dep_seq'
p38
(lp39
(lp40
S'amod'
p41
aS'2'
aS'1'
aa(lp42
S'nsubj'
p43
aS'9'
aS'2'
aa(lp44
S'dep'
p45
aS'9'
aS'3'
aa(lp46
S'nn'
p47
aS'9'
aS'4'
aa(lp48
S'nn'
p49
aS'9'
aS'5'
aa(lp50
S'nn'
p51
aS'9'
aS'6'
aa(lp52
S'nn'
p53
aS'9'
aS'7'
aa(lp54
S'nn'
p55
aS'9'
aS'8'
aa(lp56
S'root'
p57
aS'0'
aS'9'
aasS'srls'
p58
(lp59
sS'pos_seq'
p60
(lp61
S'JJ'
p62
aS'NN'
p63
aS'FW'
p64
aS'FW'
p65
aS'FW'
p66
aS'FW'
p67
aS'FW'
p68
aS'FW'
p69
aS'FW'
p70
asS'ner_seq'
p71
(lp72
S'O'
aS'O'
aS'O'
aS'O'
aS'O'
aS'O'
aS'O'
aS'O'
aS'O'
assb.