ccopy_reg
_reconstructor
p1
(c__main__
KBproperty
p2
c__builtin__
object
p3
NtRp4
(dp5
S'comment'
p6
S'A rank in the classification of organisms below kingdom and above class; also called a division especially in describing plants; a taxon at that rank.241730229050'
p7
sS'domain'
p8
S'Species '
p9
sS'instances_count'
p10
I241730
sS'phrases'
p11
NsS'syn_hypo'
p12
V
sS'label'
p13
S'phylum'
p14
sS'range'
p15
S''
sS'uniq_subjs'
p16
S'230'
p17
sS'uniq_objs'
p18
I0
sS'prop_uri'
p19
S'http://dbpedia.org/ontology/phylum'
p20
sS'annotations'
p21
(dp22
S'bag_of_words'
p23
(lp24
S'Species'
p25
aS'phylum'
p26
aS'A'
aS'rank'
p27
aS'in'
p28
aS'the'
p29
aS'classification'
p30
aS'of'
p31
aS'organisms'
p32
aS'below'
p33
aS'kingdom'
p34
aS'and'
p35
aS'above'
p36
aS'class'
p37
aS';'
aS'also'
p38
aS'called'
p39
aS'a'
aS'division'
p40
aS'especially'
p41
aS'in'
p42
aS'describing'
p43
aS'plants'
p44
aS';'
aS'a'
aS'taxon'
p45
aS'at'
p46
aS'that'
p47
aS'rank.241730229050'
p48
asS'chunk_seq'
p49
(lp50
S'B-NP'
p51
aS'I-NP'
p52
aS'I-NP'
p53
aS'E-NP'
p54
aS'S-PP'
p55
aS'B-NP'
p56
aS'E-NP'
p57
aS'S-PP'
p58
aS'S-NP'
p59
aS'S-PP'
p60
aS'S-NP'
p61
aS'O'
aS'S-PP'
p62
aS'S-NP'
p63
aS'O'
aS'S-ADVP'
p64
aS'S-VP'
p65
aS'B-NP'
p66
aS'E-NP'
p67
aS'S-ADVP'
p68
aS'S-PP'
p69
aS'S-VP'
p70
aS'S-NP'
p71
aS'O'
aS'B-NP'
p72
aS'E-NP'
p73
aS'S-PP'
p74
aS'B-NP'
p75
aS'E-NP'
p76
asS'dep_seq'
p77
(lp78
(lp79
S'nn'
p80
aS'2'
aS'1'
aa(lp81
S'nsubj'
p82
aS'17'
p83
aS'2'
aa(lp84
S'det'
p85
aS'4'
aS'3'
aa(lp86
S'dep'
p87
aS'2'
aS'4'
aa(lp88
S'det'
p89
aS'7'
aS'6'
aa(lp90
S'prep_in'
p91
aS'4'
aS'7'
aa(lp92
S'prep_of'
p93
aS'7'
aS'9'
aa(lp94
S'prep_below'
p95
aS'4'
aS'11'
p96
aa(lp97
S'conj_and'
p98
aS'2'
aS'13'
p99
aa(lp100
S'pobj'
p101
aS'13'
p102
aS'14'
p103
aa(lp104
S'advmod'
p105
aS'17'
p106
aS'16'
p107
aa(lp108
S'root'
p109
aS'0'
aS'17'
p110
aa(lp111
S'det'
p112
aS'19'
p113
aS'18'
p114
aa(lp115
S'dobj'
p116
aS'17'
p117
aS'19'
p118
aa(lp119
S'advmod'
p120
aS'17'
p121
aS'20'
p122
aa(lp123
S'prepc_in'
p124
aS'17'
p125
aS'22'
p126
aa(lp127
S'dobj'
p128
aS'22'
p129
aS'23'
p130
aa(lp131
S'det'
p132
aS'26'
p133
aS'25'
p134
aa(lp135
S'dobj'
p136
aS'17'
p137
aS'26'
p138
aa(lp139
S'det'
p140
aS'29'
p141
aS'28'
p142
aa(lp143
S'prep_at'
p144
aS'26'
p145
aS'29'
p146
aasS'srls'
p147
(lp148
(dp149
S'A1'
p150
S'a division'
p151
sS'A0'
p152
S'Species phylum'
p153
sS'AM-DIS'
p154
g38
sS'A2'
p155
S'especially in describing plants'
p156
sS'V'
g39
sa(dp157
S'A1'
p158
g44
sS'A0'
p159
S'a division'
p160
sS'V'
g43
sasS'pos_seq'
p161
(lp162
S'NNS'
p163
aS'NN'
p164
aS'DT'
p165
aS'NN'
p166
aS'IN'
p167
aS'DT'
p168
aS'NN'
p169
aS'IN'
p170
aS'NNS'
p171
aS'IN'
p172
aS'NN'
p173
aS'CC'
p174
aS'IN'
p175
aS'NN'
p176
aS':'
aS'RB'
p177
aS'VBD'
p178
aS'DT'
p179
aS'NN'
p180
aS'RB'
p181
aS'IN'
p182
aS'VBG'
p183
aS'NNS'
p184
aS':'
aS'DT'
p185
aS'NN'
p186
aS'IN'
p187
aS'DT'
p188
aS'NN'
p189
asS'ner_seq'
p190
(lp191
S'O'
aS'O'
aS'O'
aS'O'
aS'O'
aS'O'
aS'O'
aS'O'
aS'O'
aS'O'
aS'O'
aS'O'
aS'O'
aS'O'
aS'O'
aS'O'
aS'O'
aS'O'
aS'O'
aS'O'
aS'O'
aS'O'
aS'O'
aS'O'
aS'O'
aS'O'
aS'O'
aS'O'
aS'O'
assb.