ccopy_reg
_reconstructor
p1
(c__main__
KBproperty
p2
c__builtin__
object
p3
NtRp4
(dp5
S'comment'
p6
S'Notable work of a person eg Artist Engineer etc64433343'
p7
sS'domain'
p8
S'Person '
p9
sS'instances_count'
p10
I6443
sS'phrases'
p11
NsS'syn_hypo'
p12
S''
sS'label'
p13
S'notable work'
p14
sS'range'
p15
S'Work '
p16
sS'uniq_subjs'
p17
S'6209'
p18
sS'uniq_objs'
p19
I0
sS'prop_uri'
p20
S'http://dbpedia.org/ontology/notableWork'
p21
sS'annotations'
p22
(dp23
S'bag_of_words'
p24
(lp25
S'Person'
p26
aS'notable'
p27
aS'work'
p28
aS'Work'
p29
aS'Notable'
p30
aS'work'
p31
aS'of'
p32
aS'a'
aS'person'
p33
aS'eg'
p34
aS'Artist'
p35
aS'Engineer'
p36
aS'etc64433343'
p37
asS'chunk_seq'
p38
(lp39
S'O'
aS'B-NP'
p40
aS'I-NP'
p41
aS'I-NP'
p42
aS'I-NP'
p43
aS'E-NP'
p44
aS'S-PP'
p45
aS'B-NP'
p46
aS'E-NP'
p47
aS'S-PP'
p48
aS'B-NP'
p49
aS'E-NP'
p50
aS'O'
asS'dep_seq'
p51
(lp52
(lp53
S'nn'
p54
aS'6'
aS'1'
aa(lp55
S'amod'
p56
aS'6'
aS'2'
aa(lp57
S'nn'
p58
aS'6'
aS'3'
aa(lp59
S'nn'
p60
aS'6'
aS'4'
aa(lp61
S'amod'
p62
aS'6'
aS'5'
aa(lp63
S'root'
p64
aS'0'
aS'6'
aa(lp65
S'det'
p66
aS'9'
aS'8'
aa(lp67
S'prep_of'
p68
aS'6'
aS'9'
aa(lp69
S'nn'
p70
aS'12'
p71
aS'11'
p72
aa(lp73
S'prep_eg'
p74
aS'6'
aS'12'
p75
aa(lp76
S'punct'
p77
aS'12'
p78
aS'13'
p79
aasS'srls'
p80
(lp81
sS'pos_seq'
p82
(lp83
S'NN'
p84
aS'JJ'
p85
aS'NN'
p86
aS'NN'
p87
aS'JJ'
p88
aS'NN'
p89
aS'IN'
p90
aS'DT'
p91
aS'NN'
p92
aS'IN'
p93
aS'NNP'
p94
aS'NNP'
p95
aS'.'
asS'ner_seq'
p96
(lp97
S'O'
aS'O'
aS'O'
aS'O'
aS'O'
aS'O'
aS'O'
aS'O'
aS'O'
aS'O'
aS'O'
aS'O'
aS'O'
assb.