ccopy_reg
_reconstructor
p1
(c__main__
KBproperty
p2
c__builtin__
object
p3
NtRp4
(dp5
S'comment'
p6
S'artistic movement or school with which artist is associated70335084'
p7
sS'domain'
p8
S'Artist '
p9
sS'instances_count'
p10
I1443
sS'phrases'
p11
NsS'syn_hypo'
p12
Vabductionmotionmovementmovemotilityadductionmotionmovementmovemotilityagitationmotionmovementmovemotilitybody_Englishmotionmovementmovemotilitycircumductionmotionmovementmovemotilitydisturbancemotionmovementmovemotilityeurythmymotionmovementmovemotilityeurhythmymotionmovementmovemotilityeurythmicsmotionmovementmovemotilityeurhythmicsmotionmovementmovemotilityeye_movementmotionmovementmovemotilityfetal_movementmotionmovementmovemotilityfoetal_movementmotionmovementmovemotilityflitmotionmovementmovemotilitydartmotionmovementmovemotilitygesturemotionmovementmovemotilityheadshakemotionmovementmovemotilityheadshakingmotionmovementmovemotilityinclinationmotionmovementmovemotilityincliningmotionmovementmovemotilityinversionmotionmovementmovemotilityupendingmotionmovementmovemotilityinversionmotionmovementmovemotilityeversionmotionmovementmovemotilityevertingmotionmovementmovemotilityjerkmotionmovementmovemotilityjerkingmotionmovementmovemotilityjoltmotionmovementmovemotilitysaccademotionmovementmovemotilitykickmotionmovementmovemotilitykickingmotionmovementmovemotilitykneelmotionmovementmovemotilitykneelingmotionmovementmovemotilitylurchmotionmovementmovemotilitypitchmotionmovementmovemotilitypitchingmotionmovementmovemotilityopeningmotionmovementmovemotilityprostrationmotionmovementmovemotilityreachmotionmovementmovemotilityreachingmotionmovementmovemotilitystretchmotionmovementmovemotilityreciprocationmotionmovementmovemotilityrecliningmotionmovementmovemotilityretractionmotionmovementmovemotilityretroflectionmotionmovementmovemotilityretroflexionmotionmovementmovemotilityrotationmotionmovementmovemotilityrotary_motionmotionmovementmovemotilityshuttingmotionmovementmovemotilityclosingmotionmovementmovemotilitysittingmotionmovementmovemotilityposingmotionmovementmovemotilitysittingmotionmovementmovemotilitysnapmotionmovementmovemotilitysquatmotionmovementmovemotilitysquattingmotionmovementmovemotilitystandingmotionmovementmovemotilitystraddlemotionmovementmovemotilityspanmotionmovementmovemotilitystrokemotionmovementmovemotilitysweepmotionmovementmovemotilitytossmotionmovementmovemotilityvibrationmotionmovementmovemotilityquivermotionmovementmovemotilityquiveringmotionmovementmovemotilitywavemotionmovementmovemotilitywavermotionmovementmovemotilityfluttermotionmovementmovemotilityflickermotionmovementmovemotilitywigglemotionmovementmovemotilitywrigglemotionmovementmovemotilitysquirm
p13
sS'label'
p14
S'movement'
p15
sS'range'
p16
S''
sS'uniq_subjs'
p17
S'1443'
p18
sS'uniq_objs'
p19
I0
sS'prop_uri'
p20
S'http://dbpedia.org/ontology/movement'
p21
sS'annotations'
p22
(dp23
S'bag_of_words'
p24
(lp25
S'Artist'
p26
aS'movement'
p27
aS'artistic'
p28
aS'movement'
p29
aS'or'
p30
aS'school'
p31
aS'with'
p32
aS'which'
p33
aS'artist'
p34
aS'is'
p35
aS'associated70335084'
p36
asS'chunk_seq'
p37
(lp38
S'B-NP'
p39
aS'E-NP'
p40
aS'B-NP'
p41
aS'E-NP'
p42
aS'O'
aS'S-NP'
p43
aS'S-PP'
p44
aS'S-NP'
p45
aS'S-NP'
p46
aS'S-VP'
p47
aS'O'
asS'dep_seq'
p48
(lp49
(lp50
S'nn'
p51
aS'4'
aS'1'
aa(lp52
S'nn'
p53
aS'4'
aS'2'
aa(lp54
S'amod'
p55
aS'4'
aS'3'
aa(lp56
S'root'
p57
aS'0'
aS'4'
aa(lp58
S'conj_or'
p59
aS'4'
aS'6'
aa(lp60
S'prep_with'
p61
aS'11'
p62
aS'8'
aa(lp63
S'nsubj'
p64
aS'11'
p65
aS'9'
aa(lp66
S'cop'
p67
aS'11'
p68
aS'10'
p69
aa(lp70
S'ccomp'
p71
aS'6'
aS'11'
p72
aasS'srls'
p73
(lp74
sS'pos_seq'
p75
(lp76
S'NN'
p77
aS'NN'
p78
aS'JJ'
p79
aS'NN'
p80
aS'CC'
p81
aS'NN'
p82
aS'IN'
p83
aS'WDT'
p84
aS'NN'
p85
aS'VBZ'
p86
aS'.'
asS'ner_seq'
p87
(lp88
S'O'
aS'O'
aS'O'
aS'O'
aS'O'
aS'O'
aS'O'
aS'O'
aS'O'
aS'O'
aS'O'
assb.