ccopy_reg
_reconstructor
p1
(c__main__
KBproperty
p2
c__builtin__
object
p3
NtRp4
(dp5
S'comment'
p6
S'00'
p7
sS'domain'
p8
S'Boxer '
p9
sS'instances_count'
p10
I0
sS'phrases'
p11
NsS'syn_hypo'
p12
VArmageddonbattleconflictfightengagementassaultbattleconflictfightengagementcombatbattleconflictfightengagementarmed_combatbattleconflictfightengagementdogfightbattleconflictfightengagementnaval_battlebattleconflictfightengagementpitched_battle
p13
sS'label'
p14
S'fight'
p15
sS'range'
p16
S'non Negative Integer '
p17
sS'uniq_subjs'
p18
S'0'
sS'uniq_objs'
p19
I0
sS'prop_uri'
p20
S'http://dbpedia.org/ontology/fight'
p21
sS'annotations'
p22
(dp23
S'bag_of_words'
p24
(lp25
S'Boxer'
p26
aS'fight'
p27
aS'non'
p28
aS'Negative'
p29
aS'Integer'
p30
aS'00'
p31
asS'chunk_seq'
p32
(lp33
S'O'
aS'S-VP'
p34
aS'B-NP'
p35
aS'I-NP'
p36
aS'E-NP'
p37
aS'O'
asS'dep_seq'
p38
(lp39
(lp40
S'dep'
p41
aS'2'
aS'1'
aa(lp42
S'root'
p43
aS'0'
aS'2'
aa(lp44
S'amod'
p45
aS'5'
aS'3'
aa(lp46
S'nn'
p47
aS'5'
aS'4'
aa(lp48
S'dobj'
p49
aS'2'
aS'5'
aa(lp50
S'num'
p51
aS'5'
aS'6'
aasS'srls'
p52
(lp53
(dp54
S'A1'
p55
S'non Negative Integer 00'
p56
sS'A0'
p57
g26
sS'V'
g27
sasS'pos_seq'
p58
(lp59
S'NNP'
p60
aS'VB'
p61
aS'JJ'
p62
aS'NNP'
p63
aS'NNP'
p64
aS'CD'
p65
asS'ner_seq'
p66
(lp67
S'O'
aS'O'
aS'O'
aS'O'
aS'O'
aS'O'
assb.