ccopy_reg
_reconstructor
p1
(c__main__
KBproperty
p2
c__builtin__
object
p3
NtRp4
(dp5
S'comment'
p6
S'205'
p7
sS'domain'
p8
S'Film Festival '
p9
sS'instances_count'
p10
I20
sS'phrases'
p11
NsS'syn_hypo'
p12
Vcinema_veritemoviefilmpicturemoving_picturemoving-picture_showmotion_picturemotion-picture_showpicture_showpicflickcollage_filmmoviefilmpicturemoving_picturemoving-picture_showmotion_picturemotion-picture_showpicture_showpicflickcoming_attractionmoviefilmpicturemoving_picturemoving-picture_showmotion_picturemotion-picture_showpicture_showpicflickdocumentarymoviefilmpicturemoving_picturemoving-picture_showmotion_picturemotion-picture_showpicture_showpicflickdocudramamoviefilmpicturemoving_picturemoving-picture_showmotion_picturemotion-picture_showpicture_showpicflickdocumentary_filmmoviefilmpicturemoving_picturemoving-picture_showmotion_picturemotion-picture_showpicture_showpicflickinfotainmentmoviefilmpicturemoving_picturemoving-picture_showmotion_picturemotion-picture_showpicture_showpicflickfeaturemoviefilmpicturemoving_picturemoving-picture_showmotion_picturemotion-picture_showpicture_showpicflickfeature_filmmoviefilmpicturemoving_picturemoving-picture_showmotion_picturemotion-picture_showpicture_showpicflickfilm_noirmoviefilmpicturemoving_picturemoving-picture_showmotion_picturemotion-picture_showpicture_showpicflickfinal_cutmoviefilmpicturemoving_picturemoving-picture_showmotion_picturemotion-picture_showpicture_showpicflickhome_moviemoviefilmpicturemoving_picturemoving-picture_showmotion_picturemotion-picture_showpicture_showpicflickmusicalmoviefilmpicturemoving_picturemoving-picture_showmotion_picturemotion-picture_showpicture_showpicflickmusical_comedymoviefilmpicturemoving_picturemoving-picture_showmotion_picturemotion-picture_showpicture_showpicflickmusical_theatermoviefilmpicturemoving_picturemoving-picture_showmotion_picturemotion-picture_showpicture_showpicflickrough_cutmoviefilmpicturemoving_picturemoving-picture_showmotion_picturemotion-picture_showpicture_showpicflickshoot-'em-upmoviefilmpicturemoving_picturemoving-picture_showmotion_picturemotion-picture_showpicture_showpicflickshort_subjectmoviefilmpicturemoving_picturemoving-picture_showmotion_picturemotion-picture_showpicture_showpicflicksilent_moviemoviefilmpicturemoving_picturemoving-picture_showmotion_picturemotion-picture_showpicture_showpicflicksilent_picturemoviefilmpicturemoving_picturemoving-picture_showmotion_picturemotion-picture_showpicture_showpicflicksilentsmoviefilmpicturemoving_picturemoving-picture_showmotion_picturemotion-picture_showpicture_showpicflickskin_flickmoviefilmpicturemoving_picturemoving-picture_showmotion_picturemotion-picture_showpicture_showpicflickslow_motionmoviefilmpicturemoving_picturemoving-picture_showmotion_picturemotion-picture_showpicture_showpicflicktalking_picturemoviefilmpicturemoving_picturemoving-picture_showmotion_picturemotion-picture_showpicture_showpicflicktalkiemoviefilmpicturemoving_picturemoving-picture_showmotion_picturemotion-picture_showpicture_showpicflicktelefilmmoviefilmpicturemoving_picturemoving-picture_showmotion_picturemotion-picture_showpicture_showpicflickthree-Dmoviefilmpicturemoving_picturemoving-picture_showmotion_picturemotion-picture_showpicture_showpicflick3-Dmoviefilmpicturemoving_picturemoving-picture_showmotion_picturemotion-picture_showpicture_showpicflick3D
p13
sS'label'
p14
S'film'
p15
sS'range'
p16
S'Film '
p17
sS'uniq_subjs'
p18
S'20'
p19
sS'uniq_objs'
p20
I0
sS'prop_uri'
p21
S'http://dbpedia.org/ontology/film'
p22
sS'annotations'
p23
(dp24
S'bag_of_words'
p25
(lp26
S'Film'
p27
aS'Festival'
p28
aS'film'
p29
aS'Film'
p30
aS'205'
p31
asS'chunk_seq'
p32
(lp33
S'B-NP'
p34
aS'I-NP'
p35
aS'I-NP'
p36
aS'E-NP'
p37
aS'O'
asS'dep_seq'
p38
(lp39
(lp40
S'nn'
p41
aS'4'
aS'1'
aa(lp42
S'nn'
p43
aS'4'
aS'2'
aa(lp44
S'nn'
p45
aS'4'
aS'3'
aa(lp46
S'root'
p47
aS'0'
aS'4'
aa(lp48
S'punct'
p49
aS'4'
aS'5'
aasS'srls'
p50
(lp51
sS'pos_seq'
p52
(lp53
S'NNP'
p54
aS'NNP'
p55
aS'NN'
p56
aS'NNP'
p57
aS'.'
asS'ner_seq'
p58
(lp59
S'B-MISC'
p60
aS'I-MISC'
p61
aS'I-MISC'
p62
aS'E-MISC'
p63
aS'O'
assb.