ccopy_reg
_reconstructor
p1
(c__main__
KBproperty
p2
c__builtin__
object
p3
NtRp4
(dp5
S'comment'
p6
S'The type of the research project. Mostly used for the funding schemes of the European Union for instance: Specific Targeted Research Projects STREP Network of Excellence NoE or Integrated Project.1010'
p7
sS'domain'
p8
S'Research Project '
p9
sS'instances_count'
p10
I10
sS'phrases'
p11
NsS'syn_hypo'
p12
S''
sS'label'
p13
S'project type'
p14
sS'range'
p15
S'string '
p16
sS'uniq_subjs'
p17
S'7'
sS'uniq_objs'
p18
I0
sS'prop_uri'
p19
S'http://dbpedia.org/ontology/projectType'
p20
sS'annotations'
p21
(dp22
S'bag_of_words'
p23
(lp24
S'Research'
p25
aS'Project'
p26
aS'project'
p27
aS'type'
p28
aS'string'
p29
aS'The'
p30
aS'type'
p31
aS'of'
p32
aS'the'
p33
aS'research'
p34
aS'project'
p35
aS'.'
aS'Mostly'
p36
aS'used'
p37
aS'for'
p38
aS'the'
p39
aS'funding'
p40
aS'schemes'
p41
aS'of'
p42
aS'the'
p43
aS'European'
p44
aS'Union'
p45
aS'for'
p46
aS'instance'
p47
aS':'
aS'Specific'
p48
aS'Targeted'
p49
aS'Research'
p50
aS'Projects'
p51
aS'STREP'
p52
aS'Network'
p53
aS'of'
p54
aS'Excellence'
p55
aS'NoE'
p56
aS'or'
p57
aS'Integrated'
p58
aS'Project.1010'
p59
asS'chunk_seq'
p60
(lp61
S'B-NP'
p62
aS'I-NP'
p63
aS'I-NP'
p64
aS'I-NP'
p65
aS'E-NP'
p66
aS'B-NP'
p67
aS'E-NP'
p68
aS'S-PP'
p69
aS'B-NP'
p70
aS'I-NP'
p71
aS'E-NP'
p72
aS'O'
aS'B-VP'
p73
aS'E-VP'
p74
aS'S-PP'
p75
aS'B-NP'
p76
aS'I-NP'
p77
aS'E-NP'
p78
aS'S-PP'
p79
aS'B-NP'
p80
aS'I-NP'
p81
aS'E-NP'
p82
aS'S-PP'
p83
aS'S-NP'
p84
aS'O'
aS'B-NP'
p85
aS'I-NP'
p86
aS'I-NP'
p87
aS'I-NP'
p88
aS'I-NP'
p89
aS'E-NP'
p90
aS'S-PP'
p91
aS'B-NP'
p92
aS'E-NP'
p93
aS'O'
aS'B-NP'
p94
aS'E-NP'
p95
asS'dep_seq'
p96
(lp97
(lp98
S'nn'
p99
aS'5'
aS'1'
aa(lp100
S'nn'
p101
aS'5'
aS'2'
aa(lp102
S'nn'
p103
aS'5'
aS'3'
aa(lp104
S'nn'
p105
aS'5'
aS'4'
aa(lp106
S'dep'
p107
aS'34'
p108
aS'5'
aa(lp109
S'det'
p110
aS'7'
aS'6'
aa(lp111
S'dep'
p112
aS'34'
p113
aS'7'
aa(lp114
S'det'
p115
aS'11'
p116
aS'9'
aa(lp117
S'nn'
p118
aS'11'
p119
aS'10'
p120
aa(lp121
S'prep_of'
p122
aS'7'
aS'11'
p123
aa(lp124
S'advmod'
p125
aS'34'
p126
aS'13'
p127
aa(lp128
S'dep'
p129
aS'34'
p130
aS'14'
p131
aa(lp132
S'dep'
p133
aS'34'
p134
aS'15'
p135
aa(lp136
S'det'
p137
aS'18'
p138
aS'16'
p139
aa(lp140
S'nn'
p141
aS'18'
p142
aS'17'
p143
aa(lp144
S'dep'
p145
aS'34'
p146
aS'18'
p147
aa(lp148
S'dep'
p149
aS'34'
p150
aS'19'
p151
aa(lp152
S'det'
p153
aS'22'
p154
aS'20'
p155
aa(lp156
S'nn'
p157
aS'22'
p158
aS'21'
p159
aa(lp160
S'pobj'
p161
aS'19'
p162
aS'22'
p163
aa(lp164
S'dep'
p165
aS'34'
p166
aS'23'
p167
aa(lp168
S'pobj'
p169
aS'23'
p170
aS'24'
p171
aa(lp172
S'nn'
p173
aS'31'
p174
aS'26'
p175
aa(lp176
S'nn'
p177
aS'31'
p178
aS'27'
p179
aa(lp180
S'nn'
p181
aS'31'
p182
aS'28'
p183
aa(lp184
S'nn'
p185
aS'31'
p186
aS'29'
p187
aa(lp188
S'nn'
p189
aS'31'
p190
aS'30'
p191
aa(lp192
S'dep'
p193
aS'34'
p194
aS'31'
p195
aa(lp196
S'dep'
p197
aS'34'
p198
aS'32'
p199
aa(lp200
S'nn'
p201
aS'34'
p202
aS'33'
p203
aa(lp204
S'root'
p205
aS'0'
aS'34'
p206
aa(lp207
S'nn'
p208
aS'37'
p209
aS'36'
p210
aa(lp211
S'conj_or'
p212
aS'34'
p213
aS'37'
p214
aasS'srls'
p215
(lp216
(dp217
S'AM-ADV'
p218
g36
sS'A0'
p219
S'Research Project project type string The type of the research project'
p220
sS'A1'
p221
S'for the funding schemes of the European Union for instance : Specific Targeted Research Projects STREP Network of Excellence NoE or Integrated Project.1010'
p222
sS'V'
g37
sasS'pos_seq'
p223
(lp224
S'NNP'
p225
aS'NNP'
p226
aS'NN'
p227
aS'NN'
p228
aS'NN'
p229
aS'DT'
p230
aS'NN'
p231
aS'IN'
p232
aS'DT'
p233
aS'NN'
p234
aS'NN'
p235
aS'.'
aS'RB'
p236
aS'VBN'
p237
aS'IN'
p238
aS'DT'
p239
aS'NN'
p240
aS'NNS'
p241
aS'IN'
p242
aS'DT'
p243
aS'NNP'
p244
aS'NNP'
p245
aS'IN'
p246
aS'NN'
p247
aS':'
aS'NNP'
p248
aS'NNP'
p249
aS'NNP'
p250
aS'NNP'
p251
aS'NNP'
p252
aS'NNP'
p253
aS'IN'
p254
aS'NNP'
p255
aS'NNP'
p256
aS'CC'
p257
aS'NNP'
p258
aS'NNP'
p259
asS'ner_seq'
p260
(lp261
S'O'
aS'O'
aS'O'
aS'O'
aS'O'
aS'O'
aS'O'
aS'O'
aS'O'
aS'O'
aS'O'
aS'O'
aS'O'
aS'O'
aS'O'
aS'O'
aS'O'
aS'O'
aS'O'
aS'O'
aS'B-ORG'
p262
aS'E-ORG'
p263
aS'O'
aS'O'
aS'O'
aS'B-ORG'
p264
aS'I-ORG'
p265
aS'I-ORG'
p266
aS'I-ORG'
p267
aS'I-ORG'
p268
aS'I-ORG'
p269
aS'I-ORG'
p270
aS'I-ORG'
p271
aS'I-ORG'
p272
aS'I-ORG'
p273
aS'I-ORG'
p274
aS'E-ORG'
p275
assb.