ccopy_reg
_reconstructor
p1
(c__main__
KBproperty
p2
c__builtin__
object
p3
NtRp4
(dp5
S'comment'
p6
S'2118'
p7
sS'domain'
p8
S'School '
p9
sS'instances_count'
p10
I18
sS'phrases'
p11
NsS'syn_hypo'
p12
S''
sS'label'
p13
S'religious head'
p14
sS'range'
p15
S''
sS'uniq_subjs'
p16
S'18'
p17
sS'uniq_objs'
p18
I0
sS'prop_uri'
p19
S'http://dbpedia.org/ontology/religiousHead'
p20
sS'annotations'
p21
(dp22
S'bag_of_words'
p23
(lp24
S'School'
p25
aS'religious'
p26
aS'head'
p27
aS'2118'
p28
asS'chunk_seq'
p29
(lp30
S'B-NP'
p31
aS'I-NP'
p32
aS'I-NP'
p33
aS'E-NP'
p34
asS'dep_seq'
p35
(lp36
(lp37
S'nn'
p38
aS'4'
aS'1'
aa(lp39
S'amod'
p40
aS'4'
aS'2'
aa(lp41
S'nn'
p42
aS'4'
aS'3'
aa(lp43
S'root'
p44
aS'0'
aS'4'
aasS'srls'
p45
(lp46
sS'pos_seq'
p47
(lp48
S'NN'
p49
aS'JJ'
p50
aS'NN'
p51
aS'NN'
p52
asS'ner_seq'
p53
(lp54
S'O'
aS'O'
aS'O'
aS'O'
assb.