ccopy_reg
_reconstructor
p1
(c__main__
KBproperty
p2
c__builtin__
object
p3
NtRp4
(dp5
S'comment'
p6
S'00'
p7
sS'domain'
p8
S'Tennis Player '
p9
sS'instances_count'
p10
I0
sS'phrases'
p11
NsS'syn_hypo'
p12
S''
sS'label'
p13
S'racket catching'
p14
sS'range'
p15
S'string '
p16
sS'uniq_subjs'
p17
S'0'
sS'uniq_objs'
p18
I0
sS'prop_uri'
p19
S'http://dbpedia.org/ontology/racketCatching'
p20
sS'annotations'
p21
(dp22
S'bag_of_words'
p23
(lp24
S'Tennis'
p25
aS'Player'
p26
aS'racket'
p27
aS'catching'
p28
aS'string'
p29
aS'00'
p30
asS'chunk_seq'
p31
(lp32
S'B-NP'
p33
aS'I-NP'
p34
aS'E-NP'
p35
aS'S-VP'
p36
aS'B-NP'
p37
aS'E-NP'
p38
asS'dep_seq'
p39
(lp40
(lp41
S'nn'
p42
aS'3'
aS'1'
aa(lp43
S'nn'
p44
aS'3'
aS'2'
aa(lp45
S'nsubj'
p46
aS'4'
aS'3'
aa(lp47
S'root'
p48
aS'0'
aS'4'
aa(lp49
S'dobj'
p50
aS'4'
aS'5'
aa(lp51
S'num'
p52
aS'5'
aS'6'
aasS'srls'
p53
(lp54
(dp55
S'A1'
p56
S'string 00'
p57
sS'A0'
p58
S'Tennis Player racket'
p59
sS'V'
g28
sasS'pos_seq'
p60
(lp61
S'NNP'
p62
aS'NNP'
p63
aS'NN'
p64
aS'VBG'
p65
aS'NN'
p66
aS'CD'
p67
asS'ner_seq'
p68
(lp69
S'O'
aS'O'
aS'O'
aS'O'
aS'O'
aS'O'
assb.