ccopy_reg
_reconstructor
p1
(c__main__
KBproperty
p2
c__builtin__
object
p3
NtRp4
(dp5
S'comment'
p6
S'00'
p7
sS'domain'
p8
S'Person '
p9
sS'instances_count'
p10
I0
sS'phrases'
p11
NsS'syn_hypo'
p12
S''
sS'label'
p13
S'created'
p14
sS'range'
p15
S'Work '
p16
sS'uniq_subjs'
p17
S'0'
sS'uniq_objs'
p18
I0
sS'prop_uri'
p19
S'http://dbpedia.org/ontology/created'
p20
sS'annotations'
p21
(dp22
S'bag_of_words'
p23
(lp24
S'Person'
p25
aS'created'
p26
aS'Work'
p27
aS'00'
p28
asS'chunk_seq'
p29
(lp30
S'S-NP'
p31
aS'S-VP'
p32
aS'S-NP'
p33
aS'O'
asS'dep_seq'
p34
(lp35
(lp36
S'root'
p37
aS'0'
aS'1'
aa(lp38
S'partmod'
p39
aS'1'
aS'2'
aa(lp40
S'dobj'
p41
aS'2'
aS'3'
aa(lp42
S'advmod'
p43
aS'2'
aS'4'
aasS'srls'
p44
(lp45
(dp46
S'A1'
p47
g27
sS'A0'
p48
g25
sS'AM-TMP'
p49
g28
sS'V'
g26
sasS'pos_seq'
p50
(lp51
S'NN'
p52
aS'VBN'
p53
aS'NNP'
p54
aS'CD'
p55
asS'ner_seq'
p56
(lp57
S'O'
aS'O'
aS'O'
aS'O'
assb.