ccopy_reg
_reconstructor
p1
(c__main__
KBproperty
p2
c__builtin__
object
p3
NtRp4
(dp5
S'comment'
p6
S'00'
p7
sS'domain'
p8
S'Populated Place '
p9
sS'instances_count'
p10
I0
sS'phrases'
p11
NsS'syn_hypo'
p12
S''
sS'label'
p13
S'demographics as of'
p14
sS'range'
p15
S'date '
p16
sS'uniq_subjs'
p17
S'0'
sS'uniq_objs'
p18
I0
sS'prop_uri'
p19
S'http://dbpedia.org/ontology/demographicsAsOf'
p20
sS'annotations'
p21
(dp22
S'bag_of_words'
p23
(lp24
S'Populated'
p25
aS'Place'
p26
aS'demographics'
p27
aS'as'
p28
aS'of'
p29
aS'date'
p30
aS'00'
p31
asS'chunk_seq'
p32
(lp33
S'B-NP'
p34
aS'I-NP'
p35
aS'E-NP'
p36
aS'S-PP'
p37
aS'S-PP'
p38
aS'S-NP'
p39
aS'O'
asS'dep_seq'
p40
(lp41
(lp42
S'amod'
p43
aS'3'
aS'1'
aa(lp44
S'nn'
p45
aS'3'
aS'2'
aa(lp46
S'root'
p47
aS'0'
aS'3'
aa(lp48
S'prepc_as_of'
p49
aS'3'
aS'5'
aa(lp50
S'pobj'
p51
aS'3'
aS'6'
aa(lp52
S'pobj'
p53
aS'3'
aS'7'
aasS'srls'
p54
(lp55
sS'pos_seq'
p56
(lp57
S'JJ'
p58
aS'NN'
p59
aS'NNS'
p60
aS'IN'
p61
aS'IN'
p62
aS'NN'
p63
aS'CD'
p64
asS'ner_seq'
p65
(lp66
S'O'
aS'O'
aS'O'
aS'O'
aS'O'
aS'O'
aS'O'
assb.