ccopy_reg
_reconstructor
p1
(c__main__
KBproperty
p2
c__builtin__
object
p3
NtRp4
(dp5
S'comment'
p6
S'A unique identifier for the drug in the Chemical Entities of Biological Interest ChEBI ontology12761275'
p7
sS'domain'
p8
S'Drug '
p9
sS'instances_count'
p10
I1271
sS'phrases'
p11
NsS'syn_hypo'
p12
S''
sS'label'
p13
S'ChEBI'
p14
sS'range'
p15
S'string '
p16
sS'uniq_subjs'
p17
S'1271'
p18
sS'uniq_objs'
p19
I0
sS'prop_uri'
p20
S'http://dbpedia.org/ontology/chEBI'
p21
sS'annotations'
p22
(dp23
S'bag_of_words'
p24
(lp25
S'Drug'
p26
aS'ChEBI'
p27
aS'string'
p28
aS'A'
aS'unique'
p29
aS'identifier'
p30
aS'for'
p31
aS'the'
p32
aS'drug'
p33
aS'in'
p34
aS'the'
p35
aS'Chemical'
p36
aS'Entities'
p37
aS'of'
p38
aS'Biological'
p39
aS'Interest'
p40
aS'ChEBI'
p41
aS'ontology12761275'
p42
asS'chunk_seq'
p43
(lp44
S'B-NP'
p45
aS'I-NP'
p46
aS'E-NP'
p47
aS'B-NP'
p48
aS'I-NP'
p49
aS'E-NP'
p50
aS'S-PP'
p51
aS'B-NP'
p52
aS'E-NP'
p53
aS'S-PP'
p54
aS'B-NP'
p55
aS'I-NP'
p56
aS'E-NP'
p57
aS'S-PP'
p58
aS'B-NP'
p59
aS'I-NP'
p60
aS'I-NP'
p61
aS'E-NP'
p62
asS'dep_seq'
p63
(lp64
(lp65
S'nn'
p66
aS'3'
aS'1'
aa(lp67
S'nn'
p68
aS'3'
aS'2'
aa(lp69
S'dep'
p70
aS'6'
aS'3'
aa(lp71
S'det'
p72
aS'6'
aS'4'
aa(lp73
S'amod'
p74
aS'6'
aS'5'
aa(lp75
S'root'
p76
aS'0'
aS'6'
aa(lp77
S'det'
p78
aS'9'
aS'8'
aa(lp79
S'prep_for'
p80
aS'6'
aS'9'
aa(lp81
S'det'
p82
aS'13'
p83
aS'11'
p84
aa(lp85
S'nn'
p86
aS'13'
p87
aS'12'
p88
aa(lp89
S'prep_in'
p90
aS'6'
aS'13'
p91
aa(lp92
S'nn'
p93
aS'18'
p94
aS'15'
p95
aa(lp96
S'nn'
p97
aS'18'
p98
aS'16'
p99
aa(lp100
S'nn'
p101
aS'18'
p102
aS'17'
p103
aa(lp104
S'prep_of'
p105
aS'13'
p106
aS'18'
p107
aasS'srls'
p108
(lp109
sS'pos_seq'
p110
(lp111
S'NNP'
p112
aS'NNP'
p113
aS'NN'
p114
aS'DT'
p115
aS'JJ'
p116
aS'NN'
p117
aS'IN'
p118
aS'DT'
p119
aS'NN'
p120
aS'IN'
p121
aS'DT'
p122
aS'NNP'
p123
aS'NNPS'
p124
aS'IN'
p125
aS'NNP'
p126
aS'NNP'
p127
aS'NNP'
p128
aS'NN'
p129
asS'ner_seq'
p130
(lp131
S'B-MISC'
p132
aS'E-MISC'
p133
aS'O'
aS'O'
aS'O'
aS'O'
aS'O'
aS'O'
aS'O'
aS'O'
aS'O'
aS'B-ORG'
p134
aS'I-ORG'
p135
aS'I-ORG'
p136
aS'I-ORG'
p137
aS'I-ORG'
p138
aS'E-ORG'
p139
aS'O'
assb.