ccopy_reg
_reconstructor
p1
(c__main__
KBproperty
p2
c__builtin__
object
p3
NtRp4
(dp5
S'comment'
p6
S'1603805'
p7
sS'domain'
p8
S'Agent '
p9
sS'instances_count'
p10
I79
sS'phrases'
p11
NsS'syn_hypo'
p12
Vallometrydisciplinesubjectsubject_areasubject_fieldfieldfield_of_studystudybailiwickarchitecturedisciplinesubjectsubject_areasubject_fieldfieldfield_of_studystudybailiwickbiblioticsdisciplinesubjectsubject_areasubject_fieldfieldfield_of_studystudybailiwickcommunicationsdisciplinesubjectsubject_areasubject_fieldfieldfield_of_studystudybailiwickcommunication_theorydisciplinesubjectsubject_areasubject_fieldfieldfield_of_studystudybailiwickengineeringdisciplinesubjectsubject_areasubject_fieldfieldfield_of_studystudybailiwickengineering_sciencedisciplinesubjectsubject_areasubject_fieldfieldfield_of_studystudybailiwickapplied_sciencedisciplinesubjectsubject_areasubject_fieldfieldfield_of_studystudybailiwicktechnologydisciplinesubjectsubject_areasubject_fieldfieldfield_of_studystudybailiwickescapologydisciplinesubjectsubject_areasubject_fieldfieldfield_of_studystudybailiwickfrontierdisciplinesubjectsubject_areasubject_fieldfieldfield_of_studystudybailiwickfuturologydisciplinesubjectsubject_areasubject_fieldfieldfield_of_studystudybailiwickfuturisticsdisciplinesubjectsubject_areasubject_fieldfieldfield_of_studystudybailiwickgenealogydisciplinesubjectsubject_areasubject_fieldfieldfield_of_studystudybailiwickgraphologydisciplinesubjectsubject_areasubject_fieldfieldfield_of_studystudybailiwickhumanistic_disciplinedisciplinesubjectsubject_areasubject_fieldfieldfield_of_studystudybailiwickhumanitiesdisciplinesubjectsubject_areasubject_fieldfieldfield_of_studystudybailiwickliberal_artsdisciplinesubjectsubject_areasubject_fieldfieldfield_of_studystudybailiwickartsdisciplinesubjectsubject_areasubject_fieldfieldfield_of_studystudybailiwickmajordisciplinesubjectsubject_areasubject_fieldfieldfield_of_studystudybailiwickmilitary_sciencedisciplinesubjectsubject_areasubject_fieldfieldfield_of_studystudybailiwicknumerologydisciplinesubjectsubject_areasubject_fieldfieldfield_of_studystudybailiwickoccultismdisciplinesubjectsubject_areasubject_fieldfieldfield_of_studystudybailiwickologydisciplinesubjectsubject_areasubject_fieldfieldfield_of_studystudybailiwickprotologydisciplinesubjectsubject_areasubject_fieldfieldfield_of_studystudybailiwicksciencedisciplinesubjectsubject_areasubject_fieldfieldfield_of_studystudybailiwickscientific_disciplinedisciplinesubjectsubject_areasubject_fieldfieldfield_of_studystudybailiwicktheogonydisciplinesubjectsubject_areasubject_fieldfieldfield_of_studystudybailiwicktheologydisciplinesubjectsubject_areasubject_fieldfieldfield_of_studystudybailiwickdivinity
p13
sS'label'
p14
S'discipline'
p15
sS'range'
p16
S''
sS'uniq_subjs'
p17
S'79'
p18
sS'uniq_objs'
p19
I0
sS'prop_uri'
p20
S'http://dbpedia.org/ontology/discipline'
p21
sS'annotations'
p22
(dp23
S'bag_of_words'
p24
(lp25
S'Agent'
p26
aS'discipline'
p27
aS'1603805'
p28
asS'chunk_seq'
p29
(lp30
S'B-NP'
p31
aS'E-NP'
p32
aS'S-ADJP'
p33
asS'dep_seq'
p34
(lp35
(lp36
S'nn'
p37
aS'2'
aS'1'
aa(lp38
S'root'
p39
aS'0'
aS'2'
aa(lp40
S'dep'
p41
aS'2'
aS'3'
aasS'srls'
p42
(lp43
sS'pos_seq'
p44
(lp45
S'NN'
p46
aS'NN'
p47
aS'.'
asS'ner_seq'
p48
(lp49
S'O'
aS'O'
aS'O'
assb.