ccopy_reg
_reconstructor
p1
(c__main__
KBproperty
p2
c__builtin__
object
p3
NtRp4
(dp5
S'comment'
p6
S'00'
p7
sS'domain'
p8
S'Mean Of Transportation '
p9
sS'instances_count'
p10
I0
sS'phrases'
p11
NsS'syn_hypo'
p12
Vapproximation
p13
sS'label'
p14
S'version'
p15
sS'range'
p16
S''
sS'uniq_subjs'
p17
S'0'
sS'uniq_objs'
p18
I0
sS'prop_uri'
p19
S'http://dbpedia.org/ontology/version'
p20
sS'annotations'
p21
(dp22
S'bag_of_words'
p23
(lp24
S'Mean'
p25
aS'Of'
p26
aS'Transportation'
p27
aS'version'
p28
aS'00'
p29
asS'chunk_seq'
p30
(lp31
S'S-NP'
p32
aS'S-PP'
p33
aS'B-NP'
p34
aS'E-NP'
p35
aS'S-ADVP'
p36
asS'dep_seq'
p37
(lp38
(lp39
S'root'
p40
aS'0'
aS'1'
aa(lp41
S'prep_of'
p42
aS'1'
aS'3'
aa(lp43
S'dep'
p44
aS'1'
aS'4'
aa(lp45
S'num'
p46
aS'4'
aS'5'
aasS'srls'
p47
(lp48
sS'pos_seq'
p49
(lp50
S'NNP'
p51
aS'IN'
p52
aS'NNP'
p53
aS'NN'
p54
aS'CD'
p55
asS'ner_seq'
p56
(lp57
S'O'
aS'B-ORG'
p58
aS'E-ORG'
p59
aS'O'
aS'O'
assb.