ccopy_reg
_reconstructor
p1
(c__main__
KBproperty
p2
c__builtin__
object
p3
NtRp4
(dp5
S'comment'
p6
S'16291568'
p7
sS'domain'
p8
S'Populated Place '
p9
sS'instances_count'
p10
I1572
sS'phrases'
p11
NsS'syn_hypo'
p12
S''
sS'label'
p13
S'other name'
p14
sS'range'
p15
S'lang String '
p16
sS'uniq_subjs'
p17
S'1572'
p18
sS'uniq_objs'
p19
I0
sS'prop_uri'
p20
S'http://dbpedia.org/ontology/otherName'
p21
sS'annotations'
p22
(dp23
S'bag_of_words'
p24
(lp25
S'Populated'
p26
aS'Place'
p27
aS'other'
p28
aS'name'
p29
aS'lang'
p30
aS'String'
p31
aS'16291568'
p32
asS'chunk_seq'
p33
(lp34
S'B-NP'
p35
aS'I-NP'
p36
aS'I-NP'
p37
aS'I-NP'
p38
aS'I-NP'
p39
aS'I-NP'
p40
aS'E-NP'
p41
asS'dep_seq'
p42
(lp43
(lp44
S'amod'
p45
aS'2'
aS'1'
aa(lp46
S'root'
p47
aS'0'
aS'2'
aa(lp48
S'amod'
p49
aS'7'
aS'3'
aa(lp50
S'nn'
p51
aS'7'
aS'4'
aa(lp52
S'amod'
p53
aS'7'
aS'5'
aa(lp54
S'nn'
p55
aS'7'
aS'6'
aa(lp56
S'dep'
p57
aS'2'
aS'7'
aasS'srls'
p58
(lp59
(dp60
S'A1'
p61
g31
sS'V'
g30
sasS'pos_seq'
p62
(lp63
S'JJ'
p64
aS'NN'
p65
aS'JJ'
p66
aS'NN'
p67
aS'VBG'
p68
aS'NN'
p69
aS'NN'
p70
asS'ner_seq'
p71
(lp72
S'O'
aS'O'
aS'O'
aS'O'
aS'B-PER'
p73
aS'E-PER'
p74
aS'O'
assb.