ccopy_reg
_reconstructor
p1
(c__main__
KBproperty
p2
c__builtin__
object
p3
NtRp4
(dp5
S'comment'
p6
S'7950'
p7
sS'domain'
p8
S'Olympics '
p9
sS'instances_count'
p10
I78
sS'phrases'
p11
NsS'syn_hypo'
p12
S''
sS'label'
p13
S'number of participating athletes'
p14
sS'range'
p15
S'non Negative Integer '
p16
sS'uniq_subjs'
p17
S'78'
p18
sS'uniq_objs'
p19
I0
sS'prop_uri'
p20
S'http://dbpedia.org/ontology/numberOfParticipatingAthletes'
p21
sS'annotations'
p22
(dp23
S'bag_of_words'
p24
(lp25
S'Olympics'
p26
aS'number'
p27
aS'of'
p28
aS'participating'
p29
aS'athletes'
p30
aS'non'
p31
aS'Negative'
p32
aS'Integer'
p33
aS'7950'
p34
asS'chunk_seq'
p35
(lp36
S'B-NP'
p37
aS'E-NP'
p38
aS'S-PP'
p39
aS'B-NP'
p40
aS'E-NP'
p41
aS'S-VP'
p42
aS'B-NP'
p43
aS'E-NP'
p44
aS'O'
asS'dep_seq'
p45
(lp46
(lp47
S'nn'
p48
aS'2'
aS'1'
aa(lp49
S'nsubj'
p50
aS'6'
aS'2'
aa(lp51
S'amod'
p52
aS'5'
aS'4'
aa(lp53
S'prep_of'
p54
aS'2'
aS'5'
aa(lp55
S'root'
p56
aS'0'
aS'6'
aa(lp57
S'nn'
p58
aS'8'
aS'7'
aa(lp59
S'dobj'
p60
aS'6'
aS'8'
aa(lp61
S'num'
p62
aS'8'
aS'9'
aasS'srls'
p63
(lp64
(dp65
S'A0'
p66
g30
sS'V'
g29
sasS'pos_seq'
p67
(lp68
S'NNS'
p69
aS'NN'
p70
aS'IN'
p71
aS'VBG'
p72
aS'NNS'
p73
aS'VBP'
p74
aS'NNP'
p75
aS'NNP'
p76
aS'CD'
p77
asS'ner_seq'
p78
(lp79
S'S-MISC'
p80
aS'O'
aS'O'
aS'O'
aS'O'
aS'O'
aS'O'
aS'O'
aS'O'
assb.