ccopy_reg
_reconstructor
p1
(c__main__
KBproperty
p2
c__builtin__
object
p3
NtRp4
(dp5
S'comment'
p6
S'broadly the type of structure of its government89658588'
p7
sS'domain'
p8
S''
sS'instances_count'
p9
I8965
sS'phrases'
p10
NsS'syn_hypo'
p11
S''
sS'label'
p12
S'government type'
p13
sS'range'
p14
S'Government Type '
p15
sS'uniq_subjs'
p16
S'671'
p17
sS'uniq_objs'
p18
I0
sS'prop_uri'
p19
S'http://dbpedia.org/ontology/governmentType'
p20
sS'annotations'
p21
(dp22
S'bag_of_words'
p23
(lp24
S'government'
p25
aS'type'
p26
aS'Government'
p27
aS'Type'
p28
aS'broadly'
p29
aS'the'
p30
aS'type'
p31
aS'of'
p32
aS'structure'
p33
aS'of'
p34
aS'its'
p35
aS'government89658588'
p36
asS'chunk_seq'
p37
(lp38
S'B-NP'
p39
aS'I-NP'
p40
aS'I-NP'
p41
aS'I-NP'
p42
aS'I-NP'
p43
aS'I-NP'
p44
aS'E-NP'
p45
aS'S-PP'
p46
aS'S-NP'
p47
aS'S-PP'
p48
aS'B-NP'
p49
aS'E-NP'
p50
asS'dep_seq'
p51
(lp52
(lp53
S'nn'
p54
aS'4'
aS'1'
aa(lp55
S'nn'
p56
aS'4'
aS'2'
aa(lp57
S'nn'
p58
aS'4'
aS'3'
aa(lp59
S'root'
p60
aS'0'
aS'4'
aa(lp61
S'advmod'
p62
aS'4'
aS'5'
aa(lp63
S'det'
p64
aS'7'
aS'6'
aa(lp65
S'dep'
p66
aS'4'
aS'7'
aa(lp67
S'prep_of'
p68
aS'7'
aS'9'
aa(lp69
S'poss'
p70
aS'12'
p71
aS'11'
p72
aa(lp73
S'prep_of'
p74
aS'9'
aS'12'
p75
aasS'srls'
p76
(lp77
sS'pos_seq'
p78
(lp79
S'NN'
p80
aS'NN'
p81
aS'NNP'
p82
aS'NNP'
p83
aS'RB'
p84
aS'DT'
p85
aS'NN'
p86
aS'IN'
p87
aS'NN'
p88
aS'IN'
p89
aS'PRP$'
p90
aS'NN'
p91
asS'ner_seq'
p92
(lp93
S'O'
aS'O'
aS'O'
aS'O'
aS'O'
aS'O'
aS'O'
aS'O'
aS'O'
aS'O'
aS'O'
aS'O'
assb.