ccopy_reg
_reconstructor
p1
(c__main__
KBproperty
p2
c__builtin__
object
p3
NtRp4
(dp5
S'comment'
p6
S'00'
p7
sS'domain'
p8
S'Boxer '
p9
sS'instances_count'
p10
I0
sS'phrases'
p11
NsS'syn_hypo'
p12
S''
sS'label'
p13
S'amateur fight'
p14
sS'range'
p15
S'non Negative Integer '
p16
sS'uniq_subjs'
p17
S'0'
sS'uniq_objs'
p18
I0
sS'prop_uri'
p19
S'http://dbpedia.org/ontology/amateurFight'
p20
sS'annotations'
p21
(dp22
S'bag_of_words'
p23
(lp24
S'Boxer'
p25
aS'amateur'
p26
aS'fight'
p27
aS'non'
p28
aS'Negative'
p29
aS'Integer'
p30
aS'00'
p31
asS'chunk_seq'
p32
(lp33
S'B-NP'
p34
aS'I-NP'
p35
aS'I-NP'
p36
aS'I-NP'
p37
aS'I-NP'
p38
aS'E-NP'
p39
aS'O'
asS'dep_seq'
p40
(lp41
(lp42
S'root'
p43
aS'0'
aS'1'
aa(lp44
S'amod'
p45
aS'6'
aS'2'
aa(lp46
S'nn'
p47
aS'6'
aS'3'
aa(lp48
S'amod'
p49
aS'6'
aS'4'
aa(lp50
S'nn'
p51
aS'6'
aS'5'
aa(lp52
S'dobj'
p53
aS'1'
aS'6'
aa(lp54
S'num'
p55
aS'6'
aS'7'
aasS'srls'
p56
(lp57
sS'pos_seq'
p58
(lp59
S'VB'
p60
aS'JJ'
p61
aS'NN'
p62
aS'JJ'
p63
aS'NNP'
p64
aS'NNP'
p65
aS'CD'
p66
asS'ner_seq'
p67
(lp68
S'O'
aS'O'
aS'O'
aS'O'
aS'O'
aS'O'
aS'O'
assb.