ccopy_reg
_reconstructor
p1
(c__main__
KBproperty
p2
c__builtin__
object
p3
NtRp4
(dp5
S'comment'
p6
S'431124'
p7
sS'domain'
p8
S'Island '
p9
sS'instances_count'
p10
I343
sS'phrases'
p11
NsS'syn_hypo'
p12
Vcircumferenceboundary_lineborderborderlinedelimitationmetecircuitboundary_lineborderborderlinedelimitationmetefence_lineboundary_lineborderborderlinedelimitationmeteproperty_lineboundary_lineborderborderlinedelimitationmetestate_lineboundary_lineborderborderlinedelimitationmetestate_boundary
p13
sS'label'
p14
S'border'
p15
sS'range'
p16
S'Populated Place '
p17
sS'uniq_subjs'
p18
S'343'
p19
sS'uniq_objs'
p20
I0
sS'prop_uri'
p21
S'http://dbpedia.org/ontology/border'
p22
sS'annotations'
p23
(dp24
S'bag_of_words'
p25
(lp26
S'Island'
p27
aS'border'
p28
aS'Populated'
p29
aS'Place'
p30
aS'431124'
p31
asS'chunk_seq'
p32
(lp33
S'B-NP'
p34
aS'I-NP'
p35
aS'I-NP'
p36
aS'I-NP'
p37
aS'E-NP'
p38
asS'dep_seq'
p39
(lp40
(lp41
S'nn'
p42
aS'5'
aS'1'
aa(lp43
S'nn'
p44
aS'5'
aS'2'
aa(lp45
S'amod'
p46
aS'5'
aS'3'
aa(lp47
S'nn'
p48
aS'5'
aS'4'
aa(lp49
S'root'
p50
aS'0'
aS'5'
aasS'srls'
p51
(lp52
sS'pos_seq'
p53
(lp54
S'NNP'
p55
aS'NN'
p56
aS'JJ'
p57
aS'NN'
p58
aS'NN'
p59
asS'ner_seq'
p60
(lp61
S'S-LOC'
p62
aS'O'
aS'O'
aS'O'
aS'O'
assb.