ccopy_reg
_reconstructor
p1
(c__main__
KBproperty
p2
c__builtin__
object
p3
NtRp4
(dp5
S'comment'
p6
S'775772'
p7
sS'domain'
p8
S'Wrestler '
p9
sS'instances_count'
p10
I706
sS'phrases'
p11
NsS'syn_hypo'
p12
Vinductionintroductiondebutfirst_appearancelaunchingunveilingentrynaturalizationintroductiondebutfirst_appearancelaunchingunveilingentrynaturalisationintroductiondebutfirst_appearancelaunchingunveilingentryproduct_introductionintroductiondebutfirst_appearancelaunchingunveilingentryushering_in
p13
sS'label'
p14
S'debut'
p15
sS'range'
p16
S'date '
p17
sS'uniq_subjs'
p18
S'706'
p19
sS'uniq_objs'
p20
I0
sS'prop_uri'
p21
S'http://dbpedia.org/ontology/debut'
p22
sS'annotations'
p23
(dp24
S'bag_of_words'
p25
(lp26
S'Wrestler'
p27
aS'debut'
p28
aS'date'
p29
aS'775772'
p30
asS'chunk_seq'
p31
(lp32
S'B-NP'
p33
aS'I-NP'
p34
aS'E-NP'
p35
aS'S-NP'
p36
asS'dep_seq'
p37
(lp38
(lp39
S'nn'
p40
aS'4'
aS'1'
aa(lp41
S'nn'
p42
aS'4'
aS'2'
aa(lp43
S'nn'
p44
aS'4'
aS'3'
aa(lp45
S'root'
p46
aS'0'
aS'4'
aasS'srls'
p47
(lp48
sS'pos_seq'
p49
(lp50
S'NN'
p51
aS'NN'
p52
aS'NN'
p53
aS'NN'
p54
asS'ner_seq'
p55
(lp56
S'O'
aS'O'
aS'O'
aS'O'
assb.