ccopy_reg
_reconstructor
p1
(c__main__
KBproperty
p2
c__builtin__
object
p3
NtRp4
(dp5
S'comment'
p6
S'00'
p7
sS'domain'
p8
S'Event '
p9
sS'instances_count'
p10
I0
sS'phrases'
p11
NsS'syn_hypo'
p12
S''
sS'label'
p13
S'caused by'
p14
sS'range'
p15
S''
sS'uniq_subjs'
p16
S'0'
sS'uniq_objs'
p17
I0
sS'prop_uri'
p18
S'http://dbpedia.org/ontology/causedBy'
p19
sS'annotations'
p20
(dp21
S'bag_of_words'
p22
(lp23
S'Event'
p24
aS'caused'
p25
aS'by'
p26
aS'00'
p27
asS'chunk_seq'
p28
(lp29
S'S-NP'
p30
aS'S-VP'
p31
aS'S-PP'
p32
aS'S-NP'
p33
asS'dep_seq'
p34
(lp35
(lp36
S'nsubj'
p37
aS'2'
aS'1'
aa(lp38
S'root'
p39
aS'0'
aS'2'
aa(lp40
S'prep_by'
p41
aS'2'
aS'4'
aasS'srls'
p42
(lp43
(dp44
S'A1'
p45
g24
sS'AM-TMP'
p46
S'by 00'
p47
sS'V'
g25
sasS'pos_seq'
p48
(lp49
S'NN'
p50
aS'VBN'
p51
aS'IN'
p52
aS'CD'
p53
asS'ner_seq'
p54
(lp55
S'O'
aS'O'
aS'O'
aS'O'
assb.