ccopy_reg
_reconstructor
p1
(c__main__
KBproperty
p2
c__builtin__
object
p3
NtRp4
(dp5
S'comment'
p6
S'14481179'
p7
sS'domain'
p8
S'Musical '
p9
sS'instances_count'
p10
I710
sS'phrases'
p11
NsS'syn_hypo'
p12
S''
sS'label'
p13
S'music by'
p14
sS'range'
p15
S'Person '
p16
sS'uniq_subjs'
p17
S'710'
p18
sS'uniq_objs'
p19
I0
sS'prop_uri'
p20
S'http://dbpedia.org/ontology/musicBy'
p21
sS'annotations'
p22
(dp23
S'bag_of_words'
p24
(lp25
S'Musical'
p26
aS'music'
p27
aS'by'
p28
aS'Person'
p29
aS'14481179'
p30
asS'chunk_seq'
p31
(lp32
S'B-NP'
p33
aS'E-NP'
p34
aS'S-PP'
p35
aS'B-NP'
p36
aS'E-NP'
p37
asS'dep_seq'
p38
(lp39
(lp40
S'amod'
p41
aS'2'
aS'1'
aa(lp42
S'root'
p43
aS'0'
aS'2'
aa(lp44
S'nn'
p45
aS'5'
aS'4'
aa(lp46
S'prep_by'
p47
aS'2'
aS'5'
aasS'srls'
p48
(lp49
sS'pos_seq'
p50
(lp51
S'JJ'
p52
aS'NN'
p53
aS'IN'
p54
aS'NN'
p55
aS'NN'
p56
asS'ner_seq'
p57
(lp58
S'O'
aS'O'
aS'O'
aS'O'
aS'O'
assb.