ccopy_reg
_reconstructor
p1
(c__main__
KBproperty
p2
c__builtin__
object
p3
NtRp4
(dp5
S'comment'
p6
S'10898'
p7
sS'domain'
p8
S'Protein '
p9
sS'instances_count'
p10
I103
sS'phrases'
p11
NsS'syn_hypo'
p12
S''
sS'label'
p13
S'PDB'
p14
sS'range'
p15
S'string '
p16
sS'uniq_subjs'
p17
S'103'
p18
sS'uniq_objs'
p19
I0
sS'prop_uri'
p20
S'http://dbpedia.org/ontology/pdb'
p21
sS'annotations'
p22
(dp23
S'bag_of_words'
p24
(lp25
S'Protein'
p26
aS'PDB'
p27
aS'string'
p28
aS'10898'
p29
asS'chunk_seq'
p30
(lp31
S'B-NP'
p32
aS'I-NP'
p33
aS'E-NP'
p34
aS'S-ADJP'
p35
asS'dep_seq'
p36
(lp37
(lp38
S'nn'
p39
aS'3'
aS'1'
aa(lp40
S'nn'
p41
aS'3'
aS'2'
aa(lp42
S'root'
p43
aS'0'
aS'3'
aa(lp44
S'punct'
p45
aS'3'
aS'4'
aasS'srls'
p46
(lp47
sS'pos_seq'
p48
(lp49
S'NNP'
p50
aS'NNP'
p51
aS'NN'
p52
aS'.'
asS'ner_seq'
p53
(lp54
S'O'
aS'O'
aS'O'
aS'O'
assb.