ccopy_reg
_reconstructor
p1
(c__main__
KBproperty
p2
c__builtin__
object
p3
NtRp4
(dp5
S'comment'
p6
S'38413841'
p7
sS'domain'
p8
S'Person '
p9
sS'instances_count'
p10
I28
sS'phrases'
p11
NsS'syn_hypo'
p12
Vautoeroticismsexual_activitysexual_practicesexsex_activityautoerotismsexual_activitysexual_practicesexsex_activitybestialitysexual_activitysexual_practicesexsex_activityzooerastiasexual_activitysexual_practicesexsex_activityzooerastysexual_activitysexual_practicesexsex_activitybisexualitysexual_activitysexual_practicesexsex_activitybondagesexual_activitysexual_practicesexsex_activitycarnal_abusesexual_activitysexual_practicesexsex_activityconceptionsexual_activitysexual_practicesexsex_activitycouplingsexual_activitysexual_practicesexsex_activitymatingsexual_activitysexual_practicesexsex_activitypairingsexual_activitysexual_practicesexsex_activityconjugationsexual_activitysexual_practicesexsex_activityunionsexual_activitysexual_practicesexsex_activitysexual_unionsexual_activitysexual_practicesexsex_activityforeplaysexual_activitysexual_practicesexsex_activityarousalsexual_activitysexual_practicesexsex_activitystimulationsexual_activitysexual_practicesexsex_activityheterosexualitysexual_activitysexual_practicesexsex_activityheterosexualismsexual_activitysexual_practicesexsex_activitystraightnesssexual_activitysexual_practicesexsex_activityhomosexualitysexual_activitysexual_practicesexsex_activityhomosexualismsexual_activitysexual_practicesexsex_activityhomoeroticismsexual_activitysexual_practicesexsex_activityqueernesssexual_activitysexual_practicesexsex_activitygaynesssexual_activitysexual_practicesexsex_activitylecherysexual_activitysexual_practicesexsex_activityoutercoursesexual_activitysexual_practicesexsex_activityperversionsexual_activitysexual_practicesexsex_activitysexual_perversionsexual_activitysexual_practicesexsex_activitypleasuresexual_activitysexual_practicesexsex_activitypromiscuitysexual_activitysexual_practicesexsex_activitypromiscuousnesssexual_activitysexual_practicesexsex_activitysleeping_aroundsexual_activitysexual_practicesexsex_activityreproductionsexual_activitysexual_practicesexsex_activityprocreationsexual_activitysexual_practicesexsex_activitybreedingsexual_activitysexual_practicesexsex_activityfacts_of_lifesexual_activitysexual_practicesexsex_activitysafe_sexsexual_activitysexual_practicesexsex_activitysexual_intercoursesexual_activitysexual_practicesexsex_activityintercoursesexual_activitysexual_practicesexsex_activitysex_actsexual_activitysexual_practicesexsex_activitycopulationsexual_activitysexual_practicesexsex_activitycoitussexual_activitysexual_practicesexsex_activitycoitionsexual_activitysexual_practicesexsex_activitysexual_congresssexual_activitysexual_practicesexsex_activitycongresssexual_activitysexual_practicesexsex_activitysexual_relationsexual_activitysexual_practicesexsex_activityrelationsexual_activitysexual_practicesexsex_activitycarnal_knowledgesexual_activitysexual_practicesexsex_activitysexual_lovesexual_activitysexual_practicesexsex_activitylovemakingsexual_activitysexual_practicesexsex_activitymaking_lovesexual_activitysexual_practicesexsex_activitylovesexual_activitysexual_practicesexsex_activitylove_life
p13
sS'label'
p14
S'sex'
p15
sS'range'
p16
S'string '
p17
sS'uniq_subjs'
p18
S'28'
p19
sS'uniq_objs'
p20
I0
sS'prop_uri'
p21
S'http://dbpedia.org/ontology/sex'
p22
sS'annotations'
p23
(dp24
S'bag_of_words'
p25
(lp26
S'Person'
p27
aS'sex'
p28
aS'string'
p29
aS'38413841'
p30
asS'chunk_seq'
p31
(lp32
S'B-NP'
p33
aS'I-NP'
p34
aS'I-NP'
p35
aS'E-NP'
p36
asS'dep_seq'
p37
(lp38
(lp39
S'nn'
p40
aS'4'
aS'1'
aa(lp41
S'nn'
p42
aS'4'
aS'2'
aa(lp43
S'nn'
p44
aS'4'
aS'3'
aa(lp45
S'root'
p46
aS'0'
aS'4'
aasS'srls'
p47
(lp48
sS'pos_seq'
p49
(lp50
S'NN'
p51
aS'NN'
p52
aS'NN'
p53
aS'NN'
p54
asS'ner_seq'
p55
(lp56
S'O'
aS'O'
aS'O'
aS'O'
assb.