ccopy_reg
_reconstructor
p1
(c__main__
KBproperty
p2
c__builtin__
object
p3
NtRp4
(dp5
S'comment'
p6
S'Modus the game can be played in'
p7
sS'domain'
p8
S''
sS'instances_count'
p9
I0
sS'phrases'
p10
NsS'syn_hypo'
p11
S''
sS'label'
p12
g7
sS'range'
p13
S'string '
p14
sS'uniq_subjs'
p15
S'0'
sS'uniq_objs'
p16
I0
sS'prop_uri'
p17
S'http://dbpedia.org/ontology/gameModus'
p18
sS'annotations'
p19
(dp20
S'bag_of_words'
p21
(lp22
S'game'
p23
aS'Modus'
p24
aS'string'
p25
aS'Modus'
p26
aS'the'
p27
aS'game'
p28
aS'can'
p29
aS'be'
p30
aS'played'
p31
aS'in'
p32
asS'chunk_seq'
p33
(lp34
S'B-NP'
p35
aS'I-NP'
p36
aS'I-NP'
p37
aS'I-NP'
p38
aS'I-NP'
p39
aS'E-NP'
p40
aS'B-VP'
p41
aS'I-VP'
p42
aS'E-VP'
p43
aS'S-PP'
p44
asS'dep_seq'
p45
(lp46
(lp47
S'nn'
p48
aS'6'
aS'1'
aa(lp49
S'nn'
p50
aS'6'
aS'2'
aa(lp51
S'nn'
p52
aS'6'
aS'3'
aa(lp53
S'nn'
p54
aS'6'
aS'4'
aa(lp55
S'det'
p56
aS'6'
aS'5'
aa(lp57
S'nsubjpass'
p58
aS'9'
aS'6'
aa(lp59
S'aux'
p60
aS'9'
aS'7'
aa(lp61
S'auxpass'
p62
aS'9'
aS'8'
aa(lp63
S'root'
p64
aS'0'
aS'9'
aa(lp65
S'advmod'
p66
aS'9'
aS'10'
p67
aasS'srls'
p68
(lp69
(dp70
S'A1'
p71
S'game Modus string Modus the game'
p72
sS'V'
g31
sS'AM-MOD'
p73
g29
sasS'pos_seq'
p74
(lp75
S'NN'
p76
aS'NNP'
p77
aS'NN'
p78
aS'NNP'
p79
aS'DT'
p80
aS'NN'
p81
aS'MD'
p82
aS'VB'
p83
aS'VBN'
p84
aS'IN'
p85
asS'ner_seq'
p86
(lp87
S'O'
aS'B-MISC'
p88
aS'I-MISC'
p89
aS'E-MISC'
p90
aS'O'
aS'O'
aS'O'
aS'O'
aS'O'
aS'O'
assb.