ccopy_reg
_reconstructor
p1
(c__main__
KBproperty
p2
c__builtin__
object
p3
NtRp4
(dp5
S'comment'
p6
S'Registered at Stock Exchange'
p7
sS'domain'
p8
S'Company '
p9
sS'instances_count'
p10
I0
sS'phrases'
p11
NsS'syn_hypo'
p12
S''
sS'label'
p13
g7
sS'range'
p14
S'string '
p15
sS'uniq_subjs'
p16
S'0'
sS'uniq_objs'
p17
I0
sS'prop_uri'
p18
S'http://dbpedia.org/ontology/stockExchange'
p19
sS'annotations'
p20
(dp21
S'bag_of_words'
p22
(lp23
S'Company'
p24
aS'stock'
p25
aS'Exchange'
p26
aS'string'
p27
aS'Registered'
p28
aS'at'
p29
aS'Stock'
p30
aS'Exchange'
p31
asS'chunk_seq'
p32
(lp33
S'B-NP'
p34
aS'I-NP'
p35
aS'I-NP'
p36
aS'E-NP'
p37
aS'S-VP'
p38
aS'S-PP'
p39
aS'B-NP'
p40
aS'E-NP'
p41
asS'dep_seq'
p42
(lp43
(lp44
S'nn'
p45
aS'4'
aS'1'
aa(lp46
S'nn'
p47
aS'4'
aS'2'
aa(lp48
S'nn'
p49
aS'4'
aS'3'
aa(lp50
S'root'
p51
aS'0'
aS'4'
aa(lp52
S'partmod'
p53
aS'4'
aS'5'
aa(lp54
S'nn'
p55
aS'8'
aS'7'
aa(lp56
S'prep_at'
p57
aS'5'
aS'8'
aasS'srls'
p58
(lp59
(dp60
S'A1'
p61
S'Company stock Exchange string'
p62
sS'AM-LOC'
p63
S'at Stock Exchange'
p64
sS'V'
g28
sasS'pos_seq'
p65
(lp66
S'NN'
p67
aS'NN'
p68
aS'NNP'
p69
aS'NN'
p70
aS'VBN'
p71
aS'IN'
p72
aS'NNP'
p73
aS'NNP'
p74
asS'ner_seq'
p75
(lp76
S'O'
aS'O'
aS'O'
aS'O'
aS'O'
aS'O'
aS'B-ORG'
p77
aS'E-ORG'
p78
assb.