ccopy_reg
_reconstructor
p1
(c__main__
KBproperty
p2
c__builtin__
object
p3
NtRp4
(dp5
S'comment'
p6
S'00'
p7
sS'domain'
p8
S'Place '
p9
sS'instances_count'
p10
I0
sS'phrases'
p11
NsS'syn_hypo'
p12
Vbath_waterwaterH2ObilgewaterH2Obilge_waterwaterH2OdishwaterwaterH2Odistilled_waterwaterH2Ofresh_waterwaterH2OfreshwaterwaterH2Oground_waterwaterH2Ospring_waterwaterH2Owell_waterwaterH2Ohard_waterwaterH2Oholy_waterwaterH2OlimewaterwaterH2OmeltwaterwaterH2OseawaterwaterH2OsaltwaterwaterH2ObrinewaterH2OslushwaterH2Osoft_waterwaterH2Otap_waterwaterH2Owater_of_crystallizationwaterH2Owater_of_crystallisationwaterH2Owater_of_hydration
p13
sS'label'
p14
S'water'
p15
sS'range'
p16
S'string '
p17
sS'uniq_subjs'
p18
S'0'
sS'uniq_objs'
p19
I0
sS'prop_uri'
p20
S'http://dbpedia.org/ontology/water'
p21
sS'annotations'
p22
(dp23
S'bag_of_words'
p24
(lp25
S'Place'
p26
aS'water'
p27
aS'string'
p28
aS'00'
p29
asS'chunk_seq'
p30
(lp31
S'B-NP'
p32
aS'I-NP'
p33
aS'E-NP'
p34
aS'O'
asS'dep_seq'
p35
(lp36
(lp37
S'nn'
p38
aS'3'
aS'1'
aa(lp39
S'nn'
p40
aS'3'
aS'2'
aa(lp41
S'root'
p42
aS'0'
aS'3'
aa(lp43
S'num'
p44
aS'3'
aS'4'
aasS'srls'
p45
(lp46
sS'pos_seq'
p47
(lp48
S'NN'
p49
aS'NN'
p50
aS'NN'
p51
aS'CD'
p52
asS'ner_seq'
p53
(lp54
S'O'
aS'O'
aS'O'
aS'O'
assb.