ccopy_reg
_reconstructor
p1
(c__main__
KBproperty
p2
c__builtin__
object
p3
NtRp4
(dp5
S'comment'
p6
S'1111'
p7
sS'domain'
p8
S'Year In Spaceflight '
p9
sS'instances_count'
p10
I11
sS'phrases'
p11
NsS'syn_hypo'
p12
S''
sS'label'
p13
S'country with first satellite launched'
p14
sS'range'
p15
S'Country '
p16
sS'uniq_subjs'
p17
S'11'
p18
sS'uniq_objs'
p19
I0
sS'prop_uri'
p20
S'http://dbpedia.org/ontology/countryWithFirstSatelliteLaunched'
p21
sS'annotations'
p22
(dp23
S'bag_of_words'
p24
(lp25
S'Year'
p26
aS'In'
p27
aS'Spaceflight'
p28
aS'country'
p29
aS'with'
p30
aS'first'
p31
aS'satellite'
p32
aS'launched'
p33
aS'Country'
p34
aS'1111'
p35
asS'chunk_seq'
p36
(lp37
S'S-NP'
p38
aS'S-PP'
p39
aS'B-NP'
p40
aS'E-NP'
p41
aS'S-PP'
p42
aS'B-NP'
p43
aS'I-NP'
p44
aS'I-NP'
p45
aS'I-NP'
p46
aS'E-NP'
p47
asS'dep_seq'
p48
(lp49
(lp50
S'root'
p51
aS'0'
aS'1'
aa(lp52
S'nn'
p53
aS'4'
aS'3'
aa(lp54
S'prep_in'
p55
aS'1'
aS'4'
aa(lp56
S'amod'
p57
aS'10'
p58
aS'6'
aa(lp59
S'nn'
p60
aS'10'
p61
aS'7'
aa(lp62
S'amod'
p63
aS'10'
p64
aS'8'
aa(lp65
S'nn'
p66
aS'10'
p67
aS'9'
aa(lp68
S'prep_with'
p69
aS'1'
aS'10'
p70
aasS'srls'
p71
(lp72
(dp73
S'A1'
p74
S'Country 1111'
p75
sS'A0'
p76
S'Year In Spaceflight country with first satellite'
p77
sS'V'
g33
sasS'pos_seq'
p78
(lp79
S'NN'
p80
aS'IN'
p81
aS'NNP'
p82
aS'NN'
p83
aS'IN'
p84
aS'JJ'
p85
aS'NN'
p86
aS'VBN'
p87
aS'NN'
p88
aS'NN'
p89
asS'ner_seq'
p90
(lp91
S'O'
aS'O'
aS'O'
aS'O'
aS'O'
aS'O'
aS'O'
aS'O'
aS'S-MISC'
p92
aS'O'
assb.