ccopy_reg
_reconstructor
p1
(c__main__
KBproperty
p2
c__builtin__
object
p3
NtRp4
(dp5
S'comment'
p6
S'85233690'
p7
sS'domain'
p8
S'Mean Of Transportation '
p9
sS'instances_count'
p10
I2554
sS'phrases'
p11
NsS'syn_hypo'
p12
S''
sS'label'
p13
S'related mean of transportation'
p14
sS'range'
p15
S'Mean Of Transportation '
p16
sS'uniq_subjs'
p17
S'2554'
p18
sS'uniq_objs'
p19
I0
sS'prop_uri'
p20
S'http://dbpedia.org/ontology/relatedMeanOfTransportation'
p21
sS'annotations'
p22
(dp23
S'bag_of_words'
p24
(lp25
S'Mean'
p26
aS'Of'
p27
aS'Transportation'
p28
aS'related'
p29
aS'mean'
p30
aS'of'
p31
aS'transportation'
p32
aS'Mean'
p33
aS'Of'
p34
aS'Transportation'
p35
aS'85233690'
p36
asS'chunk_seq'
p37
(lp38
S'S-NP'
p39
aS'S-PP'
p40
aS'S-NP'
p41
aS'B-NP'
p42
aS'E-NP'
p43
aS'S-PP'
p44
aS'S-NP'
p45
aS'S-NP'
p46
aS'S-PP'
p47
aS'S-NP'
p48
aS'S-NP'
p49
asS'dep_seq'
p50
(lp51
(lp52
S'root'
p53
aS'0'
aS'1'
aa(lp54
S'prep_of'
p55
aS'1'
aS'3'
aa(lp56
S'amod'
p57
aS'5'
aS'4'
aa(lp58
S'dep'
p59
aS'1'
aS'5'
aa(lp60
S'nn'
p61
aS'8'
aS'7'
aa(lp62
S'prep_of'
p63
aS'5'
aS'8'
aa(lp64
S'prep_of'
p65
aS'8'
aS'10'
p66
aa(lp67
S'dep'
p68
aS'5'
aS'11'
p69
aasS'srls'
p70
(lp71
(dp72
S'A1'
p73
g28
sS'V'
g29
sasS'pos_seq'
p74
(lp75
S'NNP'
p76
aS'IN'
p77
aS'NNP'
p78
aS'JJ'
p79
aS'NN'
p80
aS'IN'
p81
aS'NN'
p82
aS'NNP'
p83
aS'IN'
p84
aS'NNP'
p85
aS'CD'
p86
asS'ner_seq'
p87
(lp88
S'O'
aS'O'
aS'O'
aS'O'
aS'O'
aS'O'
aS'O'
aS'B-ORG'
p89
aS'I-ORG'
p90
aS'E-ORG'
p91
aS'O'
assb.