ccopy_reg
_reconstructor
p1
(c__main__
KBproperty
p2
c__builtin__
object
p3
NtRp4
(dp5
S'comment'
p6
S'Character size of wiki page'
p7
sS'domain'
p8
S''
sS'instances_count'
p9
I0
sS'phrases'
p10
NsS'syn_hypo'
p11
S''
sS'label'
p12
g7
sS'range'
p13
S'non Negative Integer '
p14
sS'uniq_subjs'
p15
S'0'
sS'uniq_objs'
p16
I0
sS'prop_uri'
p17
S'http://dbpedia.org/ontology/wikiPageCharacterSize'
p18
sS'annotations'
p19
(dp20
S'bag_of_words'
p21
(lp22
S'wiki'
p23
aS'Page'
p24
aS'Character'
p25
aS'Size'
p26
aS'non'
p27
aS'Negative'
p28
aS'Integer'
p29
aS'Character'
p30
aS'size'
p31
aS'of'
p32
aS'wiki'
p33
aS'page'
p34
asS'chunk_seq'
p35
(lp36
S'B-NP'
p37
aS'I-NP'
p38
aS'I-NP'
p39
aS'I-NP'
p40
aS'I-NP'
p41
aS'I-NP'
p42
aS'I-NP'
p43
aS'I-NP'
p44
aS'E-NP'
p45
aS'S-PP'
p46
aS'B-NP'
p47
aS'E-NP'
p48
asS'dep_seq'
p49
(lp50
(lp51
S'nn'
p52
aS'9'
aS'1'
aa(lp53
S'nn'
p54
aS'9'
aS'2'
aa(lp55
S'nn'
p56
aS'9'
aS'3'
aa(lp57
S'nn'
p58
aS'9'
aS'4'
aa(lp59
S'amod'
p60
aS'9'
aS'5'
aa(lp61
S'amod'
p62
aS'9'
aS'6'
aa(lp63
S'nn'
p64
aS'9'
aS'7'
aa(lp65
S'nn'
p66
aS'9'
aS'8'
aa(lp67
S'root'
p68
aS'0'
aS'9'
aa(lp69
S'nn'
p70
aS'12'
p71
aS'11'
p72
aa(lp73
S'prep_of'
p74
aS'9'
aS'12'
p75
aasS'srls'
p76
(lp77
sS'pos_seq'
p78
(lp79
S'NN'
p80
aS'NNP'
p81
aS'NNP'
p82
aS'NNP'
p83
aS'JJ'
p84
aS'JJ'
p85
aS'NN'
p86
aS'NN'
p87
aS'NN'
p88
aS'IN'
p89
aS'NN'
p90
aS'NN'
p91
asS'ner_seq'
p92
(lp93
S'O'
aS'O'
aS'O'
aS'O'
aS'O'
aS'O'
aS'O'
aS'O'
aS'O'
aS'O'
aS'O'
aS'O'
assb.