ccopy_reg
_reconstructor
p1
(c__main__
KBproperty
p2
c__builtin__
object
p3
NtRp4
(dp5
S'comment'
p6
S'National cuisine of a Food or Restaurant765753'
p7
sS'domain'
p8
S''
sS'instances_count'
p9
I392
sS'phrases'
p10
NsS'syn_hypo'
p11
Vdim_sumcuisineculinary_artgastronomycuisineculinary_arthaute_cuisinecuisineculinary_artnouvelle_cuisinecuisineculinary_artrechauffe
p12
sS'label'
p13
S'cuisine'
p14
sS'range'
p15
S'string '
p16
sS'uniq_subjs'
p17
S'392'
p18
sS'uniq_objs'
p19
I0
sS'prop_uri'
p20
S'http://dbpedia.org/ontology/cuisine'
p21
sS'annotations'
p22
(dp23
S'bag_of_words'
p24
(lp25
S'cuisine'
p26
aS'string'
p27
aS'National'
p28
aS'cuisine'
p29
aS'of'
p30
aS'a'
aS'Food'
p31
aS'or'
p32
aS'Restaurant765753'
p33
asS'chunk_seq'
p34
(lp35
S'B-NP'
p36
aS'I-NP'
p37
aS'I-NP'
p38
aS'E-NP'
p39
aS'S-PP'
p40
aS'B-NP'
p41
aS'I-NP'
p42
aS'I-NP'
p43
aS'E-NP'
p44
asS'dep_seq'
p45
(lp46
(lp47
S'nn'
p48
aS'4'
aS'1'
aa(lp49
S'nn'
p50
aS'4'
aS'2'
aa(lp51
S'amod'
p52
aS'4'
aS'3'
aa(lp53
S'root'
p54
aS'0'
aS'4'
aa(lp55
S'det'
p56
aS'7'
aS'6'
aa(lp57
S'prep_of'
p58
aS'4'
aS'7'
aa(lp59
S'conj_or'
p60
aS'7'
aS'9'
aasS'srls'
p61
(lp62
sS'pos_seq'
p63
(lp64
S'NN'
p65
aS'NN'
p66
aS'JJ'
p67
aS'NN'
p68
aS'IN'
p69
aS'DT'
p70
aS'NNP'
p71
aS'CC'
p72
aS'NNP'
p73
asS'ner_seq'
p74
(lp75
S'O'
aS'O'
aS'S-MISC'
p76
aS'O'
aS'O'
aS'O'
aS'O'
aS'O'
aS'S-PER'
p77
assb.