ccopy_reg
_reconstructor
p1
(c__main__
KBproperty
p2
c__builtin__
object
p3
NtRp4
(dp5
S'comment'
p6
S'has abstract'
p7
sS'domain'
p8
S''
sS'instances_count'
p9
I12200365
sS'phrases'
p10
NsS'syn_hypo'
p11
S''
sS'label'
p12
g7
sS'range'
p13
S'lang String '
p14
sS'uniq_subjs'
p15
S'12200365'
p16
sS'uniq_objs'
p17
I0
sS'prop_uri'
p18
S'http://dbpedia.org/ontology/abstract'
p19
sS'annotations'
p20
(dp21
S'bag_of_words'
p22
(lp23
S'abstract'
p24
aS'lang'
p25
aS'String'
p26
aS'has'
p27
aS'abstract'
p28
asS'chunk_seq'
p29
(lp30
S'B-NP'
p31
aS'I-NP'
p32
aS'E-NP'
p33
aS'S-VP'
p34
aS'S-ADJP'
p35
asS'dep_seq'
p36
(lp37
(lp38
S'amod'
p39
aS'3'
aS'1'
aa(lp40
S'amod'
p41
aS'3'
aS'2'
aa(lp42
S'nsubj'
p43
aS'5'
aS'3'
aa(lp44
S'dep'
p45
aS'5'
aS'4'
aa(lp46
S'root'
p47
aS'0'
aS'5'
aasS'srls'
p48
(lp49
sS'pos_seq'
p50
(lp51
S'JJ'
p52
aS'VBG'
p53
aS'NN'
p54
aS'VBZ'
p55
aS'JJ'
p56
asS'ner_seq'
p57
(lp58
S'O'
aS'B-PER'
p59
aS'E-PER'
p60
aS'O'
aS'O'
assb.