ccopy_reg
_reconstructor
p1
(c__main__
KBproperty
p2
c__builtin__
object
p3
NtRp4
(dp5
S'comment'
p6
S'ship launched'
p7
sS'domain'
p8
S'Ship '
p9
sS'instances_count'
p10
I10886
sS'phrases'
p11
NsS'syn_hypo'
p12
S''
sS'label'
p13
g7
sS'range'
p14
S'date '
p15
sS'uniq_subjs'
p16
S'10886'
p17
sS'uniq_objs'
p18
I0
sS'prop_uri'
p19
S'http://dbpedia.org/ontology/shipLaunch'
p20
sS'annotations'
p21
(dp22
S'bag_of_words'
p23
(lp24
S'Ship'
p25
aS'ship'
p26
aS'Launch'
p27
aS'date'
p28
aS'ship'
p29
aS'launched'
p30
asS'chunk_seq'
p31
(lp32
S'B-NP'
p33
aS'I-NP'
p34
aS'I-NP'
p35
aS'I-NP'
p36
aS'E-NP'
p37
aS'S-VP'
p38
asS'dep_seq'
p39
(lp40
(lp41
S'nn'
p42
aS'5'
aS'1'
aa(lp43
S'nn'
p44
aS'5'
aS'2'
aa(lp45
S'nn'
p46
aS'5'
aS'3'
aa(lp47
S'nn'
p48
aS'5'
aS'4'
aa(lp49
S'root'
p50
aS'0'
aS'5'
aa(lp51
S'dep'
p52
aS'5'
aS'6'
aasS'srls'
p53
(lp54
(dp55
S'A1'
p56
S'Ship ship Launch date ship'
p57
sS'V'
g30
sasS'pos_seq'
p58
(lp59
S'NN'
p60
aS'NN'
p61
aS'NN'
p62
aS'NN'
p63
aS'NN'
p64
aS'VBN'
p65
asS'ner_seq'
p66
(lp67
S'O'
aS'O'
aS'O'
aS'O'
aS'O'
aS'O'
assb.