ccopy_reg
_reconstructor
p1
(c__main__
KBproperty
p2
c__builtin__
object
p3
NtRp4
(dp5
S'comment'
p6
S'The country for which the athlete is participating in championships182177'
p7
sS'domain'
p8
S'Athlete '
p9
sS'instances_count'
p10
I182
sS'phrases'
p11
NsS'syn_hypo'
p12
S''
sS'label'
p13
S'sport country'
p14
sS'range'
p15
S'Country '
p16
sS'uniq_subjs'
p17
S'39'
p18
sS'uniq_objs'
p19
I0
sS'prop_uri'
p20
S'http://dbpedia.org/ontology/sportCountry'
p21
sS'annotations'
p22
(dp23
S'bag_of_words'
p24
(lp25
S'Athlete'
p26
aS'sport'
p27
aS'country'
p28
aS'Country'
p29
aS'The'
p30
aS'country'
p31
aS'for'
p32
aS'which'
p33
aS'the'
p34
aS'athlete'
p35
aS'is'
p36
aS'participating'
p37
aS'in'
p38
aS'championships182177'
p39
asS'chunk_seq'
p40
(lp41
S'B-NP'
p42
aS'I-NP'
p43
aS'I-NP'
p44
aS'E-NP'
p45
aS'B-NP'
p46
aS'E-NP'
p47
aS'S-PP'
p48
aS'S-NP'
p49
aS'B-NP'
p50
aS'E-NP'
p51
aS'B-VP'
p52
aS'E-VP'
p53
aS'S-PP'
p54
aS'S-NP'
p55
asS'dep_seq'
p56
(lp57
(lp58
S'nn'
p59
aS'4'
aS'1'
aa(lp60
S'nn'
p61
aS'4'
aS'2'
aa(lp62
S'nn'
p63
aS'4'
aS'3'
aa(lp64
S'dep'
p65
aS'6'
aS'4'
aa(lp66
S'det'
p67
aS'6'
aS'5'
aa(lp68
S'root'
p69
aS'0'
aS'6'
aa(lp70
S'prep_for'
p71
aS'12'
p72
aS'6'
aa(lp73
S'rel'
p74
aS'12'
p75
aS'7'
aa(lp76
S'det'
p77
aS'10'
p78
aS'9'
aa(lp79
S'nsubj'
p80
aS'12'
p81
aS'10'
p82
aa(lp83
S'aux'
p84
aS'12'
p85
aS'11'
p86
aa(lp87
S'rcmod'
p88
aS'6'
aS'12'
p89
aa(lp90
S'prep_in'
p91
aS'12'
p92
aS'14'
p93
aasS'srls'
p94
(lp95
(dp96
S'A0'
p97
S'Athlete sport country Country The country for which the athlete'
p98
sS'AM-LOC'
p99
S'in championships182177'
p100
sS'V'
g37
sasS'pos_seq'
p101
(lp102
S'NN'
p103
aS'NN'
p104
aS'NN'
p105
aS'NNP'
p106
aS'DT'
p107
aS'NN'
p108
aS'IN'
p109
aS'WDT'
p110
aS'DT'
p111
aS'NN'
p112
aS'VBZ'
p113
aS'VBG'
p114
aS'IN'
p115
aS'NN'
p116
asS'ner_seq'
p117
(lp118
S'O'
aS'O'
aS'O'
aS'B-ORG'
p119
aS'E-ORG'
p120
aS'O'
aS'O'
aS'O'
aS'O'
aS'O'
aS'O'
aS'O'
aS'O'
aS'O'
assb.