ccopy_reg
_reconstructor
p1
(c__main__
KBproperty
p2
c__builtin__
object
p3
NtRp4
(dp5
S'comment'
p6
S'00'
p7
sS'domain'
p8
S''
sS'instances_count'
p9
I0
sS'phrases'
p10
NsS'syn_hypo'
p11
Vclass_struggleconflictstrugglebattleclass_warconflictstrugglebattleclass_warfareconflictstrugglebattlefeudconflictstrugglebattlefightconflictstrugglebattlefightingconflictstrugglebattlecombatconflictstrugglebattlescrapconflictstrugglebattlepacificationconflictstrugglebattlecounterinsurgencyconflictstrugglebattlerebellionconflictstrugglebattleinsurrectionconflictstrugglebattlerevoltconflictstrugglebattlerisingconflictstrugglebattleuprisingconflictstrugglebattlestrifeconflictstrugglebattletug-of-warconflictstrugglebattleturf_warconflictstrugglebattlewarconflictstrugglebattlewarfare
p12
sS'label'
p13
S'conflict'
p14
sS'range'
p15
S'Military Conflict '
p16
sS'uniq_subjs'
p17
S'0'
sS'uniq_objs'
p18
I0
sS'prop_uri'
p19
S'http://dbpedia.org/ontology/conflict'
p20
sS'annotations'
p21
(dp22
S'bag_of_words'
p23
(lp24
S'conflict'
p25
aS'Military'
p26
aS'Conflict'
p27
aS'00'
p28
asS'chunk_seq'
p29
(lp30
S'B-NP'
p31
aS'I-NP'
p32
aS'E-NP'
p33
aS'S-NP'
p34
asS'dep_seq'
p35
(lp36
(lp37
S'nn'
p38
aS'3'
aS'1'
aa(lp39
S'nn'
p40
aS'3'
aS'2'
aa(lp41
S'root'
p42
aS'0'
aS'3'
aa(lp43
S'num'
p44
aS'3'
aS'4'
aasS'srls'
p45
(lp46
sS'pos_seq'
p47
(lp48
S'NN'
p49
aS'NNP'
p50
aS'NNP'
p51
aS'CD'
p52
asS'ner_seq'
p53
(lp54
S'O'
aS'B-ORG'
p55
aS'E-ORG'
p56
aS'O'
assb.