ccopy_reg
_reconstructor
p1
(c__main__
KBproperty
p2
c__builtin__
object
p3
NtRp4
(dp5
S'comment'
p6
S"specifies the audio type of the film i.e. 'sound' or 'silent00"
p7
sS'domain'
p8
S'Film '
p9
sS'instances_count'
p10
I0
sS'phrases'
p11
NsS'syn_hypo'
p12
S''
sS'label'
p13
S'film audio type'
p14
sS'range'
p15
S'string '
p16
sS'uniq_subjs'
p17
S'0'
sS'uniq_objs'
p18
I0
sS'prop_uri'
p19
S'http://dbpedia.org/ontology/filmAudioType'
p20
sS'annotations'
p21
(dp22
S'bag_of_words'
p23
(lp24
S'Film'
p25
aS'film'
p26
aS'audio'
p27
aS'type'
p28
aS'string'
p29
aS'specifies'
p30
aS'the'
p31
aS'audio'
p32
aS'type'
p33
aS'of'
p34
aS'the'
p35
aS'film'
p36
aS'i.e.'
p37
aS"'so"
p38
aS'und'
p39
aS"'"
aS'or'
p40
aS"'s"
p41
aS'ilent00'
p42
asS'chunk_seq'
p43
(lp44
S'B-NP'
p45
aS'I-NP'
p46
aS'I-NP'
p47
aS'I-NP'
p48
aS'E-NP'
p49
aS'S-VP'
p50
aS'B-NP'
p51
aS'I-NP'
p52
aS'E-NP'
p53
aS'S-PP'
p54
aS'B-NP'
p55
aS'E-NP'
p56
aS'O'
aS'O'
aS'O'
aS'O'
aS'O'
aS'B-NP'
p57
aS'E-NP'
p58
asS'dep_seq'
p59
(lp60
(lp61
S'nn'
p62
aS'5'
aS'1'
aa(lp63
S'nn'
p64
aS'5'
aS'2'
aa(lp65
S'nn'
p66
aS'5'
aS'3'
aa(lp67
S'nn'
p68
aS'5'
aS'4'
aa(lp69
S'nsubj'
p70
aS'6'
aS'5'
aa(lp71
S'root'
p72
aS'0'
aS'6'
aa(lp73
S'det'
p74
aS'9'
aS'7'
aa(lp75
S'amod'
p76
aS'9'
aS'8'
aa(lp77
S'dobj'
p78
aS'6'
aS'9'
aa(lp79
S'iobj'
p80
aS'6'
aS'9'
aa(lp81
S'det'
p82
aS'12'
p83
aS'11'
p84
aa(lp85
S'prep_of'
p86
aS'9'
aS'12'
p87
aa(lp88
S'dep'
p89
aS'9'
aS'13'
p90
aa(lp91
S'nn'
p92
aS'15'
p93
aS'14'
p94
aa(lp95
S'poss'
p96
aS'19'
p97
aS'15'
p98
aa(lp99
S'conj_or'
p100
aS'15'
p101
aS'18'
p102
aa(lp103
S'dep'
p104
aS'9'
aS'19'
p105
aasS'srls'
p106
(lp107
(dp108
S'A1'
p109
S"the audio type of the film i.e. 'so und ' or 's ilent00"
p110
sS'A0'
p111
S'Film film audio type string'
p112
sS'V'
g30
sasS'pos_seq'
p113
(lp114
S'NN'
p115
aS'NN'
p116
aS'NN'
p117
aS'NN'
p118
aS'NN'
p119
aS'VBZ'
p120
aS'DT'
p121
aS'JJ'
p122
aS'NN'
p123
aS'IN'
p124
aS'DT'
p125
aS'NN'
p126
aS'FW'
p127
aS'FW'
p128
aS'FW'
p129
aS"''"
p130
aS'CC'
p131
aS'POS'
p132
aS'NN'
p133
asS'ner_seq'
p134
(lp135
S'O'
aS'O'
aS'O'
aS'O'
aS'O'
aS'O'
aS'O'
aS'O'
aS'O'
aS'O'
aS'O'
aS'O'
aS'O'
aS'O'
aS'O'
aS'O'
aS'O'
aS'O'
aS'O'
assb.