ccopy_reg
_reconstructor
p1
(c__main__
KBproperty
p2
c__builtin__
object
p3
NtRp4
(dp5
S'comment'
p6
S'date of final flight169140'
p7
sS'domain'
p8
S'Rocket '
p9
sS'instances_count'
p10
I161
sS'phrases'
p11
NsS'syn_hypo'
p12
S''
sS'label'
p13
S'final flight'
p14
sS'range'
p15
S'date '
p16
sS'uniq_subjs'
p17
S'161'
p18
sS'uniq_objs'
p19
I0
sS'prop_uri'
p20
S'http://dbpedia.org/ontology/finalFlight'
p21
sS'annotations'
p22
(dp23
S'bag_of_words'
p24
(lp25
S'Rocket'
p26
aS'final'
p27
aS'flight'
p28
aS'date'
p29
aS'date'
p30
aS'of'
p31
aS'final'
p32
aS'flight169140'
p33
asS'chunk_seq'
p34
(lp35
S'B-NP'
p36
aS'I-NP'
p37
aS'I-NP'
p38
aS'E-NP'
p39
aS'S-NP'
p40
aS'S-PP'
p41
aS'B-NP'
p42
aS'E-NP'
p43
asS'dep_seq'
p44
(lp45
(lp46
S'nn'
p47
aS'5'
aS'1'
aa(lp48
S'amod'
p49
aS'5'
aS'2'
aa(lp50
S'nn'
p51
aS'5'
aS'3'
aa(lp52
S'nn'
p53
aS'5'
aS'4'
aa(lp54
S'root'
p55
aS'0'
aS'5'
aa(lp56
S'amod'
p57
aS'8'
aS'7'
aa(lp58
S'prep_of'
p59
aS'5'
aS'8'
aasS'srls'
p60
(lp61
sS'pos_seq'
p62
(lp63
S'NNP'
p64
aS'JJ'
p65
aS'NN'
p66
aS'NN'
p67
aS'NN'
p68
aS'IN'
p69
aS'JJ'
p70
aS'NN'
p71
asS'ner_seq'
p72
(lp73
S'O'
aS'O'
aS'O'
aS'O'
aS'O'
aS'O'
aS'O'
aS'O'
assb.