ccopy_reg
_reconstructor
p1
(c__main__
KBproperty
p2
c__builtin__
object
p3
NtRp4
(dp5
S'comment'
p6
S'Year station was electrified if not previously at date of opening.13791259'
p7
sS'domain'
p8
S'Station '
p9
sS'instances_count'
p10
I1379
sS'phrases'
p11
NsS'syn_hypo'
p12
S''
sS'label'
p13
S'year of electrification'
p14
sS'range'
p15
S'g Year '
p16
sS'uniq_subjs'
p17
S'121'
p18
sS'uniq_objs'
p19
I0
sS'prop_uri'
p20
S'http://dbpedia.org/ontology/yearOfElectrification'
p21
sS'annotations'
p22
(dp23
S'bag_of_words'
p24
(lp25
S'Station'
p26
aS'year'
p27
aS'of'
p28
aS'electrification'
p29
aS'g'
aS'Year'
p30
aS'Year'
p31
aS'station'
p32
aS'was'
p33
aS'electrified'
p34
aS'if'
p35
aS'not'
p36
aS'previously'
p37
aS'at'
p38
aS'date'
p39
aS'of'
p40
aS'opening.13791259'
p41
asS'chunk_seq'
p42
(lp43
S'B-NP'
p44
aS'E-NP'
p45
aS'S-PP'
p46
aS'S-NP'
p47
aS'B-NP'
p48
aS'I-NP'
p49
aS'I-NP'
p50
aS'E-NP'
p51
aS'B-VP'
p52
aS'E-VP'
p53
aS'S-SBAR'
p54
aS'O'
aS'S-ADVP'
p55
aS'S-PP'
p56
aS'S-NP'
p57
aS'S-PP'
p58
aS'S-NP'
p59
asS'dep_seq'
p60
(lp61
(lp62
S'nn'
p63
aS'2'
aS'1'
aa(lp64
S'nsubjpass'
p65
aS'10'
p66
aS'2'
aa(lp67
S'nn'
p68
aS'8'
aS'4'
aa(lp69
S'num'
p70
aS'8'
aS'5'
aa(lp71
S'nn'
p72
aS'8'
aS'6'
aa(lp73
S'nn'
p74
aS'8'
aS'7'
aa(lp75
S'prep_of'
p76
aS'2'
aS'8'
aa(lp77
S'auxpass'
p78
aS'10'
p79
aS'9'
aa(lp80
S'root'
p81
aS'0'
aS'10'
p82
aa(lp83
S'prep'
p84
aS'10'
p85
aS'11'
p86
aa(lp87
S'neg'
p88
aS'11'
p89
aS'12'
p90
aa(lp91
S'dep'
p92
aS'11'
p93
aS'13'
p94
aa(lp95
S'prep_at'
p96
aS'11'
p97
aS'15'
p98
aa(lp99
S'prep_of'
p100
aS'15'
p101
aS'17'
p102
aasS'srls'
p103
(lp104
(dp105
S'A1'
p106
S'Station year of electrification g Year Year station'
p107
sS'AM-ADV'
p108
S'if not previously at date of opening.13791259'
p109
sS'V'
g34
sasS'pos_seq'
p110
(lp111
S'NN'
p112
aS'NN'
p113
aS'IN'
p114
aS'NN'
p115
aS'CD'
p116
aS'NN'
p117
aS'NN'
p118
aS'NN'
p119
aS'VBD'
p120
aS'VBN'
p121
aS'IN'
p122
aS'RB'
p123
aS'RB'
p124
aS'IN'
p125
aS'NN'
p126
aS'IN'
p127
aS'NN'
p128
asS'ner_seq'
p129
(lp130
S'O'
aS'O'
aS'O'
aS'O'
aS'O'
aS'O'
aS'O'
aS'O'
aS'O'
aS'O'
aS'O'
aS'O'
aS'O'
aS'O'
aS'O'
aS'O'
aS'O'
assb.