ccopy_reg
_reconstructor
p1
(c__main__
KBproperty
p2
c__builtin__
object
p3
NtRp4
(dp5
S'comment'
p6
S'61895473'
p7
sS'domain'
p8
S''
sS'instances_count'
p9
I3166
sS'phrases'
p10
NsS'syn_hypo'
p11
S''
sS'label'
p12
S'source mountain'
p13
sS'range'
p14
S'Mountain '
p15
sS'uniq_subjs'
p16
S'3166'
p17
sS'uniq_objs'
p18
I0
sS'prop_uri'
p19
S'http://dbpedia.org/ontology/sourceMountain'
p20
sS'annotations'
p21
(dp22
S'bag_of_words'
p23
(lp24
S'source'
p25
aS'mountain'
p26
aS'Mountain'
p27
aS'61895473'
p28
asS'chunk_seq'
p29
(lp30
S'B-NP'
p31
aS'I-NP'
p32
aS'I-NP'
p33
aS'E-NP'
p34
asS'dep_seq'
p35
(lp36
(lp37
S'nn'
p38
aS'4'
aS'1'
aa(lp39
S'nn'
p40
aS'4'
aS'2'
aa(lp41
S'nn'
p42
aS'4'
aS'3'
aa(lp43
S'root'
p44
aS'0'
aS'4'
aasS'srls'
p45
(lp46
sS'pos_seq'
p47
(lp48
S'NN'
p49
aS'NN'
p50
aS'NN'
p51
aS'NN'
p52
asS'ner_seq'
p53
(lp54
S'O'
aS'O'
aS'B-LOC'
p55
aS'E-LOC'
p56
assb.