ccopy_reg
_reconstructor
p1
(c__main__
KBproperty
p2
c__builtin__
object
p3
NtRp4
(dp5
S'comment'
p6
S'Date a page was extracted 00'
p7
sS'domain'
p8
S''
sS'instances_count'
p9
I0
sS'phrases'
p10
NsS'syn_hypo'
p11
S''
sS'label'
p12
S'extraction datetime'
p13
sS'range'
p14
S'date Time '
p15
sS'uniq_subjs'
p16
S'0'
sS'uniq_objs'
p17
I0
sS'prop_uri'
p18
S'http://dbpedia.org/ontology/wikiPageExtracted'
p19
sS'annotations'
p20
(dp21
S'bag_of_words'
p22
(lp23
S'extraction'
p24
aS'datetime'
p25
aS'date'
p26
aS'Time'
p27
aS'Date'
p28
aS'a'
aS'page'
p29
aS'was'
p30
aS'extracted'
p31
aS'00'
p32
asS'chunk_seq'
p33
(lp34
S'B-NP'
p35
aS'I-NP'
p36
aS'E-NP'
p37
aS'B-NP'
p38
aS'E-NP'
p39
aS'B-NP'
p40
aS'E-NP'
p41
aS'B-VP'
p42
aS'E-VP'
p43
aS'S-NP'
p44
asS'dep_seq'
p45
(lp46
(lp47
S'nn'
p48
aS'3'
aS'1'
aa(lp49
S'amod'
p50
aS'3'
aS'2'
aa(lp51
S'nsubjpass'
p52
aS'9'
aS'3'
aa(lp53
S'nn'
p54
aS'5'
aS'4'
aa(lp55
S'dep'
p56
aS'3'
aS'5'
aa(lp57
S'det'
p58
aS'7'
aS'6'
aa(lp59
S'dep'
p60
aS'5'
aS'7'
aa(lp61
S'auxpass'
p62
aS'9'
aS'8'
aa(lp63
S'root'
p64
aS'0'
aS'9'
aa(lp65
S'dobj'
p66
aS'9'
aS'10'
p67
aasS'srls'
p68
(lp69
(dp70
S'A1'
p71
S'extraction datetime date  a page'
p72
sS'A2'
p73
g32
sS'AM-TMP'
p74
S'Time Date'
p75
sS'V'
g31
sasS'pos_seq'
p76
(lp77
S'NN'
p78
aS'JJ'
p79
aS'NN'
p80
aS'NN'
p81
aS'NN'
p82
aS'DT'
p83
aS'NN'
p84
aS'VBD'
p85
aS'VBN'
p86
aS'CD'
p87
asS'ner_seq'
p88
(lp89
S'O'
aS'O'
aS'O'
aS'O'
aS'O'
aS'O'
aS'O'
aS'O'
aS'O'
aS'O'
assb.