ccopy_reg
_reconstructor
p1
(c__main__
KBproperty
p2
c__builtin__
object
p3
NtRp4
(dp5
S'comment'
p6
S'Different from eMedicineSubject which see00'
p7
sS'domain'
p8
S'Disease '
p9
sS'instances_count'
p10
I0
sS'phrases'
p11
NsS'syn_hypo'
p12
S''
sS'label'
p13
S'eMedicine topic'
p14
sS'range'
p15
S'lang String '
p16
sS'uniq_subjs'
p17
S'0'
sS'uniq_objs'
p18
I0
sS'prop_uri'
p19
S'http://dbpedia.org/ontology/eMedicineTopic'
p20
sS'annotations'
p21
(dp22
S'bag_of_words'
p23
(lp24
S'Disease'
p25
aS'eMedicine'
p26
aS'topic'
p27
aS'lang'
p28
aS'String'
p29
aS'Different'
p30
aS'from'
p31
aS'eMedicineSubject'
p32
aS'which'
p33
aS'see00'
p34
asS'chunk_seq'
p35
(lp36
S'B-NP'
p37
aS'I-NP'
p38
aS'I-NP'
p39
aS'I-NP'
p40
aS'E-NP'
p41
aS'S-ADJP'
p42
aS'S-PP'
p43
aS'S-NP'
p44
aS'S-NP'
p45
aS'S-VP'
p46
asS'dep_seq'
p47
(lp48
(lp49
S'nn'
p50
aS'5'
aS'1'
aa(lp51
S'amod'
p52
aS'5'
aS'2'
aa(lp53
S'nn'
p54
aS'5'
aS'3'
aa(lp55
S'amod'
p56
aS'5'
aS'4'
aa(lp57
S'root'
p58
aS'0'
aS'5'
aa(lp59
S'amod'
p60
aS'5'
aS'6'
aa(lp61
S'prep_from'
p62
aS'6'
aS'8'
aa(lp63
S'nsubj'
p64
aS'10'
p65
aS'9'
aa(lp66
S'ccomp'
p67
aS'6'
aS'10'
p68
aasS'srls'
p69
(lp70
(dp71
S'A1'
p72
g29
sS'V'
g28
sasS'pos_seq'
p73
(lp74
S'NN'
p75
aS'JJ'
p76
aS'NN'
p77
aS'VBG'
p78
aS'NN'
p79
aS'JJ'
p80
aS'IN'
p81
aS'NN'
p82
aS'WDT'
p83
aS'VBD'
p84
asS'ner_seq'
p85
(lp86
S'O'
aS'O'
aS'O'
aS'O'
aS'B-MISC'
p87
aS'I-MISC'
p88
aS'I-MISC'
p89
aS'E-MISC'
p90
aS'O'
aS'O'
assb.