ccopy_reg
_reconstructor
p1
(c__main__
KBproperty
p2
c__builtin__
object
p3
NtRp4
(dp5
S'comment'
p6
S'00'
p7
sS'domain'
p8
S''
sS'instances_count'
p9
I0
sS'phrases'
p10
NsS'syn_hypo'
p11
S''
sS'label'
p12
S'alongside'
p13
sS'range'
p14
S'Person '
p15
sS'uniq_subjs'
p16
S'0'
sS'uniq_objs'
p17
I0
sS'prop_uri'
p18
S'http://dbpedia.org/ontology/alongside'
p19
sS'annotations'
p20
(dp21
S'bag_of_words'
p22
(lp23
S'alongside'
p24
aS'Person'
p25
aS'00'
p26
asS'chunk_seq'
p27
(lp28
S'S-PP'
p29
aS'S-NP'
p30
aS'O'
asS'dep_seq'
p31
(lp32
(lp33
S'root'
p34
aS'0'
aS'1'
aa(lp35
S'pobj'
p36
aS'1'
aS'2'
aa(lp37
S'num'
p38
aS'2'
aS'3'
aasS'srls'
p39
(lp40
sS'pos_seq'
p41
(lp42
S'IN'
p43
aS'NN'
p44
aS'CD'
p45
asS'ner_seq'
p46
(lp47
S'O'
aS'O'
aS'O'
assb.