ccopy_reg
_reconstructor
p1
(c__main__
KBproperty
p2
c__builtin__
object
p3
NtRp4
(dp5
S'comment'
p6
S'53312804'
p7
sS'domain'
p8
S'Fictional Character '
p9
sS'instances_count'
p10
I4425
sS'phrases'
p11
(lp12
S' actor played'
p13
aS' acted as\n'
p14
asS'syn_hypo'
p15
V
sS'label'
p16
S'portrayer'
p17
sS'range'
p18
S''
sS'uniq_subjs'
p19
S'4425'
p20
sS'uniq_objs'
p21
I0
sS'prop_uri'
p22
S'http://dbpedia.org/ontology/portrayer'
p23
sS'annotations'
p24
(dp25
S'bag_of_words'
p26
(lp27
S'Fictional'
p28
aS'Character'
p29
aS'portrayer'
p30
aS'53312804'
p31
asS'chunk_seq'
p32
(lp33
S'B-NP'
p34
aS'I-NP'
p35
aS'I-NP'
p36
aS'E-NP'
p37
asS'dep_seq'
p38
(lp39
(lp40
S'amod'
p41
aS'4'
aS'1'
aa(lp42
S'nn'
p43
aS'4'
aS'2'
aa(lp44
S'nn'
p45
aS'4'
aS'3'
aa(lp46
S'root'
p47
aS'0'
aS'4'
aasS'srls'
p48
(lp49
sS'pos_seq'
p50
(lp51
S'JJ'
p52
aS'NN'
p53
aS'NN'
p54
aS'NN'
p55
asS'ner_seq'
p56
(lp57
S'O'
aS'O'
aS'O'
aS'O'
assb.