ccopy_reg
_reconstructor
p1
(c__main__
KBproperty
p2
c__builtin__
object
p3
NtRp4
(dp5
S'comment'
p6
S'can be used to include more informations e.g. the name of the artist that a tribute album is in honor of17791768'
p7
sS'domain'
p8
S'Album '
p9
sS'instances_count'
p10
I922
sS'phrases'
p11
NsS'syn_hypo'
p12
S''
sS'label'
p13
S'longtype'
p14
sS'range'
p15
S'string '
p16
sS'uniq_subjs'
p17
S'922'
p18
sS'uniq_objs'
p19
I0
sS'prop_uri'
p20
S'http://dbpedia.org/ontology/longtype'
p21
sS'annotations'
p22
(dp23
S'bag_of_words'
p24
(lp25
S'Album'
p26
aS'longtype'
p27
aS'string'
p28
aS'can'
p29
aS'be'
p30
aS'used'
p31
aS'to'
p32
aS'include'
p33
aS'more'
p34
aS'informations'
p35
aS'e.g.'
p36
aS'the'
p37
aS'name'
p38
aS'of'
p39
aS'the'
p40
aS'artist'
p41
aS'that'
p42
aS'a'
aS'tribute'
p43
aS'album'
p44
aS'is'
p45
aS'in'
p46
aS'honor'
p47
aS'of17791768'
p48
asS'chunk_seq'
p49
(lp50
S'B-NP'
p51
aS'I-NP'
p52
aS'E-NP'
p53
aS'B-VP'
p54
aS'I-VP'
p55
aS'E-VP'
p56
aS'B-VP'
p57
aS'E-VP'
p58
aS'B-NP'
p59
aS'E-NP'
p60
aS'S-PP'
p61
aS'B-NP'
p62
aS'E-NP'
p63
aS'S-PP'
p64
aS'B-NP'
p65
aS'E-NP'
p66
aS'S-SBAR'
p67
aS'B-NP'
p68
aS'I-NP'
p69
aS'E-NP'
p70
aS'S-VP'
p71
aS'S-PP'
p72
aS'B-NP'
p73
aS'E-NP'
p74
asS'dep_seq'
p75
(lp76
(lp77
S'nn'
p78
aS'3'
aS'1'
aa(lp79
S'amod'
p80
aS'3'
aS'2'
aa(lp81
S'nsubjpass'
p82
aS'6'
aS'3'
aa(lp83
S'xsubj'
p84
aS'8'
aS'3'
aa(lp85
S'aux'
p86
aS'6'
aS'4'
aa(lp87
S'auxpass'
p88
aS'6'
aS'5'
aa(lp89
S'root'
p90
aS'0'
aS'6'
aa(lp91
S'aux'
p92
aS'8'
aS'7'
aa(lp93
S'xcomp'
p94
aS'6'
aS'8'
aa(lp95
S'amod'
p96
aS'10'
p97
aS'9'
aa(lp98
S'dobj'
p99
aS'8'
aS'10'
p100
aa(lp101
S'det'
p102
aS'13'
p103
aS'12'
p104
aa(lp105
S'prep_e.g.'
p106
aS'10'
p107
aS'13'
p108
aa(lp109
S'det'
p110
aS'16'
p111
aS'15'
p112
aa(lp113
S'prep_of'
p114
aS'13'
p115
aS'16'
p116
aa(lp117
S'dep'
p118
aS'6'
aS'17'
p119
aa(lp120
S'det'
p121
aS'20'
p122
aS'18'
p123
aa(lp124
S'nn'
p125
aS'20'
p126
aS'19'
p127
aa(lp128
S'dep'
p129
aS'6'
aS'20'
p130
aa(lp131
S'dep'
p132
aS'6'
aS'21'
p133
aa(lp134
S'prep_in'
p135
aS'6'
aS'23'
p136
aa(lp137
S'dep'
p138
aS'6'
aS'24'
p139
aasS'srls'
p140
(lp141
(dp142
S'A1'
p143
S'Album longtype string'
p144
sS'V'
g31
sS'A2'
p145
S'to include more informations e.g. the name of the artist that a tribute album is in honor of17791768'
p146
sS'AM-MOD'
p147
g29
sa(dp148
S'A1'
p149
S'more informations e.g. the name of the artist that a tribute album is in honor of17791768'
p150
sS'A2'
p151
S'Album longtype string'
p152
sS'V'
g33
sasS'pos_seq'
p153
(lp154
S'NN'
p155
aS'JJ'
p156
aS'NN'
p157
aS'MD'
p158
aS'VB'
p159
aS'VBN'
p160
aS'TO'
p161
aS'VB'
p162
aS'JJR'
p163
aS'NNS'
p164
aS'IN'
p165
aS'DT'
p166
aS'NN'
p167
aS'IN'
p168
aS'DT'
p169
aS'NN'
p170
aS'IN'
p171
aS'DT'
p172
aS'NN'
p173
aS'NN'
p174
aS'VBZ'
p175
aS'IN'
p176
aS'NN'
p177
aS'NN'
p178
asS'ner_seq'
p179
(lp180
S'O'
aS'O'
aS'O'
aS'O'
aS'O'
aS'O'
aS'O'
aS'O'
aS'O'
aS'O'
aS'O'
aS'O'
aS'O'
aS'O'
aS'O'
aS'O'
aS'O'
aS'O'
aS'O'
aS'O'
aS'O'
aS'O'
aS'O'
aS'O'
assb.