ccopy_reg
_reconstructor
p1
(c__main__
KBproperty
p2
c__builtin__
object
p3
NtRp4
(dp5
S'comment'
p6
S'coat of arms image'
p7
sS'domain'
p8
S''
sS'instances_count'
p9
I0
sS'phrases'
p10
NsS'syn_hypo'
p11
S''
sS'label'
p12
g7
sS'range'
p13
S''
sS'uniq_subjs'
p14
S'0'
sS'uniq_objs'
p15
I0
sS'prop_uri'
p16
S'http://dbpedia.org/ontology/coatOfArms'
p17
sS'annotations'
p18
(dp19
S'bag_of_words'
p20
(lp21
S'coat'
p22
aS'Of'
p23
aS'Arms'
p24
aS'coat'
p25
aS'of'
p26
aS'arms'
p27
aS'image'
p28
asS'chunk_seq'
p29
(lp30
S'S-NP'
p31
aS'S-PP'
p32
aS'B-NP'
p33
aS'E-NP'
p34
aS'S-PP'
p35
aS'B-NP'
p36
aS'E-NP'
p37
asS'dep_seq'
p38
(lp39
(lp40
S'root'
p41
aS'0'
aS'1'
aa(lp42
S'nn'
p43
aS'4'
aS'3'
aa(lp44
S'prep_of'
p45
aS'1'
aS'4'
aa(lp46
S'nn'
p47
aS'7'
aS'6'
aa(lp48
S'prep_of'
p49
aS'4'
aS'7'
aasS'srls'
p50
(lp51
sS'pos_seq'
p52
(lp53
S'NN'
p54
aS'IN'
p55
aS'NNP'
p56
aS'NN'
p57
aS'IN'
p58
aS'NNS'
p59
aS'NN'
p60
asS'ner_seq'
p61
(lp62
S'O'
aS'B-ORG'
p63
aS'E-ORG'
p64
aS'O'
aS'O'
aS'O'
aS'O'
assb.