ccopy_reg
_reconstructor
p1
(c__main__
KBproperty
p2
c__builtin__
object
p3
NtRp4
(dp5
S'comment'
p6
S'taste or flavour'
p7
sS'domain'
p8
S'Food '
p9
sS'instances_count'
p10
I0
sS'phrases'
p11
NsS'syn_hypo'
p12
S''
sS'label'
p13
g7
sS'range'
p14
S'string '
p15
sS'uniq_subjs'
p16
S'0'
sS'uniq_objs'
p17
I0
sS'prop_uri'
p18
S'http://dbpedia.org/ontology/taste'
p19
sS'annotations'
p20
(dp21
S'bag_of_words'
p22
(lp23
S'Food'
p24
aS'taste'
p25
aS'string'
p26
aS'taste'
p27
aS'or'
p28
aS'flavour'
p29
asS'chunk_seq'
p30
(lp31
S'B-NP'
p32
aS'I-NP'
p33
aS'I-NP'
p34
aS'I-NP'
p35
aS'I-NP'
p36
aS'E-NP'
p37
asS'dep_seq'
p38
(lp39
(lp40
S'nn'
p41
aS'4'
aS'1'
aa(lp42
S'nn'
p43
aS'4'
aS'2'
aa(lp44
S'nn'
p45
aS'4'
aS'3'
aa(lp46
S'root'
p47
aS'0'
aS'4'
aa(lp48
S'conj_or'
p49
aS'4'
aS'6'
aasS'srls'
p50
(lp51
(dp52
S'A1'
p53
S'string taste or flavour'
p54
sS'A0'
p55
g24
sS'V'
g25
sasS'pos_seq'
p56
(lp57
S'NN'
p58
aS'NN'
p59
aS'NN'
p60
aS'NN'
p61
aS'CC'
p62
aS'NN'
p63
asS'ner_seq'
p64
(lp65
S'O'
aS'O'
aS'O'
aS'O'
aS'O'
aS'O'
assb.