ccopy_reg
_reconstructor
p1
(c__main__
KBproperty
p2
c__builtin__
object
p3
NtRp4
(dp5
S'comment'
p6
S'CPU of an InformationAppliance or VideoGame which unfortunately is currently under Software16021225'
p7
sS'domain'
p8
S''
sS'instances_count'
p9
I234
sS'phrases'
p10
NsS'syn_hypo'
p11
V
sS'label'
p12
S'CPU'
p13
sS'range'
p14
S''
sS'uniq_subjs'
p15
S'234'
p16
sS'uniq_objs'
p17
I0
sS'prop_uri'
p18
S'http://dbpedia.org/ontology/cpu'
p19
sS'annotations'
p20
(dp21
S'bag_of_words'
p22
(lp23
S'CPU'
p24
aS'CPU'
p25
aS'of'
p26
aS'an'
p27
aS'InformationAppliance'
p28
aS'or'
p29
aS'VideoGame'
p30
aS'which'
p31
aS'unfortunately'
p32
aS'is'
p33
aS'currently'
p34
aS'under'
p35
aS'Software16021225'
p36
asS'chunk_seq'
p37
(lp38
S'B-NP'
p39
aS'E-NP'
p40
aS'S-PP'
p41
aS'B-NP'
p42
aS'I-NP'
p43
aS'I-NP'
p44
aS'E-NP'
p45
aS'S-NP'
p46
aS'S-ADVP'
p47
aS'S-VP'
p48
aS'S-ADVP'
p49
aS'S-PP'
p50
aS'S-NP'
p51
asS'dep_seq'
p52
(lp53
(lp54
S'nn'
p55
aS'2'
aS'1'
aa(lp56
S'root'
p57
aS'0'
aS'2'
aa(lp58
S'nsubj'
p59
aS'10'
p60
aS'2'
aa(lp61
S'det'
p62
aS'5'
aS'4'
aa(lp63
S'prep_of'
p64
aS'2'
aS'5'
aa(lp65
S'conj_or'
p66
aS'5'
aS'7'
aa(lp67
S'advmod'
p68
aS'10'
p69
aS'9'
aa(lp70
S'rcmod'
p71
aS'2'
aS'10'
p72
aa(lp73
S'advmod'
p74
aS'10'
p75
aS'11'
p76
aa(lp77
S'prep_under'
p78
aS'10'
p79
aS'13'
p80
aasS'srls'
p81
(lp82
sS'pos_seq'
p83
(lp84
S'NN'
p85
aS'NN'
p86
aS'IN'
p87
aS'DT'
p88
aS'NNP'
p89
aS'CC'
p90
aS'NNP'
p91
aS'WDT'
p92
aS'RB'
p93
aS'VBZ'
p94
aS'RB'
p95
aS'IN'
p96
aS'NNP'
p97
asS'ner_seq'
p98
(lp99
S'O'
aS'O'
aS'O'
aS'O'
aS'B-MISC'
p100
aS'I-MISC'
p101
aS'E-MISC'
p102
aS'O'
aS'O'
aS'O'
aS'O'
aS'O'
aS'S-PER'
p103
assb.