ccopy_reg
_reconstructor
p1
(c__main__
KBproperty
p2
c__builtin__
object
p3
NtRp4
(dp5
S'comment'
p6
S"A ship's displacement is its mass at any given time.50933117"
p7
sS'domain'
p8
S'Ship '
p9
sS'instances_count'
p10
I1294
sS'phrases'
p11
NsS'syn_hypo'
p12
S''
sS'label'
p13
S'displacement g'
p14
sS'range'
p15
S'double '
p16
sS'uniq_subjs'
p17
S'1294'
p18
sS'uniq_objs'
p19
I0
sS'prop_uri'
p20
S'http://dbpedia.org/ontology/shipDisplacement'
p21
sS'annotations'
p22
(dp23
S'bag_of_words'
p24
(lp25
S'Ship'
p26
aS'displacement'
p27
aS'g'
aS'double'
p28
aS'A'
aS'ship'
p29
aS"'s"
p30
aS'displacement'
p31
aS'is'
p32
aS'its'
p33
aS'mass'
p34
aS'at'
p35
aS'any'
p36
aS'given'
p37
aS'time.50933117'
p38
asS'chunk_seq'
p39
(lp40
S'B-NP'
p41
aS'I-NP'
p42
aS'E-NP'
p43
aS'B-NP'
p44
aS'I-NP'
p45
aS'E-NP'
p46
aS'B-NP'
p47
aS'E-NP'
p48
aS'S-VP'
p49
aS'B-NP'
p50
aS'E-NP'
p51
aS'S-PP'
p52
aS'B-NP'
p53
aS'I-NP'
p54
aS'E-NP'
p55
asS'dep_seq'
p56
(lp57
(lp58
S'nn'
p59
aS'3'
aS'1'
aa(lp60
S'nn'
p61
aS'3'
aS'2'
aa(lp62
S'nn'
p63
aS'8'
aS'3'
aa(lp64
S'advmod'
p65
aS'8'
aS'4'
aa(lp66
S'det'
p67
aS'6'
aS'5'
aa(lp68
S'poss'
p69
aS'8'
aS'6'
aa(lp70
S'nsubj'
p71
aS'11'
p72
aS'8'
aa(lp73
S'cop'
p74
aS'11'
p75
aS'9'
aa(lp76
S'poss'
p77
aS'11'
p78
aS'10'
p79
aa(lp80
S'root'
p81
aS'0'
aS'11'
p82
aa(lp83
S'prep_at'
p84
aS'11'
p85
aS'13'
p86
aa(lp87
S'amod'
p88
aS'13'
p89
aS'14'
p90
aa(lp91
S'punct'
p92
aS'13'
p93
aS'15'
p94
aasS'srls'
p95
(lp96
(dp97
S'A1'
p98
g38
sS'V'
g37
sasS'pos_seq'
p99
(lp100
S'NN'
p101
aS'NN'
p102
aS'NN'
p103
aS'RB'
p104
aS'DT'
p105
aS'NN'
p106
aS'POS'
p107
aS'NN'
p108
aS'VBZ'
p109
aS'PRP$'
p110
aS'NN'
p111
aS'IN'
p112
aS'DT'
p113
aS'VBN'
p114
aS'.'
asS'ner_seq'
p115
(lp116
S'O'
aS'O'
aS'O'
aS'O'
aS'O'
aS'O'
aS'O'
aS'O'
aS'O'
aS'O'
aS'O'
aS'O'
aS'O'
aS'O'
aS'O'
assb.