ccopy_reg
_reconstructor
p1
(c__main__
KBproperty
p2
c__builtin__
object
p3
NtRp4
(dp5
S'comment'
p6
S'Whether bags can be checked.891891'
p7
sS'domain'
p8
S'Station '
p9
sS'instances_count'
p10
I2
sS'phrases'
p11
NsS'syn_hypo'
p12
S''
sS'label'
p13
S'can baggage checked'
p14
sS'range'
p15
S'boolean '
p16
sS'uniq_subjs'
p17
S'2'
sS'uniq_objs'
p18
I0
sS'prop_uri'
p19
S'http://dbpedia.org/ontology/canBaggageChecked'
p20
sS'annotations'
p21
(dp22
S'bag_of_words'
p23
(lp24
S'Station'
p25
aS'can'
p26
aS'baggage'
p27
aS'checked'
p28
aS'boolean'
p29
aS'Whether'
p30
aS'bags'
p31
aS'can'
p32
aS'be'
p33
aS'checked.891891'
p34
asS'chunk_seq'
p35
(lp36
S'S-NP'
p37
aS'S-VP'
p38
aS'S-NP'
p39
aS'S-VP'
p40
aS'B-NP'
p41
aS'I-NP'
p42
aS'E-NP'
p43
aS'B-VP'
p44
aS'E-VP'
p45
aS'S-ADJP'
p46
asS'dep_seq'
p47
(lp48
(lp49
S'nsubj'
p50
aS'2'
aS'1'
aa(lp51
S'root'
p52
aS'0'
aS'2'
aa(lp53
S'dobj'
p54
aS'2'
aS'3'
aa(lp55
S'partmod'
p56
aS'3'
aS'4'
aa(lp57
S'amod'
p58
aS'7'
aS'5'
aa(lp59
S'nn'
p60
aS'7'
aS'6'
aa(lp61
S'nsubj'
p62
aS'10'
p63
aS'7'
aa(lp64
S'aux'
p65
aS'10'
p66
aS'8'
aa(lp67
S'cop'
p68
aS'10'
p69
aS'9'
aa(lp70
S'ccomp'
p71
aS'4'
aS'10'
p72
aasS'srls'
p73
(lp74
(dp75
S'A1'
p76
S'boolean Whether bags can be checked.891891'
p77
sS'A0'
p78
S'Station baggage'
p79
sS'V'
g28
sS'AM-MOD'
p80
g26
sasS'pos_seq'
p81
(lp82
S'NN'
p83
aS'MD'
p84
aS'NN'
p85
aS'VBD'
p86
aS'JJ'
p87
aS'NNP'
p88
aS'NNS'
p89
aS'MD'
p90
aS'VB'
p91
aS'JJ'
p92
asS'ner_seq'
p93
(lp94
S'O'
aS'O'
aS'O'
aS'O'
aS'O'
aS'O'
aS'O'
aS'O'
aS'O'
aS'O'
assb.