ccopy_reg
_reconstructor
p1
(c__main__
KBproperty
p2
c__builtin__
object
p3
NtRp4
(dp5
S'comment'
p6
S'608608'
p7
sS'domain'
p8
S'Anatomical Structure '
p9
sS'instances_count'
p10
I561
sS'phrases'
p11
NsS'syn_hypo'
p12
S''
sS'label'
p13
S'MeSH name'
p14
sS'range'
p15
S'lang String '
p16
sS'uniq_subjs'
p17
S'561'
p18
sS'uniq_objs'
p19
I0
sS'prop_uri'
p20
S'http://dbpedia.org/ontology/meshName'
p21
sS'annotations'
p22
(dp23
S'bag_of_words'
p24
(lp25
S'Anatomical'
p26
aS'Structure'
p27
aS'MeSH'
p28
aS'name'
p29
aS'lang'
p30
aS'String'
p31
aS'608608'
p32
asS'chunk_seq'
p33
(lp34
S'B-NP'
p35
aS'I-NP'
p36
aS'I-NP'
p37
aS'I-NP'
p38
aS'I-NP'
p39
aS'I-NP'
p40
aS'E-NP'
p41
asS'dep_seq'
p42
(lp43
(lp44
S'nn'
p45
aS'7'
aS'1'
aa(lp46
S'nn'
p47
aS'7'
aS'2'
aa(lp48
S'nn'
p49
aS'7'
aS'3'
aa(lp50
S'nn'
p51
aS'7'
aS'4'
aa(lp52
S'amod'
p53
aS'7'
aS'5'
aa(lp54
S'nn'
p55
aS'7'
aS'6'
aa(lp56
S'root'
p57
aS'0'
aS'7'
aasS'srls'
p58
(lp59
(dp60
S'A1'
p61
S'String 608608'
p62
sS'V'
g30
sasS'pos_seq'
p63
(lp64
S'NNP'
p65
aS'NNP'
p66
aS'NNP'
p67
aS'NN'
p68
aS'VBG'
p69
aS'NN'
p70
aS'NN'
p71
asS'ner_seq'
p72
(lp73
S'B-MISC'
p74
aS'I-MISC'
p75
aS'I-MISC'
p76
aS'I-MISC'
p77
aS'I-MISC'
p78
aS'E-MISC'
p79
aS'O'
assb.