ccopy_reg
_reconstructor
p1
(c__main__
KBproperty
p2
c__builtin__
object
p3
NtRp4
(dp5
S'comment'
p6
S'988464963418'
p7
sS'domain'
p8
S'Person '
p9
sS'instances_count'
p10
I94547
sS'phrases'
p11
(lp12
S' born on'
p13
aS' date of birth'
p14
aS' born;when'
p15
aS'birth;date  \n'
p16
asS'syn_hypo'
p17
S''
sS'label'
p18
S'birth date'
p19
sS'range'
p20
S'date '
p21
sS'uniq_subjs'
p22
S'94547'
p23
sS'uniq_objs'
p24
I0
sS'prop_uri'
p25
S'http://dbpedia.org/ontology/birthDate'
p26
sS'annotations'
p27
(dp28
S'bag_of_words'
p29
(lp30
S'Person'
p31
aS'birth'
p32
aS'date'
p33
aS'date'
p34
aS'988464963418'
p35
asS'chunk_seq'
p36
(lp37
S'B-NP'
p38
aS'I-NP'
p39
aS'I-NP'
p40
aS'E-NP'
p41
aS'S-NP'
p42
asS'dep_seq'
p43
(lp44
(lp45
S'nn'
p46
aS'4'
aS'1'
aa(lp47
S'nn'
p48
aS'4'
aS'2'
aa(lp49
S'nn'
p50
aS'4'
aS'3'
aa(lp51
S'root'
p52
aS'0'
aS'4'
aa(lp53
S'dep'
p54
aS'4'
aS'5'
aasS'srls'
p55
(lp56
sS'pos_seq'
p57
(lp58
S'NN'
p59
aS'NN'
p60
aS'NN'
p61
aS'NN'
p62
aS'NN'
p63
asS'ner_seq'
p64
(lp65
S'O'
aS'O'
aS'O'
aS'O'
aS'O'
assb.