ccopy_reg
_reconstructor
p1
(c__main__
KBproperty
p2
c__builtin__
object
p3
NtRp4
(dp5
S'comment'
p6
S'50814943'
p7
sS'domain'
p8
S'Educational Institution '
p9
sS'instances_count'
p10
I1136
sS'phrases'
p11
NsS'syn_hypo'
p12
Vgeneral_staffstaffheadquarters_staffstaffnewsroomstaffofficestaffoffice_staffstaffresearch_staffstaffsales_staffstaffsecurity_staffstaffservice_staffstaffmaintenance_staff
p13
sS'label'
p14
S'staff'
p15
sS'range'
p16
S'non Negative Integer '
p17
sS'uniq_subjs'
p18
S'1136'
p19
sS'uniq_objs'
p20
I0
sS'prop_uri'
p21
S'http://dbpedia.org/ontology/staff'
p22
sS'annotations'
p23
(dp24
S'bag_of_words'
p25
(lp26
S'Educational'
p27
aS'Institution'
p28
aS'staff'
p29
aS'non'
p30
aS'Negative'
p31
aS'Integer'
p32
aS'50814943'
p33
asS'chunk_seq'
p34
(lp35
S'B-NP'
p36
aS'I-NP'
p37
aS'E-NP'
p38
aS'B-NP'
p39
aS'I-NP'
p40
aS'I-NP'
p41
aS'E-NP'
p42
asS'dep_seq'
p43
(lp44
(lp45
S'amod'
p46
aS'3'
aS'1'
aa(lp47
S'nn'
p48
aS'3'
aS'2'
aa(lp49
S'dep'
p50
aS'7'
aS'3'
aa(lp51
S'advmod'
p52
aS'7'
aS'4'
aa(lp53
S'amod'
p54
aS'7'
aS'5'
aa(lp55
S'nn'
p56
aS'7'
aS'6'
aa(lp57
S'root'
p58
aS'0'
aS'7'
aasS'srls'
p59
(lp60
sS'pos_seq'
p61
(lp62
S'JJ'
p63
aS'NN'
p64
aS'NN'
p65
aS'RB'
p66
aS'JJ'
p67
aS'NN'
p68
aS'NN'
p69
asS'ner_seq'
p70
(lp71
S'O'
aS'O'
aS'O'
aS'O'
aS'O'
aS'O'
aS'O'
assb.