ccopy_reg
_reconstructor
p1
(c__main__
KBproperty
p2
c__builtin__
object
p3
NtRp4
(dp5
S'comment'
p6
S'5123040770'
p7
sS'domain'
p8
S'Company '
p9
sS'instances_count'
p10
I4712
sS'phrases'
p11
NsS'syn_hypo'
p12
Valuminum_businessindustryaluminum_industryindustryapparel_industryindustrygarment_industryindustryfashion_industryindustryfashion_businessindustryrag_tradeindustryautomobile_industryindustryaviationindustrybanking_industryindustrybanking_systemindustrychemical_industryindustrycoal_industryindustrycomputer_industryindustryconstruction_industryindustryhousing_industryindustryelectronics_industryindustryentertainment_industryindustryshow_businessindustryshow_bizindustryfilm_industryindustrymovie_industryindustrygrowth_industryindustrylighting_industryindustrymarketindustrysecurities_industryindustrymunitions_industryindustryarms_industryindustryoil_industryindustryrefining_industryindustryoil_businessindustryplastics_industryindustryservice_industryindustryshipbuilding_industryindustryshoe_industryindustrysign_industryindustrysteel_industryindustrysunrise_industryindustrytobacco_industryindustrytoy_industryindustrytoy_businessindustrytrucking_industry
p13
sS'label'
p14
S'industry'
p15
sS'range'
p16
S''
sS'uniq_subjs'
p17
S'4712'
p18
sS'uniq_objs'
p19
I0
sS'prop_uri'
p20
S'http://dbpedia.org/ontology/industry'
p21
sS'annotations'
p22
(dp23
S'bag_of_words'
p24
(lp25
S'Company'
p26
aS'industry'
p27
aS'5123040770'
p28
asS'chunk_seq'
p29
(lp30
S'B-NP'
p31
aS'E-NP'
p32
aS'O'
asS'dep_seq'
p33
(lp34
(lp35
S'nn'
p36
aS'2'
aS'1'
aa(lp37
S'root'
p38
aS'0'
aS'2'
aa(lp39
S'num'
p40
aS'2'
aS'3'
aasS'srls'
p41
(lp42
sS'pos_seq'
p43
(lp44
S'NN'
p45
aS'NN'
p46
aS'CD'
p47
asS'ner_seq'
p48
(lp49
S'O'
aS'O'
aS'O'
assb.