ccopy_reg
_reconstructor
p1
(c__main__
KBproperty
p2
c__builtin__
object
p3
NtRp4
(dp5
S'comment'
p6
S'22'
p7
sS'domain'
p8
S''
sS'instances_count'
p9
I2
sS'phrases'
p10
NsS'syn_hypo'
p11
Vcabaretshowfloorshowshowfloor_showshowcarnivalshowfairshowfunfairshowcircusshowdemonstrationshowdisplayshowexhibitshowshowingshowdog_showshowhorseshowshowice_showshowinterludeshowintermezzoshowentr'acteshowpresentationshowpresentmentshowdemonstrationshowraree-showshowroad_showshowsideshowshowWild_West_ShowshowBuffalo_Bill's_Wild_West_Show
p12
sS'label'
p13
S'show'
p14
sS'range'
p15
S'Television Show '
p16
sS'uniq_subjs'
p17
S'2'
sS'uniq_objs'
p18
I0
sS'prop_uri'
p19
S'http://dbpedia.org/ontology/show'
p20
sS'annotations'
p21
(dp22
S'bag_of_words'
p23
(lp24
S'show'
p25
aS'Television'
p26
aS'Show'
p27
aS'22'
p28
asS'chunk_seq'
p29
(lp30
S'B-NP'
p31
aS'I-NP'
p32
aS'E-NP'
p33
aS'O'
asS'dep_seq'
p34
(lp35
(lp36
S'root'
p37
aS'0'
aS'1'
aa(lp38
S'nn'
p39
aS'3'
aS'2'
aa(lp40
S'dobj'
p41
aS'1'
aS'3'
aa(lp42
S'punct'
p43
aS'3'
aS'4'
aasS'srls'
p44
(lp45
(dp46
S'A0'
p47
S'Television Show 22'
p48
sS'V'
g25
sasS'pos_seq'
p49
(lp50
S'VB'
p51
aS'NNP'
p52
aS'NNP'
p53
aS'.'
asS'ner_seq'
p54
(lp55
S'O'
aS'O'
aS'O'
aS'O'
assb.