ccopy_reg
_reconstructor
p1
(c__main__
KBproperty
p2
c__builtin__
object
p3
NtRp4
(dp5
S'comment'
p6
S'1186411202'
p7
sS'domain'
p8
S''
sS'instances_count'
p9
I491
sS'phrases'
p10
NsS'syn_hypo'
p11
S''
sS'label'
p12
S'owning organisation'
p13
sS'range'
p14
S'Organisation '
p15
sS'uniq_subjs'
p16
S'491'
p17
sS'uniq_objs'
p18
I0
sS'prop_uri'
p19
S'http://dbpedia.org/ontology/owningOrganisation'
p20
sS'annotations'
p21
(dp22
S'bag_of_words'
p23
(lp24
S'owning'
p25
aS'organisation'
p26
aS'Organisation'
p27
aS'1186411202'
p28
asS'chunk_seq'
p29
(lp30
S'B-NP'
p31
aS'I-NP'
p32
aS'E-NP'
p33
aS'S-ADJP'
p34
asS'dep_seq'
p35
(lp36
(lp37
S'root'
p38
aS'0'
aS'1'
aa(lp39
S'nn'
p40
aS'3'
aS'2'
aa(lp41
S'dobj'
p42
aS'1'
aS'3'
aa(lp43
S'punct'
p44
aS'3'
aS'4'
aasS'srls'
p45
(lp46
(dp47
S'A1'
p48
S'organisation Organisation'
p49
sS'A0'
p50
g28
sS'V'
g25
sasS'pos_seq'
p51
(lp52
S'VBG'
p53
aS'NN'
p54
aS'NNP'
p55
aS'.'
asS'ner_seq'
p56
(lp57
S'O'
aS'O'
aS'S-ORG'
p58
aS'O'
assb.