ccopy_reg
_reconstructor
p1
(c__main__
KBproperty
p2
c__builtin__
object
p3
NtRp4
(dp5
S'comment'
p6
S'mandate of a prefect of a romanian settlement'
p7
sS'domain'
p8
S'Romania Settlement '
p9
sS'instances_count'
p10
I0
sS'phrases'
p11
NsS'syn_hypo'
p12
S''
sS'label'
p13
g7
sS'range'
p14
S'string '
p15
sS'uniq_subjs'
p16
S'0'
sS'uniq_objs'
p17
I0
sS'prop_uri'
p18
S'http://dbpedia.org/ontology/prefectMandate'
p19
sS'annotations'
p20
(dp21
S'bag_of_words'
p22
(lp23
S'Romania'
p24
aS'Settlement'
p25
aS'prefect'
p26
aS'Mandate'
p27
aS'string'
p28
aS'mandate'
p29
aS'of'
p30
aS'a'
aS'prefect'
p31
aS'of'
p32
aS'a'
aS'romanian'
p33
aS'settlement'
p34
asS'chunk_seq'
p35
(lp36
S'B-NP'
p37
aS'I-NP'
p38
aS'I-NP'
p39
aS'I-NP'
p40
aS'I-NP'
p41
aS'E-NP'
p42
aS'S-PP'
p43
aS'B-NP'
p44
aS'E-NP'
p45
aS'S-PP'
p46
aS'B-NP'
p47
aS'I-NP'
p48
aS'E-NP'
p49
asS'dep_seq'
p50
(lp51
(lp52
S'nn'
p53
aS'6'
aS'1'
aa(lp54
S'nn'
p55
aS'6'
aS'2'
aa(lp56
S'nn'
p57
aS'6'
aS'3'
aa(lp58
S'nn'
p59
aS'6'
aS'4'
aa(lp60
S'nn'
p61
aS'6'
aS'5'
aa(lp62
S'root'
p63
aS'0'
aS'6'
aa(lp64
S'det'
p65
aS'9'
aS'8'
aa(lp66
S'prep_of'
p67
aS'6'
aS'9'
aa(lp68
S'det'
p69
aS'13'
p70
aS'11'
p71
aa(lp72
S'amod'
p73
aS'13'
p74
aS'12'
p75
aa(lp76
S'prep_of'
p77
aS'9'
aS'13'
p78
aasS'srls'
p79
(lp80
sS'pos_seq'
p81
(lp82
S'NNP'
p83
aS'NNP'
p84
aS'NN'
p85
aS'NN'
p86
aS'NN'
p87
aS'NN'
p88
aS'IN'
p89
aS'DT'
p90
aS'NN'
p91
aS'IN'
p92
aS'DT'
p93
aS'JJ'
p94
aS'NN'
p95
asS'ner_seq'
p96
(lp97
S'S-LOC'
p98
aS'O'
aS'O'
aS'O'
aS'O'
aS'O'
aS'O'
aS'O'
aS'O'
aS'O'
aS'O'
aS'O'
aS'O'
assb.