ccopy_reg
_reconstructor
p1
(c__main__
KBproperty
p2
c__builtin__
object
p3
NtRp4
(dp5
S'comment'
p6
S'00'
p7
sS'domain'
p8
S'Chemical Substance '
p9
sS'instances_count'
p10
I0
sS'phrases'
p11
NsS'syn_hypo'
p12
S''
sS'label'
p13
S'not soluble in'
p14
sS'range'
p15
S'Chemical Substance '
p16
sS'uniq_subjs'
p17
S'0'
sS'uniq_objs'
p18
I0
sS'prop_uri'
p19
S'http://dbpedia.org/ontology/notSolubleIn'
p20
sS'annotations'
p21
(dp22
S'bag_of_words'
p23
(lp24
S'Chemical'
p25
aS'Substance'
p26
aS'not'
p27
aS'soluble'
p28
aS'in'
p29
aS'Chemical'
p30
aS'Substance'
p31
aS'00'
p32
asS'chunk_seq'
p33
(lp34
S'B-NP'
p35
aS'E-NP'
p36
aS'O'
aS'S-ADJP'
p37
aS'S-PP'
p38
aS'B-NP'
p39
aS'E-NP'
p40
aS'O'
asS'dep_seq'
p41
(lp42
(lp43
S'nn'
p44
aS'2'
aS'1'
aa(lp45
S'root'
p46
aS'0'
aS'2'
aa(lp47
S'neg'
p48
aS'2'
aS'3'
aa(lp49
S'amod'
p50
aS'2'
aS'4'
aa(lp51
S'nn'
p52
aS'7'
aS'6'
aa(lp53
S'prep_in'
p54
aS'4'
aS'7'
aa(lp55
S'num'
p56
aS'7'
aS'8'
aasS'srls'
p57
(lp58
sS'pos_seq'
p59
(lp60
S'NNP'
p61
aS'NNP'
p62
aS'RB'
p63
aS'JJ'
p64
aS'IN'
p65
aS'NNP'
p66
aS'NNP'
p67
aS'CD'
p68
asS'ner_seq'
p69
(lp70
S'O'
aS'O'
aS'O'
aS'O'
aS'O'
aS'O'
aS'O'
aS'O'
assb.