ccopy_reg
_reconstructor
p1
(c__main__
KBproperty
p2
c__builtin__
object
p3
NtRp4
(dp5
S'comment'
p6
S'159368984'
p7
sS'domain'
p8
S'Organisation '
p9
sS'instances_count'
p10
I2403
sS'phrases'
p11
NsS'syn_hypo'
p12
S''
sS'label'
p13
S'region served'
p14
sS'range'
p15
S'Place '
p16
sS'uniq_subjs'
p17
S'2403'
p18
sS'uniq_objs'
p19
I0
sS'prop_uri'
p20
S'http://dbpedia.org/ontology/regionServed'
p21
sS'annotations'
p22
(dp23
S'bag_of_words'
p24
(lp25
S'Organisation'
p26
aS'region'
p27
aS'served'
p28
aS'Place'
p29
aS'159368984'
p30
asS'chunk_seq'
p31
(lp32
S'B-NP'
p33
aS'E-NP'
p34
aS'S-VP'
p35
aS'S-NP'
p36
aS'S-ADJP'
p37
asS'dep_seq'
p38
(lp39
(lp40
S'nn'
p41
aS'2'
aS'1'
aa(lp42
S'nsubj'
p43
aS'3'
aS'2'
aa(lp44
S'root'
p45
aS'0'
aS'3'
aa(lp46
S'dobj'
p47
aS'3'
aS'4'
aa(lp48
S'punct'
p49
aS'4'
aS'5'
aasS'srls'
p50
(lp51
(dp52
S'A1'
p53
S'Place 159368984'
p54
sS'A0'
p55
S'Organisation region'
p56
sS'V'
g28
sasS'pos_seq'
p57
(lp58
S'NN'
p59
aS'NN'
p60
aS'VBD'
p61
aS'NNP'
p62
aS'.'
asS'ner_seq'
p63
(lp64
S'O'
aS'O'
aS'O'
aS'O'
aS'O'
assb.