ccopy_reg
_reconstructor
p1
(c__main__
KBproperty
p2
c__builtin__
object
p3
NtRp4
(dp5
S'comment'
p6
S'Availability of open access content.10361034'
p7
sS'domain'
p8
S'Periodical Literature '
p9
sS'instances_count'
p10
I135
sS'phrases'
p11
NsS'syn_hypo'
p12
S''
sS'label'
p13
S'open access content'
p14
sS'range'
p15
S'string '
p16
sS'uniq_subjs'
p17
S'135'
p18
sS'uniq_objs'
p19
I0
sS'prop_uri'
p20
S'http://dbpedia.org/ontology/openAccessContent'
p21
sS'annotations'
p22
(dp23
S'bag_of_words'
p24
(lp25
S'Periodical'
p26
aS'Literature'
p27
aS'open'
p28
aS'access'
p29
aS'content'
p30
aS'string'
p31
aS'Availability'
p32
aS'of'
p33
aS'open'
p34
aS'access'
p35
aS'content.10361034'
p36
asS'chunk_seq'
p37
(lp38
S'B-NP'
p39
aS'I-NP'
p40
aS'I-NP'
p41
aS'I-NP'
p42
aS'I-NP'
p43
aS'I-NP'
p44
aS'E-NP'
p45
aS'S-PP'
p46
aS'B-NP'
p47
aS'I-NP'
p48
aS'E-NP'
p49
asS'dep_seq'
p50
(lp51
(lp52
S'nn'
p53
aS'2'
aS'1'
aa(lp54
S'nsubj'
p55
aS'3'
aS'2'
aa(lp56
S'root'
p57
aS'0'
aS'3'
aa(lp58
S'nn'
p59
aS'7'
aS'4'
aa(lp60
S'nn'
p61
aS'7'
aS'5'
aa(lp62
S'nn'
p63
aS'7'
aS'6'
aa(lp64
S'dobj'
p65
aS'3'
aS'7'
aa(lp66
S'amod'
p67
aS'11'
p68
aS'9'
aa(lp69
S'nn'
p70
aS'11'
p71
aS'10'
p72
aa(lp73
S'prep_of'
p74
aS'7'
aS'11'
p75
aasS'srls'
p76
(lp77
sS'pos_seq'
p78
(lp79
S'NNP'
p80
aS'NNP'
p81
aS'JJ'
p82
aS'NN'
p83
aS'NN'
p84
aS'NN'
p85
aS'NN'
p86
aS'IN'
p87
aS'JJ'
p88
aS'NN'
p89
aS'NN'
p90
asS'ner_seq'
p91
(lp92
S'B-MISC'
p93
aS'E-MISC'
p94
aS'O'
aS'O'
aS'O'
aS'O'
aS'O'
aS'O'
aS'O'
aS'O'
aS'O'
assb.