ccopy_reg
_reconstructor
p1
(c__main__
KBproperty
p2
c__builtin__
object
p3
NtRp4
(dp5
S'comment'
p6
S'Year of the final publication.481477'
p7
sS'domain'
p8
S'Periodical Literature '
p9
sS'instances_count'
p10
I129
sS'phrases'
p11
NsS'syn_hypo'
p12
S''
sS'label'
p13
S'final publication year'
p14
sS'range'
p15
S'g Year '
p16
sS'uniq_subjs'
p17
S'129'
p18
sS'uniq_objs'
p19
I0
sS'prop_uri'
p20
S'http://dbpedia.org/ontology/finalPublicationYear'
p21
sS'annotations'
p22
(dp23
S'bag_of_words'
p24
(lp25
S'Periodical'
p26
aS'Literature'
p27
aS'final'
p28
aS'publication'
p29
aS'year'
p30
aS'g'
aS'Year'
p31
aS'Year'
p32
aS'of'
p33
aS'the'
p34
aS'final'
p35
aS'publication.481477'
p36
asS'chunk_seq'
p37
(lp38
S'B-NP'
p39
aS'I-NP'
p40
aS'I-NP'
p41
aS'I-NP'
p42
aS'I-NP'
p43
aS'I-NP'
p44
aS'I-NP'
p45
aS'E-NP'
p46
aS'S-PP'
p47
aS'B-NP'
p48
aS'I-NP'
p49
aS'E-NP'
p50
asS'dep_seq'
p51
(lp52
(lp53
S'nn'
p54
aS'8'
aS'1'
aa(lp55
S'nn'
p56
aS'8'
aS'2'
aa(lp57
S'amod'
p58
aS'8'
aS'3'
aa(lp59
S'nn'
p60
aS'8'
aS'4'
aa(lp61
S'nn'
p62
aS'8'
aS'5'
aa(lp63
S'nn'
p64
aS'8'
aS'6'
aa(lp65
S'nn'
p66
aS'8'
aS'7'
aa(lp67
S'root'
p68
aS'0'
aS'8'
aa(lp69
S'det'
p70
aS'12'
p71
aS'10'
p72
aa(lp73
S'amod'
p74
aS'12'
p75
aS'11'
p76
aa(lp77
S'prep_of'
p78
aS'8'
aS'12'
p79
aasS'srls'
p80
(lp81
sS'pos_seq'
p82
(lp83
S'NNP'
p84
aS'NNP'
p85
aS'JJ'
p86
aS'NN'
p87
aS'NN'
p88
aS'NN'
p89
aS'NN'
p90
aS'NN'
p91
aS'IN'
p92
aS'DT'
p93
aS'JJ'
p94
aS'NN'
p95
asS'ner_seq'
p96
(lp97
S'B-MISC'
p98
aS'E-MISC'
p99
aS'O'
aS'O'
aS'O'
aS'O'
aS'O'
aS'O'
aS'O'
aS'O'
aS'O'
aS'O'
assb.