ccopy_reg
_reconstructor
p1
(c__main__
KBproperty
p2
c__builtin__
object
p3
NtRp4
(dp5
S'comment'
p6
S'The year the building was demolished.7474'
p7
sS'domain'
p8
S'Architectural Structure '
p9
sS'instances_count'
p10
I51
sS'phrases'
p11
NsS'syn_hypo'
p12
S''
sS'label'
p13
S'demolition year'
p14
sS'range'
p15
S'g Year '
p16
sS'uniq_subjs'
p17
S'51'
p18
sS'uniq_objs'
p19
I0
sS'prop_uri'
p20
S'http://dbpedia.org/ontology/demolitionYear'
p21
sS'annotations'
p22
(dp23
S'bag_of_words'
p24
(lp25
S'Architectural'
p26
aS'Structure'
p27
aS'demolition'
p28
aS'year'
p29
aS'g'
aS'Year'
p30
aS'The'
p31
aS'year'
p32
aS'the'
p33
aS'building'
p34
aS'was'
p35
aS'demolished.7474'
p36
asS'chunk_seq'
p37
(lp38
S'B-NP'
p39
aS'I-NP'
p40
aS'I-NP'
p41
aS'I-NP'
p42
aS'I-NP'
p43
aS'E-NP'
p44
aS'B-NP'
p45
aS'E-NP'
p46
aS'B-NP'
p47
aS'E-NP'
p48
aS'S-VP'
p49
aS'S-ADJP'
p50
asS'dep_seq'
p51
(lp52
(lp53
S'amod'
p54
aS'6'
aS'1'
aa(lp55
S'nn'
p56
aS'6'
aS'2'
aa(lp57
S'nn'
p58
aS'6'
aS'3'
aa(lp59
S'nn'
p60
aS'6'
aS'4'
aa(lp61
S'nn'
p62
aS'6'
aS'5'
aa(lp63
S'tmod'
p64
aS'12'
p65
aS'6'
aa(lp66
S'det'
p67
aS'8'
aS'7'
aa(lp68
S'tmod'
p69
aS'12'
p70
aS'8'
aa(lp71
S'det'
p72
aS'10'
p73
aS'9'
aa(lp74
S'nsubj'
p75
aS'12'
p76
aS'10'
p77
aa(lp78
S'cop'
p79
aS'12'
p80
aS'11'
p81
aa(lp82
S'root'
p83
aS'0'
aS'12'
p84
aasS'srls'
p85
(lp86
sS'pos_seq'
p87
(lp88
S'JJ'
p89
aS'NN'
p90
aS'NN'
p91
aS'NN'
p92
aS'NN'
p93
aS'NN'
p94
aS'DT'
p95
aS'NN'
p96
aS'DT'
p97
aS'NN'
p98
aS'VBD'
p99
aS'JJ'
p100
asS'ner_seq'
p101
(lp102
S'O'
aS'O'
aS'O'
aS'O'
aS'O'
aS'O'
aS'O'
aS'O'
aS'O'
aS'O'
aS'O'
aS'O'
assb.