ccopy_reg
_reconstructor
p1
(c__main__
KBproperty
p2
c__builtin__
object
p3
NtRp4
(dp5
S'comment'
p6
S'241235'
p7
sS'domain'
p8
S''
sS'instances_count'
p9
I199
sS'phrases'
p10
NsS'syn_hypo'
p11
V
sS'label'
p12
S'subtitle'
p13
sS'range'
p14
S'string '
p15
sS'uniq_subjs'
p16
S'199'
p17
sS'uniq_objs'
p18
I0
sS'prop_uri'
p19
S'http://dbpedia.org/ontology/subtitle'
p20
sS'annotations'
p21
(dp22
S'bag_of_words'
p23
(lp24
S'subtitle'
p25
aS'string'
p26
aS'241235'
p27
asS'chunk_seq'
p28
(lp29
S'B-NP'
p30
aS'E-NP'
p31
aS'O'
asS'dep_seq'
p32
(lp33
(lp34
S'nn'
p35
aS'2'
aS'1'
aa(lp36
S'root'
p37
aS'0'
aS'2'
aa(lp38
S'punct'
p39
aS'2'
aS'3'
aasS'srls'
p40
(lp41
sS'pos_seq'
p42
(lp43
S'NN'
p44
aS'NN'
p45
aS'.'
asS'ner_seq'
p46
(lp47
S'O'
aS'O'
aS'O'
assb.