ccopy_reg
_reconstructor
p1
(c__main__
KBproperty
p2
c__builtin__
object
p3
NtRp4
(dp5
S'comment'
p6
S'phone prefix label of a settlement'
p7
sS'domain'
p8
S'Settlement '
p9
sS'instances_count'
p10
I0
sS'phrases'
p11
NsS'syn_hypo'
p12
S''
sS'label'
p13
g7
sS'range'
p14
S'lang String '
p15
sS'uniq_subjs'
p16
S'0'
sS'uniq_objs'
p17
I0
sS'prop_uri'
p18
S'http://dbpedia.org/ontology/phonePrefixLabel'
p19
sS'annotations'
p20
(dp21
S'bag_of_words'
p22
(lp23
S'Settlement'
p24
aS'phone'
p25
aS'Prefix'
p26
aS'Label'
p27
aS'lang'
p28
aS'String'
p29
aS'phone'
p30
aS'prefix'
p31
aS'label'
p32
aS'of'
p33
aS'a'
aS'settlement'
p34
asS'chunk_seq'
p35
(lp36
S'B-NP'
p37
aS'I-NP'
p38
aS'I-NP'
p39
aS'I-NP'
p40
aS'I-NP'
p41
aS'I-NP'
p42
aS'I-NP'
p43
aS'I-NP'
p44
aS'E-NP'
p45
aS'S-PP'
p46
aS'B-NP'
p47
aS'E-NP'
p48
asS'dep_seq'
p49
(lp50
(lp51
S'nn'
p52
aS'9'
aS'1'
aa(lp53
S'nn'
p54
aS'9'
aS'2'
aa(lp55
S'nn'
p56
aS'9'
aS'3'
aa(lp57
S'nn'
p58
aS'9'
aS'4'
aa(lp59
S'amod'
p60
aS'9'
aS'5'
aa(lp61
S'nn'
p62
aS'9'
aS'6'
aa(lp63
S'nn'
p64
aS'9'
aS'7'
aa(lp65
S'nn'
p66
aS'9'
aS'8'
aa(lp67
S'root'
p68
aS'0'
aS'9'
aa(lp69
S'det'
p70
aS'12'
p71
aS'11'
p72
aa(lp73
S'prep_of'
p74
aS'9'
aS'12'
p75
aasS'srls'
p76
(lp77
(dp78
S'A1'
p79
S'String phone prefix label of a settlement'
p80
sS'A0'
p81
S'Settlement phone Prefix Label'
p82
sS'V'
g28
sasS'pos_seq'
p83
(lp84
S'NN'
p85
aS'NN'
p86
aS'NNP'
p87
aS'NNP'
p88
aS'VBG'
p89
aS'NN'
p90
aS'NN'
p91
aS'NN'
p92
aS'NN'
p93
aS'IN'
p94
aS'DT'
p95
aS'NN'
p96
asS'ner_seq'
p97
(lp98
S'O'
aS'O'
aS'B-MISC'
p99
aS'I-MISC'
p100
aS'I-MISC'
p101
aS'E-MISC'
p102
aS'O'
aS'O'
aS'O'
aS'O'
aS'O'
aS'O'
assb.