ccopy_reg
_reconstructor
p1
(c__main__
KBproperty
p2
c__builtin__
object
p3
NtRp4
(dp5
S'comment'
p6
S'00'
p7
sS'domain'
p8
S'Island '
p9
sS'instances_count'
p10
I0
sS'phrases'
p11
NsS'syn_hypo'
p12
S''
sS'label'
p13
S'volcano id'
p14
sS'range'
p15
S'string '
p16
sS'uniq_subjs'
p17
S'0'
sS'uniq_objs'
p18
I0
sS'prop_uri'
p19
S'http://dbpedia.org/ontology/volcanoId'
p20
sS'annotations'
p21
(dp22
S'bag_of_words'
p23
(lp24
S'Island'
p25
aS'volcano'
p26
aS'id'
p27
aS'string'
p28
aS'00'
p29
asS'chunk_seq'
p30
(lp31
S'B-NP'
p32
aS'I-NP'
p33
aS'I-NP'
p34
aS'E-NP'
p35
aS'O'
asS'dep_seq'
p36
(lp37
(lp38
S'nn'
p39
aS'4'
aS'1'
aa(lp40
S'nn'
p41
aS'4'
aS'2'
aa(lp42
S'nn'
p43
aS'4'
aS'3'
aa(lp44
S'root'
p45
aS'0'
aS'4'
aa(lp46
S'dep'
p47
aS'4'
aS'5'
aasS'srls'
p48
(lp49
sS'pos_seq'
p50
(lp51
S'NN'
p52
aS'NN'
p53
aS'NN'
p54
aS'NN'
p55
aS'CD'
p56
asS'ner_seq'
p57
(lp58
S'O'
aS'O'
aS'O'
aS'O'
aS'O'
assb.