ccopy_reg
_reconstructor
p1
(c__main__
KBproperty
p2
c__builtin__
object
p3
NtRp4
(dp5
S'comment'
p6
S'code book or statute book referred to in this legal case00'
p7
sS'domain'
p8
S'Legal Case '
p9
sS'instances_count'
p10
I0
sS'phrases'
p11
NsS'syn_hypo'
p12
S''
sS'label'
p13
S'code book'
p14
sS'range'
p15
S'string '
p16
sS'uniq_subjs'
p17
S'0'
sS'uniq_objs'
p18
I0
sS'prop_uri'
p19
S'http://dbpedia.org/ontology/codeBook'
p20
sS'annotations'
p21
(dp22
S'bag_of_words'
p23
(lp24
S'Legal'
p25
aS'Case'
p26
aS'code'
p27
aS'book'
p28
aS'string'
p29
aS'code'
p30
aS'book'
p31
aS'or'
p32
aS'statute'
p33
aS'book'
p34
aS'referred'
p35
aS'to'
p36
aS'in'
p37
aS'this'
p38
aS'legal'
p39
aS'case00'
p40
asS'chunk_seq'
p41
(lp42
S'B-NP'
p43
aS'I-NP'
p44
aS'I-NP'
p45
aS'I-NP'
p46
aS'I-NP'
p47
aS'I-NP'
p48
aS'E-NP'
p49
aS'O'
aS'B-NP'
p50
aS'E-NP'
p51
aS'S-VP'
p52
aS'S-PP'
p53
aS'S-PP'
p54
aS'B-NP'
p55
aS'I-NP'
p56
aS'E-NP'
p57
asS'dep_seq'
p58
(lp59
(lp60
S'nn'
p61
aS'7'
aS'1'
aa(lp62
S'nn'
p63
aS'7'
aS'2'
aa(lp64
S'nn'
p65
aS'7'
aS'3'
aa(lp66
S'nn'
p67
aS'7'
aS'4'
aa(lp68
S'nn'
p69
aS'7'
aS'5'
aa(lp70
S'nn'
p71
aS'7'
aS'6'
aa(lp72
S'nsubj'
p73
aS'11'
p74
aS'7'
aa(lp75
S'nn'
p76
aS'10'
p77
aS'9'
aa(lp78
S'conj_or'
p79
aS'7'
aS'10'
p80
aa(lp81
S'root'
p82
aS'0'
aS'11'
p83
aa(lp84
S'prep'
p85
aS'11'
p86
aS'12'
p87
aa(lp88
S'pcomp'
p89
aS'12'
p90
aS'13'
p91
aa(lp92
S'det'
p93
aS'16'
p94
aS'14'
p95
aa(lp96
S'amod'
p97
aS'16'
p98
aS'15'
p99
aa(lp100
S'pobj'
p101
aS'13'
p102
aS'16'
p103
aasS'srls'
p104
(lp105
(dp106
S'A1'
p107
S'to in this legal case00'
p108
sS'A0'
p109
S'Legal Case code book string code book or statute book'
p110
sS'V'
g35
sasS'pos_seq'
p111
(lp112
S'NNP'
p113
aS'NNP'
p114
aS'NN'
p115
aS'NN'
p116
aS'NN'
p117
aS'NN'
p118
aS'NN'
p119
aS'CC'
p120
aS'NN'
p121
aS'NN'
p122
aS'VBD'
p123
aS'TO'
p124
aS'IN'
p125
aS'DT'
p126
aS'JJ'
p127
aS'NN'
p128
asS'ner_seq'
p129
(lp130
S'O'
aS'O'
aS'O'
aS'O'
aS'O'
aS'O'
aS'O'
aS'O'
aS'O'
aS'O'
aS'O'
aS'O'
aS'O'
aS'O'
aS'O'
aS'O'
assb.