ccopy_reg
_reconstructor
p1
(c__main__
KBproperty
p2
c__builtin__
object
p3
NtRp4
(dp5
S'comment'
p6
S'For persons who are not notable as commanding officers the unit company battalion regiment etc. in which they served.1604110057'
p7
sS'domain'
p8
S'Military Person '
p9
sS'instances_count'
p10
I16041
sS'phrases'
p11
NsS'syn_hypo'
p12
S''
sS'label'
p13
S'military unit'
p14
sS'range'
p15
S'Military Unit '
p16
sS'uniq_subjs'
p17
S'4813'
p18
sS'uniq_objs'
p19
I0
sS'prop_uri'
p20
S'http://dbpedia.org/ontology/militaryUnit'
p21
sS'annotations'
p22
(dp23
S'bag_of_words'
p24
(lp25
S'Military'
p26
aS'Person'
p27
aS'military'
p28
aS'unit'
p29
aS'Military'
p30
aS'Unit'
p31
aS'For'
p32
aS'persons'
p33
aS'who'
p34
aS'are'
p35
aS'not'
p36
aS'notable'
p37
aS'as'
p38
aS'commanding'
p39
aS'officers'
p40
aS'the'
p41
aS'unit'
p42
aS'company'
p43
aS'battalion'
p44
aS'regiment'
p45
aS'etc.'
p46
aS'in'
p47
aS'which'
p48
aS'they'
p49
aS'served.1604110057'
p50
asS'chunk_seq'
p51
(lp52
S'B-NP'
p53
aS'I-NP'
p54
aS'I-NP'
p55
aS'I-NP'
p56
aS'I-NP'
p57
aS'E-NP'
p58
aS'S-PP'
p59
aS'S-NP'
p60
aS'S-NP'
p61
aS'S-VP'
p62
aS'O'
aS'S-ADJP'
p63
aS'S-PP'
p64
aS'B-NP'
p65
aS'E-NP'
p66
aS'B-NP'
p67
aS'I-NP'
p68
aS'I-NP'
p69
aS'I-NP'
p70
aS'I-NP'
p71
aS'E-NP'
p72
aS'S-PP'
p73
aS'S-NP'
p74
aS'S-NP'
p75
aS'S-VP'
p76
asS'dep_seq'
p77
(lp78
(lp79
S'amod'
p80
aS'6'
aS'1'
aa(lp81
S'nn'
p82
aS'6'
aS'2'
aa(lp83
S'amod'
p84
aS'6'
aS'3'
aa(lp85
S'nn'
p86
aS'6'
aS'4'
aa(lp87
S'nn'
p88
aS'6'
aS'5'
aa(lp89
S'root'
p90
aS'0'
aS'6'
aa(lp91
S'prep_for'
p92
aS'6'
aS'8'
aa(lp93
S'nsubj'
p94
aS'12'
p95
aS'8'
aa(lp96
S'cop'
p97
aS'12'
p98
aS'10'
p99
aa(lp100
S'neg'
p101
aS'12'
p102
aS'11'
p103
aa(lp104
S'rcmod'
p105
aS'8'
aS'12'
p106
aa(lp107
S'amod'
p108
aS'15'
p109
aS'14'
p110
aa(lp111
S'prep_as'
p112
aS'12'
p113
aS'15'
p114
aa(lp115
S'det'
p116
aS'20'
p117
aS'16'
p118
aa(lp119
S'nn'
p120
aS'20'
p121
aS'17'
p122
aa(lp123
S'nn'
p124
aS'20'
p125
aS'18'
p126
aa(lp127
S'nn'
p128
aS'20'
p129
aS'19'
p130
aa(lp131
S'attr'
p132
aS'12'
p133
aS'20'
p134
aa(lp135
S'amod'
p136
aS'20'
p137
aS'21'
p138
aa(lp139
S'prep_in'
p140
aS'25'
p141
aS'23'
p142
aa(lp143
S'nsubj'
p144
aS'25'
p145
aS'24'
p146
aa(lp147
S'ccomp'
p148
aS'21'
p149
aS'25'
p150
aasS'srls'
p151
(lp152
(dp153
S'A0'
p154
g49
sS'V'
g50
sasS'pos_seq'
p155
(lp156
S'JJ'
p157
aS'NN'
p158
aS'JJ'
p159
aS'NN'
p160
aS'NNP'
p161
aS'NNP'
p162
aS'IN'
p163
aS'NNS'
p164
aS'WP'
p165
aS'VBP'
p166
aS'RB'
p167
aS'JJ'
p168
aS'IN'
p169
aS'JJ'
p170
aS'NNS'
p171
aS'DT'
p172
aS'NN'
p173
aS'NN'
p174
aS'NN'
p175
aS'NN'
p176
aS'NN'
p177
aS'IN'
p178
aS'WDT'
p179
aS'PRP'
p180
aS'VBP'
p181
asS'ner_seq'
p182
(lp183
S'O'
aS'O'
aS'O'
aS'O'
aS'O'
aS'O'
aS'O'
aS'O'
aS'O'
aS'O'
aS'O'
aS'O'
aS'O'
aS'O'
aS'O'
aS'O'
aS'O'
aS'O'
aS'O'
aS'O'
aS'O'
aS'O'
aS'O'
aS'O'
aS'O'
assb.