ccopy_reg
_reconstructor
p1
(c__main__
KBproperty
p2
c__builtin__
object
p3
NtRp4
(dp5
S'comment'
p6
S'00'
p7
sS'domain'
p8
S'Athlete '
p9
sS'instances_count'
p10
I0
sS'phrases'
p11
NsS'syn_hypo'
p12
S''
sS'label'
p13
S'state of origin team'
p14
sS'range'
p15
S'Sports Team '
p16
sS'uniq_subjs'
p17
S'0'
sS'uniq_objs'
p18
I0
sS'prop_uri'
p19
S'http://dbpedia.org/ontology/stateOfOriginTeam'
p20
sS'annotations'
p21
(dp22
S'bag_of_words'
p23
(lp24
S'Athlete'
p25
aS'state'
p26
aS'of'
p27
aS'origin'
p28
aS'team'
p29
aS'Sports'
p30
aS'Team'
p31
aS'00'
p32
asS'chunk_seq'
p33
(lp34
S'B-NP'
p35
aS'E-NP'
p36
aS'S-PP'
p37
aS'B-NP'
p38
aS'I-NP'
p39
aS'I-NP'
p40
aS'E-NP'
p41
aS'S-ADVP'
p42
asS'dep_seq'
p43
(lp44
(lp45
S'nn'
p46
aS'2'
aS'1'
aa(lp47
S'root'
p48
aS'0'
aS'2'
aa(lp49
S'nn'
p50
aS'7'
aS'4'
aa(lp51
S'nn'
p52
aS'7'
aS'5'
aa(lp53
S'nn'
p54
aS'7'
aS'6'
aa(lp55
S'prep_of'
p56
aS'2'
aS'7'
aa(lp57
S'num'
p58
aS'7'
aS'8'
aasS'srls'
p59
(lp60
sS'pos_seq'
p61
(lp62
S'NN'
p63
aS'NN'
p64
aS'IN'
p65
aS'NN'
p66
aS'NN'
p67
aS'NNP'
p68
aS'NNP'
p69
aS'CD'
p70
asS'ner_seq'
p71
(lp72
S'O'
aS'O'
aS'O'
aS'O'
aS'O'
aS'B-ORG'
p73
aS'E-ORG'
p74
aS'O'
assb.