ccopy_reg
_reconstructor
p1
(c__main__
KBproperty
p2
c__builtin__
object
p3
NtRp4
(dp5
S'comment'
p6
S'A building organisation or other thing that is located in the road.1812'
p7
sS'domain'
p8
S'Road '
p9
sS'instances_count'
p10
I18
sS'phrases'
p11
NsS'syn_hypo'
p12
S''
sS'label'
p13
S'address in road'
p14
sS'range'
p15
S''
sS'uniq_subjs'
p16
S'18'
p17
sS'uniq_objs'
p18
I0
sS'prop_uri'
p19
S'http://dbpedia.org/ontology/addressInRoad'
p20
sS'annotations'
p21
(dp22
S'bag_of_words'
p23
(lp24
S'Road'
p25
aS'address'
p26
aS'in'
p27
aS'road'
p28
aS'A'
aS'building'
p29
aS'organisation'
p30
aS'or'
p31
aS'other'
p32
aS'thing'
p33
aS'that'
p34
aS'is'
p35
aS'located'
p36
aS'in'
p37
aS'the'
p38
aS'road.1812'
p39
asS'chunk_seq'
p40
(lp41
S'B-NP'
p42
aS'E-NP'
p43
aS'S-PP'
p44
aS'S-NP'
p45
aS'B-NP'
p46
aS'I-NP'
p47
aS'E-NP'
p48
aS'O'
aS'B-NP'
p49
aS'E-NP'
p50
aS'S-NP'
p51
aS'B-VP'
p52
aS'E-VP'
p53
aS'S-PP'
p54
aS'B-NP'
p55
aS'E-NP'
p56
asS'dep_seq'
p57
(lp58
(lp59
S'nn'
p60
aS'2'
aS'1'
aa(lp61
S'dep'
p62
aS'7'
aS'2'
aa(lp63
S'prep_in'
p64
aS'2'
aS'4'
aa(lp65
S'det'
p66
aS'7'
aS'5'
aa(lp67
S'nn'
p68
aS'7'
aS'6'
aa(lp69
S'root'
p70
aS'0'
aS'7'
aa(lp71
S'amod'
p72
aS'10'
p73
aS'9'
aa(lp74
S'conj_or'
p75
aS'7'
aS'10'
p76
aa(lp77
S'nsubjpass'
p78
aS'13'
p79
aS'10'
p80
aa(lp81
S'auxpass'
p82
aS'13'
p83
aS'12'
p84
aa(lp85
S'rcmod'
p86
aS'10'
p87
aS'13'
p88
aa(lp89
S'det'
p90
aS'16'
p91
aS'15'
p92
aa(lp93
S'prep_in'
p94
aS'13'
p95
aS'16'
p96
aasS'srls'
p97
(lp98
(dp99
S'A1'
p100
S'other thing'
p101
sS'AM-LOC'
p102
S'in the road.1812'
p103
sS'R-A1'
p104
g34
sS'V'
g36
sasS'pos_seq'
p105
(lp106
S'NN'
p107
aS'NN'
p108
aS'IN'
p109
aS'NN'
p110
aS'DT'
p111
aS'NN'
p112
aS'NN'
p113
aS'CC'
p114
aS'JJ'
p115
aS'NN'
p116
aS'WDT'
p117
aS'VBZ'
p118
aS'VBN'
p119
aS'IN'
p120
aS'DT'
p121
aS'NN'
p122
asS'ner_seq'
p123
(lp124
S'O'
aS'O'
aS'O'
aS'O'
aS'O'
aS'O'
aS'O'
aS'O'
aS'O'
aS'O'
aS'O'
aS'O'
aS'O'
aS'O'
aS'O'
aS'O'
assb.