ccopy_reg
_reconstructor
p1
(c__main__
KBproperty
p2
c__builtin__
object
p3
NtRp4
(dp5
S'comment'
p6
S'The subject as a term possibly a term from a formal classification00'
p7
sS'domain'
p8
S'Work '
p9
sS'instances_count'
p10
I0
sS'phrases'
p11
NsS'syn_hypo'
p12
S''
sS'label'
p13
S'subject term'
p14
sS'range'
p15
S'string '
p16
sS'uniq_subjs'
p17
S'0'
sS'uniq_objs'
p18
I0
sS'prop_uri'
p19
S'http://dbpedia.org/ontology/subjectTerm'
p20
sS'annotations'
p21
(dp22
S'bag_of_words'
p23
(lp24
S'Work'
p25
aS'subject'
p26
aS'term'
p27
aS'string'
p28
aS'The'
p29
aS'subject'
p30
aS'as'
p31
aS'a'
aS'term'
p32
aS'possibly'
p33
aS'a'
aS'term'
p34
aS'from'
p35
aS'a'
aS'formal'
p36
aS'classification00'
p37
asS'chunk_seq'
p38
(lp39
S'S-NP'
p40
aS'S-ADJP'
p41
aS'B-NP'
p42
aS'E-NP'
p43
aS'B-NP'
p44
aS'E-NP'
p45
aS'S-PP'
p46
aS'B-NP'
p47
aS'E-NP'
p48
aS'S-ADVP'
p49
aS'B-NP'
p50
aS'E-NP'
p51
aS'S-PP'
p52
aS'B-NP'
p53
aS'I-NP'
p54
aS'E-NP'
p55
asS'dep_seq'
p56
(lp57
(lp58
S'nn'
p59
aS'4'
aS'1'
aa(lp60
S'amod'
p61
aS'4'
aS'2'
aa(lp62
S'nn'
p63
aS'4'
aS'3'
aa(lp64
S'dep'
p65
aS'6'
aS'4'
aa(lp66
S'det'
p67
aS'6'
aS'5'
aa(lp68
S'root'
p69
aS'0'
aS'6'
aa(lp70
S'det'
p71
aS'9'
aS'8'
aa(lp72
S'prep_as'
p73
aS'6'
aS'9'
aa(lp74
S'advmod'
p75
aS'9'
aS'10'
p76
aa(lp77
S'det'
p78
aS'12'
p79
aS'11'
p80
aa(lp81
S'dep'
p82
aS'9'
aS'12'
p83
aa(lp84
S'det'
p85
aS'16'
p86
aS'14'
p87
aa(lp88
S'amod'
p89
aS'16'
p90
aS'15'
p91
aa(lp92
S'prep_from'
p93
aS'9'
aS'16'
p94
aasS'srls'
p95
(lp96
sS'pos_seq'
p97
(lp98
S'NN'
p99
aS'JJ'
p100
aS'NN'
p101
aS'NN'
p102
aS'DT'
p103
aS'NN'
p104
aS'IN'
p105
aS'DT'
p106
aS'NN'
p107
aS'RB'
p108
aS'DT'
p109
aS'NN'
p110
aS'IN'
p111
aS'DT'
p112
aS'JJ'
p113
aS'NN'
p114
asS'ner_seq'
p115
(lp116
S'O'
aS'O'
aS'O'
aS'O'
aS'O'
aS'O'
aS'O'
aS'O'
aS'O'
aS'O'
aS'O'
aS'O'
aS'O'
aS'O'
aS'O'
aS'O'
assb.