ccopy_reg
_reconstructor
p1
(c__main__
KBproperty
p2
c__builtin__
object
p3
NtRp4
(dp5
S'comment'
p6
S'HUGO Gene Symbol42892652'
p7
sS'domain'
p8
S'Biomolecule '
p9
sS'instances_count'
p10
I4103
sS'phrases'
p11
NsS'syn_hypo'
p12
VawardsymbolaccoladesymbolhonorsymbolhonoursymbollaurelssymbolCrownsymboldollarsymboldollar_marksymboldollar_signsymboliconsymbolidentifiersymbollingamsymbolmantlesymbolmarksymbolstigmasymbolbrandsymbolstainsymbolmarkersymbolmarkingsymbolmarksymbolmonogramsymbolnosesymbolnumeralsymbolnumbersymbolpoundsymbolpound_signsymbolstaffsymbolstampsymbolimpressionsymbolstock_symbolsymbolsymbolismsymboltokensymbolitemsymboltypesymbolvariablesymbolwritten_symbolsymbolprinted_symbol
p13
sS'label'
p14
S'Symbol'
p15
sS'range'
p16
S'string '
p17
sS'uniq_subjs'
p18
S'4103'
p19
sS'uniq_objs'
p20
I0
sS'prop_uri'
p21
S'http://dbpedia.org/ontology/symbol'
p22
sS'annotations'
p23
(dp24
S'bag_of_words'
p25
(lp26
S'Biomolecule'
p27
aS'Symbol'
p28
aS'string'
p29
aS'HUGO'
p30
aS'Gene'
p31
aS'Symbol42892652'
p32
asS'chunk_seq'
p33
(lp34
S'B-NP'
p35
aS'I-NP'
p36
aS'I-NP'
p37
aS'I-NP'
p38
aS'I-NP'
p39
aS'E-NP'
p40
asS'dep_seq'
p41
(lp42
(lp43
S'amod'
p44
aS'3'
aS'1'
aa(lp45
S'nn'
p46
aS'3'
aS'2'
aa(lp47
S'root'
p48
aS'0'
aS'3'
aa(lp49
S'nn'
p50
aS'6'
aS'4'
aa(lp51
S'nn'
p52
aS'6'
aS'5'
aa(lp53
S'dep'
p54
aS'3'
aS'6'
aasS'srls'
p55
(lp56
sS'pos_seq'
p57
(lp58
S'JJ'
p59
aS'NN'
p60
aS'NN'
p61
aS'NNP'
p62
aS'NNP'
p63
aS'NNP'
p64
asS'ner_seq'
p65
(lp66
S'O'
aS'O'
aS'O'
aS'B-PER'
p67
aS'I-PER'
p68
aS'E-PER'
p69
assb.