ccopy_reg
_reconstructor
p1
(c__main__
KBproperty
p2
c__builtin__
object
p3
NtRp4
(dp5
S'comment'
p6
S'active years end date manager'
p7
sS'domain'
p8
S'Person '
p9
sS'instances_count'
p10
I0
sS'phrases'
p11
NsS'syn_hypo'
p12
S''
sS'label'
p13
g7
sS'range'
p14
S'string '
p15
sS'uniq_subjs'
p16
S'0'
sS'uniq_objs'
p17
I0
sS'prop_uri'
p18
S'http://dbpedia.org/ontology/activeYearsEndDateMgr'
p19
sS'annotations'
p20
(dp21
S'bag_of_words'
p22
(lp23
S'Person'
p24
aS'active'
p25
aS'Years'
p26
aS'End'
p27
aS'Date'
p28
aS'Mgr'
p29
aS'string'
p30
aS'active'
p31
aS'years'
p32
aS'end'
p33
aS'date'
p34
aS'manager'
p35
asS'chunk_seq'
p36
(lp37
S'B-NP'
p38
aS'I-NP'
p39
aS'E-NP'
p40
aS'S-VP'
p41
aS'B-NP'
p42
aS'I-NP'
p43
aS'I-NP'
p44
aS'I-NP'
p45
aS'I-NP'
p46
aS'I-NP'
p47
aS'I-NP'
p48
aS'E-NP'
p49
asS'dep_seq'
p50
(lp51
(lp52
S'nn'
p53
aS'3'
aS'1'
aa(lp54
S'amod'
p55
aS'3'
aS'2'
aa(lp56
S'nsubj'
p57
aS'4'
aS'3'
aa(lp58
S'root'
p59
aS'0'
aS'4'
aa(lp60
S'nsubj'
p61
aS'10'
p62
aS'5'
aa(lp63
S'nn'
p64
aS'9'
aS'6'
aa(lp65
S'nn'
p66
aS'9'
aS'7'
aa(lp67
S'amod'
p68
aS'9'
aS'8'
aa(lp69
S'nsubj'
p70
aS'10'
p71
aS'9'
aa(lp72
S'ccomp'
p73
aS'4'
aS'10'
p74
aa(lp75
S'xcomp'
p76
aS'4'
aS'10'
p77
aa(lp78
S'nn'
p79
aS'12'
p80
aS'11'
p81
aa(lp82
S'dobj'
p83
aS'10'
p84
aS'12'
p85
aasS'srls'
p86
(lp87
(dp88
S'A1'
p89
S'Person active Years  Date Mgr string'
p90
sS'V'
g27
sasS'pos_seq'
p91
(lp92
S'NN'
p93
aS'JJ'
p94
aS'NNS'
p95
aS'VB'
p96
aS'NN'
p97
aS'NNP'
p98
aS'NN'
p99
aS'JJ'
p100
aS'NNS'
p101
aS'NN'
p102
aS'NN'
p103
aS'NN'
p104
asS'ner_seq'
p105
(lp106
S'O'
aS'O'
aS'O'
aS'O'
aS'O'
aS'O'
aS'O'
aS'O'
aS'O'
aS'O'
aS'O'
aS'O'
assb.