ccopy_reg
_reconstructor
p1
(c__main__
KBproperty
p2
c__builtin__
object
p3
NtRp4
(dp5
S'comment'
p6
S"Number of the company's offices.415415"
p7
sS'domain'
p8
S'Law Firm '
p9
sS'instances_count'
p10
I50
sS'phrases'
p11
NsS'syn_hypo'
p12
S''
sS'label'
p13
S'number of offices'
p14
sS'range'
p15
S'non Negative Integer '
p16
sS'uniq_subjs'
p17
S'50'
p18
sS'uniq_objs'
p19
I0
sS'prop_uri'
p20
S'http://dbpedia.org/ontology/numberOfOffices'
p21
sS'annotations'
p22
(dp23
S'bag_of_words'
p24
(lp25
S'Law'
p26
aS'Firm'
p27
aS'number'
p28
aS'of'
p29
aS'offices'
p30
aS'non'
p31
aS'Negative'
p32
aS'Integer'
p33
aS'Number'
p34
aS'of'
p35
aS'the'
p36
aS'company'
p37
aS"'s"
p38
aS'offices.415415'
p39
asS'chunk_seq'
p40
(lp41
S'B-NP'
p42
aS'I-NP'
p43
aS'E-NP'
p44
aS'S-PP'
p45
aS'S-NP'
p46
aS'B-NP'
p47
aS'I-NP'
p48
aS'I-NP'
p49
aS'E-NP'
p50
aS'S-PP'
p51
aS'B-NP'
p52
aS'E-NP'
p53
aS'B-NP'
p54
aS'E-NP'
p55
asS'dep_seq'
p56
(lp57
(lp58
S'nn'
p59
aS'3'
aS'1'
aa(lp60
S'nn'
p61
aS'3'
aS'2'
aa(lp62
S'dep'
p63
aS'9'
aS'3'
aa(lp64
S'prep_of'
p65
aS'3'
aS'5'
aa(lp66
S'amod'
p67
aS'9'
aS'6'
aa(lp68
S'amod'
p69
aS'9'
aS'7'
aa(lp70
S'nn'
p71
aS'9'
aS'8'
aa(lp72
S'root'
p73
aS'0'
aS'9'
aa(lp74
S'det'
p75
aS'12'
p76
aS'11'
p77
aa(lp78
S'poss'
p79
aS'14'
p80
aS'12'
p81
aa(lp82
S'prep_of'
p83
aS'9'
aS'14'
p84
aasS'srls'
p85
(lp86
sS'pos_seq'
p87
(lp88
S'NNP'
p89
aS'NNP'
p90
aS'NN'
p91
aS'IN'
p92
aS'NNS'
p93
aS'JJ'
p94
aS'JJ'
p95
aS'NNP'
p96
aS'NNP'
p97
aS'IN'
p98
aS'DT'
p99
aS'NN'
p100
aS'POS'
p101
aS'NN'
p102
asS'ner_seq'
p103
(lp104
S'O'
aS'O'
aS'O'
aS'O'
aS'O'
aS'O'
aS'O'
aS'O'
aS'O'
aS'O'
aS'O'
aS'O'
aS'O'
aS'O'
assb.