ccopy_reg
_reconstructor
p1
(c__main__
KBproperty
p2
c__builtin__
object
p3
NtRp4
(dp5
S'comment'
p6
S'The last update date of a resource00'
p7
sS'domain'
p8
S''
sS'instances_count'
p9
I0
sS'phrases'
p10
NsS'syn_hypo'
p11
S''
sS'label'
p12
S'updated'
p13
sS'range'
p14
S'date '
p15
sS'uniq_subjs'
p16
S'0'
sS'uniq_objs'
p17
I0
sS'prop_uri'
p18
S'http://dbpedia.org/ontology/updated'
p19
sS'annotations'
p20
(dp21
S'bag_of_words'
p22
(lp23
S'updated'
p24
aS'date'
p25
aS'The'
p26
aS'last'
p27
aS'update'
p28
aS'date'
p29
aS'of'
p30
aS'a'
aS'resource00'
p31
asS'chunk_seq'
p32
(lp33
S'B-NP'
p34
aS'E-NP'
p35
aS'B-NP'
p36
aS'I-NP'
p37
aS'I-NP'
p38
aS'E-NP'
p39
aS'S-PP'
p40
aS'B-NP'
p41
aS'E-NP'
p42
asS'dep_seq'
p43
(lp44
(lp45
S'root'
p46
aS'0'
aS'1'
aa(lp47
S'iobj'
p48
aS'1'
aS'2'
aa(lp49
S'det'
p50
aS'6'
aS'3'
aa(lp51
S'amod'
p52
aS'6'
aS'4'
aa(lp53
S'nn'
p54
aS'6'
aS'5'
aa(lp55
S'dobj'
p56
aS'1'
aS'6'
aa(lp57
S'det'
p58
aS'9'
aS'8'
aa(lp59
S'prep_of'
p60
aS'6'
aS'9'
aasS'srls'
p61
(lp62
(dp63
S'A1'
p64
g25
sS'V'
g24
sasS'pos_seq'
p65
(lp66
S'VBN'
p67
aS'NN'
p68
aS'DT'
p69
aS'JJ'
p70
aS'NN'
p71
aS'NN'
p72
aS'IN'
p73
aS'DT'
p74
aS'NN'
p75
asS'ner_seq'
p76
(lp77
S'O'
aS'O'
aS'O'
aS'O'
aS'O'
aS'O'
aS'O'
aS'O'
aS'O'
assb.