ccopy_reg
_reconstructor
p1
(c__main__
KBproperty
p2
c__builtin__
object
p3
NtRp4
(dp5
S'comment'
p6
S'CODEN is a six character alphanumeric bibliographic code that provides concise unique and unambiguous identification of the titles of serials and non-serial publications from all subject areas.20101997'
p7
sS'domain'
p8
S'Written Work '
p9
sS'instances_count'
p10
I2010
sS'phrases'
p11
NsS'syn_hypo'
p12
S''
sS'label'
p13
S'CODEN'
p14
sS'range'
p15
S'string '
p16
sS'uniq_subjs'
p17
S'2008'
p18
sS'uniq_objs'
p19
I0
sS'prop_uri'
p20
S'http://dbpedia.org/ontology/coden'
p21
sS'annotations'
p22
(dp23
S'bag_of_words'
p24
(lp25
S'Written'
p26
aS'Work'
p27
aS'CODEN'
p28
aS'string'
p29
aS'CODEN'
p30
aS'is'
p31
aS'a'
aS'six'
p32
aS'character'
p33
aS'alphanumeric'
p34
aS'bibliographic'
p35
aS'code'
p36
aS'that'
p37
aS'provides'
p38
aS'concise'
p39
aS'unique'
p40
aS'and'
p41
aS'unambiguous'
p42
aS'identification'
p43
aS'of'
p44
aS'the'
p45
aS'titles'
p46
aS'of'
p47
aS'serials'
p48
aS'and'
p49
aS'non-'
p50
aS'serial'
p51
aS'publications'
p52
aS'from'
p53
aS'all'
p54
aS'subject'
p55
aS'areas.20101997'
p56
asS'chunk_seq'
p57
(lp58
S'B-NP'
p59
aS'I-NP'
p60
aS'I-NP'
p61
aS'I-NP'
p62
aS'E-NP'
p63
aS'S-VP'
p64
aS'B-NP'
p65
aS'I-NP'
p66
aS'I-NP'
p67
aS'I-NP'
p68
aS'I-NP'
p69
aS'E-NP'
p70
aS'S-NP'
p71
aS'S-VP'
p72
aS'B-NP'
p73
aS'I-NP'
p74
aS'I-NP'
p75
aS'I-NP'
p76
aS'E-NP'
p77
aS'S-PP'
p78
aS'B-NP'
p79
aS'E-NP'
p80
aS'S-PP'
p81
aS'B-NP'
p82
aS'I-NP'
p83
aS'I-NP'
p84
aS'I-NP'
p85
aS'E-NP'
p86
aS'S-PP'
p87
aS'B-NP'
p88
aS'I-NP'
p89
aS'E-NP'
p90
asS'dep_seq'
p91
(lp92
(lp93
S'nn'
p94
aS'5'
aS'1'
aa(lp95
S'nn'
p96
aS'5'
aS'2'
aa(lp97
S'nn'
p98
aS'5'
aS'3'
aa(lp99
S'nn'
p100
aS'5'
aS'4'
aa(lp101
S'nsubj'
p102
aS'12'
p103
aS'5'
aa(lp104
S'cop'
p105
aS'12'
p106
aS'6'
aa(lp107
S'det'
p108
aS'12'
p109
aS'7'
aa(lp110
S'num'
p111
aS'12'
p112
aS'8'
aa(lp113
S'nn'
p114
aS'12'
p115
aS'9'
aa(lp116
S'amod'
p117
aS'12'
p118
aS'10'
p119
aa(lp120
S'amod'
p121
aS'12'
p122
aS'11'
p123
aa(lp124
S'root'
p125
aS'0'
aS'12'
p126
aa(lp127
S'nsubj'
p128
aS'14'
p129
aS'12'
p130
aa(lp131
S'rcmod'
p132
aS'12'
p133
aS'14'
p134
aa(lp135
S'dep'
p136
aS'16'
p137
aS'15'
p138
aa(lp139
S'amod'
p140
aS'19'
p141
aS'16'
p142
aa(lp143
S'conj_and'
p144
aS'16'
p145
aS'18'
p146
aa(lp147
S'dobj'
p148
aS'14'
p149
aS'19'
p150
aa(lp151
S'det'
p152
aS'22'
p153
aS'21'
p154
aa(lp155
S'prep_of'
p156
aS'19'
p157
aS'22'
p158
aa(lp159
S'prep_of'
p160
aS'22'
p161
aS'24'
p162
aa(lp163
S'amod'
p164
aS'28'
p165
aS''
aa(lp166
S'amod'
p167
aS'28'
p168
aS'27'
p169
aa(lp170
S'conj_and'
p171
aS'24'
p172
aS'28'
p173
aa(lp174
S'det'
p175
aS'32'
p176
aS'30'
p177
aa(lp178
S'amod'
p179
aS'32'
p180
aS'31'
p181
aa(lp182
S'prep_from'
p183
aS'14'
p184
aS'32'
p185
aasS'srls'
p186
(lp187
(dp188
S'A1'
p189
S'concise unique and unambiguous identification of the titles of serials and non- serial publications'
p190
sS'A0'
p191
S'a six character alphanumeric bibliographic code'
p192
sS'A2'
p193
S'from all subject areas.20101997'
p194
sS'R-A0'
p195
g37
sS'V'
g38
sasS'pos_seq'
p196
(lp197
S'NNP'
p198
aS'NNP'
p199
aS'NNP'
p200
aS'NN'
p201
aS'NNP'
p202
aS'VBZ'
p203
aS'DT'
p204
aS'CD'
p205
aS'NN'
p206
aS'JJ'
p207
aS'JJ'
p208
aS'NN'
p209
aS'WDT'
p210
aS'VBZ'
p211
aS'JJ'
p212
aS'JJ'
p213
aS'CC'
p214
aS'JJ'
p215
aS'NN'
p216
aS'IN'
p217
aS'DT'
p218
aS'NNS'
p219
aS'IN'
p220
aS'NNS'
p221
aS'CC'
p222
aS'JJ'
p223
aS'JJ'
p224
aS'NNS'
p225
aS'IN'
p226
aS'DT'
p227
aS'JJ'
p228
aS'NN'
p229
asS'ner_seq'
p230
(lp231
S'O'
aS'O'
aS'S-ORG'
p232
aS'O'
aS'S-LOC'
p233
aS'O'
aS'O'
aS'O'
aS'O'
aS'O'
aS'O'
aS'O'
aS'O'
aS'O'
aS'O'
aS'O'
aS'O'
aS'O'
aS'O'
aS'O'
aS'O'
aS'O'
aS'O'
aS'O'
aS'O'
aS'O'
aS'O'
aS'O'
aS'O'
aS'O'
aS'O'
aS'O'
assb.