ccopy_reg
_reconstructor
p1
(c__main__
KBproperty
p2
c__builtin__
object
p3
NtRp4
(dp5
S'comment'
p6
S'For persons who are notable as commanding officers the units they commanded. Dates should be given if multiple notable commands were held.3676514571'
p7
sS'domain'
p8
S'Military Person '
p9
sS'instances_count'
p10
I36765
sS'phrases'
p11
NsS'syn_hypo'
p12
S''
sS'label'
p13
S'military command'
p14
sS'range'
p15
S'string '
p16
sS'uniq_subjs'
p17
S'23990'
p18
sS'uniq_objs'
p19
I0
sS'prop_uri'
p20
S'http://dbpedia.org/ontology/militaryCommand'
p21
sS'annotations'
p22
(dp23
S'bag_of_words'
p24
(lp25
S'Military'
p26
aS'Person'
p27
aS'military'
p28
aS'command'
p29
aS'string'
p30
aS'For'
p31
aS'persons'
p32
aS'who'
p33
aS'are'
p34
aS'notable'
p35
aS'as'
p36
aS'commanding'
p37
aS'officers'
p38
aS'the'
p39
aS'units'
p40
aS'they'
p41
aS'commanded'
p42
aS'.'
aS'Dates'
p43
aS'should'
p44
aS'be'
p45
aS'given'
p46
aS'if'
p47
aS'multiple'
p48
aS'notable'
p49
aS'commands'
p50
aS'were'
p51
aS'held.3676514571'
p52
asS'chunk_seq'
p53
(lp54
S'B-NP'
p55
aS'I-NP'
p56
aS'I-NP'
p57
aS'I-NP'
p58
aS'E-NP'
p59
aS'S-PP'
p60
aS'S-NP'
p61
aS'S-NP'
p62
aS'S-VP'
p63
aS'S-ADJP'
p64
aS'S-PP'
p65
aS'B-NP'
p66
aS'E-NP'
p67
aS'B-NP'
p68
aS'E-NP'
p69
aS'S-NP'
p70
aS'S-VP'
p71
aS'O'
aS'S-NP'
p72
aS'B-VP'
p73
aS'I-VP'
p74
aS'E-VP'
p75
aS'S-SBAR'
p76
aS'B-NP'
p77
aS'I-NP'
p78
aS'E-NP'
p79
aS'S-VP'
p80
aS'S-ADJP'
p81
asS'dep_seq'
p82
(lp83
(lp84
S'amod'
p85
aS'5'
aS'1'
aa(lp86
S'nn'
p87
aS'5'
aS'2'
aa(lp88
S'amod'
p89
aS'5'
aS'3'
aa(lp90
S'nn'
p91
aS'5'
aS'4'
aa(lp92
S'root'
p93
aS'0'
aS'5'
aa(lp94
S'prep_for'
p95
aS'5'
aS'7'
aa(lp96
S'nsubj'
p97
aS'10'
p98
aS'7'
aa(lp99
S'cop'
p100
aS'10'
p101
aS'9'
aa(lp102
S'rcmod'
p103
aS'7'
aS'10'
p104
aa(lp105
S'amod'
p106
aS'13'
p107
aS'12'
p108
aa(lp109
S'prep_as'
p110
aS'10'
p111
aS'13'
p112
aa(lp113
S'det'
p114
aS'15'
p115
aS'14'
p116
aa(lp117
S'attr'
p118
aS'10'
p119
aS'15'
p120
aa(lp121
S'dobj'
p122
aS'17'
p123
aS'15'
p124
aa(lp125
S'nsubj'
p126
aS'17'
p127
aS'16'
p128
aa(lp129
S'rcmod'
p130
aS'15'
p131
aS'17'
p132
aa(lp133
S'nsubjpass'
p134
aS'22'
p135
aS'19'
p136
aa(lp137
S'aux'
p138
aS'22'
p139
aS'20'
p140
aa(lp141
S'auxpass'
p142
aS'22'
p143
aS'21'
p144
aa(lp145
S'dep'
p146
aS'5'
aS'22'
p147
aa(lp148
S'mark'
p149
aS'27'
p150
aS'23'
p151
aa(lp152
S'amod'
p153
aS'26'
p154
aS'24'
p155
aa(lp156
S'amod'
p157
aS'26'
p158
aS'25'
p159
aa(lp160
S'nsubj'
p161
aS'27'
p162
aS'26'
p163
aa(lp164
S'advcl'
p165
aS'22'
p166
aS'27'
p167
aa(lp168
S'advmod'
p169
aS'27'
p170
aS'28'
p171
aasS'srls'
p172
(lp173
(dp174
S'A1'
p175
S'the units'
p176
sS'A0'
p177
g41
sS'V'
g42
sa(dp178
S'A1'
p179
g43
sS'AM-ADV'
p180
S'if multiple notable commands were held.3676514571'
p181
sS'V'
g46
sS'AM-MOD'
p182
g44
sasS'pos_seq'
p183
(lp184
S'JJ'
p185
aS'NN'
p186
aS'JJ'
p187
aS'NN'
p188
aS'NN'
p189
aS'IN'
p190
aS'NNS'
p191
aS'WP'
p192
aS'VBP'
p193
aS'JJ'
p194
aS'IN'
p195
aS'JJ'
p196
aS'NNS'
p197
aS'DT'
p198
aS'NNS'
p199
aS'PRP'
p200
aS'VBD'
p201
aS'.'
aS'NNS'
p202
aS'MD'
p203
aS'VB'
p204
aS'VBN'
p205
aS'IN'
p206
aS'JJ'
p207
aS'JJ'
p208
aS'NNS'
p209
aS'VBD'
p210
aS'.'
asS'ner_seq'
p211
(lp212
S'O'
aS'O'
aS'O'
aS'O'
aS'O'
aS'O'
aS'O'
aS'O'
aS'O'
aS'O'
aS'O'
aS'O'
aS'O'
aS'O'
aS'O'
aS'O'
aS'O'
aS'O'
aS'O'
aS'O'
aS'O'
aS'O'
aS'O'
aS'O'
aS'O'
aS'O'
aS'O'
aS'O'
assb.