ccopy_reg
_reconstructor
p1
(c__main__
KBproperty
p2
c__builtin__
object
p3
NtRp4
(dp5
S'comment'
p6
S'participates/participated in'
p7
sS'domain'
p8
S'Member Resistance Movement '
p9
sS'instances_count'
p10
I0
sS'phrases'
p11
NsS'syn_hypo'
p12
S''
sS'label'
p13
g7
sS'range'
p14
S'Societal Event '
p15
sS'uniq_subjs'
p16
S'0'
sS'uniq_objs'
p17
I0
sS'prop_uri'
p18
S'http://dbpedia.org/ontology/participatingIn'
p19
sS'annotations'
p20
(dp21
S'bag_of_words'
p22
(lp23
S'Member'
p24
aS'Resistance'
p25
aS'Movement'
p26
aS'participating'
p27
aS'In'
p28
aS'Societal'
p29
aS'Event'
p30
aS'participates'
p31
aS'/'
aS'participated'
p32
aS'in'
p33
asS'chunk_seq'
p34
(lp35
S'B-NP'
p36
aS'I-NP'
p37
aS'E-NP'
p38
aS'S-VP'
p39
aS'S-PP'
p40
aS'B-NP'
p41
aS'E-NP'
p42
aS'S-VP'
p43
aS'O'
aS'S-VP'
p44
aS'S-PP'
p45
asS'dep_seq'
p46
(lp47
(lp48
S'nn'
p49
aS'3'
aS'1'
aa(lp50
S'nn'
p51
aS'3'
aS'2'
aa(lp52
S'nsubj'
p53
aS'4'
aS'3'
aa(lp54
S'root'
p55
aS'0'
aS'4'
aa(lp56
S'mark'
p57
aS'10'
p58
aS'5'
aa(lp59
S'nn'
p60
aS'7'
aS'6'
aa(lp61
S'nsubj'
p62
aS'8'
aS'7'
aa(lp63
S'csubj'
p64
aS'10'
p65
aS'8'
aa(lp66
S'punct'
p67
aS'10'
p68
aS'9'
aa(lp69
S'advcl'
p70
aS'4'
aS'10'
p71
aa(lp72
S'prep'
p73
aS'10'
p74
aS'11'
p75
aasS'srls'
p76
(lp77
(dp78
S'A1'
p79
S'In Societal Event'
p80
sS'A0'
p81
S'Member Resistance Movement'
p82
sS'V'
g27
sa(dp83
S'A0'
p84
S'Member Resistance Movement participating In Societal Event'
p85
sS'V'
g31
sa(dp86
S'A0'
p87
S'Member Resistance Movement participating In Societal Event'
p88
sS'V'
g32
sasS'pos_seq'
p89
(lp90
S'NNP'
p91
aS'NNP'
p92
aS'NNP'
p93
aS'VBG'
p94
aS'IN'
p95
aS'NNP'
p96
aS'NNP'
p97
aS'VBZ'
p98
aS':'
aS'VBD'
p99
aS'IN'
p100
asS'ner_seq'
p101
(lp102
S'O'
aS'B-MISC'
p103
aS'I-MISC'
p104
aS'I-MISC'
p105
aS'I-MISC'
p106
aS'I-MISC'
p107
aS'E-MISC'
p108
aS'O'
aS'O'
aS'O'
aS'O'
assb.