ccopy_reg
_reconstructor
p1
(c__main__
KBproperty
p2
c__builtin__
object
p3
NtRp4
(dp5
S'comment'
p6
S"percentage of a place's male population that is literate"
p7
sS'domain'
p8
S'Populated Place '
p9
sS'instances_count'
p10
I0
sS'phrases'
p11
NsS'syn_hypo'
p12
S''
sS'label'
p13
S'"percentage of a place\'s male population that is literate'
p14
sS'range'
p15
S'float '
p16
sS'uniq_subjs'
p17
S'0'
sS'uniq_objs'
p18
I0
sS'prop_uri'
p19
S'http://dbpedia.org/ontology/percentageLiteracyMen'
p20
sS'annotations'
p21
(dp22
S'bag_of_words'
p23
(lp24
S'Populated'
p25
aS'Place'
p26
aS'percentage'
p27
aS'Literacy'
p28
aS'Men'
p29
aS'float'
p30
aS'percentage'
p31
aS'of'
p32
aS'a'
aS'place'
p33
aS"'s"
p34
aS'male'
p35
aS'population'
p36
aS'that'
p37
aS'is'
p38
aS'literate'
p39
asS'chunk_seq'
p40
(lp41
S'B-NP'
p42
aS'I-NP'
p43
aS'I-NP'
p44
aS'I-NP'
p45
aS'E-NP'
p46
aS'S-VP'
p47
aS'S-NP'
p48
aS'S-PP'
p49
aS'B-NP'
p50
aS'E-NP'
p51
aS'B-NP'
p52
aS'I-NP'
p53
aS'E-NP'
p54
aS'S-NP'
p55
aS'S-VP'
p56
aS'S-ADJP'
p57
asS'dep_seq'
p58
(lp59
(lp60
S'amod'
p61
aS'5'
aS'1'
aa(lp62
S'nn'
p63
aS'5'
aS'2'
aa(lp64
S'nn'
p65
aS'5'
aS'3'
aa(lp66
S'nn'
p67
aS'5'
aS'4'
aa(lp68
S'nsubj'
p69
aS'6'
aS'5'
aa(lp70
S'root'
p71
aS'0'
aS'6'
aa(lp72
S'dobj'
p73
aS'6'
aS'7'
aa(lp74
S'det'
p75
aS'10'
p76
aS'9'
aa(lp77
S'poss'
p78
aS'13'
p79
aS'10'
p80
aa(lp81
S'amod'
p82
aS'13'
p83
aS'12'
p84
aa(lp85
S'prep_of'
p86
aS'7'
aS'13'
p87
aa(lp88
S'nsubj'
p89
aS'16'
p90
aS'13'
p91
aa(lp92
S'cop'
p93
aS'16'
p94
aS'15'
p95
aa(lp96
S'rcmod'
p97
aS'13'
p98
aS'16'
p99
aasS'srls'
p100
(lp101
(dp102
S'A1'
p103
S"percentage of a place 's male population that is literate"
p104
sS'A0'
p105
S'Populated Place percentage Literacy Men'
p106
sS'V'
g30
sasS'pos_seq'
p107
(lp108
S'JJ'
p109
aS'NN'
p110
aS'NN'
p111
aS'NNP'
p112
aS'NNP'
p113
aS'VBP'
p114
aS'NN'
p115
aS'IN'
p116
aS'DT'
p117
aS'NN'
p118
aS'POS'
p119
aS'JJ'
p120
aS'NN'
p121
aS'WDT'
p122
aS'VBZ'
p123
aS'JJ'
p124
asS'ner_seq'
p125
(lp126
S'O'
aS'O'
aS'O'
aS'O'
aS'O'
aS'O'
aS'O'
aS'O'
aS'O'
aS'O'
aS'O'
aS'O'
aS'O'
aS'O'
aS'O'
aS'O'
assb.