ccopy_reg
_reconstructor
p1
(c__main__
KBproperty
p2
c__builtin__
object
p3
NtRp4
(dp5
S'comment'
p6
S'A referral to the relevant system of law00'
p7
sS'domain'
p8
S'Legal Case '
p9
sS'instances_count'
p10
I0
sS'phrases'
p11
NsS'syn_hypo'
p12
S''
sS'label'
p13
S'system of law'
p14
sS'range'
p15
S'System Of Law '
p16
sS'uniq_subjs'
p17
S'0'
sS'uniq_objs'
p18
I0
sS'prop_uri'
p19
S'http://dbpedia.org/ontology/systemOfLaw'
p20
sS'annotations'
p21
(dp22
S'bag_of_words'
p23
(lp24
S'Legal'
p25
aS'Case'
p26
aS'system'
p27
aS'of'
p28
aS'law'
p29
aS'System'
p30
aS'Of'
p31
aS'Law'
p32
aS'A'
aS'referral'
p33
aS'to'
p34
aS'the'
p35
aS'relevant'
p36
aS'system'
p37
aS'of'
p38
aS'law00'
p39
asS'chunk_seq'
p40
(lp41
S'B-NP'
p42
aS'I-NP'
p43
aS'E-NP'
p44
aS'S-PP'
p45
aS'B-NP'
p46
aS'E-NP'
p47
aS'S-PP'
p48
aS'S-NP'
p49
aS'B-NP'
p50
aS'E-NP'
p51
aS'S-PP'
p52
aS'B-NP'
p53
aS'I-NP'
p54
aS'E-NP'
p55
aS'S-PP'
p56
aS'S-NP'
p57
asS'dep_seq'
p58
(lp59
(lp60
S'nn'
p61
aS'3'
aS'1'
aa(lp62
S'nn'
p63
aS'3'
aS'2'
aa(lp64
S'root'
p65
aS'0'
aS'3'
aa(lp66
S'nn'
p67
aS'6'
aS'5'
aa(lp68
S'prep_of'
p69
aS'3'
aS'6'
aa(lp70
S'prep_of'
p71
aS'6'
aS'8'
aa(lp72
S'det'
p73
aS'10'
p74
aS'9'
aa(lp75
S'dep'
p76
aS'3'
aS'10'
p77
aa(lp78
S'det'
p79
aS'14'
p80
aS'12'
p81
aa(lp82
S'amod'
p83
aS'14'
p84
aS'13'
p85
aa(lp86
S'prep_to'
p87
aS'3'
aS'14'
p88
aa(lp89
S'prep_of'
p90
aS'14'
p91
aS'16'
p92
aasS'srls'
p93
(lp94
sS'pos_seq'
p95
(lp96
S'NNP'
p97
aS'NNP'
p98
aS'NN'
p99
aS'IN'
p100
aS'NN'
p101
aS'NN'
p102
aS'IN'
p103
aS'NN'
p104
aS'DT'
p105
aS'NN'
p106
aS'TO'
p107
aS'DT'
p108
aS'JJ'
p109
aS'NN'
p110
aS'IN'
p111
aS'NN'
p112
asS'ner_seq'
p113
(lp114
S'O'
aS'O'
aS'O'
aS'O'
aS'O'
aS'B-ORG'
p115
aS'I-ORG'
p116
aS'E-ORG'
p117
aS'O'
aS'O'
aS'O'
aS'O'
aS'O'
aS'O'
aS'O'
aS'O'
assb.