ccopy_reg
_reconstructor
p1
(c__main__
KBproperty
p2
c__builtin__
object
p3
NtRp4
(dp5
S'comment'
p6
S'victory percentage as manager'
p7
sS'domain'
p8
S'Person '
p9
sS'instances_count'
p10
I0
sS'phrases'
p11
NsS'syn_hypo'
p12
S''
sS'label'
p13
g7
sS'range'
p14
S'double '
p15
sS'uniq_subjs'
p16
S'0'
sS'uniq_objs'
p17
I0
sS'prop_uri'
p18
S'http://dbpedia.org/ontology/victoryPercentageAsMgr'
p19
sS'annotations'
p20
(dp21
S'bag_of_words'
p22
(lp23
S'Person'
p24
aS'victory'
p25
aS'Percentage'
p26
aS'As'
p27
aS'Mgr'
p28
aS'double'
p29
aS'victory'
p30
aS'percentage'
p31
aS'as'
p32
aS'manager'
p33
asS'chunk_seq'
p34
(lp35
S'B-NP'
p36
aS'I-NP'
p37
aS'E-NP'
p38
aS'S-PP'
p39
aS'B-NP'
p40
aS'I-NP'
p41
aS'I-NP'
p42
aS'E-NP'
p43
aS'S-PP'
p44
aS'S-NP'
p45
asS'dep_seq'
p46
(lp47
(lp48
S'nn'
p49
aS'3'
aS'1'
aa(lp50
S'nn'
p51
aS'3'
aS'2'
aa(lp52
S'root'
p53
aS'0'
aS'3'
aa(lp54
S'nn'
p55
aS'8'
aS'5'
aa(lp56
S'amod'
p57
aS'8'
aS'6'
aa(lp58
S'nn'
p59
aS'8'
aS'7'
aa(lp60
S'prep_as'
p61
aS'3'
aS'8'
aa(lp62
S'prep_as'
p63
aS'3'
aS'10'
p64
aasS'srls'
p65
(lp66
sS'pos_seq'
p67
(lp68
S'NN'
p69
aS'NN'
p70
aS'NN'
p71
aS'IN'
p72
aS'NNP'
p73
aS'JJ'
p74
aS'NN'
p75
aS'NN'
p76
aS'IN'
p77
aS'NN'
p78
asS'ner_seq'
p79
(lp80
S'O'
aS'O'
aS'O'
aS'O'
aS'O'
aS'O'
aS'O'
aS'O'
aS'O'
aS'O'
assb.