ccopy_reg
_reconstructor
p1
(c__main__
KBproperty
p2
c__builtin__
object
p3
NtRp4
(dp5
S'comment'
p6
S'The parent broadcast network to which the broadcaster belongs.123438332'
p7
sS'domain'
p8
S'Broadcaster '
p9
sS'instances_count'
p10
I1504
sS'phrases'
p11
NsS'syn_hypo'
p12
S''
sS'label'
p13
S'broadcast network'
p14
sS'range'
p15
S'Broadcast Network '
p16
sS'uniq_subjs'
p17
S'1504'
p18
sS'uniq_objs'
p19
I0
sS'prop_uri'
p20
S'http://dbpedia.org/ontology/broadcastNetwork'
p21
sS'annotations'
p22
(dp23
S'bag_of_words'
p24
(lp25
S'Broadcaster'
p26
aS'broadcast'
p27
aS'network'
p28
aS'Broadcast'
p29
aS'Network'
p30
aS'The'
p31
aS'parent'
p32
aS'broadcast'
p33
aS'network'
p34
aS'to'
p35
aS'which'
p36
aS'the'
p37
aS'broadcaster'
p38
aS'belongs.123438332'
p39
asS'chunk_seq'
p40
(lp41
S'B-NP'
p42
aS'I-NP'
p43
aS'I-NP'
p44
aS'I-NP'
p45
aS'E-NP'
p46
aS'B-NP'
p47
aS'I-NP'
p48
aS'I-NP'
p49
aS'E-NP'
p50
aS'S-PP'
p51
aS'S-NP'
p52
aS'B-NP'
p53
aS'E-NP'
p54
aS'S-ADJP'
p55
asS'dep_seq'
p56
(lp57
(lp58
S'nn'
p59
aS'9'
aS'1'
aa(lp60
S'nn'
p61
aS'9'
aS'2'
aa(lp62
S'nn'
p63
aS'9'
aS'3'
aa(lp64
S'nn'
p65
aS'9'
aS'4'
aa(lp66
S'nn'
p67
aS'9'
aS'5'
aa(lp68
S'det'
p69
aS'9'
aS'6'
aa(lp70
S'nn'
p71
aS'9'
aS'7'
aa(lp72
S'nn'
p73
aS'9'
aS'8'
aa(lp74
S'root'
p75
aS'0'
aS'9'
aa(lp76
S'prep_to'
p77
aS'13'
p78
aS'11'
p79
aa(lp80
S'det'
p81
aS'13'
p82
aS'12'
p83
aa(lp84
S'prep'
p85
aS'9'
aS'13'
p86
aa(lp87
S'punct'
p88
aS'13'
p89
aS'14'
p90
aasS'srls'
p91
(lp92
sS'pos_seq'
p93
(lp94
S'NN'
p95
aS'NN'
p96
aS'NN'
p97
aS'NNP'
p98
aS'NNP'
p99
aS'DT'
p100
aS'NN'
p101
aS'NN'
p102
aS'NN'
p103
aS'TO'
p104
aS'WDT'
p105
aS'DT'
p106
aS'NN'
p107
aS'.'
asS'ner_seq'
p108
(lp109
S'O'
aS'O'
aS'O'
aS'B-MISC'
p110
aS'I-MISC'
p111
aS'E-MISC'
p112
aS'O'
aS'O'
aS'O'
aS'O'
aS'O'
aS'O'
aS'O'
aS'O'
assb.