ccopy_reg
_reconstructor
p1
(c__main__
KBproperty
p2
c__builtin__
object
p3
NtRp4
(dp5
S'comment'
p6
S'00'
p7
sS'domain'
p8
S'Person '
p9
sS'instances_count'
p10
I0
sS'phrases'
p11
(lp12
S' where;die'
p13
aS' place of death'
p14
aS' where;died'
p15
aS' where; killed'
p16
aS' where ; murder'
p17
aS' where ; murdered\n'
p18
asS'syn_hypo'
p19
S''
sS'label'
p20
S'death place'
p21
sS'range'
p22
S'Sports Event '
p23
sS'uniq_subjs'
p24
S'0'
sS'uniq_objs'
p25
I0
sS'prop_uri'
p26
S'http://dbpedia.org/ontology/competitionTitle'
p27
sS'annotations'
p28
(dp29
S'bag_of_words'
p30
(lp31
S'Person'
p32
aS'death'
p33
aS'place'
p34
aS'Sports'
p35
aS'Event'
p36
aS'00'
p37
asS'chunk_seq'
p38
(lp39
S'B-NP'
p40
aS'I-NP'
p41
aS'I-NP'
p42
aS'I-NP'
p43
aS'E-NP'
p44
aS'S-ADVP'
p45
asS'dep_seq'
p46
(lp47
(lp48
S'nn'
p49
aS'3'
aS'1'
aa(lp50
S'nn'
p51
aS'3'
aS'2'
aa(lp52
S'dep'
p53
aS'5'
aS'3'
aa(lp54
S'nn'
p55
aS'5'
aS'4'
aa(lp56
S'root'
p57
aS'0'
aS'5'
aa(lp58
S'num'
p59
aS'5'
aS'6'
aasS'srls'
p60
(lp61
sS'pos_seq'
p62
(lp63
S'NN'
p64
aS'NN'
p65
aS'NN'
p66
aS'NNP'
p67
aS'NNP'
p68
aS'CD'
p69
asS'ner_seq'
p70
(lp71
S'O'
aS'O'
aS'O'
aS'O'
aS'O'
aS'O'
assb.