ccopy_reg
_reconstructor
p1
(c__main__
KBproperty
p2
c__builtin__
object
p3
NtRp4
(dp5
S'comment'
p6
S'769768'
p7
sS'domain'
p8
S'Formula One Racer '
p9
sS'instances_count'
p10
I331
sS'phrases'
p11
NsS'syn_hypo'
p12
S''
sS'label'
p13
S'last race'
p14
sS'range'
p15
S'Grand Prix '
p16
sS'uniq_subjs'
p17
S'331'
p18
sS'uniq_objs'
p19
I0
sS'prop_uri'
p20
S'http://dbpedia.org/ontology/lastRace'
p21
sS'annotations'
p22
(dp23
S'bag_of_words'
p24
(lp25
S'Formula'
p26
aS'One'
p27
aS'Racer'
p28
aS'last'
p29
aS'race'
p30
aS'Grand'
p31
aS'Prix'
p32
aS'769768'
p33
asS'chunk_seq'
p34
(lp35
S'B-NP'
p36
aS'I-NP'
p37
aS'E-NP'
p38
aS'B-NP'
p39
aS'I-NP'
p40
aS'I-NP'
p41
aS'E-NP'
p42
aS'O'
asS'dep_seq'
p43
(lp44
(lp45
S'root'
p46
aS'0'
aS'1'
aa(lp47
S'num'
p48
aS'3'
aS'2'
aa(lp49
S'iobj'
p50
aS'1'
aS'3'
aa(lp51
S'amod'
p52
aS'7'
aS'4'
aa(lp53
S'nn'
p54
aS'7'
aS'5'
aa(lp55
S'nn'
p56
aS'7'
aS'6'
aa(lp57
S'dobj'
p58
aS'1'
aS'7'
aa(lp59
S'punct'
p60
aS'7'
aS'8'
aasS'srls'
p61
(lp62
sS'pos_seq'
p63
(lp64
S'NN'
p65
aS'CD'
p66
aS'NNP'
p67
aS'JJ'
p68
aS'NN'
p69
aS'NNP'
p70
aS'NNP'
p71
aS'.'
asS'ner_seq'
p72
(lp73
S'O'
aS'O'
aS'O'
aS'O'
aS'O'
aS'B-MISC'
p74
aS'E-MISC'
p75
aS'O'
assb.