ccopy_reg
_reconstructor
p1
(c__main__
KBproperty
p2
c__builtin__
object
p3
NtRp4
(dp5
S'comment'
p6
S'winner of a competition13911313'
p7
sS'domain'
p8
S'Sports Event '
p9
sS'instances_count'
p10
I759
sS'phrases'
p11
NsS'syn_hypo'
p12
Vrecord-breakerchampionchamptitle-holderrecord-holder
p13
sS'label'
p14
S'champion'
p15
sS'range'
p16
S'Athlete '
p17
sS'uniq_subjs'
p18
S'759'
p19
sS'uniq_objs'
p20
I0
sS'prop_uri'
p21
S'http://dbpedia.org/ontology/champion'
p22
sS'annotations'
p23
(dp24
S'bag_of_words'
p25
(lp26
S'Sports'
p27
aS'Event'
p28
aS'champion'
p29
aS'Athlete'
p30
aS'winner'
p31
aS'of'
p32
aS'a'
aS'competition13911313'
p33
asS'chunk_seq'
p34
(lp35
S'B-NP'
p36
aS'I-NP'
p37
aS'I-NP'
p38
aS'I-NP'
p39
aS'E-NP'
p40
aS'S-PP'
p41
aS'B-NP'
p42
aS'E-NP'
p43
asS'dep_seq'
p44
(lp45
(lp46
S'nn'
p47
aS'5'
aS'1'
aa(lp48
S'nn'
p49
aS'5'
aS'2'
aa(lp50
S'nn'
p51
aS'5'
aS'3'
aa(lp52
S'nn'
p53
aS'5'
aS'4'
aa(lp54
S'root'
p55
aS'0'
aS'5'
aa(lp56
S'det'
p57
aS'8'
aS'7'
aa(lp58
S'prep_of'
p59
aS'5'
aS'8'
aasS'srls'
p60
(lp61
sS'pos_seq'
p62
(lp63
S'NNS'
p64
aS'NN'
p65
aS'NN'
p66
aS'NN'
p67
aS'NN'
p68
aS'IN'
p69
aS'DT'
p70
aS'NN'
p71
asS'ner_seq'
p72
(lp73
S'O'
aS'O'
aS'O'
aS'O'
aS'O'
aS'O'
aS'O'
aS'O'
assb.