ccopy_reg
_reconstructor
p1
(c__main__
KBproperty
p2
c__builtin__
object
p3
NtRp4
(dp5
S'comment'
p6
S'indicates another place situated around outside.00'
p7
sS'domain'
p8
S'Place '
p9
sS'instances_count'
p10
I0
sS'phrases'
p11
NsS'syn_hypo'
p12
S''
sS'label'
p13
S'has outside place'
p14
sS'range'
p15
S'Place '
p16
sS'uniq_subjs'
p17
S'0'
sS'uniq_objs'
p18
I0
sS'prop_uri'
p19
S'http://dbpedia.org/ontology/hasOutsidePlace'
p20
sS'annotations'
p21
(dp22
S'bag_of_words'
p23
(lp24
S'Place'
p25
aS'has'
p26
aS'outside'
p27
aS'place'
p28
aS'Place'
p29
aS'indicates'
p30
aS'another'
p31
aS'place'
p32
aS'situated'
p33
aS'around'
p34
aS'outside.00'
p35
asS'chunk_seq'
p36
(lp37
S'S-NP'
p38
aS'S-VP'
p39
aS'B-NP'
p40
aS'I-NP'
p41
aS'E-NP'
p42
aS'S-VP'
p43
aS'B-NP'
p44
aS'E-NP'
p45
aS'S-VP'
p46
aS'S-PP'
p47
aS'S-NP'
p48
asS'dep_seq'
p49
(lp50
(lp51
S'nsubj'
p52
aS'2'
aS'1'
aa(lp53
S'root'
p54
aS'0'
aS'2'
aa(lp55
S'amod'
p56
aS'5'
aS'3'
aa(lp57
S'nn'
p58
aS'5'
aS'4'
aa(lp59
S'nsubj'
p60
aS'6'
aS'5'
aa(lp61
S'ccomp'
p62
aS'2'
aS'6'
aa(lp63
S'det'
p64
aS'8'
aS'7'
aa(lp65
S'dobj'
p66
aS'6'
aS'8'
aa(lp67
S'partmod'
p68
aS'8'
aS'9'
aa(lp69
S'prep_around'
p70
aS'9'
aS'11'
p71
aasS'srls'
p72
(lp73
(dp74
S'A1'
p75
S'outside place Place indicates another place situated around outside.00'
p76
sS'A0'
p77
g25
sS'V'
g26
sa(dp78
S'A1'
p79
S'another place situated around outside.00'
p80
sS'A0'
p81
S'Place has outside place Place'
p82
sS'V'
g30
sa(dp83
S'A1'
p84
S'another place'
p85
sS'A2'
p86
S'around outside.00'
p87
sS'V'
g33
sasS'pos_seq'
p88
(lp89
S'NN'
p90
aS'VBZ'
p91
aS'JJ'
p92
aS'NN'
p93
aS'NN'
p94
aS'VBZ'
p95
aS'DT'
p96
aS'NN'
p97
aS'VBN'
p98
aS'IN'
p99
aS'NN'
p100
asS'ner_seq'
p101
(lp102
S'O'
aS'O'
aS'O'
aS'O'
aS'O'
aS'O'
aS'O'
aS'O'
aS'O'
aS'O'
aS'O'
assb.