ccopy_reg
_reconstructor
p1
(c__main__
KBproperty
p2
c__builtin__
object
p3
NtRp4
(dp5
S'comment'
p6
S'In chemistry a group also known as a family is a column of elements in the periodic table of the chemical elements.00'
p7
sS'domain'
p8
S'Chemical Element '
p9
sS'instances_count'
p10
I0
sS'phrases'
p11
NsS'syn_hypo'
p12
S''
sS'label'
p13
S'element group'
p14
sS'range'
p15
S'non Negative Integer '
p16
sS'uniq_subjs'
p17
S'0'
sS'uniq_objs'
p18
I0
sS'prop_uri'
p19
S'http://dbpedia.org/ontology/elementGroup'
p20
sS'annotations'
p21
(dp22
S'bag_of_words'
p23
(lp24
S'Chemical'
p25
aS'Element'
p26
aS'element'
p27
aS'group'
p28
aS'non'
p29
aS'Negative'
p30
aS'Integer'
p31
aS'In'
p32
aS'chemistry'
p33
aS'a'
aS'group'
p34
aS'also'
p35
aS'known'
p36
aS'as'
p37
aS'a'
aS'family'
p38
aS'is'
p39
aS'a'
aS'column'
p40
aS'of'
p41
aS'elements'
p42
aS'in'
p43
aS'the'
p44
aS'periodic'
p45
aS'table'
p46
aS'of'
p47
aS'the'
p48
aS'chemical'
p49
aS'elements.00'
p50
asS'chunk_seq'
p51
(lp52
S'B-NP'
p53
aS'I-NP'
p54
aS'I-NP'
p55
aS'E-NP'
p56
aS'B-NP'
p57
aS'I-NP'
p58
aS'E-NP'
p59
aS'S-PP'
p60
aS'S-NP'
p61
aS'B-NP'
p62
aS'E-NP'
p63
aS'S-ADVP'
p64
aS'S-VP'
p65
aS'S-PP'
p66
aS'B-NP'
p67
aS'E-NP'
p68
aS'S-VP'
p69
aS'B-NP'
p70
aS'E-NP'
p71
aS'S-PP'
p72
aS'S-NP'
p73
aS'S-PP'
p74
aS'B-NP'
p75
aS'I-NP'
p76
aS'E-NP'
p77
aS'S-PP'
p78
aS'B-NP'
p79
aS'I-NP'
p80
aS'E-NP'
p81
asS'dep_seq'
p82
(lp83
(lp84
S'nn'
p85
aS'4'
aS'1'
aa(lp86
S'nn'
p87
aS'4'
aS'2'
aa(lp88
S'nn'
p89
aS'4'
aS'3'
aa(lp90
S'nn'
p91
aS'7'
aS'4'
aa(lp92
S'advmod'
p93
aS'6'
aS'5'
aa(lp94
S'amod'
p95
aS'7'
aS'6'
aa(lp96
S'nsubj'
p97
aS'19'
p98
aS'7'
aa(lp99
S'prep_in'
p100
aS'7'
aS'9'
aa(lp101
S'det'
p102
aS'11'
p103
aS'10'
p104
aa(lp105
S'dep'
p106
aS'7'
aS'11'
p107
aa(lp108
S'advmod'
p109
aS'13'
p110
aS'12'
p111
aa(lp112
S'partmod'
p113
aS'11'
p114
aS'13'
p115
aa(lp116
S'det'
p117
aS'16'
p118
aS'15'
p119
aa(lp120
S'prep_as'
p121
aS'13'
p122
aS'16'
p123
aa(lp124
S'cop'
p125
aS'19'
p126
aS'17'
p127
aa(lp128
S'det'
p129
aS'19'
p130
aS'18'
p131
aa(lp132
S'root'
p133
aS'0'
aS'19'
p134
aa(lp135
S'prep_of'
p136
aS'19'
p137
aS'21'
p138
aa(lp139
S'det'
p140
aS'25'
p141
aS'23'
p142
aa(lp143
S'amod'
p144
aS'25'
p145
aS'24'
p146
aa(lp147
S'prep_in'
p148
aS'21'
p149
aS'25'
p150
aa(lp151
S'det'
p152
aS'29'
p153
aS'27'
p154
aa(lp155
S'nn'
p156
aS'29'
p157
aS'28'
p158
aa(lp159
S'prep_of'
p160
aS'25'
p161
aS'29'
p162
aasS'srls'
p163
(lp164
(dp165
S'A1'
p166
g33
sS'A0'
p167
S'a group'
p168
sS'AM-DIS'
p169
g35
sS'A2'
p170
S'as a family'
p171
sS'V'
g36
sasS'pos_seq'
p172
(lp173
S'NNP'
p174
aS'NNP'
p175
aS'NN'
p176
aS'NN'
p177
aS'RB'
p178
aS'JJ'
p179
aS'NN'
p180
aS'IN'
p181
aS'NN'
p182
aS'DT'
p183
aS'NN'
p184
aS'RB'
p185
aS'VBN'
p186
aS'IN'
p187
aS'DT'
p188
aS'NN'
p189
aS'VBZ'
p190
aS'DT'
p191
aS'NN'
p192
aS'IN'
p193
aS'NNS'
p194
aS'IN'
p195
aS'DT'
p196
aS'JJ'
p197
aS'NN'
p198
aS'IN'
p199
aS'DT'
p200
aS'NN'
p201
aS'NN'
p202
asS'ner_seq'
p203
(lp204
S'O'
aS'O'
aS'O'
aS'O'
aS'O'
aS'O'
aS'O'
aS'O'
aS'O'
aS'O'
aS'O'
aS'O'
aS'O'
aS'O'
aS'O'
aS'O'
aS'O'
aS'O'
aS'O'
aS'O'
aS'O'
aS'O'
aS'O'
aS'O'
aS'O'
aS'O'
aS'O'
aS'O'
aS'O'
assb.