ccopy_reg
_reconstructor
p1
(c__main__
KBproperty
p2
c__builtin__
object
p3
NtRp4
(dp5
S'comment'
p6
S'track length \\xce\\xbc'
p7
sS'domain'
p8
S'Route Of Transportation '
p9
sS'instances_count'
p10
I570
sS'phrases'
p11
NsS'syn_hypo'
p12
S''
sS'label'
p13
g7
sS'range'
p14
S'double '
p15
sS'uniq_subjs'
p16
S'570'
p17
sS'uniq_objs'
p18
I0
sS'prop_uri'
p19
S'http://dbpedia.org/ontology/trackLength'
p20
sS'annotations'
p21
(dp22
S'bag_of_words'
p23
(lp24
S'Route'
p25
aS'Of'
p26
aS'Transportation'
p27
aS'track'
p28
aS'Length'
p29
aS'double'
p30
aS'track'
p31
aS'length'
p32
aS'\\'
aS'xce'
p33
aS'\\'
aS'xbc'
p34
asS'chunk_seq'
p35
(lp36
S'S-NP'
p37
aS'S-PP'
p38
aS'B-NP'
p39
aS'I-NP'
p40
aS'I-NP'
p41
aS'I-NP'
p42
aS'I-NP'
p43
aS'E-NP'
p44
aS'O'
aS'O'
aS'O'
aS'O'
asS'dep_seq'
p45
(lp46
(lp47
S'dep'
p48
aS'5'
aS'1'
aa(lp49
S'prep_of'
p50
aS'1'
aS'3'
aa(lp51
S'nn'
p52
aS'5'
aS'4'
aa(lp53
S'root'
p54
aS'0'
aS'5'
aa(lp55
S'dobj'
p56
aS'9'
aS'5'
aa(lp57
S'amod'
p58
aS'8'
aS'6'
aa(lp59
S'nn'
p60
aS'8'
aS'7'
aa(lp61
S'nsubj'
p62
aS'9'
aS'8'
aa(lp63
S'rcmod'
p64
aS'5'
aS'9'
aa(lp65
S'discourse'
p66
aS'9'
aS'10'
p67
aa(lp68
S'dep'
p69
aS'10'
p70
aS'11'
p71
aa(lp72
S'dep'
p73
aS'10'
p74
aS'12'
p75
aasS'srls'
p76
(lp77
sS'pos_seq'
p78
(lp79
S'NNP'
p80
aS'IN'
p81
aS'NNP'
p82
aS'NN'
p83
aS'NN'
p84
aS'JJ'
p85
aS'NN'
p86
aS'NN'
p87
aS'FW'
p88
aS'FW'
p89
aS'FW'
p90
aS'FW'
p91
asS'ner_seq'
p92
(lp93
S'B-ORG'
p94
aS'I-ORG'
p95
aS'E-ORG'
p96
aS'O'
aS'O'
aS'O'
aS'O'
aS'O'
aS'O'
aS'O'
aS'O'
aS'O'
assb.