ccopy_reg
_reconstructor
p1
(c__main__
KBproperty
p2
c__builtin__
object
p3
NtRp4
(dp5
S'comment'
p6
S'CO2 emission g/km'
p7
sS'domain'
p8
S'Automobile Engine '
p9
sS'instances_count'
p10
I4
sS'phrases'
p11
NsS'syn_hypo'
p12
S''
sS'label'
p13
g7
sS'range'
p14
S'double '
p15
sS'uniq_subjs'
p16
S'4'
sS'uniq_objs'
p17
I0
sS'prop_uri'
p18
S'http://dbpedia.org/ontology/co2Emission'
p19
sS'annotations'
p20
(dp21
S'bag_of_words'
p22
(lp23
S'Automobile'
p24
aS'Engine'
p25
aS'co'
p26
aS'Emission'
p27
aS'double'
p28
aS'CO2'
p29
aS'emission'
p30
aS'g'
aS'/'
aS'km'
p31
asS'chunk_seq'
p32
(lp33
S'B-NP'
p34
aS'I-NP'
p35
aS'I-NP'
p36
aS'I-NP'
p37
aS'I-NP'
p38
aS'I-NP'
p39
aS'I-NP'
p40
aS'E-NP'
p41
aS'O'
aS'O'
asS'dep_seq'
p42
(lp43
(lp44
S'nn'
p45
aS'8'
aS'1'
aa(lp46
S'nn'
p47
aS'8'
aS'2'
aa(lp48
S'nn'
p49
aS'8'
aS'3'
aa(lp50
S'nn'
p51
aS'8'
aS'4'
aa(lp52
S'amod'
p53
aS'8'
aS'5'
aa(lp54
S'nn'
p55
aS'8'
aS'6'
aa(lp56
S'nn'
p57
aS'8'
aS'7'
aa(lp58
S'root'
p59
aS'0'
aS'8'
aa(lp60
S'punct'
p61
aS'8'
aS'9'
aa(lp62
S'punct'
p63
aS'8'
aS'10'
p64
aasS'srls'
p65
(lp66
sS'pos_seq'
p67
(lp68
S'NNP'
p69
aS'NNP'
p70
aS'NN'
p71
aS'NN'
p72
aS'JJ'
p73
aS'NN'
p74
aS'NN'
p75
aS'NN'
p76
aS':'
aS'.'
asS'ner_seq'
p77
(lp78
S'B-MISC'
p79
aS'I-MISC'
p80
aS'I-MISC'
p81
aS'I-MISC'
p82
aS'I-MISC'
p83
aS'E-MISC'
p84
aS'O'
aS'O'
aS'O'
aS'O'
assb.