ccopy_reg
_reconstructor
p1
(c__main__
KBproperty
p2
c__builtin__
object
p3
NtRp4
(dp5
S'comment'
p6
S'00'
p7
sS'domain'
p8
S'Ski Resort '
p9
sS'instances_count'
p10
I0
sS'phrases'
p11
NsS'syn_hypo'
p12
S''
sS'label'
p13
S'linked to'
p14
sS'range'
p15
S'Place '
p16
sS'uniq_subjs'
p17
S'0'
sS'uniq_objs'
p18
I0
sS'prop_uri'
p19
S'http://dbpedia.org/ontology/linkedTo'
p20
sS'annotations'
p21
(dp22
S'bag_of_words'
p23
(lp24
S'Ski'
p25
aS'Resort'
p26
aS'linked'
p27
aS'to'
p28
aS'Place'
p29
aS'00'
p30
asS'chunk_seq'
p31
(lp32
S'B-NP'
p33
aS'E-NP'
p34
aS'S-VP'
p35
aS'S-PP'
p36
aS'B-NP'
p37
aS'E-NP'
p38
asS'dep_seq'
p39
(lp40
(lp41
S'nn'
p42
aS'2'
aS'1'
aa(lp43
S'nsubj'
p44
aS'3'
aS'2'
aa(lp45
S'root'
p46
aS'0'
aS'3'
aa(lp47
S'prep_to'
p48
aS'3'
aS'5'
aa(lp49
S'dep'
p50
aS'3'
aS'6'
aasS'srls'
p51
(lp52
(dp53
S'A1'
p54
S'Ski Resort  to Place 00'
p55
sS'V'
g27
sa(dp56
S'A1'
p57
g30
sS'A0'
p58
S'Ski Resort'
p59
sS'V'
g29
sasS'pos_seq'
p60
(lp61
S'NNP'
p62
aS'NNP'
p63
aS'VBD'
p64
aS'TO'
p65
aS'VB'
p66
aS'CD'
p67
asS'ner_seq'
p68
(lp69
S'B-ORG'
p70
aS'E-ORG'
p71
aS'O'
aS'O'
aS'O'
aS'O'
assb.