ccopy_reg
_reconstructor
p1
(c__main__
KBproperty
p2
c__builtin__
object
p3
NtRp4
(dp5
S'comment'
p6
S'1390413170'
p7
sS'domain'
p8
S'Ship '
p9
sS'instances_count'
p10
I7995
sS'phrases'
p11
NsS'syn_hypo'
p12
S''
sS'label'
p13
S'commissioning date'
p14
sS'range'
p15
S'date '
p16
sS'uniq_subjs'
p17
S'7995'
p18
sS'uniq_objs'
p19
I0
sS'prop_uri'
p20
S'http://dbpedia.org/ontology/commissioningDate'
p21
sS'annotations'
p22
(dp23
S'bag_of_words'
p24
(lp25
S'Ship'
p26
aS'commissioning'
p27
aS'date'
p28
aS'date'
p29
aS'1390413170'
p30
asS'chunk_seq'
p31
(lp32
S'B-NP'
p33
aS'I-NP'
p34
aS'I-NP'
p35
aS'E-NP'
p36
aS'S-NP'
p37
asS'dep_seq'
p38
(lp39
(lp40
S'nn'
p41
aS'4'
aS'1'
aa(lp42
S'nn'
p43
aS'4'
aS'2'
aa(lp44
S'nn'
p45
aS'4'
aS'3'
aa(lp46
S'root'
p47
aS'0'
aS'4'
aa(lp48
S'dep'
p49
aS'4'
aS'5'
aasS'srls'
p50
(lp51
(dp52
S'A1'
p53
g26
sS'V'
g27
sasS'pos_seq'
p54
(lp55
S'NN'
p56
aS'NN'
p57
aS'NN'
p58
aS'NN'
p59
aS'CD'
p60
asS'ner_seq'
p61
(lp62
S'O'
aS'O'
aS'O'
aS'O'
aS'O'
assb.