ccopy_reg
_reconstructor
p1
(c__main__
KBproperty
p2
c__builtin__
object
p3
NtRp4
(dp5
S'comment'
p6
S'Nomenclature of Territorial Units for Statistics NUTS is a geocode  standard for referencing the subdivisions of countries  for statistical purposes. The standard is developed and regulated by the European Union and thus only covers the member states of the EU in detail.2020'
p7
sS'domain'
p8
S'Place '
p9
sS'instances_count'
p10
I20
sS'phrases'
p11
NsS'syn_hypo'
p12
S''
sS'label'
p13
S'NUTS code'
p14
sS'range'
p15
S'string '
p16
sS'uniq_subjs'
p17
S'5'
sS'uniq_objs'
p18
I0
sS'prop_uri'
p19
S'http://dbpedia.org/ontology/nutsCode'
p20
sS'annotations'
p21
(dp22
S'bag_of_words'
p23
(lp24
S'Place'
p25
aS'NUTS'
p26
aS'code'
p27
aS'string'
p28
aS'Nomenclature'
p29
aS'of'
p30
aS'Territorial'
p31
aS'Units'
p32
aS'for'
p33
aS'Statistics'
p34
aS'NUTS'
p35
aS'is'
p36
aS'a'
aS'geocode'
p37
aS'standard'
p38
aS'for'
p39
aS'referencing'
p40
aS'the'
p41
aS'subdivisions'
p42
aS'of'
p43
aS'countries'
p44
aS'for'
p45
aS'statistical'
p46
aS'purposes'
p47
aS'.'
aS'The'
p48
aS'standard'
p49
aS'is'
p50
aS'developed'
p51
aS'and'
p52
aS'regulated'
p53
aS'by'
p54
aS'the'
p55
aS'European'
p56
aS'Union'
p57
aS'and'
p58
aS'thus'
p59
aS'only'
p60
aS'covers'
p61
aS'the'
p62
aS'member'
p63
aS'states'
p64
aS'of'
p65
aS'the'
p66
aS'EU'
p67
aS'in'
p68
aS'detail.2020'
p69
asS'chunk_seq'
p70
(lp71
S'B-NP'
p72
aS'I-NP'
p73
aS'I-NP'
p74
aS'I-NP'
p75
aS'E-NP'
p76
aS'S-PP'
p77
aS'B-NP'
p78
aS'E-NP'
p79
aS'S-PP'
p80
aS'B-NP'
p81
aS'E-NP'
p82
aS'S-VP'
p83
aS'B-NP'
p84
aS'I-NP'
p85
aS'E-NP'
p86
aS'S-PP'
p87
aS'S-VP'
p88
aS'B-NP'
p89
aS'E-NP'
p90
aS'S-PP'
p91
aS'S-NP'
p92
aS'S-PP'
p93
aS'B-NP'
p94
aS'E-NP'
p95
aS'O'
aS'B-NP'
p96
aS'E-NP'
p97
aS'B-VP'
p98
aS'E-VP'
p99
aS'O'
aS'S-VP'
p100
aS'S-PP'
p101
aS'B-NP'
p102
aS'I-NP'
p103
aS'E-NP'
p104
aS'O'
aS'B-CONJP'
p105
aS'E-CONJP'
p106
aS'S-VP'
p107
aS'B-NP'
p108
aS'I-NP'
p109
aS'E-NP'
p110
aS'S-PP'
p111
aS'B-NP'
p112
aS'E-NP'
p113
aS'S-PP'
p114
aS'S-NP'
p115
asS'dep_seq'
p116
(lp117
(lp118
S'nn'
p119
aS'5'
aS'1'
aa(lp120
S'nn'
p121
aS'5'
aS'2'
aa(lp122
S'nn'
p123
aS'5'
aS'3'
aa(lp124
S'nn'
p125
aS'5'
aS'4'
aa(lp126
S'nsubj'
p127
aS'15'
p128
aS'5'
aa(lp129
S'nn'
p130
aS'8'
aS'7'
aa(lp131
S'prep_of'
p132
aS'5'
aS'8'
aa(lp133
S'nn'
p134
aS'11'
p135
aS'10'
p136
aa(lp137
S'prep_for'
p138
aS'5'
aS'11'
p139
aa(lp140
S'cop'
p141
aS'15'
p142
aS'12'
p143
aa(lp144
S'det'
p145
aS'15'
p146
aS'13'
p147
aa(lp148
S'amod'
p149
aS'15'
p150
aS'14'
p151
aa(lp152
S'root'
p153
aS'0'
aS'15'
p154
aa(lp155
S'prepc_for'
p156
aS'15'
p157
aS'17'
p158
aa(lp159
S'det'
p160
aS'19'
p161
aS'18'
p162
aa(lp163
S'dobj'
p164
aS'17'
p165
aS'19'
p166
aa(lp167
S'prep_of'
p168
aS'19'
p169
aS'21'
p170
aa(lp171
S'amod'
p172
aS'24'
p173
aS'23'
p174
aa(lp175
S'prep_for'
p176
aS'21'
p177
aS'24'
p178
aa(lp179
S'det'
p180
aS'27'
p181
aS'26'
p182
aa(lp183
S'nsubjpass'
p184
aS'29'
p185
aS'27'
p186
aa(lp187
S'auxpass'
p188
aS'29'
p189
aS'28'
p190
aa(lp191
S'dep'
p192
aS'15'
p193
aS'29'
p194
aa(lp195
S'conj_and'
p196
aS'29'
p197
aS'31'
p198
aa(lp199
S'det'
p200
aS'35'
p201
aS'33'
p202
aa(lp203
S'nn'
p204
aS'35'
p205
aS'34'
p206
aa(lp207
S'agent'
p208
aS'29'
p209
aS'35'
p210
aa(lp211
S'advmod'
p212
aS'39'
p213
aS'37'
p214
aa(lp215
S'advmod'
p216
aS'39'
p217
aS'38'
p218
aa(lp219
S'conj_and'
p220
aS'15'
p221
aS'39'
p222
aa(lp223
S'det'
p224
aS'42'
p225
aS'40'
p226
aa(lp227
S'nn'
p228
aS'42'
p229
aS'41'
p230
aa(lp231
S'dobj'
p232
aS'39'
p233
aS'42'
p234
aa(lp235
S'det'
p236
aS'45'
p237
aS'44'
p238
aa(lp239
S'prep_of'
p240
aS'42'
p241
aS'45'
p242
aa(lp243
S'prep_in'
p244
aS'15'
p245
aS'47'
p246
aasS'srls'
p247
(lp248
(dp249
S'A1'
p250
S'the subdivisions of countries'
p251
sS'A2'
p252
S'for statistical purposes'
p253
sS'V'
g40
sa(dp254
S'A1'
p255
S'The standard'
p256
sS'A0'
p257
S'by the European Union'
p258
sS'V'
g53
sa(dp259
S'AM-ADV'
p260
g60
sS'A1'
p261
S'the member states of the EU in detail.2020'
p262
sS'A2'
p263
S'Place NUTS code string Nomenclature of Territorial Units for Statistics NUTS  The standard'
p264
sS'AM-DIS'
p265
g59
sS'V'
g61
sasS'pos_seq'
p266
(lp267
S'NNP'
p268
aS'NNP'
p269
aS'NN'
p270
aS'NN'
p271
aS'NN'
p272
aS'IN'
p273
aS'NNP'
p274
aS'NNPS'
p275
aS'IN'
p276
aS'NNP'
p277
aS'NNP'
p278
aS'VBZ'
p279
aS'DT'
p280
aS'JJ'
p281
aS'NN'
p282
aS'IN'
p283
aS'VBG'
p284
aS'DT'
p285
aS'NNS'
p286
aS'IN'
p287
aS'NNS'
p288
aS'IN'
p289
aS'JJ'
p290
aS'NNS'
p291
aS'.'
aS'DT'
p292
aS'NN'
p293
aS'VBZ'
p294
aS'VBN'
p295
aS'CC'
p296
aS'VBN'
p297
aS'IN'
p298
aS'DT'
p299
aS'NNP'
p300
aS'NNP'
p301
aS'CC'
p302
aS'RB'
p303
aS'RB'
p304
aS'VBZ'
p305
aS'DT'
p306
aS'NN'
p307
aS'NNS'
p308
aS'IN'
p309
aS'DT'
p310
aS'NNP'
p311
aS'IN'
p312
aS'NN'
p313
asS'ner_seq'
p314
(lp315
S'O'
aS'O'
aS'O'
aS'O'
aS'O'
aS'O'
aS'O'
aS'O'
aS'O'
aS'B-MISC'
p316
aS'E-MISC'
p317
aS'O'
aS'O'
aS'O'
aS'O'
aS'O'
aS'O'
aS'O'
aS'O'
aS'O'
aS'O'
aS'O'
aS'O'
aS'O'
aS'O'
aS'O'
aS'O'
aS'O'
aS'O'
aS'O'
aS'O'
aS'O'
aS'O'
aS'B-ORG'
p318
aS'E-ORG'
p319
aS'O'
aS'O'
aS'O'
aS'O'
aS'O'
aS'O'
aS'O'
aS'O'
aS'O'
aS'S-ORG'
p320
aS'O'
aS'O'
assb.