ccopy_reg
_reconstructor
p1
(c__main__
KBproperty
p2
c__builtin__
object
p3
NtRp4
(dp5
S'comment'
p6
S'00'
p7
sS'domain'
p8
S'Populated Place '
p9
sS'instances_count'
p10
I0
sS'phrases'
p11
NsS'syn_hypo'
p12
S''
sS'label'
p13
S'purchasing power parity rank'
p14
sS'range'
p15
S'string '
p16
sS'uniq_subjs'
p17
S'0'
sS'uniq_objs'
p18
I0
sS'prop_uri'
p19
S'http://dbpedia.org/ontology/purchasingPowerParityRank'
p20
sS'annotations'
p21
(dp22
S'bag_of_words'
p23
(lp24
S'Populated'
p25
aS'Place'
p26
aS'purchasing'
p27
aS'power'
p28
aS'parity'
p29
aS'rank'
p30
aS'string'
p31
aS'00'
p32
asS'chunk_seq'
p33
(lp34
S'B-NP'
p35
aS'E-NP'
p36
aS'S-VP'
p37
aS'B-NP'
p38
aS'I-NP'
p39
aS'I-NP'
p40
aS'E-NP'
p41
aS'S-ADVP'
p42
asS'dep_seq'
p43
(lp44
(lp45
S'amod'
p46
aS'7'
aS'1'
aa(lp47
S'nn'
p48
aS'7'
aS'2'
aa(lp49
S'amod'
p50
aS'7'
aS'3'
aa(lp51
S'nn'
p52
aS'7'
aS'4'
aa(lp53
S'nn'
p54
aS'7'
aS'5'
aa(lp55
S'nn'
p56
aS'7'
aS'6'
aa(lp57
S'root'
p58
aS'0'
aS'7'
aa(lp59
S'dep'
p60
aS'7'
aS'8'
aasS'srls'
p61
(lp62
(dp63
S'A1'
p64
S'power parity rank string 00'
p65
sS'A0'
p66
S'Populated Place'
p67
sS'V'
g27
sasS'pos_seq'
p68
(lp69
S'JJ'
p70
aS'NN'
p71
aS'VBG'
p72
aS'NN'
p73
aS'NN'
p74
aS'NN'
p75
aS'NN'
p76
aS'CD'
p77
asS'ner_seq'
p78
(lp79
S'O'
aS'O'
aS'O'
aS'O'
aS'O'
aS'O'
aS'O'
aS'O'
assb.