ccopy_reg
_reconstructor
p1
(c__main__
KBproperty
p2
c__builtin__
object
p3
NtRp4
(dp5
S'comment'
p6
S'date of acquirement'
p7
sS'domain'
p8
S'Ship '
p9
sS'instances_count'
p10
I3636
sS'phrases'
p11
NsS'syn_hypo'
p12
S''
sS'label'
p13
g7
sS'range'
p14
S'date '
p15
sS'uniq_subjs'
p16
S'3636'
p17
sS'uniq_objs'
p18
I0
sS'prop_uri'
p19
S'http://dbpedia.org/ontology/acquirementDate'
p20
sS'annotations'
p21
(dp22
S'bag_of_words'
p23
(lp24
S'Ship'
p25
aS'acquirement'
p26
aS'Date'
p27
aS'date'
p28
aS'date'
p29
aS'of'
p30
aS'acquirement'
p31
asS'chunk_seq'
p32
(lp33
S'B-NP'
p34
aS'I-NP'
p35
aS'I-NP'
p36
aS'E-NP'
p37
aS'S-NP'
p38
aS'S-PP'
p39
aS'S-NP'
p40
asS'dep_seq'
p41
(lp42
(lp43
S'nn'
p44
aS'5'
aS'1'
aa(lp45
S'nn'
p46
aS'5'
aS'2'
aa(lp47
S'nn'
p48
aS'5'
aS'3'
aa(lp49
S'nn'
p50
aS'5'
aS'4'
aa(lp51
S'root'
p52
aS'0'
aS'5'
aa(lp53
S'prep_of'
p54
aS'5'
aS'7'
aasS'srls'
p55
(lp56
sS'pos_seq'
p57
(lp58
S'NN'
p59
aS'NN'
p60
aS'NN'
p61
aS'NN'
p62
aS'NN'
p63
aS'IN'
p64
aS'NN'
p65
asS'ner_seq'
p66
(lp67
S'O'
aS'O'
aS'O'
aS'O'
aS'O'
aS'O'
aS'O'
assb.