ccopy_reg
_reconstructor
p1
(c__main__
KBproperty
p2
c__builtin__
object
p3
NtRp4
(dp5
S'comment'
p6
S'00'
p7
sS'domain'
p8
S'Soccer Player '
p9
sS'instances_count'
p10
I0
sS'phrases'
p11
NsS'syn_hypo'
p12
S''
sS'label'
p13
S'goals in national team'
p14
sS'range'
p15
S'non Negative Integer '
p16
sS'uniq_subjs'
p17
S'0'
sS'uniq_objs'
p18
I0
sS'prop_uri'
p19
S'http://dbpedia.org/ontology/goalsInNationalTeam'
p20
sS'annotations'
p21
(dp22
S'bag_of_words'
p23
(lp24
S'Soccer'
p25
aS'Player'
p26
aS'goals'
p27
aS'in'
p28
aS'national'
p29
aS'team'
p30
aS'non'
p31
aS'Negative'
p32
aS'Integer'
p33
aS'00'
p34
asS'chunk_seq'
p35
(lp36
S'B-NP'
p37
aS'I-NP'
p38
aS'E-NP'
p39
aS'S-PP'
p40
aS'B-NP'
p41
aS'E-NP'
p42
aS'B-NP'
p43
aS'I-NP'
p44
aS'E-NP'
p45
aS'O'
asS'dep_seq'
p46
(lp47
(lp48
S'nn'
p49
aS'3'
aS'1'
aa(lp50
S'nn'
p51
aS'3'
aS'2'
aa(lp52
S'dep'
p53
aS'9'
aS'3'
aa(lp54
S'amod'
p55
aS'6'
aS'5'
aa(lp56
S'prep_in'
p57
aS'3'
aS'6'
aa(lp58
S'amod'
p59
aS'9'
aS'7'
aa(lp60
S'nn'
p61
aS'9'
aS'8'
aa(lp62
S'root'
p63
aS'0'
aS'9'
aa(lp64
S'num'
p65
aS'9'
aS'10'
p66
aasS'srls'
p67
(lp68
sS'pos_seq'
p69
(lp70
S'NNP'
p71
aS'NNP'
p72
aS'NNS'
p73
aS'IN'
p74
aS'JJ'
p75
aS'NN'
p76
aS'JJ'
p77
aS'NNP'
p78
aS'NNP'
p79
aS'CD'
p80
asS'ner_seq'
p81
(lp82
S'O'
aS'O'
aS'O'
aS'O'
aS'O'
aS'O'
aS'O'
aS'O'
aS'O'
aS'O'
assb.