ccopy_reg
_reconstructor
p1
(c__main__
KBproperty
p2
c__builtin__
object
p3
NtRp4
(dp5
S'comment'
p6
S'00'
p7
sS'domain'
p8
S'Road '
p9
sS'instances_count'
p10
I0
sS'phrases'
p11
NsS'syn_hypo'
p12
S''
sS'label'
p13
S'spur type'
p14
sS'range'
p15
S''
sS'uniq_subjs'
p16
S'0'
sS'uniq_objs'
p17
I0
sS'prop_uri'
p18
S'http://dbpedia.org/ontology/spurType'
p19
sS'annotations'
p20
(dp21
S'bag_of_words'
p22
(lp23
S'Road'
p24
aS'spur'
p25
aS'type'
p26
aS'00'
p27
asS'chunk_seq'
p28
(lp29
S'S-NP'
p30
aS'S-VP'
p31
aS'O'
aS'O'
asS'dep_seq'
p32
(lp33
(lp34
S'nsubj'
p35
aS'2'
aS'1'
aa(lp36
S'root'
p37
aS'0'
aS'2'
aa(lp38
S'dobj'
p39
aS'2'
aS'3'
aa(lp40
S'num'
p41
aS'3'
aS'4'
aasS'srls'
p42
(lp43
(dp44
S'A2'
p45
S'Road  type 00'
p46
sS'V'
g25
sasS'pos_seq'
p47
(lp48
S'NN'
p49
aS'VBP'
p50
aS'NN'
p51
aS'CD'
p52
asS'ner_seq'
p53
(lp54
S'O'
aS'O'
aS'O'
aS'O'
assb.