ccopy_reg
_reconstructor
p1
(c__main__
KBproperty
p2
c__builtin__
object
p3
NtRp4
(dp5
S'comment'
p6
S'The highest rank achieved by a person.39923698'
p7
sS'domain'
p8
S'Military Person '
p9
sS'instances_count'
p10
I361
sS'phrases'
p11
NsS'syn_hypo'
p12
S''
sS'label'
p13
S'military rank'
p14
sS'range'
p15
S''
sS'uniq_subjs'
p16
S'361'
p17
sS'uniq_objs'
p18
I0
sS'prop_uri'
p19
S'http://dbpedia.org/ontology/militaryRank'
p20
sS'annotations'
p21
(dp22
S'bag_of_words'
p23
(lp24
S'Military'
p25
aS'Person'
p26
aS'military'
p27
aS'rank'
p28
aS'The'
p29
aS'highest'
p30
aS'rank'
p31
aS'achieved'
p32
aS'by'
p33
aS'a'
aS'person.39923698'
p34
asS'chunk_seq'
p35
(lp36
S'B-NP'
p37
aS'I-NP'
p38
aS'I-NP'
p39
aS'E-NP'
p40
aS'B-NP'
p41
aS'I-NP'
p42
aS'E-NP'
p43
aS'S-VP'
p44
aS'S-PP'
p45
aS'B-NP'
p46
aS'E-NP'
p47
asS'dep_seq'
p48
(lp49
(lp50
S'amod'
p51
aS'4'
aS'1'
aa(lp52
S'nn'
p53
aS'4'
aS'2'
aa(lp54
S'amod'
p55
aS'4'
aS'3'
aa(lp56
S'dep'
p57
aS'7'
aS'4'
aa(lp58
S'det'
p59
aS'7'
aS'5'
aa(lp60
S'amod'
p61
aS'7'
aS'6'
aa(lp62
S'root'
p63
aS'0'
aS'7'
aa(lp64
S'partmod'
p65
aS'7'
aS'8'
aa(lp66
S'det'
p67
aS'11'
p68
aS'10'
p69
aa(lp70
S'agent'
p71
aS'8'
aS'11'
p72
aasS'srls'
p73
(lp74
(dp75
S'A1'
p76
S'Military Person military rank The highest rank'
p77
sS'A0'
p78
S'by a person.39923698'
p79
sS'V'
g32
sasS'pos_seq'
p80
(lp81
S'JJ'
p82
aS'NN'
p83
aS'JJ'
p84
aS'NN'
p85
aS'DT'
p86
aS'JJS'
p87
aS'NN'
p88
aS'VBN'
p89
aS'IN'
p90
aS'DT'
p91
aS'NN'
p92
asS'ner_seq'
p93
(lp94
S'O'
aS'O'
aS'O'
aS'O'
aS'O'
aS'O'
aS'O'
aS'O'
aS'O'
aS'O'
aS'O'
assb.