ccopy_reg
_reconstructor
p1
(c__main__
KBproperty
p2
c__builtin__
object
p3
NtRp4
(dp5
S'comment'
p6
S'00'
p7
sS'domain'
p8
S'Mean Of Transportation '
p9
sS'instances_count'
p10
I0
sS'phrases'
p11
NsS'syn_hypo'
p12
S''
sS'label'
p13
S'model start date'
p14
sS'range'
p15
S'date '
p16
sS'uniq_subjs'
p17
S'0'
sS'uniq_objs'
p18
I0
sS'prop_uri'
p19
S'http://dbpedia.org/ontology/modelStartDate'
p20
sS'annotations'
p21
(dp22
S'bag_of_words'
p23
(lp24
S'Mean'
p25
aS'Of'
p26
aS'Transportation'
p27
aS'model'
p28
aS'start'
p29
aS'date'
p30
aS'date'
p31
aS'00'
p32
asS'chunk_seq'
p33
(lp34
S'S-NP'
p35
aS'S-PP'
p36
aS'B-NP'
p37
aS'E-NP'
p38
aS'S-VP'
p39
aS'B-NP'
p40
aS'E-NP'
p41
aS'S-NP'
p42
asS'dep_seq'
p43
(lp44
(lp45
S'dep'
p46
aS'8'
aS'1'
aa(lp47
S'nn'
p48
aS'7'
aS'3'
aa(lp49
S'nn'
p50
aS'7'
aS'4'
aa(lp51
S'nn'
p52
aS'7'
aS'5'
aa(lp53
S'nn'
p54
aS'7'
aS'6'
aa(lp55
S'prep_of'
p56
aS'1'
aS'7'
aa(lp57
S'root'
p58
aS'0'
aS'8'
aasS'srls'
p59
(lp60
sS'pos_seq'
p61
(lp62
S'NNP'
p63
aS'IN'
p64
aS'NNP'
p65
aS'NN'
p66
aS'NN'
p67
aS'NN'
p68
aS'NN'
p69
aS'CD'
p70
asS'ner_seq'
p71
(lp72
S'O'
aS'B-ORG'
p73
aS'E-ORG'
p74
aS'O'
aS'O'
aS'O'
aS'O'
aS'O'
assb.