ccopy_reg
_reconstructor
p1
(c__main__
KBproperty
p2
c__builtin__
object
p3
NtRp4
(dp5
S'comment'
p6
S'The number of the route.1756017444'
p7
sS'domain'
p8
S'Route Of Transportation '
p9
sS'instances_count'
p10
I2072
sS'phrases'
p11
NsS'syn_hypo'
p12
S''
sS'label'
p13
S'route number'
p14
sS'range'
p15
S'string '
p16
sS'uniq_subjs'
p17
S'2072'
p18
sS'uniq_objs'
p19
I0
sS'prop_uri'
p20
S'http://dbpedia.org/ontology/routeNumber'
p21
sS'annotations'
p22
(dp23
S'bag_of_words'
p24
(lp25
S'Route'
p26
aS'Of'
p27
aS'Transportation'
p28
aS'route'
p29
aS'number'
p30
aS'string'
p31
aS'The'
p32
aS'number'
p33
aS'of'
p34
aS'the'
p35
aS'route.1756017444'
p36
asS'chunk_seq'
p37
(lp38
S'S-NP'
p39
aS'S-PP'
p40
aS'B-NP'
p41
aS'I-NP'
p42
aS'I-NP'
p43
aS'E-NP'
p44
aS'B-NP'
p45
aS'E-NP'
p46
aS'S-PP'
p47
aS'B-NP'
p48
aS'E-NP'
p49
asS'dep_seq'
p50
(lp51
(lp52
S'dep'
p53
aS'8'
aS'1'
aa(lp54
S'prep_of'
p55
aS'1'
aS'3'
aa(lp56
S'nn'
p57
aS'6'
aS'4'
aa(lp58
S'nn'
p59
aS'6'
aS'5'
aa(lp60
S'dep'
p61
aS'8'
aS'6'
aa(lp62
S'det'
p63
aS'8'
aS'7'
aa(lp64
S'root'
p65
aS'0'
aS'8'
aa(lp66
S'det'
p67
aS'11'
p68
aS'10'
p69
aa(lp70
S'prep_of'
p71
aS'8'
aS'11'
p72
aasS'srls'
p73
(lp74
sS'pos_seq'
p75
(lp76
S'NNP'
p77
aS'IN'
p78
aS'NNP'
p79
aS'NN'
p80
aS'NN'
p81
aS'NN'
p82
aS'DT'
p83
aS'NN'
p84
aS'IN'
p85
aS'DT'
p86
aS'NN'
p87
asS'ner_seq'
p88
(lp89
S'B-ORG'
p90
aS'I-ORG'
p91
aS'E-ORG'
p92
aS'O'
aS'O'
aS'O'
aS'O'
aS'O'
aS'O'
aS'O'
aS'O'
assb.