ccopy_reg
_reconstructor
p1
(c__main__
KBproperty
p2
c__builtin__
object
p3
NtRp4
(dp5
S'comment'
p6
S'Year the play was first performed.15431519'
p7
sS'domain'
p8
S'Play '
p9
sS'instances_count'
p10
I242
sS'phrases'
p11
NsS'syn_hypo'
p12
S''
sS'label'
p13
S'premiere year'
p14
sS'range'
p15
S'g Year '
p16
sS'uniq_subjs'
p17
S'242'
p18
sS'uniq_objs'
p19
I0
sS'prop_uri'
p20
S'http://dbpedia.org/ontology/premiereYear'
p21
sS'annotations'
p22
(dp23
S'bag_of_words'
p24
(lp25
S'Play'
p26
aS'premiere'
p27
aS'year'
p28
aS'g'
aS'Year'
p29
aS'Year'
p30
aS'the'
p31
aS'play'
p32
aS'was'
p33
aS'first'
p34
aS'performed.15431519'
p35
asS'chunk_seq'
p36
(lp37
S'B-NP'
p38
aS'I-NP'
p39
aS'I-NP'
p40
aS'I-NP'
p41
aS'I-NP'
p42
aS'E-NP'
p43
aS'B-NP'
p44
aS'E-NP'
p45
aS'S-VP'
p46
aS'B-NP'
p47
aS'E-NP'
p48
asS'dep_seq'
p49
(lp50
(lp51
S'nn'
p52
aS'6'
aS'1'
aa(lp53
S'nn'
p54
aS'6'
aS'2'
aa(lp55
S'nn'
p56
aS'6'
aS'3'
aa(lp57
S'nn'
p58
aS'6'
aS'4'
aa(lp59
S'nn'
p60
aS'6'
aS'5'
aa(lp61
S'tmod'
p62
aS'11'
p63
aS'6'
aa(lp64
S'det'
p65
aS'8'
aS'7'
aa(lp66
S'nsubj'
p67
aS'11'
p68
aS'8'
aa(lp69
S'cop'
p70
aS'11'
p71
aS'9'
aa(lp72
S'amod'
p73
aS'11'
p74
aS'10'
p75
aa(lp76
S'root'
p77
aS'0'
aS'11'
p78
aasS'srls'
p79
(lp80
sS'pos_seq'
p81
(lp82
S'NN'
p83
aS'NN'
p84
aS'NN'
p85
aS'NN'
p86
aS'NN'
p87
aS'NN'
p88
aS'DT'
p89
aS'NN'
p90
aS'VBD'
p91
aS'JJ'
p92
aS'NN'
p93
asS'ner_seq'
p94
(lp95
S'O'
aS'O'
aS'O'
aS'O'
aS'O'
aS'O'
aS'O'
aS'O'
aS'O'
aS'O'
aS'O'
assb.