ccopy_reg
_reconstructor
p1
(c__main__
KBproperty
p2
c__builtin__
object
p3
NtRp4
(dp5
S'comment'
p6
S'Code assigned to Dutch monuments at the national level deemed to be of national value00'
p7
sS'domain'
p8
S'Place '
p9
sS'instances_count'
p10
I0
sS'phrases'
p11
NsS'syn_hypo'
p12
S''
sS'label'
p13
S'monument code national'
p14
sS'range'
p15
S'string '
p16
sS'uniq_subjs'
p17
S'0'
sS'uniq_objs'
p18
I0
sS'prop_uri'
p19
S'http://dbpedia.org/ontology/codeNationalMonument'
p20
sS'annotations'
p21
(dp22
S'bag_of_words'
p23
(lp24
S'Place'
p25
aS'monument'
p26
aS'code'
p27
aS'national'
p28
aS'string'
p29
aS'Code'
p30
aS'assigned'
p31
aS'to'
p32
aS'Dutch'
p33
aS'monuments'
p34
aS'at'
p35
aS'the'
p36
aS'national'
p37
aS'level'
p38
aS'deemed'
p39
aS'to'
p40
aS'be'
p41
aS'of'
p42
aS'national'
p43
aS'value00'
p44
asS'chunk_seq'
p45
(lp46
S'B-NP'
p47
aS'I-NP'
p48
aS'I-NP'
p49
aS'I-NP'
p50
aS'I-NP'
p51
aS'E-NP'
p52
aS'S-VP'
p53
aS'S-PP'
p54
aS'B-NP'
p55
aS'E-NP'
p56
aS'S-PP'
p57
aS'B-NP'
p58
aS'I-NP'
p59
aS'E-NP'
p60
aS'B-VP'
p61
aS'I-VP'
p62
aS'E-VP'
p63
aS'S-PP'
p64
aS'B-NP'
p65
aS'E-NP'
p66
asS'dep_seq'
p67
(lp68
(lp69
S'nn'
p70
aS'6'
aS'1'
aa(lp71
S'nn'
p72
aS'6'
aS'2'
aa(lp73
S'nn'
p74
aS'6'
aS'3'
aa(lp75
S'amod'
p76
aS'6'
aS'4'
aa(lp77
S'nn'
p78
aS'6'
aS'5'
aa(lp79
S'root'
p80
aS'0'
aS'6'
aa(lp81
S'partmod'
p82
aS'6'
aS'7'
aa(lp83
S'amod'
p84
aS'10'
p85
aS'9'
aa(lp86
S'prep_to'
p87
aS'7'
aS'10'
p88
aa(lp89
S'det'
p90
aS'14'
p91
aS'12'
p92
aa(lp93
S'amod'
p94
aS'14'
p95
aS'13'
p96
aa(lp97
S'prep_at'
p98
aS'7'
aS'14'
p99
aa(lp100
S'amod'
p101
aS'14'
p102
aS'15'
p103
aa(lp104
S'aux'
p105
aS'17'
p106
aS'16'
p107
aa(lp108
S'xcomp'
p109
aS'15'
p110
aS'17'
p111
aa(lp112
S'amod'
p113
aS'20'
p114
aS'19'
p115
aa(lp116
S'prep_of'
p117
aS'17'
p118
aS'20'
p119
aasS'srls'
p120
(lp121
(dp122
S'A1'
p123
S'national string Code'
p124
sS'AM-LOC'
p125
S'at the national level'
p126
sS'A2'
p127
S'to Dutch monuments'
p128
sS'V'
g31
sa(dp129
S'A1'
p130
S'the national level'
p131
sS'A2'
p132
S'to be of national value00'
p133
sS'V'
g39
sasS'pos_seq'
p134
(lp135
S'NN'
p136
aS'NN'
p137
aS'NN'
p138
aS'JJ'
p139
aS'NN'
p140
aS'NN'
p141
aS'VBN'
p142
aS'TO'
p143
aS'JJ'
p144
aS'NNS'
p145
aS'IN'
p146
aS'DT'
p147
aS'JJ'
p148
aS'NN'
p149
aS'VBN'
p150
aS'TO'
p151
aS'VB'
p152
aS'IN'
p153
aS'JJ'
p154
aS'NN'
p155
asS'ner_seq'
p156
(lp157
S'O'
aS'O'
aS'O'
aS'O'
aS'O'
aS'O'
aS'O'
aS'O'
aS'S-MISC'
p158
aS'O'
aS'O'
aS'O'
aS'O'
aS'O'
aS'O'
aS'O'
aS'O'
aS'O'
aS'O'
aS'O'
assb.