ccopy_reg
_reconstructor
p1
(c__main__
KBproperty
p2
c__builtin__
object
p3
NtRp4
(dp5
S'comment'
p6
S'Number of vehicles used in the transit system.409328'
p7
sS'domain'
p8
S'Public Transit System '
p9
sS'instances_count'
p10
I236
sS'phrases'
p11
NsS'syn_hypo'
p12
S''
sS'label'
p13
S'number of vehicles'
p14
sS'range'
p15
S'non Negative Integer '
p16
sS'uniq_subjs'
p17
S'236'
p18
sS'uniq_objs'
p19
I0
sS'prop_uri'
p20
S'http://dbpedia.org/ontology/numberOfVehicles'
p21
sS'annotations'
p22
(dp23
S'bag_of_words'
p24
(lp25
S'Public'
p26
aS'Transit'
p27
aS'System'
p28
aS'number'
p29
aS'of'
p30
aS'vehicles'
p31
aS'non'
p32
aS'Negative'
p33
aS'Integer'
p34
aS'Number'
p35
aS'of'
p36
aS'vehicles'
p37
aS'used'
p38
aS'in'
p39
aS'the'
p40
aS'transit'
p41
aS'system.409328'
p42
asS'chunk_seq'
p43
(lp44
S'B-NP'
p45
aS'I-NP'
p46
aS'I-NP'
p47
aS'E-NP'
p48
aS'S-PP'
p49
aS'S-NP'
p50
aS'B-NP'
p51
aS'I-NP'
p52
aS'I-NP'
p53
aS'E-NP'
p54
aS'S-PP'
p55
aS'S-NP'
p56
aS'S-VP'
p57
aS'S-PP'
p58
aS'B-NP'
p59
aS'I-NP'
p60
aS'E-NP'
p61
asS'dep_seq'
p62
(lp63
(lp64
S'nn'
p65
aS'4'
aS'1'
aa(lp66
S'nn'
p67
aS'4'
aS'2'
aa(lp68
S'nn'
p69
aS'4'
aS'3'
aa(lp70
S'dep'
p71
aS'10'
p72
aS'4'
aa(lp73
S'prep_of'
p74
aS'4'
aS'6'
aa(lp75
S'possessive'
p76
aS'10'
p77
aS'7'
aa(lp78
S'nn'
p79
aS'10'
p80
aS'8'
aa(lp81
S'nn'
p82
aS'10'
p83
aS'9'
aa(lp84
S'root'
p85
aS'0'
aS'10'
p86
aa(lp87
S'prep_of'
p88
aS'10'
p89
aS'12'
p90
aa(lp91
S'partmod'
p92
aS'12'
p93
aS'13'
p94
aa(lp95
S'det'
p96
aS'17'
p97
aS'15'
p98
aa(lp99
S'nn'
p100
aS'17'
p101
aS'16'
p102
aa(lp103
S'prep_in'
p104
aS'13'
p105
aS'17'
p106
aasS'srls'
p107
(lp108
(dp109
S'A1'
p110
S'Public Transit System number of vehicles non Negative Integer Number of vehicles'
p111
sS'AM-LOC'
p112
S'in the transit system.409328'
p113
sS'V'
g38
sasS'pos_seq'
p114
(lp115
S'NNP'
p116
aS'NNP'
p117
aS'NNP'
p118
aS'NN'
p119
aS'IN'
p120
aS'NNS'
p121
aS'POS'
p122
aS'NNP'
p123
aS'NNP'
p124
aS'NNP'
p125
aS'IN'
p126
aS'NNS'
p127
aS'VBN'
p128
aS'IN'
p129
aS'DT'
p130
aS'NN'
p131
aS'NN'
p132
asS'ner_seq'
p133
(lp134
S'B-ORG'
p135
aS'I-ORG'
p136
aS'E-ORG'
p137
aS'O'
aS'O'
aS'O'
aS'O'
aS'O'
aS'O'
aS'O'
aS'O'
aS'O'
aS'O'
aS'O'
aS'O'
aS'O'
aS'O'
assb.