ccopy_reg
_reconstructor
p1
(c__main__
KBproperty
p2
c__builtin__
object
p3
NtRp4
(dp5
S'comment'
p6
S'start date and time'
p7
sS'domain'
p8
S'Event '
p9
sS'instances_count'
p10
I0
sS'phrases'
p11
NsS'syn_hypo'
p12
S''
sS'label'
p13
g7
sS'range'
p14
S'date Time '
p15
sS'uniq_subjs'
p16
S'0'
sS'uniq_objs'
p17
I0
sS'prop_uri'
p18
S'http://dbpedia.org/ontology/startDateTime'
p19
sS'annotations'
p20
(dp21
S'bag_of_words'
p22
(lp23
S'Event'
p24
aS'start'
p25
aS'Date'
p26
aS'Time'
p27
aS'date'
p28
aS'Time'
p29
aS'start'
p30
aS'date'
p31
aS'and'
p32
aS'time'
p33
asS'chunk_seq'
p34
(lp35
S'S-NP'
p36
aS'S-VP'
p37
aS'B-NP'
p38
aS'I-NP'
p39
aS'E-NP'
p40
aS'S-NP'
p41
aS'S-VP'
p42
aS'B-NP'
p43
aS'I-NP'
p44
aS'E-NP'
p45
asS'dep_seq'
p46
(lp47
(lp48
S'nsubj'
p49
aS'2'
aS'1'
aa(lp50
S'root'
p51
aS'0'
aS'2'
aa(lp52
S'iobj'
p53
aS'2'
aS'3'
aa(lp54
S'nn'
p55
aS'5'
aS'4'
aa(lp56
S'dobj'
p57
aS'2'
aS'5'
aa(lp58
S'dep'
p59
aS'3'
aS'5'
aa(lp60
S'nn'
p61
aS'8'
aS'6'
aa(lp62
S'nn'
p63
aS'8'
aS'7'
aa(lp64
S'dobj'
p65
aS'2'
aS'8'
aa(lp66
S'conj_and'
p67
aS'8'
aS'10'
p68
aasS'srls'
p69
(lp70
(dp71
S'A1'
p72
g24
sS'AM-TMP'
p73
S'Date Time date Time start date and time'
p74
sS'V'
g25
sasS'pos_seq'
p75
(lp76
S'NN'
p77
aS'VBP'
p78
aS'NN'
p79
aS'NN'
p80
aS'NN'
p81
aS'NN'
p82
aS'NN'
p83
aS'NN'
p84
aS'CC'
p85
aS'NN'
p86
asS'ner_seq'
p87
(lp88
S'O'
aS'O'
aS'O'
aS'O'
aS'O'
aS'O'
aS'O'
aS'O'
aS'O'
aS'O'
assb.