ccopy_reg
_reconstructor
p1
(c__main__
KBproperty
p2
c__builtin__
object
p3
NtRp4
(dp5
S'comment'
p6
S'00'
p7
sS'domain'
p8
S'Place '
p9
sS'instances_count'
p10
I0
sS'phrases'
p11
NsS'syn_hypo'
p12
S''
sS'label'
p13
S'green ski piste number'
p14
sS'range'
p15
S'non Negative Integer '
p16
sS'uniq_subjs'
p17
S'0'
sS'uniq_objs'
p18
I0
sS'prop_uri'
p19
S'http://dbpedia.org/ontology/greenSkiPisteNumber'
p20
sS'annotations'
p21
(dp22
S'bag_of_words'
p23
(lp24
S'Place'
p25
aS'green'
p26
aS'ski'
p27
aS'piste'
p28
aS'number'
p29
aS'non'
p30
aS'Negative'
p31
aS'Integer'
p32
aS'00'
p33
asS'chunk_seq'
p34
(lp35
S'B-NP'
p36
aS'I-NP'
p37
aS'I-NP'
p38
aS'I-NP'
p39
aS'I-NP'
p40
aS'I-NP'
p41
aS'I-NP'
p42
aS'E-NP'
p43
aS'O'
asS'dep_seq'
p44
(lp45
(lp46
S'dep'
p47
aS'5'
aS'1'
aa(lp48
S'amod'
p49
aS'5'
aS'2'
aa(lp50
S'nn'
p51
aS'5'
aS'3'
aa(lp52
S'nn'
p53
aS'5'
aS'4'
aa(lp54
S'root'
p55
aS'0'
aS'5'
aa(lp56
S'amod'
p57
aS'8'
aS'6'
aa(lp58
S'nn'
p59
aS'8'
aS'7'
aa(lp60
S'dep'
p61
aS'5'
aS'8'
aa(lp62
S'num'
p63
aS'8'
aS'9'
aasS'srls'
p64
(lp65
(dp66
S'A1'
p67
g26
sS'A2'
p68
S'ski piste number non Negative Integer 00'
p69
sS'V'
g25
sasS'pos_seq'
p70
(lp71
S'NN'
p72
aS'JJ'
p73
aS'NN'
p74
aS'NN'
p75
aS'NN'
p76
aS'JJ'
p77
aS'NNP'
p78
aS'NNP'
p79
aS'CD'
p80
asS'ner_seq'
p81
(lp82
S'O'
aS'O'
aS'O'
aS'O'
aS'O'
aS'O'
aS'O'
aS'O'
aS'O'
assb.