ccopy_reg
_reconstructor
p1
(c__main__
KBproperty
p2
c__builtin__
object
p3
NtRp4
(dp5
S'comment'
p6
S'The service branch Army Navy etc. a person is part of.3987535496'
p7
sS'domain'
p8
S'Military Person '
p9
sS'instances_count'
p10
I39875
sS'phrases'
p11
NsS'syn_hypo'
p12
S''
sS'label'
p13
S'military branch'
p14
sS'range'
p15
S'Military Unit '
p16
sS'uniq_subjs'
p17
S'1572'
p18
sS'uniq_objs'
p19
I0
sS'prop_uri'
p20
S'http://dbpedia.org/ontology/militaryBranch'
p21
sS'annotations'
p22
(dp23
S'bag_of_words'
p24
(lp25
S'Military'
p26
aS'Person'
p27
aS'military'
p28
aS'branch'
p29
aS'Military'
p30
aS'Unit'
p31
aS'The'
p32
aS'service'
p33
aS'branch'
p34
aS'Army'
p35
aS'Navy'
p36
aS'etc.'
p37
aS'a'
aS'person'
p38
aS'is'
p39
aS'part'
p40
aS'of.3987535496'
p41
asS'chunk_seq'
p42
(lp43
S'B-NP'
p44
aS'I-NP'
p45
aS'I-NP'
p46
aS'I-NP'
p47
aS'I-NP'
p48
aS'E-NP'
p49
aS'B-NP'
p50
aS'I-NP'
p51
aS'I-NP'
p52
aS'I-NP'
p53
aS'E-NP'
p54
aS'S-VP'
p55
aS'B-NP'
p56
aS'E-NP'
p57
aS'S-VP'
p58
aS'S-NP'
p59
aS'S-ADJP'
p60
asS'dep_seq'
p61
(lp62
(lp63
S'nn'
p64
aS'6'
aS'1'
aa(lp65
S'nn'
p66
aS'6'
aS'2'
aa(lp67
S'amod'
p68
aS'6'
aS'3'
aa(lp69
S'nn'
p70
aS'6'
aS'4'
aa(lp71
S'nn'
p72
aS'6'
aS'5'
aa(lp73
S'nsubj'
p74
aS'12'
p75
aS'6'
aa(lp76
S'det'
p77
aS'11'
p78
aS'7'
aa(lp79
S'nn'
p80
aS'11'
p81
aS'8'
aa(lp82
S'nn'
p83
aS'11'
p84
aS'9'
aa(lp85
S'nn'
p86
aS'11'
p87
aS'10'
p88
aa(lp89
S'nsubj'
p90
aS'12'
p91
aS'11'
p92
aa(lp93
S'root'
p94
aS'0'
aS'12'
p95
aa(lp96
S'det'
p97
aS'14'
p98
aS'13'
p99
aa(lp100
S'nsubj'
p101
aS'16'
p102
aS'14'
p103
aa(lp104
S'cop'
p105
aS'16'
p106
aS'15'
p107
aa(lp108
S'ccomp'
p109
aS'12'
p110
aS'16'
p111
aa(lp112
S'punct'
p113
aS'16'
p114
aS'17'
p115
aasS'srls'
p116
(lp117
sS'pos_seq'
p118
(lp119
S'NNP'
p120
aS'NNP'
p121
aS'JJ'
p122
aS'NN'
p123
aS'NNP'
p124
aS'NNP'
p125
aS'DT'
p126
aS'NN'
p127
aS'NN'
p128
aS'NNP'
p129
aS'NNP'
p130
aS'VBD'
p131
aS'DT'
p132
aS'NN'
p133
aS'VBZ'
p134
aS'NN'
p135
aS'.'
asS'ner_seq'
p136
(lp137
S'O'
aS'O'
aS'O'
aS'O'
aS'B-ORG'
p138
aS'I-ORG'
p139
aS'I-ORG'
p140
aS'I-ORG'
p141
aS'I-ORG'
p142
aS'I-ORG'
p143
aS'E-ORG'
p144
aS'O'
aS'O'
aS'O'
aS'O'
aS'O'
aS'O'
assb.