ccopy_reg
_reconstructor
p1
(c__main__
KBproperty
p2
c__builtin__
object
p3
NtRp4
(dp5
S'comment'
p6
S'Subject has served as the regent of another monarch00'
p7
sS'domain'
p8
S'Monarch '
p9
sS'instances_count'
p10
I0
sS'phrases'
p11
NsS'syn_hypo'
p12
S''
sS'label'
p13
S'regent of'
p14
sS'range'
p15
S'Monarch '
p16
sS'uniq_subjs'
p17
S'0'
sS'uniq_objs'
p18
I0
sS'prop_uri'
p19
S'http://dbpedia.org/ontology/regentOf'
p20
sS'annotations'
p21
(dp22
S'bag_of_words'
p23
(lp24
S'Monarch'
p25
aS'regent'
p26
aS'of'
p27
aS'Monarch'
p28
aS'Subject'
p29
aS'has'
p30
aS'served'
p31
aS'as'
p32
aS'the'
p33
aS'regent'
p34
aS'of'
p35
aS'another'
p36
aS'monarch00'
p37
asS'chunk_seq'
p38
(lp39
S'B-NP'
p40
aS'E-NP'
p41
aS'S-PP'
p42
aS'B-NP'
p43
aS'E-NP'
p44
aS'B-VP'
p45
aS'E-VP'
p46
aS'S-PP'
p47
aS'B-NP'
p48
aS'E-NP'
p49
aS'S-PP'
p50
aS'B-NP'
p51
aS'E-NP'
p52
asS'dep_seq'
p53
(lp54
(lp55
S'nn'
p56
aS'2'
aS'1'
aa(lp57
S'nsubj'
p58
aS'7'
aS'2'
aa(lp59
S'nn'
p60
aS'5'
aS'4'
aa(lp61
S'prep_of'
p62
aS'2'
aS'5'
aa(lp63
S'aux'
p64
aS'7'
aS'6'
aa(lp65
S'root'
p66
aS'0'
aS'7'
aa(lp67
S'det'
p68
aS'10'
p69
aS'9'
aa(lp70
S'prep_as'
p71
aS'7'
aS'10'
p72
aa(lp73
S'det'
p74
aS'13'
p75
aS'12'
p76
aa(lp77
S'prep_of'
p78
aS'10'
p79
aS'13'
p80
aasS'srls'
p81
(lp82
(dp83
S'A1'
p84
S'as the regent of another monarch00'
p85
sS'A0'
p86
S'Monarch regent of Monarch Subject'
p87
sS'V'
g31
sasS'pos_seq'
p88
(lp89
S'NN'
p90
aS'NN'
p91
aS'IN'
p92
aS'NNP'
p93
aS'NNP'
p94
aS'VBZ'
p95
aS'VBN'
p96
aS'IN'
p97
aS'DT'
p98
aS'NN'
p99
aS'IN'
p100
aS'DT'
p101
aS'NN'
p102
asS'ner_seq'
p103
(lp104
S'O'
aS'O'
aS'O'
aS'B-MISC'
p105
aS'E-MISC'
p106
aS'O'
aS'O'
aS'O'
aS'O'
aS'O'
aS'O'
aS'O'
aS'O'
assb.