ccopy_reg
_reconstructor
p1
(c__main__
KBproperty
p2
c__builtin__
object
p3
NtRp4
(dp5
S'comment'
p6
S'The place where the person died.303256193883'
p7
sS'domain'
p8
S'Person '
p9
sS'instances_count'
p10
I38303
sS'phrases'
p11
(lp12
S' where;die'
p13
aS' place of death'
p14
aS' where;died'
p15
aS' where; killed'
p16
aS' where ; murder'
p17
aS' where ; murdered\n'
p18
asS'syn_hypo'
p19
S''
sS'label'
p20
S'death place'
p21
sS'range'
p22
S'Place '
p23
sS'uniq_subjs'
p24
S'38303'
p25
sS'uniq_objs'
p26
I0
sS'prop_uri'
p27
S'http://dbpedia.org/ontology/deathPlace'
p28
sS'annotations'
p29
(dp30
S'bag_of_words'
p31
(lp32
S'Person'
p33
aS'death'
p34
aS'place'
p35
aS'Place'
p36
aS'The'
p37
aS'place'
p38
aS'where'
p39
aS'the'
p40
aS'person'
p41
aS'died.303256193883'
p42
asS'chunk_seq'
p43
(lp44
S'B-NP'
p45
aS'I-NP'
p46
aS'I-NP'
p47
aS'E-NP'
p48
aS'B-NP'
p49
aS'E-NP'
p50
aS'S-ADVP'
p51
aS'B-NP'
p52
aS'E-NP'
p53
aS'S-ADJP'
p54
asS'dep_seq'
p55
(lp56
(lp57
S'nn'
p58
aS'4'
aS'1'
aa(lp59
S'nn'
p60
aS'4'
aS'2'
aa(lp61
S'nn'
p62
aS'4'
aS'3'
aa(lp63
S'dep'
p64
aS'9'
aS'4'
aa(lp65
S'det'
p66
aS'6'
aS'5'
aa(lp67
S'dep'
p68
aS'9'
aS'6'
aa(lp69
S'advmod'
p70
aS'9'
aS'7'
aa(lp71
S'det'
p72
aS'9'
aS'8'
aa(lp73
S'root'
p74
aS'0'
aS'9'
aa(lp75
S'punct'
p76
aS'9'
aS'10'
p77
aasS'srls'
p78
(lp79
sS'pos_seq'
p80
(lp81
S'NN'
p82
aS'NN'
p83
aS'NN'
p84
aS'NN'
p85
aS'DT'
p86
aS'NN'
p87
aS'WRB'
p88
aS'DT'
p89
aS'NN'
p90
aS'.'
asS'ner_seq'
p91
(lp92
S'O'
aS'O'
aS'O'
aS'O'
aS'O'
aS'O'
aS'O'
aS'O'
aS'O'
aS'O'
assb.