ccopy_reg
_reconstructor
p1
(c__main__
KBproperty
p2
c__builtin__
object
p3
NtRp4
(dp5
S'comment'
p6
S'winner of a competition in the single female session to distinguish from the double session as in tennis176176'
p7
sS'domain'
p8
S'Sports Event '
p9
sS'instances_count'
p10
I176
sS'phrases'
p11
NsS'syn_hypo'
p12
S''
sS'label'
p13
S'champion in single female'
p14
sS'range'
p15
S'Athlete '
p16
sS'uniq_subjs'
p17
S'113'
p18
sS'uniq_objs'
p19
I0
sS'prop_uri'
p20
S'http://dbpedia.org/ontology/championInSingleFemale'
p21
sS'annotations'
p22
(dp23
S'bag_of_words'
p24
(lp25
S'Sports'
p26
aS'Event'
p27
aS'champion'
p28
aS'in'
p29
aS'single'
p30
aS'female'
p31
aS'Athlete'
p32
aS'winner'
p33
aS'of'
p34
aS'a'
aS'competition'
p35
aS'in'
p36
aS'the'
p37
aS'single'
p38
aS'female'
p39
aS'session'
p40
aS'to'
p41
aS'distinguish'
p42
aS'from'
p43
aS'the'
p44
aS'double'
p45
aS'session'
p46
aS'as'
p47
aS'in'
p48
aS'tennis176176'
p49
asS'chunk_seq'
p50
(lp51
S'B-NP'
p52
aS'I-NP'
p53
aS'E-NP'
p54
aS'S-PP'
p55
aS'B-NP'
p56
aS'I-NP'
p57
aS'I-NP'
p58
aS'E-NP'
p59
aS'S-PP'
p60
aS'B-NP'
p61
aS'E-NP'
p62
aS'S-PP'
p63
aS'B-NP'
p64
aS'I-NP'
p65
aS'I-NP'
p66
aS'E-NP'
p67
aS'B-VP'
p68
aS'E-VP'
p69
aS'S-PP'
p70
aS'B-NP'
p71
aS'I-NP'
p72
aS'E-NP'
p73
aS'S-PP'
p74
aS'S-PP'
p75
aS'S-NP'
p76
asS'dep_seq'
p77
(lp78
(lp79
S'nn'
p80
aS'3'
aS'1'
aa(lp81
S'nn'
p82
aS'3'
aS'2'
aa(lp83
S'root'
p84
aS'0'
aS'3'
aa(lp85
S'amod'
p86
aS'8'
aS'5'
aa(lp87
S'amod'
p88
aS'8'
aS'6'
aa(lp89
S'nn'
p90
aS'8'
aS'7'
aa(lp91
S'prep_in'
p92
aS'3'
aS'8'
aa(lp93
S'det'
p94
aS'11'
p95
aS'10'
p96
aa(lp97
S'prep_of'
p98
aS'8'
aS'11'
p99
aa(lp100
S'det'
p101
aS'16'
p102
aS'13'
p103
aa(lp104
S'amod'
p105
aS'16'
p106
aS'14'
p107
aa(lp108
S'amod'
p109
aS'16'
p110
aS'15'
p111
aa(lp112
S'prep_in'
p113
aS'11'
p114
aS'16'
p115
aa(lp116
S'aux'
p117
aS'18'
p118
aS'17'
p119
aa(lp120
S'infmod'
p121
aS'11'
p122
aS'18'
p123
aa(lp124
S'det'
p125
aS'22'
p126
aS'20'
p127
aa(lp128
S'amod'
p129
aS'22'
p130
aS'21'
p131
aa(lp132
S'prep_from'
p133
aS'18'
p134
aS'22'
p135
aa(lp136
S'prep'
p137
aS'18'
p138
aS'23'
p139
aa(lp140
S'pcomp'
p141
aS'23'
p142
aS'24'
p143
aa(lp144
S'pobj'
p145
aS'24'
p146
aS'25'
p147
aasS'srls'
p148
(lp149
(dp150
S'A0'
p151
S'Sports Event champion in single female Athlete winner of a competition in the single female session'
p152
sS'A2'
p153
S'from the double session as in tennis176176'
p154
sS'V'
g42
sasS'pos_seq'
p155
(lp156
S'NNS'
p157
aS'NN'
p158
aS'NN'
p159
aS'IN'
p160
aS'JJ'
p161
aS'JJ'
p162
aS'NN'
p163
aS'NN'
p164
aS'IN'
p165
aS'DT'
p166
aS'NN'
p167
aS'IN'
p168
aS'DT'
p169
aS'JJ'
p170
aS'JJ'
p171
aS'NN'
p172
aS'TO'
p173
aS'VB'
p174
aS'IN'
p175
aS'DT'
p176
aS'JJ'
p177
aS'NN'
p178
aS'IN'
p179
aS'IN'
p180
aS'NN'
p181
asS'ner_seq'
p182
(lp183
S'O'
aS'O'
aS'O'
aS'O'
aS'O'
aS'O'
aS'O'
aS'O'
aS'O'
aS'O'
aS'O'
aS'O'
aS'O'
aS'O'
aS'O'
aS'O'
aS'O'
aS'O'
aS'O'
aS'O'
aS'O'
aS'O'
aS'O'
aS'O'
aS'O'
assb.