ccopy_reg
_reconstructor
p1
(c__main__
KBproperty
p2
c__builtin__
object
p3
NtRp4
(dp5
S'comment'
p6
S'The Political party of leader.829827'
p7
sS'domain'
p8
S'Legislature '
p9
sS'instances_count'
p10
I313
sS'phrases'
p11
NsS'syn_hypo'
p12
S''
sS'label'
p13
S'political party of leader'
p14
sS'range'
p15
S'Political Party '
p16
sS'uniq_subjs'
p17
S'313'
p18
sS'uniq_objs'
p19
I0
sS'prop_uri'
p20
S'http://dbpedia.org/ontology/politicalPartyOfLeader'
p21
sS'annotations'
p22
(dp23
S'bag_of_words'
p24
(lp25
S'Legislature'
p26
aS'political'
p27
aS'party'
p28
aS'of'
p29
aS'leader'
p30
aS'Political'
p31
aS'Party'
p32
aS'The'
p33
aS'Political'
p34
aS'party'
p35
aS'of'
p36
aS'leader.829827'
p37
asS'chunk_seq'
p38
(lp39
S'B-NP'
p40
aS'I-NP'
p41
aS'E-NP'
p42
aS'S-PP'
p43
aS'B-NP'
p44
aS'I-NP'
p45
aS'E-NP'
p46
aS'B-NP'
p47
aS'I-NP'
p48
aS'E-NP'
p49
aS'S-PP'
p50
aS'S-NP'
p51
asS'dep_seq'
p52
(lp53
(lp54
S'nn'
p55
aS'3'
aS'1'
aa(lp56
S'amod'
p57
aS'3'
aS'2'
aa(lp58
S'dep'
p59
aS'10'
p60
aS'3'
aa(lp61
S'nn'
p62
aS'7'
aS'5'
aa(lp63
S'nn'
p64
aS'7'
aS'6'
aa(lp65
S'prep_of'
p66
aS'3'
aS'7'
aa(lp67
S'det'
p68
aS'10'
p69
aS'8'
aa(lp70
S'amod'
p71
aS'10'
p72
aS'9'
aa(lp73
S'root'
p74
aS'0'
aS'10'
p75
aa(lp76
S'prep_of'
p77
aS'10'
p78
aS'12'
p79
aasS'srls'
p80
(lp81
sS'pos_seq'
p82
(lp83
S'NNP'
p84
aS'JJ'
p85
aS'NN'
p86
aS'IN'
p87
aS'NN'
p88
aS'NNP'
p89
aS'NNP'
p90
aS'DT'
p91
aS'JJ'
p92
aS'NN'
p93
aS'IN'
p94
aS'NN'
p95
asS'ner_seq'
p96
(lp97
S'O'
aS'O'
aS'O'
aS'O'
aS'O'
aS'B-ORG'
p98
aS'I-ORG'
p99
aS'I-ORG'
p100
aS'E-ORG'
p101
aS'O'
aS'O'
aS'O'
assb.