ccopy_reg
_reconstructor
p1
(c__main__
KBproperty
p2
c__builtin__
object
p3
NtRp4
(dp5
S'comment'
p6
S'Release date of a Work or another product eg Aircraft or other MeansOfTransportation204819187806'
p7
sS'domain'
p8
S''
sS'instances_count'
p9
I25957
sS'phrases'
p10
NsS'syn_hypo'
p11
S''
sS'label'
p12
S'release date'
p13
sS'range'
p14
S'date '
p15
sS'uniq_subjs'
p16
S'25957'
p17
sS'uniq_objs'
p18
I0
sS'prop_uri'
p19
S'http://dbpedia.org/ontology/releaseDate'
p20
sS'annotations'
p21
(dp22
S'bag_of_words'
p23
(lp24
S'release'
p25
aS'date'
p26
aS'date'
p27
aS'Release'
p28
aS'date'
p29
aS'of'
p30
aS'a'
aS'Work'
p31
aS'or'
p32
aS'another'
p33
aS'product'
p34
aS'eg'
p35
aS'Aircraft'
p36
aS'or'
p37
aS'other'
p38
aS'MeansOfTransportation204819187806'
p39
asS'chunk_seq'
p40
(lp41
S'B-NP'
p42
aS'E-NP'
p43
aS'B-NP'
p44
aS'I-NP'
p45
aS'E-NP'
p46
aS'S-PP'
p47
aS'B-NP'
p48
aS'E-NP'
p49
aS'O'
aS'B-NP'
p50
aS'E-NP'
p51
aS'S-PP'
p52
aS'S-NP'
p53
aS'O'
aS'B-NP'
p54
aS'E-NP'
p55
asS'dep_seq'
p56
(lp57
(lp58
S'nn'
p59
aS'3'
aS'1'
aa(lp60
S'nn'
p61
aS'3'
aS'2'
aa(lp62
S'dep'
p63
aS'5'
aS'3'
aa(lp64
S'nn'
p65
aS'5'
aS'4'
aa(lp66
S'root'
p67
aS'0'
aS'5'
aa(lp68
S'det'
p69
aS'8'
aS'7'
aa(lp70
S'prep_of'
p71
aS'5'
aS'8'
aa(lp72
S'det'
p73
aS'11'
p74
aS'10'
p75
aa(lp76
S'conj_or'
p77
aS'8'
aS'11'
p78
aa(lp79
S'prep_eg'
p80
aS'5'
aS'13'
p81
aa(lp82
S'amod'
p83
aS'16'
p84
aS'15'
p85
aa(lp86
S'conj_or'
p87
aS'13'
p88
aS'16'
p89
aasS'srls'
p90
(lp91
sS'pos_seq'
p92
(lp93
S'NN'
p94
aS'NN'
p95
aS'NN'
p96
aS'NN'
p97
aS'NN'
p98
aS'IN'
p99
aS'DT'
p100
aS'NNP'
p101
aS'CC'
p102
aS'DT'
p103
aS'NN'
p104
aS'IN'
p105
aS'NNP'
p106
aS'CC'
p107
aS'JJ'
p108
aS'NNP'
p109
asS'ner_seq'
p110
(lp111
S'O'
aS'O'
aS'O'
aS'O'
aS'O'
aS'O'
aS'O'
aS'O'
aS'O'
aS'O'
aS'O'
aS'O'
aS'O'
aS'O'
aS'O'
aS'S-MISC'
p112
assb.