ccopy_reg
_reconstructor
p1
(c__main__
KBproperty
p2
c__builtin__
object
p3
NtRp4
(dp5
S'comment'
p6
S'30802918'
p7
sS'domain'
p8
S''
sS'instances_count'
p9
I1378
sS'phrases'
p10
NsS'syn_hypo'
p11
Vcitymunicipalitymetropolismunicipalityurban_centermunicipalitytown
p12
sS'label'
p13
S'municipality'
p14
sS'range'
p15
S'Populated Place '
p16
sS'uniq_subjs'
p17
S'1378'
p18
sS'uniq_objs'
p19
I0
sS'prop_uri'
p20
S'http://dbpedia.org/ontology/municipality'
p21
sS'annotations'
p22
(dp23
S'bag_of_words'
p24
(lp25
S'municipality'
p26
aS'Populated'
p27
aS'Place'
p28
aS'30802918'
p29
asS'chunk_seq'
p30
(lp31
S'B-NP'
p32
aS'I-NP'
p33
aS'I-NP'
p34
aS'E-NP'
p35
asS'dep_seq'
p36
(lp37
(lp38
S'nn'
p39
aS'4'
aS'1'
aa(lp40
S'amod'
p41
aS'4'
aS'2'
aa(lp42
S'nn'
p43
aS'4'
aS'3'
aa(lp44
S'root'
p45
aS'0'
aS'4'
aasS'srls'
p46
(lp47
sS'pos_seq'
p48
(lp49
S'NN'
p50
aS'JJ'
p51
aS'NN'
p52
aS'NN'
p53
asS'ner_seq'
p54
(lp55
S'O'
aS'O'
aS'O'
aS'O'
assb.