ccopy_reg
_reconstructor
p1
(c__main__
KBproperty
p2
c__builtin__
object
p3
NtRp4
(dp5
S'comment'
p6
S'The end location of the route.206162'
p7
sS'domain'
p8
S'Route Of Transportation '
p9
sS'instances_count'
p10
I192
sS'phrases'
p11
NsS'syn_hypo'
p12
S''
sS'label'
p13
S'route end location'
p14
sS'range'
p15
S'Place '
p16
sS'uniq_subjs'
p17
S'192'
p18
sS'uniq_objs'
p19
I0
sS'prop_uri'
p20
S'http://dbpedia.org/ontology/routeEndLocation'
p21
sS'annotations'
p22
(dp23
S'bag_of_words'
p24
(lp25
S'Route'
p26
aS'Of'
p27
aS'Transportation'
p28
aS'route'
p29
aS'end'
p30
aS'location'
p31
aS'Place'
p32
aS'The'
p33
aS'end'
p34
aS'location'
p35
aS'of'
p36
aS'the'
p37
aS'route.206162'
p38
asS'chunk_seq'
p39
(lp40
S'S-NP'
p41
aS'S-PP'
p42
aS'B-NP'
p43
aS'I-NP'
p44
aS'I-NP'
p45
aS'I-NP'
p46
aS'E-NP'
p47
aS'B-NP'
p48
aS'I-NP'
p49
aS'E-NP'
p50
aS'S-PP'
p51
aS'B-NP'
p52
aS'E-NP'
p53
asS'dep_seq'
p54
(lp55
(lp56
S'dep'
p57
aS'10'
p58
aS'1'
aa(lp59
S'prep_of'
p60
aS'1'
aS'3'
aa(lp61
S'nn'
p62
aS'7'
aS'4'
aa(lp63
S'nn'
p64
aS'7'
aS'5'
aa(lp65
S'nn'
p66
aS'7'
aS'6'
aa(lp67
S'dep'
p68
aS'10'
p69
aS'7'
aa(lp70
S'det'
p71
aS'10'
p72
aS'8'
aa(lp73
S'nn'
p74
aS'10'
p75
aS'9'
aa(lp76
S'root'
p77
aS'0'
aS'10'
p78
aa(lp79
S'det'
p80
aS'13'
p81
aS'12'
p82
aa(lp83
S'prep_of'
p84
aS'10'
p85
aS'13'
p86
aasS'srls'
p87
(lp88
sS'pos_seq'
p89
(lp90
S'NNP'
p91
aS'IN'
p92
aS'NNP'
p93
aS'NN'
p94
aS'NN'
p95
aS'NN'
p96
aS'NN'
p97
aS'DT'
p98
aS'NN'
p99
aS'NN'
p100
aS'IN'
p101
aS'DT'
p102
aS'NN'
p103
asS'ner_seq'
p104
(lp105
S'B-ORG'
p106
aS'I-ORG'
p107
aS'E-ORG'
p108
aS'O'
aS'O'
aS'O'
aS'O'
aS'O'
aS'O'
aS'O'
aS'O'
aS'O'
aS'O'
assb.