ccopy_reg
_reconstructor
p1
(c__main__
KBproperty
p2
c__builtin__
object
p3
NtRp4
(dp5
S'comment'
p6
S'order taxonomy'
p7
sS'domain'
p8
S'Species '
p9
sS'instances_count'
p10
I2196
sS'phrases'
p11
NsS'syn_hypo'
p12
S''
sS'label'
p13
g7
sS'range'
p14
S''
sS'uniq_subjs'
p15
S'2196'
p16
sS'uniq_objs'
p17
I0
sS'prop_uri'
p18
S'http://dbpedia.org/ontology/order'
p19
sS'annotations'
p20
(dp21
S'bag_of_words'
p22
(lp23
S'Species'
p24
aS'order'
p25
aS'order'
p26
aS'taxonomy'
p27
asS'chunk_seq'
p28
(lp29
S'S-NP'
p30
aS'O'
aS'O'
aS'S-NP'
p31
asS'dep_seq'
p32
(lp33
(lp34
S'nsubj'
p35
aS'2'
aS'1'
aa(lp36
S'root'
p37
aS'0'
aS'2'
aa(lp38
S'nn'
p39
aS'4'
aS'3'
aa(lp40
S'dobj'
p41
aS'2'
aS'4'
aasS'srls'
p42
(lp43
sS'pos_seq'
p44
(lp45
S'NNS'
p46
aS'VBP'
p47
aS'NN'
p48
aS'NN'
p49
asS'ner_seq'
p50
(lp51
S'O'
aS'O'
aS'O'
aS'O'
assb.