ccopy_reg
_reconstructor
p1
(c__main__
KBproperty
p2
c__builtin__
object
p3
NtRp4
(dp5
S'comment'
p6
S'Number of passengers per day.889790'
p7
sS'domain'
p8
S'Infrastructure '
p9
sS'instances_count'
p10
I723
sS'phrases'
p11
NsS'syn_hypo'
p12
S''
sS'label'
p13
S'passengers per day'
p14
sS'range'
p15
S'non Negative Integer '
p16
sS'uniq_subjs'
p17
S'723'
p18
sS'uniq_objs'
p19
I0
sS'prop_uri'
p20
S'http://dbpedia.org/ontology/passengersPerDay'
p21
sS'annotations'
p22
(dp23
S'bag_of_words'
p24
(lp25
S'Infrastructure'
p26
aS'passengers'
p27
aS'per'
p28
aS'day'
p29
aS'non'
p30
aS'Negative'
p31
aS'Integer'
p32
aS'Number'
p33
aS'of'
p34
aS'passengers'
p35
aS'per'
p36
aS'day.889790'
p37
asS'chunk_seq'
p38
(lp39
S'B-NP'
p40
aS'E-NP'
p41
aS'S-PP'
p42
aS'B-NP'
p43
aS'I-NP'
p44
aS'I-NP'
p45
aS'I-NP'
p46
aS'E-NP'
p47
aS'S-PP'
p48
aS'S-NP'
p49
aS'S-PP'
p50
aS'S-NP'
p51
asS'dep_seq'
p52
(lp53
(lp54
S'nn'
p55
aS'2'
aS'1'
aa(lp56
S'dep'
p57
aS'8'
aS'2'
aa(lp58
S'prep_per'
p59
aS'2'
aS'4'
aa(lp60
S'amod'
p61
aS'8'
aS'5'
aa(lp62
S'nn'
p63
aS'8'
aS'6'
aa(lp64
S'nn'
p65
aS'8'
aS'7'
aa(lp66
S'root'
p67
aS'0'
aS'8'
aa(lp68
S'prep_of'
p69
aS'8'
aS'10'
p70
aa(lp71
S'prep_per'
p72
aS'10'
p73
aS'12'
p74
aasS'srls'
p75
(lp76
sS'pos_seq'
p77
(lp78
S'NN'
p79
aS'NNS'
p80
aS'IN'
p81
aS'NN'
p82
aS'JJ'
p83
aS'NNP'
p84
aS'NNP'
p85
aS'NNP'
p86
aS'IN'
p87
aS'NNS'
p88
aS'IN'
p89
aS'NN'
p90
asS'ner_seq'
p91
(lp92
S'O'
aS'O'
aS'O'
aS'O'
aS'O'
aS'O'
aS'O'
aS'O'
aS'O'
aS'O'
aS'O'
aS'O'
assb.