ccopy_reg
_reconstructor
p1
(c__main__
KBproperty
p2
c__builtin__
object
p3
NtRp4
(dp5
S'comment'
p6
S'A bishopric diocese or episcopal see is a district under the supervision of a bishop. It is divided into parishes. Compare with eparchy00'
p7
sS'domain'
p8
S'Religious Building '
p9
sS'instances_count'
p10
I0
sS'phrases'
p11
NsS'syn_hypo'
p12
Varchdiocesediocesebishopricepiscopateeparchydiocesebishopricepiscopateexarchate
p13
sS'label'
p14
S'bishopric'
p15
sS'range'
p16
S''
sS'uniq_subjs'
p17
S'0'
sS'uniq_objs'
p18
I0
sS'prop_uri'
p19
S'http://dbpedia.org/ontology/bishopric'
p20
sS'annotations'
p21
(dp22
S'bag_of_words'
p23
(lp24
S'Religious'
p25
aS'Building'
p26
aS'bishopric'
p27
aS'A'
aS'bishopric'
p28
aS'diocese'
p29
aS'or'
p30
aS'episcopal'
p31
aS'see'
p32
aS'is'
p33
aS'a'
aS'district'
p34
aS'under'
p35
aS'the'
p36
aS'supervision'
p37
aS'of'
p38
aS'a'
aS'bishop'
p39
aS'.'
aS'It'
p40
aS'is'
p41
aS'divided'
p42
aS'into'
p43
aS'parishes'
p44
aS'.'
aS'Compare'
p45
aS'with'
p46
aS'eparchy00'
p47
asS'chunk_seq'
p48
(lp49
S'B-NP'
p50
aS'I-NP'
p51
aS'E-NP'
p52
aS'B-NP'
p53
aS'I-NP'
p54
aS'E-NP'
p55
aS'O'
aS'B-NP'
p56
aS'E-NP'
p57
aS'S-VP'
p58
aS'B-NP'
p59
aS'E-NP'
p60
aS'S-PP'
p61
aS'B-NP'
p62
aS'E-NP'
p63
aS'S-PP'
p64
aS'B-NP'
p65
aS'E-NP'
p66
aS'O'
aS'S-NP'
p67
aS'B-VP'
p68
aS'E-VP'
p69
aS'S-PP'
p70
aS'S-NP'
p71
aS'O'
aS'S-VP'
p72
aS'S-PP'
p73
aS'S-NP'
p74
asS'dep_seq'
p75
(lp76
(lp77
S'nn'
p78
aS'3'
aS'1'
aa(lp79
S'nn'
p80
aS'3'
aS'2'
aa(lp81
S'nsubj'
p82
aS'12'
p83
aS'3'
aa(lp84
S'det'
p85
aS'6'
aS'4'
aa(lp86
S'nn'
p87
aS'6'
aS'5'
aa(lp88
S'nsubj'
p89
aS'12'
p90
aS'6'
aa(lp91
S'amod'
p92
aS'9'
aS'8'
aa(lp93
S'conj_or'
p94
aS'6'
aS'9'
aa(lp95
S'cop'
p96
aS'12'
p97
aS'10'
p98
aa(lp99
S'det'
p100
aS'12'
p101
aS'11'
p102
aa(lp103
S'root'
p104
aS'0'
aS'12'
p105
aa(lp106
S'det'
p107
aS'15'
p108
aS'14'
p109
aa(lp110
S'prep_under'
p111
aS'12'
p112
aS'15'
p113
aa(lp114
S'det'
p115
aS'18'
p116
aS'17'
p117
aa(lp118
S'prep_of'
p119
aS'15'
p120
aS'18'
p121
aa(lp122
S'nsubjpass'
p123
aS'22'
p124
aS'20'
p125
aa(lp126
S'auxpass'
p127
aS'22'
p128
aS'21'
p129
aa(lp130
S'ccomp'
p131
aS'12'
p132
aS'22'
p133
aa(lp134
S'parataxis'
p135
aS'12'
p136
aS'22'
p137
aa(lp138
S'prep_into'
p139
aS'22'
p140
aS'24'
p141
aa(lp142
S'parataxis'
p143
aS'12'
p144
aS'26'
p145
aa(lp146
S'prep_with'
p147
aS'26'
p148
aS'28'
p149
aasS'srls'
p150
(lp151
(dp152
S'A1'
p153
g40
sS'AM-ADV'
p154
S'Compare with eparchy00'
p155
sS'A2'
p156
S'into parishes'
p157
sS'V'
g42
sa(dp158
S'A2'
p159
S'with eparchy00'
p160
sS'V'
g45
sasS'pos_seq'
p161
(lp162
S'NNP'
p163
aS'NNP'
p164
aS'NN'
p165
aS'DT'
p166
aS'NN'
p167
aS'NN'
p168
aS'CC'
p169
aS'JJ'
p170
aS'NN'
p171
aS'VBZ'
p172
aS'DT'
p173
aS'NN'
p174
aS'IN'
p175
aS'DT'
p176
aS'NN'
p177
aS'IN'
p178
aS'DT'
p179
aS'NN'
p180
aS'.'
aS'PRP'
p181
aS'VBZ'
p182
aS'VBN'
p183
aS'IN'
p184
aS'NNS'
p185
aS'.'
aS'VB'
p186
aS'IN'
p187
aS'NN'
p188
asS'ner_seq'
p189
(lp190
S'O'
aS'O'
aS'O'
aS'O'
aS'O'
aS'O'
aS'O'
aS'O'
aS'O'
aS'O'
aS'O'
aS'O'
aS'O'
aS'O'
aS'O'
aS'O'
aS'O'
aS'O'
aS'O'
aS'O'
aS'O'
aS'O'
aS'O'
aS'O'
aS'O'
aS'O'
aS'O'
aS'O'
assb.