ccopy_reg
_reconstructor
p1
(c__main__
KBproperty
p2
c__builtin__
object
p3
NtRp4
(dp5
S'comment'
p6
S'00'
p7
sS'domain'
p8
S'Person '
p9
sS'instances_count'
p10
I0
sS'phrases'
p11
NsS'syn_hypo'
p12
V
sS'label'
p13
S'patent'
p14
sS'range'
p15
S''
sS'uniq_subjs'
p16
S'0'
sS'uniq_objs'
p17
I0
sS'prop_uri'
p18
S'http://dbpedia.org/ontology/patent'
p19
sS'annotations'
p20
(dp21
S'bag_of_words'
p22
(lp23
S'Person'
p24
aS'patent'
p25
aS'00'
p26
asS'chunk_seq'
p27
(lp28
S'B-NP'
p29
aS'E-NP'
p30
aS'O'
asS'dep_seq'
p31
(lp32
(lp33
S'nn'
p34
aS'2'
aS'1'
aa(lp35
S'root'
p36
aS'0'
aS'2'
aa(lp37
S'advmod'
p38
aS'2'
aS'3'
aasS'srls'
p39
(lp40
sS'pos_seq'
p41
(lp42
S'NN'
p43
aS'NN'
p44
aS'CD'
p45
asS'ner_seq'
p46
(lp47
S'O'
aS'O'
aS'O'
assb.