ccopy_reg
_reconstructor
p1
(c__main__
KBproperty
p2
c__builtin__
object
p3
NtRp4
(dp5
S'comment'
p6
S'The term of the on-going session e.g.: "40th Canadian Parliament".581558'
p7
sS'domain'
p8
S'Legislature '
p9
sS'instances_count'
p10
I353
sS'phrases'
p11
NsS'syn_hypo'
p12
S''
sS'label'
p13
S'legislative period name'
p14
sS'range'
p15
S'string '
p16
sS'uniq_subjs'
p17
S'353'
p18
sS'uniq_objs'
p19
I0
sS'prop_uri'
p20
S'http://dbpedia.org/ontology/legislativePeriodName'
p21
sS'annotations'
p22
(dp23
S'bag_of_words'
p24
(lp25
S'Legislature'
p26
aS'legislative'
p27
aS'period'
p28
aS'name'
p29
aS'string'
p30
aS'The'
p31
aS'term'
p32
aS'of'
p33
aS'the'
p34
aS'on-going'
p35
aS'session'
p36
aS'e.g.'
p37
aS':'
aS'"'
aS'40th'
p38
aS'Canadian'
p39
aS'Parliament'
p40
aS'"'
aS'.581558'
p41
asS'chunk_seq'
p42
(lp43
S'B-NP'
p44
aS'I-NP'
p45
aS'I-NP'
p46
aS'I-NP'
p47
aS'E-NP'
p48
aS'B-NP'
p49
aS'E-NP'
p50
aS'S-PP'
p51
aS'B-NP'
p52
aS'I-NP'
p53
aS'E-NP'
p54
aS'S-ADVP'
p55
aS'O'
aS'B-NP'
p56
aS'I-NP'
p57
aS'I-NP'
p58
aS'I-NP'
p59
aS'I-NP'
p60
aS'E-NP'
p61
asS'dep_seq'
p62
(lp63
(lp64
S'nn'
p65
aS'5'
aS'1'
aa(lp66
S'amod'
p67
aS'5'
aS'2'
aa(lp68
S'nn'
p69
aS'5'
aS'3'
aa(lp70
S'nn'
p71
aS'5'
aS'4'
aa(lp72
S'root'
p73
aS'0'
aS'5'
aa(lp74
S'det'
p75
aS'7'
aS'6'
aa(lp76
S'dep'
p77
aS'5'
aS'7'
aa(lp78
S'det'
p79
aS'11'
p80
aS'9'
aa(lp81
S'amod'
p82
aS'11'
p83
aS'going'
p84
aa(lp85
S'prep_of'
p86
aS'7'
aS'11'
p87
aa(lp88
S'advmod'
p89
aS'5'
aS'12'
p90
aa(lp91
S'amod'
p92
aS'19'
p93
aS'14'
p94
aa(lp95
S'amod'
p96
aS'19'
p97
aS'15'
p98
aa(lp99
S'nn'
p100
aS'19'
p101
aS'16'
p102
aa(lp103
S'nn'
p104
aS'19'
p105
aS'17'
p106
aa(lp107
S'amod'
p108
aS'19'
p109
aS'18'
p110
aa(lp111
S'dep'
p112
aS'5'
aS'19'
p113
aasS'srls'
p114
(lp115
sS'pos_seq'
p116
(lp117
S'NN'
p118
aS'JJ'
p119
aS'NN'
p120
aS'NN'
p121
aS'NN'
p122
aS'DT'
p123
aS'NN'
p124
aS'IN'
p125
aS'DT'
p126
aS'JJ'
p127
aS'NN'
p128
aS'RB'
p129
aS':'
aS'JJ'
p130
aS'JJ'
p131
aS'NNP'
p132
aS'NNP'
p133
aS'JJ'
p134
aS'NN'
p135
asS'ner_seq'
p136
(lp137
S'O'
aS'O'
aS'O'
aS'O'
aS'O'
aS'O'
aS'O'
aS'O'
aS'O'
aS'O'
aS'O'
aS'O'
aS'O'
aS'O'
aS'O'
aS'S-MISC'
p138
aS'O'
aS'O'
aS'O'
assb.