ccopy_reg
_reconstructor
p1
(c__main__
KBproperty
p2
c__builtin__
object
p3
NtRp4
(dp5
S'comment'
p6
S'Publisher of a work. For literal string use dc:publisher; for object URL use publisher6409157059'
p7
sS'domain'
p8
S'Work '
p9
sS'instances_count'
p10
I9180
sS'phrases'
p11
NsS'syn_hypo'
p12
Vmagazinepublisherpublishing_housepublishing_firmpublishing_companymagazine_publisherpublisherpublishing_housepublishing_firmpublishing_companynewspaperpublisherpublishing_housepublishing_firmpublishing_companypaperpublisherpublishing_housepublishing_firmpublishing_companynewspaper_publisher
p13
sS'label'
p14
S'publisher'
p15
sS'range'
p16
S'Agent '
p17
sS'uniq_subjs'
p18
S'9180'
p19
sS'uniq_objs'
p20
I0
sS'prop_uri'
p21
S'http://dbpedia.org/ontology/publisher'
p22
sS'annotations'
p23
(dp24
S'bag_of_words'
p25
(lp26
S'Work'
p27
aS'publisher'
p28
aS'Agent'
p29
aS'Publisher'
p30
aS'of'
p31
aS'a'
aS'work.'
p32
aS'For'
p33
aS'literal'
p34
aS'string'
p35
aS'use'
p36
aS'dc'
p37
aS':'
aS'publisher'
p38
aS';'
aS'for'
p39
aS'object'
p40
aS'URL'
p41
aS'use'
p42
aS'publisher6409157059'
p43
asS'chunk_seq'
p44
(lp45
S'B-NP'
p46
aS'I-NP'
p47
aS'I-NP'
p48
aS'E-NP'
p49
aS'S-PP'
p50
aS'B-NP'
p51
aS'E-NP'
p52
aS'S-PP'
p53
aS'B-NP'
p54
aS'I-NP'
p55
aS'I-NP'
p56
aS'E-NP'
p57
aS'O'
aS'S-NP'
p58
aS'O'
aS'S-PP'
p59
aS'B-NP'
p60
aS'I-NP'
p61
aS'E-NP'
p62
aS'S-ADJP'
p63
asS'dep_seq'
p64
(lp65
(lp66
S'nn'
p67
aS'4'
aS'1'
aa(lp68
S'nn'
p69
aS'4'
aS'2'
aa(lp70
S'nn'
p71
aS'4'
aS'3'
aa(lp72
S'root'
p73
aS'0'
aS'4'
aa(lp74
S'det'
p75
aS'7'
aS'6'
aa(lp76
S'prep_of'
p77
aS'4'
aS'7'
aa(lp78
S'amod'
p79
aS'12'
p80
aS'9'
aa(lp81
S'nn'
p82
aS'12'
p83
aS'10'
p84
aa(lp85
S'nn'
p86
aS'12'
p87
aS'11'
p88
aa(lp89
S'prep_for'
p90
aS'7'
aS'12'
p91
aa(lp92
S'dep'
p93
aS'4'
aS'14'
p94
aa(lp95
S'nn'
p96
aS'19'
p97
aS'17'
p98
aa(lp99
S'nn'
p100
aS'19'
p101
aS'18'
p102
aa(lp103
S'prep_for'
p104
aS'14'
p105
aS'19'
p106
aa(lp107
S'punct'
p108
aS'19'
p109
aS'20'
p110
aasS'srls'
p111
(lp112
sS'pos_seq'
p113
(lp114
S'NN'
p115
aS'NN'
p116
aS'NNP'
p117
aS'NNP'
p118
aS'IN'
p119
aS'DT'
p120
aS'NNS'
p121
aS'IN'
p122
aS'JJ'
p123
aS'NN'
p124
aS'NN'
p125
aS'NN'
p126
aS':'
aS'NN'
p127
aS':'
aS'IN'
p128
aS'NN'
p129
aS'NNP'
p130
aS'NN'
p131
aS'.'
asS'ner_seq'
p132
(lp133
S'O'
aS'O'
aS'O'
aS'O'
aS'O'
aS'O'
aS'O'
aS'O'
aS'O'
aS'O'
aS'O'
aS'O'
aS'O'
aS'O'
aS'O'
aS'O'
aS'O'
aS'O'
aS'O'
aS'O'
assb.