ccopy_reg
_reconstructor
p1
(c__main__
KBproperty
p2
c__builtin__
object
p3
NtRp4
(dp5
S'comment'
p6
S'FDA Unique Ingredient Identifier UNII code for a DBpedia Drug35353533'
p7
sS'domain'
p8
S''
sS'instances_count'
p9
I3526
sS'phrases'
p10
NsS'syn_hypo'
p11
S''
sS'label'
p12
S'FDA UNII code'
p13
sS'range'
p14
S'string '
p15
sS'uniq_subjs'
p16
S'3526'
p17
sS'uniq_objs'
p18
I0
sS'prop_uri'
p19
S'http://dbpedia.org/ontology/fdaUniiCode'
p20
sS'annotations'
p21
(dp22
S'bag_of_words'
p23
(lp24
S'FDA'
p25
aS'UNII'
p26
aS'code'
p27
aS'string'
p28
aS'FDA'
p29
aS'Unique'
p30
aS'Ingredient'
p31
aS'Identifier'
p32
aS'UNII'
p33
aS'code'
p34
aS'for'
p35
aS'a'
aS'DBpedia'
p36
aS'Drug35353533'
p37
asS'chunk_seq'
p38
(lp39
S'B-NP'
p40
aS'I-NP'
p41
aS'I-NP'
p42
aS'I-NP'
p43
aS'I-NP'
p44
aS'I-NP'
p45
aS'I-NP'
p46
aS'I-NP'
p47
aS'I-NP'
p48
aS'E-NP'
p49
aS'S-PP'
p50
aS'B-NP'
p51
aS'I-NP'
p52
aS'E-NP'
p53
asS'dep_seq'
p54
(lp55
(lp56
S'nn'
p57
aS'10'
p58
aS'1'
aa(lp59
S'nn'
p60
aS'10'
p61
aS'2'
aa(lp62
S'nn'
p63
aS'10'
p64
aS'3'
aa(lp65
S'nn'
p66
aS'10'
p67
aS'4'
aa(lp68
S'nn'
p69
aS'10'
p70
aS'5'
aa(lp71
S'amod'
p72
aS'10'
p73
aS'6'
aa(lp74
S'nn'
p75
aS'10'
p76
aS'7'
aa(lp77
S'nn'
p78
aS'10'
p79
aS'8'
aa(lp80
S'nn'
p81
aS'10'
p82
aS'9'
aa(lp83
S'root'
p84
aS'0'
aS'10'
p85
aa(lp86
S'det'
p87
aS'14'
p88
aS'12'
p89
aa(lp90
S'nn'
p91
aS'14'
p92
aS'13'
p93
aa(lp94
S'prep_for'
p95
aS'10'
p96
aS'14'
p97
aasS'srls'
p98
(lp99
sS'pos_seq'
p100
(lp101
S'NNP'
p102
aS'NNP'
p103
aS'NN'
p104
aS'NN'
p105
aS'NNP'
p106
aS'JJ'
p107
aS'NN'
p108
aS'NNP'
p109
aS'NNP'
p110
aS'NN'
p111
aS'IN'
p112
aS'DT'
p113
aS'NNP'
p114
aS'NNP'
p115
asS'ner_seq'
p116
(lp117
S'O'
aS'O'
aS'O'
aS'O'
aS'O'
aS'O'
aS'O'
aS'O'
aS'S-ORG'
p118
aS'O'
aS'O'
aS'O'
aS'B-ORG'
p119
aS'E-ORG'
p120
assb.