ccopy_reg
_reconstructor
p1
(c__main__
KBproperty
p2
c__builtin__
object
p3
NtRp4
(dp5
S'comment'
p6
S'40943766'
p7
sS'domain'
p8
S'Mean Of Transportation '
p9
sS'instances_count'
p10
I247
sS'phrases'
p11
NsS'syn_hypo'
p12
S''
sS'label'
p13
S'power type'
p14
sS'range'
p15
S''
sS'uniq_subjs'
p16
S'247'
p17
sS'uniq_objs'
p18
I0
sS'prop_uri'
p19
S'http://dbpedia.org/ontology/powerType'
p20
sS'annotations'
p21
(dp22
S'bag_of_words'
p23
(lp24
S'Mean'
p25
aS'Of'
p26
aS'Transportation'
p27
aS'power'
p28
aS'type'
p29
aS'40943766'
p30
asS'chunk_seq'
p31
(lp32
S'S-NP'
p33
aS'S-PP'
p34
aS'B-NP'
p35
aS'I-NP'
p36
aS'I-NP'
p37
aS'E-NP'
p38
asS'dep_seq'
p39
(lp40
(lp41
S'root'
p42
aS'0'
aS'1'
aa(lp43
S'nn'
p44
aS'6'
aS'3'
aa(lp45
S'nn'
p46
aS'6'
aS'4'
aa(lp47
S'nn'
p48
aS'6'
aS'5'
aa(lp49
S'prep_of'
p50
aS'1'
aS'6'
aasS'srls'
p51
(lp52
sS'pos_seq'
p53
(lp54
S'NNP'
p55
aS'IN'
p56
aS'NNP'
p57
aS'NN'
p58
aS'NN'
p59
aS'NN'
p60
asS'ner_seq'
p61
(lp62
S'O'
aS'B-ORG'
p63
aS'E-ORG'
p64
aS'O'
aS'O'
aS'O'
assb.