ccopy_reg
_reconstructor
p1
(c__main__
KBproperty
p2
c__builtin__
object
p3
NtRp4
(dp5
S'comment'
p6
S'The part of the project budget that is funded by the Organistaions given in the "FundedBy" property.55'
p7
sS'domain'
p8
S'Research Project '
p9
sS'instances_count'
p10
I5
sS'phrases'
p11
NsS'syn_hypo'
p12
S''
sS'label'
p13
S'project budget funding $'
p14
sS'range'
p15
S'double '
p16
sS'uniq_subjs'
p17
S'5'
sS'uniq_objs'
p18
I0
sS'prop_uri'
p19
S'http://dbpedia.org/ontology/projectBudgetFunding'
p20
sS'annotations'
p21
(dp22
S'bag_of_words'
p23
(lp24
S'Research'
p25
aS'Project'
p26
aS'project'
p27
aS'budget'
p28
aS'funding'
p29
aS'$'
aS'double'
p30
aS'The'
p31
aS'part'
p32
aS'of'
p33
aS'the'
p34
aS'project'
p35
aS'budget'
p36
aS'that'
p37
aS'is'
p38
aS'funded'
p39
aS'by'
p40
aS'the'
p41
aS'Organistaions'
p42
aS'given'
p43
aS'in'
p44
aS'the'
p45
aS'"'
aS'FundedBy'
p46
aS'"'
aS'property.55'
p47
asS'chunk_seq'
p48
(lp49
S'B-NP'
p50
aS'I-NP'
p51
aS'I-NP'
p52
aS'I-NP'
p53
aS'E-NP'
p54
aS'B-NP'
p55
aS'I-NP'
p56
aS'I-NP'
p57
aS'E-NP'
p58
aS'S-PP'
p59
aS'B-NP'
p60
aS'I-NP'
p61
aS'E-NP'
p62
aS'S-NP'
p63
aS'B-VP'
p64
aS'E-VP'
p65
aS'S-PP'
p66
aS'B-NP'
p67
aS'E-NP'
p68
aS'S-PP'
p69
aS'S-PP'
p70
aS'B-NP'
p71
aS'I-NP'
p72
aS'I-NP'
p73
aS'I-NP'
p74
aS'E-NP'
p75
asS'dep_seq'
p76
(lp77
(lp78
S'nn'
p79
aS'4'
aS'1'
aa(lp80
S'nn'
p81
aS'4'
aS'2'
aa(lp82
S'nn'
p83
aS'4'
aS'3'
aa(lp84
S'nsubj'
p85
aS'5'
aS'4'
aa(lp86
S'root'
p87
aS'0'
aS'5'
aa(lp88
S'amod'
p89
aS'9'
aS'6'
aa(lp90
S'dep'
p91
aS'6'
aS'7'
aa(lp92
S'det'
p93
aS'9'
aS'8'
aa(lp94
S'dobj'
p95
aS'5'
aS'9'
aa(lp96
S'det'
p97
aS'13'
p98
aS'11'
p99
aa(lp100
S'nn'
p101
aS'13'
p102
aS'12'
p103
aa(lp104
S'prep_of'
p105
aS'9'
aS'13'
p106
aa(lp107
S'nsubjpass'
p108
aS'16'
p109
aS'13'
p110
aa(lp111
S'auxpass'
p112
aS'16'
p113
aS'15'
p114
aa(lp115
S'rcmod'
p116
aS'13'
p117
aS'16'
p118
aa(lp119
S'det'
p120
aS'19'
p121
aS'18'
p122
aa(lp123
S'agent'
p124
aS'16'
p125
aS'19'
p126
aa(lp127
S'prep'
p128
aS'16'
p129
aS'20'
p130
aa(lp131
S'pcomp'
p132
aS'20'
p133
aS'21'
p134
aa(lp135
S'det'
p136
aS'26'
p137
aS'22'
p138
aa(lp139
S'nn'
p140
aS'26'
p141
aS'23'
p142
aa(lp143
S'nn'
p144
aS'26'
p145
aS'24'
p146
aa(lp147
S'nn'
p148
aS'26'
p149
aS'25'
p150
aa(lp151
S'pobj'
p152
aS'21'
p153
aS'26'
p154
aasS'srls'
p155
(lp156
(dp157
S'A1'
p158
S'$ double The part of the project budget that is funded by the Organistaions given in the " FundedBy " property.55'
p159
sS'A0'
p160
S'Research Project project budget'
p161
sS'V'
g29
sa(dp162
S'A1'
p163
S'the project budget'
p164
sS'A0'
p165
S'by the Organistaions'
p166
sS'A2'
p167
S'in the " FundedBy " property.55'
p168
sS'R-A1'
p169
g37
sS'V'
g39
sa(dp170
S'A1'
p171
S'Research Project project budget funding $ double The part of the project budget that is funded by the Organistaions'
p172
sS'AM-LOC'
p173
S'in the " FundedBy " property.55'
p174
sS'V'
g43
sasS'pos_seq'
p175
(lp176
S'NNP'
p177
aS'NNP'
p178
aS'NN'
p179
aS'NN'
p180
aS'VBG'
p181
aS'$'
aS'JJ'
p182
aS'DT'
p183
aS'NN'
p184
aS'IN'
p185
aS'DT'
p186
aS'NN'
p187
aS'NN'
p188
aS'WDT'
p189
aS'VBZ'
p190
aS'VBN'
p191
aS'IN'
p192
aS'DT'
p193
aS'NNPS'
p194
aS'VBN'
p195
aS'IN'
p196
aS'DT'
p197
aS'FW'
p198
aS'FW'
p199
aS'FW'
p200
aS'FW'
p201
asS'ner_seq'
p202
(lp203
S'O'
aS'O'
aS'O'
aS'O'
aS'O'
aS'O'
aS'O'
aS'O'
aS'O'
aS'O'
aS'O'
aS'O'
aS'O'
aS'O'
aS'O'
aS'O'
aS'O'
aS'O'
aS'S-MISC'
p204
aS'O'
aS'O'
aS'O'
aS'O'
aS'S-MISC'
p205
aS'O'
aS'O'
assb.