ccopy_reg
_reconstructor
p1
(c__main__
KBproperty
p2
c__builtin__
object
p3
NtRp4
(dp5
S'comment'
p6
S'11'
p7
sS'domain'
p8
S''
sS'instances_count'
p9
I1
sS'phrases'
p10
NsS'syn_hypo'
p11
S''
sS'label'
p12
S'rebuild date'
p13
sS'range'
p14
S'date '
p15
sS'uniq_subjs'
p16
S'1'
sS'uniq_objs'
p17
I0
sS'prop_uri'
p18
S'http://dbpedia.org/ontology/rebuildDate'
p19
sS'annotations'
p20
(dp21
S'bag_of_words'
p22
(lp23
S'rebuild'
p24
aS'date'
p25
aS'date'
p26
aS'11'
p27
asS'chunk_seq'
p28
(lp29
S'S-VP'
p30
aS'B-NP'
p31
aS'E-NP'
p32
aS'S-NP'
p33
asS'dep_seq'
p34
(lp35
(lp36
S'root'
p37
aS'0'
aS'1'
aa(lp38
S'nn'
p39
aS'3'
aS'2'
aa(lp40
S'iobj'
p41
aS'1'
aS'3'
aa(lp42
S'dobj'
p43
aS'1'
aS'4'
aasS'srls'
p44
(lp45
(dp46
S'A1'
p47
S'date date 11'
p48
sS'V'
g24
sasS'pos_seq'
p49
(lp50
S'VB'
p51
aS'NN'
p52
aS'NN'
p53
aS'NN'
p54
asS'ner_seq'
p55
(lp56
S'O'
aS'O'
aS'O'
aS'O'
assb.