ccopy_reg
_reconstructor
p1
(c__main__
KBproperty
p2
c__builtin__
object
p3
NtRp4
(dp5
S'comment'
p6
S'Designates the category of people commemorated by a monument00'
p7
sS'domain'
p8
S'Monument '
p9
sS'instances_count'
p10
I0
sS'phrases'
p11
NsS'syn_hypo'
p12
S''
sS'label'
p13
S'group commemorated'
p14
sS'range'
p15
S'string '
p16
sS'uniq_subjs'
p17
S'0'
sS'uniq_objs'
p18
I0
sS'prop_uri'
p19
S'http://dbpedia.org/ontology/groupCommemorated'
p20
sS'annotations'
p21
(dp22
S'bag_of_words'
p23
(lp24
S'Monument'
p25
aS'group'
p26
aS'commemorated'
p27
aS'string'
p28
aS'Designates'
p29
aS'the'
p30
aS'category'
p31
aS'of'
p32
aS'people'
p33
aS'commemorated'
p34
aS'by'
p35
aS'a'
aS'monument00'
p36
asS'chunk_seq'
p37
(lp38
S'B-NP'
p39
aS'E-NP'
p40
aS'S-VP'
p41
aS'S-NP'
p42
aS'S-VP'
p43
aS'B-NP'
p44
aS'E-NP'
p45
aS'S-PP'
p46
aS'S-NP'
p47
aS'S-VP'
p48
aS'S-PP'
p49
aS'B-NP'
p50
aS'E-NP'
p51
asS'dep_seq'
p52
(lp53
(lp54
S'nn'
p55
aS'2'
aS'1'
aa(lp56
S'nsubj'
p57
aS'3'
aS'2'
aa(lp58
S'root'
p59
aS'0'
aS'3'
aa(lp60
S'nsubj'
p61
aS'5'
aS'4'
aa(lp62
S'ccomp'
p63
aS'3'
aS'5'
aa(lp64
S'det'
p65
aS'7'
aS'6'
aa(lp66
S'dobj'
p67
aS'5'
aS'7'
aa(lp68
S'prep_of'
p69
aS'7'
aS'9'
aa(lp70
S'partmod'
p71
aS'9'
aS'10'
p72
aa(lp73
S'det'
p74
aS'13'
p75
aS'12'
p76
aa(lp77
S'agent'
p78
aS'10'
p79
aS'13'
p80
aasS'srls'
p81
(lp82
(dp83
S'A1'
p84
S'string Designates the category of people commemorated by a monument00'
p85
sS'A0'
p86
S'Monument group'
p87
sS'V'
g27
sa(dp88
S'A1'
p89
S'the category of people commemorated by a monument00'
p90
sS'A0'
p91
S'Monument group commemorated string'
p92
sS'V'
g29
sa(dp93
S'A1'
p94
g33
sS'A0'
p95
S'by a monument00'
p96
sS'V'
g34
sasS'pos_seq'
p97
(lp98
S'NN'
p99
aS'NN'
p100
aS'VBD'
p101
aS'NN'
p102
aS'VBZ'
p103
aS'DT'
p104
aS'NN'
p105
aS'IN'
p106
aS'NNS'
p107
aS'VBN'
p108
aS'IN'
p109
aS'DT'
p110
aS'NN'
p111
asS'ner_seq'
p112
(lp113
S'O'
aS'O'
aS'O'
aS'O'
aS'O'
aS'O'
aS'O'
aS'O'
aS'O'
aS'O'
aS'O'
aS'O'
aS'O'
assb.