ccopy_reg
_reconstructor
p1
(c__main__
KBproperty
p2
c__builtin__
object
p3
NtRp4
(dp5
S'comment'
p6
S'date disappearance of a populated place'
p7
sS'domain'
p8
S'Populated Place '
p9
sS'instances_count'
p10
I0
sS'phrases'
p11
NsS'syn_hypo'
p12
S''
sS'label'
p13
g7
sS'range'
p14
S'date '
p15
sS'uniq_subjs'
p16
S'0'
sS'uniq_objs'
p17
I0
sS'prop_uri'
p18
S'http://dbpedia.org/ontology/disappearanceDate'
p19
sS'annotations'
p20
(dp21
S'bag_of_words'
p22
(lp23
S'Populated'
p24
aS'Place'
p25
aS'disappearance'
p26
aS'Date'
p27
aS'date'
p28
aS'date'
p29
aS'disappearance'
p30
aS'of'
p31
aS'a'
aS'populated'
p32
aS'place'
p33
asS'chunk_seq'
p34
(lp35
S'B-NP'
p36
aS'I-NP'
p37
aS'I-NP'
p38
aS'E-NP'
p39
aS'S-VP'
p40
aS'B-NP'
p41
aS'E-NP'
p42
aS'S-PP'
p43
aS'B-NP'
p44
aS'I-NP'
p45
aS'E-NP'
p46
asS'dep_seq'
p47
(lp48
(lp49
S'amod'
p50
aS'7'
aS'1'
aa(lp51
S'nn'
p52
aS'7'
aS'2'
aa(lp53
S'nn'
p54
aS'7'
aS'3'
aa(lp55
S'nn'
p56
aS'7'
aS'4'
aa(lp57
S'nn'
p58
aS'7'
aS'5'
aa(lp59
S'nn'
p60
aS'7'
aS'6'
aa(lp61
S'root'
p62
aS'0'
aS'7'
aa(lp63
S'det'
p64
aS'11'
p65
aS'9'
aa(lp66
S'amod'
p67
aS'11'
p68
aS'10'
p69
aa(lp70
S'prep_of'
p71
aS'7'
aS'11'
p72
aasS'srls'
p73
(lp74
sS'pos_seq'
p75
(lp76
S'JJ'
p77
aS'NN'
p78
aS'NN'
p79
aS'NN'
p80
aS'NN'
p81
aS'NN'
p82
aS'NN'
p83
aS'IN'
p84
aS'DT'
p85
aS'JJ'
p86
aS'NN'
p87
asS'ner_seq'
p88
(lp89
S'O'
aS'O'
aS'O'
aS'O'
aS'O'
aS'O'
aS'O'
aS'O'
aS'O'
aS'O'
aS'O'
assb.