ccopy_reg
_reconstructor
p1
(c__main__
KBproperty
p2
c__builtin__
object
p3
NtRp4
(dp5
S'comment'
p6
S'The official colour of the EducationalInstitution represented by the colour name e.g.: red or green.1084710168'
p7
sS'domain'
p8
S'Educational Institution '
p9
sS'instances_count'
p10
I4947
sS'phrases'
p11
NsS'syn_hypo'
p12
S''
sS'label'
p13
S'official school colour'
p14
sS'range'
p15
S'string '
p16
sS'uniq_subjs'
p17
S'4947'
p18
sS'uniq_objs'
p19
I0
sS'prop_uri'
p20
S'http://dbpedia.org/ontology/officialSchoolColour'
p21
sS'annotations'
p22
(dp23
S'bag_of_words'
p24
(lp25
S'Educational'
p26
aS'Institution'
p27
aS'official'
p28
aS'school'
p29
aS'colour'
p30
aS'string'
p31
aS'The'
p32
aS'official'
p33
aS'colour'
p34
aS'of'
p35
aS'the'
p36
aS'EducationalInstitution'
p37
aS'represented'
p38
aS'by'
p39
aS'the'
p40
aS'colour'
p41
aS'name'
p42
aS'e.g.'
p43
aS':'
aS'red'
p44
aS'or'
p45
aS'green.1084710168'
p46
asS'chunk_seq'
p47
(lp48
S'B-NP'
p49
aS'I-NP'
p50
aS'I-NP'
p51
aS'I-NP'
p52
aS'I-NP'
p53
aS'E-NP'
p54
aS'B-NP'
p55
aS'I-NP'
p56
aS'E-NP'
p57
aS'S-PP'
p58
aS'B-NP'
p59
aS'E-NP'
p60
aS'S-VP'
p61
aS'S-PP'
p62
aS'B-NP'
p63
aS'I-NP'
p64
aS'E-NP'
p65
aS'S-ADVP'
p66
aS'O'
aS'B-NP'
p67
aS'I-NP'
p68
aS'E-NP'
p69
asS'dep_seq'
p70
(lp71
(lp72
S'nn'
p73
aS'6'
aS'1'
aa(lp74
S'nn'
p75
aS'6'
aS'2'
aa(lp76
S'amod'
p77
aS'6'
aS'3'
aa(lp78
S'nn'
p79
aS'6'
aS'4'
aa(lp80
S'nn'
p81
aS'6'
aS'5'
aa(lp82
S'dep'
p83
aS'9'
aS'6'
aa(lp84
S'det'
p85
aS'9'
aS'7'
aa(lp86
S'amod'
p87
aS'9'
aS'8'
aa(lp88
S'root'
p89
aS'0'
aS'9'
aa(lp90
S'det'
p91
aS'12'
p92
aS'11'
p93
aa(lp94
S'prep_of'
p95
aS'9'
aS'12'
p96
aa(lp97
S'partmod'
p98
aS'9'
aS'13'
p99
aa(lp100
S'det'
p101
aS'17'
p102
aS'15'
p103
aa(lp104
S'nn'
p105
aS'17'
p106
aS'16'
p107
aa(lp108
S'agent'
p109
aS'13'
p110
aS'17'
p111
aa(lp112
S'advmod'
p113
aS'13'
p114
aS'18'
p115
aa(lp116
S'dep'
p117
aS'9'
aS'20'
p118
aa(lp119
S'conj_or'
p120
aS'20'
p121
aS'22'
p122
aasS'srls'
p123
(lp124
(dp125
S'A0'
p126
S'by the colour name e.g. : red or green.1084710168'
p127
sS'V'
g38
sasS'pos_seq'
p128
(lp129
S'NNP'
p130
aS'NNP'
p131
aS'JJ'
p132
aS'NN'
p133
aS'NN'
p134
aS'NN'
p135
aS'DT'
p136
aS'JJ'
p137
aS'NN'
p138
aS'IN'
p139
aS'DT'
p140
aS'NNP'
p141
aS'VBN'
p142
aS'IN'
p143
aS'DT'
p144
aS'NN'
p145
aS'NN'
p146
aS'RB'
p147
aS':'
aS'JJ'
p148
aS'CC'
p149
aS'NN'
p150
asS'ner_seq'
p151
(lp152
S'B-ORG'
p153
aS'E-ORG'
p154
aS'O'
aS'O'
aS'O'
aS'O'
aS'O'
aS'O'
aS'O'
aS'O'
aS'O'
aS'S-PER'
p155
aS'O'
aS'O'
aS'O'
aS'O'
aS'O'
aS'O'
aS'O'
aS'O'
aS'O'
aS'O'
assb.