ccopy_reg
_reconstructor
p1
(c__main__
KBproperty
p2
c__builtin__
object
p3
NtRp4
(dp5
S'comment'
p6
S'The season number to which the TelevisionEpisode belongs.73747362'
p7
sS'domain'
p8
S'Television Episode '
p9
sS'instances_count'
p10
I41
sS'phrases'
p11
NsS'syn_hypo'
p12
S''
sS'label'
p13
S'season number'
p14
sS'range'
p15
S'non Negative Integer '
p16
sS'uniq_subjs'
p17
S'41'
p18
sS'uniq_objs'
p19
I0
sS'prop_uri'
p20
S'http://dbpedia.org/ontology/seasonNumber'
p21
sS'annotations'
p22
(dp23
S'bag_of_words'
p24
(lp25
S'Television'
p26
aS'Episode'
p27
aS'season'
p28
aS'number'
p29
aS'non'
p30
aS'Negative'
p31
aS'Integer'
p32
aS'The'
p33
aS'season'
p34
aS'number'
p35
aS'to'
p36
aS'which'
p37
aS'the'
p38
aS'TelevisionEpisode'
p39
aS'belongs.73747362'
p40
asS'chunk_seq'
p41
(lp42
S'B-NP'
p43
aS'I-NP'
p44
aS'I-NP'
p45
aS'E-NP'
p46
aS'B-NP'
p47
aS'I-NP'
p48
aS'E-NP'
p49
aS'B-NP'
p50
aS'I-NP'
p51
aS'E-NP'
p52
aS'S-PP'
p53
aS'S-NP'
p54
aS'B-NP'
p55
aS'I-NP'
p56
aS'E-NP'
p57
asS'dep_seq'
p58
(lp59
(lp60
S'nn'
p61
aS'4'
aS'1'
aa(lp62
S'nn'
p63
aS'4'
aS'2'
aa(lp64
S'nn'
p65
aS'4'
aS'3'
aa(lp66
S'dep'
p67
aS'10'
p68
aS'4'
aa(lp69
S'amod'
p70
aS'10'
p71
aS'5'
aa(lp72
S'amod'
p73
aS'10'
p74
aS'6'
aa(lp75
S'nn'
p76
aS'10'
p77
aS'7'
aa(lp78
S'det'
p79
aS'10'
p80
aS'8'
aa(lp81
S'nn'
p82
aS'10'
p83
aS'9'
aa(lp84
S'root'
p85
aS'0'
aS'10'
p86
aa(lp87
S'prep_to'
p88
aS'15'
p89
aS'12'
p90
aa(lp91
S'det'
p92
aS'15'
p93
aS'13'
p94
aa(lp95
S'nn'
p96
aS'15'
p97
aS'14'
p98
aa(lp99
S'prep'
p100
aS'10'
p101
aS'15'
p102
aasS'srls'
p103
(lp104
sS'pos_seq'
p105
(lp106
S'NN'
p107
aS'NN'
p108
aS'NN'
p109
aS'NN'
p110
aS'JJ'
p111
aS'JJ'
p112
aS'NN'
p113
aS'DT'
p114
aS'NN'
p115
aS'NN'
p116
aS'TO'
p117
aS'WDT'
p118
aS'DT'
p119
aS'NNP'
p120
aS'NN'
p121
asS'ner_seq'
p122
(lp123
S'O'
aS'O'
aS'O'
aS'O'
aS'O'
aS'O'
aS'O'
aS'O'
aS'O'
aS'O'
aS'O'
aS'O'
aS'O'
aS'S-MISC'
p124
aS'O'
assb.