ccopy_reg
_reconstructor
p1
(c__main__
KBproperty
p2
c__builtin__
object
p3
NtRp4
(dp5
S'comment'
p6
S'00'
p7
sS'domain'
p8
S'Ice Hockey Player '
p9
sS'instances_count'
p10
I0
sS'phrases'
p11
NsS'syn_hypo'
p12
S''
sS'label'
p13
S'khl draft team'
p14
sS'range'
p15
S'Hockey Team '
p16
sS'uniq_subjs'
p17
S'0'
sS'uniq_objs'
p18
I0
sS'prop_uri'
p19
S'http://dbpedia.org/ontology/khlDraftTeam'
p20
sS'annotations'
p21
(dp22
S'bag_of_words'
p23
(lp24
S'Ice'
p25
aS'Hockey'
p26
aS'Player'
p27
aS'khl'
p28
aS'draft'
p29
aS'team'
p30
aS'Hockey'
p31
aS'Team'
p32
aS'00'
p33
asS'chunk_seq'
p34
(lp35
S'B-NP'
p36
aS'I-NP'
p37
aS'I-NP'
p38
aS'I-NP'
p39
aS'I-NP'
p40
aS'I-NP'
p41
aS'I-NP'
p42
aS'E-NP'
p43
aS'S-ADVP'
p44
asS'dep_seq'
p45
(lp46
(lp47
S'nn'
p48
aS'3'
aS'1'
aa(lp49
S'nn'
p50
aS'3'
aS'2'
aa(lp51
S'nsubj'
p52
aS'5'
aS'3'
aa(lp53
S'dep'
p54
aS'5'
aS'4'
aa(lp55
S'root'
p56
aS'0'
aS'5'
aa(lp57
S'nn'
p58
aS'8'
aS'6'
aa(lp59
S'nn'
p60
aS'8'
aS'7'
aa(lp61
S'dobj'
p62
aS'5'
aS'8'
aa(lp63
S'num'
p64
aS'8'
aS'9'
aasS'srls'
p65
(lp66
sS'pos_seq'
p67
(lp68
S'NNP'
p69
aS'NNP'
p70
aS'NNP'
p71
aS'JJ'
p72
aS'NN'
p73
aS'NN'
p74
aS'NNP'
p75
aS'NNP'
p76
aS'CD'
p77
asS'ner_seq'
p78
(lp79
S'B-MISC'
p80
aS'I-MISC'
p81
aS'E-MISC'
p82
aS'O'
aS'O'
aS'O'
aS'B-ORG'
p83
aS'E-ORG'
p84
aS'O'
assb.