ccopy_reg
_reconstructor
p1
(c__main__
KBproperty
p2
c__builtin__
object
p3
NtRp4
(dp5
S'comment'
p6
S'Year visitor information was gathered.36683656'
p7
sS'domain'
p8
S'Architectural Structure '
p9
sS'instances_count'
p10
I35
sS'phrases'
p11
NsS'syn_hypo'
p12
S''
sS'label'
p13
S'visitor statistics as of'
p14
sS'range'
p15
S'g Year '
p16
sS'uniq_subjs'
p17
S'35'
p18
sS'uniq_objs'
p19
I0
sS'prop_uri'
p20
S'http://dbpedia.org/ontology/visitorStatisticsAsOf'
p21
sS'annotations'
p22
(dp23
S'bag_of_words'
p24
(lp25
S'Architectural'
p26
aS'Structure'
p27
aS'visitor'
p28
aS'statistics'
p29
aS'as'
p30
aS'of'
p31
aS'g'
aS'Year'
p32
aS'Year'
p33
aS'visitor'
p34
aS'information'
p35
aS'was'
p36
aS'gathered.36683656'
p37
asS'chunk_seq'
p38
(lp39
S'B-NP'
p40
aS'I-NP'
p41
aS'I-NP'
p42
aS'E-NP'
p43
aS'S-PP'
p44
aS'S-PP'
p45
aS'B-NP'
p46
aS'I-NP'
p47
aS'I-NP'
p48
aS'I-NP'
p49
aS'E-NP'
p50
aS'S-VP'
p51
aS'S-ADJP'
p52
asS'dep_seq'
p53
(lp54
(lp55
S'amod'
p56
aS'4'
aS'1'
aa(lp57
S'nn'
p58
aS'4'
aS'2'
aa(lp59
S'nn'
p60
aS'4'
aS'3'
aa(lp61
S'nsubj'
p62
aS'13'
p63
aS'4'
aa(lp64
S'prepc_as_of'
p65
aS'4'
aS'6'
aa(lp66
S'nn'
p67
aS'11'
p68
aS'7'
aa(lp69
S'nn'
p70
aS'11'
p71
aS'8'
aa(lp72
S'nn'
p73
aS'11'
p74
aS'9'
aa(lp75
S'nn'
p76
aS'11'
p77
aS'10'
p78
aa(lp79
S'pobj'
p80
aS'4'
aS'11'
p81
aa(lp82
S'cop'
p83
aS'13'
p84
aS'12'
p85
aa(lp86
S'root'
p87
aS'0'
aS'13'
p88
aasS'srls'
p89
(lp90
sS'pos_seq'
p91
(lp92
S'JJ'
p93
aS'NN'
p94
aS'NN'
p95
aS'NNS'
p96
aS'IN'
p97
aS'IN'
p98
aS'NN'
p99
aS'NN'
p100
aS'NN'
p101
aS'NN'
p102
aS'NN'
p103
aS'VBD'
p104
aS'NN'
p105
asS'ner_seq'
p106
(lp107
S'O'
aS'O'
aS'O'
aS'O'
aS'O'
aS'O'
aS'O'
aS'O'
aS'O'
aS'O'
aS'O'
aS'O'
aS'O'
assb.