ccopy_reg
_reconstructor
p1
(c__main__
KBproperty
p2
c__builtin__
object
p3
NtRp4
(dp5
S'comment'
p6
S'Initial use of the architectural structure.00'
p7
sS'domain'
p8
S'Architectural Structure '
p9
sS'instances_count'
p10
I0
sS'phrases'
p11
NsS'syn_hypo'
p12
S''
sS'label'
p13
S'initally used for'
p14
sS'range'
p15
S'string '
p16
sS'uniq_subjs'
p17
S'0'
sS'uniq_objs'
p18
I0
sS'prop_uri'
p19
S'http://dbpedia.org/ontology/initiallyUsedFor'
p20
sS'annotations'
p21
(dp22
S'bag_of_words'
p23
(lp24
S'Architectural'
p25
aS'Structure'
p26
aS'initally'
p27
aS'used'
p28
aS'for'
p29
aS'string'
p30
aS'Initial'
p31
aS'use'
p32
aS'of'
p33
aS'the'
p34
aS'architectural'
p35
aS'structure.00'
p36
asS'chunk_seq'
p37
(lp38
S'B-NP'
p39
aS'E-NP'
p40
aS'B-VP'
p41
aS'E-VP'
p42
aS'S-PP'
p43
aS'B-NP'
p44
aS'I-NP'
p45
aS'E-NP'
p46
aS'S-PP'
p47
aS'B-NP'
p48
aS'I-NP'
p49
aS'E-NP'
p50
asS'dep_seq'
p51
(lp52
(lp53
S'amod'
p54
aS'2'
aS'1'
aa(lp55
S'nsubj'
p56
aS'3'
aS'2'
aa(lp57
S'root'
p58
aS'0'
aS'3'
aa(lp59
S'dep'
p60
aS'3'
aS'4'
aa(lp61
S'nn'
p62
aS'8'
aS'6'
aa(lp63
S'amod'
p64
aS'8'
aS'7'
aa(lp65
S'prep_for'
p66
aS'4'
aS'8'
aa(lp67
S'det'
p68
aS'12'
p69
aS'10'
p70
aa(lp71
S'amod'
p72
aS'12'
p73
aS'11'
p74
aa(lp75
S'prep_of'
p76
aS'8'
aS'12'
p77
aasS'srls'
p78
(lp79
(dp80
S'A1'
p81
S'Architectural Structure'
p82
sS'A2'
p83
S'for string Initial use of the architectural structure.00'
p84
sS'V'
g28
sasS'pos_seq'
p85
(lp86
S'JJ'
p87
aS'NN'
p88
aS'VBD'
p89
aS'VBN'
p90
aS'IN'
p91
aS'NN'
p92
aS'JJ'
p93
aS'NN'
p94
aS'IN'
p95
aS'DT'
p96
aS'JJ'
p97
aS'NN'
p98
asS'ner_seq'
p99
(lp100
S'O'
aS'O'
aS'O'
aS'O'
aS'O'
aS'O'
aS'O'
aS'O'
aS'O'
aS'O'
aS'O'
aS'O'
assb.