ccopy_reg
_reconstructor
p1
(c__main__
KBproperty
p2
c__builtin__
object
p3
NtRp4
(dp5
S'comment'
p6
S'bust-waist-hip Size'
p7
sS'domain'
p8
S'Person '
p9
sS'instances_count'
p10
I0
sS'phrases'
p11
NsS'syn_hypo'
p12
S''
sS'label'
p13
g7
sS'range'
p14
S'string '
p15
sS'uniq_subjs'
p16
S'0'
sS'uniq_objs'
p17
I0
sS'prop_uri'
p18
S'http://dbpedia.org/ontology/bustWaistHipSize'
p19
sS'annotations'
p20
(dp21
S'bag_of_words'
p22
(lp23
S'Person'
p24
aS'bust'
p25
aS'Waist'
p26
aS'Hip'
p27
aS'Size'
p28
aS'string'
p29
aS'bust'
p30
aS'-'
aS'waist'
p31
aS'-'
aS'hip'
p32
aS'Size'
p33
asS'chunk_seq'
p34
(lp35
S'S-NP'
p36
aS'S-VP'
p37
aS'B-NP'
p38
aS'I-NP'
p39
aS'I-NP'
p40
aS'I-NP'
p41
aS'E-NP'
p42
aS'O'
aS'O'
aS'O'
aS'B-NP'
p43
aS'E-NP'
p44
asS'dep_seq'
p45
(lp46
(lp47
S'root'
p48
aS'0'
aS'1'
aa(lp49
S'dep'
p50
aS'1'
aS'2'
aa(lp51
S'nn'
p52
aS'7'
aS'3'
aa(lp53
S'nn'
p54
aS'7'
aS'4'
aa(lp55
S'nn'
p56
aS'7'
aS'5'
aa(lp57
S'nn'
p58
aS'7'
aS'6'
aa(lp59
S'dobj'
p60
aS'2'
aS'7'
aa(lp61
S'dep'
p62
aS'7'
aS'9'
aa(lp63
S'nn'
p64
aS'12'
p65
aS'11'
p66
aa(lp67
S'dep'
p68
aS'7'
aS'12'
p69
aasS'srls'
p70
(lp71
(dp72
S'A1'
p73
S'Waist Hip Size string bust - waist - hip Size'
p74
sS'A0'
p75
g24
sS'V'
g25
sasS'pos_seq'
p76
(lp77
S'NN'
p78
aS'VB'
p79
aS'NNP'
p80
aS'NNP'
p81
aS'NNP'
p82
aS'NN'
p83
aS'NN'
p84
aS':'
aS'NN'
p85
aS':'
aS'NN'
p86
aS'NN'
p87
asS'ner_seq'
p88
(lp89
S'O'
aS'O'
aS'O'
aS'B-MISC'
p90
aS'E-MISC'
p91
aS'O'
aS'O'
aS'O'
aS'O'
aS'O'
aS'O'
aS'O'
assb.