ccopy_reg
_reconstructor
p1
(c__main__
KBproperty
p2
c__builtin__
object
p3
NtRp4
(dp5
S'comment'
p6
S'00'
p7
sS'domain'
p8
S'Train '
p9
sS'instances_count'
p10
I0
sS'phrases'
p11
NsS'syn_hypo'
p12
Vchoo-choolocomotiveenginelocomotive_enginerailway_locomotivediesel_locomotivelocomotiveenginelocomotive_enginerailway_locomotivedinkylocomotiveenginelocomotive_enginerailway_locomotivedinkeylocomotiveenginelocomotive_enginerailway_locomotiveelectric_locomotivelocomotiveenginelocomotive_enginerailway_locomotiveiron_horselocomotiveenginelocomotive_enginerailway_locomotivepilot_enginelocomotiveenginelocomotive_enginerailway_locomotiveshunterlocomotiveenginelocomotive_enginerailway_locomotivesteam_locomotivelocomotiveenginelocomotive_enginerailway_locomotiveswitch_enginelocomotiveenginelocomotive_enginerailway_locomotivedonkey_enginelocomotiveenginelocomotive_enginerailway_locomotivetank_enginelocomotiveenginelocomotive_enginerailway_locomotivetank_locomotivelocomotiveenginelocomotive_enginerailway_locomotivetraction_engine
p13
sS'label'
p14
S'locomotive'
p15
sS'range'
p16
S'Locomotive '
p17
sS'uniq_subjs'
p18
S'0'
sS'uniq_objs'
p19
I0
sS'prop_uri'
p20
S'http://dbpedia.org/ontology/locomotive'
p21
sS'annotations'
p22
(dp23
S'bag_of_words'
p24
(lp25
S'Train'
p26
aS'locomotive'
p27
aS'Locomotive'
p28
aS'00'
p29
asS'chunk_seq'
p30
(lp31
S'B-NP'
p32
aS'I-NP'
p33
aS'E-NP'
p34
aS'O'
asS'dep_seq'
p35
(lp36
(lp37
S'nn'
p38
aS'3'
aS'1'
aa(lp39
S'nn'
p40
aS'3'
aS'2'
aa(lp41
S'root'
p42
aS'0'
aS'3'
aa(lp43
S'num'
p44
aS'3'
aS'4'
aasS'srls'
p45
(lp46
sS'pos_seq'
p47
(lp48
S'NN'
p49
aS'NN'
p50
aS'NN'
p51
aS'CD'
p52
asS'ner_seq'
p53
(lp54
S'O'
aS'O'
aS'O'
aS'O'
assb.