ccopy_reg
_reconstructor
p1
(c__main__
KBproperty
p2
c__builtin__
object
p3
NtRp4
(dp5
S'comment'
p6
S'lethal when given to chickens'
p7
sS'domain'
p8
S'Chemical Substance '
p9
sS'instances_count'
p10
I0
sS'phrases'
p11
NsS'syn_hypo'
p12
S''
sS'label'
p13
g7
sS'range'
p14
S'string '
p15
sS'uniq_subjs'
p16
S'0'
sS'uniq_objs'
p17
I0
sS'prop_uri'
p18
S'http://dbpedia.org/ontology/lethalOnChickens'
p19
sS'annotations'
p20
(dp21
S'bag_of_words'
p22
(lp23
S'Chemical'
p24
aS'Substance'
p25
aS'lethal'
p26
aS'On'
p27
aS'Chickens'
p28
aS'string'
p29
aS'lethal'
p30
aS'when'
p31
aS'given'
p32
aS'to'
p33
aS'chickens'
p34
asS'chunk_seq'
p35
(lp36
S'B-NP'
p37
aS'E-NP'
p38
aS'S-ADJP'
p39
aS'S-PP'
p40
aS'B-NP'
p41
aS'I-NP'
p42
aS'E-NP'
p43
aS'S-ADVP'
p44
aS'S-PP'
p45
aS'S-PP'
p46
aS'S-NP'
p47
asS'dep_seq'
p48
(lp49
(lp50
S'nn'
p51
aS'2'
aS'1'
aa(lp52
S'root'
p53
aS'0'
aS'2'
aa(lp54
S'amod'
p55
aS'2'
aS'3'
aa(lp56
S'nn'
p57
aS'6'
aS'5'
aa(lp58
S'prep_on'
p59
aS'2'
aS'6'
aa(lp60
S'amod'
p61
aS'2'
aS'7'
aa(lp62
S'advmod'
p63
aS'9'
aS'8'
aa(lp64
S'prep'
p65
aS'7'
aS'9'
aa(lp66
S'pcomp'
p67
aS'9'
aS'10'
p68
aa(lp69
S'pobj'
p70
aS'10'
p71
aS'11'
p72
aasS'srls'
p73
(lp74
(dp75
S'A2'
p76
S'to chickens'
p77
sS'V'
g32
sasS'pos_seq'
p78
(lp79
S'NNP'
p80
aS'NNP'
p81
aS'JJ'
p82
aS'IN'
p83
aS'NNS'
p84
aS'NN'
p85
aS'JJ'
p86
aS'WRB'
p87
aS'VBN'
p88
aS'TO'
p89
aS'NNS'
p90
asS'ner_seq'
p91
(lp92
S'O'
aS'O'
aS'O'
aS'O'
aS'O'
aS'O'
aS'O'
aS'O'
aS'O'
aS'O'
aS'O'
assb.