ccopy_reg
_reconstructor
p1
(c__main__
KBproperty
p2
c__builtin__
object
p3
NtRp4
(dp5
S'comment'
p6
S"A Person's role in an event"
p7
sS'domain'
p8
S'Agent '
p9
sS'instances_count'
p10
I0
sS'phrases'
p11
NsS'syn_hypo'
p12
S''
sS'label'
p13
S'"A Person\'s role in an event'
p14
sS'range'
p15
S'Event '
p16
sS'uniq_subjs'
p17
S'0'
sS'uniq_objs'
p18
I0
sS'prop_uri'
p19
S'http://dbpedia.org/ontology/roleInEvent'
p20
sS'annotations'
p21
(dp22
S'bag_of_words'
p23
(lp24
S'Agent'
p25
aS'role'
p26
aS'In'
p27
aS'Event'
p28
aS'Event'
p29
aS'A'
aS'Person'
p30
aS"'s"
p31
aS'role'
p32
aS'in'
p33
aS'an'
p34
aS'event'
p35
asS'chunk_seq'
p36
(lp37
S'B-NP'
p38
aS'E-NP'
p39
aS'S-PP'
p40
aS'B-NP'
p41
aS'E-NP'
p42
aS'B-NP'
p43
aS'E-NP'
p44
aS'B-NP'
p45
aS'E-NP'
p46
aS'S-PP'
p47
aS'B-NP'
p48
aS'E-NP'
p49
asS'dep_seq'
p50
(lp51
(lp52
S'nn'
p53
aS'2'
aS'1'
aa(lp54
S'root'
p55
aS'0'
aS'2'
aa(lp56
S'nn'
p57
aS'7'
aS'4'
aa(lp58
S'nn'
p59
aS'7'
aS'5'
aa(lp60
S'det'
p61
aS'7'
aS'6'
aa(lp62
S'poss'
p63
aS'9'
aS'7'
aa(lp64
S'prep_in'
p65
aS'2'
aS'9'
aa(lp66
S'det'
p67
aS'12'
p68
aS'11'
p69
aa(lp70
S'prep_in'
p71
aS'9'
aS'12'
p72
aasS'srls'
p73
(lp74
sS'pos_seq'
p75
(lp76
S'NN'
p77
aS'NN'
p78
aS'IN'
p79
aS'NN'
p80
aS'NN'
p81
aS'DT'
p82
aS'NN'
p83
aS'POS'
p84
aS'NN'
p85
aS'IN'
p86
aS'DT'
p87
aS'NN'
p88
asS'ner_seq'
p89
(lp90
S'O'
aS'O'
aS'O'
aS'O'
aS'O'
aS'O'
aS'O'
aS'O'
aS'O'
aS'O'
aS'O'
aS'O'
assb.