ccopy_reg
_reconstructor
p1
(c__main__
KBproperty
p2
c__builtin__
object
p3
NtRp4
(dp5
S'comment'
p6
S'11'
p7
sS'domain'
p8
S'Route Of Transportation '
p9
sS'instances_count'
p10
I1
sS'phrases'
p11
NsS'syn_hypo'
p12
S''
sS'label'
p13
S'length reference'
p14
sS'range'
p15
S'string '
p16
sS'uniq_subjs'
p17
S'1'
sS'uniq_objs'
p18
I0
sS'prop_uri'
p19
S'http://dbpedia.org/ontology/lengthReference'
p20
sS'annotations'
p21
(dp22
S'bag_of_words'
p23
(lp24
S'Route'
p25
aS'Of'
p26
aS'Transportation'
p27
aS'length'
p28
aS'reference'
p29
aS'string'
p30
aS'11'
p31
asS'chunk_seq'
p32
(lp33
S'S-NP'
p34
aS'S-PP'
p35
aS'B-NP'
p36
aS'I-NP'
p37
aS'I-NP'
p38
aS'I-NP'
p39
aS'E-NP'
p40
asS'dep_seq'
p41
(lp42
(lp43
S'dep'
p44
aS'7'
aS'1'
aa(lp45
S'prep_of'
p46
aS'1'
aS'3'
aa(lp47
S'nn'
p48
aS'7'
aS'4'
aa(lp49
S'nn'
p50
aS'7'
aS'5'
aa(lp51
S'nn'
p52
aS'7'
aS'6'
aa(lp53
S'root'
p54
aS'0'
aS'7'
aasS'srls'
p55
(lp56
sS'pos_seq'
p57
(lp58
S'NNP'
p59
aS'IN'
p60
aS'NN'
p61
aS'NN'
p62
aS'NN'
p63
aS'NN'
p64
aS'NN'
p65
asS'ner_seq'
p66
(lp67
S'B-ORG'
p68
aS'I-ORG'
p69
aS'E-ORG'
p70
aS'O'
aS'O'
aS'O'
aS'O'
assb.