ccopy_reg
_reconstructor
p1
(c__main__
KBproperty
p2
c__builtin__
object
p3
NtRp4
(dp5
S'comment'
p6
S'MusicBrainz is an open music encyclopedia that collects music metadata and makes it available to the public.1413'
p7
sS'domain'
p8
S''
sS'instances_count'
p9
I14
sS'phrases'
p10
NsS'syn_hypo'
p11
S''
sS'label'
p12
S'MBA Id'
p13
sS'range'
p14
S'string '
p15
sS'uniq_subjs'
p16
S'14'
p17
sS'uniq_objs'
p18
I0
sS'prop_uri'
p19
S'http://dbpedia.org/ontology/mbaId'
p20
sS'annotations'
p21
(dp22
S'bag_of_words'
p23
(lp24
S'MBA'
p25
aS'Id'
p26
aS'string'
p27
aS'MusicBrainz'
p28
aS'is'
p29
aS'an'
p30
aS'open'
p31
aS'music'
p32
aS'encyclopedia'
p33
aS'that'
p34
aS'collects'
p35
aS'music'
p36
aS'metadata'
p37
aS'and'
p38
aS'makes'
p39
aS'it'
p40
aS'available'
p41
aS'to'
p42
aS'the'
p43
aS'public.1413'
p44
asS'chunk_seq'
p45
(lp46
S'B-NP'
p47
aS'I-NP'
p48
aS'I-NP'
p49
aS'E-NP'
p50
aS'S-VP'
p51
aS'B-NP'
p52
aS'I-NP'
p53
aS'I-NP'
p54
aS'E-NP'
p55
aS'S-NP'
p56
aS'S-VP'
p57
aS'B-NP'
p58
aS'E-NP'
p59
aS'O'
aS'S-VP'
p60
aS'S-NP'
p61
aS'S-ADJP'
p62
aS'S-PP'
p63
aS'B-NP'
p64
aS'E-NP'
p65
asS'dep_seq'
p66
(lp67
(lp68
S'nn'
p69
aS'4'
aS'1'
aa(lp70
S'nn'
p71
aS'4'
aS'2'
aa(lp72
S'nn'
p73
aS'4'
aS'3'
aa(lp74
S'nsubj'
p75
aS'9'
aS'4'
aa(lp76
S'cop'
p77
aS'9'
aS'5'
aa(lp78
S'det'
p79
aS'9'
aS'6'
aa(lp80
S'amod'
p81
aS'9'
aS'7'
aa(lp82
S'nn'
p83
aS'9'
aS'8'
aa(lp84
S'root'
p85
aS'0'
aS'9'
aa(lp86
S'nsubj'
p87
aS'11'
p88
aS'9'
aa(lp89
S'rcmod'
p90
aS'9'
aS'11'
p91
aa(lp92
S'nn'
p93
aS'13'
p94
aS'12'
p95
aa(lp96
S'dobj'
p97
aS'11'
p98
aS'13'
p99
aa(lp100
S'conj_and'
p101
aS'11'
p102
aS'15'
p103
aa(lp104
S'nsubj'
p105
aS'17'
p106
aS'16'
p107
aa(lp108
S'xcomp'
p109
aS'15'
p110
aS'17'
p111
aa(lp112
S'dep'
p113
aS'17'
p114
aS'18'
p115
aa(lp116
S'det'
p117
aS'20'
p118
aS'19'
p119
aa(lp120
S'pobj'
p121
aS'18'
p122
aS'20'
p123
aasS'srls'
p124
(lp125
(dp126
S'A1'
p127
S'music metadata'
p128
sS'A0'
p129
S'an open music encyclopedia'
p130
sS'R-A0'
p131
g34
sS'V'
g35
sa(dp132
S'A1'
p133
g40
sS'A2'
p134
S'available to the public.1413'
p135
sS'V'
g39
sasS'pos_seq'
p136
(lp137
S'NNP'
p138
aS'NNP'
p139
aS'NN'
p140
aS'NNP'
p141
aS'VBZ'
p142
aS'DT'
p143
aS'JJ'
p144
aS'NN'
p145
aS'NN'
p146
aS'WDT'
p147
aS'VBZ'
p148
aS'NN'
p149
aS'NN'
p150
aS'CC'
p151
aS'VBZ'
p152
aS'PRP'
p153
aS'JJ'
p154
aS'TO'
p155
aS'DT'
p156
aS'NN'
p157
asS'ner_seq'
p158
(lp159
S'O'
aS'O'
aS'O'
aS'S-PER'
p160
aS'O'
aS'O'
aS'O'
aS'O'
aS'O'
aS'O'
aS'O'
aS'O'
aS'O'
aS'O'
aS'O'
aS'O'
aS'O'
aS'O'
aS'O'
aS'O'
assb.