ccopy_reg
_reconstructor
p1
(c__main__
KBproperty
p2
c__builtin__
object
p3
NtRp4
(dp5
S'comment'
p6
S'the Alps SOIUSA code corresponding to the mountain according to the SOIUSA classification00'
p7
sS'domain'
p8
S'Mountain '
p9
sS'instances_count'
p10
I0
sS'phrases'
p11
NsS'syn_hypo'
p12
S''
sS'label'
p13
S'Alps SOIUSA code'
p14
sS'range'
p15
S'string '
p16
sS'uniq_subjs'
p17
S'0'
sS'uniq_objs'
p18
I0
sS'prop_uri'
p19
S'http://dbpedia.org/ontology/alpsSoiusaCode'
p20
sS'annotations'
p21
(dp22
S'bag_of_words'
p23
(lp24
S'Mountain'
p25
aS'Alps'
p26
aS'SOIUSA'
p27
aS'code'
p28
aS'string'
p29
aS'the'
p30
aS'Alps'
p31
aS'SOIUSA'
p32
aS'code'
p33
aS'corresponding'
p34
aS'to'
p35
aS'the'
p36
aS'mountain'
p37
aS'according'
p38
aS'to'
p39
aS'the'
p40
aS'SOIUSA'
p41
aS'classification00'
p42
asS'chunk_seq'
p43
(lp44
S'B-NP'
p45
aS'I-NP'
p46
aS'I-NP'
p47
aS'I-NP'
p48
aS'E-NP'
p49
aS'B-NP'
p50
aS'I-NP'
p51
aS'I-NP'
p52
aS'E-NP'
p53
aS'S-VP'
p54
aS'S-PP'
p55
aS'B-NP'
p56
aS'E-NP'
p57
aS'S-PP'
p58
aS'S-PP'
p59
aS'B-NP'
p60
aS'I-NP'
p61
aS'E-NP'
p62
asS'dep_seq'
p63
(lp64
(lp65
S'nn'
p66
aS'5'
aS'1'
aa(lp67
S'nn'
p68
aS'5'
aS'2'
aa(lp69
S'nn'
p70
aS'5'
aS'3'
aa(lp71
S'nn'
p72
aS'5'
aS'4'
aa(lp73
S'dep'
p74
aS'9'
aS'5'
aa(lp75
S'det'
p76
aS'9'
aS'6'
aa(lp77
S'nn'
p78
aS'9'
aS'7'
aa(lp79
S'nn'
p80
aS'9'
aS'8'
aa(lp81
S'root'
p82
aS'0'
aS'9'
aa(lp83
S'partmod'
p84
aS'9'
aS'10'
p85
aa(lp86
S'det'
p87
aS'13'
p88
aS'12'
p89
aa(lp90
S'prep_to'
p91
aS'10'
p92
aS'13'
p93
aa(lp94
S'prepc_according_to'
p95
aS'9'
aS'15'
p96
aa(lp97
S'det'
p98
aS'18'
p99
aS'16'
p100
aa(lp101
S'nn'
p102
aS'18'
p103
aS'17'
p104
aa(lp105
S'pobj'
p106
aS'9'
aS'18'
p107
aasS'srls'
p108
(lp109
sS'pos_seq'
p110
(lp111
S'NNP'
p112
aS'NNP'
p113
aS'NNP'
p114
aS'NN'
p115
aS'NN'
p116
aS'DT'
p117
aS'NNPS'
p118
aS'NNP'
p119
aS'NN'
p120
aS'VBG'
p121
aS'TO'
p122
aS'DT'
p123
aS'NN'
p124
aS'VBG'
p125
aS'TO'
p126
aS'DT'
p127
aS'NN'
p128
aS'NN'
p129
asS'ner_seq'
p130
(lp131
S'B-ORG'
p132
aS'I-ORG'
p133
aS'E-ORG'
p134
aS'O'
aS'O'
aS'O'
aS'B-LOC'
p135
aS'E-LOC'
p136
aS'O'
aS'O'
aS'O'
aS'O'
aS'O'
aS'O'
aS'O'
aS'O'
aS'S-ORG'
p137
aS'O'
assb.