ccopy_reg
_reconstructor
p1
(c__main__
KBproperty
p2
c__builtin__
object
p3
NtRp4
(dp5
S'comment'
p6
S'A junction or cross to another route.289408825'
p7
sS'domain'
p8
S'Route Of Transportation '
p9
sS'instances_count'
p10
I15955
sS'phrases'
p11
NsS'syn_hypo'
p12
S''
sS'label'
p13
S'route junction'
p14
sS'range'
p15
S'Route Of Transportation '
p16
sS'uniq_subjs'
p17
S'15955'
p18
sS'uniq_objs'
p19
I0
sS'prop_uri'
p20
S'http://dbpedia.org/ontology/routeJunction'
p21
sS'annotations'
p22
(dp23
S'bag_of_words'
p24
(lp25
S'Route'
p26
aS'Of'
p27
aS'Transportation'
p28
aS'route'
p29
aS'junction'
p30
aS'Route'
p31
aS'Of'
p32
aS'Transportation'
p33
aS'A'
aS'junction'
p34
aS'or'
p35
aS'cross'
p36
aS'to'
p37
aS'another'
p38
aS'route.289408825'
p39
asS'chunk_seq'
p40
(lp41
S'S-NP'
p42
aS'S-PP'
p43
aS'B-NP'
p44
aS'I-NP'
p45
aS'I-NP'
p46
aS'E-NP'
p47
aS'S-PP'
p48
aS'S-NP'
p49
aS'B-NP'
p50
aS'E-NP'
p51
aS'O'
aS'S-VP'
p52
aS'S-PP'
p53
aS'B-NP'
p54
aS'E-NP'
p55
asS'dep_seq'
p56
(lp57
(lp58
S'dep'
p59
aS'6'
aS'1'
aa(lp60
S'prep_of'
p61
aS'1'
aS'3'
aa(lp62
S'nn'
p63
aS'5'
aS'4'
aa(lp64
S'dep'
p65
aS'6'
aS'5'
aa(lp66
S'root'
p67
aS'0'
aS'6'
aa(lp68
S'dep'
p69
aS'6'
aS'7'
aa(lp70
S'pobj'
p71
aS'7'
aS'8'
aa(lp72
S'det'
p73
aS'10'
p74
aS'9'
aa(lp75
S'dep'
p76
aS'8'
aS'10'
p77
aa(lp78
S'conj_or'
p79
aS'7'
aS'12'
p80
aa(lp81
S'det'
p82
aS'15'
p83
aS'14'
p84
aa(lp85
S'prep_to'
p86
aS'12'
p87
aS'15'
p88
aasS'srls'
p89
(lp90
(dp91
S'A0'
p92
S'Route Of Transportation route junction Route Of Transportation'
p93
sS'A2'
p94
S'to another route.289408825'
p95
sS'V'
g36
sasS'pos_seq'
p96
(lp97
S'NNP'
p98
aS'IN'
p99
aS'NNP'
p100
aS'NN'
p101
aS'NN'
p102
aS'NN'
p103
aS'IN'
p104
aS'NN'
p105
aS'DT'
p106
aS'NN'
p107
aS'CC'
p108
aS'VB'
p109
aS'TO'
p110
aS'DT'
p111
aS'NN'
p112
asS'ner_seq'
p113
(lp114
S'B-ORG'
p115
aS'I-ORG'
p116
aS'E-ORG'
p117
aS'O'
aS'O'
aS'B-ORG'
p118
aS'I-ORG'
p119
aS'E-ORG'
p120
aS'O'
aS'O'
aS'O'
aS'O'
aS'O'
aS'O'
aS'O'
assb.