ccopy_reg
_reconstructor
p1
(c__main__
KBproperty
p2
c__builtin__
object
p3
NtRp4
(dp5
S'comment'
p6
S'mill span \\xce\\xbc'
p7
sS'domain'
p8
S'Mill '
p9
sS'instances_count'
p10
I0
sS'phrases'
p11
NsS'syn_hypo'
p12
S''
sS'label'
p13
g7
sS'range'
p14
S'double '
p15
sS'uniq_subjs'
p16
S'0'
sS'uniq_objs'
p17
I0
sS'prop_uri'
p18
S'http://dbpedia.org/ontology/millSpan'
p19
sS'annotations'
p20
(dp21
S'bag_of_words'
p22
(lp23
S'Mill'
p24
aS'mill'
p25
aS'Span'
p26
aS'double'
p27
aS'mill'
p28
aS'span'
p29
aS'\\'
aS'xce'
p30
aS'\\'
aS'xbc'
p31
asS'chunk_seq'
p32
(lp33
S'B-NP'
p34
aS'I-NP'
p35
aS'E-NP'
p36
aS'B-NP'
p37
aS'E-NP'
p38
aS'O'
aS'O'
aS'O'
aS'O'
aS'O'
asS'dep_seq'
p39
(lp40
(lp41
S'nn'
p42
aS'3'
aS'1'
aa(lp43
S'nn'
p44
aS'3'
aS'2'
aa(lp45
S'nsubj'
p46
aS'10'
p47
aS'3'
aa(lp48
S'amod'
p49
aS'5'
aS'4'
aa(lp50
S'nsubj'
p51
aS'10'
p52
aS'5'
aa(lp53
S'dep'
p54
aS'10'
p55
aS'6'
aa(lp56
S'nn'
p57
aS'10'
p58
aS'7'
aa(lp59
S'nn'
p60
aS'10'
p61
aS'8'
aa(lp62
S'nn'
p63
aS'10'
p64
aS'9'
aa(lp65
S'root'
p66
aS'0'
aS'10'
p67
aasS'srls'
p68
(lp69
sS'pos_seq'
p70
(lp71
S'NN'
p72
aS'NN'
p73
aS'NNP'
p74
aS'JJ'
p75
aS'NN'
p76
aS'FW'
p77
aS'FW'
p78
aS'FW'
p79
aS'FW'
p80
aS'FW'
p81
asS'ner_seq'
p82
(lp83
S'B-LOC'
p84
aS'I-LOC'
p85
aS'E-LOC'
p86
aS'O'
aS'O'
aS'O'
aS'O'
aS'O'
aS'O'
aS'O'
assb.