ccopy_reg
_reconstructor
p1
(c__main__
KBproperty
p2
c__builtin__
object
p3
NtRp4
(dp5
S'comment'
p6
S'420476412291'
p7
sS'domain'
p8
S'Person '
p9
sS'instances_count'
p10
I86855
sS'phrases'
p11
(lp12
S' when;die'
p13
aS' deate of death'
p14
aS' when;died'
p15
aS' when; killed'
p16
aS' when ; murder'
p17
aS' when ; murdered'
p18
aS' is;still alive'
p19
aS'is;alive\n'
p20
asS'syn_hypo'
p21
S''
sS'label'
p22
S'death date'
p23
sS'range'
p24
S'date '
p25
sS'uniq_subjs'
p26
S'86855'
p27
sS'uniq_objs'
p28
I0
sS'prop_uri'
p29
S'http://dbpedia.org/ontology/deathDate'
p30
sS'annotations'
p31
(dp32
S'bag_of_words'
p33
(lp34
S'Person'
p35
aS'death'
p36
aS'date'
p37
aS'date'
p38
aS'420476412291'
p39
asS'chunk_seq'
p40
(lp41
S'B-NP'
p42
aS'I-NP'
p43
aS'I-NP'
p44
aS'E-NP'
p45
aS'S-NP'
p46
asS'dep_seq'
p47
(lp48
(lp49
S'nn'
p50
aS'4'
aS'1'
aa(lp51
S'nn'
p52
aS'4'
aS'2'
aa(lp53
S'nn'
p54
aS'4'
aS'3'
aa(lp55
S'root'
p56
aS'0'
aS'4'
aa(lp57
S'dep'
p58
aS'4'
aS'5'
aasS'srls'
p59
(lp60
sS'pos_seq'
p61
(lp62
S'NN'
p63
aS'NN'
p64
aS'NN'
p65
aS'NN'
p66
aS'NN'
p67
asS'ner_seq'
p68
(lp69
S'O'
aS'O'
aS'O'
aS'O'
aS'O'
assb.