ccopy_reg
_reconstructor
p1
(c__main__
KBproperty
p2
c__builtin__
object
p3
NtRp4
(dp5
S'comment'
p6
S'Indexing code used by the Bulgarian National Statistical Institute to identify populated places00'
p7
sS'domain'
p8
S'Populated Place '
p9
sS'instances_count'
p10
I0
sS'phrases'
p11
NsS'syn_hypo'
p12
S''
sS'label'
p13
S'EKATTE code'
p14
sS'range'
p15
S'string '
p16
sS'uniq_subjs'
p17
S'0'
sS'uniq_objs'
p18
I0
sS'prop_uri'
p19
S'http://dbpedia.org/ontology/ekatteCode'
p20
sS'annotations'
p21
(dp22
S'bag_of_words'
p23
(lp24
S'Populated'
p25
aS'Place'
p26
aS'EKATTE'
p27
aS'code'
p28
aS'string'
p29
aS'Indexing'
p30
aS'code'
p31
aS'used'
p32
aS'by'
p33
aS'the'
p34
aS'Bulgarian'
p35
aS'National'
p36
aS'Statistical'
p37
aS'Institute'
p38
aS'to'
p39
aS'identify'
p40
aS'populated'
p41
aS'places00'
p42
asS'chunk_seq'
p43
(lp44
S'B-NP'
p45
aS'I-NP'
p46
aS'I-NP'
p47
aS'I-NP'
p48
aS'I-NP'
p49
aS'I-NP'
p50
aS'E-NP'
p51
aS'S-VP'
p52
aS'S-PP'
p53
aS'B-NP'
p54
aS'I-NP'
p55
aS'I-NP'
p56
aS'I-NP'
p57
aS'E-NP'
p58
aS'B-VP'
p59
aS'E-VP'
p60
aS'B-NP'
p61
aS'E-NP'
p62
asS'dep_seq'
p63
(lp64
(lp65
S'amod'
p66
aS'7'
aS'1'
aa(lp67
S'nn'
p68
aS'7'
aS'2'
aa(lp69
S'nn'
p70
aS'7'
aS'3'
aa(lp71
S'nn'
p72
aS'7'
aS'4'
aa(lp73
S'nn'
p74
aS'7'
aS'5'
aa(lp75
S'nn'
p76
aS'7'
aS'6'
aa(lp77
S'nsubj'
p78
aS'8'
aS'7'
aa(lp79
S'xsubj'
p80
aS'16'
p81
aS'7'
aa(lp82
S'root'
p83
aS'0'
aS'8'
aa(lp84
S'det'
p85
aS'14'
p86
aS'10'
p87
aa(lp88
S'amod'
p89
aS'14'
p90
aS'11'
p91
aa(lp92
S'nn'
p93
aS'14'
p94
aS'12'
p95
aa(lp96
S'nn'
p97
aS'14'
p98
aS'13'
p99
aa(lp100
S'prep_by'
p101
aS'8'
aS'14'
p102
aa(lp103
S'aux'
p104
aS'16'
p105
aS'15'
p106
aa(lp107
S'xcomp'
p108
aS'8'
aS'16'
p109
aa(lp110
S'amod'
p111
aS'18'
p112
aS'17'
p113
aa(lp114
S'dobj'
p115
aS'16'
p116
aS'18'
p117
aasS'srls'
p118
(lp119
(dp120
S'A1'
p121
S'EKATTE code string Indexing code'
p122
sS'A0'
p123
S'by the Bulgarian National Statistical Institute'
p124
sS'AM-PNC'
p125
S'to identify populated places00'
p126
sS'V'
g32
sa(dp127
S'A1'
p128
S'populated places00'
p129
sS'A0'
p130
S'Populated Place EKATTE code string Indexing code used by the Bulgarian National Statistical Institute'
p131
sS'V'
g40
sasS'pos_seq'
p132
(lp133
S'VBN'
p134
aS'NNP'
p135
aS'NNP'
p136
aS'NN'
p137
aS'NN'
p138
aS'NN'
p139
aS'NN'
p140
aS'VBN'
p141
aS'IN'
p142
aS'DT'
p143
aS'JJ'
p144
aS'NNP'
p145
aS'NNP'
p146
aS'NNP'
p147
aS'TO'
p148
aS'VB'
p149
aS'JJ'
p150
aS'NN'
p151
asS'ner_seq'
p152
(lp153
S'O'
aS'O'
aS'S-MISC'
p154
aS'O'
aS'O'
aS'O'
aS'O'
aS'O'
aS'O'
aS'O'
aS'B-ORG'
p155
aS'I-ORG'
p156
aS'I-ORG'
p157
aS'E-ORG'
p158
aS'O'
aS'O'
aS'O'
aS'O'
assb.