ccopy_reg
_reconstructor
p1
(c__main__
KBproperty
p2
c__builtin__
object
p3
NtRp4
(dp5
S'comment'
p6
S'00'
p7
sS'domain'
p8
S'Athlete '
p9
sS'instances_count'
p10
I0
sS'phrases'
p11
NsS'syn_hypo'
p12
S''
sS'label'
p13
S'horse riding discipline'
p14
sS'range'
p15
S'Horse Riding '
p16
sS'uniq_subjs'
p17
S'0'
sS'uniq_objs'
p18
I0
sS'prop_uri'
p19
S'http://dbpedia.org/ontology/horseRidingDiscipline'
p20
sS'annotations'
p21
(dp22
S'bag_of_words'
p23
(lp24
S'Athlete'
p25
aS'horse'
p26
aS'riding'
p27
aS'discipline'
p28
aS'Horse'
p29
aS'Riding'
p30
aS'00'
p31
asS'chunk_seq'
p32
(lp33
S'B-NP'
p34
aS'E-NP'
p35
aS'S-VP'
p36
aS'S-NP'
p37
aS'B-NP'
p38
aS'E-NP'
p39
aS'S-ADVP'
p40
asS'dep_seq'
p41
(lp42
(lp43
S'nn'
p44
aS'2'
aS'1'
aa(lp45
S'root'
p46
aS'0'
aS'2'
aa(lp47
S'partmod'
p48
aS'2'
aS'3'
aa(lp49
S'iobj'
p50
aS'3'
aS'4'
aa(lp51
S'nn'
p52
aS'6'
aS'5'
aa(lp53
S'dobj'
p54
aS'3'
aS'6'
aa(lp55
S'advmod'
p56
aS'3'
aS'7'
aasS'srls'
p57
(lp58
(dp59
S'A1'
p60
S'discipline Horse Riding 00'
p61
sS'A0'
p62
S'Athlete horse'
p63
sS'V'
g27
sa(dp64
S'A1'
p65
g31
sS'A0'
p66
g29
sS'V'
g30
sasS'pos_seq'
p67
(lp68
S'NN'
p69
aS'NN'
p70
aS'VBG'
p71
aS'NN'
p72
aS'NNP'
p73
aS'NNP'
p74
aS'CD'
p75
asS'ner_seq'
p76
(lp77
S'O'
aS'O'
aS'O'
aS'O'
aS'O'
aS'O'
aS'O'
assb.