ccopy_reg
_reconstructor
p1
(c__main__
KBproperty
p2
c__builtin__
object
p3
NtRp4
(dp5
S'comment'
p6
S'00'
p7
sS'domain'
p8
S'Architectural Structure '
p9
sS'instances_count'
p10
I0
sS'phrases'
p11
NsS'syn_hypo'
p12
S''
sS'label'
p13
S'features'
p14
sS'range'
p15
S'Work '
p16
sS'uniq_subjs'
p17
S'0'
sS'uniq_objs'
p18
I0
sS'prop_uri'
p19
S'http://dbpedia.org/ontology/features'
p20
sS'annotations'
p21
(dp22
S'bag_of_words'
p23
(lp24
S'Architectural'
p25
aS'Structure'
p26
aS'features'
p27
aS'Work'
p28
aS'00'
p29
asS'chunk_seq'
p30
(lp31
S'B-NP'
p32
aS'E-NP'
p33
aS'S-VP'
p34
aS'S-NP'
p35
aS'S-ADVP'
p36
asS'dep_seq'
p37
(lp38
(lp39
S'nn'
p40
aS'2'
aS'1'
aa(lp41
S'nsubj'
p42
aS'3'
aS'2'
aa(lp43
S'root'
p44
aS'0'
aS'3'
aa(lp45
S'dobj'
p46
aS'3'
aS'4'
aa(lp47
S'advmod'
p48
aS'3'
aS'5'
aasS'srls'
p49
(lp50
(dp51
S'A1'
p52
S'Work 00'
p53
sS'A0'
p54
S'Architectural Structure'
p55
sS'V'
g27
sasS'pos_seq'
p56
(lp57
S'NNP'
p58
aS'NNP'
p59
aS'VBZ'
p60
aS'NNP'
p61
aS'CD'
p62
asS'ner_seq'
p63
(lp64
S'O'
aS'O'
aS'O'
aS'O'
aS'O'
assb.