ccopy_reg
_reconstructor
p1
(c__main__
KBproperty
p2
c__builtin__
object
p3
NtRp4
(dp5
S'comment'
p6
S'2513'
p7
sS'domain'
p8
S'Album '
p9
sS'instances_count'
p10
I25
sS'phrases'
p11
NsS'syn_hypo'
p12
Vstocktakingreappraisalrevaluationreviewreassessmentstock-taking
p13
sS'label'
p14
S'review'
p15
sS'range'
p16
S'any '
p17
sS'uniq_subjs'
p18
S'25'
p19
sS'uniq_objs'
p20
I0
sS'prop_uri'
p21
S'http://dbpedia.org/ontology/review'
p22
sS'annotations'
p23
(dp24
S'bag_of_words'
p25
(lp26
S'Album'
p27
aS'review'
p28
aS'any'
p29
aS'2513'
p30
asS'chunk_seq'
p31
(lp32
S'S-NP'
p33
aS'S-VP'
p34
aS'B-NP'
p35
aS'E-NP'
p36
asS'dep_seq'
p37
(lp38
(lp39
S'nsubj'
p40
aS'2'
aS'1'
aa(lp41
S'root'
p42
aS'0'
aS'2'
aa(lp43
S'det'
p44
aS'4'
aS'3'
aa(lp45
S'dobj'
p46
aS'2'
aS'4'
aasS'srls'
p47
(lp48
(dp49
S'A1'
p50
S'any 2513'
p51
sS'A0'
p52
g27
sS'V'
g28
sasS'pos_seq'
p53
(lp54
S'NN'
p55
aS'VBP'
p56
aS'DT'
p57
aS'NN'
p58
asS'ner_seq'
p59
(lp60
S'O'
aS'O'
aS'O'
aS'O'
assb.