ccopy_reg
_reconstructor
p1
(c__main__
KBproperty
p2
c__builtin__
object
p3
NtRp4
(dp5
S'comment'
p6
S'33483172'
p7
sS'domain'
p8
S''
sS'instances_count'
p9
I2117
sS'phrases'
p10
NsS'syn_hypo'
p11
Veffectmeaningsignificancesignificationimportessencemeaningsignificancesignificationimportburdenmeaningsignificancesignificationimportcoremeaningsignificancesignificationimportgistmeaningsignificancesignificationimportgrammatical_meaningmeaningsignificancesignificationimportintensionmeaningsignificancesignificationimportconnotationmeaningsignificancesignificationimportintentmeaningsignificancesignificationimportpurportmeaningsignificancesignificationimportspiritmeaningsignificancesignificationimportlexical_meaningmeaningsignificancesignificationimportmoralmeaningsignificancesignificationimportlessonmeaningsignificancesignificationimportnuancemeaningsignificancesignificationimportnicetymeaningsignificancesignificationimportshademeaningsignificancesignificationimportsubtletymeaningsignificancesignificationimportrefinementmeaningsignificancesignificationimportovertonemeaningsignificancesignificationimportpointmeaningsignificancesignificationimportreferentmeaningsignificancesignificationimportsensemeaningsignificancesignificationimportsignifiedmeaningsignificancesignificationimportsymbolizationmeaningsignificancesignificationimportsymbolisation
p12
sS'label'
p13
S'meaning'
p14
sS'range'
p15
S'string '
p16
sS'uniq_subjs'
p17
S'2117'
p18
sS'uniq_objs'
p19
I0
sS'prop_uri'
p20
S'http://dbpedia.org/ontology/meaning'
p21
sS'annotations'
p22
(dp23
S'bag_of_words'
p24
(lp25
S'meaning'
p26
aS'string'
p27
aS'33483172'
p28
asS'chunk_seq'
p29
(lp30
S'S-VP'
p31
aS'B-NP'
p32
aS'E-NP'
p33
asS'dep_seq'
p34
(lp35
(lp36
S'root'
p37
aS'0'
aS'1'
aa(lp38
S'nn'
p39
aS'3'
aS'2'
aa(lp40
S'dobj'
p41
aS'1'
aS'3'
aasS'srls'
p42
(lp43
(dp44
S'A0'
p45
S'string 33483172'
p46
sS'V'
g26
sasS'pos_seq'
p47
(lp48
S'VBG'
p49
aS'NN'
p50
aS'NN'
p51
asS'ner_seq'
p52
(lp53
S'O'
aS'O'
aS'O'
assb.