ccopy_reg
_reconstructor
p1
(c__main__
KBproperty
p2
c__builtin__
object
p3
NtRp4
(dp5
S'comment'
p6
S'http://dbpedia.org/ontology/SportsTeam'
p7
sS'domain'
p8
S'Athlete '
p9
sS'instances_count'
p10
I0
sS'phrases'
p11
NsS'syn_hypo'
p12
S''
sS'label'
p13
g7
sS'range'
p14
S'Career Station '
p15
sS'uniq_subjs'
p16
S'0'
sS'uniq_objs'
p17
I0
sS'prop_uri'
p18
S'http://dbpedia.org/ontology/proTeam'
p19
sS'annotations'
p20
(dp21
S'bag_of_words'
p22
(lp23
S'Athlete'
p24
aS'pro'
p25
aS'Team'
p26
aS'Career'
p27
aS'Station'
p28
aS'http'
p29
aS':'
aS'//'
p30
aS'dbpedia'
p31
aS'.org'
p32
aS'/'
aS'ontology'
p33
aS'/S'
p34
aS'portsTeam'
p35
asS'chunk_seq'
p36
(lp37
S'B-NP'
p38
aS'I-NP'
p39
aS'I-NP'
p40
aS'I-NP'
p41
aS'I-NP'
p42
aS'E-NP'
p43
aS'O'
aS'O'
aS'O'
aS'O'
aS'O'
aS'O'
aS'O'
aS'O'
asS'dep_seq'
p44
(lp45
(lp46
S'nn'
p47
aS'6'
aS'1'
aa(lp48
S'nn'
p49
aS'6'
aS'2'
aa(lp50
S'nn'
p51
aS'6'
aS'3'
aa(lp52
S'nn'
p53
aS'6'
aS'4'
aa(lp54
S'nn'
p55
aS'6'
aS'5'
aa(lp56
S'root'
p57
aS'0'
aS'6'
aa(lp58
S'discourse'
p59
aS'6'
aS'8'
aa(lp60
S'dep'
p61
aS'8'
aS'9'
aa(lp62
S'dep'
p63
aS'8'
aS'10'
p64
aa(lp65
S'dep'
p66
aS'8'
aS'11'
p67
aa(lp68
S'dep'
p69
aS'8'
aS'12'
p70
aa(lp71
S'dep'
p72
aS'8'
aS'13'
p73
aa(lp74
S'dep'
p75
aS'8'
aS'14'
p76
aasS'srls'
p77
(lp78
sS'pos_seq'
p79
(lp80
S'NNP'
p81
aS'NNP'
p82
aS'NNP'
p83
aS'NNP'
p84
aS'NNP'
p85
aS'NN'
p86
aS':'
aS'FW'
p87
aS'FW'
p88
aS'FW'
p89
aS'FW'
p90
aS'FW'
p91
aS'FW'
p92
aS'FW'
p93
asS'ner_seq'
p94
(lp95
S'O'
aS'O'
aS'B-ORG'
p96
aS'I-ORG'
p97
aS'E-ORG'
p98
aS'O'
aS'O'
aS'O'
aS'O'
aS'O'
aS'O'
aS'O'
aS'O'
aS'O'
assb.