ccopy_reg
_reconstructor
p1
(c__main__
KBproperty
p2
c__builtin__
object
p3
NtRp4
(dp5
S'comment'
p6
S'an attribute of humans defined by their unequal distribution of fine motor skill between the left and right hands.00'
p7
sS'domain'
p8
S'Person '
p9
sS'instances_count'
p10
I0
sS'phrases'
p11
NsS'syn_hypo'
p12
Vambidexterityhandednesslateralityambidextrousnesshandednesslateralityleft-handednesshandednesslateralitysinistralityhandednesslateralityright-handednesshandednesslateralitydextrality
p13
sS'label'
p14
S'handedness'
p15
sS'range'
p16
S''
sS'uniq_subjs'
p17
S'0'
sS'uniq_objs'
p18
I0
sS'prop_uri'
p19
S'http://dbpedia.org/ontology/handedness'
p20
sS'annotations'
p21
(dp22
S'bag_of_words'
p23
(lp24
S'Person'
p25
aS'handedness'
p26
aS'an'
p27
aS'attribute'
p28
aS'of'
p29
aS'humans'
p30
aS'defined'
p31
aS'by'
p32
aS'their'
p33
aS'unequal'
p34
aS'distribution'
p35
aS'of'
p36
aS'fine'
p37
aS'motor'
p38
aS'skill'
p39
aS'between'
p40
aS'the'
p41
aS'left'
p42
aS'and'
p43
aS'right'
p44
aS'hands.00'
p45
asS'chunk_seq'
p46
(lp47
S'B-NP'
p48
aS'E-NP'
p49
aS'B-NP'
p50
aS'E-NP'
p51
aS'S-PP'
p52
aS'S-NP'
p53
aS'S-VP'
p54
aS'S-PP'
p55
aS'B-NP'
p56
aS'I-NP'
p57
aS'E-NP'
p58
aS'S-PP'
p59
aS'B-NP'
p60
aS'I-NP'
p61
aS'E-NP'
p62
aS'S-PP'
p63
aS'B-NP'
p64
aS'I-NP'
p65
aS'I-NP'
p66
aS'I-NP'
p67
aS'E-NP'
p68
asS'dep_seq'
p69
(lp70
(lp71
S'nn'
p72
aS'2'
aS'1'
aa(lp73
S'dep'
p74
aS'4'
aS'2'
aa(lp75
S'det'
p76
aS'4'
aS'3'
aa(lp77
S'root'
p78
aS'0'
aS'4'
aa(lp79
S'prep_of'
p80
aS'4'
aS'6'
aa(lp81
S'partmod'
p82
aS'4'
aS'7'
aa(lp83
S'poss'
p84
aS'11'
p85
aS'9'
aa(lp86
S'amod'
p87
aS'11'
p88
aS'10'
p89
aa(lp90
S'agent'
p91
aS'7'
aS'11'
p92
aa(lp93
S'amod'
p94
aS'15'
p95
aS'13'
p96
aa(lp97
S'nn'
p98
aS'15'
p99
aS'14'
p100
aa(lp101
S'prep_of'
p102
aS'11'
p103
aS'15'
p104
aa(lp105
S'det'
p106
aS'18'
p107
aS'17'
p108
aa(lp109
S'prep_between'
p110
aS'11'
p111
aS'18'
p112
aa(lp113
S'amod'
p114
aS'21'
p115
aS'20'
p116
aa(lp117
S'conj_and'
p118
aS'18'
p119
aS'21'
p120
aasS'srls'
p121
(lp122
(dp123
S'A1'
p124
S'an attribute of humans defined by their unequal distribution of fine motor skill between the left'
p125
sS'A0'
p126
g25
sS'V'
g26
sa(dp127
S'A1'
p128
g30
sS'A0'
p129
S'by their unequal distribution of fine motor skill between the left and right hands.00'
p130
sS'V'
g31
sasS'pos_seq'
p131
(lp132
S'NN'
p133
aS'NN'
p134
aS'DT'
p135
aS'NN'
p136
aS'IN'
p137
aS'NNS'
p138
aS'VBN'
p139
aS'IN'
p140
aS'PRP$'
p141
aS'JJ'
p142
aS'NN'
p143
aS'IN'
p144
aS'JJ'
p145
aS'NN'
p146
aS'NN'
p147
aS'IN'
p148
aS'DT'
p149
aS'NN'
p150
aS'CC'
p151
aS'JJ'
p152
aS'NN'
p153
asS'ner_seq'
p154
(lp155
S'O'
aS'O'
aS'O'
aS'O'
aS'O'
aS'O'
aS'O'
aS'O'
aS'O'
aS'O'
aS'O'
aS'O'
aS'O'
aS'O'
aS'O'
aS'O'
aS'O'
aS'O'
aS'O'
aS'O'
aS'O'
assb.