ccopy_reg
_reconstructor
p1
(c__main__
KBproperty
p2
c__builtin__
object
p3
NtRp4
(dp5
S'comment'
p6
S'ELO rating'
p7
sS'domain'
p8
S'Chess Player '
p9
sS'instances_count'
p10
I0
sS'phrases'
p11
NsS'syn_hypo'
p12
S''
sS'label'
p13
g7
sS'range'
p14
S'non Negative Integer '
p15
sS'uniq_subjs'
p16
S'0'
sS'uniq_objs'
p17
I0
sS'prop_uri'
p18
S'http://dbpedia.org/ontology/elo'
p19
sS'annotations'
p20
(dp21
S'bag_of_words'
p22
(lp23
S'Chess'
p24
aS'Player'
p25
aS'elo'
p26
aS'non'
p27
aS'Negative'
p28
aS'Integer'
p29
aS'ELO'
p30
aS'rating'
p31
asS'chunk_seq'
p32
(lp33
S'B-NP'
p34
aS'I-NP'
p35
aS'I-NP'
p36
aS'I-NP'
p37
aS'I-NP'
p38
aS'I-NP'
p39
aS'I-NP'
p40
aS'E-NP'
p41
asS'dep_seq'
p42
(lp43
(lp44
S'nn'
p45
aS'2'
aS'1'
aa(lp46
S'dep'
p47
aS'8'
aS'2'
aa(lp48
S'dep'
p49
aS'2'
aS'3'
aa(lp50
S'nn'
p51
aS'8'
aS'4'
aa(lp52
S'nn'
p53
aS'8'
aS'5'
aa(lp54
S'nn'
p55
aS'8'
aS'6'
aa(lp56
S'nn'
p57
aS'8'
aS'7'
aa(lp58
S'root'
p59
aS'0'
aS'8'
aasS'srls'
p60
(lp61
sS'pos_seq'
p62
(lp63
S'NNP'
p64
aS'NNP'
p65
aS'FW'
p66
aS'FW'
p67
aS'NNP'
p68
aS'NNP'
p69
aS'NNP'
p70
aS'NN'
p71
asS'ner_seq'
p72
(lp73
S'B-ORG'
p74
aS'E-ORG'
p75
aS'O'
aS'O'
aS'B-MISC'
p76
aS'I-MISC'
p77
aS'E-MISC'
p78
aS'O'
assb.