ccopy_reg
_reconstructor
p1
(c__main__
KBproperty
p2
c__builtin__
object
p3
NtRp4
(dp5
S'comment'
p6
S'Code assigned to Dutch monuments at the municipal level deemed to be of local value00'
p7
sS'domain'
p8
S'Place '
p9
sS'instances_count'
p10
I0
sS'phrases'
p11
NsS'syn_hypo'
p12
S''
sS'label'
p13
S'monument code municipal'
p14
sS'range'
p15
S'string '
p16
sS'uniq_subjs'
p17
S'0'
sS'uniq_objs'
p18
I0
sS'prop_uri'
p19
S'http://dbpedia.org/ontology/codeMunicipalMonument'
p20
sS'annotations'
p21
(dp22
S'bag_of_words'
p23
(lp24
S'Place'
p25
aS'monument'
p26
aS'code'
p27
aS'municipal'
p28
aS'string'
p29
aS'Code'
p30
aS'assigned'
p31
aS'to'
p32
aS'Dutch'
p33
aS'monuments'
p34
aS'at'
p35
aS'the'
p36
aS'municipal'
p37
aS'level'
p38
aS'deemed'
p39
aS'to'
p40
aS'be'
p41
aS'of'
p42
aS'local'
p43
aS'value00'
p44
asS'chunk_seq'
p45
(lp46
S'B-NP'
p47
aS'I-NP'
p48
aS'I-NP'
p49
aS'I-NP'
p50
aS'I-NP'
p51
aS'E-NP'
p52
aS'S-VP'
p53
aS'S-PP'
p54
aS'B-NP'
p55
aS'E-NP'
p56
aS'S-PP'
p57
aS'B-NP'
p58
aS'I-NP'
p59
aS'E-NP'
p60
aS'B-VP'
p61
aS'I-VP'
p62
aS'E-VP'
p63
aS'S-PP'
p64
aS'B-NP'
p65
aS'E-NP'
p66
asS'dep_seq'
p67
(lp68
(lp69
S'nn'
p70
aS'6'
aS'1'
aa(lp71
S'nn'
p72
aS'6'
aS'2'
aa(lp73
S'nn'
p74
aS'6'
aS'3'
aa(lp75
S'amod'
p76
aS'6'
aS'4'
aa(lp77
S'nn'
p78
aS'6'
aS'5'
aa(lp79
S'root'
p80
aS'0'
aS'6'
aa(lp81
S'partmod'
p82
aS'6'
aS'7'
aa(lp83
S'amod'
p84
aS'10'
p85
aS'9'
aa(lp86
S'prep_to'
p87
aS'7'
aS'10'
p88
aa(lp89
S'det'
p90
aS'14'
p91
aS'12'
p92
aa(lp93
S'amod'
p94
aS'14'
p95
aS'13'
p96
aa(lp97
S'prep_at'
p98
aS'7'
aS'14'
p99
aa(lp100
S'acomp'
p101
aS'7'
aS'15'
p102
aa(lp103
S'aux'
p104
aS'17'
p105
aS'16'
p106
aa(lp107
S'xcomp'
p108
aS'15'
p109
aS'17'
p110
aa(lp111
S'amod'
p112
aS'20'
p113
aS'19'
p114
aa(lp115
S'prep_of'
p116
aS'17'
p117
aS'20'
p118
aasS'srls'
p119
(lp120
(dp121
S'A1'
p122
S'Place monument code municipal string Code'
p123
sS'A2'
p124
S'to Dutch monuments'
p125
sS'AM-PNC'
p126
S'at the municipal level deemed to be of local value00'
p127
sS'V'
g31
sa(dp128
S'A1'
p129
S'the municipal level'
p130
sS'A2'
p131
S'to be of local value00'
p132
sS'V'
g39
sasS'pos_seq'
p133
(lp134
S'NN'
p135
aS'NN'
p136
aS'NN'
p137
aS'JJ'
p138
aS'NN'
p139
aS'NN'
p140
aS'VBN'
p141
aS'TO'
p142
aS'JJ'
p143
aS'NNS'
p144
aS'IN'
p145
aS'DT'
p146
aS'JJ'
p147
aS'NN'
p148
aS'VBN'
p149
aS'TO'
p150
aS'VB'
p151
aS'IN'
p152
aS'JJ'
p153
aS'NN'
p154
asS'ner_seq'
p155
(lp156
S'O'
aS'O'
aS'O'
aS'O'
aS'O'
aS'O'
aS'O'
aS'O'
aS'S-MISC'
p157
aS'O'
aS'O'
aS'O'
aS'O'
aS'O'
aS'O'
aS'O'
aS'O'
aS'O'
aS'O'
aS'O'
assb.