ccopy_reg
_reconstructor
p1
(c__main__
KBproperty
p2
c__builtin__
object
p3
NtRp4
(dp5
S'comment'
p6
S'286233'
p7
sS'domain'
p8
S'Anatomical Structure '
p9
sS'instances_count'
p10
I154
sS'phrases'
p11
NsS'syn_hypo'
p12
Vaccessory_cephalic_veinveinvenavenous_blood_vesselvena_cephalica_accessoriaveinvenavenous_blood_vesselaccessory_hemiazygos_veinveinvenavenous_blood_vesselaccessory_hemiazygous_veinveinvenavenous_blood_vesselvena_hemiazygos_accessoriaveinvenavenous_blood_vesselaccessory_vertebral_veinveinvenavenous_blood_vesselvena_vertebralis_accessoriaveinvenavenous_blood_vesselaccompanying_veinveinvenavenous_blood_vesselvena_comitansveinvenavenous_blood_vesselanastomotic_veinveinvenavenous_blood_vesselvena_anastomoticaveinvenavenous_blood_vesselangular_veinveinvenavenous_blood_vesselvena_angularisveinvenavenous_blood_vesselanterior_vertebral_veinveinvenavenous_blood_vesselvena_vertebralis_anteriorveinvenavenous_blood_vesselappendicular_veinveinvenavenous_blood_vesselvena_appendicularisveinvenavenous_blood_vesselarcuate_vein_of_the_kidneyveinvenavenous_blood_vesselvena_arcuata_renisveinvenavenous_blood_vesselauricular_veinveinvenavenous_blood_vesselvena_auricularisveinvenavenous_blood_vesselaxillary_veinveinvenavenous_blood_vesselvena_axillarisveinvenavenous_blood_vesselazygos_veinveinvenavenous_blood_vesselazygous_veinveinvenavenous_blood_vesselvena_azygosveinvenavenous_blood_vesselbasal_veinveinvenavenous_blood_vesselvena_basalisveinvenavenous_blood_vesselbasilic_veinveinvenavenous_blood_vesselvena_basilicaveinvenavenous_blood_vesselbasivertebral_veinveinvenavenous_blood_vesselvena_basivertebralisveinvenavenous_blood_vesselbrachial_veinveinvenavenous_blood_vesselvena_brachialisveinvenavenous_blood_vesselbrachiocephalic_veinveinvenavenous_blood_vesselinnominate_veinveinvenavenous_blood_vesselvena_brachiocephalicaveinvenavenous_blood_vesselbronchial_veinveinvenavenous_blood_vesselvena_bronchialisveinvenavenous_blood_vesselcardinal_veinveinvenavenous_blood_vesselcentral_vein_of_retinaveinvenavenous_blood_vesselvena_centrales_retinaeveinvenavenous_blood_vesselcentral_vein_of_suprarenal_glandveinvenavenous_blood_vesselvena_centralis_glandulae_suprarenalisveinvenavenous_blood_vesselcentral_veins_of_liverveinvenavenous_blood_vesselvenae_centrales_hepatisveinvenavenous_blood_vesselcephalic_veinveinvenavenous_blood_vesselvena_cephalicaveinvenavenous_blood_vesselcerebellar_veinveinvenavenous_blood_vesselvena_cerebellumveinvenavenous_blood_vesselcerebral_veinveinvenavenous_blood_vesselvena_cerebriveinvenavenous_blood_vesselcervical_veinveinvenavenous_blood_vesseldeep_cervical_veinveinvenavenous_blood_vesselvena_cervicalis_profundaveinvenavenous_blood_vesselchoroid_veinveinvenavenous_blood_vesselvena_choroideaveinvenavenous_blood_vesselciliary_veinsveinvenavenous_blood_vesselvenae_ciliaresveinvenavenous_blood_vesselcircumflex_veinveinvenavenous_blood_vesselvena_circumflexaveinvenavenous_blood_vesselclitoral_veinveinvenavenous_blood_vesselvena_clitoridisveinvenavenous_blood_vesselcolic_veinveinvenavenous_blood_vesselvena_colicaveinvenavenous_blood_vesselcommon_facial_veinveinvenavenous_blood_vesselconjunctival_veinsveinvenavenous_blood_vesselvenae_conjunctivalesveinvenavenous_blood_vesselcostoaxillary_veinveinvenavenous_blood_vesselcutaneous_veinveinvenavenous_blood_vesselvena_cutaneaveinvenavenous_blood_vesselcystic_veinveinvenavenous_blood_vesselvena_cysticaveinvenavenous_blood_vesseldigital_veinveinvenavenous_blood_vesselvena_digitalisveinvenavenous_blood_vesseldiploic_veinveinvenavenous_blood_vesselvena_diploicaveinvenavenous_blood_vesseldorsal_scapular_veinveinvenavenous_blood_vesselvena_scapularis_dorsalisveinvenavenous_blood_vesselemissary_veinveinvenavenous_blood_vesselvena_emissariaveinvenavenous_blood_vesselepigastric_veinveinvenavenous_blood_vesselesophageal_veinsveinvenavenous_blood_vesseloesophageal_veinsveinvenavenous_blood_vesselvenae_esophageaeveinvenavenous_blood_vesselethmoidal_veinveinvenavenous_blood_vesselvena_ethmoidalisveinvenavenous_blood_vesselexternal_nasal_veinveinvenavenous_blood_vesselvena_nasalis_externaveinvenavenous_blood_vesselfacial_veinveinvenavenous_blood_vesselvena_facialisveinvenavenous_blood_vesselfemoral_veinveinvenavenous_blood_vesselvena_femoralisveinvenavenous_blood_vesselgastric_veinveinvenavenous_blood_vesselvena_gastricaveinvenavenous_blood_vesselgastroomental_veinveinvenavenous_blood_vesselgastroepiploic_veinveinvenavenous_blood_vesselvena_gastroomentalisveinvenavenous_blood_vesselgenicular_veinveinvenavenous_blood_vesselvena_genusveinvenavenous_blood_vesselgluteal_veinveinvenavenous_blood_vesselvena_gluteusveinvenavenous_blood_vesselhemizygos_veinveinvenavenous_blood_vesselhemizygous_veinveinvenavenous_blood_vesselvena_hemizygosveinvenavenous_blood_vesselhemorrhoidal_veinveinvenavenous_blood_vesselrectal_veinveinvenavenous_blood_vesselvena_rectalisveinvenavenous_blood_vesselhepatic_veinveinvenavenous_blood_vesselvena_hepaticaveinvenavenous_blood_vesselileocolic_veinveinvenavenous_blood_vesselvena_ileocolicaveinvenavenous_blood_vesseliliac_veinveinvenavenous_blood_vesselvena_iliacaveinvenavenous_blood_vesseliliolumbar_veinveinvenavenous_blood_vesselvena_iliolumbalisveinvenavenous_blood_vesselintercapitular_veinveinvenavenous_blood_vesselvena_intercapitalisveinvenavenous_blood_vesselintercostal_veinveinvenavenous_blood_vesselvena_intercostalisveinvenavenous_blood_vesselintervertebral_veinveinvenavenous_blood_vesselvena_intervertebralisveinvenavenous_blood_vesseljugular_veinveinvenavenous_blood_vesselvena_jugularisveinvenavenous_blood_vesseljugularveinvenavenous_blood_vessellabial_veinveinvenavenous_blood_vesselvena_labialisveinvenavenous_blood_vessellabial_veinveinvenavenous_blood_vesselvena_labialisveinvenavenous_blood_vessellabyrinthine_veinveinvenavenous_blood_vesselinternal_auditory_veinveinvenavenous_blood_vessellacrimal_veinveinvenavenous_blood_vesselvena_lacrimalisveinvenavenous_blood_vessellaryngeal_veinveinvenavenous_blood_vesselvena_laryngeaveinvenavenous_blood_vessellingual_veinveinvenavenous_blood_vesselvena_lingualisveinvenavenous_blood_vessellumbar_veinveinvenavenous_blood_vesselvena_lumbalisveinvenavenous_blood_vesselmaxillary_veinveinvenavenous_blood_vesselvena_maxillarisveinvenavenous_blood_vesselmeningeal_veinsveinvenavenous_blood_vesselvenae_meningeaeveinvenavenous_blood_vesselmesenteric_veinveinvenavenous_blood_vesselvena_mesentericaveinvenavenous_blood_vesselmetacarpal_veinveinvenavenous_blood_vesselvena_metacarpusveinvenavenous_blood_vesselmetatarsal_veinveinvenavenous_blood_vesselvena_metatarsusveinvenavenous_blood_vesselmusculophrenic_veinveinvenavenous_blood_vesselvena_musculophrenicaveinvenavenous_blood_vesselnasofrontal_veinveinvenavenous_blood_vesselvena_nasofrontalisveinvenavenous_blood_vesseloblique_vein_of_the_left_atriumveinvenavenous_blood_vesselvena_obliqua_atrii_sinistriveinvenavenous_blood_vesselobturator_veinveinvenavenous_blood_vesselvena_obturatoriaveinvenavenous_blood_vesseloccipital_veinveinvenavenous_blood_vesselvena_occipitalisveinvenavenous_blood_vesselophthalmic_veinveinvenavenous_blood_vesselvena_ophthalmicaveinvenavenous_blood_vesselovarian_veinveinvenavenous_blood_vesselvena_ovaricaveinvenavenous_blood_vesselpalatine_veinveinvenavenous_blood_vesselvena_palatinaveinvenavenous_blood_vesselpancreatic_veinveinvenavenous_blood_vesselvenae_pancreaticaveinvenavenous_blood_vesselparaumbilical_veinveinvenavenous_blood_vesselvena_paraumbilicalisveinvenavenous_blood_vesselparotid_veinveinvenavenous_blood_vesselpectoral_veinveinvenavenous_blood_vesselvena_pectoralisveinvenavenous_blood_vesselperforating_veinveinvenavenous_blood_vesselvena_perforantisveinvenavenous_blood_vesselpericardial_veinveinvenavenous_blood_vesselvena_pericardiacaveinvenavenous_blood_vesselperoneal_veinveinvenavenous_blood_vesselfibular_veinveinvenavenous_blood_vesselvena_peroneusveinvenavenous_blood_vesselpharyngeal_veinveinvenavenous_blood_vesselvena_pharyngeusveinvenavenous_blood_vesselphrenic_veinveinvenavenous_blood_vesselvena_phrenicaveinvenavenous_blood_vesselpopliteal_veinveinvenavenous_blood_vesselvena_popliteaveinvenavenous_blood_vesselportal_veinveinvenavenous_blood_vesselhepatic_portal_veinveinvenavenous_blood_vesselportalveinvenavenous_blood_vesselvena_portaeveinvenavenous_blood_vesselposterior_vein_of_the_left_ventricleveinvenavenous_blood_vesselvena_posterior_ventriculi_sinistriveinvenavenous_blood_vesselprepyloric_veinveinvenavenous_blood_vesselvena_pyloricaveinvenavenous_blood_vesselpudendal_veinveinvenavenous_blood_vesselvenae_pudendumveinvenavenous_blood_vesselpulmonary_veinveinvenavenous_blood_vesselvena_pulmonalisveinvenavenous_blood_vesselradial_veinveinvenavenous_blood_vesselvena_radialisveinvenavenous_blood_vesselrenal_veinveinvenavenous_blood_vesselvena_renalisveinvenavenous_blood_vesselsacral_veinveinvenavenous_blood_vesselvena_sacralisveinvenavenous_blood_vesselsaphenous_veinveinvenavenous_blood_vesselvena_saphenaveinvenavenous_blood_vesselscleral_veinsveinvenavenous_blood_vesselvenae_scleralesveinvenavenous_blood_vesselscrotal_veinveinvenavenous_blood_vesselvena_scrotalisveinvenavenous_blood_vesselsigmoid_veinveinvenavenous_blood_vesselvena_sigmoideusveinvenavenous_blood_vesselspinal_veinveinvenavenous_blood_vesselvena_spinalisveinvenavenous_blood_vesselsplenic_veinveinvenavenous_blood_vesselvena_lienalisveinvenavenous_blood_vesselsternocleidomastoid_veinveinvenavenous_blood_vesselvena_sternocleidomastoideaveinvenavenous_blood_vesselstylomastoid_veinveinvenavenous_blood_vesselvena_stylomastoideaveinvenavenous_blood_vesselsubclavian_veinveinvenavenous_blood_vesselvena_subclaviaveinvenavenous_blood_vesselsublingual_veinveinvenavenous_blood_vesselvena_sublingualisveinvenavenous_blood_vesselsupraorbital_veinveinvenavenous_blood_vesselvena_supraorbitalisveinvenavenous_blood_vesselsupratrochlear_veinveinvenavenous_blood_vesselvena_supratrochlearisveinvenavenous_blood_vesseltemporal_veinveinvenavenous_blood_vesselvena_temporalisveinvenavenous_blood_vesseltesticular_veinveinvenavenous_blood_vesselvena_testicularisveinvenavenous_blood_vesselthalamostriate_veinveinvenavenous_blood_vesselthoracic_veinveinvenavenous_blood_vesselvena_thoracicaveinvenavenous_blood_vesselthoracoepigastric_veinveinvenavenous_blood_vesselvena_thoracoepigastricaveinvenavenous_blood_vesselthyroid_veinveinvenavenous_blood_vesselvena_thyroideaveinvenavenous_blood_vesseltibial_veinveinvenavenous_blood_vesselvena_tibialisveinvenavenous_blood_vesseltracheal_veinveinvenavenous_blood_vesselvena_trachealisveinvenavenous_blood_vesseltympanic_veinveinvenavenous_blood_vesselulnar_veinveinvenavenous_blood_vesselvena_ulnarisveinvenavenous_blood_vesselumbilical_veinveinvenavenous_blood_vesselvena_umbilicalisveinvenavenous_blood_vesseluterine_veinveinvenavenous_blood_vesselvaricose_veinveinvenavenous_blood_vesselvein_of_penisveinvenavenous_blood_vesselvena_bulbi_penisveinvenavenous_blood_vesselvena_bulbi_vestibuliveinvenavenous_blood_vesselvena_canaliculi_cochleaeveinvenavenous_blood_vesselvena_cavaveinvenavenous_blood_vesselvenae_interlobulares_hepatisveinvenavenous_blood_vesselvenae_palpebralesveinvenavenous_blood_vesselvenae_renisveinvenavenous_blood_vesselvenuleveinvenavenous_blood_vesselvenulaveinvenavenous_blood_vesselcapillary_veinveinvenavenous_blood_vesselvertebral_veinveinvenavenous_blood_vesselvena_vertebralisveinvenavenous_blood_vesselvesical_veinveinvenavenous_blood_vesselvena_vesicalisveinvenavenous_blood_vesselvestibular_veinveinvenavenous_blood_vesselvena_vestibularisveinvenavenous_blood_vesselvortex_veinveinvenavenous_blood_vesselvorticose_veinveinvenavenous_blood_vesselvena_vorticosum
p13
sS'label'
p14
S'vein'
p15
sS'range'
p16
S'Vein '
p17
sS'uniq_subjs'
p18
S'154'
p19
sS'uniq_objs'
p20
I0
sS'prop_uri'
p21
S'http://dbpedia.org/ontology/vein'
p22
sS'annotations'
p23
(dp24
S'bag_of_words'
p25
(lp26
S'Anatomical'
p27
aS'Structure'
p28
aS'vein'
p29
aS'Vein'
p30
aS'286233'
p31
asS'chunk_seq'
p32
(lp33
S'B-NP'
p34
aS'I-NP'
p35
aS'I-NP'
p36
aS'I-NP'
p37
aS'E-NP'
p38
asS'dep_seq'
p39
(lp40
(lp41
S'amod'
p42
aS'5'
aS'1'
aa(lp43
S'nn'
p44
aS'5'
aS'2'
aa(lp45
S'nn'
p46
aS'5'
aS'3'
aa(lp47
S'nn'
p48
aS'5'
aS'4'
aa(lp49
S'root'
p50
aS'0'
aS'5'
aasS'srls'
p51
(lp52
sS'pos_seq'
p53
(lp54
S'JJ'
p55
aS'NN'
p56
aS'NN'
p57
aS'NN'
p58
aS'NN'
p59
asS'ner_seq'
p60
(lp61
S'O'
aS'O'
aS'O'
aS'O'
aS'O'
assb.