ccopy_reg
_reconstructor
p1
(c__main__
KBproperty
p2
c__builtin__
object
p3
NtRp4
(dp5
S'comment'
p6
S'00'
p7
sS'domain'
p8
S'Mean Of Transportation '
p9
sS'instances_count'
p10
I0
sS'phrases'
p11
NsS'syn_hypo'
p12
S''
sS'label'
p13
S'number of crew'
p14
sS'range'
p15
S'non Negative Integer '
p16
sS'uniq_subjs'
p17
S'0'
sS'uniq_objs'
p18
I0
sS'prop_uri'
p19
S'http://dbpedia.org/ontology/numberOfCrew'
p20
sS'annotations'
p21
(dp22
S'bag_of_words'
p23
(lp24
S'Mean'
p25
aS'Of'
p26
aS'Transportation'
p27
aS'number'
p28
aS'of'
p29
aS'crew'
p30
aS'non'
p31
aS'Negative'
p32
aS'Integer'
p33
aS'00'
p34
asS'chunk_seq'
p35
(lp36
S'S-NP'
p37
aS'S-PP'
p38
aS'B-NP'
p39
aS'E-NP'
p40
aS'S-PP'
p41
aS'B-NP'
p42
aS'I-NP'
p43
aS'I-NP'
p44
aS'E-NP'
p45
aS'O'
asS'dep_seq'
p46
(lp47
(lp48
S'dep'
p49
aS'9'
aS'1'
aa(lp50
S'nn'
p51
aS'4'
aS'3'
aa(lp52
S'prep_of'
p53
aS'9'
aS'4'
aa(lp54
S'prep_of'
p55
aS'4'
aS'6'
aa(lp56
S'amod'
p57
aS'9'
aS'7'
aa(lp58
S'nn'
p59
aS'9'
aS'8'
aa(lp60
S'root'
p61
aS'0'
aS'9'
aa(lp62
S'num'
p63
aS'9'
aS'10'
p64
aasS'srls'
p65
(lp66
sS'pos_seq'
p67
(lp68
S'NNP'
p69
aS'IN'
p70
aS'NNP'
p71
aS'NN'
p72
aS'IN'
p73
aS'NN'
p74
aS'JJ'
p75
aS'NNP'
p76
aS'NNP'
p77
aS'CD'
p78
asS'ner_seq'
p79
(lp80
S'O'
aS'O'
aS'O'
aS'O'
aS'O'
aS'O'
aS'O'
aS'O'
aS'O'
aS'O'
assb.