ccopy_reg
_reconstructor
p1
(c__main__
KBproperty
p2
c__builtin__
object
p3
NtRp4
(dp5
S'comment'
p6
S'208171'
p7
sS'domain'
p8
S'Island '
p9
sS'instances_count'
p10
I36
sS'phrases'
p11
NsS'syn_hypo'
p12
Vancien_regimegovernmentauthoritiesregimeauthoritarian_stategovernmentauthoritiesregimeauthoritarian_regimegovernmentauthoritiesregimebureaucracygovernmentauthoritiesregimecourtgovernmentauthoritiesregimeroyal_courtgovernmentauthoritiesregimeDowning_Streetgovernmentauthoritiesregimeempiregovernmentauthoritiesregimefederal_governmentgovernmentauthoritiesregimegovernment-in-exilegovernmentauthoritiesregimelocal_governmentgovernmentauthoritiesregimemilitary_governmentgovernmentauthoritiesregimestratocracygovernmentauthoritiesregimepalacegovernmentauthoritiesregimepapacygovernmentauthoritiesregimepontificategovernmentauthoritiesregimepuppet_governmentgovernmentauthoritiesregimepuppet_stategovernmentauthoritiesregimepupet_regimegovernmentauthoritiesregimestategovernmentauthoritiesregimestate_governmentgovernmentauthoritiesregimetotalitarian_stategovernmentauthoritiesregimetotalitation_regime
p13
sS'label'
p14
S'government'
p15
sS'range'
p16
S''
sS'uniq_subjs'
p17
S'36'
p18
sS'uniq_objs'
p19
I0
sS'prop_uri'
p20
S'http://dbpedia.org/ontology/government'
p21
sS'annotations'
p22
(dp23
S'bag_of_words'
p24
(lp25
S'Island'
p26
aS'government'
p27
aS'208171'
p28
asS'chunk_seq'
p29
(lp30
S'B-NP'
p31
aS'E-NP'
p32
aS'S-ADJP'
p33
asS'dep_seq'
p34
(lp35
(lp36
S'nn'
p37
aS'2'
aS'1'
aa(lp38
S'root'
p39
aS'0'
aS'2'
aa(lp40
S'punct'
p41
aS'2'
aS'3'
aasS'srls'
p42
(lp43
sS'pos_seq'
p44
(lp45
S'NNP'
p46
aS'NN'
p47
aS'.'
asS'ner_seq'
p48
(lp49
S'O'
aS'O'
aS'O'
assb.