ccopy_reg
_reconstructor
p1
(c__main__
KBproperty
p2
c__builtin__
object
p3
NtRp4
(dp5
S'comment'
p6
S'Railway services that serve the station.2046015597'
p7
sS'domain'
p8
S'Station '
p9
sS'instances_count'
p10
I3589
sS'phrases'
p11
NsS'syn_hypo'
p12
S''
sS'label'
p13
S'serving railway line'
p14
sS'range'
p15
S''
sS'uniq_subjs'
p16
S'3589'
p17
sS'uniq_objs'
p18
I0
sS'prop_uri'
p19
S'http://dbpedia.org/ontology/servingRailwayLine'
p20
sS'annotations'
p21
(dp22
S'bag_of_words'
p23
(lp24
S'Station'
p25
aS'serving'
p26
aS'railway'
p27
aS'line'
p28
aS'Railway'
p29
aS'services'
p30
aS'that'
p31
aS'serve'
p32
aS'the'
p33
aS'station.2046015597'
p34
asS'chunk_seq'
p35
(lp36
S'S-NP'
p37
aS'S-VP'
p38
aS'B-NP'
p39
aS'I-NP'
p40
aS'I-NP'
p41
aS'E-NP'
p42
aS'S-NP'
p43
aS'S-VP'
p44
aS'B-NP'
p45
aS'E-NP'
p46
asS'dep_seq'
p47
(lp48
(lp49
S'nn'
p50
aS'6'
aS'1'
aa(lp51
S'amod'
p52
aS'6'
aS'2'
aa(lp53
S'nn'
p54
aS'6'
aS'3'
aa(lp55
S'nn'
p56
aS'6'
aS'4'
aa(lp57
S'nn'
p58
aS'6'
aS'5'
aa(lp59
S'root'
p60
aS'0'
aS'6'
aa(lp61
S'nsubj'
p62
aS'8'
aS'6'
aa(lp63
S'rcmod'
p64
aS'6'
aS'8'
aa(lp65
S'det'
p66
aS'10'
p67
aS'9'
aa(lp68
S'dobj'
p69
aS'8'
aS'10'
p70
aasS'srls'
p71
(lp72
(dp73
S'A1'
p74
S'railway line Railway services that serve the station.2046015597'
p75
sS'A0'
p76
g25
sS'V'
g26
sa(dp77
S'A0'
p78
S'railway line Railway services'
p79
sS'A2'
p80
S'the station.2046015597'
p81
sS'R-A0'
p82
g31
sS'V'
g32
sasS'pos_seq'
p83
(lp84
S'NN'
p85
aS'VBG'
p86
aS'NN'
p87
aS'NN'
p88
aS'NNP'
p89
aS'NNS'
p90
aS'WDT'
p91
aS'VBP'
p92
aS'DT'
p93
aS'NN'
p94
asS'ner_seq'
p95
(lp96
S'O'
aS'O'
aS'O'
aS'O'
aS'S-ORG'
p97
aS'O'
aS'O'
aS'O'
aS'O'
aS'O'
assb.