ccopy_reg
_reconstructor
p1
(c__main__
KBproperty
p2
c__builtin__
object
p3
NtRp4
(dp5
S'comment'
p6
S'39263069'
p7
sS'domain'
p8
S'Work '
p9
sS'instances_count'
p10
I3132
sS'phrases'
p11
NsS'syn_hypo'
p12
S''
sS'label'
p13
S'based on'
p14
sS'range'
p15
S'Work '
p16
sS'uniq_subjs'
p17
S'3132'
p18
sS'uniq_objs'
p19
I0
sS'prop_uri'
p20
S'http://dbpedia.org/ontology/basedOn'
p21
sS'annotations'
p22
(dp23
S'bag_of_words'
p24
(lp25
S'Work'
p26
aS'based'
p27
aS'on'
p28
aS'Work'
p29
aS'39263069'
p30
asS'chunk_seq'
p31
(lp32
S'S-NP'
p33
aS'S-PP'
p34
aS'S-PP'
p35
aS'S-NP'
p36
aS'S-ADJP'
p37
asS'dep_seq'
p38
(lp39
(lp40
S'root'
p41
aS'0'
aS'1'
aa(lp42
S'prepc_based_on'
p43
aS'1'
aS'3'
aa(lp44
S'pobj'
p45
aS'1'
aS'4'
aa(lp46
S'punct'
p47
aS'4'
aS'5'
aasS'srls'
p48
(lp49
(dp50
S'A1'
p51
g26
sS'AM-LOC'
p52
S'on Work 39263069'
p53
sS'V'
g27
sasS'pos_seq'
p54
(lp55
S'NN'
p56
aS'VBN'
p57
aS'IN'
p58
aS'NNP'
p59
aS'.'
asS'ner_seq'
p60
(lp61
S'O'
aS'O'
aS'O'
aS'O'
aS'O'
assb.