ccopy_reg
_reconstructor
p1
(c__main__
KBproperty
p2
c__builtin__
object
p3
NtRp4
(dp5
S'comment'
p6
S'Creator of the text of a MusicalWork eg Musical Opera or Song19101497'
p7
sS'domain'
p8
S'Musical Work '
p9
sS'instances_count'
p10
I1910
sS'phrases'
p11
NsS'syn_hypo'
p12
S''
sS'label'
p13
S'lyrics'
p14
sS'range'
p15
S'Person '
p16
sS'uniq_subjs'
p17
S'966'
p18
sS'uniq_objs'
p19
I0
sS'prop_uri'
p20
S'http://dbpedia.org/ontology/lyrics'
p21
sS'annotations'
p22
(dp23
S'bag_of_words'
p24
(lp25
S'Musical'
p26
aS'Work'
p27
aS'lyrics'
p28
aS'Person'
p29
aS'Creator'
p30
aS'of'
p31
aS'the'
p32
aS'text'
p33
aS'of'
p34
aS'a'
aS'MusicalWork'
p35
aS'eg'
p36
aS'Musical'
p37
aS'Opera'
p38
aS'or'
p39
aS'Song19101497'
p40
asS'chunk_seq'
p41
(lp42
S'B-NP'
p43
aS'I-NP'
p44
aS'I-NP'
p45
aS'I-NP'
p46
aS'E-NP'
p47
aS'S-PP'
p48
aS'B-NP'
p49
aS'E-NP'
p50
aS'S-PP'
p51
aS'B-NP'
p52
aS'I-NP'
p53
aS'I-NP'
p54
aS'I-NP'
p55
aS'I-NP'
p56
aS'I-NP'
p57
aS'E-NP'
p58
asS'dep_seq'
p59
(lp60
(lp61
S'amod'
p62
aS'5'
aS'1'
aa(lp63
S'nn'
p64
aS'5'
aS'2'
aa(lp65
S'nn'
p66
aS'5'
aS'3'
aa(lp67
S'nn'
p68
aS'5'
aS'4'
aa(lp69
S'root'
p70
aS'0'
aS'5'
aa(lp71
S'det'
p72
aS'8'
aS'7'
aa(lp73
S'prep_of'
p74
aS'5'
aS'8'
aa(lp75
S'det'
p76
aS'14'
p77
aS'10'
p78
aa(lp79
S'amod'
p80
aS'14'
p81
aS'11'
p82
aa(lp83
S'nn'
p84
aS'14'
p85
aS'12'
p86
aa(lp87
S'nn'
p88
aS'14'
p89
aS'13'
p90
aa(lp91
S'prep_of'
p92
aS'8'
aS'14'
p93
aa(lp94
S'conj_or'
p95
aS'14'
p96
aS'16'
p97
aasS'srls'
p98
(lp99
sS'pos_seq'
p100
(lp101
S'JJ'
p102
aS'NN'
p103
aS'NNS'
p104
aS'NNP'
p105
aS'NNP'
p106
aS'IN'
p107
aS'DT'
p108
aS'NN'
p109
aS'IN'
p110
aS'DT'
p111
aS'JJ'
p112
aS'NN'
p113
aS'NNP'
p114
aS'NNP'
p115
aS'CC'
p116
aS'NNP'
p117
asS'ner_seq'
p118
(lp119
S'O'
aS'O'
aS'O'
aS'O'
aS'O'
aS'O'
aS'O'
aS'O'
aS'O'
aS'O'
aS'B-MISC'
p120
aS'I-MISC'
p121
aS'I-MISC'
p122
aS'I-MISC'
p123
aS'I-MISC'
p124
aS'E-MISC'
p125
assb.