ccopy_reg
_reconstructor
p1
(c__main__
KBproperty
p2
c__builtin__
object
p3
NtRp4
(dp5
S'comment'
p6
S'distance to Douglas \\xce\\xbc'
p7
sS'domain'
p8
S'Settlement '
p9
sS'instances_count'
p10
I6
sS'phrases'
p11
NsS'syn_hypo'
p12
S''
sS'label'
p13
g7
sS'range'
p14
S'double '
p15
sS'uniq_subjs'
p16
S'6'
sS'uniq_objs'
p17
I0
sS'prop_uri'
p18
S'http://dbpedia.org/ontology/distanceToDouglas'
p19
sS'annotations'
p20
(dp21
S'bag_of_words'
p22
(lp23
S'Settlement'
p24
aS'distance'
p25
aS'To'
p26
aS'Douglas'
p27
aS'double'
p28
aS'distance'
p29
aS'to'
p30
aS'Douglas'
p31
aS'\\'
aS'xce'
p32
aS'\\'
aS'xbc'
p33
asS'chunk_seq'
p34
(lp35
S'B-NP'
p36
aS'E-NP'
p37
aS'S-PP'
p38
aS'B-NP'
p39
aS'I-NP'
p40
aS'E-NP'
p41
aS'S-PP'
p42
aS'S-NP'
p43
aS'O'
aS'O'
aS'O'
aS'O'
asS'dep_seq'
p44
(lp45
(lp46
S'nn'
p47
aS'2'
aS'1'
aa(lp48
S'dep'
p49
aS'6'
aS'2'
aa(lp50
S'prep_to'
p51
aS'2'
aS'4'
aa(lp52
S'amod'
p53
aS'6'
aS'5'
aa(lp54
S'root'
p55
aS'0'
aS'6'
aa(lp56
S'prep_to'
p57
aS'6'
aS'8'
aa(lp58
S'dep'
p59
aS'6'
aS'9'
aa(lp60
S'dep'
p61
aS'12'
p62
aS'10'
p63
aa(lp64
S'dep'
p65
aS'12'
p66
aS'11'
p67
aa(lp68
S'dep'
p69
aS'9'
aS'12'
p70
aasS'srls'
p71
(lp72
sS'pos_seq'
p73
(lp74
S'NN'
p75
aS'NN'
p76
aS'TO'
p77
aS'NNP'
p78
aS'JJ'
p79
aS'NN'
p80
aS'TO'
p81
aS'NNP'
p82
aS'FW'
p83
aS'FW'
p84
aS'FW'
p85
aS'FW'
p86
asS'ner_seq'
p87
(lp88
S'O'
aS'O'
aS'O'
aS'S-PER'
p89
aS'O'
aS'O'
aS'O'
aS'S-PER'
p90
aS'O'
aS'O'
aS'O'
aS'O'
assb.