ccopy_reg
_reconstructor
p1
(c__main__
KBproperty
p2
c__builtin__
object
p3
NtRp4
(dp5
S'comment'
p6
S'designer company'
p7
sS'domain'
p8
S'Mean Of Transportation '
p9
sS'instances_count'
p10
I434
sS'phrases'
p11
NsS'syn_hypo'
p12
S''
sS'label'
p13
g7
sS'range'
p14
S'Company '
p15
sS'uniq_subjs'
p16
S'434'
p17
sS'uniq_objs'
p18
I0
sS'prop_uri'
p19
S'http://dbpedia.org/ontology/designCompany'
p20
sS'annotations'
p21
(dp22
S'bag_of_words'
p23
(lp24
S'Mean'
p25
aS'Of'
p26
aS'Transportation'
p27
aS'design'
p28
aS'Company'
p29
aS'Company'
p30
aS'designer'
p31
aS'company'
p32
asS'chunk_seq'
p33
(lp34
S'S-NP'
p35
aS'S-PP'
p36
aS'B-NP'
p37
aS'I-NP'
p38
aS'I-NP'
p39
aS'I-NP'
p40
aS'I-NP'
p41
aS'E-NP'
p42
asS'dep_seq'
p43
(lp44
(lp45
S'root'
p46
aS'0'
aS'1'
aa(lp47
S'nn'
p48
aS'8'
aS'3'
aa(lp49
S'nn'
p50
aS'8'
aS'4'
aa(lp51
S'nn'
p52
aS'8'
aS'5'
aa(lp53
S'nn'
p54
aS'8'
aS'6'
aa(lp55
S'nn'
p56
aS'8'
aS'7'
aa(lp57
S'prep_of'
p58
aS'1'
aS'8'
aasS'srls'
p59
(lp60
sS'pos_seq'
p61
(lp62
S'NNP'
p63
aS'IN'
p64
aS'NNP'
p65
aS'NN'
p66
aS'NNP'
p67
aS'NNP'
p68
aS'NN'
p69
aS'NN'
p70
asS'ner_seq'
p71
(lp72
S'O'
aS'B-ORG'
p73
aS'I-ORG'
p74
aS'I-ORG'
p75
aS'I-ORG'
p76
aS'E-ORG'
p77
aS'O'
aS'O'
assb.