ccopy_reg
_reconstructor
p1
(c__main__
KBproperty
p2
c__builtin__
object
p3
NtRp4
(dp5
S'comment'
p6
S'Chemical Abstracts Service number. Applicable to ChemicalCompound or Biomolecule eg Protein52665261'
p7
sS'domain'
p8
S''
sS'instances_count'
p9
I5217
sS'phrases'
p10
NsS'syn_hypo'
p11
S''
sS'label'
p12
S'CAS number'
p13
sS'range'
p14
S'string '
p15
sS'uniq_subjs'
p16
S'5217'
p17
sS'uniq_objs'
p18
I0
sS'prop_uri'
p19
S'http://dbpedia.org/ontology/casNumber'
p20
sS'annotations'
p21
(dp22
S'bag_of_words'
p23
(lp24
S'CAS'
p25
aS'number'
p26
aS'string'
p27
aS'Chemical'
p28
aS'Abstracts'
p29
aS'Service'
p30
aS'number'
p31
aS'.'
aS'Applicable'
p32
aS'to'
p33
aS'ChemicalCompound'
p34
aS'or'
p35
aS'Biomolecule'
p36
aS'eg'
p37
aS'Protein52665261'
p38
asS'chunk_seq'
p39
(lp40
S'B-NP'
p41
aS'I-NP'
p42
aS'I-NP'
p43
aS'I-NP'
p44
aS'I-NP'
p45
aS'I-NP'
p46
aS'E-NP'
p47
aS'O'
aS'S-ADJP'
p48
aS'S-PP'
p49
aS'B-NP'
p50
aS'I-NP'
p51
aS'I-NP'
p52
aS'I-NP'
p53
aS'E-NP'
p54
asS'dep_seq'
p55
(lp56
(lp57
S'nn'
p58
aS'7'
aS'1'
aa(lp59
S'nn'
p60
aS'7'
aS'2'
aa(lp61
S'nn'
p62
aS'7'
aS'3'
aa(lp63
S'nn'
p64
aS'7'
aS'4'
aa(lp65
S'nn'
p66
aS'7'
aS'5'
aa(lp67
S'nn'
p68
aS'7'
aS'6'
aa(lp69
S'root'
p70
aS'0'
aS'7'
aa(lp71
S'amod'
p72
aS'7'
aS'9'
aa(lp73
S'amod'
p74
aS'14'
p75
aS'11'
p76
aa(lp77
S'conj_or'
p78
aS'11'
p79
aS'13'
p80
aa(lp81
S'prep_to'
p82
aS'9'
aS'14'
p83
aa(lp84
S'dep'
p85
aS'14'
p86
aS'15'
p87
aasS'srls'
p88
(lp89
sS'pos_seq'
p90
(lp91
S'NNP'
p92
aS'NN'
p93
aS'NN'
p94
aS'NNP'
p95
aS'NNP'
p96
aS'NNP'
p97
aS'NN'
p98
aS'.'
aS'NNP'
p99
aS'TO'
p100
aS'NNP'
p101
aS'CC'
p102
aS'JJ'
p103
aS'NN'
p104
aS'NNP'
p105
asS'ner_seq'
p106
(lp107
S'S-ORG'
p108
aS'O'
aS'O'
aS'B-MISC'
p109
aS'I-MISC'
p110
aS'E-MISC'
p111
aS'O'
aS'O'
aS'O'
aS'O'
aS'B-MISC'
p112
aS'I-MISC'
p113
aS'I-MISC'
p114
aS'I-MISC'
p115
aS'E-MISC'
p116
assb.