ccopy_reg
_reconstructor
p1
(c__main__
KBproperty
p2
c__builtin__
object
p3
NtRp4
(dp5
S'comment'
p6
S'fuel capacity \\xce\\xbc\\xc2\\xb3'
p7
sS'domain'
p8
S'Automobile '
p9
sS'instances_count'
p10
I11
sS'phrases'
p11
NsS'syn_hypo'
p12
S''
sS'label'
p13
g7
sS'range'
p14
S'double '
p15
sS'uniq_subjs'
p16
S'11'
p17
sS'uniq_objs'
p18
I0
sS'prop_uri'
p19
S'http://dbpedia.org/ontology/fuelCapacity'
p20
sS'annotations'
p21
(dp22
S'bag_of_words'
p23
(lp24
S'Automobile'
p25
aS'fuel'
p26
aS'Capacity'
p27
aS'double'
p28
aS'fuel'
p29
aS'capacity'
p30
aS'\\'
aS'xce'
p31
aS'\\'
aS'xbc'
p32
aS'\\'
aS'xc2'
p33
aS'\\'
aS'xb3'
p34
asS'chunk_seq'
p35
(lp36
S'B-NP'
p37
aS'I-NP'
p38
aS'E-NP'
p39
aS'B-NP'
p40
aS'I-NP'
p41
aS'E-NP'
p42
aS'O'
aS'O'
aS'O'
aS'O'
aS'O'
aS'O'
aS'O'
aS'O'
asS'dep_seq'
p43
(lp44
(lp45
S'nn'
p46
aS'3'
aS'1'
aa(lp47
S'nn'
p48
aS'3'
aS'2'
aa(lp49
S'dep'
p50
aS'6'
aS'3'
aa(lp51
S'amod'
p52
aS'6'
aS'4'
aa(lp53
S'nn'
p54
aS'6'
aS'5'
aa(lp55
S'root'
p56
aS'0'
aS'6'
aa(lp57
S'dep'
p58
aS'6'
aS'7'
aa(lp59
S'discourse'
p60
aS'6'
aS'8'
aa(lp61
S'dep'
p62
aS'8'
aS'9'
aa(lp63
S'dep'
p64
aS'8'
aS'10'
p65
aa(lp66
S'dep'
p67
aS'8'
aS'11'
p68
aa(lp69
S'dep'
p70
aS'8'
aS'12'
p71
aa(lp72
S'dep'
p73
aS'8'
aS'13'
p74
aa(lp75
S'dep'
p76
aS'8'
aS'14'
p77
aasS'srls'
p78
(lp79
sS'pos_seq'
p80
(lp81
S'NN'
p82
aS'NN'
p83
aS'NN'
p84
aS'JJ'
p85
aS'NN'
p86
aS'NN'
p87
aS'FW'
p88
aS'FW'
p89
aS'FW'
p90
aS'FW'
p91
aS'FW'
p92
aS'FW'
p93
aS'FW'
p94
aS'FW'
p95
asS'ner_seq'
p96
(lp97
S'O'
aS'O'
aS'O'
aS'O'
aS'O'
aS'O'
aS'O'
aS'O'
aS'O'
aS'O'
aS'O'
aS'O'
aS'O'
aS'O'
assb.