ccopy_reg
_reconstructor
p1
(c__main__
KBproperty
p2
c__builtin__
object
p3
NtRp4
(dp5
S'comment'
p6
S'A colour represented by a string holding its name e.g.: red or green.77687634'
p7
sS'domain'
p8
S''
sS'instances_count'
p9
I1589
sS'phrases'
p10
NsS'syn_hypo'
p11
S''
sS'label'
p12
S'colour name'
p13
sS'range'
p14
S'lang String '
p15
sS'uniq_subjs'
p16
S'1589'
p17
sS'uniq_objs'
p18
I0
sS'prop_uri'
p19
S'http://dbpedia.org/ontology/colourName'
p20
sS'annotations'
p21
(dp22
S'bag_of_words'
p23
(lp24
S'colour'
p25
aS'name'
p26
aS'lang'
p27
aS'String'
p28
aS'A'
aS'colour'
p29
aS'represented'
p30
aS'by'
p31
aS'a'
aS'string'
p32
aS'holding'
p33
aS'its'
p34
aS'name'
p35
aS'e.g.'
p36
aS':'
aS'red'
p37
aS'or'
p38
aS'green.77687634'
p39
asS'chunk_seq'
p40
(lp41
S'B-NP'
p42
aS'E-NP'
p43
aS'B-NP'
p44
aS'E-NP'
p45
aS'B-NP'
p46
aS'E-NP'
p47
aS'S-VP'
p48
aS'S-PP'
p49
aS'B-NP'
p50
aS'E-NP'
p51
aS'S-VP'
p52
aS'B-NP'
p53
aS'E-NP'
p54
aS'S-ADVP'
p55
aS'O'
aS'B-NP'
p56
aS'I-NP'
p57
aS'E-NP'
p58
asS'dep_seq'
p59
(lp60
(lp61
S'nn'
p62
aS'6'
aS'1'
aa(lp63
S'nn'
p64
aS'6'
aS'2'
aa(lp65
S'amod'
p66
aS'6'
aS'3'
aa(lp67
S'nn'
p68
aS'6'
aS'4'
aa(lp69
S'det'
p70
aS'6'
aS'5'
aa(lp71
S'root'
p72
aS'0'
aS'6'
aa(lp73
S'partmod'
p74
aS'6'
aS'7'
aa(lp75
S'det'
p76
aS'10'
p77
aS'9'
aa(lp78
S'agent'
p79
aS'7'
aS'10'
p80
aa(lp81
S'partmod'
p82
aS'10'
p83
aS'11'
p84
aa(lp85
S'poss'
p86
aS'13'
p87
aS'12'
p88
aa(lp89
S'dobj'
p90
aS'11'
p91
aS'13'
p92
aa(lp93
S'advmod'
p94
aS'11'
p95
aS'14'
p96
aa(lp97
S'dep'
p98
aS'6'
aS'16'
p99
aa(lp100
S'conj_or'
p101
aS'16'
p102
aS'18'
p103
aasS'srls'
p104
(lp105
(dp106
S'A1'
p107
g28
sS'A0'
p108
S'colour name'
p109
sS'V'
g27
sa(dp110
S'A1'
p111
S'A colour'
p112
sS'A0'
p113
S'by a string holding its name e.g. : red or green.77687634'
p114
sS'V'
g30
sa(dp115
S'A1'
p116
S'its name'
p117
sS'AM-MNR'
p118
g32
sS'V'
g33
sasS'pos_seq'
p119
(lp120
S'NN'
p121
aS'NN'
p122
aS'VBG'
p123
aS'NN'
p124
aS'DT'
p125
aS'NN'
p126
aS'VBN'
p127
aS'IN'
p128
aS'DT'
p129
aS'NN'
p130
aS'VBG'
p131
aS'PRP$'
p132
aS'NN'
p133
aS'RB'
p134
aS':'
aS'JJ'
p135
aS'CC'
p136
aS'NN'
p137
asS'ner_seq'
p138
(lp139
S'O'
aS'O'
aS'B-PER'
p140
aS'E-PER'
p141
aS'O'
aS'O'
aS'O'
aS'O'
aS'O'
aS'O'
aS'O'
aS'O'
aS'O'
aS'O'
aS'O'
aS'O'
aS'O'
aS'O'
assb.