ccopy_reg
_reconstructor
p1
(c__main__
KBproperty
p2
c__builtin__
object
p3
NtRp4
(dp5
S'comment'
p6
S'4541'
p7
sS'domain'
p8
S''
sS'instances_count'
p9
I40
sS'phrases'
p10
NsS'syn_hypo'
p11
S''
sS'label'
p12
S'management place'
p13
sS'range'
p14
S'Populated Place '
p15
sS'uniq_subjs'
p16
S'40'
p17
sS'uniq_objs'
p18
I0
sS'prop_uri'
p19
S'http://dbpedia.org/ontology/managementPlace'
p20
sS'annotations'
p21
(dp22
S'bag_of_words'
p23
(lp24
S'management'
p25
aS'place'
p26
aS'Populated'
p27
aS'Place'
p28
aS'4541'
p29
asS'chunk_seq'
p30
(lp31
S'B-NP'
p32
aS'I-NP'
p33
aS'I-NP'
p34
aS'I-NP'
p35
aS'E-NP'
p36
asS'dep_seq'
p37
(lp38
(lp39
S'nn'
p40
aS'2'
aS'1'
aa(lp41
S'root'
p42
aS'0'
aS'2'
aa(lp43
S'amod'
p44
aS'5'
aS'3'
aa(lp45
S'nn'
p46
aS'5'
aS'4'
aa(lp47
S'dep'
p48
aS'2'
aS'5'
aasS'srls'
p49
(lp50
sS'pos_seq'
p51
(lp52
S'NN'
p53
aS'NN'
p54
aS'JJ'
p55
aS'NN'
p56
aS'NN'
p57
asS'ner_seq'
p58
(lp59
S'O'
aS'O'
aS'O'
aS'O'
aS'O'
assb.