ccopy_reg
_reconstructor
p1
(c__main__
KBproperty
p2
c__builtin__
object
p3
NtRp4
(dp5
S'comment'
p6
S'number of pixels millions'
p7
sS'domain'
p8
S''
sS'instances_count'
p9
I0
sS'phrases'
p10
NsS'syn_hypo'
p11
S''
sS'label'
p12
g7
sS'range'
p13
S'non Negative Integer '
p14
sS'uniq_subjs'
p15
S'0'
sS'uniq_objs'
p16
I0
sS'prop_uri'
p17
S'http://dbpedia.org/ontology/numberOfPixels'
p18
sS'annotations'
p19
(dp20
S'bag_of_words'
p21
(lp22
S'number'
p23
aS'Of'
p24
aS'Pixels'
p25
aS'non'
p26
aS'Negative'
p27
aS'Integer'
p28
aS'number'
p29
aS'of'
p30
aS'pixels'
p31
aS'millions'
p32
asS'chunk_seq'
p33
(lp34
S'S-NP'
p35
aS'S-PP'
p36
aS'S-NP'
p37
aS'B-NP'
p38
aS'I-NP'
p39
aS'I-NP'
p40
aS'E-NP'
p41
aS'S-PP'
p42
aS'B-NP'
p43
aS'E-NP'
p44
asS'dep_seq'
p45
(lp46
(lp47
S'root'
p48
aS'0'
aS'1'
aa(lp49
S'prep_of'
p50
aS'1'
aS'3'
aa(lp51
S'amod'
p52
aS'7'
aS'4'
aa(lp53
S'amod'
p54
aS'7'
aS'5'
aa(lp55
S'nn'
p56
aS'7'
aS'6'
aa(lp57
S'dep'
p58
aS'1'
aS'7'
aa(lp59
S'prep_of'
p60
aS'7'
aS'9'
aa(lp61
S'dep'
p62
aS'1'
aS'10'
p63
aasS'srls'
p64
(lp65
sS'pos_seq'
p66
(lp67
S'NN'
p68
aS'IN'
p69
aS'NNS'
p70
aS'JJ'
p71
aS'JJ'
p72
aS'NN'
p73
aS'NN'
p74
aS'IN'
p75
aS'NNS'
p76
aS'NNS'
p77
asS'ner_seq'
p78
(lp79
S'O'
aS'O'
aS'O'
aS'O'
aS'O'
aS'O'
aS'O'
aS'O'
aS'O'
aS'O'
assb.