ccopy_reg
_reconstructor
p1
(c__main__
KBproperty
p2
c__builtin__
object
p3
NtRp4
(dp5
S'comment'
p6
S'133085273'
p7
sS'domain'
p8
S'Agent '
p9
sS'instances_count'
p10
I1288
sS'phrases'
p11
NsS'syn_hypo'
p12
Vabsolutismpolitical_orientationideologypolitical_theorytotalitarianismpolitical_orientationideologypolitical_theorytotalismpolitical_orientationideologypolitical_theoryanarchismpolitical_orientationideologypolitical_theoryautocracypolitical_orientationideologypolitical_theorycentrismpolitical_orientationideologypolitical_theorymoderatismpolitical_orientationideologypolitical_theorycollectivismpolitical_orientationideologypolitical_theorycommunismpolitical_orientationideologypolitical_theoryconservatismpolitical_orientationideologypolitical_theoryconservativismpolitical_orientationideologypolitical_theoryconstitutionalismpolitical_orientationideologypolitical_theorydemocracypolitical_orientationideologypolitical_theorydomino_theorypolitical_orientationideologypolitical_theorydovishnesspolitical_orientationideologypolitical_theoryelitismpolitical_orientationideologypolitical_theoryextremismpolitical_orientationideologypolitical_theoryfascismpolitical_orientationideologypolitical_theoryfederalismpolitical_orientationideologypolitical_theoryhawkishnesspolitical_orientationideologypolitical_theoryimperialismpolitical_orientationideologypolitical_theoryleftismpolitical_orientationideologypolitical_theoryliberalismpolitical_orientationideologypolitical_theorylibertarianismpolitical_orientationideologypolitical_theorymeritocracypolitical_orientationideologypolitical_theorymonarchismpolitical_orientationideologypolitical_theoryNegritudepolitical_orientationideologypolitical_theoryOrleanismpolitical_orientationideologypolitical_theoryprogressivismpolitical_orientationideologypolitical_theoryradicalismpolitical_orientationideologypolitical_theoryreactionismpolitical_orientationideologypolitical_theoryrepublicanismpolitical_orientationideologypolitical_theoryrightismpolitical_orientationideologypolitical_theorysegregationismpolitical_orientationideologypolitical_theorysocial_democracypolitical_orientationideologypolitical_theorysocialismpolitical_orientationideologypolitical_theorytheocracypolitical_orientationideologypolitical_theoryUtopianism
p13
sS'label'
p14
S'ideology'
p15
sS'range'
p16
S'Ideology '
p17
sS'uniq_subjs'
p18
S'1288'
p19
sS'uniq_objs'
p20
I0
sS'prop_uri'
p21
S'http://dbpedia.org/ontology/ideology'
p22
sS'annotations'
p23
(dp24
S'bag_of_words'
p25
(lp26
S'Agent'
p27
aS'ideology'
p28
aS'Ideology'
p29
aS'133085273'
p30
asS'chunk_seq'
p31
(lp32
S'B-NP'
p33
aS'I-NP'
p34
aS'E-NP'
p35
aS'S-ADJP'
p36
asS'dep_seq'
p37
(lp38
(lp39
S'nn'
p40
aS'3'
aS'1'
aa(lp41
S'nn'
p42
aS'3'
aS'2'
aa(lp43
S'root'
p44
aS'0'
aS'3'
aa(lp45
S'punct'
p46
aS'3'
aS'4'
aasS'srls'
p47
(lp48
sS'pos_seq'
p49
(lp50
S'NN'
p51
aS'NN'
p52
aS'NNP'
p53
aS'.'
asS'ner_seq'
p54
(lp55
S'O'
aS'O'
aS'O'
aS'O'
assb.