ccopy_reg
_reconstructor
p1
(c__main__
KBproperty
p2
c__builtin__
object
p3
NtRp4
(dp5
S'comment'
p6
S'rank of an area'
p7
sS'domain'
p8
S'Populated Place '
p9
sS'instances_count'
p10
I0
sS'phrases'
p11
NsS'syn_hypo'
p12
S''
sS'label'
p13
g7
sS'range'
p14
S'non Negative Integer '
p15
sS'uniq_subjs'
p16
S'0'
sS'uniq_objs'
p17
I0
sS'prop_uri'
p18
S'http://dbpedia.org/ontology/rankArea'
p19
sS'annotations'
p20
(dp21
S'bag_of_words'
p22
(lp23
S'Populated'
p24
aS'Place'
p25
aS'rank'
p26
aS'Area'
p27
aS'non'
p28
aS'Negative'
p29
aS'Integer'
p30
aS'rank'
p31
aS'of'
p32
aS'an'
p33
aS'area'
p34
asS'chunk_seq'
p35
(lp36
S'B-NP'
p37
aS'I-NP'
p38
aS'I-NP'
p39
aS'E-NP'
p40
aS'B-NP'
p41
aS'I-NP'
p42
aS'I-NP'
p43
aS'E-NP'
p44
aS'S-PP'
p45
aS'B-NP'
p46
aS'E-NP'
p47
asS'dep_seq'
p48
(lp49
(lp50
S'amod'
p51
aS'4'
aS'1'
aa(lp52
S'nn'
p53
aS'4'
aS'2'
aa(lp54
S'nn'
p55
aS'4'
aS'3'
aa(lp56
S'root'
p57
aS'0'
aS'4'
aa(lp58
S'amod'
p59
aS'8'
aS'5'
aa(lp60
S'amod'
p61
aS'8'
aS'6'
aa(lp62
S'nn'
p63
aS'8'
aS'7'
aa(lp64
S'dep'
p65
aS'4'
aS'8'
aa(lp66
S'det'
p67
aS'11'
p68
aS'10'
p69
aa(lp70
S'prep_of'
p71
aS'8'
aS'11'
p72
aasS'srls'
p73
(lp74
sS'pos_seq'
p75
(lp76
S'JJ'
p77
aS'NN'
p78
aS'NN'
p79
aS'NN'
p80
aS'JJ'
p81
aS'JJ'
p82
aS'NN'
p83
aS'NN'
p84
aS'IN'
p85
aS'DT'
p86
aS'NN'
p87
asS'ner_seq'
p88
(lp89
S'O'
aS'O'
aS'O'
aS'O'
aS'O'
aS'O'
aS'O'
aS'O'
aS'O'
aS'O'
aS'O'
assb.