ccopy_reg
_reconstructor
p1
(c__main__
KBproperty
p2
c__builtin__
object
p3
NtRp4
(dp5
S'comment'
p6
S'00'
p7
sS'domain'
p8
S''
sS'instances_count'
p9
I0
sS'phrases'
p10
NsS'syn_hypo'
p11
S''
sS'label'
p12
S'start year'
p13
sS'range'
p14
S'g Year '
p15
sS'uniq_subjs'
p16
S'0'
sS'uniq_objs'
p17
I0
sS'prop_uri'
p18
S'http://dbpedia.org/ontology/startYear'
p19
sS'annotations'
p20
(dp21
S'bag_of_words'
p22
(lp23
S'start'
p24
aS'year'
p25
aS'g'
aS'Year'
p26
aS'00'
p27
asS'chunk_seq'
p28
(lp29
S'S-VP'
p30
aS'B-NP'
p31
aS'I-NP'
p32
aS'E-NP'
p33
aS'O'
asS'dep_seq'
p34
(lp35
(lp36
S'root'
p37
aS'0'
aS'1'
aa(lp38
S'nn'
p39
aS'4'
aS'2'
aa(lp40
S'nn'
p41
aS'4'
aS'3'
aa(lp42
S'tmod'
p43
aS'1'
aS'4'
aa(lp44
S'num'
p45
aS'4'
aS'5'
aasS'srls'
p46
(lp47
(dp48
S'AM-TMP'
p49
S'year g Year 00'
p50
sS'V'
g24
sasS'pos_seq'
p51
(lp52
S'VB'
p53
aS'NN'
p54
aS'NN'
p55
aS'NN'
p56
aS'CD'
p57
asS'ner_seq'
p58
(lp59
S'O'
aS'O'
aS'O'
aS'O'
aS'O'
assb.