ccopy_reg
_reconstructor
p1
(c__main__
KBproperty
p2
c__builtin__
object
p3
NtRp4
(dp5
S'comment'
p6
S'18926451287645'
p7
sS'domain'
p8
S''
sS'instances_count'
p9
I40911
sS'phrases'
p10
NsS'syn_hypo'
p11
VA-teamteamsquadbaseball_teamteamsquadbasketball_teamteamsquadfiveteamsquadbatteryteamsquadcrewteamsquaddefenseteamsquaddefenceteamsquaddefending_teamteamsquadflying_squadteamsquadfootball_teamteamsquadeleventeamsquadhit_squadteamsquadhockey_teamteamsquadjunior_varsityteamsquadJVteamsquadlittle-league_teamteamsquadmajor-league_teamteamsquadmajor-league_clubteamsquadminor-league_teamteamsquadminor-league_clubteamsquadoffenseteamsquadoffenceteamsquadpolice_squadteamsquadsquadteamsquadpowerhouseteamsquadsecond_stringteamsquadsectionteamsquadvarsityteamsquadfirst_team
p12
sS'label'
p13
S'team'
p14
sS'range'
p15
S'Sports Team '
p16
sS'uniq_subjs'
p17
S'40911'
p18
sS'uniq_objs'
p19
I0
sS'prop_uri'
p20
S'http://dbpedia.org/ontology/team'
p21
sS'annotations'
p22
(dp23
S'bag_of_words'
p24
(lp25
S'team'
p26
aS'Sports'
p27
aS'Team'
p28
aS'18926451287645'
p29
asS'chunk_seq'
p30
(lp31
S'B-NP'
p32
aS'I-NP'
p33
aS'E-NP'
p34
aS'S-ADJP'
p35
asS'dep_seq'
p36
(lp37
(lp38
S'nn'
p39
aS'3'
aS'1'
aa(lp40
S'nn'
p41
aS'3'
aS'2'
aa(lp42
S'root'
p43
aS'0'
aS'3'
aa(lp44
S'punct'
p45
aS'3'
aS'4'
aasS'srls'
p46
(lp47
sS'pos_seq'
p48
(lp49
S'NN'
p50
aS'NNP'
p51
aS'NNP'
p52
aS'.'
asS'ner_seq'
p53
(lp54
S'O'
aS'B-ORG'
p55
aS'E-ORG'
p56
aS'O'
assb.