ccopy_reg
_reconstructor
p1
(c__main__
KBproperty
p2
c__builtin__
object
p3
NtRp4
(dp5
S'comment'
p6
S'red list code for treatened species NL different from IUCN00'
p7
sS'domain'
p8
S'Species '
p9
sS'instances_count'
p10
I0
sS'phrases'
p11
NsS'syn_hypo'
p12
S''
sS'label'
p13
S'red list ID NL'
p14
sS'range'
p15
S'integer '
p16
sS'uniq_subjs'
p17
S'0'
sS'uniq_objs'
p18
I0
sS'prop_uri'
p19
S'http://dbpedia.org/ontology/redListIdNL'
p20
sS'annotations'
p21
(dp22
S'bag_of_words'
p23
(lp24
S'Species'
p25
aS'red'
p26
aS'list'
p27
aS'ID'
p28
aS'NL'
p29
aS'integer'
p30
aS'red'
p31
aS'list'
p32
aS'code'
p33
aS'for'
p34
aS'treatened'
p35
aS'species'
p36
aS'NL'
p37
aS'different'
p38
aS'from'
p39
aS'IUCN00'
p40
asS'chunk_seq'
p41
(lp42
S'B-NP'
p43
aS'I-NP'
p44
aS'I-NP'
p45
aS'I-NP'
p46
aS'I-NP'
p47
aS'I-NP'
p48
aS'I-NP'
p49
aS'I-NP'
p50
aS'E-NP'
p51
aS'S-PP'
p52
aS'B-NP'
p53
aS'E-NP'
p54
aS'B-ADJP'
p55
aS'E-ADJP'
p56
aS'S-PP'
p57
aS'S-NP'
p58
asS'dep_seq'
p59
(lp60
(lp61
S'nn'
p62
aS'9'
aS'1'
aa(lp63
S'amod'
p64
aS'9'
aS'2'
aa(lp65
S'nn'
p66
aS'9'
aS'3'
aa(lp67
S'nn'
p68
aS'9'
aS'4'
aa(lp69
S'nn'
p70
aS'9'
aS'5'
aa(lp71
S'nn'
p72
aS'9'
aS'6'
aa(lp73
S'amod'
p74
aS'9'
aS'7'
aa(lp75
S'nn'
p76
aS'9'
aS'8'
aa(lp77
S'dep'
p78
aS'14'
p79
aS'9'
aa(lp80
S'amod'
p81
aS'13'
p82
aS'11'
p83
aa(lp84
S'nn'
p85
aS'13'
p86
aS'12'
p87
aa(lp88
S'prep_for'
p89
aS'9'
aS'13'
p90
aa(lp91
S'root'
p92
aS'0'
aS'14'
p93
aa(lp94
S'prep_from'
p95
aS'14'
p96
aS'16'
p97
aasS'srls'
p98
(lp99
sS'pos_seq'
p100
(lp101
S'NNS'
p102
aS'JJ'
p103
aS'NN'
p104
aS'NNP'
p105
aS'NNP'
p106
aS'NN'
p107
aS'JJ'
p108
aS'NN'
p109
aS'NN'
p110
aS'IN'
p111
aS'JJ'
p112
aS'NNS'
p113
aS'NNP'
p114
aS'JJ'
p115
aS'IN'
p116
aS'NNP'
p117
asS'ner_seq'
p118
(lp119
S'O'
aS'O'
aS'O'
aS'O'
aS'S-ORG'
p120
aS'O'
aS'O'
aS'O'
aS'O'
aS'O'
aS'O'
aS'O'
aS'S-ORG'
p121
aS'O'
aS'O'
aS'S-ORG'
p122
assb.