ccopy_reg
_reconstructor
p1
(c__main__
KBproperty
p2
c__builtin__
object
p3
NtRp4
(dp5
S'comment'
p6
S'Wikipage modification datetime'
p7
sS'domain'
p8
S''
sS'instances_count'
p9
I0
sS'phrases'
p10
NsS'syn_hypo'
p11
S''
sS'label'
p12
g7
sS'range'
p13
S'date Time '
p14
sS'uniq_subjs'
p15
S'0'
sS'uniq_objs'
p16
I0
sS'prop_uri'
p17
S'http://dbpedia.org/ontology/wikiPageModified'
p18
sS'annotations'
p19
(dp20
S'bag_of_words'
p21
(lp22
S'wiki'
p23
aS'Page'
p24
aS'Modified'
p25
aS'date'
p26
aS'Time'
p27
aS'Wikipage'
p28
aS'modification'
p29
aS'datetime'
p30
asS'chunk_seq'
p31
(lp32
S'B-NP'
p33
aS'E-NP'
p34
aS'S-VP'
p35
aS'B-NP'
p36
aS'E-NP'
p37
aS'B-NP'
p38
aS'E-NP'
p39
aS'S-ADJP'
p40
asS'dep_seq'
p41
(lp42
(lp43
S'nn'
p44
aS'5'
aS'1'
aa(lp45
S'nn'
p46
aS'5'
aS'2'
aa(lp47
S'amod'
p48
aS'5'
aS'3'
aa(lp49
S'nn'
p50
aS'5'
aS'4'
aa(lp51
S'dep'
p52
aS'7'
aS'5'
aa(lp53
S'amod'
p54
aS'7'
aS'6'
aa(lp55
S'root'
p56
aS'0'
aS'7'
aa(lp57
S'punct'
p58
aS'7'
aS'8'
aasS'srls'
p59
(lp60
(dp61
S'A1'
p62
S'wiki Page  date Time Wikipage modification datetime'
p63
sS'V'
g25
sasS'pos_seq'
p64
(lp65
S'NN'
p66
aS'NN'
p67
aS'VBN'
p68
aS'NN'
p69
aS'NN'
p70
aS'JJ'
p71
aS'NN'
p72
aS'.'
asS'ner_seq'
p73
(lp74
S'O'
aS'O'
aS'O'
aS'O'
aS'O'
aS'S-MISC'
p75
aS'O'
aS'O'
assb.