ccopy_reg
_reconstructor
p1
(c__main__
KBproperty
p2
c__builtin__
object
p3
NtRp4
(dp5
S'comment'
p6
S'00'
p7
sS'domain'
p8
S'School '
p9
sS'instances_count'
p10
I0
sS'phrases'
p11
NsS'syn_hypo'
p12
S''
sS'label'
p13
S'reopened'
p14
sS'range'
p15
S'date '
p16
sS'uniq_subjs'
p17
S'0'
sS'uniq_objs'
p18
I0
sS'prop_uri'
p19
S'http://dbpedia.org/ontology/reopened'
p20
sS'annotations'
p21
(dp22
S'bag_of_words'
p23
(lp24
S'School'
p25
aS'reopened'
p26
aS'date'
p27
aS'00'
p28
asS'chunk_seq'
p29
(lp30
S'B-NP'
p31
aS'I-NP'
p32
aS'E-NP'
p33
aS'O'
asS'dep_seq'
p34
(lp35
(lp36
S'nn'
p37
aS'3'
aS'1'
aa(lp38
S'amod'
p39
aS'3'
aS'2'
aa(lp40
S'root'
p41
aS'0'
aS'3'
aa(lp42
S'dep'
p43
aS'3'
aS'4'
aasS'srls'
p44
(lp45
(dp46
S'A1'
p47
g25
sS'AM-TMP'
p48
S'date 00'
p49
sS'V'
g26
sasS'pos_seq'
p50
(lp51
S'NN'
p52
aS'VBN'
p53
aS'NN'
p54
aS'CD'
p55
asS'ner_seq'
p56
(lp57
S'O'
aS'O'
aS'O'
aS'O'
assb.