ccopy_reg
_reconstructor
p1
(c__main__
KBproperty
p2
c__builtin__
object
p3
NtRp4
(dp5
S'comment'
p6
S'00'
p7
sS'domain'
p8
S'Penalty Shoot Out '
p9
sS'instances_count'
p10
I0
sS'phrases'
p11
NsS'syn_hypo'
p12
S''
sS'label'
p13
S'penalty score'
p14
sS'range'
p15
S'integer '
p16
sS'uniq_subjs'
p17
S'0'
sS'uniq_objs'
p18
I0
sS'prop_uri'
p19
S'http://dbpedia.org/ontology/penaltyScore'
p20
sS'annotations'
p21
(dp22
S'bag_of_words'
p23
(lp24
S'Penalty'
p25
aS'Shoot'
p26
aS'Out'
p27
aS'penalty'
p28
aS'score'
p29
aS'integer'
p30
aS'00'
p31
asS'chunk_seq'
p32
(lp33
S'S-NP'
p34
aS'S-VP'
p35
aS'B-NP'
p36
aS'I-NP'
p37
aS'I-NP'
p38
aS'E-NP'
p39
aS'O'
asS'dep_seq'
p40
(lp41
(lp42
S'nsubj'
p43
aS'2'
aS'1'
aa(lp44
S'root'
p45
aS'0'
aS'2'
aa(lp46
S'advmod'
p47
aS'2'
aS'3'
aa(lp48
S'nn'
p49
aS'5'
aS'4'
aa(lp50
S'dobj'
p51
aS'2'
aS'5'
aa(lp52
S'dep'
p53
aS'5'
aS'6'
aa(lp54
S'advmod'
p55
aS'6'
aS'7'
aasS'srls'
p56
(lp57
(dp58
S'A1'
p59
S'penalty score integer 00'
p60
sS'A0'
p61
g25
sS'V'
S'Shoot Out'
p62
sasS'pos_seq'
p63
(lp64
S'NN'
p65
aS'VB'
p66
aS'JJ'
p67
aS'NN'
p68
aS'NN'
p69
aS'NN'
p70
aS'CD'
p71
asS'ner_seq'
p72
(lp73
S'O'
aS'O'
aS'O'
aS'O'
aS'O'
aS'O'
aS'O'
assb.