ccopy_reg
_reconstructor
p1
(c__main__
KBproperty
p2
c__builtin__
object
p3
NtRp4
(dp5
S'comment'
p6
S'Jurisdiction is the practical authority granted to a formally constituted legal body or to a political leader to deal with and make pronouncements on legal matters and by implication to administer justice within a defined area of responsibility.59905792'
p7
sS'domain'
p8
S''
sS'instances_count'
p9
I5990
sS'phrases'
p10
NsS'syn_hypo'
p11
V
sS'label'
p12
S'jurisdiction'
p13
sS'range'
p14
S''
sS'uniq_subjs'
p15
S'749'
p16
sS'uniq_objs'
p17
I0
sS'prop_uri'
p18
S'http://dbpedia.org/ontology/jurisdiction'
p19
sS'annotations'
p20
(dp21
S'bag_of_words'
p22
(lp23
S'jurisdiction'
p24
aS'Jurisdiction'
p25
aS'is'
p26
aS'the'
p27
aS'practical'
p28
aS'authority'
p29
aS'granted'
p30
aS'to'
p31
aS'a'
aS'formally'
p32
aS'constituted'
p33
aS'legal'
p34
aS'body'
p35
aS'or'
p36
aS'to'
p37
aS'a'
aS'political'
p38
aS'leader'
p39
aS'to'
p40
aS'deal'
p41
aS'with'
p42
aS'and'
p43
aS'make'
p44
aS'pronouncements'
p45
aS'on'
p46
aS'legal'
p47
aS'matters'
p48
aS'and'
p49
aS'by'
p50
aS'implication'
p51
aS'to'
p52
aS'administer'
p53
aS'justice'
p54
aS'within'
p55
aS'a'
aS'defined'
p56
aS'area'
p57
aS'of'
p58
aS'responsibility.59905792'
p59
asS'chunk_seq'
p60
(lp61
S'B-NP'
p62
aS'E-NP'
p63
aS'S-VP'
p64
aS'B-NP'
p65
aS'I-NP'
p66
aS'E-NP'
p67
aS'S-VP'
p68
aS'S-PP'
p69
aS'B-NP'
p70
aS'I-NP'
p71
aS'I-NP'
p72
aS'I-NP'
p73
aS'E-NP'
p74
aS'S-PP'
p75
aS'S-PP'
p76
aS'B-NP'
p77
aS'I-NP'
p78
aS'E-NP'
p79
aS'B-VP'
p80
aS'E-VP'
p81
aS'S-PP'
p82
aS'O'
aS'S-VP'
p83
aS'S-NP'
p84
aS'S-PP'
p85
aS'B-NP'
p86
aS'E-NP'
p87
aS'O'
aS'S-PP'
p88
aS'S-NP'
p89
aS'B-VP'
p90
aS'E-VP'
p91
aS'S-NP'
p92
aS'S-PP'
p93
aS'B-NP'
p94
aS'I-NP'
p95
aS'E-NP'
p96
aS'S-PP'
p97
aS'S-NP'
p98
asS'dep_seq'
p99
(lp100
(lp101
S'nn'
p102
aS'2'
aS'1'
aa(lp103
S'nsubj'
p104
aS'3'
aS'2'
aa(lp105
S'root'
p106
aS'0'
aS'3'
aa(lp107
S'det'
p108
aS'6'
aS'4'
aa(lp109
S'amod'
p110
aS'6'
aS'5'
aa(lp111
S'dep'
p112
aS'7'
aS'6'
aa(lp113
S'dep'
p114
aS'3'
aS'7'
aa(lp115
S'det'
p116
aS'13'
p117
aS'9'
aa(lp118
S'advmod'
p119
aS'11'
p120
aS'10'
p121
aa(lp122
S'amod'
p123
aS'13'
p124
aS'11'
p125
aa(lp126
S'amod'
p127
aS'13'
p128
aS'12'
p129
aa(lp130
S'prep_to'
p131
aS'7'
aS'13'
p132
aa(lp133
S'conj_or'
p134
aS'7'
aS'15'
p135
aa(lp136
S'det'
p137
aS'18'
p138
aS'16'
p139
aa(lp140
S'amod'
p141
aS'18'
p142
aS'17'
p143
aa(lp144
S'pobj'
p145
aS'15'
p146
aS'18'
p147
aa(lp148
S'aux'
p149
aS'20'
p150
aS'19'
p151
aa(lp152
S'dep'
p153
aS'7'
aS'20'
p154
aa(lp155
S'prep'
p156
aS'20'
p157
aS'21'
p158
aa(lp159
S'conj_and'
p160
aS'21'
p161
aS'23'
p162
aa(lp163
S'dobj'
p164
aS'23'
p165
aS'24'
p166
aa(lp167
S'amod'
p168
aS'27'
p169
aS'26'
p170
aa(lp171
S'prep_on'
p172
aS'23'
p173
aS'27'
p174
aa(lp175
S'conj_and'
p176
aS'21'
p177
aS'29'
p178
aa(lp179
S'pobj'
p180
aS'29'
p181
aS'30'
p182
aa(lp183
S'aux'
p184
aS'32'
p185
aS'31'
p186
aa(lp187
S'infmod'
p188
aS'30'
p189
aS'32'
p190
aa(lp191
S'dobj'
p192
aS'32'
p193
aS'33'
p194
aa(lp195
S'det'
p196
aS'37'
p197
aS'35'
p198
aa(lp199
S'amod'
p200
aS'37'
p201
aS'36'
p202
aa(lp203
S'prep_within'
p204
aS'32'
p205
aS'37'
p206
aa(lp207
S'prep_of'
p208
aS'37'
p209
aS'39'
p210
aasS'srls'
p211
(lp212
(dp213
S'A1'
p214
S'the practical authority  to a formally constituted legal body or to a political leader to deal with and make pronouncements on legal matters and by implication to administer justice within a defined area of responsibility.59905792'
p215
sS'V'
g30
sa(dp216
S'A1'
p217
S'legal body'
p218
sS'AM-MNR'
p219
g32
sS'V'
g33
sa(dp220
S'A0'
p221
S'a political leader'
p222
sS'AM-MNR'
p223
g42
sS'V'
g41
sa(dp224
S'A1'
p225
S'pronouncements on legal matters'
p226
sS'A0'
p227
S'a political leader'
p228
sS'A2'
p229
S'by implication to administer justice within a defined area of responsibility.59905792'
p230
sS'V'
g44
sa(dp231
S'A1'
p232
g54
sS'AM-LOC'
p233
S'within a defined area of responsibility.59905792'
p234
sS'V'
g53
sa(dp235
S'A1'
p236
g57
sS'V'
g56
sasS'pos_seq'
p237
(lp238
S'NN'
p239
aS'NN'
p240
aS'VBZ'
p241
aS'DT'
p242
aS'JJ'
p243
aS'NN'
p244
aS'VBN'
p245
aS'TO'
p246
aS'DT'
p247
aS'RB'
p248
aS'VBN'
p249
aS'JJ'
p250
aS'NN'
p251
aS'CC'
p252
aS'TO'
p253
aS'DT'
p254
aS'JJ'
p255
aS'NN'
p256
aS'TO'
p257
aS'VB'
p258
aS'IN'
p259
aS'CC'
p260
aS'VB'
p261
aS'NNS'
p262
aS'IN'
p263
aS'JJ'
p264
aS'NNS'
p265
aS'CC'
p266
aS'IN'
p267
aS'NN'
p268
aS'TO'
p269
aS'VB'
p270
aS'NN'
p271
aS'IN'
p272
aS'DT'
p273
aS'VBN'
p274
aS'NN'
p275
aS'IN'
p276
aS'NN'
p277
asS'ner_seq'
p278
(lp279
S'O'
aS'O'
aS'O'
aS'O'
aS'O'
aS'O'
aS'O'
aS'O'
aS'O'
aS'O'
aS'O'
aS'O'
aS'O'
aS'O'
aS'O'
aS'O'
aS'O'
aS'O'
aS'O'
aS'O'
aS'O'
aS'O'
aS'O'
aS'O'
aS'O'
aS'O'
aS'O'
aS'O'
aS'O'
aS'O'
aS'O'
aS'O'
aS'O'
aS'O'
aS'O'
aS'O'
aS'O'
aS'O'
aS'O'
assb.