ccopy_reg
_reconstructor
p1
(c__main__
KBproperty
p2
c__builtin__
object
p3
NtRp4
(dp5
S'comment'
p6
S"This property has been added  because 'buildingType' is much more about the place whereas 'museumType' is about the way the place is being or:was used00"
p7
sS'domain'
p8
S'Museum '
p9
sS'instances_count'
p10
I0
sS'phrases'
p11
NsS'syn_hypo'
p12
S''
sS'label'
p13
S'museumType'
p14
sS'range'
p15
S''
sS'uniq_subjs'
p16
S'0'
sS'uniq_objs'
p17
I0
sS'prop_uri'
p18
S'http://dbpedia.org/ontology/museumType'
p19
sS'annotations'
p20
(dp21
S'bag_of_words'
p22
(lp23
S'Museum'
p24
aS'museumType'
p25
aS'This'
p26
aS'property'
p27
aS'has'
p28
aS'been'
p29
aS'added'
p30
aS'because'
p31
aS"'b"
p32
aS'uildingType'
p33
aS"'"
aS'is'
p34
aS'much'
p35
aS'more'
p36
aS'about'
p37
aS'the'
p38
aS'place'
p39
aS'whereas'
p40
aS"'m"
p41
aS'useumType'
p42
aS"'"
aS'is'
p43
aS'about'
p44
aS'the'
p45
aS'way'
p46
aS'the'
p47
aS'place'
p48
aS'is'
p49
aS'being'
p50
aS'or'
p51
aS':'
aS'was'
p52
aS'used00'
p53
asS'chunk_seq'
p54
(lp55
S'B-NP'
p56
aS'E-NP'
p57
aS'B-NP'
p58
aS'E-NP'
p59
aS'B-VP'
p60
aS'I-VP'
p61
aS'E-VP'
p62
aS'S-SBAR'
p63
aS'B-NP'
p64
aS'E-NP'
p65
aS'O'
aS'S-VP'
p66
aS'B-ADJP'
p67
aS'E-ADJP'
p68
aS'S-PP'
p69
aS'B-NP'
p70
aS'E-NP'
p71
aS'S-NP'
p72
aS'S-VP'
p73
aS'S-ADJP'
p74
aS'O'
aS'S-VP'
p75
aS'S-PP'
p76
aS'B-NP'
p77
aS'E-NP'
p78
aS'B-NP'
p79
aS'E-NP'
p80
aS'B-VP'
p81
aS'E-VP'
p82
aS'O'
aS'O'
aS'S-VP'
p83
aS'S-ADJP'
p84
asS'dep_seq'
p85
(lp86
(lp87
S'nn'
p88
aS'2'
aS'1'
aa(lp89
S'dep'
p90
aS'33'
p91
aS'2'
aa(lp92
S'det'
p93
aS'4'
aS'3'
aa(lp94
S'dep'
p95
aS'33'
p96
aS'4'
aa(lp97
S'dep'
p98
aS'33'
p99
aS'5'
aa(lp100
S'dep'
p101
aS'33'
p102
aS'6'
aa(lp103
S'dep'
p104
aS'33'
p105
aS'7'
aa(lp106
S'dep'
p107
aS'33'
p108
aS'8'
aa(lp109
S'nn'
p110
aS'10'
p111
aS'9'
aa(lp112
S'dep'
p113
aS'33'
p114
aS'10'
p115
aa(lp116
S'dep'
p117
aS'33'
p118
aS'12'
p119
aa(lp120
S'advmod'
p121
aS'14'
p122
aS'13'
p123
aa(lp124
S'dep'
p125
aS'33'
p126
aS'14'
p127
aa(lp128
S'det'
p129
aS'17'
p130
aS'16'
p131
aa(lp132
S'prep_about'
p133
aS'14'
p134
aS'17'
p135
aa(lp136
S'dep'
p137
aS'20'
p138
aS'18'
p139
aa(lp140
S'cop'
p141
aS'20'
p142
aS'19'
p143
aa(lp144
S'dep'
p145
aS'17'
p146
aS'20'
p147
aa(lp148
S'dep'
p149
aS'33'
p150
aS'22'
p151
aa(lp152
S'dep'
p153
aS'33'
p154
aS'23'
p155
aa(lp156
S'det'
p157
aS'25'
p158
aS'24'
p159
aa(lp160
S'dep'
p161
aS'33'
p162
aS'25'
p163
aa(lp164
S'det'
p165
aS'27'
p166
aS'26'
p167
aa(lp168
S'nsubj'
p169
aS'29'
p170
aS'27'
p171
aa(lp172
S'aux'
p173
aS'29'
p174
aS'28'
p175
aa(lp176
S'dep'
p177
aS'33'
p178
aS'29'
p179
aa(lp180
S'cc'
p181
aS'33'
p182
aS'30'
p183
aa(lp184
S'cop'
p185
aS'33'
p186
aS'32'
p187
aa(lp188
S'root'
p189
aS'0'
aS'33'
p190
aasS'srls'
p191
(lp192
(dp193
S'A1'
p194
S'Museum museumType This property'
p195
sS'AM-CAU'
p196
S"because 'b uildingType ' is much more about the place whereas 'm useumType ' is about the way the place is being or"
p197
sS'V'
g30
sasS'pos_seq'
p198
(lp199
S'NNP'
p200
aS'NNP'
p201
aS'DT'
p202
aS'NN'
p203
aS'VBZ'
p204
aS'VBN'
p205
aS'VBN'
p206
aS'IN'
p207
aS'FW'
p208
aS'FW'
p209
aS"''"
p210
aS'VBZ'
p211
aS'RB'
p212
aS'JJR'
p213
aS'IN'
p214
aS'DT'
p215
aS'NN'
p216
aS'WDT'
p217
aS'VBP'
p218
aS'JJ'
p219
aS"''"
p220
aS'VBZ'
p221
aS'IN'
p222
aS'DT'
p223
aS'NN'
p224
aS'DT'
p225
aS'NN'
p226
aS'VBZ'
p227
aS'VBG'
p228
aS'CC'
p229
aS':'
aS'VBD'
p230
aS'JJ'
p231
asS'ner_seq'
p232
(lp233
S'O'
aS'O'
aS'O'
aS'O'
aS'O'
aS'O'
aS'O'
aS'O'
aS'O'
aS'O'
aS'O'
aS'O'
aS'O'
aS'O'
aS'O'
aS'O'
aS'O'
aS'O'
aS'O'
aS'O'
aS'O'
aS'O'
aS'O'
aS'O'
aS'O'
aS'O'
aS'O'
aS'O'
aS'O'
aS'O'
aS'O'
aS'O'
aS'O'
assb.