ccopy_reg
_reconstructor
p1
(c__main__
KBproperty
p2
c__builtin__
object
p3
NtRp4
(dp5
S'comment'
p6
S'some sort of hardware architecture or software framework that allows this software to run5183421471'
p7
sS'domain'
p8
S'Software '
p9
sS'instances_count'
p10
I51834
sS'phrases'
p11
NsS'syn_hypo'
p12
S''
sS'label'
p13
S'computing platform'
p14
sS'range'
p15
S''
sS'uniq_subjs'
p16
S'960'
p17
sS'uniq_objs'
p18
I0
sS'prop_uri'
p19
S'http://dbpedia.org/ontology/computingPlatform'
p20
sS'annotations'
p21
(dp22
S'bag_of_words'
p23
(lp24
S'Software'
p25
aS'computing'
p26
aS'platform'
p27
aS'some'
p28
aS'sort'
p29
aS'of'
p30
aS'hardware'
p31
aS'architecture'
p32
aS'or'
p33
aS'software'
p34
aS'framework'
p35
aS'that'
p36
aS'allows'
p37
aS'this'
p38
aS'software'
p39
aS'to'
p40
aS'run5183421471'
p41
asS'chunk_seq'
p42
(lp43
S'B-NP'
p44
aS'I-NP'
p45
aS'E-NP'
p46
aS'B-NP'
p47
aS'E-NP'
p48
aS'S-PP'
p49
aS'B-NP'
p50
aS'I-NP'
p51
aS'I-NP'
p52
aS'I-NP'
p53
aS'E-NP'
p54
aS'S-NP'
p55
aS'S-VP'
p56
aS'B-NP'
p57
aS'E-NP'
p58
aS'B-VP'
p59
aS'E-VP'
p60
asS'dep_seq'
p61
(lp62
(lp63
S'nn'
p64
aS'3'
aS'1'
aa(lp65
S'amod'
p66
aS'3'
aS'2'
aa(lp67
S'dep'
p68
aS'5'
aS'3'
aa(lp69
S'det'
p70
aS'5'
aS'4'
aa(lp71
S'root'
p72
aS'0'
aS'5'
aa(lp73
S'nsubj'
p74
aS'13'
p75
aS'5'
aa(lp76
S'nn'
p77
aS'8'
aS'7'
aa(lp78
S'prep_of'
p79
aS'5'
aS'8'
aa(lp80
S'nn'
p81
aS'11'
p82
aS'10'
p83
aa(lp84
S'conj_or'
p85
aS'8'
aS'11'
p86
aa(lp87
S'rcmod'
p88
aS'5'
aS'13'
p89
aa(lp90
S'det'
p91
aS'15'
p92
aS'14'
p93
aa(lp94
S'nsubj'
p95
aS'17'
p96
aS'15'
p97
aa(lp98
S'aux'
p99
aS'17'
p100
aS'16'
p101
aa(lp102
S'xcomp'
p103
aS'13'
p104
aS'17'
p105
aasS'srls'
p106
(lp107
(dp108
S'A1'
p109
S'some sort of hardware architecture or software framework'
p110
sS'A0'
p111
S'Software platform'
p112
sS'V'
g26
sa(dp113
S'A1'
p114
S'this software to run5183421471'
p115
sS'A0'
p116
S'Software computing platform some sort of hardware architecture or software framework'
p117
sS'R-A0'
p118
g36
sS'V'
g37
sasS'pos_seq'
p119
(lp120
S'NN'
p121
aS'VBG'
p122
aS'NN'
p123
aS'DT'
p124
aS'NN'
p125
aS'IN'
p126
aS'NN'
p127
aS'NN'
p128
aS'CC'
p129
aS'NN'
p130
aS'NN'
p131
aS'WDT'
p132
aS'VBZ'
p133
aS'DT'
p134
aS'NN'
p135
aS'TO'
p136
aS'VB'
p137
asS'ner_seq'
p138
(lp139
S'O'
aS'O'
aS'O'
aS'O'
aS'O'
aS'O'
aS'O'
aS'O'
aS'O'
aS'O'
aS'O'
aS'O'
aS'O'
aS'O'
aS'O'
aS'O'
aS'O'
assb.