ccopy_reg
_reconstructor
p1
(c__main__
KBproperty
p2
c__builtin__
object
p3
NtRp4
(dp5
S'comment'
p6
S'1386211982'
p7
sS'domain'
p8
S'Mountain '
p9
sS'instances_count'
p10
I1823
sS'phrases'
p11
NsS'syn_hypo'
p12
S''
sS'label'
p13
S'mountain range'
p14
sS'range'
p15
S'Mountain Range '
p16
sS'uniq_subjs'
p17
S'1823'
p18
sS'uniq_objs'
p19
I0
sS'prop_uri'
p20
S'http://dbpedia.org/ontology/mountainRange'
p21
sS'annotations'
p22
(dp23
S'bag_of_words'
p24
(lp25
S'Mountain'
p26
aS'mountain'
p27
aS'range'
p28
aS'Mountain'
p29
aS'Range'
p30
aS'1386211982'
p31
asS'chunk_seq'
p32
(lp33
S'B-NP'
p34
aS'I-NP'
p35
aS'I-NP'
p36
aS'I-NP'
p37
aS'E-NP'
p38
aS'O'
asS'dep_seq'
p39
(lp40
(lp41
S'nn'
p42
aS'5'
aS'1'
aa(lp43
S'nn'
p44
aS'5'
aS'2'
aa(lp45
S'nn'
p46
aS'5'
aS'3'
aa(lp47
S'nn'
p48
aS'5'
aS'4'
aa(lp49
S'root'
p50
aS'0'
aS'5'
aa(lp51
S'punct'
p52
aS'5'
aS'6'
aasS'srls'
p53
(lp54
sS'pos_seq'
p55
(lp56
S'NN'
p57
aS'NN'
p58
aS'NN'
p59
aS'NNP'
p60
aS'NNP'
p61
aS'.'
asS'ner_seq'
p62
(lp63
S'B-LOC'
p64
aS'E-LOC'
p65
aS'O'
aS'B-LOC'
p66
aS'E-LOC'
p67
aS'O'
assb.