ccopy_reg
_reconstructor
p1
(c__main__
KBproperty
p2
c__builtin__
object
p3
NtRp4
(dp5
S'comment'
p6
S'1615'
p7
sS'domain'
p8
S'Beverage '
p9
sS'instances_count'
p10
I16
sS'phrases'
p11
NsS'syn_hypo'
p12
S''
sS'label'
p13
S'introduced'
p14
sS'range'
p15
S'date '
p16
sS'uniq_subjs'
p17
S'16'
p18
sS'uniq_objs'
p19
I0
sS'prop_uri'
p20
S'http://dbpedia.org/ontology/introduced'
p21
sS'annotations'
p22
(dp23
S'bag_of_words'
p24
(lp25
S'Beverage'
p26
aS'introduced'
p27
aS'date'
p28
aS'1615'
p29
asS'chunk_seq'
p30
(lp31
S'S-NP'
p32
aS'S-VP'
p33
aS'B-NP'
p34
aS'E-NP'
p35
asS'dep_seq'
p36
(lp37
(lp38
S'nn'
p39
aS'4'
aS'1'
aa(lp40
S'amod'
p41
aS'4'
aS'2'
aa(lp42
S'nn'
p43
aS'4'
aS'3'
aa(lp44
S'root'
p45
aS'0'
aS'4'
aasS'srls'
p46
(lp47
(dp48
S'A1'
p49
g26
sS'AM-TMP'
p50
S'date 1615'
p51
sS'V'
g27
sasS'pos_seq'
p52
(lp53
S'NN'
p54
aS'VBN'
p55
aS'NN'
p56
aS'NN'
p57
asS'ner_seq'
p58
(lp59
S'O'
aS'O'
aS'O'
aS'O'
assb.