ccopy_reg
_reconstructor
p1
(c__main__
KBproperty
p2
c__builtin__
object
p3
NtRp4
(dp5
S'comment'
p6
S'The URL at which this file can be downloaded'
p7
sS'domain'
p8
S'File '
p9
sS'instances_count'
p10
I0
sS'phrases'
p11
NsS'syn_hypo'
p12
S''
sS'label'
p13
g7
sS'range'
p14
S'File '
p15
sS'uniq_subjs'
p16
S'0'
sS'uniq_objs'
p17
I0
sS'prop_uri'
p18
S'http://dbpedia.org/ontology/fileURL'
p19
sS'annotations'
p20
(dp21
S'bag_of_words'
p22
(lp23
S'File'
p24
aS'file'
p25
aS'File'
p26
aS'The'
p27
aS'URL'
p28
aS'at'
p29
aS'which'
p30
aS'this'
p31
aS'file'
p32
aS'can'
p33
aS'be'
p34
aS'downloaded'
p35
asS'chunk_seq'
p36
(lp37
S'B-NP'
p38
aS'I-NP'
p39
aS'E-NP'
p40
aS'B-NP'
p41
aS'E-NP'
p42
aS'S-PP'
p43
aS'S-NP'
p44
aS'B-NP'
p45
aS'E-NP'
p46
aS'B-VP'
p47
aS'I-VP'
p48
aS'E-VP'
p49
asS'dep_seq'
p50
(lp51
(lp52
S'nn'
p53
aS'5'
aS'1'
aa(lp54
S'nn'
p55
aS'5'
aS'2'
aa(lp56
S'nn'
p57
aS'5'
aS'3'
aa(lp58
S'nn'
p59
aS'5'
aS'4'
aa(lp60
S'root'
p61
aS'0'
aS'5'
aa(lp62
S'prep_at'
p63
aS'12'
p64
aS'5'
aa(lp65
S'rel'
p66
aS'12'
p67
aS'6'
aa(lp68
S'det'
p69
aS'9'
aS'8'
aa(lp70
S'nsubjpass'
p71
aS'12'
p72
aS'9'
aa(lp73
S'aux'
p74
aS'12'
p75
aS'10'
p76
aa(lp77
S'auxpass'
p78
aS'12'
p79
aS'11'
p80
aa(lp81
S'rcmod'
p82
aS'5'
aS'12'
p83
aasS'srls'
p84
(lp85
sS'pos_seq'
p86
(lp87
S'NNP'
p88
aS'NN'
p89
aS'NNP'
p90
aS'NNP'
p91
aS'NNP'
p92
aS'IN'
p93
aS'WDT'
p94
aS'DT'
p95
aS'NN'
p96
aS'MD'
p97
aS'VB'
p98
aS'VBN'
p99
asS'ner_seq'
p100
(lp101
S'O'
aS'O'
aS'O'
aS'O'
aS'O'
aS'O'
aS'O'
aS'O'
aS'O'
aS'O'
aS'O'
aS'O'
assb.