ccopy_reg
_reconstructor
p1
(c__main__
KBproperty
p2
c__builtin__
object
p3
NtRp4
(dp5
S'comment'
p6
S'00'
p7
sS'domain'
p8
S'Populated Place '
p9
sS'instances_count'
p10
I0
sS'phrases'
p11
NsS'syn_hypo'
p12
S''
sS'label'
p13
S'gini coefficient ranking'
p14
sS'range'
p15
S'positive Integer '
p16
sS'uniq_subjs'
p17
S'0'
sS'uniq_objs'
p18
I0
sS'prop_uri'
p19
S'http://dbpedia.org/ontology/giniCoefficientRanking'
p20
sS'annotations'
p21
(dp22
S'bag_of_words'
p23
(lp24
S'Populated'
p25
aS'Place'
p26
aS'gini'
p27
aS'coefficient'
p28
aS'ranking'
p29
aS'positive'
p30
aS'Integer'
p31
aS'00'
p32
asS'chunk_seq'
p33
(lp34
S'B-NP'
p35
aS'I-NP'
p36
aS'I-NP'
p37
aS'E-NP'
p38
aS'O'
aS'O'
aS'O'
aS'O'
asS'dep_seq'
p39
(lp40
(lp41
S'amod'
p42
aS'4'
aS'1'
aa(lp43
S'nn'
p44
aS'4'
aS'2'
aa(lp45
S'nn'
p46
aS'4'
aS'3'
aa(lp47
S'root'
p48
aS'0'
aS'4'
aa(lp49
S'amod'
p50
aS'7'
aS'5'
aa(lp51
S'amod'
p52
aS'7'
aS'6'
aa(lp53
S'dep'
p54
aS'4'
aS'7'
aa(lp55
S'num'
p56
aS'7'
aS'8'
aasS'srls'
p57
(lp58
sS'pos_seq'
p59
(lp60
S'JJ'
p61
aS'NN'
p62
aS'NN'
p63
aS'NN'
p64
aS'JJ'
p65
aS'JJ'
p66
aS'NN'
p67
aS'CD'
p68
asS'ner_seq'
p69
(lp70
S'O'
aS'O'
aS'O'
aS'O'
aS'O'
aS'O'
aS'O'
aS'O'
assb.