ccopy_reg
_reconstructor
p1
(c__main__
KBproperty
p2
c__builtin__
object
p3
NtRp4
(dp5
S'comment'
p6
S'the total number of tracks contained in the album00'
p7
sS'domain'
p8
S'Album '
p9
sS'instances_count'
p10
I0
sS'phrases'
p11
NsS'syn_hypo'
p12
S''
sS'label'
p13
S'total tracks'
p14
sS'range'
p15
S'integer '
p16
sS'uniq_subjs'
p17
S'0'
sS'uniq_objs'
p18
I0
sS'prop_uri'
p19
S'http://dbpedia.org/ontology/totalTracks'
p20
sS'annotations'
p21
(dp22
S'bag_of_words'
p23
(lp24
S'Album'
p25
aS'total'
p26
aS'tracks'
p27
aS'integer'
p28
aS'the'
p29
aS'total'
p30
aS'number'
p31
aS'of'
p32
aS'tracks'
p33
aS'contained'
p34
aS'in'
p35
aS'the'
p36
aS'album00'
p37
asS'chunk_seq'
p38
(lp39
S'B-NP'
p40
aS'I-NP'
p41
aS'E-NP'
p42
aS'S-VP'
p43
aS'B-NP'
p44
aS'I-NP'
p45
aS'E-NP'
p46
aS'S-PP'
p47
aS'S-NP'
p48
aS'S-VP'
p49
aS'S-PP'
p50
aS'B-NP'
p51
aS'E-NP'
p52
asS'dep_seq'
p53
(lp54
(lp55
S'nn'
p56
aS'3'
aS'1'
aa(lp57
S'amod'
p58
aS'3'
aS'2'
aa(lp59
S'nsubj'
p60
aS'4'
aS'3'
aa(lp61
S'root'
p62
aS'0'
aS'4'
aa(lp63
S'det'
p64
aS'7'
aS'5'
aa(lp65
S'amod'
p66
aS'7'
aS'6'
aa(lp67
S'dobj'
p68
aS'4'
aS'7'
aa(lp69
S'prep_of'
p70
aS'7'
aS'9'
aa(lp71
S'partmod'
p72
aS'9'
aS'10'
p73
aa(lp74
S'det'
p75
aS'13'
p76
aS'12'
p77
aa(lp78
S'prep_in'
p79
aS'10'
p80
aS'13'
p81
aasS'srls'
p82
(lp83
(dp84
S'A1'
p85
S'the total number of tracks contained in the album00'
p86
sS'A0'
p87
S'Album total tracks'
p88
sS'V'
g28
sa(dp89
S'A1'
p90
g33
sS'AM-LOC'
p91
S'in the album00'
p92
sS'V'
g34
sasS'pos_seq'
p93
(lp94
S'NN'
p95
aS'JJ'
p96
aS'NNS'
p97
aS'VBP'
p98
aS'DT'
p99
aS'JJ'
p100
aS'NN'
p101
aS'IN'
p102
aS'NNS'
p103
aS'VBN'
p104
aS'IN'
p105
aS'DT'
p106
aS'NN'
p107
asS'ner_seq'
p108
(lp109
S'O'
aS'O'
aS'O'
aS'O'
aS'O'
aS'O'
aS'O'
aS'O'
aS'O'
aS'O'
aS'O'
aS'O'
aS'O'
assb.