ccopy_reg
_reconstructor
p1
(c__main__
KBproperty
p2
c__builtin__
object
p3
NtRp4
(dp5
S'comment'
p6
S'Cost of building an ArchitecturalStructure Ship etc47954549'
p7
sS'domain'
p8
S''
sS'instances_count'
p9
I4795
sS'phrases'
p10
NsS'syn_hypo'
p11
S''
sS'label'
p12
S'cost $'
p13
sS'range'
p14
S'double '
p15
sS'uniq_subjs'
p16
S'2492'
p17
sS'uniq_objs'
p18
I0
sS'prop_uri'
p19
S'http://dbpedia.org/ontology/cost'
p20
sS'annotations'
p21
(dp22
S'bag_of_words'
p23
(lp24
S'cost'
p25
aS'$'
aS'double'
p26
aS'Cost'
p27
aS'of'
p28
aS'building'
p29
aS'an'
p30
aS'ArchitecturalStructure'
p31
aS'Ship'
p32
aS'etc47954549'
p33
asS'chunk_seq'
p34
(lp35
S'S-VP'
p36
aS'B-NP'
p37
aS'I-NP'
p38
aS'E-NP'
p39
aS'S-PP'
p40
aS'S-VP'
p41
aS'B-NP'
p42
aS'I-NP'
p43
aS'I-NP'
p44
aS'E-NP'
p45
asS'dep_seq'
p46
(lp47
(lp48
S'root'
p49
aS'0'
aS'1'
aa(lp50
S'amod'
p51
aS'4'
aS'2'
aa(lp52
S'dep'
p53
aS'2'
aS'3'
aa(lp54
S'dobj'
p55
aS'1'
aS'4'
aa(lp56
S'prepc_of'
p57
aS'4'
aS'6'
aa(lp58
S'det'
p59
aS'9'
aS'7'
aa(lp60
S'nn'
p61
aS'9'
aS'8'
aa(lp62
S'dobj'
p63
aS'6'
aS'9'
aa(lp64
S'punct'
p65
aS'9'
aS'10'
p66
aasS'srls'
p67
(lp68
(dp69
S'A2'
p70
S'$ double Cost of building an ArchitecturalStructure Ship etc47954549'
p71
sS'V'
g25
sa(dp72
S'A1'
p73
S'an ArchitecturalStructure Ship etc47954549'
p74
sS'V'
g29
sasS'pos_seq'
p75
(lp76
S'VB'
p77
aS'$'
aS'JJ'
p78
aS'NN'
p79
aS'IN'
p80
aS'VBG'
p81
aS'DT'
p82
aS'NNP'
p83
aS'NNP'
p84
aS'.'
asS'ner_seq'
p85
(lp86
S'O'
aS'O'
aS'O'
aS'O'
aS'O'
aS'O'
aS'O'
aS'S-MISC'
p87
aS'O'
aS'O'
assb.