ccopy_reg
_reconstructor
p1
(c__main__
KBproperty
p2
c__builtin__
object
p3
NtRp4
(dp5
S'comment'
p6
S'204125'
p7
sS'domain'
p8
S'Canal '
p9
sS'instances_count'
p10
I135
sS'phrases'
p11
NsS'syn_hypo'
p12
S''
sS'label'
p13
S'has junction with'
p14
sS'range'
p15
S'Canal '
p16
sS'uniq_subjs'
p17
S'135'
p18
sS'uniq_objs'
p19
I0
sS'prop_uri'
p20
S'http://dbpedia.org/ontology/hasJunctionWith'
p21
sS'annotations'
p22
(dp23
S'bag_of_words'
p24
(lp25
S'Canal'
p26
aS'has'
p27
aS'junction'
p28
aS'with'
p29
aS'Canal'
p30
aS'204125'
p31
asS'chunk_seq'
p32
(lp33
S'S-NP'
p34
aS'S-VP'
p35
aS'S-NP'
p36
aS'S-PP'
p37
aS'B-NP'
p38
aS'E-NP'
p39
asS'dep_seq'
p40
(lp41
(lp42
S'nsubj'
p43
aS'2'
aS'1'
aa(lp44
S'root'
p45
aS'0'
aS'2'
aa(lp46
S'dobj'
p47
aS'2'
aS'3'
aa(lp48
S'prep_with'
p49
aS'3'
aS'5'
aa(lp50
S'punct'
p51
aS'5'
aS'6'
aasS'srls'
p52
(lp53
(dp54
S'A1'
p55
S'junction with Canal 204125'
p56
sS'A0'
p57
g26
sS'V'
g27
sasS'pos_seq'
p58
(lp59
S'NNP'
p60
aS'VBZ'
p61
aS'NN'
p62
aS'IN'
p63
aS'NNP'
p64
aS'.'
asS'ner_seq'
p65
(lp66
S'O'
aS'O'
aS'O'
aS'O'
aS'O'
aS'O'
assb.