ccopy_reg
_reconstructor
p1
(c__main__
KBproperty
p2
c__builtin__
object
p3
NtRp4
(dp5
S'comment'
p6
S'http://dbpedia.org/ontology/PopulatedPlace'
p7
sS'domain'
p8
S'Military Conflict '
p9
sS'instances_count'
p10
I2698
sS'phrases'
p11
NsS'syn_hypo'
p12
S''
sS'label'
p13
g7
sS'range'
p14
S'Administrative Region '
p15
sS'uniq_subjs'
p16
S'2114'
p17
sS'uniq_objs'
p18
I0
sS'prop_uri'
p19
S'http://dbpedia.org/ontology/territory'
p20
sS'annotations'
p21
(dp22
S'bag_of_words'
p23
(lp24
S'Military'
p25
aS'Conflict'
p26
aS'territory'
p27
aS'Administrative'
p28
aS'Region'
p29
aS'http'
p30
aS':'
aS'//'
p31
aS'dbpedia'
p32
aS'.org'
p33
aS'/'
aS'ontology'
p34
aS'/'
aS'PopulatedPlace'
p35
asS'chunk_seq'
p36
(lp37
S'B-NP'
p38
aS'I-NP'
p39
aS'I-NP'
p40
aS'I-NP'
p41
aS'I-NP'
p42
aS'E-NP'
p43
aS'O'
aS'O'
aS'O'
aS'O'
aS'O'
aS'O'
aS'O'
aS'O'
asS'dep_seq'
p44
(lp45
(lp46
S'nn'
p47
aS'5'
aS'1'
aa(lp48
S'nn'
p49
aS'5'
aS'2'
aa(lp50
S'nn'
p51
aS'5'
aS'3'
aa(lp52
S'nn'
p53
aS'5'
aS'4'
aa(lp54
S'dep'
p55
aS'14'
p56
aS'5'
aa(lp57
S'dep'
p58
aS'5'
aS'6'
aa(lp59
S'dep'
p60
aS'14'
p61
aS'8'
aa(lp62
S'dep'
p63
aS'14'
p64
aS'9'
aa(lp65
S'dep'
p66
aS'14'
p67
aS'10'
p68
aa(lp69
S'dep'
p70
aS'14'
p71
aS'11'
p72
aa(lp73
S'dep'
p74
aS'14'
p75
aS'12'
p76
aa(lp77
S'dep'
p78
aS'14'
p79
aS'13'
p80
aa(lp81
S'root'
p82
aS'0'
aS'14'
p83
aasS'srls'
p84
(lp85
sS'pos_seq'
p86
(lp87
S'NNP'
p88
aS'NNP'
p89
aS'NN'
p90
aS'NNP'
p91
aS'NNP'
p92
aS'NN'
p93
aS':'
aS'FW'
p94
aS'FW'
p95
aS'FW'
p96
aS'FW'
p97
aS'FW'
p98
aS'FW'
p99
aS'NNP'
p100
asS'ner_seq'
p101
(lp102
S'B-ORG'
p103
aS'I-ORG'
p104
aS'I-ORG'
p105
aS'I-ORG'
p106
aS'E-ORG'
p107
aS'O'
aS'O'
aS'O'
aS'O'
aS'O'
aS'O'
aS'O'
aS'O'
aS'S-LOC'
p108
assb.