ccopy_reg
_reconstructor
p1
(c__main__
KBproperty
p2
c__builtin__
object
p3
NtRp4
(dp5
S'comment'
p6
S'individualised PND number'
p7
sS'domain'
p8
S'Person '
p9
sS'instances_count'
p10
I0
sS'phrases'
p11
NsS'syn_hypo'
p12
S''
sS'label'
p13
g7
sS'range'
p14
S'non Negative Integer '
p15
sS'uniq_subjs'
p16
S'0'
sS'uniq_objs'
p17
I0
sS'prop_uri'
p18
S'http://dbpedia.org/ontology/individualisedPnd'
p19
sS'annotations'
p20
(dp21
S'bag_of_words'
p22
(lp23
S'Person'
p24
aS'individualised'
p25
aS'Pnd'
p26
aS'non'
p27
aS'Negative'
p28
aS'Integer'
p29
aS'individualised'
p30
aS'PND'
p31
aS'number'
p32
asS'chunk_seq'
p33
(lp34
S'S-NP'
p35
aS'S-VP'
p36
aS'B-NP'
p37
aS'I-NP'
p38
aS'I-NP'
p39
aS'I-NP'
p40
aS'I-NP'
p41
aS'I-NP'
p42
aS'E-NP'
p43
asS'dep_seq'
p44
(lp45
(lp46
S'nsubj'
p47
aS'2'
aS'1'
aa(lp48
S'root'
p49
aS'0'
aS'2'
aa(lp50
S'nn'
p51
aS'9'
aS'3'
aa(lp52
S'amod'
p53
aS'9'
aS'4'
aa(lp54
S'nn'
p55
aS'9'
aS'5'
aa(lp56
S'nn'
p57
aS'9'
aS'6'
aa(lp58
S'amod'
p59
aS'9'
aS'7'
aa(lp60
S'nn'
p61
aS'9'
aS'8'
aa(lp62
S'dobj'
p63
aS'2'
aS'9'
aasS'srls'
p64
(lp65
(dp66
S'A1'
p67
S'Pnd non Negative Integer individualised PND number'
p68
sS'A0'
p69
g24
sS'V'
g25
sasS'pos_seq'
p70
(lp71
S'NN'
p72
aS'VBD'
p73
aS'NNP'
p74
aS'JJ'
p75
aS'NNP'
p76
aS'NNP'
p77
aS'JJ'
p78
aS'NNP'
p79
aS'NN'
p80
asS'ner_seq'
p81
(lp82
S'O'
aS'O'
aS'S-PER'
p83
aS'O'
aS'O'
aS'O'
aS'O'
aS'O'
aS'O'
assb.