ccopy_reg
_reconstructor
p1
(c__main__
KBproperty
p2
c__builtin__
object
p3
NtRp4
(dp5
S'comment'
p6
S'00'
p7
sS'domain'
p8
S''
sS'instances_count'
p9
I0
sS'phrases'
p10
NsS'syn_hypo'
p11
S''
sS'label'
p12
S'Member of Parliament'
p13
sS'range'
p14
S'Person '
p15
sS'uniq_subjs'
p16
S'0'
sS'uniq_objs'
p17
I0
sS'prop_uri'
p18
S'http://dbpedia.org/ontology/memberOfParliament'
p19
sS'annotations'
p20
(dp21
S'bag_of_words'
p22
(lp23
S'Member'
p24
aS'of'
p25
aS'Parliament'
p26
aS'Person'
p27
aS'00'
p28
asS'chunk_seq'
p29
(lp30
S'S-NP'
p31
aS'S-PP'
p32
aS'B-NP'
p33
aS'E-NP'
p34
aS'S-NP'
p35
asS'dep_seq'
p36
(lp37
(lp38
S'root'
p39
aS'0'
aS'1'
aa(lp40
S'nn'
p41
aS'4'
aS'3'
aa(lp42
S'prep_of'
p43
aS'1'
aS'4'
aa(lp44
S'num'
p45
aS'4'
aS'5'
aasS'srls'
p46
(lp47
sS'pos_seq'
p48
(lp49
S'NN'
p50
aS'IN'
p51
aS'NNP'
p52
aS'NNP'
p53
aS'CD'
p54
asS'ner_seq'
p55
(lp56
S'O'
aS'O'
aS'O'
aS'O'
aS'O'
assb.