ccopy_reg
_reconstructor
p1
(c__main__
KBproperty
p2
c__builtin__
object
p3
NtRp4
(dp5
S'comment'
p6
S'Region related vehicle code on the vehicle plates.00'
p7
sS'domain'
p8
S'Place '
p9
sS'instances_count'
p10
I0
sS'phrases'
p11
NsS'syn_hypo'
p12
S''
sS'label'
p13
S'vehicle code'
p14
sS'range'
p15
S'string '
p16
sS'uniq_subjs'
p17
S'0'
sS'uniq_objs'
p18
I0
sS'prop_uri'
p19
S'http://dbpedia.org/ontology/vehicleCode'
p20
sS'annotations'
p21
(dp22
S'bag_of_words'
p23
(lp24
S'Place'
p25
aS'vehicle'
p26
aS'code'
p27
aS'string'
p28
aS'Region'
p29
aS'related'
p30
aS'vehicle'
p31
aS'code'
p32
aS'on'
p33
aS'the'
p34
aS'vehicle'
p35
aS'plates.00'
p36
asS'chunk_seq'
p37
(lp38
S'B-NP'
p39
aS'I-NP'
p40
aS'I-NP'
p41
aS'I-NP'
p42
aS'I-NP'
p43
aS'I-NP'
p44
aS'I-NP'
p45
aS'E-NP'
p46
aS'S-PP'
p47
aS'B-NP'
p48
aS'I-NP'
p49
aS'E-NP'
p50
asS'dep_seq'
p51
(lp52
(lp53
S'nn'
p54
aS'8'
aS'1'
aa(lp55
S'nn'
p56
aS'8'
aS'2'
aa(lp57
S'nn'
p58
aS'8'
aS'3'
aa(lp59
S'nn'
p60
aS'8'
aS'4'
aa(lp61
S'nn'
p62
aS'8'
aS'5'
aa(lp63
S'amod'
p64
aS'8'
aS'6'
aa(lp65
S'nn'
p66
aS'8'
aS'7'
aa(lp67
S'root'
p68
aS'0'
aS'8'
aa(lp69
S'det'
p70
aS'12'
p71
aS'10'
p72
aa(lp73
S'nn'
p74
aS'12'
p75
aS'11'
p76
aa(lp77
S'prep_on'
p78
aS'8'
aS'12'
p79
aasS'srls'
p80
(lp81
(dp82
S'A1'
p83
S'Place vehicle code string Region  vehicle code'
p84
sS'V'
g30
sasS'pos_seq'
p85
(lp86
S'NN'
p87
aS'NN'
p88
aS'NN'
p89
aS'NN'
p90
aS'NNP'
p91
aS'JJ'
p92
aS'NN'
p93
aS'NN'
p94
aS'IN'
p95
aS'DT'
p96
aS'NN'
p97
aS'NN'
p98
asS'ner_seq'
p99
(lp100
S'O'
aS'O'
aS'O'
aS'O'
aS'O'
aS'O'
aS'O'
aS'O'
aS'O'
aS'O'
aS'O'
aS'O'
assb.