ccopy_reg
_reconstructor
p1
(c__main__
KBproperty
p2
c__builtin__
object
p3
NtRp4
(dp5
S'comment'
p6
S'981964'
p7
sS'domain'
p8
S'Hotel '
p9
sS'instances_count'
p10
I512
sS'phrases'
p11
NsS'syn_hypo'
p12
S''
sS'label'
p13
S'number of rooms'
p14
sS'range'
p15
S'non Negative Integer '
p16
sS'uniq_subjs'
p17
S'512'
p18
sS'uniq_objs'
p19
I0
sS'prop_uri'
p20
S'http://dbpedia.org/ontology/numberOfRooms'
p21
sS'annotations'
p22
(dp23
S'bag_of_words'
p24
(lp25
S'Hotel'
p26
aS'number'
p27
aS'of'
p28
aS'rooms'
p29
aS'non'
p30
aS'Negative'
p31
aS'Integer'
p32
aS'981964'
p33
asS'chunk_seq'
p34
(lp35
S'B-NP'
p36
aS'E-NP'
p37
aS'S-PP'
p38
aS'S-NP'
p39
aS'B-NP'
p40
aS'I-NP'
p41
aS'I-NP'
p42
aS'E-NP'
p43
asS'dep_seq'
p44
(lp45
(lp46
S'nn'
p47
aS'2'
aS'1'
aa(lp48
S'root'
p49
aS'0'
aS'2'
aa(lp50
S'prep_of'
p51
aS'2'
aS'4'
aa(lp52
S'amod'
p53
aS'8'
aS'5'
aa(lp54
S'amod'
p55
aS'8'
aS'6'
aa(lp56
S'nn'
p57
aS'8'
aS'7'
aa(lp58
S'dep'
p59
aS'2'
aS'8'
aasS'srls'
p60
(lp61
sS'pos_seq'
p62
(lp63
S'NN'
p64
aS'NN'
p65
aS'IN'
p66
aS'NNS'
p67
aS'JJ'
p68
aS'JJ'
p69
aS'NN'
p70
aS'NN'
p71
asS'ner_seq'
p72
(lp73
S'O'
aS'O'
aS'O'
aS'O'
aS'O'
aS'O'
aS'O'
aS'O'
assb.