ccopy_reg
_reconstructor
p1
(c__main__
KBproperty
p2
c__builtin__
object
p3
NtRp4
(dp5
S'comment'
p6
S'The number that an athlete wears in a team sport.240676224268'
p7
sS'domain'
p8
S'Sports Team Member '
p9
sS'instances_count'
p10
I284
sS'phrases'
p11
NsS'syn_hypo'
p12
S''
sS'label'
p13
S'squad number'
p14
sS'range'
p15
S'non Negative Integer '
p16
sS'uniq_subjs'
p17
S'284'
p18
sS'uniq_objs'
p19
I0
sS'prop_uri'
p20
S'http://dbpedia.org/ontology/squadNumber'
p21
sS'annotations'
p22
(dp23
S'bag_of_words'
p24
(lp25
S'Sports'
p26
aS'Team'
p27
aS'Member'
p28
aS'squad'
p29
aS'number'
p30
aS'non'
p31
aS'Negative'
p32
aS'Integer'
p33
aS'The'
p34
aS'number'
p35
aS'that'
p36
aS'an'
p37
aS'athlete'
p38
aS'wears'
p39
aS'in'
p40
aS'a'
aS'team'
p41
aS'sport.240676224268'
p42
asS'chunk_seq'
p43
(lp44
S'B-NP'
p45
aS'I-NP'
p46
aS'I-NP'
p47
aS'I-NP'
p48
aS'I-NP'
p49
aS'I-NP'
p50
aS'I-NP'
p51
aS'I-NP'
p52
aS'I-NP'
p53
aS'E-NP'
p54
aS'S-SBAR'
p55
aS'B-NP'
p56
aS'E-NP'
p57
aS'S-VP'
p58
aS'S-PP'
p59
aS'B-NP'
p60
aS'E-NP'
p61
aS'S-ADJP'
p62
asS'dep_seq'
p63
(lp64
(lp65
S'nn'
p66
aS'5'
aS'1'
aa(lp67
S'nn'
p68
aS'5'
aS'2'
aa(lp69
S'nn'
p70
aS'5'
aS'3'
aa(lp71
S'nn'
p72
aS'5'
aS'4'
aa(lp73
S'dep'
p74
aS'10'
p75
aS'5'
aa(lp76
S'amod'
p77
aS'10'
p78
aS'6'
aa(lp79
S'amod'
p80
aS'10'
p81
aS'7'
aa(lp82
S'nn'
p83
aS'10'
p84
aS'8'
aa(lp85
S'det'
p86
aS'10'
p87
aS'9'
aa(lp88
S'root'
p89
aS'0'
aS'10'
p90
aa(lp91
S'dobj'
p92
aS'14'
p93
aS'10'
p94
aa(lp95
S'rel'
p96
aS'14'
p97
aS'11'
p98
aa(lp99
S'det'
p100
aS'13'
p101
aS'12'
p102
aa(lp103
S'nsubj'
p104
aS'14'
p105
aS'13'
p106
aa(lp107
S'rcmod'
p108
aS'10'
p109
aS'14'
p110
aa(lp111
S'det'
p112
aS'17'
p113
aS'16'
p114
aa(lp115
S'prep_in'
p116
aS'14'
p117
aS'17'
p118
aa(lp119
S'punct'
p120
aS'17'
p121
aS'18'
p122
aasS'srls'
p123
(lp124
(dp125
S'A0'
p126
S'an athlete'
p127
sS'AM-LOC'
p128
S'in a team sport.240676224268'
p129
sS'V'
g39
sasS'pos_seq'
p130
(lp131
S'NNP'
p132
aS'NNP'
p133
aS'NNP'
p134
aS'NN'
p135
aS'NN'
p136
aS'JJ'
p137
aS'JJ'
p138
aS'NN'
p139
aS'DT'
p140
aS'NN'
p141
aS'IN'
p142
aS'DT'
p143
aS'NN'
p144
aS'VBZ'
p145
aS'IN'
p146
aS'DT'
p147
aS'NN'
p148
aS'.'
asS'ner_seq'
p149
(lp150
S'B-ORG'
p151
aS'E-ORG'
p152
aS'O'
aS'O'
aS'O'
aS'O'
aS'O'
aS'O'
aS'O'
aS'O'
aS'O'
aS'O'
aS'O'
aS'O'
aS'O'
aS'O'
aS'O'
aS'O'
assb.