ccopy_reg
_reconstructor
p1
(c__main__
KBproperty
p2
c__builtin__
object
p3
NtRp4
(dp5
S'comment'
p6
S'1935717476'
p7
sS'domain'
p8
S''
sS'instances_count'
p9
I3926
sS'phrases'
p10
NsS'syn_hypo'
p11
Vbirthplacebeginningoriginrootrootagesourcecradlebeginningoriginrootrootagesourceplace_of_originbeginningoriginrootrootagesourceprovenancebeginningoriginrootrootagesourceproveniencebeginningoriginrootrootagesourcederivationbeginningoriginrootrootagesourcefountainheadbeginningoriginrootrootagesourceheadspringbeginningoriginrootrootagesourceheadbeginningoriginrootrootagesourceheadwaterbeginningoriginrootrootagesourcehomebeginningoriginrootrootagesourcejumping-off_placebeginningoriginrootrootagesourcepoint_of_departurebeginningoriginrootrootagesourcepoint_sourcebeginningoriginrootrootagesourcespringbeginningoriginrootrootagesourcetrail_headbeginningoriginrootrootagesourcetrailheadbeginningoriginrootrootagesourcewellheadbeginningoriginrootrootagesourcewellspring
p12
sS'label'
p13
S'origin'
p14
sS'range'
p15
S'Populated Place '
p16
sS'uniq_subjs'
p17
S'3926'
p18
sS'uniq_objs'
p19
I0
sS'prop_uri'
p20
S'http://dbpedia.org/ontology/origin'
p21
sS'annotations'
p22
(dp23
S'bag_of_words'
p24
(lp25
S'origin'
p26
aS'Populated'
p27
aS'Place'
p28
aS'1935717476'
p29
asS'chunk_seq'
p30
(lp31
S'B-NP'
p32
aS'I-NP'
p33
aS'I-NP'
p34
aS'E-NP'
p35
asS'dep_seq'
p36
(lp37
(lp38
S'nn'
p39
aS'4'
aS'1'
aa(lp40
S'amod'
p41
aS'4'
aS'2'
aa(lp42
S'nn'
p43
aS'4'
aS'3'
aa(lp44
S'root'
p45
aS'0'
aS'4'
aasS'srls'
p46
(lp47
(dp48
S'A1'
p49
S'origin  Place 1935717476'
p50
sS'V'
g27
sasS'pos_seq'
p51
(lp52
S'NN'
p53
aS'VBN'
p54
aS'NN'
p55
aS'NN'
p56
asS'ner_seq'
p57
(lp58
S'O'
aS'O'
aS'O'
aS'O'
assb.