ccopy_reg
_reconstructor
p1
(c__main__
KBproperty
p2
c__builtin__
object
p3
NtRp4
(dp5
S'comment'
p6
S'http://dbpedia.org/ontology/SportsTeam'
p7
sS'domain'
p8
S'Athlete '
p9
sS'instances_count'
p10
I0
sS'phrases'
p11
NsS'syn_hypo'
p12
S''
sS'label'
p13
g7
sS'range'
p14
S'Career Station '
p15
sS'uniq_subjs'
p16
S'0'
sS'uniq_objs'
p17
I0
sS'prop_uri'
p18
S'http://dbpedia.org/ontology/leadTeam'
p19
sS'annotations'
p20
(dp21
S'bag_of_words'
p22
(lp23
S'Athlete'
p24
aS'lead'
p25
aS'Team'
p26
aS'Career'
p27
aS'Station'
p28
aS'http'
p29
aS':'
aS'//'
p30
aS'dbpedia'
p31
aS'.org'
p32
aS'/'
aS'ontology'
p33
aS'/S'
p34
aS'portsTeam'
p35
asS'chunk_seq'
p36
(lp37
S'S-NP'
p38
aS'S-VP'
p39
aS'B-NP'
p40
aS'I-NP'
p41
aS'I-NP'
p42
aS'E-NP'
p43
aS'O'
aS'O'
aS'O'
aS'O'
aS'O'
aS'O'
aS'O'
aS'O'
asS'dep_seq'
p44
(lp45
(lp46
S'nsubj'
p47
aS'2'
aS'1'
aa(lp48
S'root'
p49
aS'0'
aS'2'
aa(lp50
S'nn'
p51
aS'6'
aS'3'
aa(lp52
S'nn'
p53
aS'6'
aS'4'
aa(lp54
S'nn'
p55
aS'6'
aS'5'
aa(lp56
S'dobj'
p57
aS'2'
aS'6'
aa(lp58
S'nn'
p59
aS'14'
p60
aS'8'
aa(lp61
S'nn'
p62
aS'14'
p63
aS'9'
aa(lp64
S'nn'
p65
aS'14'
p66
aS'10'
p67
aa(lp68
S'nn'
p69
aS'14'
p70
aS'11'
p71
aa(lp72
S'nn'
p73
aS'14'
p74
aS'12'
p75
aa(lp76
S'nn'
p77
aS'14'
p78
aS'13'
p79
aa(lp80
S'dep'
p81
aS'6'
aS'14'
p82
aasS'srls'
p83
(lp84
(dp85
S'A1'
p86
S'Team Career Station http : // dbpedia .org / ontology /S portsTeam'
p87
sS'A0'
p88
g24
sS'V'
g25
sasS'pos_seq'
p89
(lp90
S'NNP'
p91
aS'VB'
p92
aS'NNP'
p93
aS'NNP'
p94
aS'NNP'
p95
aS'NN'
p96
aS':'
aS'FW'
p97
aS'FW'
p98
aS'FW'
p99
aS'FW'
p100
aS'FW'
p101
aS'FW'
p102
aS'FW'
p103
asS'ner_seq'
p104
(lp105
S'O'
aS'O'
aS'B-ORG'
p106
aS'I-ORG'
p107
aS'E-ORG'
p108
aS'O'
aS'O'
aS'O'
aS'O'
aS'O'
aS'O'
aS'O'
aS'O'
aS'O'
assb.