ccopy_reg
_reconstructor
p1
(c__main__
KBproperty
p2
c__builtin__
object
p3
NtRp4
(dp5
S'comment'
p6
S'3621532053'
p7
sS'domain'
p8
S''
sS'instances_count'
p9
I216
sS'phrases'
p10
NsS'syn_hypo'
p11
Vannumyeartwelvemonthyrcalendar_yearyeartwelvemonthyrcivil_yearyeartwelvemonthyrchurch_yearyeartwelvemonthyrChristian_yearyeartwelvemonthyrcommon_yearyeartwelvemonthyr365_daysyeartwelvemonthyrfiscal_yearyeartwelvemonthyrfinancial_yearyeartwelvemonthyrHoly_Yearyeartwelvemonthyrleap_yearyeartwelvemonthyrintercalary_yearyeartwelvemonthyr366_daysyeartwelvemonthyrbissextile_yearyeartwelvemonthyrNew_Yearyeartwelvemonthyroff_yearyeartwelvemonthyroff_yearyeartwelvemonthyrY2Kyeartwelvemonthyryear_of_grace
p12
sS'label'
p13
S'year'
p14
sS'range'
p15
S'g Year '
p16
sS'uniq_subjs'
p17
S'216'
p18
sS'uniq_objs'
p19
I0
sS'prop_uri'
p20
S'http://dbpedia.org/ontology/year'
p21
sS'annotations'
p22
(dp23
S'bag_of_words'
p24
(lp25
S'year'
p26
aS'g'
aS'Year'
p27
aS'3621532053'
p28
asS'chunk_seq'
p29
(lp30
S'B-NP'
p31
aS'I-NP'
p32
aS'I-NP'
p33
aS'E-NP'
p34
asS'dep_seq'
p35
(lp36
(lp37
S'root'
p38
aS'0'
aS'1'
aa(lp39
S'num'
p40
aS'4'
aS'2'
aa(lp41
S'nn'
p42
aS'4'
aS'3'
aa(lp43
S'dep'
p44
aS'1'
aS'4'
aasS'srls'
p45
(lp46
sS'pos_seq'
p47
(lp48
S'NN'
p49
aS'CD'
p50
aS'NN'
p51
aS'NN'
p52
asS'ner_seq'
p53
(lp54
S'O'
aS'O'
aS'O'
aS'O'
assb.