ccopy_reg
_reconstructor
p1
(c__main__
KBproperty
p2
c__builtin__
object
p3
NtRp4
(dp5
S'comment'
p6
S'Construction material eg. concrete steel iron stone brick wood.576481'
p7
sS'domain'
p8
S'Architectural Structure '
p9
sS'instances_count'
p10
I576
sS'phrases'
p11
NsS'syn_hypo'
p12
S''
sS'label'
p13
S'construction material'
p14
sS'range'
p15
S''
sS'uniq_subjs'
p16
S'72'
p17
sS'uniq_objs'
p18
I0
sS'prop_uri'
p19
S'http://dbpedia.org/ontology/constructionMaterial'
p20
sS'annotations'
p21
(dp22
S'bag_of_words'
p23
(lp24
S'Architectural'
p25
aS'Structure'
p26
aS'construction'
p27
aS'material'
p28
aS'Construction'
p29
aS'material'
p30
aS'eg.'
p31
aS'concrete'
p32
aS'steel'
p33
aS'iron'
p34
aS'stone'
p35
aS'brick'
p36
aS'wood.576481'
p37
asS'chunk_seq'
p38
(lp39
S'B-NP'
p40
aS'I-NP'
p41
aS'I-NP'
p42
aS'I-NP'
p43
aS'I-NP'
p44
aS'E-NP'
p45
aS'S-PP'
p46
aS'B-NP'
p47
aS'I-NP'
p48
aS'I-NP'
p49
aS'I-NP'
p50
aS'I-NP'
p51
aS'E-NP'
p52
asS'dep_seq'
p53
(lp54
(lp55
S'nn'
p56
aS'6'
aS'1'
aa(lp57
S'nn'
p58
aS'6'
aS'2'
aa(lp59
S'nn'
p60
aS'6'
aS'3'
aa(lp61
S'nn'
p62
aS'6'
aS'4'
aa(lp63
S'nn'
p64
aS'6'
aS'5'
aa(lp65
S'root'
p66
aS'0'
aS'6'
aa(lp67
S'amod'
p68
aS'13'
p69
aS'8'
aa(lp70
S'nn'
p71
aS'13'
p72
aS'9'
aa(lp73
S'nn'
p74
aS'13'
p75
aS'10'
p76
aa(lp77
S'nn'
p78
aS'13'
p79
aS'11'
p80
aa(lp81
S'nn'
p82
aS'13'
p83
aS'12'
p84
aa(lp85
S'prep_eg.'
p86
aS'6'
aS'13'
p87
aasS'srls'
p88
(lp89
sS'pos_seq'
p90
(lp91
S'NNP'
p92
aS'NNP'
p93
aS'NN'
p94
aS'NN'
p95
aS'NN'
p96
aS'NN'
p97
aS'IN'
p98
aS'JJ'
p99
aS'NN'
p100
aS'NN'
p101
aS'NN'
p102
aS'NN'
p103
aS'NN'
p104
asS'ner_seq'
p105
(lp106
S'O'
aS'O'
aS'O'
aS'O'
aS'O'
aS'O'
aS'O'
aS'O'
aS'O'
aS'O'
aS'O'
aS'O'
aS'O'
assb.