ccopy_reg
_reconstructor
p1
(c__main__
KBproperty
p2
c__builtin__
object
p3
NtRp4
(dp5
S'comment'
p6
S'von Klitzing electromagnetic constant RK'
p7
sS'domain'
p8
S'Celestial Body '
p9
sS'instances_count'
p10
I0
sS'phrases'
p11
NsS'syn_hypo'
p12
S''
sS'label'
p13
g7
sS'range'
p14
S'double '
p15
sS'uniq_subjs'
p16
S'0'
sS'uniq_objs'
p17
I0
sS'prop_uri'
p18
S'http://dbpedia.org/ontology/vonKlitzingConstant'
p19
sS'annotations'
p20
(dp21
S'bag_of_words'
p22
(lp23
S'Celestial'
p24
aS'Body'
p25
aS'von'
p26
aS'Klitzing'
p27
aS'Constant'
p28
aS'double'
p29
aS'von'
p30
aS'Klitzing'
p31
aS'electromagnetic'
p32
aS'constant'
p33
aS'RK'
p34
asS'chunk_seq'
p35
(lp36
S'B-NP'
p37
aS'I-NP'
p38
aS'I-NP'
p39
aS'I-NP'
p40
aS'I-NP'
p41
aS'I-NP'
p42
aS'I-NP'
p43
aS'I-NP'
p44
aS'I-NP'
p45
aS'I-NP'
p46
aS'E-NP'
p47
asS'dep_seq'
p48
(lp49
(lp50
S'amod'
p51
aS'7'
aS'1'
aa(lp52
S'nn'
p53
aS'7'
aS'2'
aa(lp54
S'nn'
p55
aS'7'
aS'3'
aa(lp56
S'nn'
p57
aS'7'
aS'4'
aa(lp58
S'nn'
p59
aS'7'
aS'5'
aa(lp60
S'amod'
p61
aS'7'
aS'6'
aa(lp62
S'dep'
p63
aS'11'
p64
aS'7'
aa(lp65
S'amod'
p66
aS'7'
aS'8'
aa(lp67
S'amod'
p68
aS'11'
p69
aS'9'
aa(lp70
S'amod'
p71
aS'11'
p72
aS'10'
p73
aa(lp74
S'root'
p75
aS'0'
aS'11'
p76
aasS'srls'
p77
(lp78
sS'pos_seq'
p79
(lp80
S'JJ'
p81
aS'NN'
p82
aS'NN'
p83
aS'NNP'
p84
aS'NNP'
p85
aS'JJ'
p86
aS'NN'
p87
aS'VBG'
p88
aS'JJ'
p89
aS'JJ'
p90
aS'NNP'
p91
asS'ner_seq'
p92
(lp93
S'O'
aS'O'
aS'O'
aS'S-PER'
p94
aS'O'
aS'O'
aS'O'
aS'S-PER'
p95
aS'O'
aS'O'
aS'S-ORG'
p96
assb.