ccopy_reg
_reconstructor
p1
(c__main__
KBproperty
p2
c__builtin__
object
p3
NtRp4
(dp5
S'comment'
p6
S'The chain of Hotels this instance is associated with.142141'
p7
sS'domain'
p8
S'Hotel '
p9
sS'instances_count'
p10
I60
sS'phrases'
p11
NsS'syn_hypo'
p12
Vcatenachainconcatenationdaisy_chain
p13
sS'label'
p14
S'chain'
p15
sS'range'
p16
S'Company '
p17
sS'uniq_subjs'
p18
S'60'
p19
sS'uniq_objs'
p20
I0
sS'prop_uri'
p21
S'http://dbpedia.org/ontology/chain'
p22
sS'annotations'
p23
(dp24
S'bag_of_words'
p25
(lp26
S'Hotel'
p27
aS'chain'
p28
aS'Company'
p29
aS'The'
p30
aS'chain'
p31
aS'of'
p32
aS'Hotels'
p33
aS'this'
p34
aS'instance'
p35
aS'is'
p36
aS'associated'
p37
aS'with.142141'
p38
asS'chunk_seq'
p39
(lp40
S'B-NP'
p41
aS'I-NP'
p42
aS'E-NP'
p43
aS'B-NP'
p44
aS'E-NP'
p45
aS'S-PP'
p46
aS'S-NP'
p47
aS'B-NP'
p48
aS'E-NP'
p49
aS'B-VP'
p50
aS'E-VP'
p51
aS'O'
asS'dep_seq'
p52
(lp53
(lp54
S'nn'
p55
aS'3'
aS'1'
aa(lp56
S'nn'
p57
aS'3'
aS'2'
aa(lp58
S'nsubjpass'
p59
aS'11'
p60
aS'3'
aa(lp61
S'det'
p62
aS'5'
aS'4'
aa(lp63
S'nsubjpass'
p64
aS'11'
p65
aS'5'
aa(lp66
S'prep_of'
p67
aS'5'
aS'7'
aa(lp68
S'det'
p69
aS'9'
aS'8'
aa(lp70
S'nsubjpass'
p71
aS'11'
p72
aS'9'
aa(lp73
S'auxpass'
p74
aS'11'
p75
aS'10'
p76
aa(lp77
S'root'
p78
aS'0'
aS'11'
p79
aa(lp80
S'advmod'
p81
aS'11'
p82
aS'12'
p83
aasS'srls'
p84
(lp85
(dp86
S'A1'
p87
S'Hotel chain Company The chain of Hotels this instance'
p88
sS'A2'
p89
g38
sS'V'
g37
sasS'pos_seq'
p90
(lp91
S'NNP'
p92
aS'NN'
p93
aS'NNP'
p94
aS'DT'
p95
aS'NN'
p96
aS'IN'
p97
aS'NNS'
p98
aS'DT'
p99
aS'NN'
p100
aS'VBZ'
p101
aS'VBN'
p102
aS'.'
asS'ner_seq'
p103
(lp104
S'O'
aS'O'
aS'B-ORG'
p105
aS'I-ORG'
p106
aS'I-ORG'
p107
aS'I-ORG'
p108
aS'E-ORG'
p109
aS'O'
aS'O'
aS'O'
aS'O'
aS'O'
assb.