ccopy_reg
_reconstructor
p1
(c__main__
KBproperty
p2
c__builtin__
object
p3
NtRp4
(dp5
S'comment'
p6
S'the number of studio albums released by the musical artist00'
p7
sS'domain'
p8
S'Musical Artist '
p9
sS'instances_count'
p10
I0
sS'phrases'
p11
NsS'syn_hypo'
p12
S''
sS'label'
p13
S'number of studio albums'
p14
sS'range'
p15
S'non Negative Integer '
p16
sS'uniq_subjs'
p17
S'0'
sS'uniq_objs'
p18
I0
sS'prop_uri'
p19
S'http://dbpedia.org/ontology/numberOfStudioAlbums'
p20
sS'annotations'
p21
(dp22
S'bag_of_words'
p23
(lp24
S'Musical'
p25
aS'Artist'
p26
aS'number'
p27
aS'of'
p28
aS'studio'
p29
aS'albums'
p30
aS'non'
p31
aS'Negative'
p32
aS'Integer'
p33
aS'the'
p34
aS'number'
p35
aS'of'
p36
aS'studio'
p37
aS'albums'
p38
aS'released'
p39
aS'by'
p40
aS'the'
p41
aS'musical'
p42
aS'artist00'
p43
asS'chunk_seq'
p44
(lp45
S'B-NP'
p46
aS'I-NP'
p47
aS'E-NP'
p48
aS'S-PP'
p49
aS'B-NP'
p50
aS'I-NP'
p51
aS'I-NP'
p52
aS'I-NP'
p53
aS'E-NP'
p54
aS'B-NP'
p55
aS'E-NP'
p56
aS'S-PP'
p57
aS'B-NP'
p58
aS'E-NP'
p59
aS'S-VP'
p60
aS'S-PP'
p61
aS'B-NP'
p62
aS'I-NP'
p63
aS'E-NP'
p64
asS'dep_seq'
p65
(lp66
(lp67
S'amod'
p68
aS'3'
aS'1'
aa(lp69
S'nn'
p70
aS'3'
aS'2'
aa(lp71
S'nsubj'
p72
aS'7'
aS'3'
aa(lp73
S'nn'
p74
aS'6'
aS'5'
aa(lp75
S'prep_of'
p76
aS'3'
aS'6'
aa(lp77
S'root'
p78
aS'0'
aS'7'
aa(lp79
S'dep'
p80
aS'7'
aS'8'
aa(lp81
S'dep'
p82
aS'7'
aS'9'
aa(lp83
S'det'
p84
aS'11'
p85
aS'10'
p86
aa(lp87
S'dobj'
p88
aS'7'
aS'11'
p89
aa(lp90
S'nn'
p91
aS'14'
p92
aS'13'
p93
aa(lp94
S'prep_of'
p95
aS'11'
p96
aS'14'
p97
aa(lp98
S'partmod'
p99
aS'11'
p100
aS'15'
p101
aa(lp102
S'det'
p103
aS'19'
p104
aS'17'
p105
aa(lp106
S'amod'
p107
aS'19'
p108
aS'18'
p109
aa(lp110
S'agent'
p111
aS'15'
p112
aS'19'
p113
aasS'srls'
p114
(lp115
(dp116
S'A1'
p117
S'studio albums'
p118
sS'A0'
p119
S'by the musical artist00'
p120
sS'V'
g39
sasS'pos_seq'
p121
(lp122
S'JJ'
p123
aS'NNP'
p124
aS'NN'
p125
aS'IN'
p126
aS'NN'
p127
aS'NNS'
p128
aS'JJ'
p129
aS'NNP'
p130
aS'NNP'
p131
aS'DT'
p132
aS'NN'
p133
aS'IN'
p134
aS'NN'
p135
aS'NNS'
p136
aS'VBN'
p137
aS'IN'
p138
aS'DT'
p139
aS'JJ'
p140
aS'NN'
p141
asS'ner_seq'
p142
(lp143
S'O'
aS'O'
aS'O'
aS'O'
aS'O'
aS'O'
aS'O'
aS'O'
aS'O'
aS'O'
aS'O'
aS'O'
aS'O'
aS'O'
aS'O'
aS'O'
aS'O'
aS'O'
aS'O'
assb.