ccopy_reg
_reconstructor
p1
(c__main__
KBproperty
p2
c__builtin__
object
p3
NtRp4
(dp5
S'comment'
p6
S'reference for politic data'
p7
sS'domain'
p8
S'Place '
p9
sS'instances_count'
p10
I0
sS'phrases'
p11
NsS'syn_hypo'
p12
S''
sS'label'
p13
g7
sS'range'
p14
S'string '
p15
sS'uniq_subjs'
p16
S'0'
sS'uniq_objs'
p17
I0
sS'prop_uri'
p18
S'http://dbpedia.org/ontology/refpol'
p19
sS'annotations'
p20
(dp21
S'bag_of_words'
p22
(lp23
S'Place'
p24
aS'refpol'
p25
aS'string'
p26
aS'reference'
p27
aS'for'
p28
aS'politic'
p29
aS'data'
p30
asS'chunk_seq'
p31
(lp32
S'B-NP'
p33
aS'I-NP'
p34
aS'I-NP'
p35
aS'E-NP'
p36
aS'S-PP'
p37
aS'B-NP'
p38
aS'E-NP'
p39
asS'dep_seq'
p40
(lp41
(lp42
S'nn'
p43
aS'4'
aS'1'
aa(lp44
S'amod'
p45
aS'4'
aS'2'
aa(lp46
S'nn'
p47
aS'4'
aS'3'
aa(lp48
S'root'
p49
aS'0'
aS'4'
aa(lp50
S'amod'
p51
aS'7'
aS'6'
aa(lp52
S'prep_for'
p53
aS'4'
aS'7'
aasS'srls'
p54
(lp55
sS'pos_seq'
p56
(lp57
S'NN'
p58
aS'JJ'
p59
aS'NN'
p60
aS'NN'
p61
aS'IN'
p62
aS'JJ'
p63
aS'NNS'
p64
asS'ner_seq'
p65
(lp66
S'O'
aS'O'
aS'O'
aS'O'
aS'O'
aS'O'
aS'O'
assb.