ccopy_reg
_reconstructor
p1
(c__main__
KBproperty
p2
c__builtin__
object
p3
NtRp4
(dp5
S'comment'
p6
S'00'
p7
sS'domain'
p8
S''
sS'instances_count'
p9
I0
sS'phrases'
p10
NsS'syn_hypo'
p11
S''
sS'label'
p12
S'source state'
p13
sS'range'
p14
S'Populated Place '
p15
sS'uniq_subjs'
p16
S'0'
sS'uniq_objs'
p17
I0
sS'prop_uri'
p18
S'http://dbpedia.org/ontology/sourceState'
p19
sS'annotations'
p20
(dp21
S'bag_of_words'
p22
(lp23
S'source'
p24
aS'state'
p25
aS'Populated'
p26
aS'Place'
p27
aS'00'
p28
asS'chunk_seq'
p29
(lp30
S'B-NP'
p31
aS'I-NP'
p32
aS'I-NP'
p33
aS'E-NP'
p34
aS'O'
asS'dep_seq'
p35
(lp36
(lp37
S'nn'
p38
aS'4'
aS'1'
aa(lp39
S'nn'
p40
aS'4'
aS'2'
aa(lp41
S'amod'
p42
aS'4'
aS'3'
aa(lp43
S'root'
p44
aS'0'
aS'4'
aa(lp45
S'num'
p46
aS'4'
aS'5'
aasS'srls'
p47
(lp48
(dp49
S'A1'
p50
g25
sS'A2'
p51
S'Place 00'
p52
sS'V'
g26
sasS'pos_seq'
p53
(lp54
S'NN'
p55
aS'NN'
p56
aS'VBN'
p57
aS'NN'
p58
aS'CD'
p59
asS'ner_seq'
p60
(lp61
S'O'
aS'O'
aS'O'
aS'O'
aS'O'
assb.