ccopy_reg
_reconstructor
p1
(c__main__
KBproperty
p2
c__builtin__
object
p3
NtRp4
(dp5
S'comment'
p6
S'5353'
p7
sS'domain'
p8
S'Olympics '
p9
sS'instances_count'
p10
I44
sS'phrases'
p11
NsS'syn_hypo'
p12
S''
sS'label'
p13
S'number of participating nations'
p14
sS'range'
p15
S'non Negative Integer '
p16
sS'uniq_subjs'
p17
S'44'
p18
sS'uniq_objs'
p19
I0
sS'prop_uri'
p20
S'http://dbpedia.org/ontology/numberOfParticipatingNations'
p21
sS'annotations'
p22
(dp23
S'bag_of_words'
p24
(lp25
S'Olympics'
p26
aS'number'
p27
aS'of'
p28
aS'participating'
p29
aS'nations'
p30
aS'non'
p31
aS'Negative'
p32
aS'Integer'
p33
aS'5353'
p34
asS'chunk_seq'
p35
(lp36
S'B-NP'
p37
aS'E-NP'
p38
aS'S-PP'
p39
aS'B-NP'
p40
aS'E-NP'
p41
aS'B-NP'
p42
aS'I-NP'
p43
aS'I-NP'
p44
aS'E-NP'
p45
asS'dep_seq'
p46
(lp47
(lp48
S'nn'
p49
aS'2'
aS'1'
aa(lp50
S'dep'
p51
aS'9'
aS'2'
aa(lp52
S'amod'
p53
aS'5'
aS'4'
aa(lp54
S'prep_of'
p55
aS'2'
aS'5'
aa(lp56
S'dep'
p57
aS'9'
aS'6'
aa(lp58
S'amod'
p59
aS'9'
aS'7'
aa(lp60
S'nn'
p61
aS'9'
aS'8'
aa(lp62
S'root'
p63
aS'0'
aS'9'
aasS'srls'
p64
(lp65
(dp66
S'A0'
p67
g30
sS'V'
g29
sasS'pos_seq'
p68
(lp69
S'NNS'
p70
aS'NN'
p71
aS'IN'
p72
aS'VBG'
p73
aS'NNS'
p74
aS'VBP'
p75
aS'JJ'
p76
aS'NN'
p77
aS'NN'
p78
asS'ner_seq'
p79
(lp80
S'S-MISC'
p81
aS'O'
aS'O'
aS'O'
aS'O'
aS'O'
aS'O'
aS'O'
aS'O'
assb.