ccopy_reg
_reconstructor
p1
(c__main__
KBproperty
p2
c__builtin__
object
p3
NtRp4
(dp5
S'comment'
p6
S'Railway line that is using the tunnel.10493'
p7
sS'domain'
p8
S'Railway Tunnel '
p9
sS'instances_count'
p10
I78
sS'phrases'
p11
NsS'syn_hypo'
p12
S''
sS'label'
p13
S'railway line using tunnel'
p14
sS'range'
p15
S''
sS'uniq_subjs'
p16
S'78'
p17
sS'uniq_objs'
p18
I0
sS'prop_uri'
p19
S'http://dbpedia.org/ontology/railwayLineUsingTunnel'
p20
sS'annotations'
p21
(dp22
S'bag_of_words'
p23
(lp24
S'Railway'
p25
aS'Tunnel'
p26
aS'railway'
p27
aS'line'
p28
aS'using'
p29
aS'tunnel'
p30
aS'Railway'
p31
aS'line'
p32
aS'that'
p33
aS'is'
p34
aS'using'
p35
aS'the'
p36
aS'tunnel.10493'
p37
asS'chunk_seq'
p38
(lp39
S'B-NP'
p40
aS'I-NP'
p41
aS'I-NP'
p42
aS'E-NP'
p43
aS'S-VP'
p44
aS'B-NP'
p45
aS'I-NP'
p46
aS'E-NP'
p47
aS'S-NP'
p48
aS'B-VP'
p49
aS'E-VP'
p50
aS'B-NP'
p51
aS'E-NP'
p52
asS'dep_seq'
p53
(lp54
(lp55
S'nn'
p56
aS'4'
aS'1'
aa(lp57
S'nn'
p58
aS'4'
aS'2'
aa(lp59
S'nn'
p60
aS'4'
aS'3'
aa(lp61
S'root'
p62
aS'0'
aS'4'
aa(lp63
S'partmod'
p64
aS'4'
aS'5'
aa(lp65
S'nn'
p66
aS'8'
aS'6'
aa(lp67
S'nn'
p68
aS'8'
aS'7'
aa(lp69
S'dobj'
p70
aS'5'
aS'8'
aa(lp71
S'nsubj'
p72
aS'10'
p73
aS'8'
aa(lp74
S'rcmod'
p75
aS'8'
aS'10'
p76
aa(lp77
S'xcomp'
p78
aS'10'
p79
aS'11'
p80
aa(lp81
S'det'
p82
aS'13'
p83
aS'12'
p84
aa(lp85
S'dobj'
p86
aS'11'
p87
aS'13'
p88
aasS'srls'
p89
(lp90
(dp91
S'A1'
p92
S'tunnel Railway line that is using the tunnel.10493'
p93
sS'A0'
p94
S'Railway Tunnel railway line'
p95
sS'V'
g29
sa(dp96
S'A1'
p97
S'the tunnel.10493'
p98
sS'R-A0'
p99
g33
sS'V'
g35
sasS'pos_seq'
p100
(lp101
S'NNP'
p102
aS'NNP'
p103
aS'NN'
p104
aS'NN'
p105
aS'VBG'
p106
aS'NN'
p107
aS'NN'
p108
aS'NN'
p109
aS'WDT'
p110
aS'VBZ'
p111
aS'VBG'
p112
aS'DT'
p113
aS'NN'
p114
asS'ner_seq'
p115
(lp116
S'O'
aS'O'
aS'O'
aS'O'
aS'O'
aS'O'
aS'O'
aS'O'
aS'O'
aS'O'
aS'O'
aS'O'
aS'O'
assb.