ccopy_reg
_reconstructor
p1
(c__main__
KBproperty
p2
c__builtin__
object
p3
NtRp4
(dp5
S'comment'
p6
S'Translators if original not in English1112969'
p7
sS'domain'
p8
S'Work '
p9
sS'instances_count'
p10
I1112
sS'phrases'
p11
NsS'syn_hypo'
p12
V
sS'label'
p13
S'translator'
p14
sS'range'
p15
S'Person '
p16
sS'uniq_subjs'
p17
S'631'
p18
sS'uniq_objs'
p19
I0
sS'prop_uri'
p20
S'http://dbpedia.org/ontology/translator'
p21
sS'annotations'
p22
(dp23
S'bag_of_words'
p24
(lp25
S'Work'
p26
aS'translator'
p27
aS'Person'
p28
aS'Translators'
p29
aS'if'
p30
aS'original'
p31
aS'not'
p32
aS'in'
p33
aS'English1112969'
p34
asS'chunk_seq'
p35
(lp36
S'B-NP'
p37
aS'I-NP'
p38
aS'E-NP'
p39
aS'S-VP'
p40
aS'S-SBAR'
p41
aS'B-NP'
p42
aS'E-NP'
p43
aS'S-PP'
p44
aS'S-NP'
p45
asS'dep_seq'
p46
(lp47
(lp48
S'nn'
p49
aS'3'
aS'1'
aa(lp50
S'nn'
p51
aS'3'
aS'2'
aa(lp52
S'root'
p53
aS'0'
aS'3'
aa(lp54
S'dep'
p55
aS'3'
aS'4'
aa(lp56
S'dep'
p57
aS'3'
aS'5'
aa(lp58
S'dep'
p59
aS'5'
aS'6'
aa(lp60
S'neg'
p61
aS'6'
aS'7'
aa(lp62
S'prep_in'
p63
aS'6'
aS'9'
aasS'srls'
p64
(lp65
sS'pos_seq'
p66
(lp67
S'NN'
p68
aS'NN'
p69
aS'NNP'
p70
aS'NNPS'
p71
aS'IN'
p72
aS'JJ'
p73
aS'RB'
p74
aS'IN'
p75
aS'NNP'
p76
asS'ner_seq'
p77
(lp78
S'O'
aS'O'
aS'O'
aS'O'
aS'O'
aS'O'
aS'O'
aS'O'
aS'S-LOC'
p79
assb.