ccopy_reg
_reconstructor
p1
(c__main__
KBproperty
p2
c__builtin__
object
p3
NtRp4
(dp5
S'comment'
p6
S'mandate of the president of the general council'
p7
sS'domain'
p8
S'Place '
p9
sS'instances_count'
p10
I0
sS'phrases'
p11
NsS'syn_hypo'
p12
S''
sS'label'
p13
g7
sS'range'
p14
S'string '
p15
sS'uniq_subjs'
p16
S'0'
sS'uniq_objs'
p17
I0
sS'prop_uri'
p18
S'http://dbpedia.org/ontology/presidentGeneralCouncilMandate'
p19
sS'annotations'
p20
(dp21
S'bag_of_words'
p22
(lp23
S'Place'
p24
aS'president'
p25
aS'General'
p26
aS'Council'
p27
aS'Mandate'
p28
aS'string'
p29
aS'mandate'
p30
aS'of'
p31
aS'the'
p32
aS'president'
p33
aS'of'
p34
aS'the'
p35
aS'general'
p36
aS'council'
p37
asS'chunk_seq'
p38
(lp39
S'S-NP'
p40
aS'B-NP'
p41
aS'I-NP'
p42
aS'I-NP'
p43
aS'I-NP'
p44
aS'I-NP'
p45
aS'E-NP'
p46
aS'S-PP'
p47
aS'B-NP'
p48
aS'E-NP'
p49
aS'S-PP'
p50
aS'B-NP'
p51
aS'I-NP'
p52
aS'E-NP'
p53
asS'dep_seq'
p54
(lp55
(lp56
S'root'
p57
aS'0'
aS'1'
aa(lp58
S'nn'
p59
aS'7'
aS'2'
aa(lp60
S'nn'
p61
aS'7'
aS'3'
aa(lp62
S'nn'
p63
aS'7'
aS'4'
aa(lp64
S'nn'
p65
aS'7'
aS'5'
aa(lp66
S'nn'
p67
aS'7'
aS'6'
aa(lp68
S'dep'
p69
aS'1'
aS'7'
aa(lp70
S'det'
p71
aS'10'
p72
aS'9'
aa(lp73
S'prep_of'
p74
aS'7'
aS'10'
p75
aa(lp76
S'det'
p77
aS'14'
p78
aS'12'
p79
aa(lp80
S'amod'
p81
aS'14'
p82
aS'13'
p83
aa(lp84
S'prep_of'
p85
aS'10'
p86
aS'14'
p87
aasS'srls'
p88
(lp89
sS'pos_seq'
p90
(lp91
S'NN'
p92
aS'NN'
p93
aS'NNP'
p94
aS'NNP'
p95
aS'NNP'
p96
aS'NN'
p97
aS'NN'
p98
aS'IN'
p99
aS'DT'
p100
aS'NN'
p101
aS'IN'
p102
aS'DT'
p103
aS'JJ'
p104
aS'NN'
p105
asS'ner_seq'
p106
(lp107
S'O'
aS'O'
aS'B-ORG'
p108
aS'E-ORG'
p109
aS'O'
aS'O'
aS'O'
aS'O'
aS'O'
aS'O'
aS'O'
aS'O'
aS'O'
aS'O'
assb.